GAS LISTING /tmp/ccK0Xgwh.s 			page 1


   1              		.file	"userMain.cpp"
   2              		.option pic
   3              		.option norelax
   4              		.text
   5              	.Ltext0:
   6              		.section	.rodata.str1.8,"aMS",@progbits,1
   7              		.align	3
   8              	.LC0:
   9 0000 48656C6C 		.string	"Hello "
   9      6F2000
  10 0007 00       		.align	3
  11              	.LC1:
  12 0008 20210A00 		.string	" !\n"
  13              		.text
  14              		.align	2
  15              		.globl	_Z9sleepyRunPv
  17              	_Z9sleepyRunPv:
  18              	.LFB0:
  19              		.file 1 "src/user/test/ThreadSleep_C_API_test.hpp"
   1:src/user/test/ThreadSleep_C_API_test.hpp **** //
   2:src/user/test/ThreadSleep_C_API_test.hpp **** // Created by os on 4/17/22.
   3:src/user/test/ThreadSleep_C_API_test.hpp **** //
   4:src/user/test/ThreadSleep_C_API_test.hpp **** 
   5:src/user/test/ThreadSleep_C_API_test.hpp **** #ifndef XV6_THREADSLEEP_C_API_TEST_HPP
   6:src/user/test/ThreadSleep_C_API_test.hpp **** #define XV6_THREADSLEEP_C_API_TEST_HPP
   7:src/user/test/ThreadSleep_C_API_test.hpp **** 
   8:src/user/test/ThreadSleep_C_API_test.hpp **** #include "../../../h/syscall_c.hpp"
   9:src/user/test/ThreadSleep_C_API_test.hpp **** 
  10:src/user/test/ThreadSleep_C_API_test.hpp **** #include "printing.hpp"
  11:src/user/test/ThreadSleep_C_API_test.hpp **** 
  12:src/user/test/ThreadSleep_C_API_test.hpp **** bool finished[2];
  13:src/user/test/ThreadSleep_C_API_test.hpp **** 
  14:src/user/test/ThreadSleep_C_API_test.hpp **** void sleepyRun(void *arg) {
  20              		.loc 1 14 27
  21              		.cfi_startproc
  22              	.LVL0:
  23 0000 130101FE 		addi	sp,sp,-32
  24              		.cfi_def_cfa_offset 32
  25 0004 233C1100 		sd	ra,24(sp)
  26 0008 23388100 		sd	s0,16(sp)
  27 000c 23349100 		sd	s1,8(sp)
  28 0010 23302101 		sd	s2,0(sp)
  29              		.cfi_offset 1, -8
  30              		.cfi_offset 8, -16
  31              		.cfi_offset 9, -24
  32              		.cfi_offset 18, -32
  33 0014 13040102 		addi	s0,sp,32
  34              		.cfi_def_cfa 8, 0
  15:src/user/test/ThreadSleep_C_API_test.hpp ****     time_t sleep_time = *((time_t *) arg);
  35              		.loc 1 15 5
  36              		.loc 1 15 12 is_stmt 0
  37 0018 03390500 		ld	s2,0(a0)
  38              	.LVL1:
  16:src/user/test/ThreadSleep_C_API_test.hpp ****     int i = 6;
  39              		.loc 1 16 5 is_stmt 1
  40              		.loc 1 16 9 is_stmt 0
  41 001c 93046000 		li	s1,6
GAS LISTING /tmp/ccK0Xgwh.s 			page 2


  42              	.LVL2:
  43              	.L3:
  17:src/user/test/ThreadSleep_C_API_test.hpp ****     while (--i > 0) {
  44              		.loc 1 17 5 is_stmt 1
  45              		.loc 1 17 16
  46 0020 9B84F4FF 		addiw	s1,s1,-1
  47              	.LVL3:
  48 0024 63549004 		blez	s1,.L2
  18:src/user/test/ThreadSleep_C_API_test.hpp **** 
  19:src/user/test/ThreadSleep_C_API_test.hpp ****         printString("Hello ");
  49              		.loc 1 19 9
  50              		.loc 1 19 20 is_stmt 0
  51 0028 17050000 		lla	a0,.LC0
  51      13050500 
  52 0030 97000000 		call	_Z11printStringPKc@plt
  52      E7800000 
  53              	.LVL4:
  20:src/user/test/ThreadSleep_C_API_test.hpp ****         printInt(sleep_time);
  54              		.loc 1 20 9 is_stmt 1
  55              		.loc 1 20 17 is_stmt 0
  56 0038 13060000 		li	a2,0
  57 003c 9305A000 		li	a1,10
  58 0040 1B050900 		sext.w	a0,s2
  59 0044 97000000 		call	_Z8printIntiii@plt
  59      E7800000 
  60              	.LVL5:
  21:src/user/test/ThreadSleep_C_API_test.hpp ****         printString(" !\n");
  61              		.loc 1 21 9 is_stmt 1
  62              		.loc 1 21 20 is_stmt 0
  63 004c 17050000 		lla	a0,.LC1
  63      13050500 
  64 0054 97000000 		call	_Z11printStringPKc@plt
  64      E7800000 
  65              	.LVL6:
  22:src/user/test/ThreadSleep_C_API_test.hpp ****         time_sleep(sleep_time);
  66              		.loc 1 22 9 is_stmt 1
  67              		.loc 1 22 19 is_stmt 0
  68 005c 13050900 		mv	a0,s2
  69 0060 97000000 		call	_Z10time_sleepm@plt
  69      E7800000 
  70              	.LVL7:
  17:src/user/test/ThreadSleep_C_API_test.hpp **** 
  71              		.loc 1 17 5
  72 0068 6FF09FFB 		j	.L3
  73              	.L2:
  23:src/user/test/ThreadSleep_C_API_test.hpp ****     }
  24:src/user/test/ThreadSleep_C_API_test.hpp ****     finished[sleep_time/10-1] = true;
  74              		.loc 1 24 5 is_stmt 1
  75              		.loc 1 24 24 is_stmt 0
  76 006c 9307A000 		li	a5,10
  77 0070 3359F902 		divu	s2,s2,a5
  78              	.LVL8:
  79              		.loc 1 24 27
  80 0074 1309F9FF 		addi	s2,s2,-1
  81              		.loc 1 24 31
  82 0078 97070000 		lla	a5,.LANCHOR0
  82      93870700 
GAS LISTING /tmp/ccK0Xgwh.s 			page 3


  83 0080 33892701 		add	s2,a5,s2
  84 0084 93071000 		li	a5,1
  85 0088 2300F900 		sb	a5,0(s2)
  25:src/user/test/ThreadSleep_C_API_test.hpp **** }
  86              		.loc 1 25 1
  87 008c 83308101 		ld	ra,24(sp)
  88              		.cfi_restore 1
  89 0090 03340101 		ld	s0,16(sp)
  90              		.cfi_restore 8
  91              		.cfi_def_cfa 2, 32
  92 0094 83348100 		ld	s1,8(sp)
  93              		.cfi_restore 9
  94 0098 03390100 		ld	s2,0(sp)
  95              		.cfi_restore 18
  96 009c 13010102 		addi	sp,sp,32
  97              		.cfi_def_cfa_offset 0
  98 00a0 67800000 		jr	ra
  99              		.cfi_endproc
 100              	.LFE0:
 102              		.align	2
 103              		.globl	_Z12testSleepingv
 105              	_Z12testSleepingv:
 106              	.LFB1:
  26:src/user/test/ThreadSleep_C_API_test.hpp **** 
  27:src/user/test/ThreadSleep_C_API_test.hpp **** void testSleeping() {
 107              		.loc 1 27 21 is_stmt 1
 108              		.cfi_startproc
 109 00a4 130101FC 		addi	sp,sp,-64
 110              		.cfi_def_cfa_offset 64
 111 00a8 233C1102 		sd	ra,56(sp)
 112 00ac 23388102 		sd	s0,48(sp)
 113 00b0 23349102 		sd	s1,40(sp)
 114              		.cfi_offset 1, -8
 115              		.cfi_offset 8, -16
 116              		.cfi_offset 9, -24
 117 00b4 13040104 		addi	s0,sp,64
 118              		.cfi_def_cfa 8, 0
  28:src/user/test/ThreadSleep_C_API_test.hpp ****     const int sleepy_thread_count = 2;
 119              		.loc 1 28 5
 120              	.LVL9:
  29:src/user/test/ThreadSleep_C_API_test.hpp ****     time_t sleep_times[sleepy_thread_count] = {10, 20};
 121              		.loc 1 29 5
 122              		.loc 1 29 12 is_stmt 0
 123 00b8 9307A000 		li	a5,10
 124 00bc 2338F4FC 		sd	a5,-48(s0)
 125 00c0 93074001 		li	a5,20
 126 00c4 233CF4FC 		sd	a5,-40(s0)
  30:src/user/test/ThreadSleep_C_API_test.hpp ****     thread_t sleepyThread[sleepy_thread_count];
 127              		.loc 1 30 5 is_stmt 1
  31:src/user/test/ThreadSleep_C_API_test.hpp **** 
  32:src/user/test/ThreadSleep_C_API_test.hpp ****     for (int i = 0; i < sleepy_thread_count; i++) {
 128              		.loc 1 32 5
 129              	.LVL10:
 130              	.LBB2:
 131              		.loc 1 32 14 is_stmt 0
 132 00c8 93040000 		li	s1,0
 133 00cc 6F00C002 		j	.L7
GAS LISTING /tmp/ccK0Xgwh.s 			page 4


 134              	.LVL11:
 135              	.L10:
  33:src/user/test/ThreadSleep_C_API_test.hpp ****         thread_create(&sleepyThread[i], sleepyRun, sleep_times + i);
 136              		.loc 1 33 9 is_stmt 1
 137              		.loc 1 33 64 is_stmt 0
 138 00d0 93973400 		slli	a5,s1,3
 139              		.loc 1 33 22
 140 00d4 130604FD 		addi	a2,s0,-48
 141 00d8 3306F600 		add	a2,a2,a5
 142 00dc 97050000 		lla	a1,_Z9sleepyRunPv
 142      93850500 
 143 00e4 130504FC 		addi	a0,s0,-64
 144 00e8 3305F500 		add	a0,a0,a5
 145 00ec 97000000 		call	_Z13thread_createPP7_threadPFvPvES2_@plt
 145      E7800000 
 146              	.LVL12:
  32:src/user/test/ThreadSleep_C_API_test.hpp ****         thread_create(&sleepyThread[i], sleepyRun, sleep_times + i);
 147              		.loc 1 32 5 is_stmt 1
 148 00f4 9B841400 		addiw	s1,s1,1
 149              	.LVL13:
 150              	.L7:
  32:src/user/test/ThreadSleep_C_API_test.hpp ****         thread_create(&sleepyThread[i], sleepyRun, sleep_times + i);
 151              		.loc 1 32 23 discriminator 1
 152 00f8 93071000 		li	a5,1
 153 00fc E3DA97FC 		ble	s1,a5,.L10
 154              	.L8:
 155              	.LBE2:
  34:src/user/test/ThreadSleep_C_API_test.hpp ****     }
  35:src/user/test/ThreadSleep_C_API_test.hpp **** 
  36:src/user/test/ThreadSleep_C_API_test.hpp ****     while (!(finished[0] && finished[1])) {}
 156              		.loc 1 36 5
 157              		.loc 1 36 12
 158              		.loc 1 36 24 is_stmt 0
 159 0100 97070000 		lbu	a5,.LANCHOR0
 159      83C70700 
 160              		.loc 1 36 12
 161 0108 E38C07FE 		beqz	a5,.L8
 162              		.loc 1 36 39 discriminator 1
 163 010c 97070000 		lbu	a5,.LANCHOR0+1
 163      83C70700 
 164              		.loc 1 36 12 discriminator 1
 165 0114 E38607FE 		beqz	a5,.L8
  37:src/user/test/ThreadSleep_C_API_test.hpp **** }
 166              		.loc 1 37 1
 167 0118 83308103 		ld	ra,56(sp)
 168              		.cfi_restore 1
 169 011c 03340103 		ld	s0,48(sp)
 170              		.cfi_restore 8
 171              		.cfi_def_cfa 2, 64
 172 0120 83348102 		ld	s1,40(sp)
 173              		.cfi_restore 9
 174              	.LVL14:
 175 0124 13010104 		addi	sp,sp,64
 176              		.cfi_def_cfa_offset 0
 177 0128 67800000 		jr	ra
 178              		.cfi_endproc
 179              	.LFE1:
GAS LISTING /tmp/ccK0Xgwh.s 			page 5


 181              		.align	2
 182              		.globl	_Z8userMainv
 184              	_Z8userMainv:
 185              	.LFB2:
 186              		.file 2 "src/user/test/userMain.cpp"
   1:src/user/test/userMain.cpp **** //
   2:src/user/test/userMain.cpp **** // Created by os on 5/16/22.
   3:src/user/test/userMain.cpp **** //
   4:src/user/test/userMain.cpp **** 
   5:src/user/test/userMain.cpp **** //#include "userMain.hpp"
   6:src/user/test/userMain.cpp **** //#include "Threads_C_API_test.hpp" // zadatak 2, niti C API i sinhrona promena konteksta
   7:src/user/test/userMain.cpp **** //#include "Threads_CPP_API_test.hpp" // zadatak 2., niti CPP API i sinhrona promena konteksta
   8:src/user/test/userMain.cpp **** 
   9:src/user/test/userMain.cpp **** //#include "ConsumerProducer_C_API_test.hpp" // zadatak 3., kompletan C API sa semaforima, sinhrona
  10:src/user/test/userMain.cpp **** //#include "ConsumerProducer_CPP_Sync_API_test.hpp" // zadatak 3., kompletan CPP API sa semaforima,
  11:src/user/test/userMain.cpp **** 
  12:src/user/test/userMain.cpp **** #include "ThreadSleep_C_API_test.hpp" // thread_sleep test C API
  13:src/user/test/userMain.cpp **** //#include "ConsumerProducer_CPP_API_test.hpp" // zadatak 4. CPP API i asinhrona promena konteksta
  14:src/user/test/userMain.cpp **** 
  15:src/user/test/userMain.cpp **** //#include "test1OS2.hpp"
  16:src/user/test/userMain.cpp **** 
  17:src/user/test/userMain.cpp **** void userMain()
  18:src/user/test/userMain.cpp **** {
 187              		.loc 2 18 1 is_stmt 1
 188              		.cfi_startproc
 189 012c 130101FF 		addi	sp,sp,-16
 190              		.cfi_def_cfa_offset 16
 191 0130 23348100 		sd	s0,8(sp)
 192              		.cfi_offset 8, -8
 193 0134 13040101 		addi	s0,sp,16
 194              		.cfi_def_cfa 8, 0
  19:src/user/test/userMain.cpp ****     //__asm__ volatile("csrr a0, sstatus"); // test for changing privilege
  20:src/user/test/userMain.cpp **** 
  21:src/user/test/userMain.cpp ****     //Threads_C_API_test(); // zadatak 2., niti C API i sinhrona promena konteksta
  22:src/user/test/userMain.cpp ****     //Threads_CPP_API_test(); // zadatak 2., niti CPP API i sinhrona promena konteksta
  23:src/user/test/userMain.cpp **** 
  24:src/user/test/userMain.cpp ****     //producerConsumer_C_API(); // zadatak 3., kompletan C API sa semaforima, sinhrona promena kont
  25:src/user/test/userMain.cpp ****     //producerConsumer_CPP_Sync_API(); // zadatak 3., kompletan CPP API sa semaforima, sinhrona pro
  26:src/user/test/userMain.cpp **** 
  27:src/user/test/userMain.cpp ****     //testSleeping(); // thread_sleep test C API
  28:src/user/test/userMain.cpp ****     //ConsumerProducerCPP::testConsumerProducer(); // zadatak 4. CPP API i asinhrona promena kontek
  29:src/user/test/userMain.cpp **** 
  30:src/user/test/userMain.cpp ****     //userMainTest();
  31:src/user/test/userMain.cpp **** }...
 195              		.loc 2 31 1 is_stmt 0
 196 0138 03348100 		ld	s0,8(sp)
 197              		.cfi_restore 8
 198              		.cfi_def_cfa 2, 16
 199 013c 13010101 		addi	sp,sp,16
 200              		.cfi_def_cfa_offset 0
 201 0140 67800000 		jr	ra
 202              		.cfi_endproc
 203              	.LFE2:
 205              		.globl	finished
 206              		.bss
 207              		.align	3
 208              		.set	.LANCHOR0,. + 0
GAS LISTING /tmp/ccK0Xgwh.s 			page 6


 211              	finished:
 212 0000 0000     		.zero	2
 213              		.text
 214              	.Letext0:
 215              		.file 3 "src/user/test/../../../h/../lib/hw.h"
 216              		.file 4 "src/user/test/../../../h/syscall_c.hpp"
 217              		.file 5 "src/user/test/printing.hpp"
 218              		.file 6 "src/user/test/../../../h/_thread.hpp"
GAS LISTING /tmp/ccK0Xgwh.s 			page 7


DEFINED SYMBOLS
                            *ABS*:0000000000000000 userMain.cpp
     /tmp/ccK0Xgwh.s:17     .text:0000000000000000 _Z9sleepyRunPv
     /tmp/ccK0Xgwh.s:21     .text:0000000000000000 .L0 
     /tmp/ccK0Xgwh.s:23     .text:0000000000000000 .L0 
     /tmp/ccK0Xgwh.s:24     .text:0000000000000004 .L0 
     /tmp/ccK0Xgwh.s:29     .text:0000000000000014 .L0 
     /tmp/ccK0Xgwh.s:30     .text:0000000000000014 .L0 
     /tmp/ccK0Xgwh.s:31     .text:0000000000000014 .L0 
     /tmp/ccK0Xgwh.s:32     .text:0000000000000014 .L0 
     /tmp/ccK0Xgwh.s:34     .text:0000000000000018 .L0 
     /tmp/ccK0Xgwh.s:36     .text:0000000000000018 .L0 
     /tmp/ccK0Xgwh.s:37     .text:0000000000000018 .L0 
     /tmp/ccK0Xgwh.s:40     .text:000000000000001c .L0 
     /tmp/ccK0Xgwh.s:41     .text:000000000000001c .L0 
     /tmp/ccK0Xgwh.s:45     .text:0000000000000020 .L0 
     /tmp/ccK0Xgwh.s:46     .text:0000000000000020 .L0 
     /tmp/ccK0Xgwh.s:50     .text:0000000000000028 .L0 
     /tmp/ccK0Xgwh.s:51     .text:0000000000000028 .L0 
     /tmp/ccK0Xgwh.s:55     .text:0000000000000038 .L0 
     /tmp/ccK0Xgwh.s:56     .text:0000000000000038 .L0 
     /tmp/ccK0Xgwh.s:62     .text:000000000000004c .L0 
     /tmp/ccK0Xgwh.s:63     .text:000000000000004c .L0 
     /tmp/ccK0Xgwh.s:67     .text:000000000000005c .L0 
     /tmp/ccK0Xgwh.s:68     .text:000000000000005c .L0 
     /tmp/ccK0Xgwh.s:72     .text:0000000000000068 .L0 
     /tmp/ccK0Xgwh.s:75     .text:000000000000006c .L0 
     /tmp/ccK0Xgwh.s:76     .text:000000000000006c .L0 
     /tmp/ccK0Xgwh.s:80     .text:0000000000000074 .L0 
     /tmp/ccK0Xgwh.s:82     .text:0000000000000078 .L0 
     /tmp/ccK0Xgwh.s:87     .text:000000000000008c .L0 
     /tmp/ccK0Xgwh.s:88     .text:0000000000000090 .L0 
     /tmp/ccK0Xgwh.s:90     .text:0000000000000094 .L0 
     /tmp/ccK0Xgwh.s:91     .text:0000000000000094 .L0 
     /tmp/ccK0Xgwh.s:93     .text:0000000000000098 .L0 
     /tmp/ccK0Xgwh.s:95     .text:000000000000009c .L0 
     /tmp/ccK0Xgwh.s:97     .text:00000000000000a0 .L0 
     /tmp/ccK0Xgwh.s:99     .text:00000000000000a4 .L0 
     /tmp/ccK0Xgwh.s:105    .text:00000000000000a4 _Z12testSleepingv
     /tmp/ccK0Xgwh.s:108    .text:00000000000000a4 .L0 
     /tmp/ccK0Xgwh.s:109    .text:00000000000000a4 .L0 
     /tmp/ccK0Xgwh.s:110    .text:00000000000000a8 .L0 
     /tmp/ccK0Xgwh.s:114    .text:00000000000000b4 .L0 
     /tmp/ccK0Xgwh.s:115    .text:00000000000000b4 .L0 
     /tmp/ccK0Xgwh.s:116    .text:00000000000000b4 .L0 
     /tmp/ccK0Xgwh.s:118    .text:00000000000000b8 .L0 
     /tmp/ccK0Xgwh.s:121    .text:00000000000000b8 .L0 
     /tmp/ccK0Xgwh.s:122    .text:00000000000000b8 .L0 
     /tmp/ccK0Xgwh.s:123    .text:00000000000000b8 .L0 
     /tmp/ccK0Xgwh.s:128    .text:00000000000000c8 .L0 
     /tmp/ccK0Xgwh.s:131    .text:00000000000000c8 .L0 
     /tmp/ccK0Xgwh.s:132    .text:00000000000000c8 .L0 
     /tmp/ccK0Xgwh.s:137    .text:00000000000000d0 .L0 
     /tmp/ccK0Xgwh.s:138    .text:00000000000000d0 .L0 
     /tmp/ccK0Xgwh.s:140    .text:00000000000000d4 .L0 
     /tmp/ccK0Xgwh.s:148    .text:00000000000000f4 .L0 
     /tmp/ccK0Xgwh.s:152    .text:00000000000000f8 .L0 
GAS LISTING /tmp/ccK0Xgwh.s 			page 8


     /tmp/ccK0Xgwh.s:157    .text:0000000000000100 .L0 
     /tmp/ccK0Xgwh.s:158    .text:0000000000000100 .L0 
     /tmp/ccK0Xgwh.s:159    .text:0000000000000100 .L0 
     /tmp/ccK0Xgwh.s:161    .text:0000000000000108 .L0 
     /tmp/ccK0Xgwh.s:163    .text:000000000000010c .L0 
     /tmp/ccK0Xgwh.s:165    .text:0000000000000114 .L0 
     /tmp/ccK0Xgwh.s:167    .text:0000000000000118 .L0 
     /tmp/ccK0Xgwh.s:168    .text:000000000000011c .L0 
     /tmp/ccK0Xgwh.s:170    .text:0000000000000120 .L0 
     /tmp/ccK0Xgwh.s:171    .text:0000000000000120 .L0 
     /tmp/ccK0Xgwh.s:173    .text:0000000000000124 .L0 
     /tmp/ccK0Xgwh.s:176    .text:0000000000000128 .L0 
     /tmp/ccK0Xgwh.s:178    .text:000000000000012c .L0 
     /tmp/ccK0Xgwh.s:184    .text:000000000000012c _Z8userMainv
     /tmp/ccK0Xgwh.s:188    .text:000000000000012c .L0 
     /tmp/ccK0Xgwh.s:189    .text:000000000000012c .L0 
     /tmp/ccK0Xgwh.s:190    .text:0000000000000130 .L0 
     /tmp/ccK0Xgwh.s:192    .text:0000000000000134 .L0 
     /tmp/ccK0Xgwh.s:194    .text:0000000000000138 .L0 
     /tmp/ccK0Xgwh.s:196    .text:0000000000000138 .L0 
     /tmp/ccK0Xgwh.s:197    .text:000000000000013c .L0 
     /tmp/ccK0Xgwh.s:198    .text:000000000000013c .L0 
     /tmp/ccK0Xgwh.s:200    .text:0000000000000140 .L0 
     /tmp/ccK0Xgwh.s:202    .text:0000000000000144 .L0 
     /tmp/ccK0Xgwh.s:211    .bss:0000000000000000 finished
     /tmp/ccK0Xgwh.s:208    .bss:0000000000000000 .LANCHOR0
     /tmp/ccK0Xgwh.s:219    .text:0000000000000144 .L0 
     /tmp/ccK0Xgwh.s:8      .rodata.str1.8:0000000000000000 .LC0
     /tmp/ccK0Xgwh.s:51     .text:0000000000000028 .L0 
     /tmp/ccK0Xgwh.s:11     .rodata.str1.8:0000000000000008 .LC1
     /tmp/ccK0Xgwh.s:63     .text:000000000000004c .L0 
     /tmp/ccK0Xgwh.s:82     .text:0000000000000078 .L0 
     /tmp/ccK0Xgwh.s:142    .text:00000000000000dc .L0 
     /tmp/ccK0Xgwh.s:159    .text:0000000000000100 .L0 
     /tmp/ccK0Xgwh.s:163    .text:000000000000010c .L0 
     /tmp/ccK0Xgwh.s:73     .text:000000000000006c .L2
     /tmp/ccK0Xgwh.s:43     .text:0000000000000020 .L3
     /tmp/ccK0Xgwh.s:150    .text:00000000000000f8 .L7
     /tmp/ccK0Xgwh.s:135    .text:00000000000000d0 .L10
     /tmp/ccK0Xgwh.s:154    .text:0000000000000100 .L8
     /tmp/ccK0Xgwh.s:628    .debug_abbrev:0000000000000000 .Ldebug_abbrev0
     /tmp/ccK0Xgwh.s:1136   .debug_str:000000000000017c .LASF38
     /tmp/ccK0Xgwh.s:1126   .debug_str:000000000000011b .LASF39
     /tmp/ccK0Xgwh.s:1158   .debug_str:00000000000002d2 .LASF40
     /tmp/ccK0Xgwh.s:5      .text:0000000000000000 .Ltext0
     /tmp/ccK0Xgwh.s:214    .text:0000000000000144 .Letext0
     /tmp/ccK0Xgwh.s:1086   .debug_line:0000000000000000 .Ldebug_line0
     /tmp/ccK0Xgwh.s:1140   .debug_str:0000000000000255 .LASF0
     /tmp/ccK0Xgwh.s:1124   .debug_str:0000000000000108 .LASF1
     /tmp/ccK0Xgwh.s:1116   .debug_str:00000000000000c6 .LASF2
     /tmp/ccK0Xgwh.s:1100   .debug_str:0000000000000055 .LASF4
     /tmp/ccK0Xgwh.s:1122   .debug_str:00000000000000f6 .LASF3
     /tmp/ccK0Xgwh.s:1096   .debug_str:0000000000000040 .LASF5
     /tmp/ccK0Xgwh.s:1150   .debug_str:000000000000029c .LASF6
     /tmp/ccK0Xgwh.s:1092   .debug_str:000000000000001e .LASF7
     /tmp/ccK0Xgwh.s:1110   .debug_str:0000000000000091 .LASF8
     /tmp/ccK0Xgwh.s:1152   .debug_str:00000000000002a3 .LASF9
GAS LISTING /tmp/ccK0Xgwh.s 			page 9


     /tmp/ccK0Xgwh.s:1098   .debug_str:0000000000000047 .LASF10
     /tmp/ccK0Xgwh.s:1178   .debug_str:0000000000000367 .LASF11
     /tmp/ccK0Xgwh.s:1088   .debug_str:0000000000000000 .LASF12
     /tmp/ccK0Xgwh.s:1112   .debug_str:00000000000000a4 .LASF13
     /tmp/ccK0Xgwh.s:1172   .debug_str:000000000000033e .LASF14
     /tmp/ccK0Xgwh.s:1148   .debug_str:000000000000028c .LASF15
     /tmp/ccK0Xgwh.s:1130   .debug_str:000000000000013f .LASF16
     /tmp/ccK0Xgwh.s:1106   .debug_str:000000000000006a .LASF17
     /tmp/ccK0Xgwh.s:1154   .debug_str:00000000000002b3 .LASF18
     /tmp/ccK0Xgwh.s:1164   .debug_str:000000000000030f .LASF41
     /tmp/ccK0Xgwh.s:1144   .debug_str:000000000000026d .LASF42
     /tmp/ccK0Xgwh.s:1108   .debug_str:0000000000000080 .LASF43
     /tmp/ccK0Xgwh.s:1156   .debug_str:00000000000002c9 .LASF19
     /tmp/ccK0Xgwh.s:1102   .debug_str:000000000000005c .LASF20
     /tmp/ccK0Xgwh.s:1128   .debug_str:0000000000000136 .LASF21
     /tmp/ccK0Xgwh.s:1138   .debug_str:000000000000024c .LASF44
     /tmp/ccK0Xgwh.s:1174   .debug_str:000000000000034e .LASF45
     /tmp/ccK0Xgwh.s:185    .text:000000000000012c .LFB2
     /tmp/ccK0Xgwh.s:203    .text:0000000000000144 .LFE2
     /tmp/ccK0Xgwh.s:1170   .debug_str:0000000000000331 .LASF25
     /tmp/ccK0Xgwh.s:1160   .debug_str:00000000000002f0 .LASF27
     /tmp/ccK0Xgwh.s:106    .text:00000000000000a4 .LFB1
     /tmp/ccK0Xgwh.s:179    .text:000000000000012c .LFE1
     /tmp/ccK0Xgwh.s:1120   .debug_str:00000000000000e2 .LASF22
     /tmp/ccK0Xgwh.s:1132   .debug_str:000000000000014b .LASF23
     /tmp/ccK0Xgwh.s:1162   .debug_str:0000000000000302 .LASF24
     /tmp/ccK0Xgwh.s:130    .text:00000000000000c8 .LBB2
     /tmp/ccK0Xgwh.s:155    .text:0000000000000100 .LBE2
     /tmp/ccK0Xgwh.s:1028   .debug_loc:0000000000000000 .LLST3
     /tmp/ccK0Xgwh.s:146    .text:00000000000000f4 .LVL12
     /tmp/ccK0Xgwh.s:1166   .debug_str:0000000000000317 .LASF26
     /tmp/ccK0Xgwh.s:1094   .debug_str:0000000000000031 .LASF28
     /tmp/ccK0Xgwh.s:18     .text:0000000000000000 .LFB0
     /tmp/ccK0Xgwh.s:100    .text:00000000000000a4 .LFE0
     /tmp/ccK0Xgwh.s:1040   .debug_loc:0000000000000037 .LLST0
     /tmp/ccK0Xgwh.s:1090   .debug_str:0000000000000013 .LASF29
     /tmp/ccK0Xgwh.s:1054   .debug_loc:0000000000000070 .LLST1
     /tmp/ccK0Xgwh.s:1061   .debug_loc:0000000000000093 .LLST2
     /tmp/ccK0Xgwh.s:53     .text:0000000000000038 .LVL4
     /tmp/ccK0Xgwh.s:60     .text:000000000000004c .LVL5
     /tmp/ccK0Xgwh.s:65     .text:000000000000005c .LVL6
     /tmp/ccK0Xgwh.s:70     .text:0000000000000068 .LVL7
     /tmp/ccK0Xgwh.s:1134   .debug_str:0000000000000157 .LASF30
     /tmp/ccK0Xgwh.s:1118   .debug_str:00000000000000d4 .LASF32
     /tmp/ccK0Xgwh.s:1114   .debug_str:00000000000000b3 .LASF31
     /tmp/ccK0Xgwh.s:1176   .debug_str:000000000000035b .LASF33
     /tmp/ccK0Xgwh.s:1146   .debug_str:000000000000027d .LASF34
     /tmp/ccK0Xgwh.s:1104   .debug_str:0000000000000061 .LASF35
     /tmp/ccK0Xgwh.s:1168   .debug_str:0000000000000321 .LASF36
     /tmp/ccK0Xgwh.s:1142   .debug_str:0000000000000262 .LASF37
     /tmp/ccK0Xgwh.s:129    .text:00000000000000c8 .LVL10
     /tmp/ccK0Xgwh.s:134    .text:00000000000000d0 .LVL11
     /tmp/ccK0Xgwh.s:174    .text:0000000000000124 .LVL14
     /tmp/ccK0Xgwh.s:22     .text:0000000000000000 .LVL0
     /tmp/ccK0Xgwh.s:42     .text:0000000000000020 .LVL2
     /tmp/ccK0Xgwh.s:38     .text:000000000000001c .LVL1
     /tmp/ccK0Xgwh.s:78     .text:0000000000000074 .LVL8
GAS LISTING /tmp/ccK0Xgwh.s 			page 10


     /tmp/ccK0Xgwh.s:47     .text:0000000000000024 .LVL3
     /tmp/ccK0Xgwh.s:220    .debug_info:0000000000000000 .Ldebug_info0

UNDEFINED SYMBOLS
_Z11printStringPKc
_Z8printIntiii
_Z10time_sleepm
_Z13thread_createPP7_threadPFvPvES2_
