
kernel:     file format elf64-littleriscv


Disassembly of section .text:

0000000080000000 <_entry>:
    80000000:	00009117          	auipc	sp,0x9
    80000004:	96013103          	ld	sp,-1696(sp) # 80008960 <_GLOBAL_OFFSET_TABLE_+0x58>
    80000008:	00001537          	lui	a0,0x1
    8000000c:	f14025f3          	csrr	a1,mhartid
    80000010:	00158593          	addi	a1,a1,1
    80000014:	02b50533          	mul	a0,a0,a1
    80000018:	00a10133          	add	sp,sp,a0
    8000001c:	414050ef          	jal	ra,80005430 <start>

0000000080000020 <spin>:
    80000020:	0000006f          	j	80000020 <spin>
	...

0000000080001000 <_ZN5Riscv14supervisorTrapEv>:
.align 4
.global _ZN5Riscv14supervisorTrapEv
.type _ZN5Riscv14supervisorTrapEv, @function
_ZN5Riscv14supervisorTrapEv:

    addi sp, sp, -256
    80001000:	f0010113          	addi	sp,sp,-256
    csrw sscratch, sp
    80001004:	14011073          	csrw	sscratch,sp
    sd x0, 0(sp)
    80001008:	00013023          	sd	zero,0(sp)
    sd x1, 8(sp)
    8000100c:	00113423          	sd	ra,8(sp)
    sd x2, 16(sp)
    80001010:	00213823          	sd	sp,16(sp)
    sd x3, 24(sp)
    80001014:	00313c23          	sd	gp,24(sp)
    sd x4, 32(sp)
    80001018:	02413023          	sd	tp,32(sp)
    sd x5, 40(sp)
    8000101c:	02513423          	sd	t0,40(sp)
    sd x6, 48(sp)
    80001020:	02613823          	sd	t1,48(sp)
    sd x7, 56(sp)
    80001024:	02713c23          	sd	t2,56(sp)
    sd x8, 64(sp)
    80001028:	04813023          	sd	s0,64(sp)
    sd x9, 72(sp)
    8000102c:	04913423          	sd	s1,72(sp)
    sd x10, 80(sp)
    80001030:	04a13823          	sd	a0,80(sp)
    sd x11, 88(sp)
    80001034:	04b13c23          	sd	a1,88(sp)
    sd x12, 96(sp)
    80001038:	06c13023          	sd	a2,96(sp)
    sd x13, 104(sp)
    8000103c:	06d13423          	sd	a3,104(sp)
    sd x14, 112(sp)
    80001040:	06e13823          	sd	a4,112(sp)
    sd x15, 120(sp)
    80001044:	06f13c23          	sd	a5,120(sp)
    sd x16, 128(sp)
    80001048:	09013023          	sd	a6,128(sp)
    sd x17, 136(sp)
    8000104c:	09113423          	sd	a7,136(sp)
    sd x18, 144(sp)
    80001050:	09213823          	sd	s2,144(sp)
    sd x19, 152(sp)
    80001054:	09313c23          	sd	s3,152(sp)
    sd x20, 160(sp)
    80001058:	0b413023          	sd	s4,160(sp)
    sd x21, 168(sp)
    8000105c:	0b513423          	sd	s5,168(sp)
    sd x22, 176(sp)
    80001060:	0b613823          	sd	s6,176(sp)
    sd x23, 184(sp)
    80001064:	0b713c23          	sd	s7,184(sp)
    sd x24, 192(sp)
    80001068:	0d813023          	sd	s8,192(sp)
    sd x25, 200(sp)
    8000106c:	0d913423          	sd	s9,200(sp)
    sd x26, 208(sp)
    80001070:	0da13823          	sd	s10,208(sp)
    sd x27, 216(sp)
    80001074:	0db13c23          	sd	s11,216(sp)
    sd x28, 224(sp)
    80001078:	0fc13023          	sd	t3,224(sp)
    sd x29, 232(sp)
    8000107c:	0fd13423          	sd	t4,232(sp)
    sd x30, 240(sp)
    80001080:	0fe13823          	sd	t5,240(sp)
    sd x31, 248(sp)
    80001084:	0ff13c23          	sd	t6,248(sp)

    call _ZN5Riscv20handleSupervisorTrapEv
    80001088:	2cc030ef          	jal	ra,80004354 <_ZN5Riscv20handleSupervisorTrapEv>

    ld x0, 0(sp)
    8000108c:	00013003          	ld	zero,0(sp)
    ld x1, 8(sp)
    80001090:	00813083          	ld	ra,8(sp)
    ld x2, 16(sp)
    80001094:	01013103          	ld	sp,16(sp)
    ld x3, 24(sp)
    80001098:	01813183          	ld	gp,24(sp)
    ld x4, 32(sp)
    8000109c:	02013203          	ld	tp,32(sp)
    ld x5, 40(sp)
    800010a0:	02813283          	ld	t0,40(sp)
    ld x6, 48(sp)
    800010a4:	03013303          	ld	t1,48(sp)
    ld x7, 56(sp)
    800010a8:	03813383          	ld	t2,56(sp)
    ld x8, 64(sp)
    800010ac:	04013403          	ld	s0,64(sp)
    ld x9, 72(sp)
    800010b0:	04813483          	ld	s1,72(sp)
    ld x10, 80(sp)
    800010b4:	05013503          	ld	a0,80(sp)
    ld x11, 88(sp)
    800010b8:	05813583          	ld	a1,88(sp)
    ld x12, 96(sp)
    800010bc:	06013603          	ld	a2,96(sp)
    ld x13, 104(sp)
    800010c0:	06813683          	ld	a3,104(sp)
    ld x14, 112(sp)
    800010c4:	07013703          	ld	a4,112(sp)
    ld x15, 120(sp)
    800010c8:	07813783          	ld	a5,120(sp)
    ld x16, 128(sp)
    800010cc:	08013803          	ld	a6,128(sp)
    ld x17, 136(sp)
    800010d0:	08813883          	ld	a7,136(sp)
    ld x18, 144(sp)
    800010d4:	09013903          	ld	s2,144(sp)
    ld x19, 152(sp)
    800010d8:	09813983          	ld	s3,152(sp)
    ld x20, 160(sp)
    800010dc:	0a013a03          	ld	s4,160(sp)
    ld x21, 168(sp)
    800010e0:	0a813a83          	ld	s5,168(sp)
    ld x22, 176(sp)
    800010e4:	0b013b03          	ld	s6,176(sp)
    ld x23, 184(sp)
    800010e8:	0b813b83          	ld	s7,184(sp)
    ld x24, 192(sp)
    800010ec:	0c013c03          	ld	s8,192(sp)
    ld x25, 200(sp)
    800010f0:	0c813c83          	ld	s9,200(sp)
    ld x26, 208(sp)
    800010f4:	0d013d03          	ld	s10,208(sp)
    ld x27, 216(sp)
    800010f8:	0d813d83          	ld	s11,216(sp)
    ld x28, 224(sp)
    800010fc:	0e013e03          	ld	t3,224(sp)
    ld x29, 232(sp)
    80001100:	0e813e83          	ld	t4,232(sp)
    ld x30, 240(sp)
    80001104:	0f013f03          	ld	t5,240(sp)
    ld x31, 248(sp)
    80001108:	0f813f83          	ld	t6,248(sp)

    addi sp, sp, 256
    8000110c:	10010113          	addi	sp,sp,256

    80001110:	10200073          	sret
	...

0000000080001120 <_ZN5Riscv13pushRegistersEv>:
.global _ZN5Riscv13pushRegistersEv
.type _ZN5Riscv13pushRegistersEv, @function
_ZN5Riscv13pushRegistersEv:
    addi sp, sp, -256
    80001120:	f0010113          	addi	sp,sp,-256
    .irp index, 3,4,5,6,7,8,9,10,11,12,13,14,15,16,17,18,19,20,21,22,23,24,25,26,27,28,29,30,31
    sd x\index, \index * 8(sp)
    .endr
    80001124:	00313c23          	sd	gp,24(sp)
    80001128:	02413023          	sd	tp,32(sp)
    8000112c:	02513423          	sd	t0,40(sp)
    80001130:	02613823          	sd	t1,48(sp)
    80001134:	02713c23          	sd	t2,56(sp)
    80001138:	04813023          	sd	s0,64(sp)
    8000113c:	04913423          	sd	s1,72(sp)
    80001140:	04a13823          	sd	a0,80(sp)
    80001144:	04b13c23          	sd	a1,88(sp)
    80001148:	06c13023          	sd	a2,96(sp)
    8000114c:	06d13423          	sd	a3,104(sp)
    80001150:	06e13823          	sd	a4,112(sp)
    80001154:	06f13c23          	sd	a5,120(sp)
    80001158:	09013023          	sd	a6,128(sp)
    8000115c:	09113423          	sd	a7,136(sp)
    80001160:	09213823          	sd	s2,144(sp)
    80001164:	09313c23          	sd	s3,152(sp)
    80001168:	0b413023          	sd	s4,160(sp)
    8000116c:	0b513423          	sd	s5,168(sp)
    80001170:	0b613823          	sd	s6,176(sp)
    80001174:	0b713c23          	sd	s7,184(sp)
    80001178:	0d813023          	sd	s8,192(sp)
    8000117c:	0d913423          	sd	s9,200(sp)
    80001180:	0da13823          	sd	s10,208(sp)
    80001184:	0db13c23          	sd	s11,216(sp)
    80001188:	0fc13023          	sd	t3,224(sp)
    8000118c:	0fd13423          	sd	t4,232(sp)
    80001190:	0fe13823          	sd	t5,240(sp)
    80001194:	0ff13c23          	sd	t6,248(sp)
    ret
    80001198:	00008067          	ret

000000008000119c <_ZN5Riscv12popRegistersEv>:
.global _ZN5Riscv12popRegistersEv
.type _ZN5Riscv12popRegistersEv, @function
_ZN5Riscv12popRegistersEv:
    .irp index, 3,4,5,6,7,8,9,10,11,12,13,14,15,16,17,18,19,20,21,22,23,24,25,26,27,28,29,30,31
    ld x\index, \index * 8(sp)
    .endr
    8000119c:	01813183          	ld	gp,24(sp)
    800011a0:	02013203          	ld	tp,32(sp)
    800011a4:	02813283          	ld	t0,40(sp)
    800011a8:	03013303          	ld	t1,48(sp)
    800011ac:	03813383          	ld	t2,56(sp)
    800011b0:	04013403          	ld	s0,64(sp)
    800011b4:	04813483          	ld	s1,72(sp)
    800011b8:	05013503          	ld	a0,80(sp)
    800011bc:	05813583          	ld	a1,88(sp)
    800011c0:	06013603          	ld	a2,96(sp)
    800011c4:	06813683          	ld	a3,104(sp)
    800011c8:	07013703          	ld	a4,112(sp)
    800011cc:	07813783          	ld	a5,120(sp)
    800011d0:	08013803          	ld	a6,128(sp)
    800011d4:	08813883          	ld	a7,136(sp)
    800011d8:	09013903          	ld	s2,144(sp)
    800011dc:	09813983          	ld	s3,152(sp)
    800011e0:	0a013a03          	ld	s4,160(sp)
    800011e4:	0a813a83          	ld	s5,168(sp)
    800011e8:	0b013b03          	ld	s6,176(sp)
    800011ec:	0b813b83          	ld	s7,184(sp)
    800011f0:	0c013c03          	ld	s8,192(sp)
    800011f4:	0c813c83          	ld	s9,200(sp)
    800011f8:	0d013d03          	ld	s10,208(sp)
    800011fc:	0d813d83          	ld	s11,216(sp)
    80001200:	0e013e03          	ld	t3,224(sp)
    80001204:	0e813e83          	ld	t4,232(sp)
    80001208:	0f013f03          	ld	t5,240(sp)
    8000120c:	0f813f83          	ld	t6,248(sp)
    addi sp, sp, 256
    80001210:	10010113          	addi	sp,sp,256
    ret
    80001214:	00008067          	ret

0000000080001218 <_ZN3PCB13contextSwitchEPNS_7ContextES1_>:
.global _ZN3PCB13contextSwitchEPNS_7ContextES1_
.type _ZN3PCB13contextSwitchEPNS_7ContextES1_, @function
_ZN3PCB13contextSwitchEPNS_7ContextES1_:
    #a0 - &old->Context
    #a1 - &running->Context
    sd sp, 0 * 8(a0)
    80001218:	00253023          	sd	sp,0(a0) # 1000 <_entry-0x7ffff000>
    sd ra, 1 * 8(a0)
    8000121c:	00153423          	sd	ra,8(a0)

    ld sp, 0 * 8(a1)
    80001220:	0005b103          	ld	sp,0(a1)
    ld ra, 1 * 8(a1)
    80001224:	0085b083          	ld	ra,8(a1)

    ret
    80001228:	00008067          	ret

000000008000122c <_ZN3PCB20contextSwitchExitingEPNS_7ContextE>:

.global _ZN3PCB20contextSwitchExitingEPNS_7ContextE
.type _ZN3PCB20contextSwitchExitingEPNS_7ContextE, @function
_ZN3PCB20contextSwitchExitingEPNS_7ContextE:
    #a0 - &running->Context
    ld sp, 0 * 8(a0)
    8000122c:	00053103          	ld	sp,0(a0)
    ld ra, 1 * 8(a0)
    80001230:	00853083          	ld	ra,8(a0)

    80001234:	00008067          	ret

0000000080001238 <_Z22thread_dispatch_kernelv>:
//
#include "../../h/syscall_c_kernel.hpp"


void thread_dispatch_kernel()
{
    80001238:	ff010113          	addi	sp,sp,-16
    8000123c:	00813423          	sd	s0,8(sp)
    80001240:	01010413          	addi	s0,sp,16
    __asm__ volatile("li a0, 0x13");
    80001244:	01300513          	li	a0,19
    __asm__ volatile("ecall");
    80001248:	00000073          	ecall
}
    8000124c:	00813403          	ld	s0,8(sp)
    80001250:	01010113          	addi	sp,sp,16
    80001254:	00008067          	ret

0000000080001258 <_Z20sysCallGetCharOutputv>:

char sysCallGetCharOutput()
{
    80001258:	ff010113          	addi	sp,sp,-16
    8000125c:	00813423          	sd	s0,8(sp)
    80001260:	01010413          	addi	s0,sp,16
    __asm__ volatile("li a0, 0x43");
    80001264:	04300513          	li	a0,67

    __asm__ volatile("ecall");
    80001268:	00000073          	ecall

    uint64 result;
    __asm__ volatile("mv %0, a0" : "=r"(result));
    8000126c:	00050513          	mv	a0,a0
    return (char)result;
}
    80001270:	0ff57513          	andi	a0,a0,255
    80001274:	00813403          	ld	s0,8(sp)
    80001278:	01010113          	addi	sp,sp,16
    8000127c:	00008067          	ret

0000000080001280 <_Z18thread_exit_kernelv>:


int thread_exit_kernel()
{
    80001280:	ff010113          	addi	sp,sp,-16
    80001284:	00813423          	sd	s0,8(sp)
    80001288:	01010413          	addi	s0,sp,16
    __asm__ volatile("li a0, 0x12");
    8000128c:	01200513          	li	a0,18

    __asm__ volatile("ecall");
    80001290:	00000073          	ecall

    uint64 result;
    __asm__ volatile("mv %0, a0" : "=r"(result));
    80001294:	00050513          	mv	a0,a0
    return result;
    80001298:	0005051b          	sext.w	a0,a0
    8000129c:	00813403          	ld	s0,8(sp)
    800012a0:	01010113          	addi	sp,sp,16
    800012a4:	00008067          	ret

00000000800012a8 <_Z6strcpyPKcPc>:
//singleton slab allocator
static slab_allocator_t* slabAllocator = nullptr;

//helping functions
void strcpy(const char* src, char* dst)
{
    800012a8:	ff010113          	addi	sp,sp,-16
    800012ac:	00813423          	sd	s0,8(sp)
    800012b0:	01010413          	addi	s0,sp,16
    while(*src != '\0')
    800012b4:	00054783          	lbu	a5,0(a0)
    800012b8:	00078a63          	beqz	a5,800012cc <_Z6strcpyPKcPc+0x24>
    {
        *dst = *src;
    800012bc:	00f58023          	sb	a5,0(a1)
        src++; dst++;
    800012c0:	00150513          	addi	a0,a0,1
    800012c4:	00158593          	addi	a1,a1,1
    while(*src != '\0')
    800012c8:	fedff06f          	j	800012b4 <_Z6strcpyPKcPc+0xc>
    }
    *dst = *src;
    800012cc:	00f58023          	sb	a5,0(a1)
}
    800012d0:	00813403          	ld	s0,8(sp)
    800012d4:	01010113          	addi	sp,sp,16
    800012d8:	00008067          	ret

00000000800012dc <_Z17destroy_slab_listPP6slab_s>:

int destroy_slab_list(slab_t** slab)
{
    800012dc:	fd010113          	addi	sp,sp,-48
    800012e0:	02113423          	sd	ra,40(sp)
    800012e4:	02813023          	sd	s0,32(sp)
    800012e8:	00913c23          	sd	s1,24(sp)
    800012ec:	01213823          	sd	s2,16(sp)
    800012f0:	01313423          	sd	s3,8(sp)
    800012f4:	01413023          	sd	s4,0(sp)
    800012f8:	03010413          	addi	s0,sp,48
    if(*slab == nullptr) return 0;
    800012fc:	00053783          	ld	a5,0(a0)
    80001300:	04078263          	beqz	a5,80001344 <_Z17destroy_slab_listPP6slab_s+0x68>
    80001304:	00050493          	mv	s1,a0
    size_t sz = (*slab)->owner->slab_size;
    80001308:	0107b783          	ld	a5,16(a5)
    8000130c:	0587b983          	ld	s3,88(a5)
    int totalBlocks = 0;
    80001310:	00000913          	li	s2,0
    while(*slab != nullptr)
    80001314:	0004b583          	ld	a1,0(s1)
    80001318:	02058863          	beqz	a1,80001348 <_Z17destroy_slab_listPP6slab_s+0x6c>
    {
        slab_t* nextSlab = (*slab)->next;
    8000131c:	0085ba03          	ld	s4,8(a1)
        buddy_free(slabAllocator->buddy, *slab, sz);
    80001320:	00098613          	mv	a2,s3
    80001324:	00007797          	auipc	a5,0x7
    80001328:	6ec7b783          	ld	a5,1772(a5) # 80008a10 <_ZL13slabAllocator>
    8000132c:	0007b503          	ld	a0,0(a5)
    80001330:	00002097          	auipc	ra,0x2
    80001334:	b14080e7          	jalr	-1260(ra) # 80002e44 <_Z10buddy_freeP14buddyAllocatorPvm>
        *slab = nextSlab;
    80001338:	0144b023          	sd	s4,0(s1)
        totalBlocks+=sz;
    8000133c:	0129893b          	addw	s2,s3,s2
    while(*slab != nullptr)
    80001340:	fd5ff06f          	j	80001314 <_Z17destroy_slab_listPP6slab_s+0x38>
    if(*slab == nullptr) return 0;
    80001344:	00000913          	li	s2,0
    }
    return totalBlocks;
}
    80001348:	00090513          	mv	a0,s2
    8000134c:	02813083          	ld	ra,40(sp)
    80001350:	02013403          	ld	s0,32(sp)
    80001354:	01813483          	ld	s1,24(sp)
    80001358:	01013903          	ld	s2,16(sp)
    8000135c:	00813983          	ld	s3,8(sp)
    80001360:	00013a03          	ld	s4,0(sp)
    80001364:	03010113          	addi	sp,sp,48
    80001368:	00008067          	ret

000000008000136c <_Z10init_cacheP12kmem_cache_sPKcmmPFvPvES5_>:

void init_cache(kmem_cache_t* cachep, const char* cache_name, size_t slab_size, size_t obj_size, void (*ctor)(void*),void (*dtor)(void*))
{
    8000136c:	fc010113          	addi	sp,sp,-64
    80001370:	02113c23          	sd	ra,56(sp)
    80001374:	02813823          	sd	s0,48(sp)
    80001378:	02913423          	sd	s1,40(sp)
    8000137c:	03213023          	sd	s2,32(sp)
    80001380:	01313c23          	sd	s3,24(sp)
    80001384:	01413823          	sd	s4,16(sp)
    80001388:	01513423          	sd	s5,8(sp)
    8000138c:	04010413          	addi	s0,sp,64
    80001390:	00050493          	mv	s1,a0
    80001394:	00058513          	mv	a0,a1
    80001398:	00060a93          	mv	s5,a2
    8000139c:	00068a13          	mv	s4,a3
    800013a0:	00070993          	mv	s3,a4
    800013a4:	00078913          	mv	s2,a5
    strcpy(cache_name, cachep->cacheName);
    800013a8:	00048593          	mv	a1,s1
    800013ac:	00000097          	auipc	ra,0x0
    800013b0:	efc080e7          	jalr	-260(ra) # 800012a8 <_Z6strcpyPKcPc>
    cachep->slab_size = slab_size;
    800013b4:	0554bc23          	sd	s5,88(s1)
    cachep->obj_size = obj_size;
    800013b8:	0744b023          	sd	s4,96(s1)
    cachep->ctor = ctor;
    800013bc:	0734b423          	sd	s3,104(s1)
    cachep->dtor = dtor;
    800013c0:	0724b823          	sd	s2,112(s1)

    cachep->slabs_empty = cachep->slabs_partial = cachep->slabs_full = nullptr;
    800013c4:	0404b423          	sd	zero,72(s1)
    800013c8:	0404b823          	sd	zero,80(s1)
    800013cc:	0404b023          	sd	zero,64(s1)
    cachep->errors = NO_ERROR;
    800013d0:	0604ac23          	sw	zero,120(s1)
}
    800013d4:	03813083          	ld	ra,56(sp)
    800013d8:	03013403          	ld	s0,48(sp)
    800013dc:	02813483          	ld	s1,40(sp)
    800013e0:	02013903          	ld	s2,32(sp)
    800013e4:	01813983          	ld	s3,24(sp)
    800013e8:	01013a03          	ld	s4,16(sp)
    800013ec:	00813a83          	ld	s5,8(sp)
    800013f0:	04010113          	addi	sp,sp,64
    800013f4:	00008067          	ret

00000000800013f8 <_Z19slab_allocator_initP14buddyAllocator>:

slab_allocator_t* slab_allocator_init(buddyAllocator *buddy)
{
    800013f8:	fe010113          	addi	sp,sp,-32
    800013fc:	00113c23          	sd	ra,24(sp)
    80001400:	00813823          	sd	s0,16(sp)
    80001404:	00913423          	sd	s1,8(sp)
    80001408:	02010413          	addi	s0,sp,32
    slab_allocator_t* slabAllocatorLocal = (slab_allocator_t*)(buddy + 1);
    8000140c:	12050493          	addi	s1,a0,288

    slabAllocatorLocal->buddy = buddy;
    80001410:	12a53023          	sd	a0,288(a0)
    for(size_t i = 0; i < CACHE_BUFFER_SIZE;i++)
    80001414:	00000793          	li	a5,0
    80001418:	0140006f          	j	8000142c <_Z19slab_allocator_initP14buddyAllocator+0x34>
        slabAllocatorLocal->cachesBuffers[i] = nullptr;
    8000141c:	00379713          	slli	a4,a5,0x3
    80001420:	00e50733          	add	a4,a0,a4
    80001424:	12073423          	sd	zero,296(a4)
    for(size_t i = 0; i < CACHE_BUFFER_SIZE;i++)
    80001428:	00178793          	addi	a5,a5,1
    8000142c:	00c00713          	li	a4,12
    80001430:	fef776e3          	bgeu	a4,a5,8000141c <_Z19slab_allocator_initP14buddyAllocator+0x24>

    init_cache(&slabAllocatorLocal->cacheOfCaches, "Cache of caches", CACHE_OF_CACHES_SLAB_SIZE, sizeof(kmem_cache_t), nullptr,nullptr);
    80001434:	00000793          	li	a5,0
    80001438:	00000713          	li	a4,0
    8000143c:	08000693          	li	a3,128
    80001440:	00200613          	li	a2,2
    80001444:	00007597          	auipc	a1,0x7
    80001448:	bdc58593          	addi	a1,a1,-1060 # 80008020 <CONSOLE_STATUS+0x10>
    8000144c:	19050513          	addi	a0,a0,400
    80001450:	00000097          	auipc	ra,0x0
    80001454:	f1c080e7          	jalr	-228(ra) # 8000136c <_Z10init_cacheP12kmem_cache_sPKcmmPFvPvES5_>

    return slabAllocatorLocal;
}
    80001458:	00048513          	mv	a0,s1
    8000145c:	01813083          	ld	ra,24(sp)
    80001460:	01013403          	ld	s0,16(sp)
    80001464:	00813483          	ld	s1,8(sp)
    80001468:	02010113          	addi	sp,sp,32
    8000146c:	00008067          	ret

0000000080001470 <_Z13checkSetIndexP6slab_si>:

bool checkSetIndex(slab_t* slab, int index)
{
    80001470:	ff010113          	addi	sp,sp,-16
    80001474:	00813423          	sd	s0,8(sp)
    80001478:	01010413          	addi	s0,sp,16
    return (uint8)slab->allocated[index / 8] & (1 << (index%8));
    8000147c:	41f5d79b          	sraiw	a5,a1,0x1f
    80001480:	01d7d79b          	srliw	a5,a5,0x1d
    80001484:	00b785bb          	addw	a1,a5,a1
    80001488:	4035d71b          	sraiw	a4,a1,0x3
    8000148c:	00e50533          	add	a0,a0,a4
    80001490:	02854503          	lbu	a0,40(a0)
    80001494:	0075f593          	andi	a1,a1,7
    80001498:	40f585bb          	subw	a1,a1,a5
    8000149c:	40b5553b          	sraw	a0,a0,a1
}
    800014a0:	00157513          	andi	a0,a0,1
    800014a4:	00813403          	ld	s0,8(sp)
    800014a8:	01010113          	addi	sp,sp,16
    800014ac:	00008067          	ret

00000000800014b0 <_Z17setAllocatedIndexP6slab_si>:

void setAllocatedIndex(slab_t* slab, int index)
{
    800014b0:	ff010113          	addi	sp,sp,-16
    800014b4:	00813423          	sd	s0,8(sp)
    800014b8:	01010413          	addi	s0,sp,16
    slab->allocated[index / 8]=(uint8)slab->allocated[index/8] | (1 << (index%8));
    800014bc:	41f5d79b          	sraiw	a5,a1,0x1f
    800014c0:	01d7d79b          	srliw	a5,a5,0x1d
    800014c4:	00b785bb          	addw	a1,a5,a1
    800014c8:	4035d71b          	sraiw	a4,a1,0x3
    800014cc:	00e50533          	add	a0,a0,a4
    800014d0:	02850703          	lb	a4,40(a0)
    800014d4:	0075f593          	andi	a1,a1,7
    800014d8:	40f585bb          	subw	a1,a1,a5
    800014dc:	00100793          	li	a5,1
    800014e0:	00b795bb          	sllw	a1,a5,a1
    800014e4:	00b765b3          	or	a1,a4,a1
    800014e8:	02b50423          	sb	a1,40(a0)
}
    800014ec:	00813403          	ld	s0,8(sp)
    800014f0:	01010113          	addi	sp,sp,16
    800014f4:	00008067          	ret

00000000800014f8 <_Z14allocateObjectP6slab_s>:

void* allocateObject(slab_t* slab)
{
    800014f8:	fd010113          	addi	sp,sp,-48
    800014fc:	02113423          	sd	ra,40(sp)
    80001500:	02813023          	sd	s0,32(sp)
    80001504:	00913c23          	sd	s1,24(sp)
    80001508:	01213823          	sd	s2,16(sp)
    8000150c:	01313423          	sd	s3,8(sp)
    80001510:	03010413          	addi	s0,sp,48
    80001514:	00050913          	mv	s2,a0
    if(slab == nullptr)
    80001518:	08050863          	beqz	a0,800015a8 <_Z14allocateObjectP6slab_s+0xb0>
        return nullptr;
    int index = -1;
    void* addr = nullptr;
    for(size_t i = 0;i < slab->numOfObjects;i++)
    8000151c:	00000493          	li	s1,0
    80001520:	01893783          	ld	a5,24(s2)
    80001524:	02f4fe63          	bgeu	s1,a5,80001560 <_Z14allocateObjectP6slab_s+0x68>
    {
        if(!checkSetIndex(slab, i))
    80001528:	0004899b          	sext.w	s3,s1
    8000152c:	00098593          	mv	a1,s3
    80001530:	00090513          	mv	a0,s2
    80001534:	00000097          	auipc	ra,0x0
    80001538:	f3c080e7          	jalr	-196(ra) # 80001470 <_Z13checkSetIndexP6slab_si>
    8000153c:	00050663          	beqz	a0,80001548 <_Z14allocateObjectP6slab_s+0x50>
    for(size_t i = 0;i < slab->numOfObjects;i++)
    80001540:	00148493          	addi	s1,s1,1
    80001544:	fddff06f          	j	80001520 <_Z14allocateObjectP6slab_s+0x28>
        {
            addr = (void*)((size_t)slab + sizeof(slab_t)+ i*slab->owner->obj_size);
    80001548:	01093783          	ld	a5,16(s2)
    8000154c:	0607b783          	ld	a5,96(a5)
    80001550:	029784b3          	mul	s1,a5,s1
    80001554:	009904b3          	add	s1,s2,s1
    80001558:	42848493          	addi	s1,s1,1064
            index = i;
            break;
    8000155c:	00c0006f          	j	80001568 <_Z14allocateObjectP6slab_s+0x70>
    void* addr = nullptr;
    80001560:	00000493          	li	s1,0
    int index = -1;
    80001564:	fff00993          	li	s3,-1
        }
    }
    if(addr == nullptr)
    80001568:	02048063          	beqz	s1,80001588 <_Z14allocateObjectP6slab_s+0x90>
        return nullptr;

    setAllocatedIndex(slab, index);
    8000156c:	00098593          	mv	a1,s3
    80001570:	00090513          	mv	a0,s2
    80001574:	00000097          	auipc	ra,0x0
    80001578:	f3c080e7          	jalr	-196(ra) # 800014b0 <_Z17setAllocatedIndexP6slab_si>
    slab->numOfAllocatedObjects++;
    8000157c:	02093783          	ld	a5,32(s2)
    80001580:	00178793          	addi	a5,a5,1
    80001584:	02f93023          	sd	a5,32(s2)

    return addr;
}
    80001588:	00048513          	mv	a0,s1
    8000158c:	02813083          	ld	ra,40(sp)
    80001590:	02013403          	ld	s0,32(sp)
    80001594:	01813483          	ld	s1,24(sp)
    80001598:	01013903          	ld	s2,16(sp)
    8000159c:	00813983          	ld	s3,8(sp)
    800015a0:	03010113          	addi	sp,sp,48
    800015a4:	00008067          	ret
        return nullptr;
    800015a8:	00050493          	mv	s1,a0
    800015ac:	fddff06f          	j	80001588 <_Z14allocateObjectP6slab_s+0x90>

00000000800015b0 <_Z4fullP6slab_s>:

bool full(slab_t* slab)
{
    800015b0:	ff010113          	addi	sp,sp,-16
    800015b4:	00813423          	sd	s0,8(sp)
    800015b8:	01010413          	addi	s0,sp,16
    return slab->numOfAllocatedObjects == slab->numOfObjects;
    800015bc:	02053783          	ld	a5,32(a0)
    800015c0:	01853503          	ld	a0,24(a0)
    800015c4:	40f50533          	sub	a0,a0,a5
}
    800015c8:	00153513          	seqz	a0,a0
    800015cc:	00813403          	ld	s0,8(sp)
    800015d0:	01010113          	addi	sp,sp,16
    800015d4:	00008067          	ret

00000000800015d8 <_Z5emptyP6slab_s>:

bool empty(slab_t* slab)
{
    800015d8:	ff010113          	addi	sp,sp,-16
    800015dc:	00813423          	sd	s0,8(sp)
    800015e0:	01010413          	addi	s0,sp,16
    return slab->numOfAllocatedObjects == 0;
    800015e4:	02053503          	ld	a0,32(a0)
}
    800015e8:	00153513          	seqz	a0,a0
    800015ec:	00813403          	ld	s0,8(sp)
    800015f0:	01010113          	addi	sp,sp,16
    800015f4:	00008067          	ret

00000000800015f8 <_Z18insertIntoSlabListP6slab_sPS0_>:

void insertIntoSlabList(slab_t* slab, slab_t** slab_head)
{
    800015f8:	ff010113          	addi	sp,sp,-16
    800015fc:	00813423          	sd	s0,8(sp)
    80001600:	01010413          	addi	s0,sp,16
    if(slab == nullptr)
    80001604:	00050e63          	beqz	a0,80001620 <_Z18insertIntoSlabListP6slab_sPS0_+0x28>
        return;
    slab->prev = nullptr;
    80001608:	00053023          	sd	zero,0(a0)
    slab->next = *slab_head;
    8000160c:	0005b783          	ld	a5,0(a1)
    80001610:	00f53423          	sd	a5,8(a0)
    if(*slab_head != nullptr)
    80001614:	00078463          	beqz	a5,8000161c <_Z18insertIntoSlabListP6slab_sPS0_+0x24>
        (*slab_head)->prev = slab;
    80001618:	00a7b023          	sd	a0,0(a5)
    *slab_head = slab;
    8000161c:	00a5b023          	sd	a0,0(a1)
}
    80001620:	00813403          	ld	s0,8(sp)
    80001624:	01010113          	addi	sp,sp,16
    80001628:	00008067          	ret

000000008000162c <_Z18removeFromSlabListP6slab_sPS0_>:

void removeFromSlabList(slab_t* slab, slab_t** slab_head)
{
    8000162c:	ff010113          	addi	sp,sp,-16
    80001630:	00813423          	sd	s0,8(sp)
    80001634:	01010413          	addi	s0,sp,16
    if(slab->prev == nullptr) //same as slab == *slab_head
    80001638:	00053783          	ld	a5,0(a0)
    8000163c:	02078663          	beqz	a5,80001668 <_Z18removeFromSlabListP6slab_sPS0_+0x3c>
        (*slab_head) = slab->next;
        slab->next = slab->prev = nullptr;
    }
    else
    {
        slab->prev->next = slab->next;
    80001640:	00853703          	ld	a4,8(a0)
    80001644:	00e7b423          	sd	a4,8(a5)
        if(slab->next) slab->next->prev = slab->prev;
    80001648:	00070663          	beqz	a4,80001654 <_Z18removeFromSlabListP6slab_sPS0_+0x28>
    8000164c:	00053783          	ld	a5,0(a0)
    80001650:	00f73023          	sd	a5,0(a4)
        slab->next = slab->prev = nullptr;
    80001654:	00053023          	sd	zero,0(a0)
    80001658:	00053423          	sd	zero,8(a0)
    }
}
    8000165c:	00813403          	ld	s0,8(sp)
    80001660:	01010113          	addi	sp,sp,16
    80001664:	00008067          	ret
        if(slab->next) slab->next->prev = nullptr;
    80001668:	00853783          	ld	a5,8(a0)
    8000166c:	00078463          	beqz	a5,80001674 <_Z18removeFromSlabListP6slab_sPS0_+0x48>
    80001670:	0007b023          	sd	zero,0(a5)
        (*slab_head) = slab->next;
    80001674:	00853783          	ld	a5,8(a0)
    80001678:	00f5b023          	sd	a5,0(a1)
        slab->next = slab->prev = nullptr;
    8000167c:	00053023          	sd	zero,0(a0)
    80001680:	00053423          	sd	zero,8(a0)
    80001684:	fd9ff06f          	j	8000165c <_Z18removeFromSlabListP6slab_sPS0_+0x30>

0000000080001688 <_Z16putPartialToFullP12kmem_cache_s>:

void putPartialToFull(kmem_cache_t* cachep)
{
    80001688:	fe010113          	addi	sp,sp,-32
    8000168c:	00113c23          	sd	ra,24(sp)
    80001690:	00813823          	sd	s0,16(sp)
    80001694:	00913423          	sd	s1,8(sp)
    80001698:	01213023          	sd	s2,0(sp)
    8000169c:	02010413          	addi	s0,sp,32
    800016a0:	00050493          	mv	s1,a0
    slab_t* slab = cachep->slabs_partial;
    800016a4:	05053903          	ld	s2,80(a0)
    removeFromSlabList(slab, &cachep->slabs_partial);
    800016a8:	05050593          	addi	a1,a0,80
    800016ac:	00090513          	mv	a0,s2
    800016b0:	00000097          	auipc	ra,0x0
    800016b4:	f7c080e7          	jalr	-132(ra) # 8000162c <_Z18removeFromSlabListP6slab_sPS0_>
    insertIntoSlabList(slab, &cachep->slabs_full);
    800016b8:	04848593          	addi	a1,s1,72
    800016bc:	00090513          	mv	a0,s2
    800016c0:	00000097          	auipc	ra,0x0
    800016c4:	f38080e7          	jalr	-200(ra) # 800015f8 <_Z18insertIntoSlabListP6slab_sPS0_>
}
    800016c8:	01813083          	ld	ra,24(sp)
    800016cc:	01013403          	ld	s0,16(sp)
    800016d0:	00813483          	ld	s1,8(sp)
    800016d4:	00013903          	ld	s2,0(sp)
    800016d8:	02010113          	addi	sp,sp,32
    800016dc:	00008067          	ret

00000000800016e0 <_Z17putEmptyToPartialP12kmem_cache_s>:

void putEmptyToPartial(kmem_cache_t* cachep)
{
    800016e0:	fe010113          	addi	sp,sp,-32
    800016e4:	00113c23          	sd	ra,24(sp)
    800016e8:	00813823          	sd	s0,16(sp)
    800016ec:	00913423          	sd	s1,8(sp)
    800016f0:	01213023          	sd	s2,0(sp)
    800016f4:	02010413          	addi	s0,sp,32
    800016f8:	00050493          	mv	s1,a0
    slab_t* slab = cachep->slabs_empty;
    800016fc:	04053903          	ld	s2,64(a0)
    removeFromSlabList(slab, &cachep->slabs_empty);
    80001700:	04050593          	addi	a1,a0,64
    80001704:	00090513          	mv	a0,s2
    80001708:	00000097          	auipc	ra,0x0
    8000170c:	f24080e7          	jalr	-220(ra) # 8000162c <_Z18removeFromSlabListP6slab_sPS0_>
    insertIntoSlabList(slab, &cachep->slabs_partial);
    80001710:	05048593          	addi	a1,s1,80
    80001714:	00090513          	mv	a0,s2
    80001718:	00000097          	auipc	ra,0x0
    8000171c:	ee0080e7          	jalr	-288(ra) # 800015f8 <_Z18insertIntoSlabListP6slab_sPS0_>
}
    80001720:	01813083          	ld	ra,24(sp)
    80001724:	01013403          	ld	s0,16(sp)
    80001728:	00813483          	ld	s1,8(sp)
    8000172c:	00013903          	ld	s2,0(sp)
    80001730:	02010113          	addi	sp,sp,32
    80001734:	00008067          	ret

0000000080001738 <_Z14removeFullSlabP12kmem_cache_sP6slab_s>:

void removeFullSlab(kmem_cache_t* cachep, slab_t* slab)
{
    80001738:	fe010113          	addi	sp,sp,-32
    8000173c:	00113c23          	sd	ra,24(sp)
    80001740:	00813823          	sd	s0,16(sp)
    80001744:	00913423          	sd	s1,8(sp)
    80001748:	01213023          	sd	s2,0(sp)
    8000174c:	02010413          	addi	s0,sp,32
    80001750:	00050913          	mv	s2,a0
    80001754:	00058493          	mv	s1,a1
    removeFromSlabList(slab, &cachep->slabs_full);
    80001758:	04850593          	addi	a1,a0,72
    8000175c:	00048513          	mv	a0,s1
    80001760:	00000097          	auipc	ra,0x0
    80001764:	ecc080e7          	jalr	-308(ra) # 8000162c <_Z18removeFromSlabListP6slab_sPS0_>
    insertIntoSlabList(slab, &cachep->slabs_partial);
    80001768:	05090593          	addi	a1,s2,80
    8000176c:	00048513          	mv	a0,s1
    80001770:	00000097          	auipc	ra,0x0
    80001774:	e88080e7          	jalr	-376(ra) # 800015f8 <_Z18insertIntoSlabListP6slab_sPS0_>
}
    80001778:	01813083          	ld	ra,24(sp)
    8000177c:	01013403          	ld	s0,16(sp)
    80001780:	00813483          	ld	s1,8(sp)
    80001784:	00013903          	ld	s2,0(sp)
    80001788:	02010113          	addi	sp,sp,32
    8000178c:	00008067          	ret

0000000080001790 <_Z17removePartialSlabP12kmem_cache_sP6slab_s>:

void removePartialSlab(kmem_cache_t * cachep, slab_t* slab)
{
    80001790:	fe010113          	addi	sp,sp,-32
    80001794:	00113c23          	sd	ra,24(sp)
    80001798:	00813823          	sd	s0,16(sp)
    8000179c:	00913423          	sd	s1,8(sp)
    800017a0:	01213023          	sd	s2,0(sp)
    800017a4:	02010413          	addi	s0,sp,32
    800017a8:	00050913          	mv	s2,a0
    800017ac:	00058493          	mv	s1,a1
    removeFromSlabList(slab, &cachep->slabs_partial);
    800017b0:	05050593          	addi	a1,a0,80
    800017b4:	00048513          	mv	a0,s1
    800017b8:	00000097          	auipc	ra,0x0
    800017bc:	e74080e7          	jalr	-396(ra) # 8000162c <_Z18removeFromSlabListP6slab_sPS0_>
    insertIntoSlabList(slab, &cachep->slabs_empty);
    800017c0:	04090593          	addi	a1,s2,64
    800017c4:	00048513          	mv	a0,s1
    800017c8:	00000097          	auipc	ra,0x0
    800017cc:	e30080e7          	jalr	-464(ra) # 800015f8 <_Z18insertIntoSlabListP6slab_sPS0_>
}
    800017d0:	01813083          	ld	ra,24(sp)
    800017d4:	01013403          	ld	s0,16(sp)
    800017d8:	00813483          	ld	s1,8(sp)
    800017dc:	00013903          	ld	s2,0(sp)
    800017e0:	02010113          	addi	sp,sp,32
    800017e4:	00008067          	ret

00000000800017e8 <_Z12allocateSlabP12kmem_cache_s>:

void allocateSlab(kmem_cache_t* cachep)
{
    800017e8:	fd010113          	addi	sp,sp,-48
    800017ec:	02113423          	sd	ra,40(sp)
    800017f0:	02813023          	sd	s0,32(sp)
    800017f4:	00913c23          	sd	s1,24(sp)
    800017f8:	01213823          	sd	s2,16(sp)
    800017fc:	01313423          	sd	s3,8(sp)
    80001800:	03010413          	addi	s0,sp,48
    80001804:	00050993          	mv	s3,a0
    slab_t* newSlab = (slab_t*)buddy_alloc(slabAllocator->buddy,cachep->slab_size);
    80001808:	05853583          	ld	a1,88(a0)
    8000180c:	00007797          	auipc	a5,0x7
    80001810:	2047b783          	ld	a5,516(a5) # 80008a10 <_ZL13slabAllocator>
    80001814:	0007b503          	ld	a0,0(a5)
    80001818:	00001097          	auipc	ra,0x1
    8000181c:	33c080e7          	jalr	828(ra) # 80002b54 <_Z11buddy_allocP14buddyAllocatorm>
    if(newSlab == nullptr)
    80001820:	08050c63          	beqz	a0,800018b8 <_Z12allocateSlabP12kmem_cache_s+0xd0>
    80001824:	00050493          	mv	s1,a0
        return;
    newSlab->next = cachep->slabs_empty;
    80001828:	0409b783          	ld	a5,64(s3)
    8000182c:	00f53423          	sd	a5,8(a0)
    if(cachep->slabs_empty != nullptr)
    80001830:	00078463          	beqz	a5,80001838 <_Z12allocateSlabP12kmem_cache_s+0x50>
        cachep->slabs_empty->prev = newSlab;
    80001834:	00a7b023          	sd	a0,0(a5)
    cachep->slabs_empty = newSlab;
    80001838:	0499b023          	sd	s1,64(s3)
    newSlab->prev = nullptr;
    8000183c:	0004b023          	sd	zero,0(s1)

    newSlab->numOfAllocatedObjects = 0;
    80001840:	0204b023          	sd	zero,32(s1)
    newSlab->owner = cachep;
    80001844:	0134b823          	sd	s3,16(s1)
    size_t sizeInBytes = cachep->slab_size*BLOCK_SIZE;
    80001848:	0589b683          	ld	a3,88(s3)
    8000184c:	00c69693          	slli	a3,a3,0xc
    newSlab->numOfObjects = (sizeInBytes - sizeof(slab_t)) / cachep->obj_size; // TODO can this param be in cache ?
    80001850:	bd868693          	addi	a3,a3,-1064
    80001854:	0609b783          	ld	a5,96(s3)
    80001858:	02f6d6b3          	divu	a3,a3,a5
    8000185c:	00d4bc23          	sd	a3,24(s1)
    for(size_t i = 0; i < (newSlab->numOfObjects + 7) / 8;i++)
    80001860:	00000713          	li	a4,0
    80001864:	00768793          	addi	a5,a3,7
    80001868:	0037d793          	srli	a5,a5,0x3
    8000186c:	00f77a63          	bgeu	a4,a5,80001880 <_Z12allocateSlabP12kmem_cache_s+0x98>
        newSlab->allocated[i] = 0;
    80001870:	00e487b3          	add	a5,s1,a4
    80001874:	02078423          	sb	zero,40(a5)
    for(size_t i = 0; i < (newSlab->numOfObjects + 7) / 8;i++)
    80001878:	00170713          	addi	a4,a4,1
    8000187c:	fe9ff06f          	j	80001864 <_Z12allocateSlabP12kmem_cache_s+0x7c>

    if(cachep->ctor != nullptr)
    80001880:	0689b783          	ld	a5,104(s3)
    80001884:	02078a63          	beqz	a5,800018b8 <_Z12allocateSlabP12kmem_cache_s+0xd0>
    {
        for(size_t i = 0;i < newSlab->numOfObjects;i++)
    80001888:	00000913          	li	s2,0
    8000188c:	0184b783          	ld	a5,24(s1)
    80001890:	02f97463          	bgeu	s2,a5,800018b8 <_Z12allocateSlabP12kmem_cache_s+0xd0>
            cachep->ctor((void*)((size_t)newSlab + sizeof(slab_t) + i*newSlab->owner->obj_size));
    80001894:	0689b783          	ld	a5,104(s3)
    80001898:	0104b703          	ld	a4,16(s1)
    8000189c:	06073503          	ld	a0,96(a4)
    800018a0:	03250533          	mul	a0,a0,s2
    800018a4:	00a48533          	add	a0,s1,a0
    800018a8:	42850513          	addi	a0,a0,1064
    800018ac:	000780e7          	jalr	a5
        for(size_t i = 0;i < newSlab->numOfObjects;i++)
    800018b0:	00190913          	addi	s2,s2,1
    800018b4:	fd9ff06f          	j	8000188c <_Z12allocateSlabP12kmem_cache_s+0xa4>
    }
}
    800018b8:	02813083          	ld	ra,40(sp)
    800018bc:	02013403          	ld	s0,32(sp)
    800018c0:	01813483          	ld	s1,24(sp)
    800018c4:	01013903          	ld	s2,16(sp)
    800018c8:	00813983          	ld	s3,8(sp)
    800018cc:	03010113          	addi	sp,sp,48
    800018d0:	00008067          	ret

00000000800018d4 <_Z18getOptimalSlabSizem>:

size_t getOptimalSlabSize(size_t obj_size)
{
    800018d4:	ff010113          	addi	sp,sp,-16
    800018d8:	00813423          	sd	s0,8(sp)
    800018dc:	01010413          	addi	s0,sp,16
    size_t bestSize = BLOCK_SIZE;
    800018e0:	000017b7          	lui	a5,0x1
    while(bestSize < obj_size + sizeof(slab_t))
    800018e4:	42850713          	addi	a4,a0,1064
    800018e8:	00e7f663          	bgeu	a5,a4,800018f4 <_Z18getOptimalSlabSizem+0x20>
        bestSize<<=1;
    800018ec:	00179793          	slli	a5,a5,0x1
    while(bestSize < obj_size + sizeof(slab_t))
    800018f0:	ff5ff06f          	j	800018e4 <_Z18getOptimalSlabSizem+0x10>
    size_t optimalWaste = (bestSize - sizeof(slab_t)) % obj_size;
    800018f4:	bd878813          	addi	a6,a5,-1064 # bd8 <_entry-0x7ffff428>
    800018f8:	02a87833          	remu	a6,a6,a0

    //return bestSize / BLOCK_SIZE;

    static size_t lowerConst = 1;
    static size_t highConst = 4;
    for(size_t i = lowerConst;i<=highConst;i++)
    800018fc:	00100693          	li	a3,1
    80001900:	0080006f          	j	80001908 <_Z18getOptimalSlabSizem+0x34>
    80001904:	00168693          	addi	a3,a3,1
    80001908:	00400713          	li	a4,4
    8000190c:	02d76663          	bltu	a4,a3,80001938 <_Z18getOptimalSlabSizem+0x64>
    {
        size_t newSize = bestSize << i;
    80001910:	00d79633          	sll	a2,a5,a3
        size_t newWaste = (newSize - sizeof(slab_t)) % obj_size;
    80001914:	bd860713          	addi	a4,a2,-1064
    80001918:	02a775b3          	remu	a1,a4,a0
        size_t numOfObjs = (newSize - sizeof(slab_t)) / obj_size;
    8000191c:	02a75733          	divu	a4,a4,a0
        if(newWaste < optimalWaste && numOfObjs <= MAX_NUM_OF_OBJS)
    80001920:	ff05f2e3          	bgeu	a1,a6,80001904 <_Z18getOptimalSlabSizem+0x30>
    80001924:	000028b7          	lui	a7,0x2
    80001928:	fce8eee3          	bltu	a7,a4,80001904 <_Z18getOptimalSlabSizem+0x30>
        {
            optimalWaste = newWaste;
    8000192c:	00058813          	mv	a6,a1
            bestSize = newSize;
    80001930:	00060793          	mv	a5,a2
    80001934:	fd1ff06f          	j	80001904 <_Z18getOptimalSlabSizem+0x30>
        }
    }

    return bestSize / BLOCK_SIZE;
}
    80001938:	00c7d513          	srli	a0,a5,0xc
    8000193c:	00813403          	ld	s0,8(sp)
    80001940:	01010113          	addi	sp,sp,16
    80001944:	00008067          	ret

0000000080001948 <_Z8findSlabP12kmem_cache_sPKv>:

//finds the slab where objp is
slab_t* findSlab(kmem_cache_t* cachep, const void* objp)
{
    80001948:	ff010113          	addi	sp,sp,-16
    8000194c:	00813423          	sd	s0,8(sp)
    80001950:	01010413          	addi	s0,sp,16
    80001954:	00050693          	mv	a3,a0
    if(cachep == nullptr || objp == nullptr)
    80001958:	02050c63          	beqz	a0,80001990 <_Z8findSlabP12kmem_cache_sPKv+0x48>
    8000195c:	06058a63          	beqz	a1,800019d0 <_Z8findSlabP12kmem_cache_sPKv+0x88>
        return nullptr;
    slab_t* slab = cachep->slabs_full;
    80001960:	04853503          	ld	a0,72(a0)
    80001964:	0080006f          	j	8000196c <_Z8findSlabP12kmem_cache_sPKv+0x24>
    while(slab != nullptr)
    {
        size_t endAddr = (size_t)slab + sizeof(slab_t) + slab->numOfObjects*slab->owner->obj_size;
        if((size_t)objp > (size_t)slab && (size_t)objp < endAddr)
            return slab;
        slab = slab->next;
    80001968:	00853503          	ld	a0,8(a0)
    while(slab != nullptr)
    8000196c:	02050863          	beqz	a0,8000199c <_Z8findSlabP12kmem_cache_sPKv+0x54>
        size_t endAddr = (size_t)slab + sizeof(slab_t) + slab->numOfObjects*slab->owner->obj_size;
    80001970:	01853783          	ld	a5,24(a0)
    80001974:	01053703          	ld	a4,16(a0)
    80001978:	06073703          	ld	a4,96(a4)
    8000197c:	02e787b3          	mul	a5,a5,a4
    80001980:	00a787b3          	add	a5,a5,a0
    80001984:	42878793          	addi	a5,a5,1064
        if((size_t)objp > (size_t)slab && (size_t)objp < endAddr)
    80001988:	feb570e3          	bgeu	a0,a1,80001968 <_Z8findSlabP12kmem_cache_sPKv+0x20>
    8000198c:	fcf5fee3          	bgeu	a1,a5,80001968 <_Z8findSlabP12kmem_cache_sPKv+0x20>
            return slab;
        slab = slab->next;
    }

    return nullptr;
}
    80001990:	00813403          	ld	s0,8(sp)
    80001994:	01010113          	addi	sp,sp,16
    80001998:	00008067          	ret
    slab = cachep->slabs_partial;
    8000199c:	0506b503          	ld	a0,80(a3)
    800019a0:	0080006f          	j	800019a8 <_Z8findSlabP12kmem_cache_sPKv+0x60>
        slab = slab->next;
    800019a4:	00853503          	ld	a0,8(a0)
    while(slab != nullptr)
    800019a8:	fe0504e3          	beqz	a0,80001990 <_Z8findSlabP12kmem_cache_sPKv+0x48>
        size_t endAddr = (size_t)slab + sizeof(slab_t) + slab->numOfObjects*slab->owner->obj_size;
    800019ac:	01853783          	ld	a5,24(a0)
    800019b0:	01053703          	ld	a4,16(a0)
    800019b4:	06073703          	ld	a4,96(a4)
    800019b8:	02e787b3          	mul	a5,a5,a4
    800019bc:	00a787b3          	add	a5,a5,a0
    800019c0:	42878793          	addi	a5,a5,1064
        if((size_t)objp > (size_t)slab && (size_t)objp < endAddr)
    800019c4:	feb570e3          	bgeu	a0,a1,800019a4 <_Z8findSlabP12kmem_cache_sPKv+0x5c>
    800019c8:	fcf5fee3          	bgeu	a1,a5,800019a4 <_Z8findSlabP12kmem_cache_sPKv+0x5c>
    800019cc:	fc5ff06f          	j	80001990 <_Z8findSlabP12kmem_cache_sPKv+0x48>
        return nullptr;
    800019d0:	00058513          	mv	a0,a1
    800019d4:	fbdff06f          	j	80001990 <_Z8findSlabP12kmem_cache_sPKv+0x48>

00000000800019d8 <_Z19resetAllocatedIndexP6slab_si>:

void resetAllocatedIndex(slab_t* slab, int index)
{
    800019d8:	ff010113          	addi	sp,sp,-16
    800019dc:	00813423          	sd	s0,8(sp)
    800019e0:	01010413          	addi	s0,sp,16
    slab->allocated[index / 8]=(uint8)slab->allocated[index/8] & ~(1 << (index%8));
    800019e4:	41f5d79b          	sraiw	a5,a1,0x1f
    800019e8:	01d7d79b          	srliw	a5,a5,0x1d
    800019ec:	00b785bb          	addw	a1,a5,a1
    800019f0:	4035d71b          	sraiw	a4,a1,0x3
    800019f4:	00e50533          	add	a0,a0,a4
    800019f8:	02850703          	lb	a4,40(a0)
    800019fc:	0075f593          	andi	a1,a1,7
    80001a00:	40f585bb          	subw	a1,a1,a5
    80001a04:	00100793          	li	a5,1
    80001a08:	00b795bb          	sllw	a1,a5,a1
    80001a0c:	fff5c593          	not	a1,a1
    80001a10:	00b775b3          	and	a1,a4,a1
    80001a14:	02b50423          	sb	a1,40(a0)
}
    80001a18:	00813403          	ld	s0,8(sp)
    80001a1c:	01010113          	addi	sp,sp,16
    80001a20:	00008067          	ret

0000000080001a24 <_Z13printSlabInfoP6slab_s>:

void printSlabInfo(slab_t* slab)
{
    80001a24:	fe010113          	addi	sp,sp,-32
    80001a28:	00113c23          	sd	ra,24(sp)
    80001a2c:	00813823          	sd	s0,16(sp)
    80001a30:	00913423          	sd	s1,8(sp)
    80001a34:	02010413          	addi	s0,sp,32
    80001a38:	00050493          	mv	s1,a0
    KConsole::trapPrintString("One slab info---------\n");
    80001a3c:	00006517          	auipc	a0,0x6
    80001a40:	5f450513          	addi	a0,a0,1524 # 80008030 <CONSOLE_STATUS+0x20>
    80001a44:	00002097          	auipc	ra,0x2
    80001a48:	a48080e7          	jalr	-1464(ra) # 8000348c <_ZN8KConsole15trapPrintStringEPKc>
    KConsole::trapPrintStringInt("Slab address ",(size_t)slab,16);
    80001a4c:	01000613          	li	a2,16
    80001a50:	00048593          	mv	a1,s1
    80001a54:	00006517          	auipc	a0,0x6
    80001a58:	5f450513          	addi	a0,a0,1524 # 80008048 <CONSOLE_STATUS+0x38>
    80001a5c:	00002097          	auipc	ra,0x2
    80001a60:	b08080e7          	jalr	-1272(ra) # 80003564 <_ZN8KConsole18trapPrintStringIntEPKcmi>
    KConsole::trapPrintStringInt("Number of allocated objects ",slab->numOfAllocatedObjects);
    80001a64:	00a00613          	li	a2,10
    80001a68:	0204b583          	ld	a1,32(s1)
    80001a6c:	00006517          	auipc	a0,0x6
    80001a70:	5ec50513          	addi	a0,a0,1516 # 80008058 <CONSOLE_STATUS+0x48>
    80001a74:	00002097          	auipc	ra,0x2
    80001a78:	af0080e7          	jalr	-1296(ra) # 80003564 <_ZN8KConsole18trapPrintStringIntEPKcmi>
    KConsole::trapPrintStringInt("Number of objects ", slab->numOfObjects);
    80001a7c:	00a00613          	li	a2,10
    80001a80:	0184b583          	ld	a1,24(s1)
    80001a84:	00006517          	auipc	a0,0x6
    80001a88:	5f450513          	addi	a0,a0,1524 # 80008078 <CONSOLE_STATUS+0x68>
    80001a8c:	00002097          	auipc	ra,0x2
    80001a90:	ad8080e7          	jalr	-1320(ra) # 80003564 <_ZN8KConsole18trapPrintStringIntEPKcmi>
        KConsole::trapPrintInt(i);
        KConsole::trapPrintString(" : ");
        KConsole::trapPrintInt((size_t)slab->allocated[i], 16);
        KConsole::trapPrintString("\n");
    }*/
}
    80001a94:	01813083          	ld	ra,24(sp)
    80001a98:	01013403          	ld	s0,16(sp)
    80001a9c:	00813483          	ld	s1,8(sp)
    80001aa0:	02010113          	addi	sp,sp,32
    80001aa4:	00008067          	ret

0000000080001aa8 <_Z16free_slab_objectP6slab_sPKv>:

void free_slab_object(slab_t* slab, const void* objp)
{
    if(slab == nullptr || objp == nullptr)
    80001aa8:	12050a63          	beqz	a0,80001bdc <_Z16free_slab_objectP6slab_sPKv+0x134>
{
    80001aac:	fd010113          	addi	sp,sp,-48
    80001ab0:	02113423          	sd	ra,40(sp)
    80001ab4:	02813023          	sd	s0,32(sp)
    80001ab8:	00913c23          	sd	s1,24(sp)
    80001abc:	01213823          	sd	s2,16(sp)
    80001ac0:	01313423          	sd	s3,8(sp)
    80001ac4:	01413023          	sd	s4,0(sp)
    80001ac8:	03010413          	addi	s0,sp,48
    80001acc:	00050493          	mv	s1,a0
    80001ad0:	00058993          	mv	s3,a1
    if(slab == nullptr || objp == nullptr)
    80001ad4:	08058463          	beqz	a1,80001b5c <_Z16free_slab_objectP6slab_sPKv+0xb4>
        return;
    int indexOfObject = ((size_t)objp - sizeof(slab_t) - (size_t)slab) / slab->owner->obj_size;
    80001ad8:	40a58933          	sub	s2,a1,a0
    80001adc:	bd890913          	addi	s2,s2,-1064
    80001ae0:	01053a03          	ld	s4,16(a0)
    80001ae4:	060a3783          	ld	a5,96(s4)
    80001ae8:	02f95933          	divu	s2,s2,a5
    80001aec:	0009091b          	sext.w	s2,s2
    if((size_t)objp != (size_t)slab + sizeof(slab_t) + indexOfObject*slab->owner->obj_size) //address not allocated, random address
    80001af0:	032787b3          	mul	a5,a5,s2
    80001af4:	00f507b3          	add	a5,a0,a5
    80001af8:	42878793          	addi	a5,a5,1064
    80001afc:	06f59063          	bne	a1,a5,80001b5c <_Z16free_slab_objectP6slab_sPKv+0xb4>
        return;

    if(!checkSetIndex(slab, indexOfObject))
    80001b00:	00090593          	mv	a1,s2
    80001b04:	00000097          	auipc	ra,0x0
    80001b08:	96c080e7          	jalr	-1684(ra) # 80001470 <_Z13checkSetIndexP6slab_si>
    80001b0c:	04050863          	beqz	a0,80001b5c <_Z16free_slab_objectP6slab_sPKv+0xb4>
        return;

    kmem_cache_t* cachep = slab->owner;
    if(cachep->dtor != nullptr)
    80001b10:	070a3783          	ld	a5,112(s4)
    80001b14:	00078663          	beqz	a5,80001b20 <_Z16free_slab_objectP6slab_sPKv+0x78>
        cachep->dtor((void*)objp);
    80001b18:	00098513          	mv	a0,s3
    80001b1c:	000780e7          	jalr	a5
    if(cachep->ctor != nullptr)
    80001b20:	068a3783          	ld	a5,104(s4)
    80001b24:	00078663          	beqz	a5,80001b30 <_Z16free_slab_objectP6slab_sPKv+0x88>
        cachep->ctor((void*)objp);
    80001b28:	00098513          	mv	a0,s3
    80001b2c:	000780e7          	jalr	a5

    resetAllocatedIndex(slab, indexOfObject);
    80001b30:	00090593          	mv	a1,s2
    80001b34:	00048513          	mv	a0,s1
    80001b38:	00000097          	auipc	ra,0x0
    80001b3c:	ea0080e7          	jalr	-352(ra) # 800019d8 <_Z19resetAllocatedIndexP6slab_si>
    if(slab->numOfObjects == slab->numOfAllocatedObjects)
    80001b40:	0184b703          	ld	a4,24(s1)
    80001b44:	0204b783          	ld	a5,32(s1)
    80001b48:	02f70a63          	beq	a4,a5,80001b7c <_Z16free_slab_objectP6slab_sPKv+0xd4>
        removeFullSlab(slab->owner, slab);
        slab->numOfAllocatedObjects--;
        if(empty(slab))
            removePartialSlab(slab->owner, slab);
    }
    else if(slab->numOfAllocatedObjects == 1)
    80001b4c:	00100713          	li	a4,1
    80001b50:	06e78663          	beq	a5,a4,80001bbc <_Z16free_slab_objectP6slab_sPKv+0x114>
    {
        removePartialSlab(slab->owner, slab);
        slab->numOfAllocatedObjects--;
    }
    else
        slab->numOfAllocatedObjects--;
    80001b54:	fff78793          	addi	a5,a5,-1
    80001b58:	02f4b023          	sd	a5,32(s1)
}
    80001b5c:	02813083          	ld	ra,40(sp)
    80001b60:	02013403          	ld	s0,32(sp)
    80001b64:	01813483          	ld	s1,24(sp)
    80001b68:	01013903          	ld	s2,16(sp)
    80001b6c:	00813983          	ld	s3,8(sp)
    80001b70:	00013a03          	ld	s4,0(sp)
    80001b74:	03010113          	addi	sp,sp,48
    80001b78:	00008067          	ret
        removeFullSlab(slab->owner, slab);
    80001b7c:	00048593          	mv	a1,s1
    80001b80:	0104b503          	ld	a0,16(s1)
    80001b84:	00000097          	auipc	ra,0x0
    80001b88:	bb4080e7          	jalr	-1100(ra) # 80001738 <_Z14removeFullSlabP12kmem_cache_sP6slab_s>
        slab->numOfAllocatedObjects--;
    80001b8c:	0204b783          	ld	a5,32(s1)
    80001b90:	fff78793          	addi	a5,a5,-1
    80001b94:	02f4b023          	sd	a5,32(s1)
        if(empty(slab))
    80001b98:	00048513          	mv	a0,s1
    80001b9c:	00000097          	auipc	ra,0x0
    80001ba0:	a3c080e7          	jalr	-1476(ra) # 800015d8 <_Z5emptyP6slab_s>
    80001ba4:	fa050ce3          	beqz	a0,80001b5c <_Z16free_slab_objectP6slab_sPKv+0xb4>
            removePartialSlab(slab->owner, slab);
    80001ba8:	00048593          	mv	a1,s1
    80001bac:	0104b503          	ld	a0,16(s1)
    80001bb0:	00000097          	auipc	ra,0x0
    80001bb4:	be0080e7          	jalr	-1056(ra) # 80001790 <_Z17removePartialSlabP12kmem_cache_sP6slab_s>
    80001bb8:	fa5ff06f          	j	80001b5c <_Z16free_slab_objectP6slab_sPKv+0xb4>
        removePartialSlab(slab->owner, slab);
    80001bbc:	00048593          	mv	a1,s1
    80001bc0:	0104b503          	ld	a0,16(s1)
    80001bc4:	00000097          	auipc	ra,0x0
    80001bc8:	bcc080e7          	jalr	-1076(ra) # 80001790 <_Z17removePartialSlabP12kmem_cache_sP6slab_s>
        slab->numOfAllocatedObjects--;
    80001bcc:	0204b783          	ld	a5,32(s1)
    80001bd0:	fff78793          	addi	a5,a5,-1
    80001bd4:	02f4b023          	sd	a5,32(s1)
    80001bd8:	f85ff06f          	j	80001b5c <_Z16free_slab_objectP6slab_sPKv+0xb4>
    80001bdc:	00008067          	ret

0000000080001be0 <_Z9kmem_initPvi>:
    KConsole::trapPrintString("\n\n\n\n\n\n\n\n\n");
}

//slab allocator public interface-----------------------------------------------------------------------------
void kmem_init(void *space, int block_num)
{
    80001be0:	ff010113          	addi	sp,sp,-16
    80001be4:	00113423          	sd	ra,8(sp)
    80001be8:	00813023          	sd	s0,0(sp)
    80001bec:	01010413          	addi	s0,sp,16
    buddyAllocator* buddy = buddy_init(space, block_num);
    80001bf0:	00001097          	auipc	ra,0x1
    80001bf4:	174080e7          	jalr	372(ra) # 80002d64 <_Z10buddy_initPvm>
    slabAllocator = slab_allocator_init(buddy);
    80001bf8:	00000097          	auipc	ra,0x0
    80001bfc:	800080e7          	jalr	-2048(ra) # 800013f8 <_Z19slab_allocator_initP14buddyAllocator>
    80001c00:	00007797          	auipc	a5,0x7
    80001c04:	e0a7b823          	sd	a0,-496(a5) # 80008a10 <_ZL13slabAllocator>
}
    80001c08:	00813083          	ld	ra,8(sp)
    80001c0c:	00013403          	ld	s0,0(sp)
    80001c10:	01010113          	addi	sp,sp,16
    80001c14:	00008067          	ret

0000000080001c18 <_Z16kmem_cache_allocP12kmem_cache_s>:
    init_cache(newCache, name, getOptimalSlabSize(size), size, ctor,dtor);
    return newCache;
}

void *kmem_cache_alloc(kmem_cache_t *cachep)
{
    80001c18:	fe010113          	addi	sp,sp,-32
    80001c1c:	00113c23          	sd	ra,24(sp)
    80001c20:	00813823          	sd	s0,16(sp)
    80001c24:	00913423          	sd	s1,8(sp)
    80001c28:	01213023          	sd	s2,0(sp)
    80001c2c:	02010413          	addi	s0,sp,32
    80001c30:	00050493          	mv	s1,a0
    if(cachep == nullptr)
    80001c34:	10050a63          	beqz	a0,80001d48 <_Z16kmem_cache_allocP12kmem_cache_s+0x130>
        return nullptr;

    if(cachep->slabs_partial != nullptr)
    80001c38:	05053503          	ld	a0,80(a0)
    80001c3c:	04051a63          	bnez	a0,80001c90 <_Z16kmem_cache_allocP12kmem_cache_s+0x78>
        void* allocatedAddr = allocateObject(cachep->slabs_partial);
        if(full(cachep->slabs_partial))
            putPartialToFull(cachep);
        return allocatedAddr;
    }
    else if(cachep->slabs_empty != nullptr)
    80001c40:	0404b503          	ld	a0,64(s1)
    80001c44:	08050a63          	beqz	a0,80001cd8 <_Z16kmem_cache_allocP12kmem_cache_s+0xc0>
    {
        void* allocatedAddr = allocateObject(cachep->slabs_empty);
    80001c48:	00000097          	auipc	ra,0x0
    80001c4c:	8b0080e7          	jalr	-1872(ra) # 800014f8 <_Z14allocateObjectP6slab_s>
    80001c50:	00050913          	mv	s2,a0
        if(!empty(cachep->slabs_empty))
    80001c54:	0404b503          	ld	a0,64(s1)
    80001c58:	00000097          	auipc	ra,0x0
    80001c5c:	980080e7          	jalr	-1664(ra) # 800015d8 <_Z5emptyP6slab_s>
    80001c60:	04051663          	bnez	a0,80001cac <_Z16kmem_cache_allocP12kmem_cache_s+0x94>
        {
            putEmptyToPartial(cachep);
    80001c64:	00048513          	mv	a0,s1
    80001c68:	00000097          	auipc	ra,0x0
    80001c6c:	a78080e7          	jalr	-1416(ra) # 800016e0 <_Z17putEmptyToPartialP12kmem_cache_s>
            if(full(cachep->slabs_partial))
    80001c70:	0504b503          	ld	a0,80(s1)
    80001c74:	00000097          	auipc	ra,0x0
    80001c78:	93c080e7          	jalr	-1732(ra) # 800015b0 <_Z4fullP6slab_s>
    80001c7c:	02050863          	beqz	a0,80001cac <_Z16kmem_cache_allocP12kmem_cache_s+0x94>
                putPartialToFull(cachep);
    80001c80:	00048513          	mv	a0,s1
    80001c84:	00000097          	auipc	ra,0x0
    80001c88:	a04080e7          	jalr	-1532(ra) # 80001688 <_Z16putPartialToFullP12kmem_cache_s>
        }
        return allocatedAddr;
    80001c8c:	0200006f          	j	80001cac <_Z16kmem_cache_allocP12kmem_cache_s+0x94>
        void* allocatedAddr = allocateObject(cachep->slabs_partial);
    80001c90:	00000097          	auipc	ra,0x0
    80001c94:	868080e7          	jalr	-1944(ra) # 800014f8 <_Z14allocateObjectP6slab_s>
    80001c98:	00050913          	mv	s2,a0
        if(full(cachep->slabs_partial))
    80001c9c:	0504b503          	ld	a0,80(s1)
    80001ca0:	00000097          	auipc	ra,0x0
    80001ca4:	910080e7          	jalr	-1776(ra) # 800015b0 <_Z4fullP6slab_s>
    80001ca8:	02051063          	bnez	a0,80001cc8 <_Z16kmem_cache_allocP12kmem_cache_s+0xb0>
                putPartialToFull(cachep);
        }
        return allocatedAddr;
    }
    return nullptr;
}
    80001cac:	00090513          	mv	a0,s2
    80001cb0:	01813083          	ld	ra,24(sp)
    80001cb4:	01013403          	ld	s0,16(sp)
    80001cb8:	00813483          	ld	s1,8(sp)
    80001cbc:	00013903          	ld	s2,0(sp)
    80001cc0:	02010113          	addi	sp,sp,32
    80001cc4:	00008067          	ret
            putPartialToFull(cachep);
    80001cc8:	00048513          	mv	a0,s1
    80001ccc:	00000097          	auipc	ra,0x0
    80001cd0:	9bc080e7          	jalr	-1604(ra) # 80001688 <_Z16putPartialToFullP12kmem_cache_s>
        return allocatedAddr;
    80001cd4:	fd9ff06f          	j	80001cac <_Z16kmem_cache_allocP12kmem_cache_s+0x94>
        allocateSlab(cachep);
    80001cd8:	00048513          	mv	a0,s1
    80001cdc:	00000097          	auipc	ra,0x0
    80001ce0:	b0c080e7          	jalr	-1268(ra) # 800017e8 <_Z12allocateSlabP12kmem_cache_s>
        if(cachep->slabs_empty == nullptr)
    80001ce4:	0404b903          	ld	s2,64(s1)
    80001ce8:	04090863          	beqz	s2,80001d38 <_Z16kmem_cache_allocP12kmem_cache_s+0x120>
        void* allocatedAddr = allocateObject(cachep->slabs_empty);
    80001cec:	00090513          	mv	a0,s2
    80001cf0:	00000097          	auipc	ra,0x0
    80001cf4:	808080e7          	jalr	-2040(ra) # 800014f8 <_Z14allocateObjectP6slab_s>
    80001cf8:	00050913          	mv	s2,a0
        if(!empty(cachep->slabs_empty))
    80001cfc:	0404b503          	ld	a0,64(s1)
    80001d00:	00000097          	auipc	ra,0x0
    80001d04:	8d8080e7          	jalr	-1832(ra) # 800015d8 <_Z5emptyP6slab_s>
    80001d08:	fa0512e3          	bnez	a0,80001cac <_Z16kmem_cache_allocP12kmem_cache_s+0x94>
            putEmptyToPartial(cachep);
    80001d0c:	00048513          	mv	a0,s1
    80001d10:	00000097          	auipc	ra,0x0
    80001d14:	9d0080e7          	jalr	-1584(ra) # 800016e0 <_Z17putEmptyToPartialP12kmem_cache_s>
            if(full(cachep->slabs_partial))
    80001d18:	0504b503          	ld	a0,80(s1)
    80001d1c:	00000097          	auipc	ra,0x0
    80001d20:	894080e7          	jalr	-1900(ra) # 800015b0 <_Z4fullP6slab_s>
    80001d24:	f80504e3          	beqz	a0,80001cac <_Z16kmem_cache_allocP12kmem_cache_s+0x94>
                putPartialToFull(cachep);
    80001d28:	00048513          	mv	a0,s1
    80001d2c:	00000097          	auipc	ra,0x0
    80001d30:	95c080e7          	jalr	-1700(ra) # 80001688 <_Z16putPartialToFullP12kmem_cache_s>
        return allocatedAddr;
    80001d34:	f79ff06f          	j	80001cac <_Z16kmem_cache_allocP12kmem_cache_s+0x94>
            cachep->errors|=EXPAND_ERROR;
    80001d38:	0784a783          	lw	a5,120(s1)
    80001d3c:	0017e793          	ori	a5,a5,1
    80001d40:	06f4ac23          	sw	a5,120(s1)
            return nullptr;
    80001d44:	f69ff06f          	j	80001cac <_Z16kmem_cache_allocP12kmem_cache_s+0x94>
        return nullptr;
    80001d48:	00050913          	mv	s2,a0
    80001d4c:	f61ff06f          	j	80001cac <_Z16kmem_cache_allocP12kmem_cache_s+0x94>

0000000080001d50 <_Z17kmem_cache_createPKcmPFvPvES3_>:
{
    80001d50:	fc010113          	addi	sp,sp,-64
    80001d54:	02113c23          	sd	ra,56(sp)
    80001d58:	02813823          	sd	s0,48(sp)
    80001d5c:	02913423          	sd	s1,40(sp)
    80001d60:	03213023          	sd	s2,32(sp)
    80001d64:	01313c23          	sd	s3,24(sp)
    80001d68:	01413823          	sd	s4,16(sp)
    80001d6c:	01513423          	sd	s5,8(sp)
    80001d70:	04010413          	addi	s0,sp,64
    80001d74:	00050993          	mv	s3,a0
    80001d78:	00058913          	mv	s2,a1
    80001d7c:	00060a13          	mv	s4,a2
    80001d80:	00068a93          	mv	s5,a3
    kmem_cache_t* newCache = (kmem_cache_t*)kmem_cache_alloc(&slabAllocator->cacheOfCaches);
    80001d84:	00007517          	auipc	a0,0x7
    80001d88:	c8c53503          	ld	a0,-884(a0) # 80008a10 <_ZL13slabAllocator>
    80001d8c:	07050513          	addi	a0,a0,112
    80001d90:	00000097          	auipc	ra,0x0
    80001d94:	e88080e7          	jalr	-376(ra) # 80001c18 <_Z16kmem_cache_allocP12kmem_cache_s>
    80001d98:	00050493          	mv	s1,a0
    if(newCache == nullptr)
    80001d9c:	02050863          	beqz	a0,80001dcc <_Z17kmem_cache_createPKcmPFvPvES3_+0x7c>
    init_cache(newCache, name, getOptimalSlabSize(size), size, ctor,dtor);
    80001da0:	00090513          	mv	a0,s2
    80001da4:	00000097          	auipc	ra,0x0
    80001da8:	b30080e7          	jalr	-1232(ra) # 800018d4 <_Z18getOptimalSlabSizem>
    80001dac:	00050613          	mv	a2,a0
    80001db0:	000a8793          	mv	a5,s5
    80001db4:	000a0713          	mv	a4,s4
    80001db8:	00090693          	mv	a3,s2
    80001dbc:	00098593          	mv	a1,s3
    80001dc0:	00048513          	mv	a0,s1
    80001dc4:	fffff097          	auipc	ra,0xfffff
    80001dc8:	5a8080e7          	jalr	1448(ra) # 8000136c <_Z10init_cacheP12kmem_cache_sPKcmmPFvPvES5_>
}
    80001dcc:	00048513          	mv	a0,s1
    80001dd0:	03813083          	ld	ra,56(sp)
    80001dd4:	03013403          	ld	s0,48(sp)
    80001dd8:	02813483          	ld	s1,40(sp)
    80001ddc:	02013903          	ld	s2,32(sp)
    80001de0:	01813983          	ld	s3,24(sp)
    80001de4:	01013a03          	ld	s4,16(sp)
    80001de8:	00813a83          	ld	s5,8(sp)
    80001dec:	04010113          	addi	sp,sp,64
    80001df0:	00008067          	ret

0000000080001df4 <_Z15kmem_cache_freeP12kmem_cache_sPv>:

void kmem_cache_free(kmem_cache_t *cachep, void *objp)
{
    if(cachep == nullptr || objp == nullptr)
    80001df4:	04050663          	beqz	a0,80001e40 <_Z15kmem_cache_freeP12kmem_cache_sPv+0x4c>
{
    80001df8:	fe010113          	addi	sp,sp,-32
    80001dfc:	00113c23          	sd	ra,24(sp)
    80001e00:	00813823          	sd	s0,16(sp)
    80001e04:	00913423          	sd	s1,8(sp)
    80001e08:	02010413          	addi	s0,sp,32
    80001e0c:	00058493          	mv	s1,a1
    if(cachep == nullptr || objp == nullptr)
    80001e10:	00058e63          	beqz	a1,80001e2c <_Z15kmem_cache_freeP12kmem_cache_sPv+0x38>
        return;
    slab_t* slab = findSlab(cachep, objp);
    80001e14:	00000097          	auipc	ra,0x0
    80001e18:	b34080e7          	jalr	-1228(ra) # 80001948 <_Z8findSlabP12kmem_cache_sPKv>
    if(slab == nullptr) return;
    80001e1c:	00050863          	beqz	a0,80001e2c <_Z15kmem_cache_freeP12kmem_cache_sPv+0x38>

    free_slab_object(slab, objp);
    80001e20:	00048593          	mv	a1,s1
    80001e24:	00000097          	auipc	ra,0x0
    80001e28:	c84080e7          	jalr	-892(ra) # 80001aa8 <_Z16free_slab_objectP6slab_sPKv>
}
    80001e2c:	01813083          	ld	ra,24(sp)
    80001e30:	01013403          	ld	s0,16(sp)
    80001e34:	00813483          	ld	s1,8(sp)
    80001e38:	02010113          	addi	sp,sp,32
    80001e3c:	00008067          	ret
    80001e40:	00008067          	ret

0000000080001e44 <_Z15kmem_cache_infoP12kmem_cache_s>:

//TODO what needs to be printed
void kmem_cache_info(kmem_cache_t *cachep)
{
    if(cachep == nullptr)
    80001e44:	14050c63          	beqz	a0,80001f9c <_Z15kmem_cache_infoP12kmem_cache_s+0x158>
{
    80001e48:	fe010113          	addi	sp,sp,-32
    80001e4c:	00113c23          	sd	ra,24(sp)
    80001e50:	00813823          	sd	s0,16(sp)
    80001e54:	00913423          	sd	s1,8(sp)
    80001e58:	01213023          	sd	s2,0(sp)
    80001e5c:	02010413          	addi	s0,sp,32
    80001e60:	00050913          	mv	s2,a0
        return;
    KConsole::trapPrintString("\n\n\n\n\n\n\n\n");
    80001e64:	00006517          	auipc	a0,0x6
    80001e68:	22c50513          	addi	a0,a0,556 # 80008090 <CONSOLE_STATUS+0x80>
    80001e6c:	00001097          	auipc	ra,0x1
    80001e70:	620080e7          	jalr	1568(ra) # 8000348c <_ZN8KConsole15trapPrintStringEPKc>
    KConsole::trapPrintString("Kmem Cache Info-------------------------------------\n");
    80001e74:	00006517          	auipc	a0,0x6
    80001e78:	22c50513          	addi	a0,a0,556 # 800080a0 <CONSOLE_STATUS+0x90>
    80001e7c:	00001097          	auipc	ra,0x1
    80001e80:	610080e7          	jalr	1552(ra) # 8000348c <_ZN8KConsole15trapPrintStringEPKc>
    KConsole::trapPrintString("Cache Name ");
    80001e84:	00006517          	auipc	a0,0x6
    80001e88:	25450513          	addi	a0,a0,596 # 800080d8 <CONSOLE_STATUS+0xc8>
    80001e8c:	00001097          	auipc	ra,0x1
    80001e90:	600080e7          	jalr	1536(ra) # 8000348c <_ZN8KConsole15trapPrintStringEPKc>
    KConsole::trapPrintString(cachep->cacheName); KConsole::trapPrintString("\n");
    80001e94:	00090513          	mv	a0,s2
    80001e98:	00001097          	auipc	ra,0x1
    80001e9c:	5f4080e7          	jalr	1524(ra) # 8000348c <_ZN8KConsole15trapPrintStringEPKc>
    80001ea0:	00006517          	auipc	a0,0x6
    80001ea4:	2e050513          	addi	a0,a0,736 # 80008180 <CONSOLE_STATUS+0x170>
    80001ea8:	00001097          	auipc	ra,0x1
    80001eac:	5e4080e7          	jalr	1508(ra) # 8000348c <_ZN8KConsole15trapPrintStringEPKc>
    KConsole::trapPrintStringInt("Cache slab size in blocks ", cachep->slab_size);
    80001eb0:	00a00613          	li	a2,10
    80001eb4:	05893583          	ld	a1,88(s2)
    80001eb8:	00006517          	auipc	a0,0x6
    80001ebc:	23050513          	addi	a0,a0,560 # 800080e8 <CONSOLE_STATUS+0xd8>
    80001ec0:	00001097          	auipc	ra,0x1
    80001ec4:	6a4080e7          	jalr	1700(ra) # 80003564 <_ZN8KConsole18trapPrintStringIntEPKcmi>
    KConsole::trapPrintStringInt("Cache obj size in bytes ", cachep->obj_size);
    80001ec8:	00a00613          	li	a2,10
    80001ecc:	06093583          	ld	a1,96(s2)
    80001ed0:	00006517          	auipc	a0,0x6
    80001ed4:	23850513          	addi	a0,a0,568 # 80008108 <CONSOLE_STATUS+0xf8>
    80001ed8:	00001097          	auipc	ra,0x1
    80001edc:	68c080e7          	jalr	1676(ra) # 80003564 <_ZN8KConsole18trapPrintStringIntEPKcmi>
    
    KConsole::trapPrintString("Slabs info-------------------\n");
    80001ee0:	00006517          	auipc	a0,0x6
    80001ee4:	24850513          	addi	a0,a0,584 # 80008128 <CONSOLE_STATUS+0x118>
    80001ee8:	00001097          	auipc	ra,0x1
    80001eec:	5a4080e7          	jalr	1444(ra) # 8000348c <_ZN8KConsole15trapPrintStringEPKc>

    KConsole::trapPrintString("Full slabs\n");
    80001ef0:	00006517          	auipc	a0,0x6
    80001ef4:	25850513          	addi	a0,a0,600 # 80008148 <CONSOLE_STATUS+0x138>
    80001ef8:	00001097          	auipc	ra,0x1
    80001efc:	594080e7          	jalr	1428(ra) # 8000348c <_ZN8KConsole15trapPrintStringEPKc>
    slab_t* slab = cachep->slabs_full;
    80001f00:	04893483          	ld	s1,72(s2)
    while(slab != nullptr)
    80001f04:	00048c63          	beqz	s1,80001f1c <_Z15kmem_cache_infoP12kmem_cache_s+0xd8>
    {
        printSlabInfo(slab);
    80001f08:	00048513          	mv	a0,s1
    80001f0c:	00000097          	auipc	ra,0x0
    80001f10:	b18080e7          	jalr	-1256(ra) # 80001a24 <_Z13printSlabInfoP6slab_s>
        slab = slab->next;
    80001f14:	0084b483          	ld	s1,8(s1)
    while(slab != nullptr)
    80001f18:	fedff06f          	j	80001f04 <_Z15kmem_cache_infoP12kmem_cache_s+0xc0>
    }

    KConsole::trapPrintString("Partial slabs\n");
    80001f1c:	00006517          	auipc	a0,0x6
    80001f20:	23c50513          	addi	a0,a0,572 # 80008158 <CONSOLE_STATUS+0x148>
    80001f24:	00001097          	auipc	ra,0x1
    80001f28:	568080e7          	jalr	1384(ra) # 8000348c <_ZN8KConsole15trapPrintStringEPKc>
    slab = cachep->slabs_partial;
    80001f2c:	05093483          	ld	s1,80(s2)
    while(slab != nullptr)
    80001f30:	00048c63          	beqz	s1,80001f48 <_Z15kmem_cache_infoP12kmem_cache_s+0x104>
    {
        printSlabInfo(slab);
    80001f34:	00048513          	mv	a0,s1
    80001f38:	00000097          	auipc	ra,0x0
    80001f3c:	aec080e7          	jalr	-1300(ra) # 80001a24 <_Z13printSlabInfoP6slab_s>
        slab = slab->next;
    80001f40:	0084b483          	ld	s1,8(s1)
    while(slab != nullptr)
    80001f44:	fedff06f          	j	80001f30 <_Z15kmem_cache_infoP12kmem_cache_s+0xec>
    }

    KConsole::trapPrintString("Empty slabs\n");
    80001f48:	00006517          	auipc	a0,0x6
    80001f4c:	22050513          	addi	a0,a0,544 # 80008168 <CONSOLE_STATUS+0x158>
    80001f50:	00001097          	auipc	ra,0x1
    80001f54:	53c080e7          	jalr	1340(ra) # 8000348c <_ZN8KConsole15trapPrintStringEPKc>
    slab = cachep->slabs_empty;
    80001f58:	04093483          	ld	s1,64(s2)
    while(slab != nullptr)
    80001f5c:	00048c63          	beqz	s1,80001f74 <_Z15kmem_cache_infoP12kmem_cache_s+0x130>
    {
        printSlabInfo(slab);
    80001f60:	00048513          	mv	a0,s1
    80001f64:	00000097          	auipc	ra,0x0
    80001f68:	ac0080e7          	jalr	-1344(ra) # 80001a24 <_Z13printSlabInfoP6slab_s>
        slab = slab->next;
    80001f6c:	0084b483          	ld	s1,8(s1)
    while(slab != nullptr)
    80001f70:	fedff06f          	j	80001f5c <_Z15kmem_cache_infoP12kmem_cache_s+0x118>
    }

    KConsole::trapPrintString("\n\n\n\n\n\n\n\n");
    80001f74:	00006517          	auipc	a0,0x6
    80001f78:	11c50513          	addi	a0,a0,284 # 80008090 <CONSOLE_STATUS+0x80>
    80001f7c:	00001097          	auipc	ra,0x1
    80001f80:	510080e7          	jalr	1296(ra) # 8000348c <_ZN8KConsole15trapPrintStringEPKc>
}
    80001f84:	01813083          	ld	ra,24(sp)
    80001f88:	01013403          	ld	s0,16(sp)
    80001f8c:	00813483          	ld	s1,8(sp)
    80001f90:	00013903          	ld	s2,0(sp)
    80001f94:	02010113          	addi	sp,sp,32
    80001f98:	00008067          	ret
    80001f9c:	00008067          	ret

0000000080001fa0 <_Z22printSlabAllocatorInfov>:
{
    80001fa0:	fe010113          	addi	sp,sp,-32
    80001fa4:	00113c23          	sd	ra,24(sp)
    80001fa8:	00813823          	sd	s0,16(sp)
    80001fac:	00913423          	sd	s1,8(sp)
    80001fb0:	02010413          	addi	s0,sp,32
    KConsole::trapPrintString("\n\n\n\n\n\n\n\n\n");
    80001fb4:	00006517          	auipc	a0,0x6
    80001fb8:	1c450513          	addi	a0,a0,452 # 80008178 <CONSOLE_STATUS+0x168>
    80001fbc:	00001097          	auipc	ra,0x1
    80001fc0:	4d0080e7          	jalr	1232(ra) # 8000348c <_ZN8KConsole15trapPrintStringEPKc>
    KConsole::trapPrintString("Slab allocator info----------------------------------------------------------\n");
    80001fc4:	00006517          	auipc	a0,0x6
    80001fc8:	1c450513          	addi	a0,a0,452 # 80008188 <CONSOLE_STATUS+0x178>
    80001fcc:	00001097          	auipc	ra,0x1
    80001fd0:	4c0080e7          	jalr	1216(ra) # 8000348c <_ZN8KConsole15trapPrintStringEPKc>
    KConsole::trapPrintStringInt("Slab allocator buddy address ", (size_t)slabAllocator->buddy,16);
    80001fd4:	00007497          	auipc	s1,0x7
    80001fd8:	a3c48493          	addi	s1,s1,-1476 # 80008a10 <_ZL13slabAllocator>
    80001fdc:	0004b783          	ld	a5,0(s1)
    80001fe0:	01000613          	li	a2,16
    80001fe4:	0007b583          	ld	a1,0(a5)
    80001fe8:	00006517          	auipc	a0,0x6
    80001fec:	1f050513          	addi	a0,a0,496 # 800081d8 <CONSOLE_STATUS+0x1c8>
    80001ff0:	00001097          	auipc	ra,0x1
    80001ff4:	574080e7          	jalr	1396(ra) # 80003564 <_ZN8KConsole18trapPrintStringIntEPKcmi>
    KConsole::trapPrintStringInt("Slab allocator address ", (size_t)slabAllocator, 16);
    80001ff8:	01000613          	li	a2,16
    80001ffc:	0004b583          	ld	a1,0(s1)
    80002000:	00006517          	auipc	a0,0x6
    80002004:	1f850513          	addi	a0,a0,504 # 800081f8 <CONSOLE_STATUS+0x1e8>
    80002008:	00001097          	auipc	ra,0x1
    8000200c:	55c080e7          	jalr	1372(ra) # 80003564 <_ZN8KConsole18trapPrintStringIntEPKcmi>
    KConsole::trapPrintString("Cache of caches info\n");
    80002010:	00006517          	auipc	a0,0x6
    80002014:	20050513          	addi	a0,a0,512 # 80008210 <CONSOLE_STATUS+0x200>
    80002018:	00001097          	auipc	ra,0x1
    8000201c:	474080e7          	jalr	1140(ra) # 8000348c <_ZN8KConsole15trapPrintStringEPKc>
    kmem_cache_info(&slabAllocator->cacheOfCaches);
    80002020:	0004b503          	ld	a0,0(s1)
    80002024:	07050513          	addi	a0,a0,112
    80002028:	00000097          	auipc	ra,0x0
    8000202c:	e1c080e7          	jalr	-484(ra) # 80001e44 <_Z15kmem_cache_infoP12kmem_cache_s>
    KConsole::trapPrintString("Caches for buffers\n");
    80002030:	00006517          	auipc	a0,0x6
    80002034:	1f850513          	addi	a0,a0,504 # 80008228 <CONSOLE_STATUS+0x218>
    80002038:	00001097          	auipc	ra,0x1
    8000203c:	454080e7          	jalr	1108(ra) # 8000348c <_ZN8KConsole15trapPrintStringEPKc>
    for(size_t i = 0;i < CACHE_BUFFER_SIZE;i++)
    80002040:	00000493          	li	s1,0
    80002044:	0100006f          	j	80002054 <_Z22printSlabAllocatorInfov+0xb4>
            kmem_cache_info(slabAllocator->cachesBuffers[i]);
    80002048:	00000097          	auipc	ra,0x0
    8000204c:	dfc080e7          	jalr	-516(ra) # 80001e44 <_Z15kmem_cache_infoP12kmem_cache_s>
    for(size_t i = 0;i < CACHE_BUFFER_SIZE;i++)
    80002050:	00148493          	addi	s1,s1,1
    80002054:	00c00793          	li	a5,12
    80002058:	0297e063          	bltu	a5,s1,80002078 <_Z22printSlabAllocatorInfov+0xd8>
        if(slabAllocator->cachesBuffers[i] != nullptr)
    8000205c:	00349793          	slli	a5,s1,0x3
    80002060:	00007717          	auipc	a4,0x7
    80002064:	9b073703          	ld	a4,-1616(a4) # 80008a10 <_ZL13slabAllocator>
    80002068:	00f707b3          	add	a5,a4,a5
    8000206c:	0087b503          	ld	a0,8(a5)
    80002070:	fc051ce3          	bnez	a0,80002048 <_Z22printSlabAllocatorInfov+0xa8>
    80002074:	fddff06f          	j	80002050 <_Z22printSlabAllocatorInfov+0xb0>
    KConsole::trapPrintString("\n\n\n\n\n\n\n\n\n");
    80002078:	00006517          	auipc	a0,0x6
    8000207c:	10050513          	addi	a0,a0,256 # 80008178 <CONSOLE_STATUS+0x168>
    80002080:	00001097          	auipc	ra,0x1
    80002084:	40c080e7          	jalr	1036(ra) # 8000348c <_ZN8KConsole15trapPrintStringEPKc>
}
    80002088:	01813083          	ld	ra,24(sp)
    8000208c:	01013403          	ld	s0,16(sp)
    80002090:	00813483          	ld	s1,8(sp)
    80002094:	02010113          	addi	sp,sp,32
    80002098:	00008067          	ret

000000008000209c <_Z7kmallocm>:

void *kmalloc(size_t size)
{
    8000209c:	fd010113          	addi	sp,sp,-48
    800020a0:	02113423          	sd	ra,40(sp)
    800020a4:	02813023          	sd	s0,32(sp)
    800020a8:	00913c23          	sd	s1,24(sp)
    800020ac:	01213823          	sd	s2,16(sp)
    800020b0:	01313423          	sd	s3,8(sp)
    800020b4:	03010413          	addi	s0,sp,48
    size_t level = getDeg2Ceil(size);
    800020b8:	00001097          	auipc	ra,0x1
    800020bc:	920080e7          	jalr	-1760(ra) # 800029d8 <_Z11getDeg2Ceilm>
    if(level < CACHE_BUFFER_SMALL)
    800020c0:	00400793          	li	a5,4
    800020c4:	00a7fa63          	bgeu	a5,a0,800020d8 <_Z7kmallocm+0x3c>
        level = CACHE_BUFFER_SMALL;
    if(level > CACHE_BUFFER_BIG)
    800020c8:	01100793          	li	a5,17
    800020cc:	00a7f863          	bgeu	a5,a0,800020dc <_Z7kmallocm+0x40>
        return nullptr;
    800020d0:	00000913          	li	s2,0
    800020d4:	04c0006f          	j	80002120 <_Z7kmallocm+0x84>
        level = CACHE_BUFFER_SMALL;
    800020d8:	00500513          	li	a0,5
    size = (1 << level);
    800020dc:	00100693          	li	a3,1
    800020e0:	00a699bb          	sllw	s3,a3,a0
    size_t index = level - CACHE_BUFFER_SMALL;
    800020e4:	ffb50493          	addi	s1,a0,-5
    if(slabAllocator->cachesBuffers[index] == nullptr)
    800020e8:	00007917          	auipc	s2,0x7
    800020ec:	92893903          	ld	s2,-1752(s2) # 80008a10 <_ZL13slabAllocator>
    800020f0:	00349793          	slli	a5,s1,0x3
    800020f4:	00f907b3          	add	a5,s2,a5
    800020f8:	0087b783          	ld	a5,8(a5)
    800020fc:	04078263          	beqz	a5,80002140 <_Z7kmallocm+0xa4>
        if(slabAllocator->cachesBuffers[index] == nullptr)
            return nullptr;
        init_cache(slabAllocator->cachesBuffers[index], "Cache for small buffers", getOptimalSlabSize(size), size, nullptr,nullptr);
    }

    return kmem_cache_alloc(slabAllocator->cachesBuffers[index]);
    80002100:	00349513          	slli	a0,s1,0x3
    80002104:	00007497          	auipc	s1,0x7
    80002108:	90c4b483          	ld	s1,-1780(s1) # 80008a10 <_ZL13slabAllocator>
    8000210c:	00a48533          	add	a0,s1,a0
    80002110:	00853503          	ld	a0,8(a0)
    80002114:	00000097          	auipc	ra,0x0
    80002118:	b04080e7          	jalr	-1276(ra) # 80001c18 <_Z16kmem_cache_allocP12kmem_cache_s>
    8000211c:	00050913          	mv	s2,a0
}
    80002120:	00090513          	mv	a0,s2
    80002124:	02813083          	ld	ra,40(sp)
    80002128:	02013403          	ld	s0,32(sp)
    8000212c:	01813483          	ld	s1,24(sp)
    80002130:	01013903          	ld	s2,16(sp)
    80002134:	00813983          	ld	s3,8(sp)
    80002138:	03010113          	addi	sp,sp,48
    8000213c:	00008067          	ret
        slabAllocator->cachesBuffers[index] = (kmem_cache_t*)kmem_cache_alloc(&slabAllocator->cacheOfCaches);
    80002140:	07090513          	addi	a0,s2,112
    80002144:	00000097          	auipc	ra,0x0
    80002148:	ad4080e7          	jalr	-1324(ra) # 80001c18 <_Z16kmem_cache_allocP12kmem_cache_s>
    8000214c:	00349713          	slli	a4,s1,0x3
    80002150:	00e90933          	add	s2,s2,a4
    80002154:	00a93423          	sd	a0,8(s2)
        if(slabAllocator->cachesBuffers[index] == nullptr)
    80002158:	00007797          	auipc	a5,0x7
    8000215c:	8b87b783          	ld	a5,-1864(a5) # 80008a10 <_ZL13slabAllocator>
    80002160:	00e787b3          	add	a5,a5,a4
    80002164:	0087b903          	ld	s2,8(a5)
    80002168:	fa090ce3          	beqz	s2,80002120 <_Z7kmallocm+0x84>
        init_cache(slabAllocator->cachesBuffers[index], "Cache for small buffers", getOptimalSlabSize(size), size, nullptr,nullptr);
    8000216c:	00098513          	mv	a0,s3
    80002170:	fffff097          	auipc	ra,0xfffff
    80002174:	764080e7          	jalr	1892(ra) # 800018d4 <_Z18getOptimalSlabSizem>
    80002178:	00050613          	mv	a2,a0
    8000217c:	00000793          	li	a5,0
    80002180:	00000713          	li	a4,0
    80002184:	00098693          	mv	a3,s3
    80002188:	00006597          	auipc	a1,0x6
    8000218c:	0b858593          	addi	a1,a1,184 # 80008240 <CONSOLE_STATUS+0x230>
    80002190:	00090513          	mv	a0,s2
    80002194:	fffff097          	auipc	ra,0xfffff
    80002198:	1d8080e7          	jalr	472(ra) # 8000136c <_Z10init_cacheP12kmem_cache_sPKcmmPFvPvES5_>
    8000219c:	f65ff06f          	j	80002100 <_Z7kmallocm+0x64>

00000000800021a0 <_Z5kfreePKv>:

void kfree(const void *objp)
{
    if(objp == nullptr)
    800021a0:	08050263          	beqz	a0,80002224 <_Z5kfreePKv+0x84>
{
    800021a4:	fe010113          	addi	sp,sp,-32
    800021a8:	00113c23          	sd	ra,24(sp)
    800021ac:	00813823          	sd	s0,16(sp)
    800021b0:	00913423          	sd	s1,8(sp)
    800021b4:	01213023          	sd	s2,0(sp)
    800021b8:	02010413          	addi	s0,sp,32
    800021bc:	00050913          	mv	s2,a0
        return;
    slab_t* slab = nullptr;
    for(size_t i = 0;i < CACHE_BUFFER_SIZE;i++)
    800021c0:	00000493          	li	s1,0
    slab_t* slab = nullptr;
    800021c4:	00000513          	li	a0,0
    for(size_t i = 0;i < CACHE_BUFFER_SIZE;i++)
    800021c8:	00c00793          	li	a5,12
    800021cc:	0297e863          	bltu	a5,s1,800021fc <_Z5kfreePKv+0x5c>
    {
        slab = findSlab(slabAllocator->cachesBuffers[i], objp);
    800021d0:	00349793          	slli	a5,s1,0x3
    800021d4:	00007717          	auipc	a4,0x7
    800021d8:	83c73703          	ld	a4,-1988(a4) # 80008a10 <_ZL13slabAllocator>
    800021dc:	00f707b3          	add	a5,a4,a5
    800021e0:	00090593          	mv	a1,s2
    800021e4:	0087b503          	ld	a0,8(a5)
    800021e8:	fffff097          	auipc	ra,0xfffff
    800021ec:	760080e7          	jalr	1888(ra) # 80001948 <_Z8findSlabP12kmem_cache_sPKv>
        if(slab != nullptr) break;
    800021f0:	00051663          	bnez	a0,800021fc <_Z5kfreePKv+0x5c>
    for(size_t i = 0;i < CACHE_BUFFER_SIZE;i++)
    800021f4:	00148493          	addi	s1,s1,1
    800021f8:	fd1ff06f          	j	800021c8 <_Z5kfreePKv+0x28>
    }
    if(slab != nullptr)
    800021fc:	00050863          	beqz	a0,8000220c <_Z5kfreePKv+0x6c>
    {
        free_slab_object(slab, objp);
    80002200:	00090593          	mv	a1,s2
    80002204:	00000097          	auipc	ra,0x0
    80002208:	8a4080e7          	jalr	-1884(ra) # 80001aa8 <_Z16free_slab_objectP6slab_sPKv>
    }
}
    8000220c:	01813083          	ld	ra,24(sp)
    80002210:	01013403          	ld	s0,16(sp)
    80002214:	00813483          	ld	s1,8(sp)
    80002218:	00013903          	ld	s2,0(sp)
    8000221c:	02010113          	addi	sp,sp,32
    80002220:	00008067          	ret
    80002224:	00008067          	ret

0000000080002228 <_Z18kmem_cache_destroyP12kmem_cache_s>:

void kmem_cache_destroy(kmem_cache_t *cachep)
{
    80002228:	fe010113          	addi	sp,sp,-32
    8000222c:	00113c23          	sd	ra,24(sp)
    80002230:	00813823          	sd	s0,16(sp)
    80002234:	00913423          	sd	s1,8(sp)
    80002238:	02010413          	addi	s0,sp,32
    8000223c:	00050493          	mv	s1,a0
    //if(cachep->slabs_partial != nullptr || cachep->slabs_full != nullptr)
    //{
    //    cachep->errors|=DESTROY_ERROR;
    //    return;
    //}
    destroy_slab_list(&cachep->slabs_empty);
    80002240:	04050513          	addi	a0,a0,64
    80002244:	fffff097          	auipc	ra,0xfffff
    80002248:	098080e7          	jalr	152(ra) # 800012dc <_Z17destroy_slab_listPP6slab_s>
    destroy_slab_list(&cachep->slabs_partial);
    8000224c:	05048513          	addi	a0,s1,80
    80002250:	fffff097          	auipc	ra,0xfffff
    80002254:	08c080e7          	jalr	140(ra) # 800012dc <_Z17destroy_slab_listPP6slab_s>
    destroy_slab_list(&cachep->slabs_full);
    80002258:	04848513          	addi	a0,s1,72
    8000225c:	fffff097          	auipc	ra,0xfffff
    80002260:	080080e7          	jalr	128(ra) # 800012dc <_Z17destroy_slab_listPP6slab_s>
    kmem_cache_free(&slabAllocator->cacheOfCaches,cachep);
    80002264:	00048593          	mv	a1,s1
    80002268:	00006517          	auipc	a0,0x6
    8000226c:	7a853503          	ld	a0,1960(a0) # 80008a10 <_ZL13slabAllocator>
    80002270:	07050513          	addi	a0,a0,112
    80002274:	00000097          	auipc	ra,0x0
    80002278:	b80080e7          	jalr	-1152(ra) # 80001df4 <_Z15kmem_cache_freeP12kmem_cache_sPv>
}
    8000227c:	01813083          	ld	ra,24(sp)
    80002280:	01013403          	ld	s0,16(sp)
    80002284:	00813483          	ld	s1,8(sp)
    80002288:	02010113          	addi	sp,sp,32
    8000228c:	00008067          	ret

0000000080002290 <_Z17kmem_cache_shrinkP12kmem_cache_s>:

int kmem_cache_shrink(kmem_cache_t *cachep)
{
    if(cachep == nullptr)
    80002290:	02050863          	beqz	a0,800022c0 <_Z17kmem_cache_shrinkP12kmem_cache_s+0x30>
{
    80002294:	ff010113          	addi	sp,sp,-16
    80002298:	00113423          	sd	ra,8(sp)
    8000229c:	00813023          	sd	s0,0(sp)
    800022a0:	01010413          	addi	s0,sp,16
        return 0;
    int totalBlocks = destroy_slab_list(&cachep->slabs_empty);
    800022a4:	04050513          	addi	a0,a0,64
    800022a8:	fffff097          	auipc	ra,0xfffff
    800022ac:	034080e7          	jalr	52(ra) # 800012dc <_Z17destroy_slab_listPP6slab_s>
    return totalBlocks;
}
    800022b0:	00813083          	ld	ra,8(sp)
    800022b4:	00013403          	ld	s0,0(sp)
    800022b8:	01010113          	addi	sp,sp,16
    800022bc:	00008067          	ret
        return 0;
    800022c0:	00000513          	li	a0,0
}
    800022c4:	00008067          	ret

00000000800022c8 <_Z16kmem_cache_errorP12kmem_cache_s>:

int kmem_cache_error(kmem_cache_t *cachep)
{
    if(cachep == nullptr)
    800022c8:	06050a63          	beqz	a0,8000233c <_Z16kmem_cache_errorP12kmem_cache_s+0x74>
{
    800022cc:	fe010113          	addi	sp,sp,-32
    800022d0:	00113c23          	sd	ra,24(sp)
    800022d4:	00813823          	sd	s0,16(sp)
    800022d8:	00913423          	sd	s1,8(sp)
    800022dc:	02010413          	addi	s0,sp,32
    800022e0:	00050493          	mv	s1,a0
        return 0;

    if(cachep->errors & EXPAND_ERROR)
    800022e4:	07852783          	lw	a5,120(a0)
    800022e8:	0017f793          	andi	a5,a5,1
    800022ec:	02079463          	bnez	a5,80002314 <_Z16kmem_cache_errorP12kmem_cache_s+0x4c>
        KConsole::trapPrintString("EXPAND ERROR\n");
    if(cachep->errors & DESTROY_ERROR)
    800022f0:	0784a783          	lw	a5,120(s1)
    800022f4:	0027f793          	andi	a5,a5,2
    800022f8:	02079863          	bnez	a5,80002328 <_Z16kmem_cache_errorP12kmem_cache_s+0x60>
        KConsole::trapPrintString("DESTROY ERROR");

    return cachep->errors;
    800022fc:	0784a503          	lw	a0,120(s1)
}
    80002300:	01813083          	ld	ra,24(sp)
    80002304:	01013403          	ld	s0,16(sp)
    80002308:	00813483          	ld	s1,8(sp)
    8000230c:	02010113          	addi	sp,sp,32
    80002310:	00008067          	ret
        KConsole::trapPrintString("EXPAND ERROR\n");
    80002314:	00006517          	auipc	a0,0x6
    80002318:	f4450513          	addi	a0,a0,-188 # 80008258 <CONSOLE_STATUS+0x248>
    8000231c:	00001097          	auipc	ra,0x1
    80002320:	170080e7          	jalr	368(ra) # 8000348c <_ZN8KConsole15trapPrintStringEPKc>
    80002324:	fcdff06f          	j	800022f0 <_Z16kmem_cache_errorP12kmem_cache_s+0x28>
        KConsole::trapPrintString("DESTROY ERROR");
    80002328:	00006517          	auipc	a0,0x6
    8000232c:	f4050513          	addi	a0,a0,-192 # 80008268 <CONSOLE_STATUS+0x258>
    80002330:	00001097          	auipc	ra,0x1
    80002334:	15c080e7          	jalr	348(ra) # 8000348c <_ZN8KConsole15trapPrintStringEPKc>
    80002338:	fc5ff06f          	j	800022fc <_Z16kmem_cache_errorP12kmem_cache_s+0x34>
        return 0;
    8000233c:	00000513          	li	a0,0
}
    80002340:	00008067          	ret

0000000080002344 <_ZN3PCB6runnerEv>:
{
    Scheduler::put(this);
}

void PCB::runner()
{
    80002344:	ff010113          	addi	sp,sp,-16
    80002348:	00113423          	sd	ra,8(sp)
    8000234c:	00813023          	sd	s0,0(sp)
    80002350:	01010413          	addi	s0,sp,16
    Riscv::popSppSpie();
    80002354:	00002097          	auipc	ra,0x2
    80002358:	9c0080e7          	jalr	-1600(ra) # 80003d14 <_ZN5Riscv10popSppSpieEv>
    running->body(running->args);
    8000235c:	00006797          	auipc	a5,0x6
    80002360:	6bc7b783          	ld	a5,1724(a5) # 80008a18 <_ZN3PCB7runningE>
    80002364:	0287b703          	ld	a4,40(a5)
    80002368:	0307b503          	ld	a0,48(a5)
    8000236c:	000700e7          	jalr	a4

    thread_exit_kernel();
    80002370:	fffff097          	auipc	ra,0xfffff
    80002374:	f10080e7          	jalr	-240(ra) # 80001280 <_Z18thread_exit_kernelv>
}
    80002378:	00813083          	ld	ra,8(sp)
    8000237c:	00013403          	ld	s0,0(sp)
    80002380:	01010113          	addi	sp,sp,16
    80002384:	00008067          	ret

0000000080002388 <_ZN3PCBC1EPFvPvES0_S0_m>:
PCB::PCB(Body body, void *args, void* stack_space, uint64 timeSlice) :
    80002388:	ff010113          	addi	sp,sp,-16
    8000238c:	00813423          	sd	s0,8(sp)
    80002390:	01010413          	addi	s0,sp,16
    })
    80002394:	00050023          	sb	zero,0(a0)
    80002398:	00e53c23          	sd	a4,24(a0)
    8000239c:	02053023          	sd	zero,32(a0)
    800023a0:	02b53423          	sd	a1,40(a0)
    800023a4:	02c53823          	sd	a2,48(a0)
    800023a8:	02d53c23          	sd	a3,56(a0)
        (uint64)((char*)stack_space + DEFAULT_STACK_SIZE),
    800023ac:	000017b7          	lui	a5,0x1
    800023b0:	00f686b3          	add	a3,a3,a5
    })
    800023b4:	04d53423          	sd	a3,72(a0)
    800023b8:	00000797          	auipc	a5,0x0
    800023bc:	f8c78793          	addi	a5,a5,-116 # 80002344 <_ZN3PCB6runnerEv>
    800023c0:	04f53823          	sd	a5,80(a0)
    800023c4:	04050c23          	sb	zero,88(a0)
    nextPCB = 0;
    800023c8:	00053423          	sd	zero,8(a0)
}
    800023cc:	00813403          	ld	s0,8(sp)
    800023d0:	01010113          	addi	sp,sp,16
    800023d4:	00008067          	ret

00000000800023d8 <_ZN3PCB5startEv>:
{
    800023d8:	ff010113          	addi	sp,sp,-16
    800023dc:	00113423          	sd	ra,8(sp)
    800023e0:	00813023          	sd	s0,0(sp)
    800023e4:	01010413          	addi	s0,sp,16
    Scheduler::put(this);
    800023e8:	00001097          	auipc	ra,0x1
    800023ec:	35c080e7          	jalr	860(ra) # 80003744 <_ZN9Scheduler3putEP3PCB>
}
    800023f0:	00813083          	ld	ra,8(sp)
    800023f4:	00013403          	ld	s0,0(sp)
    800023f8:	01010113          	addi	sp,sp,16
    800023fc:	00008067          	ret

0000000080002400 <_ZN3PCBnwEm>:
    Riscv::changePrivMode();

    PCB::contextSwitch(&old->context, &running->context);
}

void *PCB::operator new(size_t size) {
    80002400:	ff010113          	addi	sp,sp,-16
    80002404:	00113423          	sd	ra,8(sp)
    80002408:	00813023          	sd	s0,0(sp)
    8000240c:	01010413          	addi	s0,sp,16
    return kmem_cache_alloc(Riscv::pcbCache);
    80002410:	00006797          	auipc	a5,0x6
    80002414:	5a07b783          	ld	a5,1440(a5) # 800089b0 <_GLOBAL_OFFSET_TABLE_+0xa8>
    80002418:	0007b503          	ld	a0,0(a5)
    8000241c:	fffff097          	auipc	ra,0xfffff
    80002420:	7fc080e7          	jalr	2044(ra) # 80001c18 <_Z16kmem_cache_allocP12kmem_cache_s>
    //return MemoryAllocator::kmalloc(size);
}
    80002424:	00813083          	ld	ra,8(sp)
    80002428:	00013403          	ld	s0,0(sp)
    8000242c:	01010113          	addi	sp,sp,16
    80002430:	00008067          	ret

0000000080002434 <_ZN3PCBdlEPv>:

void PCB::operator delete(void *p) {
    80002434:	ff010113          	addi	sp,sp,-16
    80002438:	00113423          	sd	ra,8(sp)
    8000243c:	00813023          	sd	s0,0(sp)
    80002440:	01010413          	addi	s0,sp,16
    80002444:	00050593          	mv	a1,a0
    kmem_cache_free(Riscv::pcbCache, p);
    80002448:	00006797          	auipc	a5,0x6
    8000244c:	5687b783          	ld	a5,1384(a5) # 800089b0 <_GLOBAL_OFFSET_TABLE_+0xa8>
    80002450:	0007b503          	ld	a0,0(a5)
    80002454:	00000097          	auipc	ra,0x0
    80002458:	9a0080e7          	jalr	-1632(ra) # 80001df4 <_Z15kmem_cache_freeP12kmem_cache_sPv>
    //MemoryAllocator::kfree(p);
}
    8000245c:	00813083          	ld	ra,8(sp)
    80002460:	00013403          	ld	s0,0(sp)
    80002464:	01010113          	addi	sp,sp,16
    80002468:	00008067          	ret

000000008000246c <_ZN3PCBD1Ev>:

PCB::~PCB()
    8000246c:	ff010113          	addi	sp,sp,-16
    80002470:	00113423          	sd	ra,8(sp)
    80002474:	00813023          	sd	s0,0(sp)
    80002478:	01010413          	addi	s0,sp,16
{
    MemoryAllocator::kfree(beginSP);
    8000247c:	03853503          	ld	a0,56(a0)
    80002480:	00002097          	auipc	ra,0x2
    80002484:	600080e7          	jalr	1536(ra) # 80004a80 <_ZN15MemoryAllocator5kfreeEPv>
}
    80002488:	00813083          	ld	ra,8(sp)
    8000248c:	00013403          	ld	s0,0(sp)
    80002490:	01010113          	addi	sp,sp,16
    80002494:	00008067          	ret

0000000080002498 <_ZN3PCB8dispatchEv>:
{
    80002498:	fe010113          	addi	sp,sp,-32
    8000249c:	00113c23          	sd	ra,24(sp)
    800024a0:	00813823          	sd	s0,16(sp)
    800024a4:	00913423          	sd	s1,8(sp)
    800024a8:	01213023          	sd	s2,0(sp)
    800024ac:	02010413          	addi	s0,sp,32
    PCB* old = running;
    800024b0:	00006497          	auipc	s1,0x6
    800024b4:	5684b483          	ld	s1,1384(s1) # 80008a18 <_ZN3PCB7runningE>

    void* operator new(size_t size);
    void operator delete(void *p);

    enum State{READY, RUNNING, SUSPENDED, FINISHED, EXITING, SLEEPING};
    State getState() {return state;}
    800024b8:	0404a783          	lw	a5,64(s1)
    if(old->getState() == PCB::RUNNING)
    800024bc:	00100713          	li	a4,1
    800024c0:	04e78e63          	beq	a5,a4,8000251c <_ZN3PCB8dispatchEv+0x84>
    else if(old->getState() == PCB::FINISHED) // TODO test it
    800024c4:	00300713          	li	a4,3
    800024c8:	06e78263          	beq	a5,a4,8000252c <_ZN3PCB8dispatchEv+0x94>
    PCB::running = Scheduler::get();
    800024cc:	00001097          	auipc	ra,0x1
    800024d0:	2cc080e7          	jalr	716(ra) # 80003798 <_ZN9Scheduler3getEv>
    800024d4:	00006917          	auipc	s2,0x6
    800024d8:	54490913          	addi	s2,s2,1348 # 80008a18 <_ZN3PCB7runningE>
    800024dc:	00a93023          	sd	a0,0(s2)
    void setState(State s) {state = s;}
    800024e0:	00100793          	li	a5,1
    800024e4:	04f52023          	sw	a5,64(a0)
    Riscv::changePrivMode();
    800024e8:	00002097          	auipc	ra,0x2
    800024ec:	e2c080e7          	jalr	-468(ra) # 80004314 <_ZN5Riscv14changePrivModeEv>
    PCB::contextSwitch(&old->context, &running->context);
    800024f0:	00093583          	ld	a1,0(s2)
    800024f4:	04858593          	addi	a1,a1,72
    800024f8:	04848513          	addi	a0,s1,72
    800024fc:	fffff097          	auipc	ra,0xfffff
    80002500:	d1c080e7          	jalr	-740(ra) # 80001218 <_ZN3PCB13contextSwitchEPNS_7ContextES1_>
}
    80002504:	01813083          	ld	ra,24(sp)
    80002508:	01013403          	ld	s0,16(sp)
    8000250c:	00813483          	ld	s1,8(sp)
    80002510:	00013903          	ld	s2,0(sp)
    80002514:	02010113          	addi	sp,sp,32
    80002518:	00008067          	ret
        Scheduler::put(old);
    8000251c:	00048513          	mv	a0,s1
    80002520:	00001097          	auipc	ra,0x1
    80002524:	224080e7          	jalr	548(ra) # 80003744 <_ZN9Scheduler3putEP3PCB>
    80002528:	fa5ff06f          	j	800024cc <_ZN3PCB8dispatchEv+0x34>
        delete old;
    8000252c:	fa0480e3          	beqz	s1,800024cc <_ZN3PCB8dispatchEv+0x34>
    80002530:	00048513          	mv	a0,s1
    80002534:	00000097          	auipc	ra,0x0
    80002538:	f38080e7          	jalr	-200(ra) # 8000246c <_ZN3PCBD1Ev>
    8000253c:	00048513          	mv	a0,s1
    80002540:	00000097          	auipc	ra,0x0
    80002544:	ef4080e7          	jalr	-268(ra) # 80002434 <_ZN3PCBdlEPv>
    80002548:	f85ff06f          	j	800024cc <_ZN3PCB8dispatchEv+0x34>

000000008000254c <_ZN3PCB10initializeEv>:

void PCB::initialize()
{
    8000254c:	fe010113          	addi	sp,sp,-32
    80002550:	00113c23          	sd	ra,24(sp)
    80002554:	00813823          	sd	s0,16(sp)
    80002558:	00913423          	sd	s1,8(sp)
    8000255c:	01213023          	sd	s2,0(sp)
    80002560:	02010413          	addi	s0,sp,32
    PCB* mainSystem = new PCB(0, 0, 0, 0);
    80002564:	06000513          	li	a0,96
    80002568:	00000097          	auipc	ra,0x0
    8000256c:	e98080e7          	jalr	-360(ra) # 80002400 <_ZN3PCBnwEm>
    80002570:	00050493          	mv	s1,a0
    80002574:	00050e63          	beqz	a0,80002590 <_ZN3PCB10initializeEv+0x44>
    80002578:	00000713          	li	a4,0
    8000257c:	00000693          	li	a3,0
    80002580:	00000613          	li	a2,0
    80002584:	00000593          	li	a1,0
    80002588:	00000097          	auipc	ra,0x0
    8000258c:	e00080e7          	jalr	-512(ra) # 80002388 <_ZN3PCBC1EPFvPvES0_S0_m>
    mainSystem->systemThread = true;
    80002590:	00100793          	li	a5,1
    80002594:	00f48023          	sb	a5,0(s1)
    PCB::running = mainSystem;
    80002598:	00006797          	auipc	a5,0x6
    8000259c:	4897b023          	sd	s1,1152(a5) # 80008a18 <_ZN3PCB7runningE>
    800025a0:	00100793          	li	a5,1
    800025a4:	04f4a023          	sw	a5,64(s1)
    PCB::running->setState(PCB::RUNNING);
    PCB::consolePCB = new PCB(&KConsole::sendCharactersToConsole, 0,
                              kmalloc(DEFAULT_STACK_SIZE),
    800025a8:	00001537          	lui	a0,0x1
    800025ac:	00000097          	auipc	ra,0x0
    800025b0:	af0080e7          	jalr	-1296(ra) # 8000209c <_Z7kmallocm>
    800025b4:	00050913          	mv	s2,a0
//                              MemoryAllocator::kmalloc(DEFAULT_STACK_SIZE),
                              DEFAULT_TIME_SLICE);
    800025b8:	06000513          	li	a0,96
    800025bc:	00000097          	auipc	ra,0x0
    800025c0:	e44080e7          	jalr	-444(ra) # 80002400 <_ZN3PCBnwEm>
    800025c4:	00050493          	mv	s1,a0
    800025c8:	02050063          	beqz	a0,800025e8 <_ZN3PCB10initializeEv+0x9c>
    800025cc:	00200713          	li	a4,2
    800025d0:	00090693          	mv	a3,s2
    800025d4:	00000613          	li	a2,0
    800025d8:	00006597          	auipc	a1,0x6
    800025dc:	3985b583          	ld	a1,920(a1) # 80008970 <_GLOBAL_OFFSET_TABLE_+0x68>
    800025e0:	00000097          	auipc	ra,0x0
    800025e4:	da8080e7          	jalr	-600(ra) # 80002388 <_ZN3PCBC1EPFvPvES0_S0_m>
    PCB::consolePCB = new PCB(&KConsole::sendCharactersToConsole, 0,
    800025e8:	00006797          	auipc	a5,0x6
    800025ec:	43078793          	addi	a5,a5,1072 # 80008a18 <_ZN3PCB7runningE>
    800025f0:	0097b423          	sd	s1,8(a5)
    PCB::consolePCB->systemThread = true;
    800025f4:	00100713          	li	a4,1
    800025f8:	00e48023          	sb	a4,0(s1)
    PCB::consolePCB->start();
    800025fc:	0087b503          	ld	a0,8(a5)
    80002600:	00000097          	auipc	ra,0x0
    80002604:	dd8080e7          	jalr	-552(ra) # 800023d8 <_ZN3PCB5startEv>
    PCB::userPCB = new PCB(&PCBWrapperUser::userMainWrapper, 0,
//                           kmalloc(DEFAULT_STACK_SIZE),
                           MemoryAllocator::kmalloc(DEFAULT_STACK_SIZE),
    80002608:	00001537          	lui	a0,0x1
    8000260c:	00002097          	auipc	ra,0x2
    80002610:	404080e7          	jalr	1028(ra) # 80004a10 <_ZN15MemoryAllocator7kmallocEm>
    80002614:	00050913          	mv	s2,a0
                           DEFAULT_TIME_SLICE);
    80002618:	06000513          	li	a0,96
    8000261c:	00000097          	auipc	ra,0x0
    80002620:	de4080e7          	jalr	-540(ra) # 80002400 <_ZN3PCBnwEm>
    80002624:	00050493          	mv	s1,a0
    80002628:	02050063          	beqz	a0,80002648 <_ZN3PCB10initializeEv+0xfc>
    8000262c:	00200713          	li	a4,2
    80002630:	00090693          	mv	a3,s2
    80002634:	00000613          	li	a2,0
    80002638:	00006597          	auipc	a1,0x6
    8000263c:	3405b583          	ld	a1,832(a1) # 80008978 <_GLOBAL_OFFSET_TABLE_+0x70>
    80002640:	00000097          	auipc	ra,0x0
    80002644:	d48080e7          	jalr	-696(ra) # 80002388 <_ZN3PCBC1EPFvPvES0_S0_m>
    PCB::userPCB = new PCB(&PCBWrapperUser::userMainWrapper, 0,
    80002648:	00006797          	auipc	a5,0x6
    8000264c:	3e97b023          	sd	s1,992(a5) # 80008a28 <_ZN3PCB7userPCBE>
    PCB::userPCB->start();
    80002650:	00048513          	mv	a0,s1
    80002654:	00000097          	auipc	ra,0x0
    80002658:	d84080e7          	jalr	-636(ra) # 800023d8 <_ZN3PCB5startEv>
}
    8000265c:	01813083          	ld	ra,24(sp)
    80002660:	01013403          	ld	s0,16(sp)
    80002664:	00813483          	ld	s1,8(sp)
    80002668:	00013903          	ld	s2,0(sp)
    8000266c:	02010113          	addi	sp,sp,32
    80002670:	00008067          	ret

0000000080002674 <_ZN3PCB10isFinishedEv>:

bool PCB::isFinished()
{
    80002674:	ff010113          	addi	sp,sp,-16
    80002678:	00813423          	sd	s0,8(sp)
    8000267c:	01010413          	addi	s0,sp,16
    return state == PCB::FINISHED;
    80002680:	04052503          	lw	a0,64(a0) # 1040 <_entry-0x7fffefc0>
    80002684:	ffd50513          	addi	a0,a0,-3
}
    80002688:	00153513          	seqz	a0,a0
    8000268c:	00813403          	ld	s0,8(sp)
    80002690:	01010113          	addi	sp,sp,16
    80002694:	00008067          	ret

0000000080002698 <_ZN3PCB17threadExitHandlerEv>:

void PCB::threadExitHandler()
{
    80002698:	ff010113          	addi	sp,sp,-16
    8000269c:	00113423          	sd	ra,8(sp)
    800026a0:	00813023          	sd	s0,0(sp)
    800026a4:	01010413          	addi	s0,sp,16
    PCB::timeSliceCounter = 0;
    800026a8:	00006797          	auipc	a5,0x6
    800026ac:	37078793          	addi	a5,a5,880 # 80008a18 <_ZN3PCB7runningE>
    800026b0:	0007bc23          	sd	zero,24(a5)
    PCB::running->setState(PCB::FINISHED);
    800026b4:	0007b783          	ld	a5,0(a5)
    800026b8:	00300713          	li	a4,3
    800026bc:	04e7a023          	sw	a4,64(a5)
    PCB::dispatch();
    800026c0:	00000097          	auipc	ra,0x0
    800026c4:	dd8080e7          	jalr	-552(ra) # 80002498 <_ZN3PCB8dispatchEv>
    __asm__ volatile("li a0, 0");
    800026c8:	00000513          	li	a0,0
    Riscv::w_a0_sscratch();
    800026cc:	00002097          	auipc	ra,0x2
    800026d0:	c10080e7          	jalr	-1008(ra) # 800042dc <_ZN5Riscv13w_a0_sscratchEv>
}
    800026d4:	00813083          	ld	ra,8(sp)
    800026d8:	00013403          	ld	s0,0(sp)
    800026dc:	01010113          	addi	sp,sp,16
    800026e0:	00008067          	ret

00000000800026e4 <_ZN3PCB21threadDispatchHandlerEv>:

void PCB::threadDispatchHandler()
{
    800026e4:	ff010113          	addi	sp,sp,-16
    800026e8:	00113423          	sd	ra,8(sp)
    800026ec:	00813023          	sd	s0,0(sp)
    800026f0:	01010413          	addi	s0,sp,16
    PCB::timeSliceCounter = 0;
    800026f4:	00006797          	auipc	a5,0x6
    800026f8:	3207be23          	sd	zero,828(a5) # 80008a30 <_ZN3PCB16timeSliceCounterE>
    PCB::dispatch();
    800026fc:	00000097          	auipc	ra,0x0
    80002700:	d9c080e7          	jalr	-612(ra) # 80002498 <_ZN3PCB8dispatchEv>
}
    80002704:	00813083          	ld	ra,8(sp)
    80002708:	00013403          	ld	s0,0(sp)
    8000270c:	01010113          	addi	sp,sp,16
    80002710:	00008067          	ret

0000000080002714 <_ZN3PCB18threadSleepHandlerEv>:

void PCB::threadSleepHandler()
{
    80002714:	ff010113          	addi	sp,sp,-16
    80002718:	00113423          	sd	ra,8(sp)
    8000271c:	00813023          	sd	s0,0(sp)
    80002720:	01010413          	addi	s0,sp,16
    uint64 time;
    __asm__ volatile("mv %0, a1" : "=r"(time));
    80002724:	00058793          	mv	a5,a1
    PCB::timeSliceCounter = 0;
    80002728:	00006717          	auipc	a4,0x6
    8000272c:	2f070713          	addi	a4,a4,752 # 80008a18 <_ZN3PCB7runningE>
    80002730:	00073c23          	sd	zero,24(a4)
    PCB::running->setTimeToSleep(time + Riscv::totalTime);
    80002734:	00073703          	ld	a4,0(a4)
    80002738:	00006697          	auipc	a3,0x6
    8000273c:	2306b683          	ld	a3,560(a3) # 80008968 <_GLOBAL_OFFSET_TABLE_+0x60>
    80002740:	0006b683          	ld	a3,0(a3)
    80002744:	00d787b3          	add	a5,a5,a3
    void setTimeToSleep(uint64 time) {timeToSleep = time;}
    80002748:	02f73023          	sd	a5,32(a4)
    SleepPCBList::insertSleepingPCB();
    8000274c:	00001097          	auipc	ra,0x1
    80002750:	e7c080e7          	jalr	-388(ra) # 800035c8 <_ZN12SleepPCBList17insertSleepingPCBEv>
    PCB::dispatch();
    80002754:	00000097          	auipc	ra,0x0
    80002758:	d44080e7          	jalr	-700(ra) # 80002498 <_ZN3PCB8dispatchEv>
    __asm__ volatile("li a0, 0x0");
    8000275c:	00000513          	li	a0,0
    Riscv::w_a0_sscratch();
    80002760:	00002097          	auipc	ra,0x2
    80002764:	b7c080e7          	jalr	-1156(ra) # 800042dc <_ZN5Riscv13w_a0_sscratchEv>
}
    80002768:	00813083          	ld	ra,8(sp)
    8000276c:	00013403          	ld	s0,0(sp)
    80002770:	01010113          	addi	sp,sp,16
    80002774:	00008067          	ret

0000000080002778 <_ZN3PCB19threadCreateHandlerEv>:

void PCB::threadCreateHandler()
{
    80002778:	fd010113          	addi	sp,sp,-48
    8000277c:	02113423          	sd	ra,40(sp)
    80002780:	02813023          	sd	s0,32(sp)
    80002784:	00913c23          	sd	s1,24(sp)
    80002788:	01213823          	sd	s2,16(sp)
    8000278c:	01313423          	sd	s3,8(sp)
    80002790:	01413023          	sd	s4,0(sp)
    80002794:	03010413          	addi	s0,sp,48
    uint64 start_routine;
    uint64 args;
    PCB **threadHandle;
    __asm__ volatile("mv %0, a1" : "=r"(threadHandle));
    80002798:	00058913          	mv	s2,a1
    __asm__ volatile("mv %0, a2" : "=r"(start_routine));
    8000279c:	00060993          	mv	s3,a2
    __asm__ volatile("mv %0, a3" : "=r"(args));
    800027a0:	00068a13          	mv	s4,a3

    PCB *newPCB = new PCB((void (*)(void *)) start_routine, (void *) args,
                          //stack_space,
                          (void *) PCB::savedRegA4,
                          DEFAULT_TIME_SLICE);
    800027a4:	06000513          	li	a0,96
    800027a8:	00000097          	auipc	ra,0x0
    800027ac:	c58080e7          	jalr	-936(ra) # 80002400 <_ZN3PCBnwEm>
    800027b0:	00050493          	mv	s1,a0
    800027b4:	02050063          	beqz	a0,800027d4 <_ZN3PCB19threadCreateHandlerEv+0x5c>
    800027b8:	00200713          	li	a4,2
    800027bc:	00006697          	auipc	a3,0x6
    800027c0:	27c6b683          	ld	a3,636(a3) # 80008a38 <_ZN3PCB10savedRegA4E>
    800027c4:	000a0613          	mv	a2,s4
    800027c8:	00098593          	mv	a1,s3
    800027cc:	00000097          	auipc	ra,0x0
    800027d0:	bbc080e7          	jalr	-1092(ra) # 80002388 <_ZN3PCBC1EPFvPvES0_S0_m>

    (*threadHandle) = newPCB;
    800027d4:	00993023          	sd	s1,0(s2)

    if (newPCB == nullptr) {
    800027d8:	02048e63          	beqz	s1,80002814 <_ZN3PCB19threadCreateHandlerEv+0x9c>
        __asm__ volatile("li a0, 0x01");
    }
    else
    {
        newPCB->start();
    800027dc:	00048513          	mv	a0,s1
    800027e0:	00000097          	auipc	ra,0x0
    800027e4:	bf8080e7          	jalr	-1032(ra) # 800023d8 <_ZN3PCB5startEv>
        __asm__ volatile("li a0, 0");
    800027e8:	00000513          	li	a0,0
    }
    Riscv::w_a0_sscratch();
    800027ec:	00002097          	auipc	ra,0x2
    800027f0:	af0080e7          	jalr	-1296(ra) # 800042dc <_ZN5Riscv13w_a0_sscratchEv>
}
    800027f4:	02813083          	ld	ra,40(sp)
    800027f8:	02013403          	ld	s0,32(sp)
    800027fc:	01813483          	ld	s1,24(sp)
    80002800:	01013903          	ld	s2,16(sp)
    80002804:	00813983          	ld	s3,8(sp)
    80002808:	00013a03          	ld	s4,0(sp)
    8000280c:	03010113          	addi	sp,sp,48
    80002810:	00008067          	ret
        __asm__ volatile("li a0, 0x01");
    80002814:	00100513          	li	a0,1
    80002818:	fd5ff06f          	j	800027ec <_ZN3PCB19threadCreateHandlerEv+0x74>

000000008000281c <_ZN3PCB18threadStartHandlerEv>:

void PCB::threadStartHandler()
{
    8000281c:	ff010113          	addi	sp,sp,-16
    80002820:	00113423          	sd	ra,8(sp)
    80002824:	00813023          	sd	s0,0(sp)
    80002828:	01010413          	addi	s0,sp,16
    PCB* pcb;
    __asm__ volatile("mv %0, a1" : "=r"(pcb));
    8000282c:	00058513          	mv	a0,a1
    if(pcb != nullptr)
    80002830:	02050463          	beqz	a0,80002858 <_ZN3PCB18threadStartHandlerEv+0x3c>
    {
        pcb->start();
    80002834:	00000097          	auipc	ra,0x0
    80002838:	ba4080e7          	jalr	-1116(ra) # 800023d8 <_ZN3PCB5startEv>
        __asm__ volatile("li a0, 0");
    8000283c:	00000513          	li	a0,0
    }
    else
    {
        __asm__ volatile("li a0, 0x01");
    }
    Riscv::w_a0_sscratch();
    80002840:	00002097          	auipc	ra,0x2
    80002844:	a9c080e7          	jalr	-1380(ra) # 800042dc <_ZN5Riscv13w_a0_sscratchEv>
}
    80002848:	00813083          	ld	ra,8(sp)
    8000284c:	00013403          	ld	s0,0(sp)
    80002850:	01010113          	addi	sp,sp,16
    80002854:	00008067          	ret
        __asm__ volatile("li a0, 0x01");
    80002858:	00100513          	li	a0,1
    8000285c:	fe5ff06f          	j	80002840 <_ZN3PCB18threadStartHandlerEv+0x24>

0000000080002860 <_ZN3PCB20threadMakePCBHandlerEv>:

void PCB::threadMakePCBHandler()
{
    80002860:	fd010113          	addi	sp,sp,-48
    80002864:	02113423          	sd	ra,40(sp)
    80002868:	02813023          	sd	s0,32(sp)
    8000286c:	00913c23          	sd	s1,24(sp)
    80002870:	01213823          	sd	s2,16(sp)
    80002874:	01313423          	sd	s3,8(sp)
    80002878:	01413023          	sd	s4,0(sp)
    8000287c:	03010413          	addi	s0,sp,48
    uint64 start_routine;
    uint64 args;
    PCB **threadHandle;
    __asm__ volatile("mv %0, a1" : "=r"(threadHandle));
    80002880:	00058913          	mv	s2,a1
    __asm__ volatile("mv %0, a2" : "=r"(start_routine));
    80002884:	00060993          	mv	s3,a2
    __asm__ volatile("mv %0, a3" : "=r"(args));
    80002888:	00068a13          	mv	s4,a3

    PCB *newPCB = new PCB((void (*)(void *)) start_routine, (void *) args,
                          //stack_space,
                          (void *) PCB::savedRegA4,
                          DEFAULT_TIME_SLICE);
    8000288c:	06000513          	li	a0,96
    80002890:	00000097          	auipc	ra,0x0
    80002894:	b70080e7          	jalr	-1168(ra) # 80002400 <_ZN3PCBnwEm>
    80002898:	00050493          	mv	s1,a0
    8000289c:	02050063          	beqz	a0,800028bc <_ZN3PCB20threadMakePCBHandlerEv+0x5c>
    800028a0:	00200713          	li	a4,2
    800028a4:	00006697          	auipc	a3,0x6
    800028a8:	1946b683          	ld	a3,404(a3) # 80008a38 <_ZN3PCB10savedRegA4E>
    800028ac:	000a0613          	mv	a2,s4
    800028b0:	00098593          	mv	a1,s3
    800028b4:	00000097          	auipc	ra,0x0
    800028b8:	ad4080e7          	jalr	-1324(ra) # 80002388 <_ZN3PCBC1EPFvPvES0_S0_m>

    (*threadHandle) = newPCB;
    800028bc:	00993023          	sd	s1,0(s2)

    if (newPCB == nullptr)
    800028c0:	02048863          	beqz	s1,800028f0 <_ZN3PCB20threadMakePCBHandlerEv+0x90>
    {
        __asm__ volatile("li a0, 0x01");
    }
    else
        __asm__ volatile("li a0, 0");
    800028c4:	00000513          	li	a0,0
    Riscv::w_a0_sscratch();
    800028c8:	00002097          	auipc	ra,0x2
    800028cc:	a14080e7          	jalr	-1516(ra) # 800042dc <_ZN5Riscv13w_a0_sscratchEv>
}
    800028d0:	02813083          	ld	ra,40(sp)
    800028d4:	02013403          	ld	s0,32(sp)
    800028d8:	01813483          	ld	s1,24(sp)
    800028dc:	01013903          	ld	s2,16(sp)
    800028e0:	00813983          	ld	s3,8(sp)
    800028e4:	00013a03          	ld	s4,0(sp)
    800028e8:	03010113          	addi	sp,sp,48
    800028ec:	00008067          	ret
        __asm__ volatile("li a0, 0x01");
    800028f0:	00100513          	li	a0,1
    800028f4:	fd5ff06f          	j	800028c8 <_ZN3PCB20threadMakePCBHandlerEv+0x68>

00000000800028f8 <_ZN3PCB19threadDelPCBHandlerEv>:

void PCB::threadDelPCBHandler()
{
    800028f8:	fe010113          	addi	sp,sp,-32
    800028fc:	00113c23          	sd	ra,24(sp)
    80002900:	00813823          	sd	s0,16(sp)
    80002904:	00913423          	sd	s1,8(sp)
    80002908:	02010413          	addi	s0,sp,32
    PCB* pcb;
    __asm__ volatile("mv %0, a1" : "=r"(pcb));
    8000290c:	00058493          	mv	s1,a1
    if(pcb != nullptr)
    80002910:	02048e63          	beqz	s1,8000294c <_ZN3PCB19threadDelPCBHandlerEv+0x54>
    {
        delete pcb;
    80002914:	00048513          	mv	a0,s1
    80002918:	00000097          	auipc	ra,0x0
    8000291c:	b54080e7          	jalr	-1196(ra) # 8000246c <_ZN3PCBD1Ev>
    80002920:	00048513          	mv	a0,s1
    80002924:	00000097          	auipc	ra,0x0
    80002928:	b10080e7          	jalr	-1264(ra) # 80002434 <_ZN3PCBdlEPv>
        __asm__ volatile("li a0, 0x0");
    8000292c:	00000513          	li	a0,0
    }
    else
    {
        __asm__ volatile("li a0, 0x1");
    }
    Riscv::w_a0_sscratch();
    80002930:	00002097          	auipc	ra,0x2
    80002934:	9ac080e7          	jalr	-1620(ra) # 800042dc <_ZN5Riscv13w_a0_sscratchEv>
}
    80002938:	01813083          	ld	ra,24(sp)
    8000293c:	01013403          	ld	s0,16(sp)
    80002940:	00813483          	ld	s1,8(sp)
    80002944:	02010113          	addi	sp,sp,32
    80002948:	00008067          	ret
        __asm__ volatile("li a0, 0x1");
    8000294c:	00100513          	li	a0,1
    80002950:	fe1ff06f          	j	80002930 <_ZN3PCB19threadDelPCBHandlerEv+0x38>

0000000080002954 <_Z12getBlockAddrm>:
    addBlocks(buddy, addr, level); //adds free blocks
    buddy->numOfFreeBlocks += (1 << level);
}

size_t getBlockAddr(size_t addr)
{
    80002954:	ff010113          	addi	sp,sp,-16
    80002958:	00813423          	sd	s0,8(sp)
    8000295c:	01010413          	addi	s0,sp,16
    size_t mask = ((size_t)-1) << BLOCK_SIZE_POWER_2;
    return addr & mask;
}
    80002960:	fffff7b7          	lui	a5,0xfffff
    80002964:	00f57533          	and	a0,a0,a5
    80002968:	00813403          	ld	s0,8(sp)
    8000296c:	01010113          	addi	sp,sp,16
    80002970:	00008067          	ret

0000000080002974 <_Z16getNextBlockAddrm>:
size_t getNextBlockAddr(size_t addr)
{
    80002974:	ff010113          	addi	sp,sp,-16
    80002978:	00113423          	sd	ra,8(sp)
    8000297c:	00813023          	sd	s0,0(sp)
    80002980:	01010413          	addi	s0,sp,16
    size_t currBlock = getBlockAddr(addr);
    80002984:	00000097          	auipc	ra,0x0
    80002988:	fd0080e7          	jalr	-48(ra) # 80002954 <_Z12getBlockAddrm>
    return currBlock + BLOCK_SIZE;
}
    8000298c:	000017b7          	lui	a5,0x1
    80002990:	00f50533          	add	a0,a0,a5
    80002994:	00813083          	ld	ra,8(sp)
    80002998:	00013403          	ld	s0,0(sp)
    8000299c:	01010113          	addi	sp,sp,16
    800029a0:	00008067          	ret

00000000800029a4 <_Z12getDeg2Floorm>:

size_t getDeg2Floor(size_t num)
{
    800029a4:	ff010113          	addi	sp,sp,-16
    800029a8:	00813423          	sd	s0,8(sp)
    800029ac:	01010413          	addi	s0,sp,16
    size_t x = 1;
    size_t deg = 0;
    800029b0:	00000713          	li	a4,0
    size_t x = 1;
    800029b4:	00100793          	li	a5,1
    while(x <= num)
    800029b8:	00f56863          	bltu	a0,a5,800029c8 <_Z12getDeg2Floorm+0x24>
    {
        deg++;
    800029bc:	00170713          	addi	a4,a4,1
        x<<=1;
    800029c0:	00179793          	slli	a5,a5,0x1
    while(x <= num)
    800029c4:	ff5ff06f          	j	800029b8 <_Z12getDeg2Floorm+0x14>
    }
    return deg - 1;
}
    800029c8:	fff70513          	addi	a0,a4,-1
    800029cc:	00813403          	ld	s0,8(sp)
    800029d0:	01010113          	addi	sp,sp,16
    800029d4:	00008067          	ret

00000000800029d8 <_Z11getDeg2Ceilm>:

size_t getDeg2Ceil(size_t num)
{
    800029d8:	ff010113          	addi	sp,sp,-16
    800029dc:	00813423          	sd	s0,8(sp)
    800029e0:	01010413          	addi	s0,sp,16
    800029e4:	00050713          	mv	a4,a0
    size_t x = 1;
    size_t deg = 0;
    800029e8:	00000513          	li	a0,0
    size_t x = 1;
    800029ec:	00100793          	li	a5,1
    while(x < num)
    800029f0:	00e7f863          	bgeu	a5,a4,80002a00 <_Z11getDeg2Ceilm+0x28>
    {
        deg++;
    800029f4:	00150513          	addi	a0,a0,1
        x<<=1;
    800029f8:	00179793          	slli	a5,a5,0x1
    while(x < num)
    800029fc:	ff5ff06f          	j	800029f0 <_Z11getDeg2Ceilm+0x18>
    }
    return deg;
}
    80002a00:	00813403          	ld	s0,8(sp)
    80002a04:	01010113          	addi	sp,sp,16
    80002a08:	00008067          	ret

0000000080002a0c <_Z15addBlockToLevelP14buddyAllocatorPvm>:
    addBlockToLevel(buddy, addr, level);
}

//adds free block to level
void addBlockToLevel(buddyAllocator* buddy, void* addr, size_t level)
{
    80002a0c:	ff010113          	addi	sp,sp,-16
    80002a10:	00813423          	sd	s0,8(sp)
    80002a14:	01010413          	addi	s0,sp,16
    buddyBlock* newBlock = (buddyBlock*)addr;
    newBlock->next = nullptr;
    80002a18:	0005b023          	sd	zero,0(a1)
    if(buddy->bucket[level].first == nullptr)
    80002a1c:	00260793          	addi	a5,a2,2
    80002a20:	00479793          	slli	a5,a5,0x4
    80002a24:	00f507b3          	add	a5,a0,a5
    80002a28:	0007b783          	ld	a5,0(a5) # 1000 <_entry-0x7ffff000>
    80002a2c:	02078463          	beqz	a5,80002a54 <_Z15addBlockToLevelP14buddyAllocatorPvm+0x48>
    {
        buddy->bucket[level].first = buddy->bucket[level].last = newBlock;
    }
    else
    {
        buddy->bucket[level].last->next = newBlock;
    80002a30:	00260613          	addi	a2,a2,2
    80002a34:	00461613          	slli	a2,a2,0x4
    80002a38:	00c50633          	add	a2,a0,a2
    80002a3c:	00863783          	ld	a5,8(a2)
    80002a40:	00b7b023          	sd	a1,0(a5)
        buddy->bucket[level].last = newBlock;
    80002a44:	00b63423          	sd	a1,8(a2)
    }
}
    80002a48:	00813403          	ld	s0,8(sp)
    80002a4c:	01010113          	addi	sp,sp,16
    80002a50:	00008067          	ret
        buddy->bucket[level].first = buddy->bucket[level].last = newBlock;
    80002a54:	00260613          	addi	a2,a2,2
    80002a58:	00461613          	slli	a2,a2,0x4
    80002a5c:	00c50633          	add	a2,a0,a2
    80002a60:	00b63423          	sd	a1,8(a2)
    80002a64:	00b63023          	sd	a1,0(a2)
    80002a68:	fe1ff06f          	j	80002a48 <_Z15addBlockToLevelP14buddyAllocatorPvm+0x3c>

0000000080002a6c <_Z17getBuddyBlockAddrP14buddyAllocatorPvm>:

size_t getBuddyBlockAddr(buddyAllocator* buddy, void* addr, size_t level)
{
    80002a6c:	ff010113          	addi	sp,sp,-16
    80002a70:	00813423          	sd	s0,8(sp)
    80002a74:	01010413          	addi	s0,sp,16
    size_t diff = BLOCK_SIZE << level;
    80002a78:	000017b7          	lui	a5,0x1
    80002a7c:	00c7963b          	sllw	a2,a5,a2
    size_t off = (size_t)addr - (size_t)buddy->startAddr;
    80002a80:	00853783          	ld	a5,8(a0)
    80002a84:	40f587b3          	sub	a5,a1,a5
    if(diff & off)
    80002a88:	00f677b3          	and	a5,a2,a5
    80002a8c:	00078a63          	beqz	a5,80002aa0 <_Z17getBuddyBlockAddrP14buddyAllocatorPvm+0x34>
        return (size_t)addr - diff;
    80002a90:	40c58533          	sub	a0,a1,a2
    else
        return (size_t)addr + diff;
}
    80002a94:	00813403          	ld	s0,8(sp)
    80002a98:	01010113          	addi	sp,sp,16
    80002a9c:	00008067          	ret
        return (size_t)addr + diff;
    80002aa0:	00c58533          	add	a0,a1,a2
    80002aa4:	ff1ff06f          	j	80002a94 <_Z17getBuddyBlockAddrP14buddyAllocatorPvm+0x28>

0000000080002aa8 <_Z5splitP14buddyAllocatorPvmmb>:
{
    80002aa8:	fd010113          	addi	sp,sp,-48
    80002aac:	02113423          	sd	ra,40(sp)
    80002ab0:	02813023          	sd	s0,32(sp)
    80002ab4:	00913c23          	sd	s1,24(sp)
    80002ab8:	01213823          	sd	s2,16(sp)
    80002abc:	01313423          	sd	s3,8(sp)
    80002ac0:	01413023          	sd	s4,0(sp)
    80002ac4:	03010413          	addi	s0,sp,48
    80002ac8:	00050913          	mv	s2,a0
    80002acc:	00058a13          	mv	s4,a1
    if(!splitMore)
    80002ad0:	06070a63          	beqz	a4,80002b44 <_Z5splitP14buddyAllocatorPvmmb+0x9c>
    80002ad4:	00060993          	mv	s3,a2
        if(currLevel == finalLevel)
    80002ad8:	04c68663          	beq	a3,a2,80002b24 <_Z5splitP14buddyAllocatorPvmmb+0x7c>
        size_t buddyBlock = getBuddyBlockAddr(buddy, addr, currLevel - 1); // currLevel - 1 for next step
    80002adc:	fff68493          	addi	s1,a3,-1
    80002ae0:	00048613          	mv	a2,s1
    80002ae4:	00000097          	auipc	ra,0x0
    80002ae8:	f88080e7          	jalr	-120(ra) # 80002a6c <_Z17getBuddyBlockAddrP14buddyAllocatorPvm>
    80002aec:	00050593          	mv	a1,a0
        split(buddy, (void*)buddyBlock, finalLevel, currLevel - 1, false); // continue splitting
    80002af0:	00000713          	li	a4,0
    80002af4:	00048693          	mv	a3,s1
    80002af8:	00098613          	mv	a2,s3
    80002afc:	00090513          	mv	a0,s2
    80002b00:	00000097          	auipc	ra,0x0
    80002b04:	fa8080e7          	jalr	-88(ra) # 80002aa8 <_Z5splitP14buddyAllocatorPvmmb>
        split(buddy, addr, finalLevel, currLevel - 1, true); // continue splitting
    80002b08:	00100713          	li	a4,1
    80002b0c:	00048693          	mv	a3,s1
    80002b10:	00098613          	mv	a2,s3
    80002b14:	000a0593          	mv	a1,s4
    80002b18:	00090513          	mv	a0,s2
    80002b1c:	00000097          	auipc	ra,0x0
    80002b20:	f8c080e7          	jalr	-116(ra) # 80002aa8 <_Z5splitP14buddyAllocatorPvmmb>
}
    80002b24:	02813083          	ld	ra,40(sp)
    80002b28:	02013403          	ld	s0,32(sp)
    80002b2c:	01813483          	ld	s1,24(sp)
    80002b30:	01013903          	ld	s2,16(sp)
    80002b34:	00813983          	ld	s3,8(sp)
    80002b38:	00013a03          	ld	s4,0(sp)
    80002b3c:	03010113          	addi	sp,sp,48
    80002b40:	00008067          	ret
        addBlockToLevel(buddy, addr, currLevel);
    80002b44:	00068613          	mv	a2,a3
    80002b48:	00000097          	auipc	ra,0x0
    80002b4c:	ec4080e7          	jalr	-316(ra) # 80002a0c <_Z15addBlockToLevelP14buddyAllocatorPvm>
    80002b50:	fd5ff06f          	j	80002b24 <_Z5splitP14buddyAllocatorPvmmb+0x7c>

0000000080002b54 <_Z11buddy_allocP14buddyAllocatorm>:
{
    80002b54:	fd010113          	addi	sp,sp,-48
    80002b58:	02113423          	sd	ra,40(sp)
    80002b5c:	02813023          	sd	s0,32(sp)
    80002b60:	00913c23          	sd	s1,24(sp)
    80002b64:	01213823          	sd	s2,16(sp)
    80002b68:	01313423          	sd	s3,8(sp)
    80002b6c:	03010413          	addi	s0,sp,48
    80002b70:	00050493          	mv	s1,a0
    size_t level = getDeg2Ceil(numOfBlocks);
    80002b74:	00058513          	mv	a0,a1
    80002b78:	00000097          	auipc	ra,0x0
    80002b7c:	e60080e7          	jalr	-416(ra) # 800029d8 <_Z11getDeg2Ceilm>
    80002b80:	00050993          	mv	s3,a0
    for(size_t i = level; i <= buddy->maxLevel;i++)
    80002b84:	00050693          	mv	a3,a0
    80002b88:	0184b783          	ld	a5,24(s1)
    80002b8c:	06d7ee63          	bltu	a5,a3,80002c08 <_Z11buddy_allocP14buddyAllocatorm+0xb4>
        if(buddy->bucket[i].first != nullptr)
    80002b90:	00268793          	addi	a5,a3,2
    80002b94:	00479793          	slli	a5,a5,0x4
    80002b98:	00f487b3          	add	a5,s1,a5
    80002b9c:	0007b903          	ld	s2,0(a5) # 1000 <_entry-0x7ffff000>
    80002ba0:	00091663          	bnez	s2,80002bac <_Z11buddy_allocP14buddyAllocatorm+0x58>
    for(size_t i = level; i <= buddy->maxLevel;i++)
    80002ba4:	00168693          	addi	a3,a3,1
    80002ba8:	fe1ff06f          	j	80002b88 <_Z11buddy_allocP14buddyAllocatorm+0x34>
            buddy->bucket[i].first = ret->next;
    80002bac:	00093703          	ld	a4,0(s2)
    80002bb0:	00268793          	addi	a5,a3,2
    80002bb4:	00479793          	slli	a5,a5,0x4
    80002bb8:	00f487b3          	add	a5,s1,a5
    80002bbc:	00e7b023          	sd	a4,0(a5)
            if(buddy->bucket[i].first == nullptr)
    80002bc0:	02070a63          	beqz	a4,80002bf4 <_Z11buddy_allocP14buddyAllocatorm+0xa0>
            split(buddy, (void*)ret, level, i, true);
    80002bc4:	00100713          	li	a4,1
    80002bc8:	00098613          	mv	a2,s3
    80002bcc:	00090593          	mv	a1,s2
    80002bd0:	00048513          	mv	a0,s1
    80002bd4:	00000097          	auipc	ra,0x0
    80002bd8:	ed4080e7          	jalr	-300(ra) # 80002aa8 <_Z5splitP14buddyAllocatorPvmmb>
            buddy->numOfFreeBlocks-= (1 << level);
    80002bdc:	00100513          	li	a0,1
    80002be0:	0135153b          	sllw	a0,a0,s3
    80002be4:	0104b983          	ld	s3,16(s1)
    80002be8:	40a989b3          	sub	s3,s3,a0
    80002bec:	0134b823          	sd	s3,16(s1)
            return ret;
    80002bf0:	01c0006f          	j	80002c0c <_Z11buddy_allocP14buddyAllocatorm+0xb8>
                buddy->bucket[i].last = nullptr;
    80002bf4:	00268793          	addi	a5,a3,2
    80002bf8:	00479793          	slli	a5,a5,0x4
    80002bfc:	00f487b3          	add	a5,s1,a5
    80002c00:	0007b423          	sd	zero,8(a5)
    80002c04:	fc1ff06f          	j	80002bc4 <_Z11buddy_allocP14buddyAllocatorm+0x70>
    return nullptr;
    80002c08:	00000913          	li	s2,0
}
    80002c0c:	00090513          	mv	a0,s2
    80002c10:	02813083          	ld	ra,40(sp)
    80002c14:	02013403          	ld	s0,32(sp)
    80002c18:	01813483          	ld	s1,24(sp)
    80002c1c:	01013903          	ld	s2,16(sp)
    80002c20:	00813983          	ld	s3,8(sp)
    80002c24:	03010113          	addi	sp,sp,48
    80002c28:	00008067          	ret

0000000080002c2c <_Z9addBlocksP14buddyAllocatorPvm>:
{
    80002c2c:	fd010113          	addi	sp,sp,-48
    80002c30:	02113423          	sd	ra,40(sp)
    80002c34:	02813023          	sd	s0,32(sp)
    80002c38:	00913c23          	sd	s1,24(sp)
    80002c3c:	01213823          	sd	s2,16(sp)
    80002c40:	01313423          	sd	s3,8(sp)
    80002c44:	03010413          	addi	s0,sp,48
    80002c48:	00050493          	mv	s1,a0
    80002c4c:	00058993          	mv	s3,a1
    80002c50:	00060913          	mv	s2,a2
    if(level == buddy->maxLevel)
    80002c54:	01853783          	ld	a5,24(a0)
    80002c58:	02c78a63          	beq	a5,a2,80002c8c <_Z9addBlocksP14buddyAllocatorPvm+0x60>
    size_t buddyBlockAddr = getBuddyBlockAddr(buddy,addr,level);
    80002c5c:	00000097          	auipc	ra,0x0
    80002c60:	e10080e7          	jalr	-496(ra) # 80002a6c <_Z17getBuddyBlockAddrP14buddyAllocatorPvm>
    buddyBlock* curr = buddy->bucket[level].first;
    80002c64:	00290793          	addi	a5,s2,2
    80002c68:	00479793          	slli	a5,a5,0x4
    80002c6c:	00f487b3          	add	a5,s1,a5
    80002c70:	0007b783          	ld	a5,0(a5)
    buddyBlock* prev = nullptr;
    80002c74:	00000713          	li	a4,0
    while(curr != nullptr)
    80002c78:	0a078e63          	beqz	a5,80002d34 <_Z9addBlocksP14buddyAllocatorPvm+0x108>
        if((size_t)curr == buddyBlockAddr)
    80002c7c:	00a78e63          	beq	a5,a0,80002c98 <_Z9addBlocksP14buddyAllocatorPvm+0x6c>
        prev = curr;
    80002c80:	00078713          	mv	a4,a5
        curr = curr->next;
    80002c84:	0007b783          	ld	a5,0(a5)
    while(curr != nullptr)
    80002c88:	ff1ff06f          	j	80002c78 <_Z9addBlocksP14buddyAllocatorPvm+0x4c>
        addBlockToLevel(buddy, addr, level);
    80002c8c:	00000097          	auipc	ra,0x0
    80002c90:	d80080e7          	jalr	-640(ra) # 80002a0c <_Z15addBlockToLevelP14buddyAllocatorPvm>
        return;
    80002c94:	0b40006f          	j	80002d48 <_Z9addBlocksP14buddyAllocatorPvm+0x11c>
            if(prev != nullptr)
    80002c98:	04070863          	beqz	a4,80002ce8 <_Z9addBlocksP14buddyAllocatorPvm+0xbc>
                prev->next = curr->next;
    80002c9c:	0007b683          	ld	a3,0(a5)
    80002ca0:	00d73023          	sd	a3,0(a4)
                if(curr == buddy->bucket[level].last)
    80002ca4:	00290693          	addi	a3,s2,2
    80002ca8:	00469693          	slli	a3,a3,0x4
    80002cac:	00d486b3          	add	a3,s1,a3
    80002cb0:	0086b683          	ld	a3,8(a3)
    80002cb4:	02f68063          	beq	a3,a5,80002cd4 <_Z9addBlocksP14buddyAllocatorPvm+0xa8>
            if((size_t)addr < buddyBlockAddr) addBlocks(buddy, addr, level + 1); //merge two chunks
    80002cb8:	06a9f263          	bgeu	s3,a0,80002d1c <_Z9addBlocksP14buddyAllocatorPvm+0xf0>
    80002cbc:	00190613          	addi	a2,s2,1
    80002cc0:	00098593          	mv	a1,s3
    80002cc4:	00048513          	mv	a0,s1
    80002cc8:	00000097          	auipc	ra,0x0
    80002ccc:	f64080e7          	jalr	-156(ra) # 80002c2c <_Z9addBlocksP14buddyAllocatorPvm>
    80002cd0:	0780006f          	j	80002d48 <_Z9addBlocksP14buddyAllocatorPvm+0x11c>
                    buddy->bucket[level].last = prev;
    80002cd4:	00290793          	addi	a5,s2,2
    80002cd8:	00479793          	slli	a5,a5,0x4
    80002cdc:	00f487b3          	add	a5,s1,a5
    80002ce0:	00e7b423          	sd	a4,8(a5)
    80002ce4:	fd5ff06f          	j	80002cb8 <_Z9addBlocksP14buddyAllocatorPvm+0x8c>
                if(curr->next == nullptr)
    80002ce8:	0007b703          	ld	a4,0(a5)
    80002cec:	00070c63          	beqz	a4,80002d04 <_Z9addBlocksP14buddyAllocatorPvm+0xd8>
                    buddy->bucket[level].first = curr->next;
    80002cf0:	00290793          	addi	a5,s2,2
    80002cf4:	00479793          	slli	a5,a5,0x4
    80002cf8:	00f487b3          	add	a5,s1,a5
    80002cfc:	00e7b023          	sd	a4,0(a5)
    80002d00:	fb9ff06f          	j	80002cb8 <_Z9addBlocksP14buddyAllocatorPvm+0x8c>
                    buddy->bucket[level].first = buddy->bucket[level].last = nullptr;
    80002d04:	00290793          	addi	a5,s2,2
    80002d08:	00479793          	slli	a5,a5,0x4
    80002d0c:	00f487b3          	add	a5,s1,a5
    80002d10:	0007b423          	sd	zero,8(a5)
    80002d14:	0007b023          	sd	zero,0(a5)
    80002d18:	fa1ff06f          	j	80002cb8 <_Z9addBlocksP14buddyAllocatorPvm+0x8c>
            else addBlocks(buddy, (void*)buddyBlockAddr, level + 1); //merge two chunks
    80002d1c:	00190613          	addi	a2,s2,1
    80002d20:	00050593          	mv	a1,a0
    80002d24:	00048513          	mv	a0,s1
    80002d28:	00000097          	auipc	ra,0x0
    80002d2c:	f04080e7          	jalr	-252(ra) # 80002c2c <_Z9addBlocksP14buddyAllocatorPvm>
            return;
    80002d30:	0180006f          	j	80002d48 <_Z9addBlocksP14buddyAllocatorPvm+0x11c>
    addBlockToLevel(buddy, addr, level);
    80002d34:	00090613          	mv	a2,s2
    80002d38:	00098593          	mv	a1,s3
    80002d3c:	00048513          	mv	a0,s1
    80002d40:	00000097          	auipc	ra,0x0
    80002d44:	ccc080e7          	jalr	-820(ra) # 80002a0c <_Z15addBlockToLevelP14buddyAllocatorPvm>
}
    80002d48:	02813083          	ld	ra,40(sp)
    80002d4c:	02013403          	ld	s0,32(sp)
    80002d50:	01813483          	ld	s1,24(sp)
    80002d54:	01013903          	ld	s2,16(sp)
    80002d58:	00813983          	ld	s3,8(sp)
    80002d5c:	03010113          	addi	sp,sp,48
    80002d60:	00008067          	ret

0000000080002d64 <_Z10buddy_initPvm>:
{
    80002d64:	fd010113          	addi	sp,sp,-48
    80002d68:	02113423          	sd	ra,40(sp)
    80002d6c:	02813023          	sd	s0,32(sp)
    80002d70:	00913c23          	sd	s1,24(sp)
    80002d74:	01213823          	sd	s2,16(sp)
    80002d78:	01313423          	sd	s3,8(sp)
    80002d7c:	03010413          	addi	s0,sp,48
    80002d80:	00058993          	mv	s3,a1
    size_t blockAddr = getBlockAddr((size_t)addr); //alling the address
    80002d84:	00050493          	mv	s1,a0
    80002d88:	00000097          	auipc	ra,0x0
    80002d8c:	bcc080e7          	jalr	-1076(ra) # 80002954 <_Z12getBlockAddrm>
    if((size_t)addr != blockAddr) // if start address not aligned
    80002d90:	00a48a63          	beq	s1,a0,80002da4 <_Z10buddy_initPvm+0x40>
        buddyAddr = getNextBlockAddr(blockAddr);
    80002d94:	00000097          	auipc	ra,0x0
    80002d98:	be0080e7          	jalr	-1056(ra) # 80002974 <_Z16getNextBlockAddrm>
    80002d9c:	00050493          	mv	s1,a0
        numOfBlocks--; //have to discard one block
    80002da0:	fff98993          	addi	s3,s3,-1
    numOfBlocks--; // take one block for buddy metadata
    80002da4:	fff98993          	addi	s3,s3,-1
    buddyAllocator* buddy = (buddyAllocator*)buddyAddr;
    80002da8:	00048913          	mv	s2,s1
    buddy->startAddr = (void*)getNextBlockAddr(buddyAddr);
    80002dac:	00048513          	mv	a0,s1
    80002db0:	00000097          	auipc	ra,0x0
    80002db4:	bc4080e7          	jalr	-1084(ra) # 80002974 <_Z16getNextBlockAddrm>
    80002db8:	00a4b423          	sd	a0,8(s1)
    buddy->numOfBlocks = numOfBlocks;
    80002dbc:	0134b023          	sd	s3,0(s1)
    buddy->numOfFreeBlocks = numOfBlocks;
    80002dc0:	0134b823          	sd	s3,16(s1)
    buddy->maxLevel = getDeg2Floor(numOfBlocks);
    80002dc4:	00098513          	mv	a0,s3
    80002dc8:	00000097          	auipc	ra,0x0
    80002dcc:	bdc080e7          	jalr	-1060(ra) # 800029a4 <_Z12getDeg2Floorm>
    80002dd0:	00a4bc23          	sd	a0,24(s1)
    for(size_t i = 0; i <= buddy->maxLevel;i++)
    80002dd4:	00000713          	li	a4,0
    80002dd8:	02e56063          	bltu	a0,a4,80002df8 <_Z10buddy_initPvm+0x94>
        buddy->bucket[i].first = buddy->bucket[i].last = nullptr;
    80002ddc:	00270793          	addi	a5,a4,2
    80002de0:	00479793          	slli	a5,a5,0x4
    80002de4:	00f907b3          	add	a5,s2,a5
    80002de8:	0007b423          	sd	zero,8(a5)
    80002dec:	0007b023          	sd	zero,0(a5)
    for(size_t i = 0; i <= buddy->maxLevel;i++)
    80002df0:	00170713          	addi	a4,a4,1
    80002df4:	fe5ff06f          	j	80002dd8 <_Z10buddy_initPvm+0x74>
    for(size_t i = 0;i < numOfBlocks;i++)
    80002df8:	00000493          	li	s1,0
    80002dfc:	0334f463          	bgeu	s1,s3,80002e24 <_Z10buddy_initPvm+0xc0>
        addBlocks(buddy, (block*)buddy->startAddr + i, 0);
    80002e00:	00893583          	ld	a1,8(s2)
    80002e04:	00c49793          	slli	a5,s1,0xc
    80002e08:	00000613          	li	a2,0
    80002e0c:	00f585b3          	add	a1,a1,a5
    80002e10:	00090513          	mv	a0,s2
    80002e14:	00000097          	auipc	ra,0x0
    80002e18:	e18080e7          	jalr	-488(ra) # 80002c2c <_Z9addBlocksP14buddyAllocatorPvm>
    for(size_t i = 0;i < numOfBlocks;i++)
    80002e1c:	00148493          	addi	s1,s1,1
    80002e20:	fddff06f          	j	80002dfc <_Z10buddy_initPvm+0x98>
}
    80002e24:	00090513          	mv	a0,s2
    80002e28:	02813083          	ld	ra,40(sp)
    80002e2c:	02013403          	ld	s0,32(sp)
    80002e30:	01813483          	ld	s1,24(sp)
    80002e34:	01013903          	ld	s2,16(sp)
    80002e38:	00813983          	ld	s3,8(sp)
    80002e3c:	03010113          	addi	sp,sp,48
    80002e40:	00008067          	ret

0000000080002e44 <_Z10buddy_freeP14buddyAllocatorPvm>:
{
    80002e44:	fd010113          	addi	sp,sp,-48
    80002e48:	02113423          	sd	ra,40(sp)
    80002e4c:	02813023          	sd	s0,32(sp)
    80002e50:	00913c23          	sd	s1,24(sp)
    80002e54:	01213823          	sd	s2,16(sp)
    80002e58:	01313423          	sd	s3,8(sp)
    80002e5c:	03010413          	addi	s0,sp,48
    80002e60:	00050493          	mv	s1,a0
    80002e64:	00058993          	mv	s3,a1
    size_t level = getDeg2Ceil(numOfBlocks);
    80002e68:	00060513          	mv	a0,a2
    80002e6c:	00000097          	auipc	ra,0x0
    80002e70:	b6c080e7          	jalr	-1172(ra) # 800029d8 <_Z11getDeg2Ceilm>
    80002e74:	00050913          	mv	s2,a0
    addBlocks(buddy, addr, level); //adds free blocks
    80002e78:	00050613          	mv	a2,a0
    80002e7c:	00098593          	mv	a1,s3
    80002e80:	00048513          	mv	a0,s1
    80002e84:	00000097          	auipc	ra,0x0
    80002e88:	da8080e7          	jalr	-600(ra) # 80002c2c <_Z9addBlocksP14buddyAllocatorPvm>
    buddy->numOfFreeBlocks += (1 << level);
    80002e8c:	00100513          	li	a0,1
    80002e90:	0125153b          	sllw	a0,a0,s2
    80002e94:	0104b903          	ld	s2,16(s1)
    80002e98:	00a90933          	add	s2,s2,a0
    80002e9c:	0124b823          	sd	s2,16(s1)
}
    80002ea0:	02813083          	ld	ra,40(sp)
    80002ea4:	02013403          	ld	s0,32(sp)
    80002ea8:	01813483          	ld	s1,24(sp)
    80002eac:	01013903          	ld	s2,16(sp)
    80002eb0:	00813983          	ld	s3,8(sp)
    80002eb4:	03010113          	addi	sp,sp,48
    80002eb8:	00008067          	ret

0000000080002ebc <_Z14printBuddyInfoP14buddyAllocator>:

void printBuddyInfo(buddyAllocator* buddy)
{
    80002ebc:	fd010113          	addi	sp,sp,-48
    80002ec0:	02113423          	sd	ra,40(sp)
    80002ec4:	02813023          	sd	s0,32(sp)
    80002ec8:	00913c23          	sd	s1,24(sp)
    80002ecc:	01213823          	sd	s2,16(sp)
    80002ed0:	01313423          	sd	s3,8(sp)
    80002ed4:	03010413          	addi	s0,sp,48
    80002ed8:	00050993          	mv	s3,a0
    KConsole::trapPrintString("Buddy info-------------------------------------------\n");
    80002edc:	00005517          	auipc	a0,0x5
    80002ee0:	39c50513          	addi	a0,a0,924 # 80008278 <CONSOLE_STATUS+0x268>
    80002ee4:	00000097          	auipc	ra,0x0
    80002ee8:	5a8080e7          	jalr	1448(ra) # 8000348c <_ZN8KConsole15trapPrintStringEPKc>
    KConsole::trapPrintStringInt("Buddy starting address ", (size_t)buddy->startAddr, 16);
    80002eec:	01000613          	li	a2,16
    80002ef0:	0089b583          	ld	a1,8(s3)
    80002ef4:	00005517          	auipc	a0,0x5
    80002ef8:	3bc50513          	addi	a0,a0,956 # 800082b0 <CONSOLE_STATUS+0x2a0>
    80002efc:	00000097          	auipc	ra,0x0
    80002f00:	668080e7          	jalr	1640(ra) # 80003564 <_ZN8KConsole18trapPrintStringIntEPKcmi>
    KConsole::trapPrintStringInt("Buddy number of blocks ", buddy->numOfBlocks);
    80002f04:	00a00613          	li	a2,10
    80002f08:	0009b583          	ld	a1,0(s3)
    80002f0c:	00005517          	auipc	a0,0x5
    80002f10:	3bc50513          	addi	a0,a0,956 # 800082c8 <CONSOLE_STATUS+0x2b8>
    80002f14:	00000097          	auipc	ra,0x0
    80002f18:	650080e7          	jalr	1616(ra) # 80003564 <_ZN8KConsole18trapPrintStringIntEPKcmi>
    KConsole::trapPrintStringInt("Buddy number of free blocks ", buddy->numOfFreeBlocks);
    80002f1c:	00a00613          	li	a2,10
    80002f20:	0109b583          	ld	a1,16(s3)
    80002f24:	00005517          	auipc	a0,0x5
    80002f28:	3bc50513          	addi	a0,a0,956 # 800082e0 <CONSOLE_STATUS+0x2d0>
    80002f2c:	00000097          	auipc	ra,0x0
    80002f30:	638080e7          	jalr	1592(ra) # 80003564 <_ZN8KConsole18trapPrintStringIntEPKcmi>
    for(int i = buddy->maxLevel;i>=0;i--)
    80002f34:	0189a903          	lw	s2,24(s3)
    80002f38:	0080006f          	j	80002f40 <_Z14printBuddyInfoP14buddyAllocator+0x84>
    80002f3c:	fff9091b          	addiw	s2,s2,-1
    80002f40:	06094663          	bltz	s2,80002fac <_Z14printBuddyInfoP14buddyAllocator+0xf0>
    {
        KConsole::trapPrintStringInt("Level ",i);
    80002f44:	00a00613          	li	a2,10
    80002f48:	00090593          	mv	a1,s2
    80002f4c:	00005517          	auipc	a0,0x5
    80002f50:	3b450513          	addi	a0,a0,948 # 80008300 <CONSOLE_STATUS+0x2f0>
    80002f54:	00000097          	auipc	ra,0x0
    80002f58:	610080e7          	jalr	1552(ra) # 80003564 <_ZN8KConsole18trapPrintStringIntEPKcmi>
        KConsole::trapPrintString("Free blocks on this level\n");
    80002f5c:	00005517          	auipc	a0,0x5
    80002f60:	3ac50513          	addi	a0,a0,940 # 80008308 <CONSOLE_STATUS+0x2f8>
    80002f64:	00000097          	auipc	ra,0x0
    80002f68:	528080e7          	jalr	1320(ra) # 8000348c <_ZN8KConsole15trapPrintStringEPKc>
        buddyBlock* curr = buddy->bucket[i].first;
    80002f6c:	00290793          	addi	a5,s2,2
    80002f70:	00479793          	slli	a5,a5,0x4
    80002f74:	00f987b3          	add	a5,s3,a5
    80002f78:	0007b483          	ld	s1,0(a5)
        while(curr != 0)
    80002f7c:	fc0480e3          	beqz	s1,80002f3c <_Z14printBuddyInfoP14buddyAllocator+0x80>
        {
            KConsole::trapPrintInt((size_t)curr, 16);
    80002f80:	00000613          	li	a2,0
    80002f84:	01000593          	li	a1,16
    80002f88:	00048513          	mv	a0,s1
    80002f8c:	00000097          	auipc	ra,0x0
    80002f90:	544080e7          	jalr	1348(ra) # 800034d0 <_ZN8KConsole12trapPrintIntEmii>
            KConsole::trapPrintString("\n");
    80002f94:	00005517          	auipc	a0,0x5
    80002f98:	1ec50513          	addi	a0,a0,492 # 80008180 <CONSOLE_STATUS+0x170>
    80002f9c:	00000097          	auipc	ra,0x0
    80002fa0:	4f0080e7          	jalr	1264(ra) # 8000348c <_ZN8KConsole15trapPrintStringEPKc>
            curr = curr->next;
    80002fa4:	0004b483          	ld	s1,0(s1)
        while(curr != 0)
    80002fa8:	fd5ff06f          	j	80002f7c <_Z14printBuddyInfoP14buddyAllocator+0xc0>
        }
    }
    KConsole::trapPrintString("End of buddy info-------------------------------------------\n");
    80002fac:	00005517          	auipc	a0,0x5
    80002fb0:	37c50513          	addi	a0,a0,892 # 80008328 <CONSOLE_STATUS+0x318>
    80002fb4:	00000097          	auipc	ra,0x0
    80002fb8:	4d8080e7          	jalr	1240(ra) # 8000348c <_ZN8KConsole15trapPrintStringEPKc>
    80002fbc:	02813083          	ld	ra,40(sp)
    80002fc0:	02013403          	ld	s0,32(sp)
    80002fc4:	01813483          	ld	s1,24(sp)
    80002fc8:	01013903          	ld	s2,16(sp)
    80002fcc:	00813983          	ld	s3,8(sp)
    80002fd0:	03010113          	addi	sp,sp,48
    80002fd4:	00008067          	ret

0000000080002fd8 <_ZN8KConsole10initializeEv>:
char KConsole::outputBuffer[bufferSize];
uint64 KConsole::pendingPutc = 0;
bool KConsole::finished = false;

void KConsole::initialize()
{
    80002fd8:	fe010113          	addi	sp,sp,-32
    80002fdc:	00113c23          	sd	ra,24(sp)
    80002fe0:	00813823          	sd	s0,16(sp)
    80002fe4:	00913423          	sd	s1,8(sp)
    80002fe8:	01213023          	sd	s2,0(sp)
    80002fec:	02010413          	addi	s0,sp,32
    hasCharactersInput = new KSemaphore(0);
    80002ff0:	01800513          	li	a0,24
    80002ff4:	00002097          	auipc	ra,0x2
    80002ff8:	268080e7          	jalr	616(ra) # 8000525c <_ZN10KSemaphorenwEm>
    80002ffc:	00050493          	mv	s1,a0
    80003000:	00050863          	beqz	a0,80003010 <_ZN8KConsole10initializeEv+0x38>
    80003004:	00000593          	li	a1,0
    80003008:	00002097          	auipc	ra,0x2
    8000300c:	ff0080e7          	jalr	-16(ra) # 80004ff8 <_ZN10KSemaphoreC1Ei>
    80003010:	00006797          	auipc	a5,0x6
    80003014:	a297b823          	sd	s1,-1488(a5) # 80008a40 <_ZN8KConsole18hasCharactersInputE>
    hasCharactersOutput = new KSemaphore(0);
    80003018:	01800513          	li	a0,24
    8000301c:	00002097          	auipc	ra,0x2
    80003020:	240080e7          	jalr	576(ra) # 8000525c <_ZN10KSemaphorenwEm>
    80003024:	00050493          	mv	s1,a0
    80003028:	00050863          	beqz	a0,80003038 <_ZN8KConsole10initializeEv+0x60>
    8000302c:	00000593          	li	a1,0
    80003030:	00002097          	auipc	ra,0x2
    80003034:	fc8080e7          	jalr	-56(ra) # 80004ff8 <_ZN10KSemaphoreC1Ei>
    80003038:	00006797          	auipc	a5,0x6
    8000303c:	a097b823          	sd	s1,-1520(a5) # 80008a48 <_ZN8KConsole19hasCharactersOutputE>
}
    80003040:	01813083          	ld	ra,24(sp)
    80003044:	01013403          	ld	s0,16(sp)
    80003048:	00813483          	ld	s1,8(sp)
    8000304c:	00013903          	ld	s2,0(sp)
    80003050:	02010113          	addi	sp,sp,32
    80003054:	00008067          	ret
    80003058:	00050913          	mv	s2,a0
    hasCharactersInput = new KSemaphore(0);
    8000305c:	00048513          	mv	a0,s1
    80003060:	00002097          	auipc	ra,0x2
    80003064:	2ac080e7          	jalr	684(ra) # 8000530c <_ZN10KSemaphoredlEPv>
    80003068:	00090513          	mv	a0,s2
    8000306c:	0000f097          	auipc	ra,0xf
    80003070:	b4c080e7          	jalr	-1204(ra) # 80011bb8 <_Unwind_Resume>
    80003074:	00050913          	mv	s2,a0
    hasCharactersOutput = new KSemaphore(0);
    80003078:	00048513          	mv	a0,s1
    8000307c:	00002097          	auipc	ra,0x2
    80003080:	290080e7          	jalr	656(ra) # 8000530c <_ZN10KSemaphoredlEPv>
    80003084:	00090513          	mv	a0,s2
    80003088:	0000f097          	auipc	ra,0xf
    8000308c:	b30080e7          	jalr	-1232(ra) # 80011bb8 <_Unwind_Resume>

0000000080003090 <_ZN8KConsole17putCharacterInputEc>:
    }
}

void KConsole::putCharacterInput(char c)
{
    if((inputTail+1)%bufferSize == inputHead)
    80003090:	00006697          	auipc	a3,0x6
    80003094:	9b068693          	addi	a3,a3,-1616 # 80008a40 <_ZN8KConsole18hasCharactersInputE>
    80003098:	0106b603          	ld	a2,16(a3)
    8000309c:	00160793          	addi	a5,a2,1
    800030a0:	00004737          	lui	a4,0x4
    800030a4:	fff70713          	addi	a4,a4,-1 # 3fff <_entry-0x7fffc001>
    800030a8:	00e7f7b3          	and	a5,a5,a4
    800030ac:	0186b703          	ld	a4,24(a3)
    800030b0:	04e78263          	beq	a5,a4,800030f4 <_ZN8KConsole17putCharacterInputEc+0x64>
{
    800030b4:	ff010113          	addi	sp,sp,-16
    800030b8:	00113423          	sd	ra,8(sp)
    800030bc:	00813023          	sd	s0,0(sp)
    800030c0:	01010413          	addi	s0,sp,16
        return;
    inputBuffer[inputTail] = c;
    800030c4:	0000a717          	auipc	a4,0xa
    800030c8:	9c470713          	addi	a4,a4,-1596 # 8000ca88 <_ZN8KConsole11inputBufferE>
    800030cc:	00c70633          	add	a2,a4,a2
    800030d0:	00a60023          	sb	a0,0(a2)
    inputTail = (inputTail+1)%bufferSize;
    800030d4:	00f6b823          	sd	a5,16(a3)
    hasCharactersInput->signal();
    800030d8:	0006b503          	ld	a0,0(a3)
    800030dc:	00002097          	auipc	ra,0x2
    800030e0:	138080e7          	jalr	312(ra) # 80005214 <_ZN10KSemaphore6signalEv>
}
    800030e4:	00813083          	ld	ra,8(sp)
    800030e8:	00013403          	ld	s0,0(sp)
    800030ec:	01010113          	addi	sp,sp,16
    800030f0:	00008067          	ret
    800030f4:	00008067          	ret

00000000800030f8 <_ZN8KConsole24getCharactersFromConsoleEv>:
    uint64 operation = *(uint8*)CONSOLE_STATUS;
    800030f8:	00006797          	auipc	a5,0x6
    800030fc:	8207b783          	ld	a5,-2016(a5) # 80008918 <_GLOBAL_OFFSET_TABLE_+0x10>
    80003100:	0007b783          	ld	a5,0(a5)
    80003104:	0007c783          	lbu	a5,0(a5)
    if(operation & KConsole::STATUS_READ_MASK)
    80003108:	0017f793          	andi	a5,a5,1
    8000310c:	02078063          	beqz	a5,8000312c <_ZN8KConsole24getCharactersFromConsoleEv+0x34>
        char c = *(uint8*)CONSOLE_TX_DATA;
    80003110:	00006797          	auipc	a5,0x6
    80003114:	8407b783          	ld	a5,-1984(a5) # 80008950 <_GLOBAL_OFFSET_TABLE_+0x48>
    80003118:	0007b783          	ld	a5,0(a5)
    8000311c:	0007c503          	lbu	a0,0(a5)
        if(KConsole::pendingGetc > 0)
    80003120:	00006797          	auipc	a5,0x6
    80003124:	9407b783          	ld	a5,-1728(a5) # 80008a60 <_ZN8KConsole11pendingGetcE>
    80003128:	00079463          	bnez	a5,80003130 <_ZN8KConsole24getCharactersFromConsoleEv+0x38>
    8000312c:	00008067          	ret
{
    80003130:	ff010113          	addi	sp,sp,-16
    80003134:	00113423          	sd	ra,8(sp)
    80003138:	00813023          	sd	s0,0(sp)
    8000313c:	01010413          	addi	s0,sp,16
            KConsole::pendingGetc--;
    80003140:	fff78793          	addi	a5,a5,-1
    80003144:	00006717          	auipc	a4,0x6
    80003148:	90f73e23          	sd	a5,-1764(a4) # 80008a60 <_ZN8KConsole11pendingGetcE>
            KConsole::putCharacterInput(c);
    8000314c:	00000097          	auipc	ra,0x0
    80003150:	f44080e7          	jalr	-188(ra) # 80003090 <_ZN8KConsole17putCharacterInputEc>
}
    80003154:	00813083          	ld	ra,8(sp)
    80003158:	00013403          	ld	s0,0(sp)
    8000315c:	01010113          	addi	sp,sp,16
    80003160:	00008067          	ret

0000000080003164 <_ZN8KConsole17getCharacterInputEv>:

char KConsole::getCharacterInput()
{
    80003164:	fe010113          	addi	sp,sp,-32
    80003168:	00113c23          	sd	ra,24(sp)
    8000316c:	00813823          	sd	s0,16(sp)
    80003170:	00913423          	sd	s1,8(sp)
    80003174:	02010413          	addi	s0,sp,32
    hasCharactersInput->wait();
    80003178:	00006497          	auipc	s1,0x6
    8000317c:	8c848493          	addi	s1,s1,-1848 # 80008a40 <_ZN8KConsole18hasCharactersInputE>
    80003180:	0004b503          	ld	a0,0(s1)
    80003184:	00002097          	auipc	ra,0x2
    80003188:	f18080e7          	jalr	-232(ra) # 8000509c <_ZN10KSemaphore4waitEv>
    if(inputHead == inputTail)
    8000318c:	0184b783          	ld	a5,24(s1)
    80003190:	0104b703          	ld	a4,16(s1)
    80003194:	04e78063          	beq	a5,a4,800031d4 <_ZN8KConsole17getCharacterInputEv+0x70>
        return -1;
    char c = inputBuffer[inputHead];
    80003198:	0000a717          	auipc	a4,0xa
    8000319c:	8f070713          	addi	a4,a4,-1808 # 8000ca88 <_ZN8KConsole11inputBufferE>
    800031a0:	00f70733          	add	a4,a4,a5
    800031a4:	00074503          	lbu	a0,0(a4)
    inputHead = (inputHead+1)%bufferSize;
    800031a8:	00178793          	addi	a5,a5,1
    800031ac:	00004737          	lui	a4,0x4
    800031b0:	fff70713          	addi	a4,a4,-1 # 3fff <_entry-0x7fffc001>
    800031b4:	00e7f7b3          	and	a5,a5,a4
    800031b8:	00006717          	auipc	a4,0x6
    800031bc:	8af73023          	sd	a5,-1888(a4) # 80008a58 <_ZN8KConsole9inputHeadE>
    return c;
}
    800031c0:	01813083          	ld	ra,24(sp)
    800031c4:	01013403          	ld	s0,16(sp)
    800031c8:	00813483          	ld	s1,8(sp)
    800031cc:	02010113          	addi	sp,sp,32
    800031d0:	00008067          	ret
        return -1;
    800031d4:	0ff00513          	li	a0,255
    800031d8:	fe9ff06f          	j	800031c0 <_ZN8KConsole17getCharacterInputEv+0x5c>

00000000800031dc <_ZN8KConsole18putCharacterOutputEc>:

void KConsole::putCharacterOutput(char c)
{
    if((outputTail+1)%bufferSize == outputHead)
    800031dc:	00006697          	auipc	a3,0x6
    800031e0:	86468693          	addi	a3,a3,-1948 # 80008a40 <_ZN8KConsole18hasCharactersInputE>
    800031e4:	0286b603          	ld	a2,40(a3)
    800031e8:	00160793          	addi	a5,a2,1
    800031ec:	00004737          	lui	a4,0x4
    800031f0:	fff70713          	addi	a4,a4,-1 # 3fff <_entry-0x7fffc001>
    800031f4:	00e7f7b3          	and	a5,a5,a4
    800031f8:	0306b703          	ld	a4,48(a3)
    800031fc:	04e78a63          	beq	a5,a4,80003250 <_ZN8KConsole18putCharacterOutputEc+0x74>
{
    80003200:	ff010113          	addi	sp,sp,-16
    80003204:	00113423          	sd	ra,8(sp)
    80003208:	00813023          	sd	s0,0(sp)
    8000320c:	01010413          	addi	s0,sp,16
        return;
    pendingPutc++;
    80003210:	00068713          	mv	a4,a3
    80003214:	0386b683          	ld	a3,56(a3)
    80003218:	00168693          	addi	a3,a3,1
    8000321c:	02d73c23          	sd	a3,56(a4)
    outputBuffer[outputTail] = c;
    80003220:	00006697          	auipc	a3,0x6
    80003224:	86868693          	addi	a3,a3,-1944 # 80008a88 <_ZN8KConsole12outputBufferE>
    80003228:	00c68633          	add	a2,a3,a2
    8000322c:	00a60023          	sb	a0,0(a2)
    outputTail = (outputTail+1)%bufferSize;
    80003230:	02f73423          	sd	a5,40(a4)
    hasCharactersOutput->signal();
    80003234:	00873503          	ld	a0,8(a4)
    80003238:	00002097          	auipc	ra,0x2
    8000323c:	fdc080e7          	jalr	-36(ra) # 80005214 <_ZN10KSemaphore6signalEv>
}
    80003240:	00813083          	ld	ra,8(sp)
    80003244:	00013403          	ld	s0,0(sp)
    80003248:	01010113          	addi	sp,sp,16
    8000324c:	00008067          	ret
    80003250:	00008067          	ret

0000000080003254 <_ZN8KConsole18getCharacterOutputEv>:

char KConsole::getCharacterOutput()
{
    80003254:	fe010113          	addi	sp,sp,-32
    80003258:	00113c23          	sd	ra,24(sp)
    8000325c:	00813823          	sd	s0,16(sp)
    80003260:	00913423          	sd	s1,8(sp)
    80003264:	02010413          	addi	s0,sp,32
    hasCharactersOutput->wait();
    80003268:	00005497          	auipc	s1,0x5
    8000326c:	7d848493          	addi	s1,s1,2008 # 80008a40 <_ZN8KConsole18hasCharactersInputE>
    80003270:	0084b503          	ld	a0,8(s1)
    80003274:	00002097          	auipc	ra,0x2
    80003278:	e28080e7          	jalr	-472(ra) # 8000509c <_ZN10KSemaphore4waitEv>
    if(outputHead == outputTail)
    8000327c:	0304b783          	ld	a5,48(s1)
    80003280:	0284b703          	ld	a4,40(s1)
    80003284:	04e78063          	beq	a5,a4,800032c4 <_ZN8KConsole18getCharacterOutputEv+0x70>
        return -1;
    char c = outputBuffer[outputHead];
    80003288:	00006717          	auipc	a4,0x6
    8000328c:	80070713          	addi	a4,a4,-2048 # 80008a88 <_ZN8KConsole12outputBufferE>
    80003290:	00f70733          	add	a4,a4,a5
    80003294:	00074503          	lbu	a0,0(a4)
    outputHead = (outputHead+1)%bufferSize;
    80003298:	00178793          	addi	a5,a5,1
    8000329c:	00004737          	lui	a4,0x4
    800032a0:	fff70713          	addi	a4,a4,-1 # 3fff <_entry-0x7fffc001>
    800032a4:	00e7f7b3          	and	a5,a5,a4
    800032a8:	00005717          	auipc	a4,0x5
    800032ac:	7cf73423          	sd	a5,1992(a4) # 80008a70 <_ZN8KConsole10outputHeadE>
    return c;
}
    800032b0:	01813083          	ld	ra,24(sp)
    800032b4:	01013403          	ld	s0,16(sp)
    800032b8:	00813483          	ld	s1,8(sp)
    800032bc:	02010113          	addi	sp,sp,32
    800032c0:	00008067          	ret
        return -1;
    800032c4:	0ff00513          	li	a0,255
    800032c8:	fe9ff06f          	j	800032b0 <_ZN8KConsole18getCharacterOutputEv+0x5c>

00000000800032cc <_ZN8KConsole11putcHandlerEv>:

void KConsole::putcHandler()
{
    800032cc:	ff010113          	addi	sp,sp,-16
    800032d0:	00113423          	sd	ra,8(sp)
    800032d4:	00813023          	sd	s0,0(sp)
    800032d8:	01010413          	addi	s0,sp,16
    uint64 ch;
    __asm__ volatile("mv %0, a1" : "=r"(ch));
    800032dc:	00058513          	mv	a0,a1
    putCharacterOutput((char)ch);
    800032e0:	0ff57513          	andi	a0,a0,255
    800032e4:	00000097          	auipc	ra,0x0
    800032e8:	ef8080e7          	jalr	-264(ra) # 800031dc <_ZN8KConsole18putCharacterOutputEc>
}
    800032ec:	00813083          	ld	ra,8(sp)
    800032f0:	00013403          	ld	s0,0(sp)
    800032f4:	01010113          	addi	sp,sp,16
    800032f8:	00008067          	ret

00000000800032fc <_ZN8KConsole11getcHandlerEv>:

void KConsole::getcHandler()
{
    800032fc:	fe010113          	addi	sp,sp,-32
    80003300:	00113c23          	sd	ra,24(sp)
    80003304:	00813823          	sd	s0,16(sp)
    80003308:	00913423          	sd	s1,8(sp)
    8000330c:	02010413          	addi	s0,sp,32
    pendingGetc++;
    80003310:	00005717          	auipc	a4,0x5
    80003314:	73070713          	addi	a4,a4,1840 # 80008a40 <_ZN8KConsole18hasCharactersInputE>
    80003318:	02073783          	ld	a5,32(a4)
    8000331c:	00178793          	addi	a5,a5,1
    80003320:	02f73023          	sd	a5,32(a4)
    char ch;
    ch = getCharacterInput();
    80003324:	00000097          	auipc	ra,0x0
    80003328:	e40080e7          	jalr	-448(ra) # 80003164 <_ZN8KConsole17getCharacterInputEv>
    8000332c:	00050493          	mv	s1,a0
    if(ch!=0x01b)
    80003330:	01b00793          	li	a5,27
    80003334:	02f51663          	bne	a0,a5,80003360 <_ZN8KConsole11getcHandlerEv+0x64>
        putCharacterOutput(ch);

    if(ch==13)
    80003338:	00d00793          	li	a5,13
    8000333c:	02f48863          	beq	s1,a5,8000336c <_ZN8KConsole11getcHandlerEv+0x70>
    {
        putCharacterOutput(13);
        putCharacterOutput(10);
    }

    __asm__ volatile("mv a0, %0" : :"r"((uint64)ch));
    80003340:	00048513          	mv	a0,s1
    Riscv::w_a0_sscratch();
    80003344:	00001097          	auipc	ra,0x1
    80003348:	f98080e7          	jalr	-104(ra) # 800042dc <_ZN5Riscv13w_a0_sscratchEv>
}
    8000334c:	01813083          	ld	ra,24(sp)
    80003350:	01013403          	ld	s0,16(sp)
    80003354:	00813483          	ld	s1,8(sp)
    80003358:	02010113          	addi	sp,sp,32
    8000335c:	00008067          	ret
        putCharacterOutput(ch);
    80003360:	00000097          	auipc	ra,0x0
    80003364:	e7c080e7          	jalr	-388(ra) # 800031dc <_ZN8KConsole18putCharacterOutputEc>
    80003368:	fd1ff06f          	j	80003338 <_ZN8KConsole11getcHandlerEv+0x3c>
        putCharacterOutput(13);
    8000336c:	00d00513          	li	a0,13
    80003370:	00000097          	auipc	ra,0x0
    80003374:	e6c080e7          	jalr	-404(ra) # 800031dc <_ZN8KConsole18putCharacterOutputEc>
        putCharacterOutput(10);
    80003378:	00a00513          	li	a0,10
    8000337c:	00000097          	auipc	ra,0x0
    80003380:	e60080e7          	jalr	-416(ra) # 800031dc <_ZN8KConsole18putCharacterOutputEc>
    80003384:	fbdff06f          	j	80003340 <_ZN8KConsole11getcHandlerEv+0x44>

0000000080003388 <_ZN8KConsole17outputBufferEmptyEv>:

bool KConsole::outputBufferEmpty()
{
    80003388:	ff010113          	addi	sp,sp,-16
    8000338c:	00813423          	sd	s0,8(sp)
    80003390:	01010413          	addi	s0,sp,16
    return pendingPutc == 0;
}
    80003394:	00005517          	auipc	a0,0x5
    80003398:	6e453503          	ld	a0,1764(a0) # 80008a78 <_ZN8KConsole11pendingPutcE>
    8000339c:	00153513          	seqz	a0,a0
    800033a0:	00813403          	ld	s0,8(sp)
    800033a4:	01010113          	addi	sp,sp,16
    800033a8:	00008067          	ret

00000000800033ac <_ZN8KConsole23sendCharactersToConsoleEPv>:
{
    800033ac:	fe010113          	addi	sp,sp,-32
    800033b0:	00113c23          	sd	ra,24(sp)
    800033b4:	00813823          	sd	s0,16(sp)
    800033b8:	02010413          	addi	s0,sp,32
    800033bc:	0180006f          	j	800033d4 <_ZN8KConsole23sendCharactersToConsoleEPv+0x28>
                thread_exit_kernel();
    800033c0:	ffffe097          	auipc	ra,0xffffe
    800033c4:	ec0080e7          	jalr	-320(ra) # 80001280 <_Z18thread_exit_kernelv>
    800033c8:	0340006f          	j	800033fc <_ZN8KConsole23sendCharactersToConsoleEPv+0x50>
                thread_dispatch_kernel();
    800033cc:	ffffe097          	auipc	ra,0xffffe
    800033d0:	e6c080e7          	jalr	-404(ra) # 80001238 <_Z22thread_dispatch_kernelv>
            if(Riscv::finishSystem && KConsole::outputBufferEmpty() && pendingGetc == 0)
    800033d4:	00005797          	auipc	a5,0x5
    800033d8:	5bc7b783          	ld	a5,1468(a5) # 80008990 <_GLOBAL_OFFSET_TABLE_+0x88>
    800033dc:	0007c783          	lbu	a5,0(a5)
    800033e0:	00078e63          	beqz	a5,800033fc <_ZN8KConsole23sendCharactersToConsoleEPv+0x50>
    800033e4:	00000097          	auipc	ra,0x0
    800033e8:	fa4080e7          	jalr	-92(ra) # 80003388 <_ZN8KConsole17outputBufferEmptyEv>
    800033ec:	00050863          	beqz	a0,800033fc <_ZN8KConsole23sendCharactersToConsoleEPv+0x50>
    800033f0:	00005797          	auipc	a5,0x5
    800033f4:	6707b783          	ld	a5,1648(a5) # 80008a60 <_ZN8KConsole11pendingGetcE>
    800033f8:	fc0784e3          	beqz	a5,800033c0 <_ZN8KConsole23sendCharactersToConsoleEPv+0x14>
            uint64 operation = *(uint8*)CONSOLE_STATUS;
    800033fc:	00005797          	auipc	a5,0x5
    80003400:	51c7b783          	ld	a5,1308(a5) # 80008918 <_GLOBAL_OFFSET_TABLE_+0x10>
    80003404:	0007b783          	ld	a5,0(a5)
    80003408:	0007c783          	lbu	a5,0(a5)
            if ((operation & STATUS_WRITE_MASK) && pendingPutc > 0)
    8000340c:	0207f793          	andi	a5,a5,32
    80003410:	fa078ee3          	beqz	a5,800033cc <_ZN8KConsole23sendCharactersToConsoleEPv+0x20>
    80003414:	00005797          	auipc	a5,0x5
    80003418:	6647b783          	ld	a5,1636(a5) # 80008a78 <_ZN8KConsole11pendingPutcE>
    8000341c:	fa0788e3          	beqz	a5,800033cc <_ZN8KConsole23sendCharactersToConsoleEPv+0x20>
                char volatile c = sysCallGetCharOutput();
    80003420:	ffffe097          	auipc	ra,0xffffe
    80003424:	e38080e7          	jalr	-456(ra) # 80001258 <_Z20sysCallGetCharOutputv>
    80003428:	fea407a3          	sb	a0,-17(s0)
                pendingPutc--;
    8000342c:	00005717          	auipc	a4,0x5
    80003430:	61470713          	addi	a4,a4,1556 # 80008a40 <_ZN8KConsole18hasCharactersInputE>
    80003434:	03873783          	ld	a5,56(a4)
    80003438:	fff78793          	addi	a5,a5,-1
    8000343c:	02f73c23          	sd	a5,56(a4)
                *(uint8*)CONSOLE_RX_DATA = c;
    80003440:	00005797          	auipc	a5,0x5
    80003444:	4d07b783          	ld	a5,1232(a5) # 80008910 <_GLOBAL_OFFSET_TABLE_+0x8>
    80003448:	0007b783          	ld	a5,0(a5)
    8000344c:	fef44703          	lbu	a4,-17(s0)
    80003450:	00e78023          	sb	a4,0(a5)
    80003454:	f81ff06f          	j	800033d4 <_ZN8KConsole23sendCharactersToConsoleEPv+0x28>

0000000080003458 <_ZN8KConsole14getCharHandlerEv>:

void KConsole::getCharHandler()
{
    80003458:	ff010113          	addi	sp,sp,-16
    8000345c:	00113423          	sd	ra,8(sp)
    80003460:	00813023          	sd	s0,0(sp)
    80003464:	01010413          	addi	s0,sp,16
    char ch;
    ch = getCharacterOutput();
    80003468:	00000097          	auipc	ra,0x0
    8000346c:	dec080e7          	jalr	-532(ra) # 80003254 <_ZN8KConsole18getCharacterOutputEv>
    __asm__ volatile("mv a0, %0" : :"r"((uint64)ch));
    80003470:	00050513          	mv	a0,a0
    Riscv::w_a0_sscratch();
    80003474:	00001097          	auipc	ra,0x1
    80003478:	e68080e7          	jalr	-408(ra) # 800042dc <_ZN5Riscv13w_a0_sscratchEv>
}
    8000347c:	00813083          	ld	ra,8(sp)
    80003480:	00013403          	ld	s0,0(sp)
    80003484:	01010113          	addi	sp,sp,16
    80003488:	00008067          	ret

000000008000348c <_ZN8KConsole15trapPrintStringEPKc>:

void KConsole::trapPrintString(const char *string)
{
    8000348c:	fe010113          	addi	sp,sp,-32
    80003490:	00113c23          	sd	ra,24(sp)
    80003494:	00813823          	sd	s0,16(sp)
    80003498:	00913423          	sd	s1,8(sp)
    8000349c:	02010413          	addi	s0,sp,32
    800034a0:	00050493          	mv	s1,a0
    while (*string != '\0')
    800034a4:	0004c503          	lbu	a0,0(s1)
    800034a8:	00050a63          	beqz	a0,800034bc <_ZN8KConsole15trapPrintStringEPKc+0x30>
    {
        KConsole::putCharacterOutput(*string);
    800034ac:	00000097          	auipc	ra,0x0
    800034b0:	d30080e7          	jalr	-720(ra) # 800031dc <_ZN8KConsole18putCharacterOutputEc>
        string++;
    800034b4:	00148493          	addi	s1,s1,1
    while (*string != '\0')
    800034b8:	fedff06f          	j	800034a4 <_ZN8KConsole15trapPrintStringEPKc+0x18>
    }
}
    800034bc:	01813083          	ld	ra,24(sp)
    800034c0:	01013403          	ld	s0,16(sp)
    800034c4:	00813483          	ld	s1,8(sp)
    800034c8:	02010113          	addi	sp,sp,32
    800034cc:	00008067          	ret

00000000800034d0 <_ZN8KConsole12trapPrintIntEmii>:

void KConsole::trapPrintInt(size_t xx, int base, int sgn)
{
    800034d0:	fb010113          	addi	sp,sp,-80
    800034d4:	04113423          	sd	ra,72(sp)
    800034d8:	04813023          	sd	s0,64(sp)
    800034dc:	02913c23          	sd	s1,56(sp)
    800034e0:	05010413          	addi	s0,sp,80
    char digits[] = "0123456789ABCDEF";
    800034e4:	00005797          	auipc	a5,0x5
    800034e8:	e8478793          	addi	a5,a5,-380 # 80008368 <CONSOLE_STATUS+0x358>
    800034ec:	0007b703          	ld	a4,0(a5)
    800034f0:	fce43423          	sd	a4,-56(s0)
    800034f4:	0087b703          	ld	a4,8(a5)
    800034f8:	fce43823          	sd	a4,-48(s0)
    800034fc:	0107c783          	lbu	a5,16(a5)
    80003500:	fcf40c23          	sb	a5,-40(s0)
        x = -xx;
    } else {
        x = xx;
    }

    i = 0;
    80003504:	00000493          	li	s1,0
    do {
        buf[i++] = digits[x % base];
    80003508:	02b57733          	remu	a4,a0,a1
    8000350c:	fe040693          	addi	a3,s0,-32
    80003510:	00e68733          	add	a4,a3,a4
    80003514:	fe874703          	lbu	a4,-24(a4)
    80003518:	009687b3          	add	a5,a3,s1
    8000351c:	0014849b          	addiw	s1,s1,1
    80003520:	fce78c23          	sb	a4,-40(a5)
    }while((x /= base) != 0);
    80003524:	00050793          	mv	a5,a0
    80003528:	02b55533          	divu	a0,a0,a1
    8000352c:	fcb7fee3          	bgeu	a5,a1,80003508 <_ZN8KConsole12trapPrintIntEmii+0x38>
    if(neg)
        buf[i++] = '-';

    while(--i >= 0)
    80003530:	fff4849b          	addiw	s1,s1,-1
    80003534:	0004ce63          	bltz	s1,80003550 <_ZN8KConsole12trapPrintIntEmii+0x80>
        KConsole::putCharacterOutput(buf[i]);
    80003538:	fe040793          	addi	a5,s0,-32
    8000353c:	009787b3          	add	a5,a5,s1
    80003540:	fd87c503          	lbu	a0,-40(a5)
    80003544:	00000097          	auipc	ra,0x0
    80003548:	c98080e7          	jalr	-872(ra) # 800031dc <_ZN8KConsole18putCharacterOutputEc>
    8000354c:	fe5ff06f          	j	80003530 <_ZN8KConsole12trapPrintIntEmii+0x60>
}
    80003550:	04813083          	ld	ra,72(sp)
    80003554:	04013403          	ld	s0,64(sp)
    80003558:	03813483          	ld	s1,56(sp)
    8000355c:	05010113          	addi	sp,sp,80
    80003560:	00008067          	ret

0000000080003564 <_ZN8KConsole18trapPrintStringIntEPKcmi>:

void KConsole::trapPrintStringInt(const char *string, size_t xx, int base)
{
    80003564:	fe010113          	addi	sp,sp,-32
    80003568:	00113c23          	sd	ra,24(sp)
    8000356c:	00813823          	sd	s0,16(sp)
    80003570:	00913423          	sd	s1,8(sp)
    80003574:	01213023          	sd	s2,0(sp)
    80003578:	02010413          	addi	s0,sp,32
    8000357c:	00058493          	mv	s1,a1
    80003580:	00060913          	mv	s2,a2
    trapPrintString(string);
    80003584:	00000097          	auipc	ra,0x0
    80003588:	f08080e7          	jalr	-248(ra) # 8000348c <_ZN8KConsole15trapPrintStringEPKc>
    trapPrintInt(xx,base);
    8000358c:	00000613          	li	a2,0
    80003590:	00090593          	mv	a1,s2
    80003594:	00048513          	mv	a0,s1
    80003598:	00000097          	auipc	ra,0x0
    8000359c:	f38080e7          	jalr	-200(ra) # 800034d0 <_ZN8KConsole12trapPrintIntEmii>
    trapPrintString("\n");
    800035a0:	00005517          	auipc	a0,0x5
    800035a4:	be050513          	addi	a0,a0,-1056 # 80008180 <CONSOLE_STATUS+0x170>
    800035a8:	00000097          	auipc	ra,0x0
    800035ac:	ee4080e7          	jalr	-284(ra) # 8000348c <_ZN8KConsole15trapPrintStringEPKc>
}
    800035b0:	01813083          	ld	ra,24(sp)
    800035b4:	01013403          	ld	s0,16(sp)
    800035b8:	00813483          	ld	s1,8(sp)
    800035bc:	00013903          	ld	s2,0(sp)
    800035c0:	02010113          	addi	sp,sp,32
    800035c4:	00008067          	ret

00000000800035c8 <_ZN12SleepPCBList17insertSleepingPCBEv>:
#include "../../h/Riscv.hpp"

PCB* SleepPCBList::sleepingPCBHead = 0;

void SleepPCBList::insertSleepingPCB()
{
    800035c8:	ff010113          	addi	sp,sp,-16
    800035cc:	00813423          	sd	s0,8(sp)
    800035d0:	01010413          	addi	s0,sp,16
    PCB::running->setState(PCB::SLEEPING);
    800035d4:	00005797          	auipc	a5,0x5
    800035d8:	3cc7b783          	ld	a5,972(a5) # 800089a0 <_GLOBAL_OFFSET_TABLE_+0x98>
    800035dc:	0007b603          	ld	a2,0(a5)
    void setState(State s) {state = s;}
    800035e0:	00500793          	li	a5,5
    800035e4:	04f62023          	sw	a5,64(a2)
    PCB* prev = 0;
    PCB* curr = sleepingPCBHead;
    800035e8:	0000d797          	auipc	a5,0xd
    800035ec:	4a07b783          	ld	a5,1184(a5) # 80010a88 <_ZN12SleepPCBList15sleepingPCBHeadE>
    PCB* prev = 0;
    800035f0:	00000593          	li	a1,0
    while(curr != 0)
    800035f4:	02078063          	beqz	a5,80003614 <_ZN12SleepPCBList17insertSleepingPCBEv+0x4c>
    uint64 getTimeToSleep() {return timeToSleep;}
    800035f8:	02063683          	ld	a3,32(a2)
    800035fc:	0207b703          	ld	a4,32(a5)
    {
        if(PCB::running->getTimeToSleep() < curr->getTimeToSleep())
    80003600:	00e6e863          	bltu	a3,a4,80003610 <_ZN12SleepPCBList17insertSleepingPCBEv+0x48>
        {
            PCB::running->nextPCB = curr;
            break;
        }
        prev = curr;
    80003604:	00078593          	mv	a1,a5
        curr=curr->nextPCB;
    80003608:	0087b783          	ld	a5,8(a5)
    while(curr != 0)
    8000360c:	fe9ff06f          	j	800035f4 <_ZN12SleepPCBList17insertSleepingPCBEv+0x2c>
            PCB::running->nextPCB = curr;
    80003610:	00f63423          	sd	a5,8(a2)
    }

    if(prev == 0)
    80003614:	00058a63          	beqz	a1,80003628 <_ZN12SleepPCBList17insertSleepingPCBEv+0x60>
        sleepingPCBHead = PCB::running;
    else
        prev->nextPCB = PCB::running;
    80003618:	00c5b423          	sd	a2,8(a1)
}
    8000361c:	00813403          	ld	s0,8(sp)
    80003620:	01010113          	addi	sp,sp,16
    80003624:	00008067          	ret
        sleepingPCBHead = PCB::running;
    80003628:	0000d797          	auipc	a5,0xd
    8000362c:	46c7b023          	sd	a2,1120(a5) # 80010a88 <_ZN12SleepPCBList15sleepingPCBHeadE>
    80003630:	fedff06f          	j	8000361c <_ZN12SleepPCBList17insertSleepingPCBEv+0x54>

0000000080003634 <_ZN12SleepPCBList13tryToWakePCBsEv>:

void SleepPCBList::tryToWakePCBs()
{
    PCB* curr = sleepingPCBHead;
    80003634:	0000d517          	auipc	a0,0xd
    80003638:	45453503          	ld	a0,1108(a0) # 80010a88 <_ZN12SleepPCBList15sleepingPCBHeadE>
    if(curr == 0)
    8000363c:	06050e63          	beqz	a0,800036b8 <_ZN12SleepPCBList13tryToWakePCBsEv+0x84>
        return;

    while(curr != 0 && Riscv::totalTime >= curr->getTimeToSleep())
    80003640:	06050c63          	beqz	a0,800036b8 <_ZN12SleepPCBList13tryToWakePCBsEv+0x84>
    80003644:	02053783          	ld	a5,32(a0)
    80003648:	00005717          	auipc	a4,0x5
    8000364c:	32073703          	ld	a4,800(a4) # 80008968 <_GLOBAL_OFFSET_TABLE_+0x60>
    80003650:	00073703          	ld	a4,0(a4)
    80003654:	06f76263          	bltu	a4,a5,800036b8 <_ZN12SleepPCBList13tryToWakePCBsEv+0x84>
{
    80003658:	fe010113          	addi	sp,sp,-32
    8000365c:	00113c23          	sd	ra,24(sp)
    80003660:	00813823          	sd	s0,16(sp)
    80003664:	00913423          	sd	s1,8(sp)
    80003668:	02010413          	addi	s0,sp,32
    8000366c:	0180006f          	j	80003684 <_ZN12SleepPCBList13tryToWakePCBsEv+0x50>
    80003670:	0204b783          	ld	a5,32(s1)
    while(curr != 0 && Riscv::totalTime >= curr->getTimeToSleep())
    80003674:	00005717          	auipc	a4,0x5
    80003678:	2f473703          	ld	a4,756(a4) # 80008968 <_GLOBAL_OFFSET_TABLE_+0x60>
    8000367c:	00073703          	ld	a4,0(a4)
    80003680:	02f76263          	bltu	a4,a5,800036a4 <_ZN12SleepPCBList13tryToWakePCBsEv+0x70>
    {
        PCB *old = curr;
        curr = curr->nextPCB;
    80003684:	00853483          	ld	s1,8(a0)
        old->nextPCB = 0;
    80003688:	00053423          	sd	zero,8(a0)
        Scheduler::put(old);
    8000368c:	00000097          	auipc	ra,0x0
    80003690:	0b8080e7          	jalr	184(ra) # 80003744 <_ZN9Scheduler3putEP3PCB>
        sleepingPCBHead = curr;
    80003694:	0000d797          	auipc	a5,0xd
    80003698:	3e97ba23          	sd	s1,1012(a5) # 80010a88 <_ZN12SleepPCBList15sleepingPCBHeadE>
        curr = curr->nextPCB;
    8000369c:	00048513          	mv	a0,s1
    while(curr != 0 && Riscv::totalTime >= curr->getTimeToSleep())
    800036a0:	fc0498e3          	bnez	s1,80003670 <_ZN12SleepPCBList13tryToWakePCBsEv+0x3c>
    }
}
    800036a4:	01813083          	ld	ra,24(sp)
    800036a8:	01013403          	ld	s0,16(sp)
    800036ac:	00813483          	ld	s1,8(sp)
    800036b0:	02010113          	addi	sp,sp,32
    800036b4:	00008067          	ret
    800036b8:	00008067          	ret

00000000800036bc <_ZN9SchedulernwEm>:

PCB* Scheduler::schedulerPCBHead = 0;
PCB* Scheduler::schedulerPCBTail = 0;

void *Scheduler::operator new(size_t size)
{
    800036bc:	ff010113          	addi	sp,sp,-16
    800036c0:	00113423          	sd	ra,8(sp)
    800036c4:	00813023          	sd	s0,0(sp)
    800036c8:	01010413          	addi	s0,sp,16
    return MemoryAllocator::kmalloc(size);
    800036cc:	00001097          	auipc	ra,0x1
    800036d0:	344080e7          	jalr	836(ra) # 80004a10 <_ZN15MemoryAllocator7kmallocEm>
}
    800036d4:	00813083          	ld	ra,8(sp)
    800036d8:	00013403          	ld	s0,0(sp)
    800036dc:	01010113          	addi	sp,sp,16
    800036e0:	00008067          	ret

00000000800036e4 <_ZN9SchedulerdlEPv>:

void Scheduler::operator delete(void *p)
{
    800036e4:	ff010113          	addi	sp,sp,-16
    800036e8:	00113423          	sd	ra,8(sp)
    800036ec:	00813023          	sd	s0,0(sp)
    800036f0:	01010413          	addi	s0,sp,16
    MemoryAllocator::kfree(p);
    800036f4:	00001097          	auipc	ra,0x1
    800036f8:	38c080e7          	jalr	908(ra) # 80004a80 <_ZN15MemoryAllocator5kfreeEPv>
}
    800036fc:	00813083          	ld	ra,8(sp)
    80003700:	00013403          	ld	s0,0(sp)
    80003704:	01010113          	addi	sp,sp,16
    80003708:	00008067          	ret

000000008000370c <_ZN9Scheduler7getSizeEv>:

int Scheduler::getSize()
{
    8000370c:	ff010113          	addi	sp,sp,-16
    80003710:	00813423          	sd	s0,8(sp)
    80003714:	01010413          	addi	s0,sp,16
    uint64 sz = 0;
    PCB* curr = schedulerPCBHead;
    80003718:	0000d797          	auipc	a5,0xd
    8000371c:	3787b783          	ld	a5,888(a5) # 80010a90 <_ZN9Scheduler16schedulerPCBHeadE>
    uint64 sz = 0;
    80003720:	00000513          	li	a0,0
    while(curr != 0)
    80003724:	00078863          	beqz	a5,80003734 <_ZN9Scheduler7getSizeEv+0x28>
    {
        sz++;
    80003728:	00150513          	addi	a0,a0,1
        curr = curr->nextPCB;
    8000372c:	0087b783          	ld	a5,8(a5)
    while(curr != 0)
    80003730:	ff5ff06f          	j	80003724 <_ZN9Scheduler7getSizeEv+0x18>
    }
    return sz;
}
    80003734:	0005051b          	sext.w	a0,a0
    80003738:	00813403          	ld	s0,8(sp)
    8000373c:	01010113          	addi	sp,sp,16
    80003740:	00008067          	ret

0000000080003744 <_ZN9Scheduler3putEP3PCB>:

void Scheduler::put(PCB *pcb)
{
    80003744:	ff010113          	addi	sp,sp,-16
    80003748:	00813423          	sd	s0,8(sp)
    8000374c:	01010413          	addi	s0,sp,16
    void setState(State s) {state = s;}
    80003750:	04052023          	sw	zero,64(a0)
    pcb->setState(PCB::READY);
    pcb->nextPCB = 0;
    80003754:	00053423          	sd	zero,8(a0)
    if(schedulerPCBHead == 0)
    80003758:	0000d797          	auipc	a5,0xd
    8000375c:	3387b783          	ld	a5,824(a5) # 80010a90 <_ZN9Scheduler16schedulerPCBHeadE>
    80003760:	02078263          	beqz	a5,80003784 <_ZN9Scheduler3putEP3PCB+0x40>
        schedulerPCBHead = schedulerPCBTail = pcb;
    else
    {
        schedulerPCBTail->nextPCB = pcb;
    80003764:	0000d797          	auipc	a5,0xd
    80003768:	32c78793          	addi	a5,a5,812 # 80010a90 <_ZN9Scheduler16schedulerPCBHeadE>
    8000376c:	0087b703          	ld	a4,8(a5)
    80003770:	00a73423          	sd	a0,8(a4)
        schedulerPCBTail = pcb;
    80003774:	00a7b423          	sd	a0,8(a5)
    }
}
    80003778:	00813403          	ld	s0,8(sp)
    8000377c:	01010113          	addi	sp,sp,16
    80003780:	00008067          	ret
        schedulerPCBHead = schedulerPCBTail = pcb;
    80003784:	0000d797          	auipc	a5,0xd
    80003788:	30c78793          	addi	a5,a5,780 # 80010a90 <_ZN9Scheduler16schedulerPCBHeadE>
    8000378c:	00a7b423          	sd	a0,8(a5)
    80003790:	00a7b023          	sd	a0,0(a5)
    80003794:	fe5ff06f          	j	80003778 <_ZN9Scheduler3putEP3PCB+0x34>

0000000080003798 <_ZN9Scheduler3getEv>:

PCB *Scheduler::get()
{
    80003798:	ff010113          	addi	sp,sp,-16
    8000379c:	00813423          	sd	s0,8(sp)
    800037a0:	01010413          	addi	s0,sp,16
    if(schedulerPCBHead == 0)
    800037a4:	0000d517          	auipc	a0,0xd
    800037a8:	2ec53503          	ld	a0,748(a0) # 80010a90 <_ZN9Scheduler16schedulerPCBHeadE>
    800037ac:	00050c63          	beqz	a0,800037c4 <_ZN9Scheduler3getEv+0x2c>
        return 0;
    PCB* retval = schedulerPCBHead;
    if(schedulerPCBHead->nextPCB == 0)
    800037b0:	00853783          	ld	a5,8(a0)
    800037b4:	00078e63          	beqz	a5,800037d0 <_ZN9Scheduler3getEv+0x38>
        schedulerPCBHead = schedulerPCBTail = 0;
    else
        schedulerPCBHead = schedulerPCBHead->nextPCB;
    800037b8:	0000d717          	auipc	a4,0xd
    800037bc:	2cf73c23          	sd	a5,728(a4) # 80010a90 <_ZN9Scheduler16schedulerPCBHeadE>
    retval->nextPCB = 0;
    800037c0:	00053423          	sd	zero,8(a0)
    return retval;
}
    800037c4:	00813403          	ld	s0,8(sp)
    800037c8:	01010113          	addi	sp,sp,16
    800037cc:	00008067          	ret
        schedulerPCBHead = schedulerPCBTail = 0;
    800037d0:	0000d797          	auipc	a5,0xd
    800037d4:	2c078793          	addi	a5,a5,704 # 80010a90 <_ZN9Scheduler16schedulerPCBHeadE>
    800037d8:	0007b423          	sd	zero,8(a5)
    800037dc:	0007b023          	sd	zero,0(a5)
    800037e0:	fe1ff06f          	j	800037c0 <_ZN9Scheduler3getEv+0x28>

00000000800037e4 <_ZN9Scheduler5printEv>:

void Scheduler::print()
{
    800037e4:	fe010113          	addi	sp,sp,-32
    800037e8:	00113c23          	sd	ra,24(sp)
    800037ec:	00813823          	sd	s0,16(sp)
    800037f0:	00913423          	sd	s1,8(sp)
    800037f4:	02010413          	addi	s0,sp,32
    //trapPrintString("Scheduler print\n");
    PCB* curr = schedulerPCBHead;
    800037f8:	0000d497          	auipc	s1,0xd
    800037fc:	2984b483          	ld	s1,664(s1) # 80010a90 <_ZN9Scheduler16schedulerPCBHeadE>
    while(curr != 0)
    80003800:	02048863          	beqz	s1,80003830 <_ZN9Scheduler5printEv+0x4c>
    {
        KConsole::trapPrintInt((uint64)curr, 16);
    80003804:	00000613          	li	a2,0
    80003808:	01000593          	li	a1,16
    8000380c:	00048513          	mv	a0,s1
    80003810:	00000097          	auipc	ra,0x0
    80003814:	cc0080e7          	jalr	-832(ra) # 800034d0 <_ZN8KConsole12trapPrintIntEmii>
        KConsole::trapPrintString("\n");
    80003818:	00005517          	auipc	a0,0x5
    8000381c:	96850513          	addi	a0,a0,-1688 # 80008180 <CONSOLE_STATUS+0x170>
    80003820:	00000097          	auipc	ra,0x0
    80003824:	c6c080e7          	jalr	-916(ra) # 8000348c <_ZN8KConsole15trapPrintStringEPKc>
        curr = curr->nextPCB;
    80003828:	0084b483          	ld	s1,8(s1)
    while(curr != 0)
    8000382c:	fd5ff06f          	j	80003800 <_ZN9Scheduler5printEv+0x1c>
    }
}
    80003830:	01813083          	ld	ra,24(sp)
    80003834:	01013403          	ld	s0,16(sp)
    80003838:	00813483          	ld	s1,8(sp)
    8000383c:	02010113          	addi	sp,sp,32
    80003840:	00008067          	ret

0000000080003844 <main>:
#include "../../h/Riscv.hpp"

void main()
{
    80003844:	ff010113          	addi	sp,sp,-16
    80003848:	00113423          	sd	ra,8(sp)
    8000384c:	00813023          	sd	s0,0(sp)
    80003850:	01010413          	addi	s0,sp,16
    Riscv::kernelMain();
    80003854:	00001097          	auipc	ra,0x1
    80003858:	990080e7          	jalr	-1648(ra) # 800041e4 <_ZN5Riscv10kernelMainEv>
    8000385c:	00813083          	ld	ra,8(sp)
    80003860:	00013403          	ld	s0,0(sp)
    80003864:	01010113          	addi	sp,sp,16
    80003868:	00008067          	ret

000000008000386c <_Z14buddyInitTest1v>:
#include "../../h/buddyTests.hpp"
#include "../../h/KConsole.hpp"
#include "../../h/MemoryAllocator.hpp"

void buddyInitTest1()
{
    8000386c:	ff010113          	addi	sp,sp,-16
    80003870:	00113423          	sd	ra,8(sp)
    80003874:	00813023          	sd	s0,0(sp)
    80003878:	01010413          	addi	s0,sp,16
    buddyAllocator* buddy = buddy_init((void*)HEAP_START_ADDR, 18);
    8000387c:	01200593          	li	a1,18
    80003880:	00005797          	auipc	a5,0x5
    80003884:	0a07b783          	ld	a5,160(a5) # 80008920 <_GLOBAL_OFFSET_TABLE_+0x18>
    80003888:	0007b503          	ld	a0,0(a5)
    8000388c:	fffff097          	auipc	ra,0xfffff
    80003890:	4d8080e7          	jalr	1240(ra) # 80002d64 <_Z10buddy_initPvm>
    printBuddyInfo(buddy);
    80003894:	fffff097          	auipc	ra,0xfffff
    80003898:	628080e7          	jalr	1576(ra) # 80002ebc <_Z14printBuddyInfoP14buddyAllocator>
}
    8000389c:	00813083          	ld	ra,8(sp)
    800038a0:	00013403          	ld	s0,0(sp)
    800038a4:	01010113          	addi	sp,sp,16
    800038a8:	00008067          	ret

00000000800038ac <_Z20buddyOnlyAllocsTest1v>:

void buddyOnlyAllocsTest1()
{
    800038ac:	fe010113          	addi	sp,sp,-32
    800038b0:	00113c23          	sd	ra,24(sp)
    800038b4:	00813823          	sd	s0,16(sp)
    800038b8:	00913423          	sd	s1,8(sp)
    800038bc:	02010413          	addi	s0,sp,32
    buddyAllocator* buddy = buddy_init((void*)HEAP_START_ADDR, 10);
    800038c0:	00a00593          	li	a1,10
    800038c4:	00005797          	auipc	a5,0x5
    800038c8:	05c7b783          	ld	a5,92(a5) # 80008920 <_GLOBAL_OFFSET_TABLE_+0x18>
    800038cc:	0007b503          	ld	a0,0(a5)
    800038d0:	fffff097          	auipc	ra,0xfffff
    800038d4:	494080e7          	jalr	1172(ra) # 80002d64 <_Z10buddy_initPvm>
    800038d8:	00050493          	mv	s1,a0
    printBuddyInfo(buddy);
    800038dc:	fffff097          	auipc	ra,0xfffff
    800038e0:	5e0080e7          	jalr	1504(ra) # 80002ebc <_Z14printBuddyInfoP14buddyAllocator>
    buddy_alloc(buddy,1);
    800038e4:	00100593          	li	a1,1
    800038e8:	00048513          	mv	a0,s1
    800038ec:	fffff097          	auipc	ra,0xfffff
    800038f0:	268080e7          	jalr	616(ra) # 80002b54 <_Z11buddy_allocP14buddyAllocatorm>
    printBuddyInfo(buddy);
    800038f4:	00048513          	mv	a0,s1
    800038f8:	fffff097          	auipc	ra,0xfffff
    800038fc:	5c4080e7          	jalr	1476(ra) # 80002ebc <_Z14printBuddyInfoP14buddyAllocator>
    buddy_alloc(buddy,1);
    80003900:	00100593          	li	a1,1
    80003904:	00048513          	mv	a0,s1
    80003908:	fffff097          	auipc	ra,0xfffff
    8000390c:	24c080e7          	jalr	588(ra) # 80002b54 <_Z11buddy_allocP14buddyAllocatorm>
    printBuddyInfo(buddy);
    80003910:	00048513          	mv	a0,s1
    80003914:	fffff097          	auipc	ra,0xfffff
    80003918:	5a8080e7          	jalr	1448(ra) # 80002ebc <_Z14printBuddyInfoP14buddyAllocator>
    buddy_alloc(buddy,1);
    8000391c:	00100593          	li	a1,1
    80003920:	00048513          	mv	a0,s1
    80003924:	fffff097          	auipc	ra,0xfffff
    80003928:	230080e7          	jalr	560(ra) # 80002b54 <_Z11buddy_allocP14buddyAllocatorm>
    printBuddyInfo(buddy);
    8000392c:	00048513          	mv	a0,s1
    80003930:	fffff097          	auipc	ra,0xfffff
    80003934:	58c080e7          	jalr	1420(ra) # 80002ebc <_Z14printBuddyInfoP14buddyAllocator>
    buddy_alloc(buddy,3);
    80003938:	00300593          	li	a1,3
    8000393c:	00048513          	mv	a0,s1
    80003940:	fffff097          	auipc	ra,0xfffff
    80003944:	214080e7          	jalr	532(ra) # 80002b54 <_Z11buddy_allocP14buddyAllocatorm>
    printBuddyInfo(buddy);
    80003948:	00048513          	mv	a0,s1
    8000394c:	fffff097          	auipc	ra,0xfffff
    80003950:	570080e7          	jalr	1392(ra) # 80002ebc <_Z14printBuddyInfoP14buddyAllocator>
}
    80003954:	01813083          	ld	ra,24(sp)
    80003958:	01013403          	ld	s0,16(sp)
    8000395c:	00813483          	ld	s1,8(sp)
    80003960:	02010113          	addi	sp,sp,32
    80003964:	00008067          	ret

0000000080003968 <_Z20buddyOnlyAllocsTest2v>:

void buddyOnlyAllocsTest2()
{
    80003968:	fe010113          	addi	sp,sp,-32
    8000396c:	00113c23          	sd	ra,24(sp)
    80003970:	00813823          	sd	s0,16(sp)
    80003974:	00913423          	sd	s1,8(sp)
    80003978:	02010413          	addi	s0,sp,32
    buddyAllocator* buddy = buddy_init((void*)HEAP_START_ADDR, 10);
    8000397c:	00a00593          	li	a1,10
    80003980:	00005797          	auipc	a5,0x5
    80003984:	fa07b783          	ld	a5,-96(a5) # 80008920 <_GLOBAL_OFFSET_TABLE_+0x18>
    80003988:	0007b503          	ld	a0,0(a5)
    8000398c:	fffff097          	auipc	ra,0xfffff
    80003990:	3d8080e7          	jalr	984(ra) # 80002d64 <_Z10buddy_initPvm>
    80003994:	00050493          	mv	s1,a0
    void* adr = buddy_alloc(buddy, 100);
    80003998:	06400593          	li	a1,100
    8000399c:	fffff097          	auipc	ra,0xfffff
    800039a0:	1b8080e7          	jalr	440(ra) # 80002b54 <_Z11buddy_allocP14buddyAllocatorm>
    if(adr == nullptr)
    800039a4:	00050c63          	beqz	a0,800039bc <_Z20buddyOnlyAllocsTest2v+0x54>
    {
        printBuddyInfo(buddy);
    }
}
    800039a8:	01813083          	ld	ra,24(sp)
    800039ac:	01013403          	ld	s0,16(sp)
    800039b0:	00813483          	ld	s1,8(sp)
    800039b4:	02010113          	addi	sp,sp,32
    800039b8:	00008067          	ret
        printBuddyInfo(buddy);
    800039bc:	00048513          	mv	a0,s1
    800039c0:	fffff097          	auipc	ra,0xfffff
    800039c4:	4fc080e7          	jalr	1276(ra) # 80002ebc <_Z14printBuddyInfoP14buddyAllocator>
}
    800039c8:	fe1ff06f          	j	800039a8 <_Z20buddyOnlyAllocsTest2v+0x40>

00000000800039cc <_Z19buddyAllocFreeTest1v>:

void buddyAllocFreeTest1()
{
    800039cc:	fd010113          	addi	sp,sp,-48
    800039d0:	02113423          	sd	ra,40(sp)
    800039d4:	02813023          	sd	s0,32(sp)
    800039d8:	00913c23          	sd	s1,24(sp)
    800039dc:	01213823          	sd	s2,16(sp)
    800039e0:	01313423          	sd	s3,8(sp)
    800039e4:	03010413          	addi	s0,sp,48
    buddyAllocator* buddy = buddy_init((void*)HEAP_START_ADDR, 10);
    800039e8:	00a00593          	li	a1,10
    800039ec:	00005797          	auipc	a5,0x5
    800039f0:	f347b783          	ld	a5,-204(a5) # 80008920 <_GLOBAL_OFFSET_TABLE_+0x18>
    800039f4:	0007b503          	ld	a0,0(a5)
    800039f8:	fffff097          	auipc	ra,0xfffff
    800039fc:	36c080e7          	jalr	876(ra) # 80002d64 <_Z10buddy_initPvm>
    80003a00:	00050493          	mv	s1,a0
    printBuddyInfo(buddy);
    80003a04:	fffff097          	auipc	ra,0xfffff
    80003a08:	4b8080e7          	jalr	1208(ra) # 80002ebc <_Z14printBuddyInfoP14buddyAllocator>
    void* adr = buddy_alloc(buddy,1);
    80003a0c:	00100593          	li	a1,1
    80003a10:	00048513          	mv	a0,s1
    80003a14:	fffff097          	auipc	ra,0xfffff
    80003a18:	140080e7          	jalr	320(ra) # 80002b54 <_Z11buddy_allocP14buddyAllocatorm>
    80003a1c:	00050913          	mv	s2,a0
    printBuddyInfo(buddy);
    80003a20:	00048513          	mv	a0,s1
    80003a24:	fffff097          	auipc	ra,0xfffff
    80003a28:	498080e7          	jalr	1176(ra) # 80002ebc <_Z14printBuddyInfoP14buddyAllocator>
    buddy_free(buddy, adr, 1);
    80003a2c:	00100613          	li	a2,1
    80003a30:	00090593          	mv	a1,s2
    80003a34:	00048513          	mv	a0,s1
    80003a38:	fffff097          	auipc	ra,0xfffff
    80003a3c:	40c080e7          	jalr	1036(ra) # 80002e44 <_Z10buddy_freeP14buddyAllocatorPvm>
    printBuddyInfo(buddy);
    80003a40:	00048513          	mv	a0,s1
    80003a44:	fffff097          	auipc	ra,0xfffff
    80003a48:	478080e7          	jalr	1144(ra) # 80002ebc <_Z14printBuddyInfoP14buddyAllocator>

    adr = buddy_alloc(buddy, 2);
    80003a4c:	00200593          	li	a1,2
    80003a50:	00048513          	mv	a0,s1
    80003a54:	fffff097          	auipc	ra,0xfffff
    80003a58:	100080e7          	jalr	256(ra) # 80002b54 <_Z11buddy_allocP14buddyAllocatorm>
    80003a5c:	00050913          	mv	s2,a0
    void* adr2 = buddy_alloc(buddy, 3);
    80003a60:	00300593          	li	a1,3
    80003a64:	00048513          	mv	a0,s1
    80003a68:	fffff097          	auipc	ra,0xfffff
    80003a6c:	0ec080e7          	jalr	236(ra) # 80002b54 <_Z11buddy_allocP14buddyAllocatorm>
    80003a70:	00050993          	mv	s3,a0
    printBuddyInfo(buddy);
    80003a74:	00048513          	mv	a0,s1
    80003a78:	fffff097          	auipc	ra,0xfffff
    80003a7c:	444080e7          	jalr	1092(ra) # 80002ebc <_Z14printBuddyInfoP14buddyAllocator>

    buddy_free(buddy, adr, 2);
    80003a80:	00200613          	li	a2,2
    80003a84:	00090593          	mv	a1,s2
    80003a88:	00048513          	mv	a0,s1
    80003a8c:	fffff097          	auipc	ra,0xfffff
    80003a90:	3b8080e7          	jalr	952(ra) # 80002e44 <_Z10buddy_freeP14buddyAllocatorPvm>
    printBuddyInfo(buddy);
    80003a94:	00048513          	mv	a0,s1
    80003a98:	fffff097          	auipc	ra,0xfffff
    80003a9c:	424080e7          	jalr	1060(ra) # 80002ebc <_Z14printBuddyInfoP14buddyAllocator>
    adr = buddy_alloc(buddy, 1);
    80003aa0:	00100593          	li	a1,1
    80003aa4:	00048513          	mv	a0,s1
    80003aa8:	fffff097          	auipc	ra,0xfffff
    80003aac:	0ac080e7          	jalr	172(ra) # 80002b54 <_Z11buddy_allocP14buddyAllocatorm>
    80003ab0:	00050913          	mv	s2,a0
    printBuddyInfo(buddy);
    80003ab4:	00048513          	mv	a0,s1
    80003ab8:	fffff097          	auipc	ra,0xfffff
    80003abc:	404080e7          	jalr	1028(ra) # 80002ebc <_Z14printBuddyInfoP14buddyAllocator>

    buddy_free(buddy, adr2, 3);
    80003ac0:	00300613          	li	a2,3
    80003ac4:	00098593          	mv	a1,s3
    80003ac8:	00048513          	mv	a0,s1
    80003acc:	fffff097          	auipc	ra,0xfffff
    80003ad0:	378080e7          	jalr	888(ra) # 80002e44 <_Z10buddy_freeP14buddyAllocatorPvm>
    printBuddyInfo(buddy);
    80003ad4:	00048513          	mv	a0,s1
    80003ad8:	fffff097          	auipc	ra,0xfffff
    80003adc:	3e4080e7          	jalr	996(ra) # 80002ebc <_Z14printBuddyInfoP14buddyAllocator>
    buddy_free(buddy, adr, 1);
    80003ae0:	00100613          	li	a2,1
    80003ae4:	00090593          	mv	a1,s2
    80003ae8:	00048513          	mv	a0,s1
    80003aec:	fffff097          	auipc	ra,0xfffff
    80003af0:	358080e7          	jalr	856(ra) # 80002e44 <_Z10buddy_freeP14buddyAllocatorPvm>
    printBuddyInfo(buddy);
    80003af4:	00048513          	mv	a0,s1
    80003af8:	fffff097          	auipc	ra,0xfffff
    80003afc:	3c4080e7          	jalr	964(ra) # 80002ebc <_Z14printBuddyInfoP14buddyAllocator>
}
    80003b00:	02813083          	ld	ra,40(sp)
    80003b04:	02013403          	ld	s0,32(sp)
    80003b08:	01813483          	ld	s1,24(sp)
    80003b0c:	01013903          	ld	s2,16(sp)
    80003b10:	00813983          	ld	s3,8(sp)
    80003b14:	03010113          	addi	sp,sp,48
    80003b18:	00008067          	ret

0000000080003b1c <_Z13buddyTestMixav>:

void buddyTestMixa()
{
    80003b1c:	fc010113          	addi	sp,sp,-64
    80003b20:	02113c23          	sd	ra,56(sp)
    80003b24:	02813823          	sd	s0,48(sp)
    80003b28:	02913423          	sd	s1,40(sp)
    80003b2c:	03213023          	sd	s2,32(sp)
    80003b30:	01313c23          	sd	s3,24(sp)
    80003b34:	01413823          	sd	s4,16(sp)
    80003b38:	01513423          	sd	s5,8(sp)
    80003b3c:	04010413          	addi	s0,sp,64
    size_t mask = ((size_t)-1) << 12;
    buddyAllocator* buddy = (buddyAllocator*)(((size_t)HEAP_START_ADDR & mask) + (1 << 12));
    80003b40:	00005797          	auipc	a5,0x5
    80003b44:	de07b783          	ld	a5,-544(a5) # 80008920 <_GLOBAL_OFFSET_TABLE_+0x18>
    80003b48:	0007b983          	ld	s3,0(a5)
    80003b4c:	fffff7b7          	lui	a5,0xfffff
    80003b50:	00f9f9b3          	and	s3,s3,a5
    80003b54:	000017b7          	lui	a5,0x1
    80003b58:	00f989b3          	add	s3,s3,a5
    void** x = (void**)MemoryAllocator::kmalloc(5000*sizeof(void*));
    80003b5c:	0000a537          	lui	a0,0xa
    80003b60:	c4050513          	addi	a0,a0,-960 # 9c40 <_entry-0x7fff63c0>
    80003b64:	00001097          	auipc	ra,0x1
    80003b68:	eac080e7          	jalr	-340(ra) # 80004a10 <_ZN15MemoryAllocator7kmallocEm>
    80003b6c:	00050a13          	mv	s4,a0
    printBuddyInfo(buddy);
    80003b70:	00098513          	mv	a0,s3
    80003b74:	fffff097          	auipc	ra,0xfffff
    80003b78:	348080e7          	jalr	840(ra) # 80002ebc <_Z14printBuddyInfoP14buddyAllocator>
    for(int i = 0; i < 5000;i++)
    80003b7c:	00000493          	li	s1,0
    80003b80:	0080006f          	j	80003b88 <_Z13buddyTestMixav+0x6c>
    80003b84:	0014849b          	addiw	s1,s1,1
    80003b88:	000017b7          	lui	a5,0x1
    80003b8c:	38778793          	addi	a5,a5,903 # 1387 <_entry-0x7fffec79>
    80003b90:	0697c463          	blt	a5,s1,80003bf8 <_Z13buddyTestMixav+0xdc>
    {
        x[i] = buddy_alloc(buddy, 2);
    80003b94:	00349913          	slli	s2,s1,0x3
    80003b98:	012a0933          	add	s2,s4,s2
    80003b9c:	00200593          	li	a1,2
    80003ba0:	00098513          	mv	a0,s3
    80003ba4:	fffff097          	auipc	ra,0xfffff
    80003ba8:	fb0080e7          	jalr	-80(ra) # 80002b54 <_Z11buddy_allocP14buddyAllocatorm>
    80003bac:	00a93023          	sd	a0,0(s2)
        if(x[i] == nullptr)
    80003bb0:	fc051ae3          	bnez	a0,80003b84 <_Z13buddyTestMixav+0x68>
        {
            KConsole::trapPrintStringInt("Bad allocation ", i);
    80003bb4:	00a00613          	li	a2,10
    80003bb8:	00048593          	mv	a1,s1
    80003bbc:	00004517          	auipc	a0,0x4
    80003bc0:	7c450513          	addi	a0,a0,1988 # 80008380 <CONSOLE_STATUS+0x370>
    80003bc4:	00000097          	auipc	ra,0x0
    80003bc8:	9a0080e7          	jalr	-1632(ra) # 80003564 <_ZN8KConsole18trapPrintStringIntEPKcmi>
            for(int j = 0;j < i;j++)
    80003bcc:	00000913          	li	s2,0
    80003bd0:	02995463          	bge	s2,s1,80003bf8 <_Z13buddyTestMixav+0xdc>
            {
                buddy_free(buddy, x[j], 2);
    80003bd4:	00391793          	slli	a5,s2,0x3
    80003bd8:	00fa07b3          	add	a5,s4,a5
    80003bdc:	00200613          	li	a2,2
    80003be0:	0007b583          	ld	a1,0(a5)
    80003be4:	00098513          	mv	a0,s3
    80003be8:	fffff097          	auipc	ra,0xfffff
    80003bec:	25c080e7          	jalr	604(ra) # 80002e44 <_Z10buddy_freeP14buddyAllocatorPvm>
            for(int j = 0;j < i;j++)
    80003bf0:	0019091b          	addiw	s2,s2,1
    80003bf4:	fddff06f          	j	80003bd0 <_Z13buddyTestMixav+0xb4>
            }
            break;
        }
    }
    printBuddyInfo(buddy);
    80003bf8:	00098513          	mv	a0,s3
    80003bfc:	fffff097          	auipc	ra,0xfffff
    80003c00:	2c0080e7          	jalr	704(ra) # 80002ebc <_Z14printBuddyInfoP14buddyAllocator>
}
    80003c04:	03813083          	ld	ra,56(sp)
    80003c08:	03013403          	ld	s0,48(sp)
    80003c0c:	02813483          	ld	s1,40(sp)
    80003c10:	02013903          	ld	s2,32(sp)
    80003c14:	01813983          	ld	s3,24(sp)
    80003c18:	01013a03          	ld	s4,16(sp)
    80003c1c:	00813a83          	ld	s5,8(sp)
    80003c20:	04010113          	addi	sp,sp,64
    80003c24:	00008067          	ret

0000000080003c28 <_ZN5Riscv17initVirtualMemoryEv>:
extern char *userDataStart;
extern char *kernelTextStart;
extern char *kernelDataStart;

void Riscv::initVirtualMemory()
{
    80003c28:	ff010113          	addi	sp,sp,-16
    80003c2c:	00813423          	sd	s0,8(sp)
    80003c30:	01010413          	addi	s0,sp,16
    //size_t addr = (size_t)getNextBlockAddr((size_t)HEAP_START_ADDR);

    //size_t pmtSize = (1 << 9);
    //size_t descSize = 64;
    //size_t
}
    80003c34:	00813403          	ld	s0,8(sp)
    80003c38:	01010113          	addi	sp,sp,16
    80003c3c:	00008067          	ret

0000000080003c40 <_ZN5Riscv16enableInterruptsEv>:
        thread_dispatch_kernel();
    }
    disableInterrupts();
}

void Riscv::enableInterrupts() {
    80003c40:	ff010113          	addi	sp,sp,-16
    80003c44:	00813423          	sd	s0,8(sp)
    80003c48:	01010413          	addi	s0,sp,16
inline void Riscv::w_sip(uint64 sip) {
    __asm__ volatile("csrw sip, %0" : :"r"(sip));
}

inline void Riscv::ms_sstatus(uint64 mask) {
    __asm__ volatile("csrs sstatus, %0" : :"r"(mask));
    80003c4c:	00200793          	li	a5,2
    80003c50:	1007a073          	csrs	sstatus,a5
    ms_sstatus(Riscv::SSTATUS_SIE);
}
    80003c54:	00813403          	ld	s0,8(sp)
    80003c58:	01010113          	addi	sp,sp,16
    80003c5c:	00008067          	ret

0000000080003c60 <_ZN5Riscv17disableInterruptsEv>:

void Riscv::disableInterrupts()
{
    80003c60:	ff010113          	addi	sp,sp,-16
    80003c64:	00813423          	sd	s0,8(sp)
    80003c68:	01010413          	addi	s0,sp,16
}

inline void Riscv::mc_sstatus(uint64 mask) {
    __asm__ volatile("csrc sstatus, %0" : :"r"(mask));
    80003c6c:	00200793          	li	a5,2
    80003c70:	1007b073          	csrc	sstatus,a5
    mc_sstatus(Riscv::SSTATUS_SIE);
}
    80003c74:	00813403          	ld	s0,8(sp)
    80003c78:	01010113          	addi	sp,sp,16
    80003c7c:	00008067          	ret

0000000080003c80 <_ZN5Riscv9endSystemEv>:
{
    80003c80:	ff010113          	addi	sp,sp,-16
    80003c84:	00113423          	sd	ra,8(sp)
    80003c88:	00813023          	sd	s0,0(sp)
    80003c8c:	01010413          	addi	s0,sp,16
    disableInterrupts();
    80003c90:	00000097          	auipc	ra,0x0
    80003c94:	fd0080e7          	jalr	-48(ra) # 80003c60 <_ZN5Riscv17disableInterruptsEv>
    finishSystem = true;
    80003c98:	00100793          	li	a5,1
    80003c9c:	0000d717          	auipc	a4,0xd
    80003ca0:	e0f70223          	sb	a5,-508(a4) # 80010aa0 <_ZN5Riscv12finishSystemE>
        pcb = Scheduler::get();
    80003ca4:	00000097          	auipc	ra,0x0
    80003ca8:	af4080e7          	jalr	-1292(ra) # 80003798 <_ZN9Scheduler3getEv>
        if(pcb == 0) break;
    80003cac:	fe051ce3          	bnez	a0,80003ca4 <_ZN5Riscv9endSystemEv+0x24>
    Scheduler::put(PCB::consolePCB);
    80003cb0:	00005797          	auipc	a5,0x5
    80003cb4:	cd07b783          	ld	a5,-816(a5) # 80008980 <_GLOBAL_OFFSET_TABLE_+0x78>
    80003cb8:	0007b503          	ld	a0,0(a5)
    80003cbc:	00000097          	auipc	ra,0x0
    80003cc0:	a88080e7          	jalr	-1400(ra) # 80003744 <_ZN9Scheduler3putEP3PCB>
    KConsole::pendingGetc = 0;
    80003cc4:	00005797          	auipc	a5,0x5
    80003cc8:	c847b783          	ld	a5,-892(a5) # 80008948 <_GLOBAL_OFFSET_TABLE_+0x40>
    80003ccc:	0007b023          	sd	zero,0(a5)
    enableInterrupts();
    80003cd0:	00000097          	auipc	ra,0x0
    80003cd4:	f70080e7          	jalr	-144(ra) # 80003c40 <_ZN5Riscv16enableInterruptsEv>
    while(!PCB::consolePCB->isFinished())
    80003cd8:	00005797          	auipc	a5,0x5
    80003cdc:	ca87b783          	ld	a5,-856(a5) # 80008980 <_GLOBAL_OFFSET_TABLE_+0x78>
    80003ce0:	0007b503          	ld	a0,0(a5)
    80003ce4:	fffff097          	auipc	ra,0xfffff
    80003ce8:	990080e7          	jalr	-1648(ra) # 80002674 <_ZN3PCB10isFinishedEv>
    80003cec:	00051863          	bnez	a0,80003cfc <_ZN5Riscv9endSystemEv+0x7c>
        thread_dispatch_kernel();
    80003cf0:	ffffd097          	auipc	ra,0xffffd
    80003cf4:	548080e7          	jalr	1352(ra) # 80001238 <_Z22thread_dispatch_kernelv>
    while(!PCB::consolePCB->isFinished())
    80003cf8:	fe1ff06f          	j	80003cd8 <_ZN5Riscv9endSystemEv+0x58>
    disableInterrupts();
    80003cfc:	00000097          	auipc	ra,0x0
    80003d00:	f64080e7          	jalr	-156(ra) # 80003c60 <_ZN5Riscv17disableInterruptsEv>
}
    80003d04:	00813083          	ld	ra,8(sp)
    80003d08:	00013403          	ld	s0,0(sp)
    80003d0c:	01010113          	addi	sp,sp,16
    80003d10:	00008067          	ret

0000000080003d14 <_ZN5Riscv10popSppSpieEv>:

void Riscv::popSppSpie()
{
    80003d14:	ff010113          	addi	sp,sp,-16
    80003d18:	00813423          	sd	s0,8(sp)
    80003d1c:	01010413          	addi	s0,sp,16
    if(PCB::running->systemThread) {
    80003d20:	00005797          	auipc	a5,0x5
    80003d24:	c807b783          	ld	a5,-896(a5) # 800089a0 <_GLOBAL_OFFSET_TABLE_+0x98>
    80003d28:	0007b783          	ld	a5,0(a5)
    80003d2c:	0007c703          	lbu	a4,0(a5)
    80003d30:	00070c63          	beqz	a4,80003d48 <_ZN5Riscv10popSppSpieEv+0x34>
        __asm__ volatile ("csrw sepc, ra");
    80003d34:	14109073          	csrw	sepc,ra
        __asm__ volatile ("sret");
    80003d38:	10200073          	sret
        __asm__ volatile("mv a0, %0"::"r"((size_t)PCB::running->body));
        __asm__ volatile("mv a1, %0"::"r"((size_t)PCB::running->args));
        __asm__ volatile("csrw sepc, %0"::"r"(ra));
        __asm__ volatile ("sret");
    }
}
    80003d3c:	00813403          	ld	s0,8(sp)
    80003d40:	01010113          	addi	sp,sp,16
    80003d44:	00008067          	ret
        __asm__ volatile("mv a0, %0"::"r"((size_t)PCB::running->body));
    80003d48:	0287b703          	ld	a4,40(a5)
    80003d4c:	00070513          	mv	a0,a4
        __asm__ volatile("mv a1, %0"::"r"((size_t)PCB::running->args));
    80003d50:	0307b783          	ld	a5,48(a5)
    80003d54:	00078593          	mv	a1,a5
        __asm__ volatile("csrw sepc, %0"::"r"(ra));
    80003d58:	00005797          	auipc	a5,0x5
    80003d5c:	c607b783          	ld	a5,-928(a5) # 800089b8 <_GLOBAL_OFFSET_TABLE_+0xb0>
    80003d60:	14179073          	csrw	sepc,a5
        __asm__ volatile ("sret");
    80003d64:	10200073          	sret
}
    80003d68:	fd5ff06f          	j	80003d3c <_ZN5Riscv10popSppSpieEv+0x28>

0000000080003d6c <_ZN5Riscv14setVirtualAddrEmmm>:

void Riscv::setVirtualAddr(size_t addr, size_t mask, size_t maskLeaf)
{
    80003d6c:	fb010113          	addi	sp,sp,-80
    80003d70:	04113423          	sd	ra,72(sp)
    80003d74:	04813023          	sd	s0,64(sp)
    80003d78:	02913c23          	sd	s1,56(sp)
    80003d7c:	03213823          	sd	s2,48(sp)
    80003d80:	03313423          	sd	s3,40(sp)
    80003d84:	03413023          	sd	s4,32(sp)
    80003d88:	01513c23          	sd	s5,24(sp)
    80003d8c:	01613823          	sd	s6,16(sp)
    80003d90:	01713423          	sd	s7,8(sp)
    80003d94:	05010413          	addi	s0,sp,80
    80003d98:	00058993          	mv	s3,a1
    80003d9c:	00060a13          	mv	s4,a2
    size_t l2 = addr >> 30;
    80003da0:	01e55b93          	srli	s7,a0,0x1e
    size_t l1 = (addr >> 21) & (0x1ff);
    80003da4:	01555b13          	srli	s6,a0,0x15
    80003da8:	1ffb7b13          	andi	s6,s6,511
    size_t l0 = (addr >> 12) & (0x1ff);
    80003dac:	00c55493          	srli	s1,a0,0xc
    80003db0:	1ff4f913          	andi	s2,s1,511
    size_t pmt2Desc = ((size_t*)mainPMT)[l2];
    80003db4:	003b9b93          	slli	s7,s7,0x3
    80003db8:	0000d797          	auipc	a5,0xd
    80003dbc:	cf07b783          	ld	a5,-784(a5) # 80010aa8 <_ZN5Riscv7mainPMTE>
    80003dc0:	017787b3          	add	a5,a5,s7
    80003dc4:	0007b503          	ld	a0,0(a5)
    void* pmt1 = nullptr;
    if(pmt2Desc == 0)
    80003dc8:	06050663          	beqz	a0,80003e34 <_ZN5Riscv14setVirtualAddrEmmm+0xc8>
        size_t newDesc = (((size_t)pmt1 >> 12) << 10) | mask;
        ((size_t*)mainPMT)[l2] = newDesc;
    }
    else
    {
        pmt1 = (void*)((pmt2Desc >> 10) << 12);
    80003dcc:	00a55513          	srli	a0,a0,0xa
    80003dd0:	00c51513          	slli	a0,a0,0xc
    }
    size_t pmt1Desc = ((size_t*)pmt1)[l1];
    80003dd4:	003b1a93          	slli	s5,s6,0x3
    80003dd8:	01550ab3          	add	s5,a0,s5
    80003ddc:	000ab503          	ld	a0,0(s5)
    void* pmt0 = nullptr;
    if(pmt1Desc == 0)
    80003de0:	0a050463          	beqz	a0,80003e88 <_ZN5Riscv14setVirtualAddrEmmm+0x11c>
        size_t newDesc = (((size_t)pmt0 >> 12) << 10) | mask;
        ((size_t*)pmt1)[l1] = newDesc;
    }
    else
    {
        pmt0 = (void*)((pmt1Desc >> 10) << 12);
    80003de4:	00a55513          	srli	a0,a0,0xa
    80003de8:	00c51513          	slli	a0,a0,0xc
    }

    size_t pmt0Desc = ((size_t*)pmt0)[l0];
    80003dec:	00391913          	slli	s2,s2,0x3
    80003df0:	01250533          	add	a0,a0,s2
    80003df4:	00053783          	ld	a5,0(a0)
    if(pmt0Desc == 0)
    80003df8:	00079863          	bnez	a5,80003e08 <_ZN5Riscv14setVirtualAddrEmmm+0x9c>
    {
        ((size_t*)pmt0)[l0] = ((addr >> 12) << 10) | maskLeaf;
    80003dfc:	00a49493          	slli	s1,s1,0xa
    80003e00:	0144ea33          	or	s4,s1,s4
    80003e04:	01453023          	sd	s4,0(a0)
    }
}
    80003e08:	04813083          	ld	ra,72(sp)
    80003e0c:	04013403          	ld	s0,64(sp)
    80003e10:	03813483          	ld	s1,56(sp)
    80003e14:	03013903          	ld	s2,48(sp)
    80003e18:	02813983          	ld	s3,40(sp)
    80003e1c:	02013a03          	ld	s4,32(sp)
    80003e20:	01813a83          	ld	s5,24(sp)
    80003e24:	01013b03          	ld	s6,16(sp)
    80003e28:	00813b83          	ld	s7,8(sp)
    80003e2c:	05010113          	addi	sp,sp,80
    80003e30:	00008067          	ret
        pmt1 = buddy_alloc((buddyAllocator*)riscvBuddy, 1);
    80003e34:	00100593          	li	a1,1
    80003e38:	0000d517          	auipc	a0,0xd
    80003e3c:	c7853503          	ld	a0,-904(a0) # 80010ab0 <_ZN5Riscv10riscvBuddyE>
    80003e40:	fffff097          	auipc	ra,0xfffff
    80003e44:	d14080e7          	jalr	-748(ra) # 80002b54 <_Z11buddy_allocP14buddyAllocatorm>
        for(int i = 0; i < NUM_OF_ENTRIES;i++)
    80003e48:	00000793          	li	a5,0
    80003e4c:	1ff00713          	li	a4,511
    80003e50:	00f74c63          	blt	a4,a5,80003e68 <_ZN5Riscv14setVirtualAddrEmmm+0xfc>
            ((size_t*)pmt1)[i] = 0;
    80003e54:	00379713          	slli	a4,a5,0x3
    80003e58:	00e50733          	add	a4,a0,a4
    80003e5c:	00073023          	sd	zero,0(a4)
        for(int i = 0; i < NUM_OF_ENTRIES;i++)
    80003e60:	0017879b          	addiw	a5,a5,1
    80003e64:	fe9ff06f          	j	80003e4c <_ZN5Riscv14setVirtualAddrEmmm+0xe0>
        size_t newDesc = (((size_t)pmt1 >> 12) << 10) | mask;
    80003e68:	00c55793          	srli	a5,a0,0xc
    80003e6c:	00a79793          	slli	a5,a5,0xa
    80003e70:	0137e7b3          	or	a5,a5,s3
        ((size_t*)mainPMT)[l2] = newDesc;
    80003e74:	0000d717          	auipc	a4,0xd
    80003e78:	c3473703          	ld	a4,-972(a4) # 80010aa8 <_ZN5Riscv7mainPMTE>
    80003e7c:	01770bb3          	add	s7,a4,s7
    80003e80:	00fbb023          	sd	a5,0(s7)
    80003e84:	f51ff06f          	j	80003dd4 <_ZN5Riscv14setVirtualAddrEmmm+0x68>
        pmt0 = buddy_alloc((buddyAllocator*)riscvBuddy, 1);
    80003e88:	00100593          	li	a1,1
    80003e8c:	0000d517          	auipc	a0,0xd
    80003e90:	c2453503          	ld	a0,-988(a0) # 80010ab0 <_ZN5Riscv10riscvBuddyE>
    80003e94:	fffff097          	auipc	ra,0xfffff
    80003e98:	cc0080e7          	jalr	-832(ra) # 80002b54 <_Z11buddy_allocP14buddyAllocatorm>
        for(int i = 0; i < NUM_OF_ENTRIES;i++)
    80003e9c:	00000793          	li	a5,0
    80003ea0:	1ff00713          	li	a4,511
    80003ea4:	00f74c63          	blt	a4,a5,80003ebc <_ZN5Riscv14setVirtualAddrEmmm+0x150>
            ((size_t*)pmt0)[i] = 0;
    80003ea8:	00379713          	slli	a4,a5,0x3
    80003eac:	00e50733          	add	a4,a0,a4
    80003eb0:	00073023          	sd	zero,0(a4)
        for(int i = 0; i < NUM_OF_ENTRIES;i++)
    80003eb4:	0017879b          	addiw	a5,a5,1
    80003eb8:	fe9ff06f          	j	80003ea0 <_ZN5Riscv14setVirtualAddrEmmm+0x134>
        size_t newDesc = (((size_t)pmt0 >> 12) << 10) | mask;
    80003ebc:	00c55793          	srli	a5,a0,0xc
    80003ec0:	00a79793          	slli	a5,a5,0xa
    80003ec4:	0137e9b3          	or	s3,a5,s3
        ((size_t*)pmt1)[l1] = newDesc;
    80003ec8:	013ab023          	sd	s3,0(s5)
    80003ecc:	f21ff06f          	j	80003dec <_ZN5Riscv14setVirtualAddrEmmm+0x80>

0000000080003ed0 <_ZN5Riscv19setVirtualAddrRangeEmmi>:
{
    80003ed0:	fd010113          	addi	sp,sp,-48
    80003ed4:	02113423          	sd	ra,40(sp)
    80003ed8:	02813023          	sd	s0,32(sp)
    80003edc:	00913c23          	sd	s1,24(sp)
    80003ee0:	01213823          	sd	s2,16(sp)
    80003ee4:	01313423          	sd	s3,8(sp)
    80003ee8:	03010413          	addi	s0,sp,48
    80003eec:	00050493          	mv	s1,a0
    80003ef0:	00058913          	mv	s2,a1
    80003ef4:	00060993          	mv	s3,a2
    for(size_t i = startAddr; i < endAddr; i+=BLOCK_NUM_OF_BYTES)
    80003ef8:	0324f263          	bgeu	s1,s2,80003f1c <_ZN5Riscv19setVirtualAddrRangeEmmi+0x4c>
        setVirtualAddr(i, VMEM_V_BIT, permission);
    80003efc:	00098613          	mv	a2,s3
    80003f00:	00100593          	li	a1,1
    80003f04:	00048513          	mv	a0,s1
    80003f08:	00000097          	auipc	ra,0x0
    80003f0c:	e64080e7          	jalr	-412(ra) # 80003d6c <_ZN5Riscv14setVirtualAddrEmmm>
    for(size_t i = startAddr; i < endAddr; i+=BLOCK_NUM_OF_BYTES)
    80003f10:	000017b7          	lui	a5,0x1
    80003f14:	00f484b3          	add	s1,s1,a5
    80003f18:	fe1ff06f          	j	80003ef8 <_ZN5Riscv19setVirtualAddrRangeEmmi+0x28>
}
    80003f1c:	02813083          	ld	ra,40(sp)
    80003f20:	02013403          	ld	s0,32(sp)
    80003f24:	01813483          	ld	s1,24(sp)
    80003f28:	01013903          	ld	s2,16(sp)
    80003f2c:	00813983          	ld	s3,8(sp)
    80003f30:	03010113          	addi	sp,sp,48
    80003f34:	00008067          	ret

0000000080003f38 <_ZN5Riscv10initSystemEv>:
{
    80003f38:	fc010113          	addi	sp,sp,-64
    80003f3c:	02113c23          	sd	ra,56(sp)
    80003f40:	02813823          	sd	s0,48(sp)
    80003f44:	02913423          	sd	s1,40(sp)
    80003f48:	03213023          	sd	s2,32(sp)
    80003f4c:	01313c23          	sd	s3,24(sp)
    80003f50:	01413823          	sd	s4,16(sp)
    80003f54:	01513423          	sd	s5,8(sp)
    80003f58:	01613023          	sd	s6,0(sp)
    80003f5c:	04010413          	addi	s0,sp,64
    w_stvec((uint64)&Riscv::supervisorTrap);
    80003f60:	00005797          	auipc	a5,0x5
    80003f64:	9d07b783          	ld	a5,-1584(a5) # 80008930 <_GLOBAL_OFFSET_TABLE_+0x28>
    __asm__ volatile("csrw stvec, %0" : :"r"(stvec));
    80003f68:	10579073          	csrw	stvec,a5
    riscvBuddy = (void*)getBlockAddr((size_t)HEAP_START_ADDR);
    80003f6c:	00005997          	auipc	s3,0x5
    80003f70:	9b49b983          	ld	s3,-1612(s3) # 80008920 <_GLOBAL_OFFSET_TABLE_+0x18>
    80003f74:	0009b503          	ld	a0,0(s3)
    80003f78:	fffff097          	auipc	ra,0xfffff
    80003f7c:	9dc080e7          	jalr	-1572(ra) # 80002954 <_Z12getBlockAddrm>
    80003f80:	0000d917          	auipc	s2,0xd
    80003f84:	b2090913          	addi	s2,s2,-1248 # 80010aa0 <_ZN5Riscv12finishSystemE>
    80003f88:	00a93823          	sd	a0,16(s2)
    size_t heapStartBlock = getBlockAddr((size_t)HEAP_START_ADDR);
    80003f8c:	0009b503          	ld	a0,0(s3)
    80003f90:	fffff097          	auipc	ra,0xfffff
    80003f94:	9c4080e7          	jalr	-1596(ra) # 80002954 <_Z12getBlockAddrm>
    void* newStartAddr = (void*)(heapStartBlock + numOfBlocks*BLOCK_NUM_OF_BYTES);
    80003f98:	010017b7          	lui	a5,0x1001
    80003f9c:	00f504b3          	add	s1,a0,a5
    MemoryAllocator::initMemory(newStartAddr);
    80003fa0:	00048513          	mv	a0,s1
    80003fa4:	00000097          	auipc	ra,0x0
    80003fa8:	67c080e7          	jalr	1660(ra) # 80004620 <_ZN15MemoryAllocator10initMemoryEPv>
    kmem_init((void*)HEAP_START_ADDR, numOfBlocks);
    80003fac:	000015b7          	lui	a1,0x1
    80003fb0:	00158593          	addi	a1,a1,1 # 1001 <_entry-0x7fffefff>
    80003fb4:	0009b503          	ld	a0,0(s3)
    80003fb8:	ffffe097          	auipc	ra,0xffffe
    80003fbc:	c28080e7          	jalr	-984(ra) # 80001be0 <_Z9kmem_initPvi>
    pcbCache = kmem_cache_create("Cache of PCBs", sizeof(PCB), nullptr, nullptr);
    80003fc0:	00000693          	li	a3,0
    80003fc4:	00000613          	li	a2,0
    80003fc8:	06000593          	li	a1,96
    80003fcc:	00004517          	auipc	a0,0x4
    80003fd0:	3c450513          	addi	a0,a0,964 # 80008390 <CONSOLE_STATUS+0x380>
    80003fd4:	ffffe097          	auipc	ra,0xffffe
    80003fd8:	d7c080e7          	jalr	-644(ra) # 80001d50 <_Z17kmem_cache_createPKcmPFvPvES3_>
    80003fdc:	00a93c23          	sd	a0,24(s2)
    semaphoreCache = kmem_cache_create("Cache of KSemaphore", sizeof(KSemaphore), nullptr, nullptr);
    80003fe0:	00000693          	li	a3,0
    80003fe4:	00000613          	li	a2,0
    80003fe8:	01800593          	li	a1,24
    80003fec:	00004517          	auipc	a0,0x4
    80003ff0:	3b450513          	addi	a0,a0,948 # 800083a0 <CONSOLE_STATUS+0x390>
    80003ff4:	ffffe097          	auipc	ra,0xffffe
    80003ff8:	d5c080e7          	jalr	-676(ra) # 80001d50 <_Z17kmem_cache_createPKcmPFvPvES3_>
    80003ffc:	02a93023          	sd	a0,32(s2)
    PCB::initialize();
    80004000:	ffffe097          	auipc	ra,0xffffe
    80004004:	54c080e7          	jalr	1356(ra) # 8000254c <_ZN3PCB10initializeEv>
    KConsole::initialize();
    80004008:	fffff097          	auipc	ra,0xfffff
    8000400c:	fd0080e7          	jalr	-48(ra) # 80002fd8 <_ZN8KConsole10initializeEv>
    mainPMT = buddy_alloc((buddyAllocator*)riscvBuddy, 1);
    80004010:	00100593          	li	a1,1
    80004014:	01093503          	ld	a0,16(s2)
    80004018:	fffff097          	auipc	ra,0xfffff
    8000401c:	b3c080e7          	jalr	-1220(ra) # 80002b54 <_Z11buddy_allocP14buddyAllocatorm>
    80004020:	00a93423          	sd	a0,8(s2)
    for(size_t i = 0; i < NUM_OF_ENTRIES;i++)
    80004024:	00000793          	li	a5,0
    80004028:	1ff00713          	li	a4,511
    8000402c:	02f76063          	bltu	a4,a5,8000404c <_ZN5Riscv10initSystemEv+0x114>
        ((size_t*)mainPMT)[i] = 0;
    80004030:	00379693          	slli	a3,a5,0x3
    80004034:	0000d717          	auipc	a4,0xd
    80004038:	a7473703          	ld	a4,-1420(a4) # 80010aa8 <_ZN5Riscv7mainPMTE>
    8000403c:	00d70733          	add	a4,a4,a3
    80004040:	00073023          	sd	zero,0(a4)
    for(size_t i = 0; i < NUM_OF_ENTRIES;i++)
    80004044:	00178793          	addi	a5,a5,1 # 1001001 <_entry-0x7effefff>
    80004048:	fe1ff06f          	j	80004028 <_ZN5Riscv10initSystemEv+0xf0>
    KConsole::trapPrintStringInt("main PMT ", (size_t)mainPMT,16);
    8000404c:	0000d917          	auipc	s2,0xd
    80004050:	a5490913          	addi	s2,s2,-1452 # 80010aa0 <_ZN5Riscv12finishSystemE>
    80004054:	01000613          	li	a2,16
    80004058:	00893583          	ld	a1,8(s2)
    8000405c:	00004517          	auipc	a0,0x4
    80004060:	35c50513          	addi	a0,a0,860 # 800083b8 <CONSOLE_STATUS+0x3a8>
    80004064:	fffff097          	auipc	ra,0xfffff
    80004068:	500080e7          	jalr	1280(ra) # 80003564 <_ZN8KConsole18trapPrintStringIntEPKcmi>
    uint64 kTextStart = (uint64)(&kernelTextStart);
    8000406c:	00005b17          	auipc	s6,0x5
    80004070:	8ccb3b03          	ld	s6,-1844(s6) # 80008938 <_GLOBAL_OFFSET_TABLE_+0x30>
    uint64 kDataStart = (uint64)(&kernelDataStart);
    80004074:	00005a97          	auipc	s5,0x5
    80004078:	8ccaba83          	ld	s5,-1844(s5) # 80008940 <_GLOBAL_OFFSET_TABLE_+0x38>
    uint64 uTextStart = (uint64)(&userTextStart);
    8000407c:	00005997          	auipc	s3,0x5
    80004080:	91c9b983          	ld	s3,-1764(s3) # 80008998 <_GLOBAL_OFFSET_TABLE_+0x90>
    uint64 uDataStart = (uint64)(&userDataStart);
    80004084:	00005a17          	auipc	s4,0x5
    80004088:	93ca3a03          	ld	s4,-1732(s4) # 800089c0 <_GLOBAL_OFFSET_TABLE_+0xb8>
    setVirtualAddrRange(programStartAddr, kTextStart, KERNEL_RX); // before kernel instructions
    8000408c:	00b00613          	li	a2,11
    80004090:	000b0593          	mv	a1,s6
    80004094:	00005517          	auipc	a0,0x5
    80004098:	84453503          	ld	a0,-1980(a0) # 800088d8 <_ZN5Riscv16programStartAddrE>
    8000409c:	00000097          	auipc	ra,0x0
    800040a0:	e34080e7          	jalr	-460(ra) # 80003ed0 <_ZN5Riscv19setVirtualAddrRangeEmmi>
    setVirtualAddrRange(kTextStart, kDataStart,KERNEL_RX); // kernel instructions
    800040a4:	00b00613          	li	a2,11
    800040a8:	000a8593          	mv	a1,s5
    800040ac:	000b0513          	mv	a0,s6
    800040b0:	00000097          	auipc	ra,0x0
    800040b4:	e20080e7          	jalr	-480(ra) # 80003ed0 <_ZN5Riscv19setVirtualAddrRangeEmmi>
    setVirtualAddrRange((size_t)(&kernelDataStart), uTextStart, KERNEL_RW); // kernel data
    800040b8:	00700613          	li	a2,7
    800040bc:	00098593          	mv	a1,s3
    800040c0:	000a8513          	mv	a0,s5
    800040c4:	00000097          	auipc	ra,0x0
    800040c8:	e0c080e7          	jalr	-500(ra) # 80003ed0 <_ZN5Riscv19setVirtualAddrRangeEmmi>
    setVirtualAddrRange((size_t)(&userTextStart), uDataStart, USER_RX); //user instructions
    800040cc:	01b00613          	li	a2,27
    800040d0:	000a0593          	mv	a1,s4
    800040d4:	00098513          	mv	a0,s3
    800040d8:	00000097          	auipc	ra,0x0
    800040dc:	df8080e7          	jalr	-520(ra) # 80003ed0 <_ZN5Riscv19setVirtualAddrRangeEmmi>
    setVirtualAddrRange((size_t)(&userDataStart), (size_t)HEAP_START_ADDR, USER_RW); // user data
    800040e0:	00005997          	auipc	s3,0x5
    800040e4:	8409b983          	ld	s3,-1984(s3) # 80008920 <_GLOBAL_OFFSET_TABLE_+0x18>
    800040e8:	01700613          	li	a2,23
    800040ec:	0009b583          	ld	a1,0(s3)
    800040f0:	000a0513          	mv	a0,s4
    800040f4:	00000097          	auipc	ra,0x0
    800040f8:	ddc080e7          	jalr	-548(ra) # 80003ed0 <_ZN5Riscv19setVirtualAddrRangeEmmi>
    setVirtualAddrRange((size_t)HEAP_START_ADDR, (size_t)newStartAddr, KERNEL_RW); // kernel heap data
    800040fc:	00700613          	li	a2,7
    80004100:	00048593          	mv	a1,s1
    80004104:	0009b503          	ld	a0,0(s3)
    80004108:	00000097          	auipc	ra,0x0
    8000410c:	dc8080e7          	jalr	-568(ra) # 80003ed0 <_ZN5Riscv19setVirtualAddrRangeEmmi>
    setVirtualAddrRange((size_t)newStartAddr, (size_t)HEAP_END_ADDR + 1,USER_RW); // user heap data
    80004110:	00005797          	auipc	a5,0x5
    80004114:	8987b783          	ld	a5,-1896(a5) # 800089a8 <_GLOBAL_OFFSET_TABLE_+0xa0>
    80004118:	0007b583          	ld	a1,0(a5)
    8000411c:	01700613          	li	a2,23
    80004120:	00158593          	addi	a1,a1,1
    80004124:	00048513          	mv	a0,s1
    80004128:	00000097          	auipc	ra,0x0
    8000412c:	da8080e7          	jalr	-600(ra) # 80003ed0 <_ZN5Riscv19setVirtualAddrRangeEmmi>
    setVirtualAddr((size_t)CONSOLE_RX_DATA,0x1,0xf);
    80004130:	00f00613          	li	a2,15
    80004134:	00100593          	li	a1,1
    80004138:	00004797          	auipc	a5,0x4
    8000413c:	7d87b783          	ld	a5,2008(a5) # 80008910 <_GLOBAL_OFFSET_TABLE_+0x8>
    80004140:	0007b503          	ld	a0,0(a5)
    80004144:	00000097          	auipc	ra,0x0
    80004148:	c28080e7          	jalr	-984(ra) # 80003d6c <_ZN5Riscv14setVirtualAddrEmmm>
    setVirtualAddr((size_t)CONSOLE_TX_DATA,0x1,0xf);
    8000414c:	00f00613          	li	a2,15
    80004150:	00100593          	li	a1,1
    80004154:	00004797          	auipc	a5,0x4
    80004158:	7fc7b783          	ld	a5,2044(a5) # 80008950 <_GLOBAL_OFFSET_TABLE_+0x48>
    8000415c:	0007b503          	ld	a0,0(a5)
    80004160:	00000097          	auipc	ra,0x0
    80004164:	c0c080e7          	jalr	-1012(ra) # 80003d6c <_ZN5Riscv14setVirtualAddrEmmm>
    setVirtualAddr((size_t)CONSOLE_STATUS,0x1,0xf);
    80004168:	00f00613          	li	a2,15
    8000416c:	00100593          	li	a1,1
    80004170:	00004797          	auipc	a5,0x4
    80004174:	7a87b783          	ld	a5,1960(a5) # 80008918 <_GLOBAL_OFFSET_TABLE_+0x10>
    80004178:	0007b503          	ld	a0,0(a5)
    8000417c:	00000097          	auipc	ra,0x0
    80004180:	bf0080e7          	jalr	-1040(ra) # 80003d6c <_ZN5Riscv14setVirtualAddrEmmm>
    setVirtualAddr(0xc201004,0x1,0xf);
    80004184:	00f00613          	li	a2,15
    80004188:	00100593          	li	a1,1
    8000418c:	0c201537          	lui	a0,0xc201
    80004190:	00450513          	addi	a0,a0,4 # c201004 <_entry-0x73dfeffc>
    80004194:	00000097          	auipc	ra,0x0
    80004198:	bd8080e7          	jalr	-1064(ra) # 80003d6c <_ZN5Riscv14setVirtualAddrEmmm>
    __asm__ volatile("csrs sstatus, %0" : :"r"(mask));
    8000419c:	000407b7          	lui	a5,0x40
    800041a0:	1007a073          	csrs	sstatus,a5
    size_t satp = ((size_t)1 << 63) | ((size_t)mainPMT >> 12);
    800041a4:	00893783          	ld	a5,8(s2)
    800041a8:	00c7d793          	srli	a5,a5,0xc
    800041ac:	fff00713          	li	a4,-1
    800041b0:	03f71713          	slli	a4,a4,0x3f
    800041b4:	00e7e7b3          	or	a5,a5,a4
    __asm__ volatile("csrw satp, %0" : :"r"(satp));
    800041b8:	18079073          	csrw	satp,a5
}
    800041bc:	03813083          	ld	ra,56(sp)
    800041c0:	03013403          	ld	s0,48(sp)
    800041c4:	02813483          	ld	s1,40(sp)
    800041c8:	02013903          	ld	s2,32(sp)
    800041cc:	01813983          	ld	s3,24(sp)
    800041d0:	01013a03          	ld	s4,16(sp)
    800041d4:	00813a83          	ld	s5,8(sp)
    800041d8:	00013b03          	ld	s6,0(sp)
    800041dc:	04010113          	addi	sp,sp,64
    800041e0:	00008067          	ret

00000000800041e4 <_ZN5Riscv10kernelMainEv>:
    if(kernelMainCalled) return;
    800041e4:	0000d797          	auipc	a5,0xd
    800041e8:	8e47c783          	lbu	a5,-1820(a5) # 80010ac8 <_ZN5Riscv16kernelMainCalledE>
    800041ec:	00078463          	beqz	a5,800041f4 <_ZN5Riscv10kernelMainEv+0x10>
    800041f0:	00008067          	ret
{
    800041f4:	ff010113          	addi	sp,sp,-16
    800041f8:	00113423          	sd	ra,8(sp)
    800041fc:	00813023          	sd	s0,0(sp)
    80004200:	01010413          	addi	s0,sp,16
    kernelMainCalled = true;
    80004204:	00100793          	li	a5,1
    80004208:	0000d717          	auipc	a4,0xd
    8000420c:	8cf70023          	sb	a5,-1856(a4) # 80010ac8 <_ZN5Riscv16kernelMainCalledE>
    initSystem();
    80004210:	00000097          	auipc	ra,0x0
    80004214:	d28080e7          	jalr	-728(ra) # 80003f38 <_ZN5Riscv10initSystemEv>
    enableInterrupts();
    80004218:	00000097          	auipc	ra,0x0
    8000421c:	a28080e7          	jalr	-1496(ra) # 80003c40 <_ZN5Riscv16enableInterruptsEv>
    while(!PCB::userPCB->isFinished())
    80004220:	00004797          	auipc	a5,0x4
    80004224:	7687b783          	ld	a5,1896(a5) # 80008988 <_GLOBAL_OFFSET_TABLE_+0x80>
    80004228:	0007b503          	ld	a0,0(a5)
    8000422c:	ffffe097          	auipc	ra,0xffffe
    80004230:	448080e7          	jalr	1096(ra) # 80002674 <_ZN3PCB10isFinishedEv>
    80004234:	00051863          	bnez	a0,80004244 <_ZN5Riscv10kernelMainEv+0x60>
        thread_dispatch_kernel();
    80004238:	ffffd097          	auipc	ra,0xffffd
    8000423c:	000080e7          	jalr	ra # 80001238 <_Z22thread_dispatch_kernelv>
    while(!PCB::userPCB->isFinished())
    80004240:	fe1ff06f          	j	80004220 <_ZN5Riscv10kernelMainEv+0x3c>
    endSystem();
    80004244:	00000097          	auipc	ra,0x0
    80004248:	a3c080e7          	jalr	-1476(ra) # 80003c80 <_ZN5Riscv9endSystemEv>
}
    8000424c:	00813083          	ld	ra,8(sp)
    80004250:	00013403          	ld	s0,0(sp)
    80004254:	01010113          	addi	sp,sp,16
    80004258:	00008067          	ret

000000008000425c <_ZN5Riscv14addVirtualAddrEm>:

void Riscv::addVirtualAddr(size_t addr)
{
    8000425c:	ff010113          	addi	sp,sp,-16
    80004260:	00113423          	sd	ra,8(sp)
    80004264:	00813023          	sd	s0,0(sp)
    80004268:	01010413          	addi	s0,sp,16
    setVirtualAddr(addr, 0x1, 0xf);
    8000426c:	00f00613          	li	a2,15
    80004270:	00100593          	li	a1,1
    80004274:	00000097          	auipc	ra,0x0
    80004278:	af8080e7          	jalr	-1288(ra) # 80003d6c <_ZN5Riscv14setVirtualAddrEmmm>
}
    8000427c:	00813083          	ld	ra,8(sp)
    80004280:	00013403          	ld	s0,0(sp)
    80004284:	01010113          	addi	sp,sp,16
    80004288:	00008067          	ret

000000008000428c <_ZN5Riscv19addVirtualAddrInstrEm>:

void Riscv::addVirtualAddrInstr(size_t addr)
{
    8000428c:	ff010113          	addi	sp,sp,-16
    80004290:	00113423          	sd	ra,8(sp)
    80004294:	00813023          	sd	s0,0(sp)
    80004298:	01010413          	addi	s0,sp,16
    setVirtualAddr(addr, 0x1, 0xf);
    8000429c:	00f00613          	li	a2,15
    800042a0:	00100593          	li	a1,1
    800042a4:	00000097          	auipc	ra,0x0
    800042a8:	ac8080e7          	jalr	-1336(ra) # 80003d6c <_ZN5Riscv14setVirtualAddrEmmm>
}
    800042ac:	00813083          	ld	ra,8(sp)
    800042b0:	00013403          	ld	s0,0(sp)
    800042b4:	01010113          	addi	sp,sp,16
    800042b8:	00008067          	ret

00000000800042bc <_ZN5Riscv22disableTimerInterruptsEv>:

void Riscv::disableTimerInterrupts()
{
    800042bc:	ff010113          	addi	sp,sp,-16
    800042c0:	00813423          	sd	s0,8(sp)
    800042c4:	01010413          	addi	s0,sp,16
    uint64 x = 0x2;
    __asm__ volatile("csrc sie, %0"::"r"(x));
    800042c8:	00200793          	li	a5,2
    800042cc:	1047b073          	csrc	sie,a5
}
    800042d0:	00813403          	ld	s0,8(sp)
    800042d4:	01010113          	addi	sp,sp,16
    800042d8:	00008067          	ret

00000000800042dc <_ZN5Riscv13w_a0_sscratchEv>:

void Riscv::w_a0_sscratch()
{
    800042dc:	ff010113          	addi	sp,sp,-16
    800042e0:	00813423          	sd	s0,8(sp)
    800042e4:	01010413          	addi	s0,sp,16
    uint64 a1Temp;
    __asm__ volatile("mv %0, a1":"=r"(a1Temp));
    800042e8:	00058793          	mv	a5,a1
    __asm__ volatile("mv a1, %0"::"r"(PCB::running->sscratch));
    800042ec:	00004717          	auipc	a4,0x4
    800042f0:	6b473703          	ld	a4,1716(a4) # 800089a0 <_GLOBAL_OFFSET_TABLE_+0x98>
    800042f4:	00073703          	ld	a4,0(a4)
    800042f8:	01073703          	ld	a4,16(a4)
    800042fc:	00070593          	mv	a1,a4
    __asm__ volatile("sd a0, 80(a1)");
    80004300:	04a5b823          	sd	a0,80(a1)
    __asm__ volatile("mv a1,%0"::"r"(a1Temp));
    80004304:	00078593          	mv	a1,a5
}
    80004308:	00813403          	ld	s0,8(sp)
    8000430c:	01010113          	addi	sp,sp,16
    80004310:	00008067          	ret

0000000080004314 <_ZN5Riscv14changePrivModeEv>:

void Riscv::changePrivMode()
{
    80004314:	ff010113          	addi	sp,sp,-16
    80004318:	00813423          	sd	s0,8(sp)
    8000431c:	01010413          	addi	s0,sp,16
    if(PCB::running->systemThread)
    80004320:	00004797          	auipc	a5,0x4
    80004324:	6807b783          	ld	a5,1664(a5) # 800089a0 <_GLOBAL_OFFSET_TABLE_+0x98>
    80004328:	0007b783          	ld	a5,0(a5)
    8000432c:	0007c783          	lbu	a5,0(a5)
    80004330:	00078c63          	beqz	a5,80004348 <_ZN5Riscv14changePrivModeEv+0x34>
    80004334:	10000793          	li	a5,256
    80004338:	1007a073          	csrs	sstatus,a5
        Riscv::ms_sstatus(Riscv::SSTATUS_SPP);
    else
        Riscv::mc_sstatus(Riscv::SSTATUS_SPP);
}
    8000433c:	00813403          	ld	s0,8(sp)
    80004340:	01010113          	addi	sp,sp,16
    80004344:	00008067          	ret
    __asm__ volatile("csrc sstatus, %0" : :"r"(mask));
    80004348:	10000793          	li	a5,256
    8000434c:	1007b073          	csrc	sstatus,a5
    80004350:	fedff06f          	j	8000433c <_ZN5Riscv14changePrivModeEv+0x28>

0000000080004354 <_ZN5Riscv20handleSupervisorTrapEv>:

void Riscv::handleSupervisorTrap()
{
    80004354:	f9010113          	addi	sp,sp,-112
    80004358:	06113423          	sd	ra,104(sp)
    8000435c:	06813023          	sd	s0,96(sp)
    80004360:	04913c23          	sd	s1,88(sp)
    80004364:	07010413          	addi	s0,sp,112
    __asm__ volatile("mv %0, a4" : "=r"(PCB::savedRegA4));
    80004368:	00070713          	mv	a4,a4
    8000436c:	00004797          	auipc	a5,0x4
    80004370:	65c7b783          	ld	a5,1628(a5) # 800089c8 <_GLOBAL_OFFSET_TABLE_+0xc0>
    80004374:	00e7b023          	sd	a4,0(a5)
    __asm__ volatile("csrr %0, sscratch":"=r"(PCB::running->sscratch));
    80004378:	00004797          	auipc	a5,0x4
    8000437c:	6287b783          	ld	a5,1576(a5) # 800089a0 <_GLOBAL_OFFSET_TABLE_+0x98>
    80004380:	0007b783          	ld	a5,0(a5)
    80004384:	14002773          	csrr	a4,sscratch
    80004388:	00e7b823          	sd	a4,16(a5)
    __asm__ volatile("csrr %0, scause" : "=r"(scause));
    8000438c:	142027f3          	csrr	a5,scause
    80004390:	faf43c23          	sd	a5,-72(s0)
    return scause;
    80004394:	fb843783          	ld	a5,-72(s0)

    static const size_t storePF = 15;
    static const size_t loadPF = 13;
    static const size_t instrPF = 12;

    switch(scause)
    80004398:	00f00713          	li	a4,15
    8000439c:	02f76863          	bltu	a4,a5,800043cc <_ZN5Riscv20handleSupervisorTrapEv+0x78>
    800043a0:	00200713          	li	a4,2
    800043a4:	10e7e863          	bltu	a5,a4,800044b4 <_ZN5Riscv20handleSupervisorTrapEv+0x160>
    800043a8:	00f00713          	li	a4,15
    800043ac:	10f76463          	bltu	a4,a5,800044b4 <_ZN5Riscv20handleSupervisorTrapEv+0x160>
    800043b0:	00279793          	slli	a5,a5,0x2
    800043b4:	00004717          	auipc	a4,0x4
    800043b8:	01070713          	addi	a4,a4,16 # 800083c4 <CONSOLE_STATUS+0x3b4>
    800043bc:	00e787b3          	add	a5,a5,a4
    800043c0:	0007a783          	lw	a5,0(a5)
    800043c4:	00e787b3          	add	a5,a5,a4
    800043c8:	00078067          	jr	a5
    800043cc:	fff00713          	li	a4,-1
    800043d0:	03f71713          	slli	a4,a4,0x3f
    800043d4:	00170713          	addi	a4,a4,1
    800043d8:	04e78a63          	beq	a5,a4,8000442c <_ZN5Riscv20handleSupervisorTrapEv+0xd8>
    800043dc:	fff00713          	li	a4,-1
    800043e0:	03f71713          	slli	a4,a4,0x3f
    800043e4:	00970713          	addi	a4,a4,9
    800043e8:	0ce79663          	bne	a5,a4,800044b4 <_ZN5Riscv20handleSupervisorTrapEv+0x160>
            changePrivMode();
            break;
        }
        case hwInterrupt:
        {
            KConsole::getCharactersFromConsole();
    800043ec:	fffff097          	auipc	ra,0xfffff
    800043f0:	d0c080e7          	jalr	-756(ra) # 800030f8 <_ZN8KConsole24getCharactersFromConsoleEv>
            plic_complete(plic_claim());
    800043f4:	00002097          	auipc	ra,0x2
    800043f8:	890080e7          	jalr	-1904(ra) # 80005c84 <plic_claim>
    800043fc:	00002097          	auipc	ra,0x2
    80004400:	8c0080e7          	jalr	-1856(ra) # 80005cbc <plic_complete>
            break;
    80004404:	0b00006f          	j	800044b4 <_ZN5Riscv20handleSupervisorTrapEv+0x160>
            __asm__ volatile("csrr %0, stval":"=r"(addrPF));
    80004408:	14302573          	csrr	a0,stval
            addVirtualAddr(addrPF);
    8000440c:	00000097          	auipc	ra,0x0
    80004410:	e50080e7          	jalr	-432(ra) # 8000425c <_ZN5Riscv14addVirtualAddrEm>
            __asm__ volatile("csrr %0, stval":"=r"(addrPF));
    80004414:	14302573          	csrr	a0,stval
            addVirtualAddr(addrPF);
    80004418:	00000097          	auipc	ra,0x0
    8000441c:	e44080e7          	jalr	-444(ra) # 8000425c <_ZN5Riscv14addVirtualAddrEm>
            __asm__ volatile("csrr %0, stval":"=r"(addrPF));
    80004420:	14302573          	csrr	a0,stval
            addVirtualAddrInstr(addrPF);
    80004424:	00000097          	auipc	ra,0x0
    80004428:	e68080e7          	jalr	-408(ra) # 8000428c <_ZN5Riscv19addVirtualAddrInstrEm>
    __asm__ volatile("csrr %0, sepc" : "=r"(sepc));
    8000442c:	141027f3          	csrr	a5,sepc
    80004430:	fcf43423          	sd	a5,-56(s0)
    return sepc;
    80004434:	fc843783          	ld	a5,-56(s0)
            uint64 volatile sepc = Riscv::r_sepc();
    80004438:	f8f43c23          	sd	a5,-104(s0)
}

inline uint64 Riscv::r_sstatus() {
    uint64 volatile sstatus;
    __asm__ volatile("csrr %0, sstatus" : "=r"(sstatus));
    8000443c:	100027f3          	csrr	a5,sstatus
    80004440:	fcf43023          	sd	a5,-64(s0)
    return sstatus;
    80004444:	fc043783          	ld	a5,-64(s0)
            uint64 volatile sstatus = Riscv::r_sstatus();
    80004448:	faf43023          	sd	a5,-96(s0)
    __asm__ volatile("csrc sip, %0" : :"r"(mask));
    8000444c:	00200793          	li	a5,2
    80004450:	1447b073          	csrc	sip,a5
            totalTime++;
    80004454:	0000c717          	auipc	a4,0xc
    80004458:	64c70713          	addi	a4,a4,1612 # 80010aa0 <_ZN5Riscv12finishSystemE>
    8000445c:	03073783          	ld	a5,48(a4)
    80004460:	00178793          	addi	a5,a5,1
    80004464:	02f73823          	sd	a5,48(a4)
            PCB::timeSliceCounter++;
    80004468:	00004497          	auipc	s1,0x4
    8000446c:	4f04b483          	ld	s1,1264(s1) # 80008958 <_GLOBAL_OFFSET_TABLE_+0x50>
    80004470:	0004b783          	ld	a5,0(s1)
    80004474:	00178793          	addi	a5,a5,1
    80004478:	00f4b023          	sd	a5,0(s1)
            SleepPCBList::tryToWakePCBs();
    8000447c:	fffff097          	auipc	ra,0xfffff
    80004480:	1b8080e7          	jalr	440(ra) # 80003634 <_ZN12SleepPCBList13tryToWakePCBsEv>
            if (PCB::timeSliceCounter >= PCB::running->getTimeSlice())
    80004484:	00004797          	auipc	a5,0x4
    80004488:	51c7b783          	ld	a5,1308(a5) # 800089a0 <_GLOBAL_OFFSET_TABLE_+0x98>
    8000448c:	0007b783          	ld	a5,0(a5)
    uint64 getTimeSlice() { return timeSlice;}
    80004490:	0187b783          	ld	a5,24(a5)
    80004494:	0004b703          	ld	a4,0(s1)
    80004498:	02f77863          	bgeu	a4,a5,800044c8 <_ZN5Riscv20handleSupervisorTrapEv+0x174>
            Riscv::w_sstatus(sstatus);
    8000449c:	fa043783          	ld	a5,-96(s0)
}

inline void Riscv::w_sstatus(uint64 sstatus) {
    __asm__ volatile("csrw sstatus, %0" : :"r"(sstatus));
    800044a0:	10079073          	csrw	sstatus,a5
            Riscv::w_sepc(sepc);
    800044a4:	f9843783          	ld	a5,-104(s0)
    __asm__ volatile("csrw sepc, %0" : :"r"(sepc));
    800044a8:	14179073          	csrw	sepc,a5
            changePrivMode();
    800044ac:	00000097          	auipc	ra,0x0
    800044b0:	e68080e7          	jalr	-408(ra) # 80004314 <_ZN5Riscv14changePrivModeEv>
            Riscv::w_sepc(sepc);
            changePrivMode();
            break;
        }
    }
}
    800044b4:	06813083          	ld	ra,104(sp)
    800044b8:	06013403          	ld	s0,96(sp)
    800044bc:	05813483          	ld	s1,88(sp)
    800044c0:	07010113          	addi	sp,sp,112
    800044c4:	00008067          	ret
                PCB::timeSliceCounter = 0;
    800044c8:	0004b023          	sd	zero,0(s1)
                PCB::dispatch();
    800044cc:	ffffe097          	auipc	ra,0xffffe
    800044d0:	fcc080e7          	jalr	-52(ra) # 80002498 <_ZN3PCB8dispatchEv>
    800044d4:	fc9ff06f          	j	8000449c <_ZN5Riscv20handleSupervisorTrapEv+0x148>
            PCB::threadExitHandler();
    800044d8:	ffffe097          	auipc	ra,0xffffe
    800044dc:	1c0080e7          	jalr	448(ra) # 80002698 <_ZN3PCB17threadExitHandlerEv>
            break;
    800044e0:	fd5ff06f          	j	800044b4 <_ZN5Riscv20handleSupervisorTrapEv+0x160>
            PCB::threadExitHandler();
    800044e4:	ffffe097          	auipc	ra,0xffffe
    800044e8:	1b4080e7          	jalr	436(ra) # 80002698 <_ZN3PCB17threadExitHandlerEv>
            break;
    800044ec:	fc9ff06f          	j	800044b4 <_ZN5Riscv20handleSupervisorTrapEv+0x160>
            PCB::threadExitHandler();
    800044f0:	ffffe097          	auipc	ra,0xffffe
    800044f4:	1a8080e7          	jalr	424(ra) # 80002698 <_ZN3PCB17threadExitHandlerEv>
            break;
    800044f8:	fbdff06f          	j	800044b4 <_ZN5Riscv20handleSupervisorTrapEv+0x160>
            __asm__ volatile("mv %0, a0" :  "=r"(operation));
    800044fc:	00050793          	mv	a5,a0
    __asm__ volatile("csrr %0, sepc" : "=r"(sepc));
    80004500:	14102773          	csrr	a4,sepc
    80004504:	fce43c23          	sd	a4,-40(s0)
    return sepc;
    80004508:	fd843703          	ld	a4,-40(s0)
            uint64 volatile sepc = Riscv::r_sepc() + 4;
    8000450c:	00470713          	addi	a4,a4,4
    80004510:	fae43423          	sd	a4,-88(s0)
    __asm__ volatile("csrr %0, sstatus" : "=r"(sstatus));
    80004514:	10002773          	csrr	a4,sstatus
    80004518:	fce43823          	sd	a4,-48(s0)
    return sstatus;
    8000451c:	fd043703          	ld	a4,-48(s0)
            uint64 volatile sstatus = Riscv::r_sstatus();
    80004520:	fae43823          	sd	a4,-80(s0)
            switch(operation)
    80004524:	04300713          	li	a4,67
    80004528:	02f76463          	bltu	a4,a5,80004550 <_ZN5Riscv20handleSupervisorTrapEv+0x1fc>
    8000452c:	00279793          	slli	a5,a5,0x2
    80004530:	00004717          	auipc	a4,0x4
    80004534:	ed470713          	addi	a4,a4,-300 # 80008404 <CONSOLE_STATUS+0x3f4>
    80004538:	00e787b3          	add	a5,a5,a4
    8000453c:	0007a783          	lw	a5,0(a5)
    80004540:	00e787b3          	add	a5,a5,a4
    80004544:	00078067          	jr	a5
                    MemoryAllocator::memAllocHandler();
    80004548:	00000097          	auipc	ra,0x0
    8000454c:	4f0080e7          	jalr	1264(ra) # 80004a38 <_ZN15MemoryAllocator15memAllocHandlerEv>
            Riscv::w_sstatus(sstatus);
    80004550:	fb043783          	ld	a5,-80(s0)
    __asm__ volatile("csrw sstatus, %0" : :"r"(sstatus));
    80004554:	10079073          	csrw	sstatus,a5
            Riscv::w_sepc(sepc);
    80004558:	fa843783          	ld	a5,-88(s0)
    __asm__ volatile("csrw sepc, %0" : :"r"(sepc));
    8000455c:	14179073          	csrw	sepc,a5
            changePrivMode();
    80004560:	00000097          	auipc	ra,0x0
    80004564:	db4080e7          	jalr	-588(ra) # 80004314 <_ZN5Riscv14changePrivModeEv>
}
    80004568:	f4dff06f          	j	800044b4 <_ZN5Riscv20handleSupervisorTrapEv+0x160>
                    MemoryAllocator::memFreeHandler();
    8000456c:	00000097          	auipc	ra,0x0
    80004570:	53c080e7          	jalr	1340(ra) # 80004aa8 <_ZN15MemoryAllocator14memFreeHandlerEv>
                    break;
    80004574:	fddff06f          	j	80004550 <_ZN5Riscv20handleSupervisorTrapEv+0x1fc>
                    PCB::threadMakePCBHandler();
    80004578:	ffffe097          	auipc	ra,0xffffe
    8000457c:	2e8080e7          	jalr	744(ra) # 80002860 <_ZN3PCB20threadMakePCBHandlerEv>
                    break;
    80004580:	fd1ff06f          	j	80004550 <_ZN5Riscv20handleSupervisorTrapEv+0x1fc>
                    PCB::threadCreateHandler();
    80004584:	ffffe097          	auipc	ra,0xffffe
    80004588:	1f4080e7          	jalr	500(ra) # 80002778 <_ZN3PCB19threadCreateHandlerEv>
                    break;
    8000458c:	fc5ff06f          	j	80004550 <_ZN5Riscv20handleSupervisorTrapEv+0x1fc>
                    PCB::threadStartHandler();
    80004590:	ffffe097          	auipc	ra,0xffffe
    80004594:	28c080e7          	jalr	652(ra) # 8000281c <_ZN3PCB18threadStartHandlerEv>
                    break;
    80004598:	fb9ff06f          	j	80004550 <_ZN5Riscv20handleSupervisorTrapEv+0x1fc>
                    PCB::threadDispatchHandler();
    8000459c:	ffffe097          	auipc	ra,0xffffe
    800045a0:	148080e7          	jalr	328(ra) # 800026e4 <_ZN3PCB21threadDispatchHandlerEv>
                    break;
    800045a4:	fadff06f          	j	80004550 <_ZN5Riscv20handleSupervisorTrapEv+0x1fc>
                    PCB::threadExitHandler();
    800045a8:	ffffe097          	auipc	ra,0xffffe
    800045ac:	0f0080e7          	jalr	240(ra) # 80002698 <_ZN3PCB17threadExitHandlerEv>
                    break;
    800045b0:	fa1ff06f          	j	80004550 <_ZN5Riscv20handleSupervisorTrapEv+0x1fc>
                    PCB::threadSleepHandler();
    800045b4:	ffffe097          	auipc	ra,0xffffe
    800045b8:	160080e7          	jalr	352(ra) # 80002714 <_ZN3PCB18threadSleepHandlerEv>
                    break;
    800045bc:	f95ff06f          	j	80004550 <_ZN5Riscv20handleSupervisorTrapEv+0x1fc>
                    PCB::threadDelPCBHandler();
    800045c0:	ffffe097          	auipc	ra,0xffffe
    800045c4:	338080e7          	jalr	824(ra) # 800028f8 <_ZN3PCB19threadDelPCBHandlerEv>
                    break;
    800045c8:	f89ff06f          	j	80004550 <_ZN5Riscv20handleSupervisorTrapEv+0x1fc>
                    KSemaphore::semOpenHandler();
    800045cc:	00001097          	auipc	ra,0x1
    800045d0:	cc4080e7          	jalr	-828(ra) # 80005290 <_ZN10KSemaphore14semOpenHandlerEv>
                    break;
    800045d4:	f7dff06f          	j	80004550 <_ZN5Riscv20handleSupervisorTrapEv+0x1fc>
                    KSemaphore::semWaitHandler();
    800045d8:	00001097          	auipc	ra,0x1
    800045dc:	d6c080e7          	jalr	-660(ra) # 80005344 <_ZN10KSemaphore14semWaitHandlerEv>
                    break;
    800045e0:	f71ff06f          	j	80004550 <_ZN5Riscv20handleSupervisorTrapEv+0x1fc>
                    KSemaphore::semSignalHandler();
    800045e4:	00001097          	auipc	ra,0x1
    800045e8:	db4080e7          	jalr	-588(ra) # 80005398 <_ZN10KSemaphore16semSignalHandlerEv>
                    break;
    800045ec:	f65ff06f          	j	80004550 <_ZN5Riscv20handleSupervisorTrapEv+0x1fc>
                    KSemaphore::semCloseHandler();
    800045f0:	00001097          	auipc	ra,0x1
    800045f4:	dec080e7          	jalr	-532(ra) # 800053dc <_ZN10KSemaphore15semCloseHandlerEv>
                    break;
    800045f8:	f59ff06f          	j	80004550 <_ZN5Riscv20handleSupervisorTrapEv+0x1fc>
                    KConsole::getcHandler();
    800045fc:	fffff097          	auipc	ra,0xfffff
    80004600:	d00080e7          	jalr	-768(ra) # 800032fc <_ZN8KConsole11getcHandlerEv>
                    break;
    80004604:	f4dff06f          	j	80004550 <_ZN5Riscv20handleSupervisorTrapEv+0x1fc>
                    KConsole::putcHandler();
    80004608:	fffff097          	auipc	ra,0xfffff
    8000460c:	cc4080e7          	jalr	-828(ra) # 800032cc <_ZN8KConsole11putcHandlerEv>
                    break;
    80004610:	f41ff06f          	j	80004550 <_ZN5Riscv20handleSupervisorTrapEv+0x1fc>
                    KConsole::getCharHandler();
    80004614:	fffff097          	auipc	ra,0xfffff
    80004618:	e44080e7          	jalr	-444(ra) # 80003458 <_ZN8KConsole14getCharHandlerEv>
                    break;
    8000461c:	f35ff06f          	j	80004550 <_ZN5Riscv20handleSupervisorTrapEv+0x1fc>

0000000080004620 <_ZN15MemoryAllocator10initMemoryEPv>:
{
    return tryToFreeSegment(addr);
}

void MemoryAllocator::initMemory(void* startAddr)
{
    80004620:	ff010113          	addi	sp,sp,-16
    80004624:	00813423          	sd	s0,8(sp)
    80004628:	01010413          	addi	s0,sp,16
    if(memoryInitiliaized == 1)
    8000462c:	0000c717          	auipc	a4,0xc
    80004630:	4ac72703          	lw	a4,1196(a4) # 80010ad8 <_ZN15MemoryAllocator18memoryInitiliaizedE>
    80004634:	00100793          	li	a5,1
    80004638:	02f70c63          	beq	a4,a5,80004670 <_ZN15MemoryAllocator10initMemoryEPv+0x50>
        return;
    memoryInitiliaized = 1;
    8000463c:	0000c797          	auipc	a5,0xc
    80004640:	49c78793          	addi	a5,a5,1180 # 80010ad8 <_ZN15MemoryAllocator18memoryInitiliaizedE>
    80004644:	00100713          	li	a4,1
    80004648:	00e7a023          	sw	a4,0(a5)
    headAllocated = 0;
    8000464c:	0007b423          	sd	zero,8(a5)
    headFree = (BlockHeader*)startAddr;
    80004650:	00a7b823          	sd	a0,16(a5)
    headFree->next = 0;
    80004654:	00053423          	sd	zero,8(a0)
    headFree->size = (size_t)((size_t)HEAP_END_ADDR - (size_t)startAddr  + 1 - sizeof(BlockHeader));
    80004658:	00004797          	auipc	a5,0x4
    8000465c:	3507b783          	ld	a5,848(a5) # 800089a8 <_GLOBAL_OFFSET_TABLE_+0xa0>
    80004660:	0007b783          	ld	a5,0(a5)
    80004664:	40a787b3          	sub	a5,a5,a0
    80004668:	ff178793          	addi	a5,a5,-15
    8000466c:	00f53023          	sd	a5,0(a0)
}
    80004670:	00813403          	ld	s0,8(sp)
    80004674:	01010113          	addi	sp,sp,16
    80004678:	00008067          	ret

000000008000467c <_ZN15MemoryAllocator17insertAllFragmentEPvmS0_>:

void MemoryAllocator::insertAllFragment(void *addr, size_t size, void* nxtAddr)
{
    8000467c:	ff010113          	addi	sp,sp,-16
    80004680:	00813423          	sd	s0,8(sp)
    80004684:	01010413          	addi	s0,sp,16
    //initMemory();
    if(memoryInitiliaized == 0)
    80004688:	0000c797          	auipc	a5,0xc
    8000468c:	4507a783          	lw	a5,1104(a5) # 80010ad8 <_ZN15MemoryAllocator18memoryInitiliaizedE>
    80004690:	02078a63          	beqz	a5,800046c4 <_ZN15MemoryAllocator17insertAllFragmentEPvmS0_+0x48>
        return;
    BlockHeader* newAllocated = (BlockHeader*)addr;
    newAllocated->next = 0;
    80004694:	00053423          	sd	zero,8(a0)
    newAllocated->size = size;
    80004698:	00b53023          	sd	a1,0(a0)
    if(headAllocated == 0)
    8000469c:	0000c797          	auipc	a5,0xc
    800046a0:	4447b783          	ld	a5,1092(a5) # 80010ae0 <_ZN15MemoryAllocator13headAllocatedE>
    800046a4:	02078663          	beqz	a5,800046d0 <_ZN15MemoryAllocator17insertAllFragmentEPvmS0_+0x54>
    {
        headAllocated = newAllocated;
    }
    else if(nxtAddr <= HEAP_END_ADDR)
    800046a8:	00004717          	auipc	a4,0x4
    800046ac:	30073703          	ld	a4,768(a4) # 800089a8 <_GLOBAL_OFFSET_TABLE_+0xa0>
    800046b0:	00073703          	ld	a4,0(a4)
    800046b4:	02c76463          	bltu	a4,a2,800046dc <_ZN15MemoryAllocator17insertAllFragmentEPvmS0_+0x60>
    {
        BlockHeader * allFrag = (BlockHeader*)nxtAddr;
        newAllocated->next = allFrag->next;
    800046b8:	00863783          	ld	a5,8(a2)
    800046bc:	00f53423          	sd	a5,8(a0)
        allFrag->next = newAllocated;
    800046c0:	00a63423          	sd	a0,8(a2)
    else
    {
        newAllocated->next = headAllocated;
        headAllocated = newAllocated;
    }
}
    800046c4:	00813403          	ld	s0,8(sp)
    800046c8:	01010113          	addi	sp,sp,16
    800046cc:	00008067          	ret
        headAllocated = newAllocated;
    800046d0:	0000c797          	auipc	a5,0xc
    800046d4:	40a7b823          	sd	a0,1040(a5) # 80010ae0 <_ZN15MemoryAllocator13headAllocatedE>
    800046d8:	fedff06f          	j	800046c4 <_ZN15MemoryAllocator17insertAllFragmentEPvmS0_+0x48>
        newAllocated->next = headAllocated;
    800046dc:	00f53423          	sd	a5,8(a0)
        headAllocated = newAllocated;
    800046e0:	0000c797          	auipc	a5,0xc
    800046e4:	40a7b023          	sd	a0,1024(a5) # 80010ae0 <_ZN15MemoryAllocator13headAllocatedE>
    800046e8:	fddff06f          	j	800046c4 <_ZN15MemoryAllocator17insertAllFragmentEPvmS0_+0x48>

00000000800046ec <_ZN15MemoryAllocator26insertNewAllocatedFragmentEPvm>:

void MemoryAllocator::insertNewAllocatedFragment(void *addr, size_t size)
{
    800046ec:	ff010113          	addi	sp,sp,-16
    800046f0:	00813423          	sd	s0,8(sp)
    800046f4:	01010413          	addi	s0,sp,16
    //initMemory();
    if(memoryInitiliaized == 0)
    800046f8:	0000c797          	auipc	a5,0xc
    800046fc:	3e07a783          	lw	a5,992(a5) # 80010ad8 <_ZN15MemoryAllocator18memoryInitiliaizedE>
    80004700:	02078c63          	beqz	a5,80004738 <_ZN15MemoryAllocator26insertNewAllocatedFragmentEPvm+0x4c>
        return;
    BlockHeader* prev = 0;
    BlockHeader* curr =  headAllocated;
    80004704:	0000c797          	auipc	a5,0xc
    80004708:	3dc7b783          	ld	a5,988(a5) # 80010ae0 <_ZN15MemoryAllocator13headAllocatedE>
    BlockHeader* newAllocated = (BlockHeader*)addr;
    newAllocated->next = 0;
    8000470c:	00053423          	sd	zero,8(a0)
    newAllocated->size = size;
    80004710:	00b53023          	sd	a1,0(a0)
    BlockHeader* prev = 0;
    80004714:	00000713          	li	a4,0
    while(curr != 0)
    80004718:	00078c63          	beqz	a5,80004730 <_ZN15MemoryAllocator26insertNewAllocatedFragmentEPvm+0x44>
    {
        if((void*)curr > addr)
    8000471c:	00f56863          	bltu	a0,a5,8000472c <_ZN15MemoryAllocator26insertNewAllocatedFragmentEPvm+0x40>
        {
            newAllocated->next = curr;
            break;
        }
        prev = curr;
    80004720:	00078713          	mv	a4,a5
        curr = curr->next;
    80004724:	0087b783          	ld	a5,8(a5)
    while(curr != 0)
    80004728:	ff1ff06f          	j	80004718 <_ZN15MemoryAllocator26insertNewAllocatedFragmentEPvm+0x2c>
            newAllocated->next = curr;
    8000472c:	00f53423          	sd	a5,8(a0)
    }

    if(prev == 0)
    80004730:	00070a63          	beqz	a4,80004744 <_ZN15MemoryAllocator26insertNewAllocatedFragmentEPvm+0x58>
        headAllocated = newAllocated;
    else
        prev->next = newAllocated;
    80004734:	00a73423          	sd	a0,8(a4)
}
    80004738:	00813403          	ld	s0,8(sp)
    8000473c:	01010113          	addi	sp,sp,16
    80004740:	00008067          	ret
        headAllocated = newAllocated;
    80004744:	0000c797          	auipc	a5,0xc
    80004748:	38a7be23          	sd	a0,924(a5) # 80010ae0 <_ZN15MemoryAllocator13headAllocatedE>
    8000474c:	fedff06f          	j	80004738 <_ZN15MemoryAllocator26insertNewAllocatedFragmentEPvm+0x4c>

0000000080004750 <_ZN15MemoryAllocator21tryToAllocateFragmentEm>:

void* MemoryAllocator::tryToAllocateFragment(size_t size)
{
    //initMemory();
    if(memoryInitiliaized == 0)
    80004750:	0000c797          	auipc	a5,0xc
    80004754:	3887a783          	lw	a5,904(a5) # 80010ad8 <_ZN15MemoryAllocator18memoryInitiliaizedE>
    80004758:	0e078e63          	beqz	a5,80004854 <_ZN15MemoryAllocator21tryToAllocateFragmentEm+0x104>
{
    8000475c:	fe010113          	addi	sp,sp,-32
    80004760:	00113c23          	sd	ra,24(sp)
    80004764:	00813823          	sd	s0,16(sp)
    80004768:	00913423          	sd	s1,8(sp)
    8000476c:	02010413          	addi	s0,sp,32
    80004770:	00050593          	mv	a1,a0
        return nullptr;
    uint64 retval = 0;
    BlockHeader* prev = 0;
    BlockHeader* curr = headFree;
    80004774:	0000c497          	auipc	s1,0xc
    80004778:	3744b483          	ld	s1,884(s1) # 80010ae8 <_ZN15MemoryAllocator8headFreeE>
    BlockHeader* prev = 0;
    8000477c:	00000713          	li	a4,0
    while(curr != 0)
    80004780:	0a048e63          	beqz	s1,8000483c <_ZN15MemoryAllocator21tryToAllocateFragmentEm+0xec>
    {
        if(curr->size >= size)
    80004784:	0004b783          	ld	a5,0(s1)
    80004788:	00b7f863          	bgeu	a5,a1,80004798 <_ZN15MemoryAllocator21tryToAllocateFragmentEm+0x48>
            //insertNewAllocatedFragment(oldAddr, size);
            uint64 oldA = (uint64)((char*)oldAddr + sizeof(BlockHeader));
            retval = oldA;
            break;
        }
        prev = curr;
    8000478c:	00048713          	mv	a4,s1
        curr = curr->next;
    80004790:	0084b483          	ld	s1,8(s1)
    while(curr != 0)
    80004794:	fedff06f          	j	80004780 <_ZN15MemoryAllocator21tryToAllocateFragmentEm+0x30>
            void* newAddr = ((char*)curr + size + sizeof(BlockHeader));
    80004798:	01058693          	addi	a3,a1,16
    8000479c:	00d486b3          	add	a3,s1,a3
            void* nxtAllFrag = ((char*)curr + curr->size + sizeof(BlockHeader));
    800047a0:	01078613          	addi	a2,a5,16
    800047a4:	00c48633          	add	a2,s1,a2
            if(newAddr <= HEAP_END_ADDR)
    800047a8:	00004517          	auipc	a0,0x4
    800047ac:	20053503          	ld	a0,512(a0) # 800089a8 <_GLOBAL_OFFSET_TABLE_+0xa0>
    800047b0:	00053503          	ld	a0,0(a0)
    800047b4:	06d56063          	bltu	a0,a3,80004814 <_ZN15MemoryAllocator21tryToAllocateFragmentEm+0xc4>
                uint64 size2 = curr->size - size;
    800047b8:	40b78533          	sub	a0,a5,a1
                if(size2 > sizeof(BlockHeader))
    800047bc:	01000813          	li	a6,16
    800047c0:	02a87663          	bgeu	a6,a0,800047ec <_ZN15MemoryAllocator21tryToAllocateFragmentEm+0x9c>
