GAS LISTING /tmp/ccVKSSsU.s 			page 1


   1              		.file	"buddyAllocator.cpp"
   2              		.option pic
   3              		.option norelax
   4              		.text
   5              	.Ltext0:
   6              		.align	2
   7              		.globl	_Z15addBlockToLevelP14buddyAllocatorPvm
   9              	_Z15addBlockToLevelP14buddyAllocatorPvm:
  10              	.LFB14:
  11              		.file 1 "src/buddyAllocator.cpp"
   1:src/buddyAllocator.cpp **** #include "../h/buddyAllocator.hpp"
   2:src/buddyAllocator.cpp **** #include "../h/KConsole.hpp"
   3:src/buddyAllocator.cpp **** 
   4:src/buddyAllocator.cpp **** #define BLOCK_SIZE 4096
   5:src/buddyAllocator.cpp **** 
   6:src/buddyAllocator.cpp **** buddyAllocator* buddy_init(void* addr, size_t numOfBlocks)
   7:src/buddyAllocator.cpp **** {
   8:src/buddyAllocator.cpp ****     KConsole::trapPrintString("Buddy initialization\n");
   9:src/buddyAllocator.cpp ****     size_t blockAddr = getBlockAddr((size_t)addr);
  10:src/buddyAllocator.cpp ****     size_t buddyAddr = (size_t)addr;
  11:src/buddyAllocator.cpp ****     if((size_t)addr != blockAddr) // if start address not aligned
  12:src/buddyAllocator.cpp ****     {
  13:src/buddyAllocator.cpp ****         buddyAddr = getNextBlockAddr(blockAddr);
  14:src/buddyAllocator.cpp ****         numOfBlocks--;
  15:src/buddyAllocator.cpp ****     }
  16:src/buddyAllocator.cpp ****     KConsole::trapPrintString("Buddy starting address: ");
  17:src/buddyAllocator.cpp ****     KConsole::trapPrintInt(buddyAddr); KConsole::trapPrintString("\n");
  18:src/buddyAllocator.cpp ****     numOfBlocks--; // take one block for buddy metadata
  19:src/buddyAllocator.cpp ****     buddyAllocator* buddy = (buddyAllocator*)buddyAddr;
  20:src/buddyAllocator.cpp ****     buddy->startAddr = (void*)getNextBlockAddr(buddyAddr);
  21:src/buddyAllocator.cpp ****     buddy->numOfBlocks = numOfBlocks;
  22:src/buddyAllocator.cpp ****     buddy->numOfFreeBlocks = numOfBlocks;
  23:src/buddyAllocator.cpp ****     buddy->maxLevel = getDeg2Floor(numOfBlocks);
  24:src/buddyAllocator.cpp **** 
  25:src/buddyAllocator.cpp ****     for(size_t i = 0; i <= buddy->maxLevel;i++)
  26:src/buddyAllocator.cpp ****         buddy->bucket[i].first = buddy->bucket[i].last = nullptr;
  27:src/buddyAllocator.cpp **** 
  28:src/buddyAllocator.cpp ****     //TODO
  29:src/buddyAllocator.cpp ****     //maybe do it differently, like putting in chunks of power of 2
  30:src/buddyAllocator.cpp ****     for(size_t i = 0;i < numOfBlocks;i++)
  31:src/buddyAllocator.cpp ****         addBlocks(buddy, (block*)buddy->startAddr + i, 1);
  32:src/buddyAllocator.cpp **** 
  33:src/buddyAllocator.cpp ****     return buddy;
  34:src/buddyAllocator.cpp **** }
  35:src/buddyAllocator.cpp **** 
  36:src/buddyAllocator.cpp **** void* buddy_alloc(buddyAllocator* buddy, size_t numOfBlocks)
  37:src/buddyAllocator.cpp **** {
  38:src/buddyAllocator.cpp ****     KConsole::trapPrintString("Buddy allocation: ");
  39:src/buddyAllocator.cpp ****     KConsole::trapPrintInt(numOfBlocks); KConsole::trapPrintString("\n");
  40:src/buddyAllocator.cpp ****     size_t level = getDeg2Ceil(numOfBlocks);
  41:src/buddyAllocator.cpp ****     KConsole::trapPrintString("Level: ");
  42:src/buddyAllocator.cpp ****     KConsole::trapPrintInt(level); KConsole::trapPrintString("\n");
  43:src/buddyAllocator.cpp ****     for(size_t i = level; i <= buddy->maxLevel;i++)
  44:src/buddyAllocator.cpp ****     {
  45:src/buddyAllocator.cpp ****         if(buddy->bucket[i].first != nullptr)
  46:src/buddyAllocator.cpp ****         {
  47:src/buddyAllocator.cpp ****             uint64* ret = buddy->bucket[i].first;
GAS LISTING /tmp/ccVKSSsU.s 			page 2


  48:src/buddyAllocator.cpp ****             KConsole::trapPrintString("Found the block:");
  49:src/buddyAllocator.cpp ****             KConsole::trapPrintInt((size_t)ret); KConsole::trapPrintString("\n");
  50:src/buddyAllocator.cpp ****             buddy->bucket[i].first = (uint64*)*ret;
  51:src/buddyAllocator.cpp ****             if(buddy->bucket[i].first == nullptr)
  52:src/buddyAllocator.cpp ****                 buddy->bucket[i].last = nullptr;
  53:src/buddyAllocator.cpp ****             split(buddy, (void*)ret, level, i, true);
  54:src/buddyAllocator.cpp ****             return ret;
  55:src/buddyAllocator.cpp ****         }
  56:src/buddyAllocator.cpp ****     }
  57:src/buddyAllocator.cpp **** 
  58:src/buddyAllocator.cpp ****     return nullptr;
  59:src/buddyAllocator.cpp **** }
  60:src/buddyAllocator.cpp **** 
  61:src/buddyAllocator.cpp **** void split(buddyAllocator* buddy, void* addr, size_t finalLevel, size_t currLevel, bool splitMore)
  62:src/buddyAllocator.cpp **** {
  63:src/buddyAllocator.cpp ****     if(!splitMore)
  64:src/buddyAllocator.cpp ****     {
  65:src/buddyAllocator.cpp ****         addBlockToLevel(buddy, addr, currLevel);
  66:src/buddyAllocator.cpp ****     }
  67:src/buddyAllocator.cpp ****     else
  68:src/buddyAllocator.cpp ****     {
  69:src/buddyAllocator.cpp ****         if(currLevel == finalLevel)
  70:src/buddyAllocator.cpp ****             return;
  71:src/buddyAllocator.cpp ****         if(currLevel > finalLevel) // condition not necessary, just for protection
  72:src/buddyAllocator.cpp ****         {
  73:src/buddyAllocator.cpp ****             size_t buddyBlock = getBuddyBlockAddr(addr, currLevel - 1); // currLevel - 1 for next s
  74:src/buddyAllocator.cpp ****             split(buddy, (void*)buddyBlock, finalLevel, currLevel - 1, false);
  75:src/buddyAllocator.cpp ****             split(buddy, addr, finalLevel, currLevel - 1, true);
  76:src/buddyAllocator.cpp ****         }
  77:src/buddyAllocator.cpp ****     }
  78:src/buddyAllocator.cpp **** }
  79:src/buddyAllocator.cpp **** 
  80:src/buddyAllocator.cpp **** void buddy_free(buddyAllocator* buddy, void* addr, size_t numOfBlocks)
  81:src/buddyAllocator.cpp **** {
  82:src/buddyAllocator.cpp ****     KConsole::trapPrintString("Buddy free: ");
  83:src/buddyAllocator.cpp ****     KConsole::trapPrintInt((size_t)addr); KConsole::trapPrintString(" ");
  84:src/buddyAllocator.cpp ****     KConsole::trapPrintInt(numOfBlocks); KConsole::trapPrintString("\n");
  85:src/buddyAllocator.cpp ****     addBlocks(buddy, addr, numOfBlocks);
  86:src/buddyAllocator.cpp **** }
  87:src/buddyAllocator.cpp **** 
  88:src/buddyAllocator.cpp **** inline size_t getBlockAddr(size_t addr)
  89:src/buddyAllocator.cpp **** {
  90:src/buddyAllocator.cpp ****     size_t mask = ((size_t)-1) << BLOCK_SIZE_POWER_2;
  91:src/buddyAllocator.cpp ****     return addr & mask;
  92:src/buddyAllocator.cpp **** }
  93:src/buddyAllocator.cpp **** inline size_t getNextBlockAddr(size_t addr)
  94:src/buddyAllocator.cpp **** {
  95:src/buddyAllocator.cpp ****     size_t currBlock = getBlockAddr(addr);
  96:src/buddyAllocator.cpp ****     return currBlock + BLOCK_SIZE;
  97:src/buddyAllocator.cpp **** }
  98:src/buddyAllocator.cpp **** 
  99:src/buddyAllocator.cpp **** inline size_t getDeg2Floor(size_t num)
 100:src/buddyAllocator.cpp **** {
 101:src/buddyAllocator.cpp ****     size_t x = 1;
 102:src/buddyAllocator.cpp ****     size_t deg = 0;
 103:src/buddyAllocator.cpp ****     while(x <= num)
 104:src/buddyAllocator.cpp ****     {
GAS LISTING /tmp/ccVKSSsU.s 			page 3


 105:src/buddyAllocator.cpp ****         deg++;
 106:src/buddyAllocator.cpp ****         x<<=1;
 107:src/buddyAllocator.cpp ****     }
 108:src/buddyAllocator.cpp ****     return deg - 1;
 109:src/buddyAllocator.cpp **** }
 110:src/buddyAllocator.cpp **** 
 111:src/buddyAllocator.cpp **** inline size_t getDeg2Ceil(size_t num)
 112:src/buddyAllocator.cpp **** {
 113:src/buddyAllocator.cpp ****     size_t x = 1;
 114:src/buddyAllocator.cpp ****     size_t deg = 0;
 115:src/buddyAllocator.cpp ****     while(x < num)
 116:src/buddyAllocator.cpp ****     {
 117:src/buddyAllocator.cpp ****         deg++;
 118:src/buddyAllocator.cpp ****         x<<=1;
 119:src/buddyAllocator.cpp ****     }
 120:src/buddyAllocator.cpp ****     return deg;
 121:src/buddyAllocator.cpp **** }
 122:src/buddyAllocator.cpp **** 
 123:src/buddyAllocator.cpp **** //TODO
 124:src/buddyAllocator.cpp **** //maybe change it to work with levels instead of numOfBlocks
 125:src/buddyAllocator.cpp **** void addBlocks(buddyAllocator* buddy, void* addr, size_t numOfBlocks)
 126:src/buddyAllocator.cpp **** {
 127:src/buddyAllocator.cpp ****     size_t level = getDeg2Ceil(numOfBlocks);
 128:src/buddyAllocator.cpp ****     if(level == buddy->maxLevel)
 129:src/buddyAllocator.cpp ****     {
 130:src/buddyAllocator.cpp ****         addBlockToLevel(buddy, addr, level);
 131:src/buddyAllocator.cpp ****         return;
 132:src/buddyAllocator.cpp ****     }
 133:src/buddyAllocator.cpp ****     size_t buddyBlock = getBuddyBlockAddr(addr, level);
 134:src/buddyAllocator.cpp ****     uint64* curr = buddy->bucket[level].first;
 135:src/buddyAllocator.cpp ****     uint64* prev = nullptr;
 136:src/buddyAllocator.cpp ****     while(curr != nullptr)
 137:src/buddyAllocator.cpp ****     {
 138:src/buddyAllocator.cpp ****         if((size_t)curr == buddyBlock)
 139:src/buddyAllocator.cpp ****         {
 140:src/buddyAllocator.cpp ****             if(prev != nullptr)
 141:src/buddyAllocator.cpp ****             {
 142:src/buddyAllocator.cpp ****                 *prev = *curr;
 143:src/buddyAllocator.cpp ****                 if(curr == buddy->bucket[level].last)
 144:src/buddyAllocator.cpp ****                     buddy->bucket[level].last = prev;
 145:src/buddyAllocator.cpp ****             }
 146:src/buddyAllocator.cpp ****             else
 147:src/buddyAllocator.cpp ****             {
 148:src/buddyAllocator.cpp ****                 if(*curr == 0)
 149:src/buddyAllocator.cpp ****                     buddy->bucket[level].first = buddy->bucket[level].last = nullptr;
 150:src/buddyAllocator.cpp ****                 else
 151:src/buddyAllocator.cpp ****                     buddy->bucket[level].first = (uint64*)*curr;
 152:src/buddyAllocator.cpp ****             }
 153:src/buddyAllocator.cpp ****             if((size_t)addr < buddyBlock) addBlocks(buddy, addr, 1 << (level + 1));
 154:src/buddyAllocator.cpp ****             else addBlocks(buddy, (void*)buddyBlock, 1 << (level + 1));
 155:src/buddyAllocator.cpp ****             return;
 156:src/buddyAllocator.cpp ****         }
 157:src/buddyAllocator.cpp **** 
 158:src/buddyAllocator.cpp ****         prev = curr;
 159:src/buddyAllocator.cpp ****         curr = (uint64*)*curr;
 160:src/buddyAllocator.cpp ****     }
 161:src/buddyAllocator.cpp **** 
GAS LISTING /tmp/ccVKSSsU.s 			page 4


 162:src/buddyAllocator.cpp ****     addBlockToLevel(buddy, addr, level);
 163:src/buddyAllocator.cpp **** }
 164:src/buddyAllocator.cpp **** 
 165:src/buddyAllocator.cpp **** void addBlockToLevel(buddyAllocator* buddy, void* addr, size_t level)
 166:src/buddyAllocator.cpp **** {
  12              		.loc 1 166 1
  13              		.cfi_startproc
  14              	.LVL0:
  15 0000 130101FF 		addi	sp,sp,-16
  16              		.cfi_def_cfa_offset 16
  17 0004 23348100 		sd	s0,8(sp)
  18              		.cfi_offset 8, -8
  19 0008 13040101 		addi	s0,sp,16
  20              		.cfi_def_cfa 8, 0
 167:src/buddyAllocator.cpp ****     if(buddy->bucket[level].first == nullptr)
  21              		.loc 1 167 5
  22              		.loc 1 167 29 is_stmt 0
  23 000c 93072600 		addi	a5,a2,2
  24 0010 93974700 		slli	a5,a5,4
  25 0014 B307F500 		add	a5,a0,a5
  26 0018 83B70700 		ld	a5,0(a5)
  27              		.loc 1 167 5
  28 001c 63860702 		beqz	a5,.L5
 168:src/buddyAllocator.cpp ****     {
 169:src/buddyAllocator.cpp ****         buddy->bucket[level].first = buddy->bucket[level].last = (uint64*)addr;
 170:src/buddyAllocator.cpp ****         *(buddy->bucket[level].last) = 0;
 171:src/buddyAllocator.cpp ****     }
 172:src/buddyAllocator.cpp ****     else
 173:src/buddyAllocator.cpp ****     {
 174:src/buddyAllocator.cpp ****         *(buddy->bucket[level].last) = (uint64)addr;
  29              		.loc 1 174 9 is_stmt 1
  30              		.loc 1 174 32 is_stmt 0
  31 0020 13062600 		addi	a2,a2,2
  32              	.LVL1:
  33 0024 13164600 		slli	a2,a2,4
  34              	.LVL2:
  35 0028 3306C500 		add	a2,a0,a2
  36 002c 83378600 		ld	a5,8(a2)
  37              		.loc 1 174 38
  38 0030 23B0B700 		sd	a1,0(a5)
 175:src/buddyAllocator.cpp ****         buddy->bucket[level].last = (uint64*)addr;
  39              		.loc 1 175 9 is_stmt 1
  40              		.loc 1 175 35 is_stmt 0
  41 0034 2334B600 		sd	a1,8(a2)
 176:src/buddyAllocator.cpp ****         *(buddy->bucket[level].last) = 0;
  42              		.loc 1 176 9 is_stmt 1
  43              		.loc 1 176 38 is_stmt 0
  44 0038 23B00500 		sd	zero,0(a1)
  45              	.L1:
 177:src/buddyAllocator.cpp ****     }
 178:src/buddyAllocator.cpp **** }
  46              		.loc 1 178 1
  47 003c 03348100 		ld	s0,8(sp)
  48              		.cfi_remember_state
  49              		.cfi_restore 8
  50              		.cfi_def_cfa 2, 16
  51 0040 13010101 		addi	sp,sp,16
GAS LISTING /tmp/ccVKSSsU.s 			page 5


  52              		.cfi_def_cfa_offset 0
  53 0044 67800000 		jr	ra
  54              	.LVL3:
  55              	.L5:
  56              		.cfi_restore_state
 169:src/buddyAllocator.cpp ****         *(buddy->bucket[level].last) = 0;
  57              		.loc 1 169 9 is_stmt 1
 169:src/buddyAllocator.cpp ****         *(buddy->bucket[level].last) = 0;
  58              		.loc 1 169 64 is_stmt 0
  59 0048 13062600 		addi	a2,a2,2
  60              	.LVL4:
  61 004c 13164600 		slli	a2,a2,4
  62              	.LVL5:
  63 0050 3306C500 		add	a2,a0,a2
  64 0054 2334B600 		sd	a1,8(a2)
 169:src/buddyAllocator.cpp ****         *(buddy->bucket[level].last) = 0;
  65              		.loc 1 169 36
  66 0058 2330B600 		sd	a1,0(a2)
 170:src/buddyAllocator.cpp ****     }
  67              		.loc 1 170 9 is_stmt 1
 170:src/buddyAllocator.cpp ****     }
  68              		.loc 1 170 38 is_stmt 0
  69 005c 23B00500 		sd	zero,0(a1)
  70 0060 6FF0DFFD 		j	.L1
  71              		.cfi_endproc
  72              	.LFE14:
  74              		.align	2
  75              		.globl	_Z17getBuddyBlockAddrPvm
  77              	_Z17getBuddyBlockAddrPvm:
  78              	.LFB15:
 179:src/buddyAllocator.cpp **** 
 180:src/buddyAllocator.cpp **** size_t getBuddyBlockAddr(void* addr, size_t level)
 181:src/buddyAllocator.cpp **** {
  79              		.loc 1 181 1 is_stmt 1
  80              		.cfi_startproc
  81              	.LVL6:
  82 0064 130101FF 		addi	sp,sp,-16
  83              		.cfi_def_cfa_offset 16
  84 0068 23348100 		sd	s0,8(sp)
  85              		.cfi_offset 8, -8
  86 006c 13040101 		addi	s0,sp,16
  87              		.cfi_def_cfa 8, 0
 182:src/buddyAllocator.cpp ****     return (size_t)addr ^ (1 << level);
  88              		.loc 1 182 5
  89              		.loc 1 182 30 is_stmt 0
  90 0070 93071000 		li	a5,1
  91 0074 BB97B700 		sllw	a5,a5,a1
 183:src/buddyAllocator.cpp **** }
  92              		.loc 1 183 1
  93 0078 33C5A700 		xor	a0,a5,a0
  94              	.LVL7:
  95 007c 03348100 		ld	s0,8(sp)
  96              		.cfi_restore 8
  97              		.cfi_def_cfa 2, 16
  98 0080 13010101 		addi	sp,sp,16
  99              		.cfi_def_cfa_offset 0
 100 0084 67800000 		jr	ra
GAS LISTING /tmp/ccVKSSsU.s 			page 6


 101              		.cfi_endproc
 102              	.LFE15:
 104              		.align	2
 105              		.globl	_Z5splitP14buddyAllocatorPvmmb
 107              	_Z5splitP14buddyAllocatorPvmmb:
 108              	.LFB7:
  62:src/buddyAllocator.cpp ****     if(!splitMore)
 109              		.loc 1 62 1 is_stmt 1
 110              		.cfi_startproc
 111              	.LVL8:
 112 0088 130101FD 		addi	sp,sp,-48
 113              		.cfi_def_cfa_offset 48
 114 008c 23341102 		sd	ra,40(sp)
 115 0090 23308102 		sd	s0,32(sp)
 116 0094 233C9100 		sd	s1,24(sp)
 117 0098 23382101 		sd	s2,16(sp)
 118 009c 23343101 		sd	s3,8(sp)
 119 00a0 23304101 		sd	s4,0(sp)
 120              		.cfi_offset 1, -8
 121              		.cfi_offset 8, -16
 122              		.cfi_offset 9, -24
 123              		.cfi_offset 18, -32
 124              		.cfi_offset 19, -40
 125              		.cfi_offset 20, -48
 126 00a4 13040103 		addi	s0,sp,48
 127              		.cfi_def_cfa 8, 0
 128 00a8 93090500 		mv	s3,a0
 129 00ac 138A0500 		mv	s4,a1
  63:src/buddyAllocator.cpp ****     {
 130              		.loc 1 63 5
 131              	.LBB25:
 132 00b0 63080702 		beqz	a4,.L12
 133 00b4 13090600 		mv	s2,a2
 134              	.LBB26:
  69:src/buddyAllocator.cpp ****             return;
 135              		.loc 1 69 9
 136 00b8 6384C600 		beq	a3,a2,.L8
  71:src/buddyAllocator.cpp ****         {
 137              		.loc 1 71 9
 138              	.LBB27:
 139 00bc 636AD602 		bgtu	a3,a2,.L13
 140              	.LVL9:
 141              	.L8:
 142              	.LBE27:
 143              	.LBE26:
 144              	.LBE25:
  78:src/buddyAllocator.cpp **** 
 145              		.loc 1 78 1 is_stmt 0
 146 00c0 83308102 		ld	ra,40(sp)
 147              		.cfi_remember_state
 148              		.cfi_restore 1
 149 00c4 03340102 		ld	s0,32(sp)
 150              		.cfi_restore 8
 151              		.cfi_def_cfa 2, 48
 152 00c8 83348101 		ld	s1,24(sp)
 153              		.cfi_restore 9
 154 00cc 03390101 		ld	s2,16(sp)
GAS LISTING /tmp/ccVKSSsU.s 			page 7


 155              		.cfi_restore 18
 156 00d0 83398100 		ld	s3,8(sp)
 157              		.cfi_restore 19
 158              	.LVL10:
 159 00d4 033A0100 		ld	s4,0(sp)
 160              		.cfi_restore 20
 161              	.LVL11:
 162 00d8 13010103 		addi	sp,sp,48
 163              		.cfi_def_cfa_offset 0
 164 00dc 67800000 		jr	ra
 165              	.LVL12:
 166              	.L12:
 167              		.cfi_restore_state
 168              	.LBB31:
  65:src/buddyAllocator.cpp ****     }
 169              		.loc 1 65 9 is_stmt 1
  65:src/buddyAllocator.cpp ****     }
 170              		.loc 1 65 24 is_stmt 0
 171 00e0 13860600 		mv	a2,a3
 172              	.LVL13:
 173 00e4 97000000 		call	_Z15addBlockToLevelP14buddyAllocatorPvm
 173      E7800000 
 174              	.LVL14:
 175 00ec 6FF05FFD 		j	.L8
 176              	.LVL15:
 177              	.L13:
 178              	.LBB30:
 179              	.LBB29:
 180              	.LBB28:
  73:src/buddyAllocator.cpp ****             split(buddy, (void*)buddyBlock, finalLevel, currLevel - 1, false);
 181              		.loc 1 73 13 is_stmt 1
  73:src/buddyAllocator.cpp ****             split(buddy, (void*)buddyBlock, finalLevel, currLevel - 1, false);
 182              		.loc 1 73 50 is_stmt 0
 183 00f0 9384F6FF 		addi	s1,a3,-1
 184 00f4 93850400 		mv	a1,s1
 185              	.LVL16:
 186 00f8 13050A00 		mv	a0,s4
 187              	.LVL17:
 188 00fc 97000000 		call	_Z17getBuddyBlockAddrPvm
 188      E7800000 
 189              	.LVL18:
 190 0104 93050500 		mv	a1,a0
 191              	.LVL19:
  74:src/buddyAllocator.cpp ****             split(buddy, addr, finalLevel, currLevel - 1, true);
 192              		.loc 1 74 13 is_stmt 1
  74:src/buddyAllocator.cpp ****             split(buddy, addr, finalLevel, currLevel - 1, true);
 193              		.loc 1 74 18 is_stmt 0
 194 0108 13070000 		li	a4,0
 195 010c 93860400 		mv	a3,s1
 196 0110 13060900 		mv	a2,s2
 197 0114 13850900 		mv	a0,s3
 198              	.LVL20:
 199 0118 97000000 		call	_Z5splitP14buddyAllocatorPvmmb
 199      E7800000 
 200              	.LVL21:
  75:src/buddyAllocator.cpp ****         }
 201              		.loc 1 75 13 is_stmt 1
GAS LISTING /tmp/ccVKSSsU.s 			page 8


  75:src/buddyAllocator.cpp ****         }
 202              		.loc 1 75 18 is_stmt 0
 203 0120 13071000 		li	a4,1
 204 0124 93860400 		mv	a3,s1
 205 0128 13060900 		mv	a2,s2
 206 012c 93050A00 		mv	a1,s4
 207 0130 13850900 		mv	a0,s3
 208 0134 97000000 		call	_Z5splitP14buddyAllocatorPvmmb
 208      E7800000 
 209              	.LVL22:
 210              	.LBE28:
 211 013c 6FF05FF8 		j	.L8
 212              	.LBE29:
 213              	.LBE30:
 214              	.LBE31:
 215              		.cfi_endproc
 216              	.LFE7:
 218              		.section	.rodata.str1.8,"aMS",@progbits,1
 219              		.align	3
 220              	.LC0:
 221 0000 42756464 		.string	"Buddy allocation: "
 221      7920616C 
 221      6C6F6361 
 221      74696F6E 
 221      3A2000
 222 0013 00000000 		.align	3
 222      00
 223              	.LC1:
 224 0018 0A00     		.string	"\n"
 225 001a 00000000 		.align	3
 225      0000
 226              	.LC2:
 227 0020 4C657665 		.string	"Level: "
 227      6C3A2000 
 228              		.align	3
 229              	.LC3:
 230 0028 466F756E 		.string	"Found the block:"
 230      64207468 
 230      6520626C 
 230      6F636B3A 
 230      00
 231              		.text
 232              		.align	2
 233              		.globl	_Z11buddy_allocP14buddyAllocatorm
 235              	_Z11buddy_allocP14buddyAllocatorm:
 236              	.LFB6:
  37:src/buddyAllocator.cpp ****     KConsole::trapPrintString("Buddy allocation: ");
 237              		.loc 1 37 1 is_stmt 1
 238              		.cfi_startproc
 239              	.LVL23:
 240 0140 130101FD 		addi	sp,sp,-48
 241              		.cfi_def_cfa_offset 48
 242 0144 23341102 		sd	ra,40(sp)
 243 0148 23308102 		sd	s0,32(sp)
 244 014c 233C9100 		sd	s1,24(sp)
 245 0150 23382101 		sd	s2,16(sp)
 246 0154 23343101 		sd	s3,8(sp)
GAS LISTING /tmp/ccVKSSsU.s 			page 9


 247 0158 23304101 		sd	s4,0(sp)
 248              		.cfi_offset 1, -8
 249              		.cfi_offset 8, -16
 250              		.cfi_offset 9, -24
 251              		.cfi_offset 18, -32
 252              		.cfi_offset 19, -40
 253              		.cfi_offset 20, -48
 254 015c 13040103 		addi	s0,sp,48
 255              		.cfi_def_cfa 8, 0
 256 0160 13090500 		mv	s2,a0
 257 0164 93840500 		mv	s1,a1
  38:src/buddyAllocator.cpp ****     KConsole::trapPrintInt(numOfBlocks); KConsole::trapPrintString("\n");
 258              		.loc 1 38 5
  38:src/buddyAllocator.cpp ****     KConsole::trapPrintInt(numOfBlocks); KConsole::trapPrintString("\n");
 259              		.loc 1 38 30 is_stmt 0
 260 0168 17050000 		lla	a0,.LC0
 260      13050500 
 261              	.LVL24:
 262 0170 97000000 		call	_ZN8KConsole15trapPrintStringEPKc@plt
 262      E7800000 
 263              	.LVL25:
  39:src/buddyAllocator.cpp ****     size_t level = getDeg2Ceil(numOfBlocks);
 264              		.loc 1 39 5 is_stmt 1
  39:src/buddyAllocator.cpp ****     size_t level = getDeg2Ceil(numOfBlocks);
 265              		.loc 1 39 27 is_stmt 0
 266 0178 13060000 		li	a2,0
 267 017c 9305A000 		li	a1,10
 268 0180 1B850400 		sext.w	a0,s1
 269 0184 97000000 		call	_ZN8KConsole12trapPrintIntEiii@plt
 269      E7800000 
 270              	.LVL26:
  39:src/buddyAllocator.cpp ****     size_t level = getDeg2Ceil(numOfBlocks);
 271              		.loc 1 39 42 is_stmt 1
  39:src/buddyAllocator.cpp ****     size_t level = getDeg2Ceil(numOfBlocks);
 272              		.loc 1 39 67 is_stmt 0
 273 018c 17050000 		lla	a0,.LC1
 273      13050500 
 274 0194 97000000 		call	_ZN8KConsole15trapPrintStringEPKc@plt
 274      E7800000 
 275              	.LVL27:
  40:src/buddyAllocator.cpp ****     KConsole::trapPrintString("Level: ");
 276              		.loc 1 40 5 is_stmt 1
 277              	.LBB32:
 278              	.LBB33:
 113:src/buddyAllocator.cpp ****     size_t deg = 0;
 279              		.loc 1 113 5
 114:src/buddyAllocator.cpp ****     while(x < num)
 280              		.loc 1 114 5
 114:src/buddyAllocator.cpp ****     while(x < num)
 281              		.loc 1 114 12 is_stmt 0
 282 019c 130A0000 		li	s4,0
 113:src/buddyAllocator.cpp ****     size_t deg = 0;
 283              		.loc 1 113 12
 284 01a0 93071000 		li	a5,1
 285              	.LVL28:
 286              	.L16:
 115:src/buddyAllocator.cpp ****     {
GAS LISTING /tmp/ccVKSSsU.s 			page 10


 287              		.loc 1 115 5 is_stmt 1
 115:src/buddyAllocator.cpp ****     {
 288              		.loc 1 115 13
 289 01a4 63F89700 		bleu	s1,a5,.L15
 117:src/buddyAllocator.cpp ****         x<<=1;
 290              		.loc 1 117 9
 117:src/buddyAllocator.cpp ****         x<<=1;
 291              		.loc 1 117 12 is_stmt 0
 292 01a8 130A1A00 		addi	s4,s4,1
 293              	.LVL29:
 118:src/buddyAllocator.cpp ****     }
 294              		.loc 1 118 9 is_stmt 1
 118:src/buddyAllocator.cpp ****     }
 295              		.loc 1 118 10 is_stmt 0
 296 01ac 93971700 		slli	a5,a5,1
 297              	.LVL30:
 115:src/buddyAllocator.cpp ****     {
 298              		.loc 1 115 5
 299 01b0 6FF05FFF 		j	.L16
 300              	.L15:
 120:src/buddyAllocator.cpp **** }
 301              		.loc 1 120 5 is_stmt 1
 302              	.LVL31:
 303              	.LBE33:
 304              	.LBE32:
  41:src/buddyAllocator.cpp ****     KConsole::trapPrintInt(level); KConsole::trapPrintString("\n");
 305              		.loc 1 41 5
  41:src/buddyAllocator.cpp ****     KConsole::trapPrintInt(level); KConsole::trapPrintString("\n");
 306              		.loc 1 41 30 is_stmt 0
 307 01b4 17050000 		lla	a0,.LC2
 307      13050500 
 308 01bc 97000000 		call	_ZN8KConsole15trapPrintStringEPKc@plt
 308      E7800000 
 309              	.LVL32:
  42:src/buddyAllocator.cpp ****     for(size_t i = level; i <= buddy->maxLevel;i++)
 310              		.loc 1 42 5 is_stmt 1
  42:src/buddyAllocator.cpp ****     for(size_t i = level; i <= buddy->maxLevel;i++)
 311              		.loc 1 42 27 is_stmt 0
 312 01c4 13060000 		li	a2,0
 313 01c8 9305A000 		li	a1,10
 314 01cc 1B050A00 		sext.w	a0,s4
 315 01d0 97000000 		call	_ZN8KConsole12trapPrintIntEiii@plt
 315      E7800000 
 316              	.LVL33:
  42:src/buddyAllocator.cpp ****     for(size_t i = level; i <= buddy->maxLevel;i++)
 317              		.loc 1 42 36 is_stmt 1
  42:src/buddyAllocator.cpp ****     for(size_t i = level; i <= buddy->maxLevel;i++)
 318              		.loc 1 42 61 is_stmt 0
 319 01d8 17050000 		lla	a0,.LC1
 319      13050500 
 320 01e0 97000000 		call	_ZN8KConsole15trapPrintStringEPKc@plt
 320      E7800000 
 321              	.LVL34:
  43:src/buddyAllocator.cpp ****     {
 322              		.loc 1 43 5 is_stmt 1
 323              	.LBB34:
  43:src/buddyAllocator.cpp ****     {
GAS LISTING /tmp/ccVKSSsU.s 			page 11


 324              		.loc 1 43 16 is_stmt 0
 325 01e8 93040A00 		mv	s1,s4
 326              	.LVL35:
 327              	.L20:
  43:src/buddyAllocator.cpp ****     {
 328              		.loc 1 43 29 is_stmt 1 discriminator 1
  43:src/buddyAllocator.cpp ****     {
 329              		.loc 1 43 39 is_stmt 0 discriminator 1
 330 01ec 83378901 		ld	a5,24(s2)
  43:src/buddyAllocator.cpp ****     {
 331              		.loc 1 43 29 discriminator 1
 332 01f0 63E0970A 		bltu	a5,s1,.L21
 333              	.LBE34:
  45:src/buddyAllocator.cpp ****         {
 334              		.loc 1 45 9 is_stmt 1
 335              	.LBB38:
 336              	.LBB35:
  45:src/buddyAllocator.cpp ****         {
 337              		.loc 1 45 29 is_stmt 0
 338 01f4 93872400 		addi	a5,s1,2
 339 01f8 93974700 		slli	a5,a5,4
 340 01fc B307F900 		add	a5,s2,a5
 341 0200 83B90700 		ld	s3,0(a5)
  45:src/buddyAllocator.cpp ****         {
 342              		.loc 1 45 9
 343 0204 63960900 		bnez	s3,.L23
 344              	.LBE35:
  43:src/buddyAllocator.cpp ****     {
 345              		.loc 1 43 5 is_stmt 1 discriminator 2
 346 0208 93841400 		addi	s1,s1,1
 347              	.LVL36:
 348 020c 6FF01FFE 		j	.L20
 349              	.L23:
 350              	.LBB37:
 351              	.LBB36:
  47:src/buddyAllocator.cpp ****             KConsole::trapPrintString("Found the block:");
 352              		.loc 1 47 13
 353              	.LVL37:
  48:src/buddyAllocator.cpp ****             KConsole::trapPrintInt((size_t)ret); KConsole::trapPrintString("\n");
 354              		.loc 1 48 13
  48:src/buddyAllocator.cpp ****             KConsole::trapPrintInt((size_t)ret); KConsole::trapPrintString("\n");
 355              		.loc 1 48 38 is_stmt 0
 356 0210 17050000 		lla	a0,.LC3
 356      13050500 
 357 0218 97000000 		call	_ZN8KConsole15trapPrintStringEPKc@plt
 357      E7800000 
 358              	.LVL38:
  49:src/buddyAllocator.cpp ****             buddy->bucket[i].first = (uint64*)*ret;
 359              		.loc 1 49 13 is_stmt 1
  49:src/buddyAllocator.cpp ****             buddy->bucket[i].first = (uint64*)*ret;
 360              		.loc 1 49 35 is_stmt 0
 361 0220 13060000 		li	a2,0
 362 0224 9305A000 		li	a1,10
 363 0228 1B850900 		sext.w	a0,s3
 364 022c 97000000 		call	_ZN8KConsole12trapPrintIntEiii@plt
 364      E7800000 
 365              	.LVL39:
GAS LISTING /tmp/ccVKSSsU.s 			page 12


  49:src/buddyAllocator.cpp ****             buddy->bucket[i].first = (uint64*)*ret;
 366              		.loc 1 49 50 is_stmt 1
  49:src/buddyAllocator.cpp ****             buddy->bucket[i].first = (uint64*)*ret;
 367              		.loc 1 49 75 is_stmt 0
 368 0234 17050000 		lla	a0,.LC1
 368      13050500 
 369 023c 97000000 		call	_ZN8KConsole15trapPrintStringEPKc@plt
 369      E7800000 
 370              	.LVL40:
  50:src/buddyAllocator.cpp ****             if(buddy->bucket[i].first == nullptr)
 371              		.loc 1 50 13 is_stmt 1
  50:src/buddyAllocator.cpp ****             if(buddy->bucket[i].first == nullptr)
 372              		.loc 1 50 47 is_stmt 0
 373 0244 03B70900 		ld	a4,0(s3)
  50:src/buddyAllocator.cpp ****             if(buddy->bucket[i].first == nullptr)
 374              		.loc 1 50 36
 375 0248 93872400 		addi	a5,s1,2
 376 024c 93974700 		slli	a5,a5,4
 377 0250 B307F900 		add	a5,s2,a5
 378 0254 23B0E700 		sd	a4,0(a5)
  51:src/buddyAllocator.cpp ****                 buddy->bucket[i].last = nullptr;
 379              		.loc 1 51 13 is_stmt 1
 380 0258 63020702 		beqz	a4,.L24
 381              	.L19:
  53:src/buddyAllocator.cpp ****             return ret;
 382              		.loc 1 53 13
  53:src/buddyAllocator.cpp ****             return ret;
 383              		.loc 1 53 18 is_stmt 0
 384 025c 13071000 		li	a4,1
 385 0260 93860400 		mv	a3,s1
 386 0264 13060A00 		mv	a2,s4
 387 0268 93850900 		mv	a1,s3
 388 026c 13050900 		mv	a0,s2
 389 0270 97000000 		call	_Z5splitP14buddyAllocatorPvmmb
 389      E7800000 
 390              	.LVL41:
  54:src/buddyAllocator.cpp ****         }
 391              		.loc 1 54 13 is_stmt 1
  54:src/buddyAllocator.cpp ****         }
 392              		.loc 1 54 20 is_stmt 0
 393 0278 6F00C001 		j	.L14
 394              	.L24:
  52:src/buddyAllocator.cpp ****             split(buddy, (void*)ret, level, i, true);
 395              		.loc 1 52 17 is_stmt 1
  52:src/buddyAllocator.cpp ****             split(buddy, (void*)ret, level, i, true);
 396              		.loc 1 52 39 is_stmt 0
 397 027c 93872400 		addi	a5,s1,2
 398 0280 93974700 		slli	a5,a5,4
 399 0284 B307F900 		add	a5,s2,a5
 400 0288 23B40700 		sd	zero,8(a5)
 401 028c 6FF01FFD 		j	.L19
 402              	.LVL42:
 403              	.L21:
 404              	.LBE36:
 405              	.LBE37:
 406              	.LBE38:
  58:src/buddyAllocator.cpp **** }
GAS LISTING /tmp/ccVKSSsU.s 			page 13


 407              		.loc 1 58 12
 408 0290 93090000 		li	s3,0
 409              	.L14:
  59:src/buddyAllocator.cpp **** 
 410              		.loc 1 59 1
 411 0294 13850900 		mv	a0,s3
 412 0298 83308102 		ld	ra,40(sp)
 413              		.cfi_restore 1
 414 029c 03340102 		ld	s0,32(sp)
 415              		.cfi_restore 8
 416              		.cfi_def_cfa 2, 48
 417 02a0 83348101 		ld	s1,24(sp)
 418              		.cfi_restore 9
 419              	.LVL43:
 420 02a4 03390101 		ld	s2,16(sp)
 421              		.cfi_restore 18
 422              	.LVL44:
 423 02a8 83398100 		ld	s3,8(sp)
 424              		.cfi_restore 19
 425 02ac 033A0100 		ld	s4,0(sp)
 426              		.cfi_restore 20
 427              	.LVL45:
 428 02b0 13010103 		addi	sp,sp,48
 429              		.cfi_def_cfa_offset 0
 430 02b4 67800000 		jr	ra
 431              		.cfi_endproc
 432              	.LFE6:
 434              		.align	2
 435              		.globl	_Z9addBlocksP14buddyAllocatorPvm
 437              	_Z9addBlocksP14buddyAllocatorPvm:
 438              	.LFB13:
 126:src/buddyAllocator.cpp ****     size_t level = getDeg2Ceil(numOfBlocks);
 439              		.loc 1 126 1 is_stmt 1
 440              		.cfi_startproc
 441              	.LVL46:
 442 02b8 130101FD 		addi	sp,sp,-48
 443              		.cfi_def_cfa_offset 48
 444 02bc 23341102 		sd	ra,40(sp)
 445 02c0 23308102 		sd	s0,32(sp)
 446 02c4 233C9100 		sd	s1,24(sp)
 447 02c8 23382101 		sd	s2,16(sp)
 448 02cc 23343101 		sd	s3,8(sp)
 449              		.cfi_offset 1, -8
 450              		.cfi_offset 8, -16
 451              		.cfi_offset 9, -24
 452              		.cfi_offset 18, -32
 453              		.cfi_offset 19, -40
 454 02d0 13040103 		addi	s0,sp,48
 455              		.cfi_def_cfa 8, 0
 456 02d4 13090500 		mv	s2,a0
 457 02d8 93890500 		mv	s3,a1
 127:src/buddyAllocator.cpp ****     if(level == buddy->maxLevel)
 458              		.loc 1 127 5
 459              	.LVL47:
 460              	.LBB39:
 461              	.LBB40:
 113:src/buddyAllocator.cpp ****     size_t deg = 0;
GAS LISTING /tmp/ccVKSSsU.s 			page 14


 462              		.loc 1 113 5
 114:src/buddyAllocator.cpp ****     while(x < num)
 463              		.loc 1 114 5
 114:src/buddyAllocator.cpp ****     while(x < num)
 464              		.loc 1 114 12 is_stmt 0
 465 02dc 93040000 		li	s1,0
 113:src/buddyAllocator.cpp ****     size_t deg = 0;
 466              		.loc 1 113 12
 467 02e0 93071000 		li	a5,1
 468              	.LVL48:
 469              	.L27:
 115:src/buddyAllocator.cpp ****     {
 470              		.loc 1 115 5 is_stmt 1
 115:src/buddyAllocator.cpp ****     {
 471              		.loc 1 115 13
 472 02e4 63F8C700 		bleu	a2,a5,.L26
 117:src/buddyAllocator.cpp ****         x<<=1;
 473              		.loc 1 117 9
 117:src/buddyAllocator.cpp ****         x<<=1;
 474              		.loc 1 117 12 is_stmt 0
 475 02e8 93841400 		addi	s1,s1,1
 476              	.LVL49:
 118:src/buddyAllocator.cpp ****     }
 477              		.loc 1 118 9 is_stmt 1
 118:src/buddyAllocator.cpp ****     }
 478              		.loc 1 118 10 is_stmt 0
 479 02ec 93971700 		slli	a5,a5,1
 480              	.LVL50:
 115:src/buddyAllocator.cpp ****     {
 481              		.loc 1 115 5
 482 02f0 6FF05FFF 		j	.L27
 483              	.L26:
 120:src/buddyAllocator.cpp **** }
 484              		.loc 1 120 5 is_stmt 1
 485              	.LVL51:
 486              	.LBE40:
 487              	.LBE39:
 128:src/buddyAllocator.cpp ****     {
 488              		.loc 1 128 5
 128:src/buddyAllocator.cpp ****     {
 489              		.loc 1 128 24 is_stmt 0
 490 02f4 83378901 		ld	a5,24(s2)
 128:src/buddyAllocator.cpp ****     {
 491              		.loc 1 128 5
 492 02f8 638E9702 		beq	a5,s1,.L39
 133:src/buddyAllocator.cpp ****     uint64* curr = buddy->bucket[level].first;
 493              		.loc 1 133 5 is_stmt 1
 133:src/buddyAllocator.cpp ****     uint64* curr = buddy->bucket[level].first;
 494              		.loc 1 133 42 is_stmt 0
 495 02fc 93850400 		mv	a1,s1
 496              	.LVL52:
 497 0300 13850900 		mv	a0,s3
 498              	.LVL53:
 499 0304 97000000 		call	_Z17getBuddyBlockAddrPvm
 499      E7800000 
 500              	.LVL54:
 134:src/buddyAllocator.cpp ****     uint64* prev = nullptr;
GAS LISTING /tmp/ccVKSSsU.s 			page 15


 501              		.loc 1 134 5 is_stmt 1
 134:src/buddyAllocator.cpp ****     uint64* prev = nullptr;
 502              		.loc 1 134 13 is_stmt 0
 503 030c 93872400 		addi	a5,s1,2
 504 0310 93974700 		slli	a5,a5,4
 505 0314 B307F900 		add	a5,s2,a5
 506 0318 83B70700 		ld	a5,0(a5)
 507              	.LVL55:
 135:src/buddyAllocator.cpp ****     while(curr != nullptr)
 508              		.loc 1 135 5 is_stmt 1
 135:src/buddyAllocator.cpp ****     while(curr != nullptr)
 509              		.loc 1 135 13 is_stmt 0
 510 031c 13070000 		li	a4,0
 511              	.LVL56:
 512              	.L37:
 136:src/buddyAllocator.cpp ****     {
 513              		.loc 1 136 5 is_stmt 1
 136:src/buddyAllocator.cpp ****     {
 514              		.loc 1 136 16
 515 0320 638C070C 		beqz	a5,.L30
 138:src/buddyAllocator.cpp ****         {
 516              		.loc 1 138 9
 517 0324 6384A702 		beq	a5,a0,.L40
 158:src/buddyAllocator.cpp ****         curr = (uint64*)*curr;
 518              		.loc 1 158 9
 519              	.LVL57:
 159:src/buddyAllocator.cpp ****     }
 520              		.loc 1 159 9
 158:src/buddyAllocator.cpp ****         curr = (uint64*)*curr;
 521              		.loc 1 158 14 is_stmt 0
 522 0328 13870700 		mv	a4,a5
 159:src/buddyAllocator.cpp ****     }
 523              		.loc 1 159 14
 524 032c 83B70700 		ld	a5,0(a5)
 525              	.LVL58:
 136:src/buddyAllocator.cpp ****     {
 526              		.loc 1 136 5
 527 0330 6FF01FFF 		j	.L37
 528              	.LVL59:
 529              	.L39:
 130:src/buddyAllocator.cpp ****         return;
 530              		.loc 1 130 9 is_stmt 1
 130:src/buddyAllocator.cpp ****         return;
 531              		.loc 1 130 24 is_stmt 0
 532 0334 13860400 		mv	a2,s1
 533              	.LVL60:
 534 0338 93850900 		mv	a1,s3
 535              	.LVL61:
 536 033c 13050900 		mv	a0,s2
 537              	.LVL62:
 538 0340 97000000 		call	_Z15addBlockToLevelP14buddyAllocatorPvm
 538      E7800000 
 539              	.LVL63:
 131:src/buddyAllocator.cpp ****     }
 540              		.loc 1 131 9 is_stmt 1
 541 0348 6F00400C 		j	.L25
 542              	.LVL64:
GAS LISTING /tmp/ccVKSSsU.s 			page 16


 543              	.L40:
 140:src/buddyAllocator.cpp ****             {
 544              		.loc 1 140 13
 545 034c 630C0704 		beqz	a4,.L32
 142:src/buddyAllocator.cpp ****                 if(curr == buddy->bucket[level].last)
 546              		.loc 1 142 17
 142:src/buddyAllocator.cpp ****                 if(curr == buddy->bucket[level].last)
 547              		.loc 1 142 25 is_stmt 0
 548 0350 83B60700 		ld	a3,0(a5)
 142:src/buddyAllocator.cpp ****                 if(curr == buddy->bucket[level].last)
 549              		.loc 1 142 23
 550 0354 2330D700 		sd	a3,0(a4)
 143:src/buddyAllocator.cpp ****                     buddy->bucket[level].last = prev;
 551              		.loc 1 143 17 is_stmt 1
 143:src/buddyAllocator.cpp ****                     buddy->bucket[level].last = prev;
 552              		.loc 1 143 49 is_stmt 0
 553 0358 93862400 		addi	a3,s1,2
 554 035c 93964600 		slli	a3,a3,4
 555 0360 B306D900 		add	a3,s2,a3
 556 0364 83B68600 		ld	a3,8(a3)
 143:src/buddyAllocator.cpp ****                     buddy->bucket[level].last = prev;
 557              		.loc 1 143 17
 558 0368 6384F602 		beq	a3,a5,.L41
 559              	.LVL65:
 560              	.L33:
 153:src/buddyAllocator.cpp ****             else addBlocks(buddy, (void*)buddyBlock, 1 << (level + 1));
 561              		.loc 1 153 13 is_stmt 1
 562 036c 63F6A906 		bgeu	s3,a0,.L35
 153:src/buddyAllocator.cpp ****             else addBlocks(buddy, (void*)buddyBlock, 1 << (level + 1));
 563              		.loc 1 153 43 discriminator 1
 153:src/buddyAllocator.cpp ****             else addBlocks(buddy, (void*)buddyBlock, 1 << (level + 1));
 564              		.loc 1 153 78 is_stmt 0 discriminator 1
 565 0370 9B841400 		addiw	s1,s1,1
 566              	.LVL66:
 153:src/buddyAllocator.cpp ****             else addBlocks(buddy, (void*)buddyBlock, 1 << (level + 1));
 567              		.loc 1 153 52 discriminator 1
 568 0374 13061000 		li	a2,1
 569 0378 3B169600 		sllw	a2,a2,s1
 570 037c 93850900 		mv	a1,s3
 571 0380 13050900 		mv	a0,s2
 572              	.LVL67:
 573 0384 97000000 		call	_Z9addBlocksP14buddyAllocatorPvm
 573      E7800000 
 574              	.LVL68:
 575 038c 6F000008 		j	.L25
 576              	.LVL69:
 577              	.L41:
 144:src/buddyAllocator.cpp ****             }
 578              		.loc 1 144 21 is_stmt 1
 144:src/buddyAllocator.cpp ****             }
 579              		.loc 1 144 47 is_stmt 0
 580 0390 93872400 		addi	a5,s1,2
 581              	.LVL70:
 582 0394 93974700 		slli	a5,a5,4
 583 0398 B307F900 		add	a5,s2,a5
 584 039c 23B4E700 		sd	a4,8(a5)
 585 03a0 6FF0DFFC 		j	.L33
GAS LISTING /tmp/ccVKSSsU.s 			page 17


 586              	.LVL71:
 587              	.L32:
 148:src/buddyAllocator.cpp ****                     buddy->bucket[level].first = buddy->bucket[level].last = nullptr;
 588              		.loc 1 148 17 is_stmt 1
 148:src/buddyAllocator.cpp ****                     buddy->bucket[level].first = buddy->bucket[level].last = nullptr;
 589              		.loc 1 148 20 is_stmt 0
 590 03a4 03B70700 		ld	a4,0(a5)
 591              	.LVL72:
 148:src/buddyAllocator.cpp ****                     buddy->bucket[level].first = buddy->bucket[level].last = nullptr;
 592              		.loc 1 148 17
 593 03a8 631E0700 		bnez	a4,.L34
 149:src/buddyAllocator.cpp ****                 else
 594              		.loc 1 149 21 is_stmt 1
 149:src/buddyAllocator.cpp ****                 else
 595              		.loc 1 149 76 is_stmt 0
 596 03ac 93872400 		addi	a5,s1,2
 597              	.LVL73:
 598 03b0 93974700 		slli	a5,a5,4
 599 03b4 B307F900 		add	a5,s2,a5
 600 03b8 23B40700 		sd	zero,8(a5)
 149:src/buddyAllocator.cpp ****                 else
 601              		.loc 1 149 48
 602 03bc 23B00700 		sd	zero,0(a5)
 603 03c0 6FF0DFFA 		j	.L33
 604              	.LVL74:
 605              	.L34:
 151:src/buddyAllocator.cpp ****             }
 606              		.loc 1 151 21 is_stmt 1
 151:src/buddyAllocator.cpp ****             }
 607              		.loc 1 151 48 is_stmt 0
 608 03c4 93872400 		addi	a5,s1,2
 609              	.LVL75:
 610 03c8 93974700 		slli	a5,a5,4
 611 03cc B307F900 		add	a5,s2,a5
 612 03d0 23B0E700 		sd	a4,0(a5)
 613 03d4 6FF09FF9 		j	.L33
 614              	.L35:
 154:src/buddyAllocator.cpp ****             return;
 615              		.loc 1 154 18 is_stmt 1
 154:src/buddyAllocator.cpp ****             return;
 616              		.loc 1 154 66 is_stmt 0
 617 03d8 9B841400 		addiw	s1,s1,1
 618              	.LVL76:
 154:src/buddyAllocator.cpp ****             return;
 619              		.loc 1 154 27
 620 03dc 13061000 		li	a2,1
 621 03e0 3B169600 		sllw	a2,a2,s1
 622 03e4 93050500 		mv	a1,a0
 623 03e8 13050900 		mv	a0,s2
 624              	.LVL77:
 625 03ec 97000000 		call	_Z9addBlocksP14buddyAllocatorPvm
 625      E7800000 
 626              	.LVL78:
 155:src/buddyAllocator.cpp ****         }
 627              		.loc 1 155 13 is_stmt 1
 628 03f4 6F008001 		j	.L25
 629              	.LVL79:
GAS LISTING /tmp/ccVKSSsU.s 			page 18


 630              	.L30:
 162:src/buddyAllocator.cpp **** }
 631              		.loc 1 162 5
 162:src/buddyAllocator.cpp **** }
 632              		.loc 1 162 20 is_stmt 0
 633 03f8 13860400 		mv	a2,s1
 634 03fc 93850900 		mv	a1,s3
 635 0400 13050900 		mv	a0,s2
 636              	.LVL80:
 637 0404 97000000 		call	_Z15addBlockToLevelP14buddyAllocatorPvm
 637      E7800000 
 638              	.LVL81:
 639              	.L25:
 163:src/buddyAllocator.cpp **** 
 640              		.loc 1 163 1
 641 040c 83308102 		ld	ra,40(sp)
 642              		.cfi_restore 1
 643 0410 03340102 		ld	s0,32(sp)
 644              		.cfi_restore 8
 645              		.cfi_def_cfa 2, 48
 646 0414 83348101 		ld	s1,24(sp)
 647              		.cfi_restore 9
 648 0418 03390101 		ld	s2,16(sp)
 649              		.cfi_restore 18
 650              	.LVL82:
 651 041c 83398100 		ld	s3,8(sp)
 652              		.cfi_restore 19
 653              	.LVL83:
 654 0420 13010103 		addi	sp,sp,48
 655              		.cfi_def_cfa_offset 0
 656 0424 67800000 		jr	ra
 657              		.cfi_endproc
 658              	.LFE13:
 660              		.section	.rodata.str1.8
 661 0039 00000000 		.align	3
 661      000000
 662              	.LC4:
 663 0040 42756464 		.string	"Buddy initialization\n"
 663      7920696E 
 663      69746961 
 663      6C697A61 
 663      74696F6E 
 664 0056 0000     		.align	3
 665              	.LC5:
 666 0058 42756464 		.string	"Buddy starting address: "
 666      79207374 
 666      61727469 
 666      6E672061 
 666      64647265 
 667              		.text
 668              		.align	2
 669              		.globl	_Z10buddy_initPvm
 671              	_Z10buddy_initPvm:
 672              	.LFB5:
   7:src/buddyAllocator.cpp ****     KConsole::trapPrintString("Buddy initialization\n");
 673              		.loc 1 7 1 is_stmt 1
 674              		.cfi_startproc
GAS LISTING /tmp/ccVKSSsU.s 			page 19


 675              	.LVL84:
 676 0428 130101FD 		addi	sp,sp,-48
 677              		.cfi_def_cfa_offset 48
 678 042c 23341102 		sd	ra,40(sp)
 679 0430 23308102 		sd	s0,32(sp)
 680 0434 233C9100 		sd	s1,24(sp)
 681 0438 23382101 		sd	s2,16(sp)
 682 043c 23343101 		sd	s3,8(sp)
 683              		.cfi_offset 1, -8
 684              		.cfi_offset 8, -16
 685              		.cfi_offset 9, -24
 686              		.cfi_offset 18, -32
 687              		.cfi_offset 19, -40
 688 0440 13040103 		addi	s0,sp,48
 689              		.cfi_def_cfa 8, 0
 690 0444 13090500 		mv	s2,a0
 691 0448 93890500 		mv	s3,a1
   8:src/buddyAllocator.cpp ****     size_t blockAddr = getBlockAddr((size_t)addr);
 692              		.loc 1 8 5
   8:src/buddyAllocator.cpp ****     size_t blockAddr = getBlockAddr((size_t)addr);
 693              		.loc 1 8 30 is_stmt 0
 694 044c 17050000 		lla	a0,.LC4
 694      13050500 
 695              	.LVL85:
 696 0454 97000000 		call	_ZN8KConsole15trapPrintStringEPKc@plt
 696      E7800000 
 697              	.LVL86:
   9:src/buddyAllocator.cpp ****     size_t buddyAddr = (size_t)addr;
 698              		.loc 1 9 5 is_stmt 1
   9:src/buddyAllocator.cpp ****     size_t buddyAddr = (size_t)addr;
 699              		.loc 1 9 36 is_stmt 0
 700 045c 93040900 		mv	s1,s2
 701              	.LVL87:
 702              	.LBB41:
 703              	.LBB42:
  90:src/buddyAllocator.cpp ****     return addr & mask;
 704              		.loc 1 90 5 is_stmt 1
  91:src/buddyAllocator.cpp **** }
 705              		.loc 1 91 5
  91:src/buddyAllocator.cpp **** }
 706              		.loc 1 91 19 is_stmt 0
 707 0460 37F5FFFF 		li	a0,-4096
 708 0464 3379A900 		and	s2,s2,a0
 709              	.LVL88:
 710              	.LBE42:
 711              	.LBE41:
  10:src/buddyAllocator.cpp ****     if((size_t)addr != blockAddr) // if start address not aligned
 712              		.loc 1 10 5 is_stmt 1
  11:src/buddyAllocator.cpp ****     {
 713              		.loc 1 11 5
 714 0468 63882401 		beq	s1,s2,.L43
  13:src/buddyAllocator.cpp ****         numOfBlocks--;
 715              		.loc 1 13 9
 716              	.LVL89:
 717              	.LBB43:
 718              	.LBB44:
  95:src/buddyAllocator.cpp ****     return currBlock + BLOCK_SIZE;
GAS LISTING /tmp/ccVKSSsU.s 			page 20


 719              		.loc 1 95 5
 720              	.LBE44:
 721              	.LBE43:
  90:src/buddyAllocator.cpp ****     return addr & mask;
 722              		.loc 1 90 5
  91:src/buddyAllocator.cpp **** }
 723              		.loc 1 91 5
 724              	.LBB46:
 725              	.LBB45:
  96:src/buddyAllocator.cpp **** }
 726              		.loc 1 96 5
  96:src/buddyAllocator.cpp **** }
 727              		.loc 1 96 24 is_stmt 0
 728 046c B7140000 		li	s1,4096
 729              	.LVL90:
 730 0470 B3049900 		add	s1,s2,s1
 731              	.LVL91:
 732              	.LBE45:
 733              	.LBE46:
  14:src/buddyAllocator.cpp ****     }
 734              		.loc 1 14 9 is_stmt 1
  14:src/buddyAllocator.cpp ****     }
 735              		.loc 1 14 20 is_stmt 0
 736 0474 9389F9FF 		addi	s3,s3,-1
 737              	.LVL92:
 738              	.L43:
  16:src/buddyAllocator.cpp ****     KConsole::trapPrintInt(buddyAddr); KConsole::trapPrintString("\n");
 739              		.loc 1 16 5 is_stmt 1
  16:src/buddyAllocator.cpp ****     KConsole::trapPrintInt(buddyAddr); KConsole::trapPrintString("\n");
 740              		.loc 1 16 30 is_stmt 0
 741 0478 17050000 		lla	a0,.LC5
 741      13050500 
 742 0480 97000000 		call	_ZN8KConsole15trapPrintStringEPKc@plt
 742      E7800000 
 743              	.LVL93:
  17:src/buddyAllocator.cpp ****     numOfBlocks--; // take one block for buddy metadata
 744              		.loc 1 17 5 is_stmt 1
  17:src/buddyAllocator.cpp ****     numOfBlocks--; // take one block for buddy metadata
 745              		.loc 1 17 27 is_stmt 0
 746 0488 13060000 		li	a2,0
 747 048c 9305A000 		li	a1,10
 748 0490 1B850400 		sext.w	a0,s1
 749 0494 97000000 		call	_ZN8KConsole12trapPrintIntEiii@plt
 749      E7800000 
 750              	.LVL94:
  17:src/buddyAllocator.cpp ****     numOfBlocks--; // take one block for buddy metadata
 751              		.loc 1 17 40 is_stmt 1
  17:src/buddyAllocator.cpp ****     numOfBlocks--; // take one block for buddy metadata
 752              		.loc 1 17 65 is_stmt 0
 753 049c 17050000 		lla	a0,.LC1
 753      13050500 
 754 04a4 97000000 		call	_ZN8KConsole15trapPrintStringEPKc@plt
 754      E7800000 
 755              	.LVL95:
  18:src/buddyAllocator.cpp ****     buddyAllocator* buddy = (buddyAllocator*)buddyAddr;
 756              		.loc 1 18 5 is_stmt 1
  18:src/buddyAllocator.cpp ****     buddyAllocator* buddy = (buddyAllocator*)buddyAddr;
GAS LISTING /tmp/ccVKSSsU.s 			page 21


 757              		.loc 1 18 16 is_stmt 0
 758 04ac 9389F9FF 		addi	s3,s3,-1
 759              	.LVL96:
  19:src/buddyAllocator.cpp ****     buddy->startAddr = (void*)getNextBlockAddr(buddyAddr);
 760              		.loc 1 19 5 is_stmt 1
  19:src/buddyAllocator.cpp ****     buddy->startAddr = (void*)getNextBlockAddr(buddyAddr);
 761              		.loc 1 19 21 is_stmt 0
 762 04b0 13890400 		mv	s2,s1
 763              	.LVL97:
  20:src/buddyAllocator.cpp ****     buddy->numOfBlocks = numOfBlocks;
 764              		.loc 1 20 5 is_stmt 1
 765              	.LBB47:
 766              	.LBB48:
  95:src/buddyAllocator.cpp ****     return currBlock + BLOCK_SIZE;
 767              		.loc 1 95 5
 768              	.LBB49:
 769              	.LBB50:
  90:src/buddyAllocator.cpp ****     return addr & mask;
 770              		.loc 1 90 5
  91:src/buddyAllocator.cpp **** }
 771              		.loc 1 91 5
  91:src/buddyAllocator.cpp **** }
 772              		.loc 1 91 19 is_stmt 0
 773 04b4 B7F7FFFF 		li	a5,-4096
 774              	.LVL98:
 775 04b8 B3F7F400 		and	a5,s1,a5
 776              	.LVL99:
 777              	.LBE50:
 778              	.LBE49:
  96:src/buddyAllocator.cpp **** }
 779              		.loc 1 96 5 is_stmt 1
  96:src/buddyAllocator.cpp **** }
 780              		.loc 1 96 24 is_stmt 0
 781 04bc 37170000 		li	a4,4096
 782 04c0 B387E700 		add	a5,a5,a4
 783              	.LVL100:
 784              	.LBE48:
 785              	.LBE47:
  20:src/buddyAllocator.cpp ****     buddy->numOfBlocks = numOfBlocks;
 786              		.loc 1 20 22
 787 04c4 23B4F400 		sd	a5,8(s1)
  21:src/buddyAllocator.cpp ****     buddy->numOfFreeBlocks = numOfBlocks;
 788              		.loc 1 21 5 is_stmt 1
  21:src/buddyAllocator.cpp ****     buddy->numOfFreeBlocks = numOfBlocks;
 789              		.loc 1 21 24 is_stmt 0
 790 04c8 23B03401 		sd	s3,0(s1)
  22:src/buddyAllocator.cpp ****     buddy->maxLevel = getDeg2Floor(numOfBlocks);
 791              		.loc 1 22 5 is_stmt 1
  22:src/buddyAllocator.cpp ****     buddy->maxLevel = getDeg2Floor(numOfBlocks);
 792              		.loc 1 22 28 is_stmt 0
 793 04cc 23B83401 		sd	s3,16(s1)
  23:src/buddyAllocator.cpp **** 
 794              		.loc 1 23 5 is_stmt 1
 795              	.LVL101:
 796              	.LBB51:
 797              	.LBB52:
 102:src/buddyAllocator.cpp ****     while(x <= num)
GAS LISTING /tmp/ccVKSSsU.s 			page 22


 798              		.loc 1 102 12 is_stmt 0
 799 04d0 93070000 		li	a5,0
 800              	.LVL102:
 101:src/buddyAllocator.cpp ****     size_t deg = 0;
 801              		.loc 1 101 12
 802 04d4 13071000 		li	a4,1
 803              	.L45:
 804              	.LVL103:
 103:src/buddyAllocator.cpp ****     {
 805              		.loc 1 103 5 is_stmt 1
 103:src/buddyAllocator.cpp ****     {
 806              		.loc 1 103 13
 807 04d8 63E8E900 		bgtu	a4,s3,.L44
 105:src/buddyAllocator.cpp ****         x<<=1;
 808              		.loc 1 105 9
 105:src/buddyAllocator.cpp ****         x<<=1;
 809              		.loc 1 105 12 is_stmt 0
 810 04dc 93871700 		addi	a5,a5,1
 811              	.LVL104:
 106:src/buddyAllocator.cpp ****     }
 812              		.loc 1 106 9 is_stmt 1
 106:src/buddyAllocator.cpp ****     }
 813              		.loc 1 106 10 is_stmt 0
 814 04e0 13171700 		slli	a4,a4,1
 815              	.LVL105:
 103:src/buddyAllocator.cpp ****     {
 816              		.loc 1 103 5
 817 04e4 6FF05FFF 		j	.L45
 818              	.L44:
 108:src/buddyAllocator.cpp **** }
 819              		.loc 1 108 5 is_stmt 1
 108:src/buddyAllocator.cpp **** }
 820              		.loc 1 108 18 is_stmt 0
 821 04e8 9386F7FF 		addi	a3,a5,-1
 822              	.LVL106:
 823              	.LBE52:
 824              	.LBE51:
  23:src/buddyAllocator.cpp **** 
 825              		.loc 1 23 21
 826 04ec 233CD900 		sd	a3,24(s2)
  25:src/buddyAllocator.cpp ****         buddy->bucket[i].first = buddy->bucket[i].last = nullptr;
 827              		.loc 1 25 5 is_stmt 1
 828              	.LVL107:
 829              	.LBB53:
  25:src/buddyAllocator.cpp ****         buddy->bucket[i].first = buddy->bucket[i].last = nullptr;
 830              		.loc 1 25 16 is_stmt 0
 831 04f0 13070000 		li	a4,0
 832              	.LVL108:
 833              	.L47:
  25:src/buddyAllocator.cpp ****         buddy->bucket[i].first = buddy->bucket[i].last = nullptr;
 834              		.loc 1 25 25 is_stmt 1 discriminator 3
 835 04f4 63E0E602 		bgtu	a4,a3,.L49
  26:src/buddyAllocator.cpp **** 
 836              		.loc 1 26 9 discriminator 2
  26:src/buddyAllocator.cpp **** 
 837              		.loc 1 26 56 is_stmt 0 discriminator 2
 838 04f8 93072700 		addi	a5,a4,2
GAS LISTING /tmp/ccVKSSsU.s 			page 23


 839 04fc 93974700 		slli	a5,a5,4
 840 0500 B307F900 		add	a5,s2,a5
 841 0504 23B40700 		sd	zero,8(a5)
  26:src/buddyAllocator.cpp **** 
 842              		.loc 1 26 32 discriminator 2
 843 0508 23B00700 		sd	zero,0(a5)
  25:src/buddyAllocator.cpp ****         buddy->bucket[i].first = buddy->bucket[i].last = nullptr;
 844              		.loc 1 25 5 is_stmt 1 discriminator 2
 845 050c 13071700 		addi	a4,a4,1
 846              	.LVL109:
 847 0510 6FF05FFE 		j	.L47
 848              	.L49:
 849              	.LBE53:
 850              	.LBB54:
  30:src/buddyAllocator.cpp ****         addBlocks(buddy, (block*)buddy->startAddr + i, 1);
 851              		.loc 1 30 16 is_stmt 0
 852 0514 93040000 		li	s1,0
 853              	.LVL110:
 854              	.L46:
  30:src/buddyAllocator.cpp ****         addBlocks(buddy, (block*)buddy->startAddr + i, 1);
 855              		.loc 1 30 24 is_stmt 1 discriminator 3
 856 0518 63F43403 		bgeu	s1,s3,.L42
  31:src/buddyAllocator.cpp **** 
 857              		.loc 1 31 9 discriminator 2
  31:src/buddyAllocator.cpp **** 
 858              		.loc 1 31 41 is_stmt 0 discriminator 2
 859 051c 83358900 		ld	a1,8(s2)
  31:src/buddyAllocator.cpp **** 
 860              		.loc 1 31 51 discriminator 2
 861 0520 9397C400 		slli	a5,s1,12
  31:src/buddyAllocator.cpp **** 
 862              		.loc 1 31 18 discriminator 2
 863 0524 13061000 		li	a2,1
 864 0528 B385F500 		add	a1,a1,a5
 865 052c 13050900 		mv	a0,s2
 866 0530 97000000 		call	_Z9addBlocksP14buddyAllocatorPvm
 866      E7800000 
 867              	.LVL111:
  30:src/buddyAllocator.cpp ****         addBlocks(buddy, (block*)buddy->startAddr + i, 1);
 868              		.loc 1 30 5 is_stmt 1 discriminator 2
 869 0538 93841400 		addi	s1,s1,1
 870              	.LVL112:
 871 053c 6FF0DFFD 		j	.L46
 872              	.L42:
 873              	.LBE54:
  34:src/buddyAllocator.cpp **** 
 874              		.loc 1 34 1 is_stmt 0
 875 0540 13050900 		mv	a0,s2
 876 0544 83308102 		ld	ra,40(sp)
 877              		.cfi_restore 1
 878 0548 03340102 		ld	s0,32(sp)
 879              		.cfi_restore 8
 880              		.cfi_def_cfa 2, 48
 881 054c 83348101 		ld	s1,24(sp)
 882              		.cfi_restore 9
 883              	.LVL113:
 884 0550 03390101 		ld	s2,16(sp)
GAS LISTING /tmp/ccVKSSsU.s 			page 24


 885              		.cfi_restore 18
 886              	.LVL114:
 887 0554 83398100 		ld	s3,8(sp)
 888              		.cfi_restore 19
 889              	.LVL115:
 890 0558 13010103 		addi	sp,sp,48
 891              		.cfi_def_cfa_offset 0
 892 055c 67800000 		jr	ra
 893              		.cfi_endproc
 894              	.LFE5:
 896              		.section	.rodata.str1.8
 897 0071 00000000 		.align	3
 897      000000
 898              	.LC6:
 899 0078 42756464 		.string	"Buddy free: "
 899      79206672 
 899      65653A20 
 899      00
 900 0085 000000   		.align	3
 901              	.LC7:
 902 0088 2000     		.string	" "
 903              		.text
 904              		.align	2
 905              		.globl	_Z10buddy_freeP14buddyAllocatorPvm
 907              	_Z10buddy_freeP14buddyAllocatorPvm:
 908              	.LFB8:
  81:src/buddyAllocator.cpp ****     KConsole::trapPrintString("Buddy free: ");
 909              		.loc 1 81 1 is_stmt 1
 910              		.cfi_startproc
 911              	.LVL116:
 912 0560 130101FD 		addi	sp,sp,-48
 913              		.cfi_def_cfa_offset 48
 914 0564 23341102 		sd	ra,40(sp)
 915 0568 23308102 		sd	s0,32(sp)
 916 056c 233C9100 		sd	s1,24(sp)
 917 0570 23382101 		sd	s2,16(sp)
 918 0574 23343101 		sd	s3,8(sp)
 919              		.cfi_offset 1, -8
 920              		.cfi_offset 8, -16
 921              		.cfi_offset 9, -24
 922              		.cfi_offset 18, -32
 923              		.cfi_offset 19, -40
 924 0578 13040103 		addi	s0,sp,48
 925              		.cfi_def_cfa 8, 0
 926 057c 93090500 		mv	s3,a0
 927 0580 93840500 		mv	s1,a1
 928 0584 13090600 		mv	s2,a2
  82:src/buddyAllocator.cpp ****     KConsole::trapPrintInt((size_t)addr); KConsole::trapPrintString(" ");
 929              		.loc 1 82 5
  82:src/buddyAllocator.cpp ****     KConsole::trapPrintInt((size_t)addr); KConsole::trapPrintString(" ");
 930              		.loc 1 82 30 is_stmt 0
 931 0588 17050000 		lla	a0,.LC6
 931      13050500 
 932              	.LVL117:
 933 0590 97000000 		call	_ZN8KConsole15trapPrintStringEPKc@plt
 933      E7800000 
 934              	.LVL118:
GAS LISTING /tmp/ccVKSSsU.s 			page 25


  83:src/buddyAllocator.cpp ****     KConsole::trapPrintInt(numOfBlocks); KConsole::trapPrintString("\n");
 935              		.loc 1 83 5 is_stmt 1
  83:src/buddyAllocator.cpp ****     KConsole::trapPrintInt(numOfBlocks); KConsole::trapPrintString("\n");
 936              		.loc 1 83 27 is_stmt 0
 937 0598 13060000 		li	a2,0
 938 059c 9305A000 		li	a1,10
 939 05a0 1B850400 		sext.w	a0,s1
 940 05a4 97000000 		call	_ZN8KConsole12trapPrintIntEiii@plt
 940      E7800000 
 941              	.LVL119:
  83:src/buddyAllocator.cpp ****     KConsole::trapPrintInt(numOfBlocks); KConsole::trapPrintString("\n");
 942              		.loc 1 83 43 is_stmt 1
  83:src/buddyAllocator.cpp ****     KConsole::trapPrintInt(numOfBlocks); KConsole::trapPrintString("\n");
 943              		.loc 1 83 68 is_stmt 0
 944 05ac 17050000 		lla	a0,.LC7
 944      13050500 
 945 05b4 97000000 		call	_ZN8KConsole15trapPrintStringEPKc@plt
 945      E7800000 
 946              	.LVL120:
  84:src/buddyAllocator.cpp ****     addBlocks(buddy, addr, numOfBlocks);
 947              		.loc 1 84 5 is_stmt 1
  84:src/buddyAllocator.cpp ****     addBlocks(buddy, addr, numOfBlocks);
 948              		.loc 1 84 27 is_stmt 0
 949 05bc 13060000 		li	a2,0
 950 05c0 9305A000 		li	a1,10
 951 05c4 1B050900 		sext.w	a0,s2
 952 05c8 97000000 		call	_ZN8KConsole12trapPrintIntEiii@plt
 952      E7800000 
 953              	.LVL121:
  84:src/buddyAllocator.cpp ****     addBlocks(buddy, addr, numOfBlocks);
 954              		.loc 1 84 42 is_stmt 1
  84:src/buddyAllocator.cpp ****     addBlocks(buddy, addr, numOfBlocks);
 955              		.loc 1 84 67 is_stmt 0
 956 05d0 17050000 		lla	a0,.LC1
 956      13050500 
 957 05d8 97000000 		call	_ZN8KConsole15trapPrintStringEPKc@plt
 957      E7800000 
 958              	.LVL122:
  85:src/buddyAllocator.cpp **** }
 959              		.loc 1 85 5 is_stmt 1
  85:src/buddyAllocator.cpp **** }
 960              		.loc 1 85 14 is_stmt 0
 961 05e0 13060900 		mv	a2,s2
 962 05e4 93850400 		mv	a1,s1
 963 05e8 13850900 		mv	a0,s3
 964 05ec 97000000 		call	_Z9addBlocksP14buddyAllocatorPvm
 964      E7800000 
 965              	.LVL123:
  86:src/buddyAllocator.cpp **** 
 966              		.loc 1 86 1
 967 05f4 83308102 		ld	ra,40(sp)
 968              		.cfi_restore 1
 969 05f8 03340102 		ld	s0,32(sp)
 970              		.cfi_restore 8
 971              		.cfi_def_cfa 2, 48
 972 05fc 83348101 		ld	s1,24(sp)
 973              		.cfi_restore 9
GAS LISTING /tmp/ccVKSSsU.s 			page 26


 974              	.LVL124:
 975 0600 03390101 		ld	s2,16(sp)
 976              		.cfi_restore 18
 977              	.LVL125:
 978 0604 83398100 		ld	s3,8(sp)
 979              		.cfi_restore 19
 980              	.LVL126:
 981 0608 13010103 		addi	sp,sp,48
 982              		.cfi_def_cfa_offset 0
 983 060c 67800000 		jr	ra
 984              		.cfi_endproc
 985              	.LFE8:
 987              		.section	.rodata.str1.8
 988 008a 00000000 		.align	3
 988      0000
 989              	.LC8:
 990 0090 42756464 		.string	"Buddy info\n--------------\n"
 990      7920696E 
 990      666F0A2D 
 990      2D2D2D2D 
 990      2D2D2D2D 
 991 00ab 00000000 		.align	3
 991      00
 992              	.LC9:
 993 00b0 4C657665 		.string	"Level "
 993      6C2000
 994 00b7 00       		.align	3
 995              	.LC10:
 996 00b8 46726565 		.string	"Free blocks on this level\n"
 996      20626C6F 
 996      636B7320 
 996      6F6E2074 
 996      68697320 
 997              		.text
 998              		.align	2
 999              		.globl	_Z14printBuddyInfoP14buddyAllocator
 1001              	_Z14printBuddyInfoP14buddyAllocator:
 1002              	.LFB16:
 184:src/buddyAllocator.cpp **** 
 185:src/buddyAllocator.cpp **** void printBuddyInfo(buddyAllocator* buddy)
 186:src/buddyAllocator.cpp **** {
 1003              		.loc 1 186 1 is_stmt 1
 1004              		.cfi_startproc
 1005              	.LVL127:
 1006 0610 130101FD 		addi	sp,sp,-48
 1007              		.cfi_def_cfa_offset 48
 1008 0614 23341102 		sd	ra,40(sp)
 1009 0618 23308102 		sd	s0,32(sp)
 1010 061c 233C9100 		sd	s1,24(sp)
 1011 0620 23382101 		sd	s2,16(sp)
 1012 0624 23343101 		sd	s3,8(sp)
 1013              		.cfi_offset 1, -8
 1014              		.cfi_offset 8, -16
 1015              		.cfi_offset 9, -24
 1016              		.cfi_offset 18, -32
 1017              		.cfi_offset 19, -40
 1018 0628 13040103 		addi	s0,sp,48
GAS LISTING /tmp/ccVKSSsU.s 			page 27


 1019              		.cfi_def_cfa 8, 0
 1020 062c 93090500 		mv	s3,a0
 187:src/buddyAllocator.cpp ****     KConsole::trapPrintString("Buddy info\n--------------\n");
 1021              		.loc 1 187 5
 1022              		.loc 1 187 30 is_stmt 0
 1023 0630 17050000 		lla	a0,.LC8
 1023      13050500 
 1024              	.LVL128:
 1025 0638 97000000 		call	_ZN8KConsole15trapPrintStringEPKc@plt
 1025      E7800000 
 1026              	.LVL129:
 188:src/buddyAllocator.cpp ****     for(int i = buddy->maxLevel;i>=0;i--)
 1027              		.loc 1 188 5 is_stmt 1
 1028              	.LBB55:
 1029              		.loc 1 188 13 is_stmt 0
 1030 0640 03A98901 		lw	s2,24(s3)
 1031              	.LVL130:
 1032 0644 6F008000 		j	.L57
 1033              	.LVL131:
 1034              	.L55:
 1035              		.loc 1 188 5 is_stmt 1 discriminator 2
 1036 0648 1B09F9FF 		addiw	s2,s2,-1
 1037              	.LVL132:
 1038              	.L57:
 1039              		.loc 1 188 34 discriminator 1
 1040 064c 63440908 		bltz	s2,.L53
 1041              	.LBB56:
 189:src/buddyAllocator.cpp ****     {
 190:src/buddyAllocator.cpp ****         KConsole::trapPrintString("Level ");
 1042              		.loc 1 190 9
 1043              		.loc 1 190 34 is_stmt 0
 1044 0650 17050000 		lla	a0,.LC9
 1044      13050500 
 1045 0658 97000000 		call	_ZN8KConsole15trapPrintStringEPKc@plt
 1045      E7800000 
 1046              	.LVL133:
 191:src/buddyAllocator.cpp ****         KConsole::trapPrintInt(i);KConsole::trapPrintString("\n");
 1047              		.loc 1 191 9 is_stmt 1
 1048              		.loc 1 191 31 is_stmt 0
 1049 0660 13060000 		li	a2,0
 1050 0664 9305A000 		li	a1,10
 1051 0668 13050900 		mv	a0,s2
 1052 066c 97000000 		call	_ZN8KConsole12trapPrintIntEiii@plt
 1052      E7800000 
 1053              	.LVL134:
 1054              		.loc 1 191 35 is_stmt 1
 1055              		.loc 1 191 60 is_stmt 0
 1056 0674 17050000 		lla	a0,.LC1
 1056      13050500 
 1057 067c 97000000 		call	_ZN8KConsole15trapPrintStringEPKc@plt
 1057      E7800000 
 1058              	.LVL135:
 192:src/buddyAllocator.cpp ****         KConsole::trapPrintString("Free blocks on this level\n");
 1059              		.loc 1 192 9 is_stmt 1
 1060              		.loc 1 192 34 is_stmt 0
 1061 0684 17050000 		lla	a0,.LC10
 1061      13050500 
GAS LISTING /tmp/ccVKSSsU.s 			page 28


 1062 068c 97000000 		call	_ZN8KConsole15trapPrintStringEPKc@plt
 1062      E7800000 
 1063              	.LVL136:
 193:src/buddyAllocator.cpp ****         uint64* curr = buddy->bucket[i].first;
 1064              		.loc 1 193 9 is_stmt 1
 1065              		.loc 1 193 17 is_stmt 0
 1066 0694 93072900 		addi	a5,s2,2
 1067 0698 93974700 		slli	a5,a5,4
 1068 069c B387F900 		add	a5,s3,a5
 1069 06a0 83B40700 		ld	s1,0(a5)
 1070              	.LVL137:
 1071              	.L56:
 194:src/buddyAllocator.cpp ****         while(curr != 0)
 1072              		.loc 1 194 9 is_stmt 1
 1073              		.loc 1 194 20
 1074 06a4 E38204FA 		beqz	s1,.L55
 195:src/buddyAllocator.cpp ****         {
 196:src/buddyAllocator.cpp ****             KConsole::trapPrintInt(*curr);
 1075              		.loc 1 196 13
 1076              		.loc 1 196 35 is_stmt 0
 1077 06a8 13060000 		li	a2,0
 1078 06ac 9305A000 		li	a1,10
 1079 06b0 03A50400 		lw	a0,0(s1)
 1080 06b4 97000000 		call	_ZN8KConsole12trapPrintIntEiii@plt
 1080      E7800000 
 1081              	.LVL138:
 197:src/buddyAllocator.cpp ****             KConsole::trapPrintString("\n");
 1082              		.loc 1 197 13 is_stmt 1
 1083              		.loc 1 197 38 is_stmt 0
 1084 06bc 17050000 		lla	a0,.LC1
 1084      13050500 
 1085 06c4 97000000 		call	_ZN8KConsole15trapPrintStringEPKc@plt
 1085      E7800000 
 1086              	.LVL139:
 198:src/buddyAllocator.cpp ****             curr = (uint64*)*curr;
 1087              		.loc 1 198 13 is_stmt 1
 1088              		.loc 1 198 29 is_stmt 0
 1089 06cc 83B40400 		ld	s1,0(s1)
 1090              	.LVL140:
 194:src/buddyAllocator.cpp ****         {
 1091              		.loc 1 194 9
 1092 06d0 6FF05FFD 		j	.L56
 1093              	.LVL141:
 1094              	.L53:
 1095              	.LBE56:
 1096              	.LBE55:
 199:src/buddyAllocator.cpp ****         }
 200:src/buddyAllocator.cpp ****     }
 201:src/buddyAllocator.cpp **** }...
 1097              		.loc 1 201 1
 1098 06d4 83308102 		ld	ra,40(sp)
 1099              		.cfi_restore 1
 1100 06d8 03340102 		ld	s0,32(sp)
 1101              		.cfi_restore 8
 1102              		.cfi_def_cfa 2, 48
 1103 06dc 83348101 		ld	s1,24(sp)
 1104              		.cfi_restore 9
GAS LISTING /tmp/ccVKSSsU.s 			page 29


 1105 06e0 03390101 		ld	s2,16(sp)
 1106              		.cfi_restore 18
 1107              	.LVL142:
 1108 06e4 83398100 		ld	s3,8(sp)
 1109              		.cfi_restore 19
 1110              	.LVL143:
 1111 06e8 13010103 		addi	sp,sp,48
 1112              		.cfi_def_cfa_offset 0
 1113 06ec 67800000 		jr	ra
 1114              		.cfi_endproc
 1115              	.LFE16:
 1117              	.Letext0:
 1118              		.file 2 "src/../h/../lib/hw.h"
 1119              		.file 3 "src/../h/buddyAllocator.hpp"
 1120              		.file 4 "src/../h/PCB.hpp"
 1121              		.file 5 "src/../h/KSemaphore.hpp"
 1122              		.file 6 "src/../h/KConsole.hpp"
GAS LISTING /tmp/ccVKSSsU.s 			page 30

