GAS LISTING /tmp/ccz5wM3U.s 			page 1


   1              		.file	"buddyTests.cpp"
   2              		.option pic
   3              		.option norelax
   4              		.text
   5              	.Ltext0:
   6              		.align	2
   7              		.globl	_Z14buddyInitTest1v
   9              	_Z14buddyInitTest1v:
  10              	.LFB0:
  11              		.file 1 "src/buddyTests.cpp"
   1:src/buddyTests.cpp **** #include "../h/buddyTests.hpp"
   2:src/buddyTests.cpp **** 
   3:src/buddyTests.cpp **** void buddyInitTest1()
   4:src/buddyTests.cpp **** {
  12              		.loc 1 4 1
  13              		.cfi_startproc
  14 0000 130101FF 		addi	sp,sp,-16
  15              		.cfi_def_cfa_offset 16
  16 0004 23341100 		sd	ra,8(sp)
  17 0008 23308100 		sd	s0,0(sp)
  18              		.cfi_offset 1, -8
  19              		.cfi_offset 8, -16
  20 000c 13040101 		addi	s0,sp,16
  21              		.cfi_def_cfa 8, 0
   5:src/buddyTests.cpp ****     buddyAllocator* buddy = buddy_init((void*)HEAP_START_ADDR, 18);
  22              		.loc 1 5 5
  23              		.loc 1 5 39 is_stmt 0
  24 0010 93052001 		li	a1,18
  25 0014 97070000 		la	a5,HEAP_START_ADDR
  25      83B70700 
  26 001c 03B50700 		ld	a0,0(a5)
  27 0020 97000000 		call	_Z10buddy_initPvm@plt
  27      E7800000 
  28              	.LVL0:
   6:src/buddyTests.cpp ****     printBuddyInfo(buddy);
  29              		.loc 1 6 5 is_stmt 1
  30              		.loc 1 6 19 is_stmt 0
  31 0028 97000000 		call	_Z14printBuddyInfoP14buddyAllocator@plt
  31      E7800000 
  32              	.LVL1:
   7:src/buddyTests.cpp **** }
  33              		.loc 1 7 1
  34 0030 83308100 		ld	ra,8(sp)
  35              		.cfi_restore 1
  36 0034 03340100 		ld	s0,0(sp)
  37              		.cfi_restore 8
  38              		.cfi_def_cfa 2, 16
  39 0038 13010101 		addi	sp,sp,16
  40              		.cfi_def_cfa_offset 0
  41 003c 67800000 		jr	ra
  42              		.cfi_endproc
  43              	.LFE0:
  45              		.align	2
  46              		.globl	_Z20buddyOnlyAllocsTest1v
  48              	_Z20buddyOnlyAllocsTest1v:
  49              	.LFB1:
   8:src/buddyTests.cpp **** 
GAS LISTING /tmp/ccz5wM3U.s 			page 2


   9:src/buddyTests.cpp **** void buddyOnlyAllocsTest1()
  10:src/buddyTests.cpp **** {
  50              		.loc 1 10 1 is_stmt 1
  51              		.cfi_startproc
  52 0040 130101FE 		addi	sp,sp,-32
  53              		.cfi_def_cfa_offset 32
  54 0044 233C1100 		sd	ra,24(sp)
  55 0048 23388100 		sd	s0,16(sp)
  56 004c 23349100 		sd	s1,8(sp)
  57              		.cfi_offset 1, -8
  58              		.cfi_offset 8, -16
  59              		.cfi_offset 9, -24
  60 0050 13040102 		addi	s0,sp,32
  61              		.cfi_def_cfa 8, 0
  11:src/buddyTests.cpp ****     buddyAllocator* buddy = buddy_init((void*)HEAP_START_ADDR, 10);
  62              		.loc 1 11 5
  63              		.loc 1 11 39 is_stmt 0
  64 0054 9305A000 		li	a1,10
  65 0058 97070000 		la	a5,HEAP_START_ADDR
  65      83B70700 
  66 0060 03B50700 		ld	a0,0(a5)
  67 0064 97000000 		call	_Z10buddy_initPvm@plt
  67      E7800000 
  68              	.LVL2:
  69 006c 93040500 		mv	s1,a0
  70              	.LVL3:
  12:src/buddyTests.cpp ****     printBuddyInfo(buddy);
  71              		.loc 1 12 5 is_stmt 1
  72              		.loc 1 12 19 is_stmt 0
  73 0070 97000000 		call	_Z14printBuddyInfoP14buddyAllocator@plt
  73      E7800000 
  74              	.LVL4:
  13:src/buddyTests.cpp ****     buddy_alloc(buddy,3);
  75              		.loc 1 13 5 is_stmt 1
  76              		.loc 1 13 16 is_stmt 0
  77 0078 93053000 		li	a1,3
  78 007c 13850400 		mv	a0,s1
  79 0080 97000000 		call	_Z11buddy_allocP14buddyAllocatorm@plt
  79      E7800000 
  80              	.LVL5:
  14:src/buddyTests.cpp ****     printBuddyInfo(buddy);
  81              		.loc 1 14 5 is_stmt 1
  82              		.loc 1 14 19 is_stmt 0
  83 0088 13850400 		mv	a0,s1
  84 008c 97000000 		call	_Z14printBuddyInfoP14buddyAllocator@plt
  84      E7800000 
  85              	.LVL6:
  15:src/buddyTests.cpp ****     buddy_alloc(buddy,1);
  86              		.loc 1 15 5 is_stmt 1
  87              		.loc 1 15 16 is_stmt 0
  88 0094 93051000 		li	a1,1
  89 0098 13850400 		mv	a0,s1
  90 009c 97000000 		call	_Z11buddy_allocP14buddyAllocatorm@plt
  90      E7800000 
  91              	.LVL7:
  16:src/buddyTests.cpp ****     printBuddyInfo(buddy);
  92              		.loc 1 16 5 is_stmt 1
GAS LISTING /tmp/ccz5wM3U.s 			page 3


  93              		.loc 1 16 19 is_stmt 0
  94 00a4 13850400 		mv	a0,s1
  95 00a8 97000000 		call	_Z14printBuddyInfoP14buddyAllocator@plt
  95      E7800000 
  96              	.LVL8:
  17:src/buddyTests.cpp ****     buddy_alloc(buddy,1);
  97              		.loc 1 17 5 is_stmt 1
  98              		.loc 1 17 16 is_stmt 0
  99 00b0 93051000 		li	a1,1
 100 00b4 13850400 		mv	a0,s1
 101 00b8 97000000 		call	_Z11buddy_allocP14buddyAllocatorm@plt
 101      E7800000 
 102              	.LVL9:
  18:src/buddyTests.cpp ****     printBuddyInfo(buddy);
 103              		.loc 1 18 5 is_stmt 1
 104              		.loc 1 18 19 is_stmt 0
 105 00c0 13850400 		mv	a0,s1
 106 00c4 97000000 		call	_Z14printBuddyInfoP14buddyAllocator@plt
 106      E7800000 
 107              	.LVL10:
  19:src/buddyTests.cpp ****     buddy_alloc(buddy,1);
 108              		.loc 1 19 5 is_stmt 1
 109              		.loc 1 19 16 is_stmt 0
 110 00cc 93051000 		li	a1,1
 111 00d0 13850400 		mv	a0,s1
 112 00d4 97000000 		call	_Z11buddy_allocP14buddyAllocatorm@plt
 112      E7800000 
 113              	.LVL11:
  20:src/buddyTests.cpp ****     printBuddyInfo(buddy);
 114              		.loc 1 20 5 is_stmt 1
 115              		.loc 1 20 19 is_stmt 0
 116 00dc 13850400 		mv	a0,s1
 117 00e0 97000000 		call	_Z14printBuddyInfoP14buddyAllocator@plt
 117      E7800000 
 118              	.LVL12:
  21:src/buddyTests.cpp **** }...
 119              		.loc 1 21 1
 120 00e8 83308101 		ld	ra,24(sp)
 121              		.cfi_restore 1
 122 00ec 03340101 		ld	s0,16(sp)
 123              		.cfi_restore 8
 124              		.cfi_def_cfa 2, 32
 125 00f0 83348100 		ld	s1,8(sp)
 126              		.cfi_restore 9
 127              	.LVL13:
 128 00f4 13010102 		addi	sp,sp,32
 129              		.cfi_def_cfa_offset 0
 130 00f8 67800000 		jr	ra
 131              		.cfi_endproc
 132              	.LFE1:
 134              	.Letext0:
 135              		.file 2 "src/../h/../lib/hw.h"
 136              		.file 3 "src/../h/buddyAllocator.hpp"
GAS LISTING /tmp/ccz5wM3U.s 			page 4

