GAS LISTING /tmp/ccSU3S2v.s 			page 1


   1              		.file	"buddyAllocator.cpp"
   2              		.option pic
   3              		.option norelax
   4              		.text
   5              	.Ltext0:
   6              		.align	2
   7              		.globl	_Z12getBlockAddrm
   9              	_Z12getBlockAddrm:
  10              	.LFB9:
  11              		.file 1 "src/buddyAllocator.cpp"
   1:src/buddyAllocator.cpp **** #include "../h/buddyAllocator.hpp"
   2:src/buddyAllocator.cpp **** #include "../h/KConsole.hpp"
   3:src/buddyAllocator.cpp **** 
   4:src/buddyAllocator.cpp **** #define BLOCK_SIZE 4096
   5:src/buddyAllocator.cpp **** 
   6:src/buddyAllocator.cpp **** buddyAllocator* buddy_init(void* addr, size_t numOfBlocks)
   7:src/buddyAllocator.cpp **** {
   8:src/buddyAllocator.cpp ****     //KConsole::trapPrintString("Buddy initialization\n");
   9:src/buddyAllocator.cpp ****     size_t blockAddr = getBlockAddr((size_t)addr); //alling the address
  10:src/buddyAllocator.cpp ****     size_t buddyAddr = (size_t)addr;
  11:src/buddyAllocator.cpp ****     //KConsole::trapPrintInt(blockAddr,16); KConsole::trapPrintString("\n");
  12:src/buddyAllocator.cpp ****     //KConsole::trapPrintInt(buddyAddr,16); KConsole::trapPrintString("\n");
  13:src/buddyAllocator.cpp ****     if((size_t)addr != blockAddr) // if start address not aligned
  14:src/buddyAllocator.cpp ****     {
  15:src/buddyAllocator.cpp ****         buddyAddr = getNextBlockAddr(blockAddr);
  16:src/buddyAllocator.cpp ****         numOfBlocks--; //have to discard one block
  17:src/buddyAllocator.cpp ****     }
  18:src/buddyAllocator.cpp ****     //KConsole::trapPrintStringInt("Buddy metadata address: ", buddyAddr,16);
  19:src/buddyAllocator.cpp ****     numOfBlocks--; // take one block for buddy metadata
  20:src/buddyAllocator.cpp ****     buddyAllocator* buddy = (buddyAllocator*)buddyAddr;
  21:src/buddyAllocator.cpp ****     buddy->startAddr = (void*)getNextBlockAddr(buddyAddr);
  22:src/buddyAllocator.cpp ****     buddy->numOfBlocks = numOfBlocks;
  23:src/buddyAllocator.cpp ****     buddy->numOfFreeBlocks = numOfBlocks;
  24:src/buddyAllocator.cpp ****     buddy->maxLevel = getDeg2Floor(numOfBlocks);
  25:src/buddyAllocator.cpp **** 
  26:src/buddyAllocator.cpp ****     for(size_t i = 0; i <= buddy->maxLevel;i++)
  27:src/buddyAllocator.cpp ****         buddy->bucket[i].first = buddy->bucket[i].last = nullptr;
  28:src/buddyAllocator.cpp **** 
  29:src/buddyAllocator.cpp ****     //TODO
  30:src/buddyAllocator.cpp ****     //maybe do it differently, like putting in chunks of power of 2
  31:src/buddyAllocator.cpp ****     for(size_t i = 0;i < numOfBlocks;i++)
  32:src/buddyAllocator.cpp ****         addBlocks(buddy, (block*)buddy->startAddr + i, 0);
  33:src/buddyAllocator.cpp **** 
  34:src/buddyAllocator.cpp ****     return buddy;
  35:src/buddyAllocator.cpp **** }
  36:src/buddyAllocator.cpp **** 
  37:src/buddyAllocator.cpp **** void* buddy_alloc(buddyAllocator* buddy, size_t numOfBlocks)
  38:src/buddyAllocator.cpp **** {
  39:src/buddyAllocator.cpp ****     //KConsole::trapPrintStringInt("Buddy allocation: ", numOfBlocks);
  40:src/buddyAllocator.cpp ****     size_t level = getDeg2Ceil(numOfBlocks);
  41:src/buddyAllocator.cpp ****     //KConsole::trapPrintStringInt("Level: ", level);
  42:src/buddyAllocator.cpp ****     for(size_t i = level; i <= buddy->maxLevel;i++)
  43:src/buddyAllocator.cpp ****     {
  44:src/buddyAllocator.cpp ****         if(buddy->bucket[i].first != nullptr)
  45:src/buddyAllocator.cpp ****         {
  46:src/buddyAllocator.cpp ****             buddyBlock* ret = buddy->bucket[i].first;
  47:src/buddyAllocator.cpp ****             //KConsole::trapPrintStringInt("Found the block:", (size_t)ret,16);
GAS LISTING /tmp/ccSU3S2v.s 			page 2


  48:src/buddyAllocator.cpp ****             buddy->bucket[i].first = ret->next;
  49:src/buddyAllocator.cpp ****             if(buddy->bucket[i].first == nullptr)
  50:src/buddyAllocator.cpp ****                 buddy->bucket[i].last = nullptr;
  51:src/buddyAllocator.cpp ****             split(buddy, (void*)ret, level, i, true);
  52:src/buddyAllocator.cpp ****             return ret;
  53:src/buddyAllocator.cpp ****         }
  54:src/buddyAllocator.cpp ****     }
  55:src/buddyAllocator.cpp **** 
  56:src/buddyAllocator.cpp ****     return nullptr;
  57:src/buddyAllocator.cpp **** }
  58:src/buddyAllocator.cpp **** 
  59:src/buddyAllocator.cpp **** //split chunks into smaller chunks, until it is necessary
  60:src/buddyAllocator.cpp **** void split(buddyAllocator* buddy, void* addr, size_t finalLevel, size_t currLevel, bool splitMore)
  61:src/buddyAllocator.cpp **** {
  62:src/buddyAllocator.cpp ****     if(!splitMore)
  63:src/buddyAllocator.cpp ****     {
  64:src/buddyAllocator.cpp ****         addBlockToLevel(buddy, addr, currLevel);
  65:src/buddyAllocator.cpp ****     }
  66:src/buddyAllocator.cpp ****     else
  67:src/buddyAllocator.cpp ****     {
  68:src/buddyAllocator.cpp ****         if(currLevel == finalLevel)
  69:src/buddyAllocator.cpp ****             return;
  70:src/buddyAllocator.cpp ****         size_t buddyBlock = getBuddyBlockAddr(buddy, addr, currLevel - 1); // currLevel - 1 for nex
  71:src/buddyAllocator.cpp ****         split(buddy, (void*)buddyBlock, finalLevel, currLevel - 1, false); // continue splitting
  72:src/buddyAllocator.cpp ****         split(buddy, addr, finalLevel, currLevel - 1, true); // continue splitting
  73:src/buddyAllocator.cpp ****     }
  74:src/buddyAllocator.cpp **** }
  75:src/buddyAllocator.cpp **** 
  76:src/buddyAllocator.cpp **** //TODO
  77:src/buddyAllocator.cpp **** //maybe check if address is aligned to start of block
  78:src/buddyAllocator.cpp **** void buddy_free(buddyAllocator* buddy, void* addr, size_t numOfBlocks)
  79:src/buddyAllocator.cpp **** {
  80:src/buddyAllocator.cpp ****     //KConsole::trapPrintStringInt("Buddy free: ", (size_t)addr,16);
  81:src/buddyAllocator.cpp ****     //KConsole::trapPrintStringInt("Num of blocks: ", numOfBlocks);
  82:src/buddyAllocator.cpp ****     size_t level = getDeg2Ceil(numOfBlocks);
  83:src/buddyAllocator.cpp ****     addBlocks(buddy, addr, level); //adds free blocks
  84:src/buddyAllocator.cpp **** }
  85:src/buddyAllocator.cpp **** 
  86:src/buddyAllocator.cpp **** size_t getBlockAddr(size_t addr)
  87:src/buddyAllocator.cpp **** {
  12              		.loc 1 87 1
  13              		.cfi_startproc
  14              	.LVL0:
  15 0000 130101FF 		addi	sp,sp,-16
  16              		.cfi_def_cfa_offset 16
  17 0004 23348100 		sd	s0,8(sp)
  18              		.cfi_offset 8, -8
  19 0008 13040101 		addi	s0,sp,16
  20              		.cfi_def_cfa 8, 0
  88:src/buddyAllocator.cpp ****     size_t mask = ((size_t)-1) << BLOCK_SIZE_POWER_2;
  21              		.loc 1 88 5
  22              	.LVL1:
  89:src/buddyAllocator.cpp ****     return addr & mask;
  23              		.loc 1 89 5
  90:src/buddyAllocator.cpp **** }
  24              		.loc 1 90 1 is_stmt 0
  25 000c B7F7FFFF 		li	a5,-4096
GAS LISTING /tmp/ccSU3S2v.s 			page 3


  26 0010 3375F500 		and	a0,a0,a5
  27              	.LVL2:
  28 0014 03348100 		ld	s0,8(sp)
  29              		.cfi_restore 8
  30              		.cfi_def_cfa 2, 16
  31 0018 13010101 		addi	sp,sp,16
  32              		.cfi_def_cfa_offset 0
  33 001c 67800000 		jr	ra
  34              		.cfi_endproc
  35              	.LFE9:
  37              		.align	2
  38              		.globl	_Z16getNextBlockAddrm
  40              	_Z16getNextBlockAddrm:
  41              	.LFB10:
  91:src/buddyAllocator.cpp **** size_t getNextBlockAddr(size_t addr)
  92:src/buddyAllocator.cpp **** {
  42              		.loc 1 92 1 is_stmt 1
  43              		.cfi_startproc
  44              	.LVL3:
  45 0020 130101FF 		addi	sp,sp,-16
  46              		.cfi_def_cfa_offset 16
  47 0024 23341100 		sd	ra,8(sp)
  48 0028 23308100 		sd	s0,0(sp)
  49              		.cfi_offset 1, -8
  50              		.cfi_offset 8, -16
  51 002c 13040101 		addi	s0,sp,16
  52              		.cfi_def_cfa 8, 0
  93:src/buddyAllocator.cpp ****     size_t currBlock = getBlockAddr(addr);
  53              		.loc 1 93 5
  54              		.loc 1 93 36 is_stmt 0
  55 0030 97000000 		call	_Z12getBlockAddrm
  55      E7800000 
  56              	.LVL4:
  94:src/buddyAllocator.cpp ****     return currBlock + BLOCK_SIZE;
  57              		.loc 1 94 5 is_stmt 1
  95:src/buddyAllocator.cpp **** }
  58              		.loc 1 95 1 is_stmt 0
  59 0038 B7170000 		li	a5,4096
  60 003c 3305F500 		add	a0,a0,a5
  61              	.LVL5:
  62 0040 83308100 		ld	ra,8(sp)
  63              		.cfi_restore 1
  64 0044 03340100 		ld	s0,0(sp)
  65              		.cfi_restore 8
  66              		.cfi_def_cfa 2, 16
  67 0048 13010101 		addi	sp,sp,16
  68              		.cfi_def_cfa_offset 0
  69 004c 67800000 		jr	ra
  70              		.cfi_endproc
  71              	.LFE10:
  73              		.align	2
  74              		.globl	_Z12getDeg2Floorm
  76              	_Z12getDeg2Floorm:
  77              	.LFB11:
  96:src/buddyAllocator.cpp **** 
  97:src/buddyAllocator.cpp **** size_t getDeg2Floor(size_t num)
  98:src/buddyAllocator.cpp **** {
GAS LISTING /tmp/ccSU3S2v.s 			page 4


  78              		.loc 1 98 1 is_stmt 1
  79              		.cfi_startproc
  80              	.LVL6:
  81 0050 130101FF 		addi	sp,sp,-16
  82              		.cfi_def_cfa_offset 16
  83 0054 23348100 		sd	s0,8(sp)
  84              		.cfi_offset 8, -8
  85 0058 13040101 		addi	s0,sp,16
  86              		.cfi_def_cfa 8, 0
  99:src/buddyAllocator.cpp ****     size_t x = 1;
  87              		.loc 1 99 5
  88              	.LVL7:
 100:src/buddyAllocator.cpp ****     size_t deg = 0;
  89              		.loc 1 100 5
  90              		.loc 1 100 12 is_stmt 0
  91 005c 13070000 		li	a4,0
  99:src/buddyAllocator.cpp ****     size_t x = 1;
  92              		.loc 1 99 12
  93 0060 93071000 		li	a5,1
  94              	.LVL8:
  95              	.L7:
 101:src/buddyAllocator.cpp ****     while(x <= num)
  96              		.loc 1 101 5 is_stmt 1
  97              		.loc 1 101 13
  98 0064 6368F500 		bgtu	a5,a0,.L6
 102:src/buddyAllocator.cpp ****     {
 103:src/buddyAllocator.cpp ****         deg++;
  99              		.loc 1 103 9
 100              		.loc 1 103 12 is_stmt 0
 101 0068 13071700 		addi	a4,a4,1
 102              	.LVL9:
 104:src/buddyAllocator.cpp ****         x<<=1;
 103              		.loc 1 104 9 is_stmt 1
 104              		.loc 1 104 10 is_stmt 0
 105 006c 93971700 		slli	a5,a5,1
 106              	.LVL10:
 101:src/buddyAllocator.cpp ****     while(x <= num)
 107              		.loc 1 101 5
 108 0070 6FF05FFF 		j	.L7
 109              	.L6:
 105:src/buddyAllocator.cpp ****     }
 106:src/buddyAllocator.cpp ****     return deg - 1;
 110              		.loc 1 106 5 is_stmt 1
 107:src/buddyAllocator.cpp **** }
 111              		.loc 1 107 1 is_stmt 0
 112 0074 1305F7FF 		addi	a0,a4,-1
 113              	.LVL11:
 114 0078 03348100 		ld	s0,8(sp)
 115              		.cfi_restore 8
 116              		.cfi_def_cfa 2, 16
 117 007c 13010101 		addi	sp,sp,16
 118              		.cfi_def_cfa_offset 0
 119 0080 67800000 		jr	ra
 120              		.cfi_endproc
 121              	.LFE11:
 123              		.align	2
 124              		.globl	_Z11getDeg2Ceilm
GAS LISTING /tmp/ccSU3S2v.s 			page 5


 126              	_Z11getDeg2Ceilm:
 127              	.LFB12:
 108:src/buddyAllocator.cpp **** 
 109:src/buddyAllocator.cpp **** size_t getDeg2Ceil(size_t num)
 110:src/buddyAllocator.cpp **** {
 128              		.loc 1 110 1 is_stmt 1
 129              		.cfi_startproc
 130              	.LVL12:
 131 0084 130101FF 		addi	sp,sp,-16
 132              		.cfi_def_cfa_offset 16
 133 0088 23348100 		sd	s0,8(sp)
 134              		.cfi_offset 8, -8
 135 008c 13040101 		addi	s0,sp,16
 136              		.cfi_def_cfa 8, 0
 137 0090 13070500 		mv	a4,a0
 111:src/buddyAllocator.cpp ****     size_t x = 1;
 138              		.loc 1 111 5
 139              	.LVL13:
 112:src/buddyAllocator.cpp ****     size_t deg = 0;
 140              		.loc 1 112 5
 141              		.loc 1 112 12 is_stmt 0
 142 0094 13050000 		li	a0,0
 143              	.LVL14:
 111:src/buddyAllocator.cpp ****     size_t x = 1;
 144              		.loc 1 111 12
 145 0098 93071000 		li	a5,1
 146              	.LVL15:
 147              	.L11:
 113:src/buddyAllocator.cpp ****     while(x < num)
 148              		.loc 1 113 5 is_stmt 1
 149              		.loc 1 113 13
 150 009c 63F8E700 		bgeu	a5,a4,.L9
 114:src/buddyAllocator.cpp ****     {
 115:src/buddyAllocator.cpp ****         deg++;
 151              		.loc 1 115 9
 152              		.loc 1 115 12 is_stmt 0
 153 00a0 13051500 		addi	a0,a0,1
 154              	.LVL16:
 116:src/buddyAllocator.cpp ****         x<<=1;
 155              		.loc 1 116 9 is_stmt 1
 156              		.loc 1 116 10 is_stmt 0
 157 00a4 93971700 		slli	a5,a5,1
 158              	.LVL17:
 113:src/buddyAllocator.cpp ****     while(x < num)
 159              		.loc 1 113 5
 160 00a8 6FF05FFF 		j	.L11
 161              	.L9:
 117:src/buddyAllocator.cpp ****     }
 118:src/buddyAllocator.cpp ****     return deg;
 119:src/buddyAllocator.cpp **** }
 162              		.loc 1 119 1
 163 00ac 03348100 		ld	s0,8(sp)
 164              		.cfi_restore 8
 165              		.cfi_def_cfa 2, 16
 166 00b0 13010101 		addi	sp,sp,16
 167              		.cfi_def_cfa_offset 0
 168 00b4 67800000 		jr	ra
GAS LISTING /tmp/ccSU3S2v.s 			page 6


 169              		.cfi_endproc
 170              	.LFE12:
 172              		.align	2
 173              		.globl	_Z15addBlockToLevelP14buddyAllocatorPvm
 175              	_Z15addBlockToLevelP14buddyAllocatorPvm:
 176              	.LFB14:
 120:src/buddyAllocator.cpp **** 
 121:src/buddyAllocator.cpp **** //TODO
 122:src/buddyAllocator.cpp **** //maybe change it to work with levels instead of numOfBlocks
 123:src/buddyAllocator.cpp **** //function to add free blocks to the buddy
 124:src/buddyAllocator.cpp **** void addBlocks(buddyAllocator* buddy, void* addr, size_t level)
 125:src/buddyAllocator.cpp **** {
 126:src/buddyAllocator.cpp ****     if(level == buddy->maxLevel)
 127:src/buddyAllocator.cpp ****     {
 128:src/buddyAllocator.cpp ****         addBlockToLevel(buddy, addr, level);
 129:src/buddyAllocator.cpp ****         return;
 130:src/buddyAllocator.cpp ****     }
 131:src/buddyAllocator.cpp ****     size_t buddyBlockAddr = getBuddyBlockAddr(buddy,addr,level);
 132:src/buddyAllocator.cpp ****     //KConsole::trapPrintString("Buddy block addr ");
 133:src/buddyAllocator.cpp ****     //KConsole::trapPrintInt(buddyBlockAddr, 16); KConsole::trapPrintString("\n");
 134:src/buddyAllocator.cpp ****     buddyBlock* curr = buddy->bucket[level].first;
 135:src/buddyAllocator.cpp ****     buddyBlock* prev = nullptr;
 136:src/buddyAllocator.cpp ****     while(curr != nullptr)
 137:src/buddyAllocator.cpp ****     {
 138:src/buddyAllocator.cpp ****         if((size_t)curr == buddyBlockAddr)
 139:src/buddyAllocator.cpp ****         {
 140:src/buddyAllocator.cpp ****             if(prev != nullptr)
 141:src/buddyAllocator.cpp ****             {
 142:src/buddyAllocator.cpp ****                 prev->next = curr->next;
 143:src/buddyAllocator.cpp ****                 if(curr == buddy->bucket[level].last)
 144:src/buddyAllocator.cpp ****                     buddy->bucket[level].last = prev;
 145:src/buddyAllocator.cpp ****             }
 146:src/buddyAllocator.cpp ****             else
 147:src/buddyAllocator.cpp ****             {
 148:src/buddyAllocator.cpp ****                 if(curr->next == nullptr)
 149:src/buddyAllocator.cpp ****                     buddy->bucket[level].first = buddy->bucket[level].last = nullptr;
 150:src/buddyAllocator.cpp ****                 else
 151:src/buddyAllocator.cpp ****                     buddy->bucket[level].first = curr->next;
 152:src/buddyAllocator.cpp ****             }
 153:src/buddyAllocator.cpp ****             if((size_t)addr < buddyBlockAddr) addBlocks(buddy, addr, level + 1); //merge two chunks
 154:src/buddyAllocator.cpp ****             else addBlocks(buddy, (void*)buddyBlockAddr, level + 1); //merge two chunks
 155:src/buddyAllocator.cpp ****             return;
 156:src/buddyAllocator.cpp ****         }
 157:src/buddyAllocator.cpp **** 
 158:src/buddyAllocator.cpp ****         prev = curr;
 159:src/buddyAllocator.cpp ****         curr = curr->next;
 160:src/buddyAllocator.cpp ****     }
 161:src/buddyAllocator.cpp **** 
 162:src/buddyAllocator.cpp ****     addBlockToLevel(buddy, addr, level);
 163:src/buddyAllocator.cpp **** }
 164:src/buddyAllocator.cpp **** 
 165:src/buddyAllocator.cpp **** //adds free block to level
 166:src/buddyAllocator.cpp **** void addBlockToLevel(buddyAllocator* buddy, void* addr, size_t level)
 167:src/buddyAllocator.cpp **** {
 177              		.loc 1 167 1 is_stmt 1
 178              		.cfi_startproc
 179              	.LVL18:
GAS LISTING /tmp/ccSU3S2v.s 			page 7


 180 00b8 130101FF 		addi	sp,sp,-16
 181              		.cfi_def_cfa_offset 16
 182 00bc 23348100 		sd	s0,8(sp)
 183              		.cfi_offset 8, -8
 184 00c0 13040101 		addi	s0,sp,16
 185              		.cfi_def_cfa 8, 0
 168:src/buddyAllocator.cpp ****     buddyBlock* newBlock = (buddyBlock*)addr;
 186              		.loc 1 168 5
 187              	.LVL19:
 169:src/buddyAllocator.cpp ****     newBlock->next = nullptr;
 188              		.loc 1 169 5
 189              		.loc 1 169 20 is_stmt 0
 190 00c4 23B00500 		sd	zero,0(a1)
 170:src/buddyAllocator.cpp ****     if(buddy->bucket[level].first == nullptr)
 191              		.loc 1 170 5 is_stmt 1
 192              		.loc 1 170 29 is_stmt 0
 193 00c8 93072600 		addi	a5,a2,2
 194 00cc 93974700 		slli	a5,a5,4
 195 00d0 B307F500 		add	a5,a0,a5
 196 00d4 83B70700 		ld	a5,0(a5)
 197              		.loc 1 170 5
 198 00d8 63840702 		beqz	a5,.L17
 171:src/buddyAllocator.cpp ****     {
 172:src/buddyAllocator.cpp ****         buddy->bucket[level].first = buddy->bucket[level].last = newBlock;
 173:src/buddyAllocator.cpp ****     }
 174:src/buddyAllocator.cpp ****     else
 175:src/buddyAllocator.cpp ****     {
 176:src/buddyAllocator.cpp ****         buddy->bucket[level].last->next = newBlock;
 199              		.loc 1 176 9 is_stmt 1
 200              		.loc 1 176 30 is_stmt 0
 201 00dc 13062600 		addi	a2,a2,2
 202              	.LVL20:
 203 00e0 13164600 		slli	a2,a2,4
 204              	.LVL21:
 205 00e4 3306C500 		add	a2,a0,a2
 206 00e8 83378600 		ld	a5,8(a2)
 207              		.loc 1 176 41
 208 00ec 23B0B700 		sd	a1,0(a5)
 177:src/buddyAllocator.cpp ****         buddy->bucket[level].last = newBlock;
 209              		.loc 1 177 9 is_stmt 1
 210              		.loc 1 177 35 is_stmt 0
 211 00f0 2334B600 		sd	a1,8(a2)
 212              	.L13:
 178:src/buddyAllocator.cpp ****     }
 179:src/buddyAllocator.cpp **** }
 213              		.loc 1 179 1
 214 00f4 03348100 		ld	s0,8(sp)
 215              		.cfi_remember_state
 216              		.cfi_restore 8
 217              		.cfi_def_cfa 2, 16
 218 00f8 13010101 		addi	sp,sp,16
 219              		.cfi_def_cfa_offset 0
 220 00fc 67800000 		jr	ra
 221              	.LVL22:
 222              	.L17:
 223              		.cfi_restore_state
 172:src/buddyAllocator.cpp ****     }
GAS LISTING /tmp/ccSU3S2v.s 			page 8


 224              		.loc 1 172 9 is_stmt 1
 172:src/buddyAllocator.cpp ****     }
 225              		.loc 1 172 64 is_stmt 0
 226 0100 13062600 		addi	a2,a2,2
 227              	.LVL23:
 228 0104 13164600 		slli	a2,a2,4
 229              	.LVL24:
 230 0108 3306C500 		add	a2,a0,a2
 231 010c 2334B600 		sd	a1,8(a2)
 172:src/buddyAllocator.cpp ****     }
 232              		.loc 1 172 36
 233 0110 2330B600 		sd	a1,0(a2)
 234 0114 6FF01FFE 		j	.L13
 235              		.cfi_endproc
 236              	.LFE14:
 238              		.align	2
 239              		.globl	_Z17getBuddyBlockAddrP14buddyAllocatorPvm
 241              	_Z17getBuddyBlockAddrP14buddyAllocatorPvm:
 242              	.LFB15:
 180:src/buddyAllocator.cpp **** 
 181:src/buddyAllocator.cpp **** size_t getBuddyBlockAddr(buddyAllocator* buddy, void* addr, size_t level)
 182:src/buddyAllocator.cpp **** {
 243              		.loc 1 182 1 is_stmt 1
 244              		.cfi_startproc
 245              	.LVL25:
 246 0118 130101FF 		addi	sp,sp,-16
 247              		.cfi_def_cfa_offset 16
 248 011c 23348100 		sd	s0,8(sp)
 249              		.cfi_offset 8, -8
 250 0120 13040101 		addi	s0,sp,16
 251              		.cfi_def_cfa 8, 0
 183:src/buddyAllocator.cpp ****     size_t diff = BLOCK_SIZE << level;
 252              		.loc 1 183 5
 253              		.loc 1 183 30 is_stmt 0
 254 0124 B7170000 		li	a5,4096
 255 0128 3B96C700 		sllw	a2,a5,a2
 256              	.LVL26:
 184:src/buddyAllocator.cpp ****     size_t off = (size_t)addr - (size_t)buddy->startAddr;
 257              		.loc 1 184 5 is_stmt 1
 258              		.loc 1 184 48 is_stmt 0
 259 012c 83378500 		ld	a5,8(a0)
 260              		.loc 1 184 12
 261 0130 B387F540 		sub	a5,a1,a5
 262              	.LVL27:
 185:src/buddyAllocator.cpp ****     if(diff & off)
 263              		.loc 1 185 5 is_stmt 1
 264              		.loc 1 185 13 is_stmt 0
 265 0134 B377F600 		and	a5,a2,a5
 266              	.LVL28:
 267              		.loc 1 185 5
 268 0138 638A0700 		beqz	a5,.L19
 186:src/buddyAllocator.cpp ****         return (size_t)addr - diff;
 269              		.loc 1 186 9 is_stmt 1
 270              		.loc 1 186 31 is_stmt 0
 271 013c 3385C540 		sub	a0,a1,a2
 272              	.LVL29:
 273              	.L18:
GAS LISTING /tmp/ccSU3S2v.s 			page 9


 187:src/buddyAllocator.cpp ****     else
 188:src/buddyAllocator.cpp ****         return (size_t)addr + diff;
 189:src/buddyAllocator.cpp **** }
 274              		.loc 1 189 1
 275 0140 03348100 		ld	s0,8(sp)
 276              		.cfi_remember_state
 277              		.cfi_restore 8
 278              		.cfi_def_cfa 2, 16
 279 0144 13010101 		addi	sp,sp,16
 280              		.cfi_def_cfa_offset 0
 281 0148 67800000 		jr	ra
 282              	.LVL30:
 283              	.L19:
 284              		.cfi_restore_state
 188:src/buddyAllocator.cpp **** }
 285              		.loc 1 188 9 is_stmt 1
 188:src/buddyAllocator.cpp **** }
 286              		.loc 1 188 31 is_stmt 0
 287 014c 3385C500 		add	a0,a1,a2
 288              	.LVL31:
 289 0150 6FF01FFF 		j	.L18
 290              		.cfi_endproc
 291              	.LFE15:
 293              		.align	2
 294              		.globl	_Z5splitP14buddyAllocatorPvmmb
 296              	_Z5splitP14buddyAllocatorPvmmb:
 297              	.LFB7:
  61:src/buddyAllocator.cpp ****     if(!splitMore)
 298              		.loc 1 61 1 is_stmt 1
 299              		.cfi_startproc
 300              	.LVL32:
 301 0154 130101FD 		addi	sp,sp,-48
 302              		.cfi_def_cfa_offset 48
 303 0158 23341102 		sd	ra,40(sp)
 304 015c 23308102 		sd	s0,32(sp)
 305 0160 233C9100 		sd	s1,24(sp)
 306 0164 23382101 		sd	s2,16(sp)
 307 0168 23343101 		sd	s3,8(sp)
 308 016c 23304101 		sd	s4,0(sp)
 309              		.cfi_offset 1, -8
 310              		.cfi_offset 8, -16
 311              		.cfi_offset 9, -24
 312              		.cfi_offset 18, -32
 313              		.cfi_offset 19, -40
 314              		.cfi_offset 20, -48
 315 0170 13040103 		addi	s0,sp,48
 316              		.cfi_def_cfa 8, 0
 317 0174 13090500 		mv	s2,a0
 318 0178 138A0500 		mv	s4,a1
  62:src/buddyAllocator.cpp ****     {
 319              		.loc 1 62 5
 320              	.LBB2:
 321 017c 630A0706 		beqz	a4,.L26
 322 0180 93090600 		mv	s3,a2
 323              	.LBB3:
  68:src/buddyAllocator.cpp ****             return;
 324              		.loc 1 68 9
GAS LISTING /tmp/ccSU3S2v.s 			page 10


 325 0184 6386C604 		beq	a3,a2,.L22
  70:src/buddyAllocator.cpp ****         split(buddy, (void*)buddyBlock, finalLevel, currLevel - 1, false); // continue splitting
 326              		.loc 1 70 9
  70:src/buddyAllocator.cpp ****         split(buddy, (void*)buddyBlock, finalLevel, currLevel - 1, false); // continue splitting
 327              		.loc 1 70 46 is_stmt 0
 328 0188 9384F6FF 		addi	s1,a3,-1
 329 018c 13860400 		mv	a2,s1
 330              	.LVL33:
 331 0190 97000000 		call	_Z17getBuddyBlockAddrP14buddyAllocatorPvm
 331      E7800000 
 332              	.LVL34:
 333 0198 93050500 		mv	a1,a0
 334              	.LVL35:
  71:src/buddyAllocator.cpp ****         split(buddy, addr, finalLevel, currLevel - 1, true); // continue splitting
 335              		.loc 1 71 9 is_stmt 1
  71:src/buddyAllocator.cpp ****         split(buddy, addr, finalLevel, currLevel - 1, true); // continue splitting
 336              		.loc 1 71 14 is_stmt 0
 337 019c 13070000 		li	a4,0
 338 01a0 93860400 		mv	a3,s1
 339 01a4 13860900 		mv	a2,s3
 340 01a8 13050900 		mv	a0,s2
 341              	.LVL36:
 342 01ac 97000000 		call	_Z5splitP14buddyAllocatorPvmmb
 342      E7800000 
 343              	.LVL37:
  72:src/buddyAllocator.cpp ****     }
 344              		.loc 1 72 9 is_stmt 1
  72:src/buddyAllocator.cpp ****     }
 345              		.loc 1 72 14 is_stmt 0
 346 01b4 13071000 		li	a4,1
 347 01b8 93860400 		mv	a3,s1
 348 01bc 13860900 		mv	a2,s3
 349 01c0 93050A00 		mv	a1,s4
 350 01c4 13050900 		mv	a0,s2
 351 01c8 97000000 		call	_Z5splitP14buddyAllocatorPvmmb
 351      E7800000 
 352              	.LVL38:
 353              	.L22:
 354              	.LBE3:
 355              	.LBE2:
  74:src/buddyAllocator.cpp **** 
 356              		.loc 1 74 1
 357 01d0 83308102 		ld	ra,40(sp)
 358              		.cfi_remember_state
 359              		.cfi_restore 1
 360 01d4 03340102 		ld	s0,32(sp)
 361              		.cfi_restore 8
 362              		.cfi_def_cfa 2, 48
 363 01d8 83348101 		ld	s1,24(sp)
 364              		.cfi_restore 9
 365 01dc 03390101 		ld	s2,16(sp)
 366              		.cfi_restore 18
 367              	.LVL39:
 368 01e0 83398100 		ld	s3,8(sp)
 369              		.cfi_restore 19
 370 01e4 033A0100 		ld	s4,0(sp)
 371              		.cfi_restore 20
GAS LISTING /tmp/ccSU3S2v.s 			page 11


 372              	.LVL40:
 373 01e8 13010103 		addi	sp,sp,48
 374              		.cfi_def_cfa_offset 0
 375 01ec 67800000 		jr	ra
 376              	.LVL41:
 377              	.L26:
 378              		.cfi_restore_state
 379              	.LBB4:
  64:src/buddyAllocator.cpp ****     }
 380              		.loc 1 64 9 is_stmt 1
  64:src/buddyAllocator.cpp ****     }
 381              		.loc 1 64 24 is_stmt 0
 382 01f0 13860600 		mv	a2,a3
 383              	.LVL42:
 384 01f4 97000000 		call	_Z15addBlockToLevelP14buddyAllocatorPvm
 384      E7800000 
 385              	.LVL43:
 386 01fc 6FF05FFD 		j	.L22
 387              	.LBE4:
 388              		.cfi_endproc
 389              	.LFE7:
 391              		.align	2
 392              		.globl	_Z11buddy_allocP14buddyAllocatorm
 394              	_Z11buddy_allocP14buddyAllocatorm:
 395              	.LFB6:
  38:src/buddyAllocator.cpp ****     //KConsole::trapPrintStringInt("Buddy allocation: ", numOfBlocks);
 396              		.loc 1 38 1 is_stmt 1
 397              		.cfi_startproc
 398              	.LVL44:
 399 0200 130101FE 		addi	sp,sp,-32
 400              		.cfi_def_cfa_offset 32
 401 0204 233C1100 		sd	ra,24(sp)
 402 0208 23388100 		sd	s0,16(sp)
 403 020c 23349100 		sd	s1,8(sp)
 404 0210 23302101 		sd	s2,0(sp)
 405              		.cfi_offset 1, -8
 406              		.cfi_offset 8, -16
 407              		.cfi_offset 9, -24
 408              		.cfi_offset 18, -32
 409 0214 13040102 		addi	s0,sp,32
 410              		.cfi_def_cfa 8, 0
 411 0218 93040500 		mv	s1,a0
  40:src/buddyAllocator.cpp ****     //KConsole::trapPrintStringInt("Level: ", level);
 412              		.loc 1 40 5
  40:src/buddyAllocator.cpp ****     //KConsole::trapPrintStringInt("Level: ", level);
 413              		.loc 1 40 31 is_stmt 0
 414 021c 13850500 		mv	a0,a1
 415              	.LVL45:
 416 0220 97000000 		call	_Z11getDeg2Ceilm
 416      E7800000 
 417              	.LVL46:
  42:src/buddyAllocator.cpp ****     {
 418              		.loc 1 42 5 is_stmt 1
 419              	.LBB5:
  42:src/buddyAllocator.cpp ****     {
 420              		.loc 1 42 16 is_stmt 0
 421 0228 93060500 		mv	a3,a0
GAS LISTING /tmp/ccSU3S2v.s 			page 12


 422              	.LVL47:
 423              	.L31:
  42:src/buddyAllocator.cpp ****     {
 424              		.loc 1 42 29 is_stmt 1 discriminator 1
  42:src/buddyAllocator.cpp ****     {
 425              		.loc 1 42 39 is_stmt 0 discriminator 1
 426 022c 83B78401 		ld	a5,24(s1)
  42:src/buddyAllocator.cpp ****     {
 427              		.loc 1 42 29 discriminator 1
 428 0230 63E4D706 		bltu	a5,a3,.L32
 429              	.LBE5:
  44:src/buddyAllocator.cpp ****         {
 430              		.loc 1 44 9 is_stmt 1
 431              	.LBB9:
 432              	.LBB6:
  44:src/buddyAllocator.cpp ****         {
 433              		.loc 1 44 29 is_stmt 0
 434 0234 93872600 		addi	a5,a3,2
 435 0238 93974700 		slli	a5,a5,4
 436 023c B387F400 		add	a5,s1,a5
 437 0240 03B90700 		ld	s2,0(a5)
  44:src/buddyAllocator.cpp ****         {
 438              		.loc 1 44 9
 439 0244 63160900 		bnez	s2,.L34
 440              	.LBE6:
  42:src/buddyAllocator.cpp ****     {
 441              		.loc 1 42 5 is_stmt 1 discriminator 2
 442 0248 93861600 		addi	a3,a3,1
 443              	.LVL48:
 444 024c 6FF01FFE 		j	.L31
 445              	.L34:
 446              	.LBB8:
 447              	.LBB7:
  46:src/buddyAllocator.cpp ****             //KConsole::trapPrintStringInt("Found the block:", (size_t)ret,16);
 448              		.loc 1 46 13
 449              	.LVL49:
  48:src/buddyAllocator.cpp ****             if(buddy->bucket[i].first == nullptr)
 450              		.loc 1 48 13
  48:src/buddyAllocator.cpp ****             if(buddy->bucket[i].first == nullptr)
 451              		.loc 1 48 43 is_stmt 0
 452 0250 03370900 		ld	a4,0(s2)
  48:src/buddyAllocator.cpp ****             if(buddy->bucket[i].first == nullptr)
 453              		.loc 1 48 36
 454 0254 93872600 		addi	a5,a3,2
 455 0258 93974700 		slli	a5,a5,4
 456 025c B387F400 		add	a5,s1,a5
 457 0260 23B0E700 		sd	a4,0(a5)
  49:src/buddyAllocator.cpp ****                 buddy->bucket[i].last = nullptr;
 458              		.loc 1 49 13 is_stmt 1
 459 0264 63000702 		beqz	a4,.L35
 460              	.L30:
  51:src/buddyAllocator.cpp ****             return ret;
 461              		.loc 1 51 13
  51:src/buddyAllocator.cpp ****             return ret;
 462              		.loc 1 51 18 is_stmt 0
 463 0268 13071000 		li	a4,1
 464 026c 13060500 		mv	a2,a0
GAS LISTING /tmp/ccSU3S2v.s 			page 13


 465 0270 93050900 		mv	a1,s2
 466 0274 13850400 		mv	a0,s1
 467              	.LVL50:
 468 0278 97000000 		call	_Z5splitP14buddyAllocatorPvmmb
 468      E7800000 
 469              	.LVL51:
  52:src/buddyAllocator.cpp ****         }
 470              		.loc 1 52 13 is_stmt 1
  52:src/buddyAllocator.cpp ****         }
 471              		.loc 1 52 20 is_stmt 0
 472 0280 6F00C001 		j	.L27
 473              	.LVL52:
 474              	.L35:
  50:src/buddyAllocator.cpp ****             split(buddy, (void*)ret, level, i, true);
 475              		.loc 1 50 17 is_stmt 1
  50:src/buddyAllocator.cpp ****             split(buddy, (void*)ret, level, i, true);
 476              		.loc 1 50 39 is_stmt 0
 477 0284 93872600 		addi	a5,a3,2
 478 0288 93974700 		slli	a5,a5,4
 479 028c B387F400 		add	a5,s1,a5
 480 0290 23B40700 		sd	zero,8(a5)
 481 0294 6FF05FFD 		j	.L30
 482              	.LVL53:
 483              	.L32:
 484              	.LBE7:
 485              	.LBE8:
 486              	.LBE9:
  56:src/buddyAllocator.cpp **** }
 487              		.loc 1 56 12
 488 0298 13090000 		li	s2,0
 489              	.LVL54:
 490              	.L27:
  57:src/buddyAllocator.cpp **** 
 491              		.loc 1 57 1
 492 029c 13050900 		mv	a0,s2
 493 02a0 83308101 		ld	ra,24(sp)
 494              		.cfi_restore 1
 495 02a4 03340101 		ld	s0,16(sp)
 496              		.cfi_restore 8
 497              		.cfi_def_cfa 2, 32
 498 02a8 83348100 		ld	s1,8(sp)
 499              		.cfi_restore 9
 500              	.LVL55:
 501 02ac 03390100 		ld	s2,0(sp)
 502              		.cfi_restore 18
 503 02b0 13010102 		addi	sp,sp,32
 504              		.cfi_def_cfa_offset 0
 505 02b4 67800000 		jr	ra
 506              		.cfi_endproc
 507              	.LFE6:
 509              		.align	2
 510              		.globl	_Z9addBlocksP14buddyAllocatorPvm
 512              	_Z9addBlocksP14buddyAllocatorPvm:
 513              	.LFB13:
 125:src/buddyAllocator.cpp ****     if(level == buddy->maxLevel)
 514              		.loc 1 125 1 is_stmt 1
 515              		.cfi_startproc
GAS LISTING /tmp/ccSU3S2v.s 			page 14


 516              	.LVL56:
 517 02b8 130101FD 		addi	sp,sp,-48
 518              		.cfi_def_cfa_offset 48
 519 02bc 23341102 		sd	ra,40(sp)
 520 02c0 23308102 		sd	s0,32(sp)
 521 02c4 233C9100 		sd	s1,24(sp)
 522 02c8 23382101 		sd	s2,16(sp)
 523 02cc 23343101 		sd	s3,8(sp)
 524              		.cfi_offset 1, -8
 525              		.cfi_offset 8, -16
 526              		.cfi_offset 9, -24
 527              		.cfi_offset 18, -32
 528              		.cfi_offset 19, -40
 529 02d0 13040103 		addi	s0,sp,48
 530              		.cfi_def_cfa 8, 0
 531 02d4 93040500 		mv	s1,a0
 532 02d8 93890500 		mv	s3,a1
 533 02dc 13090600 		mv	s2,a2
 126:src/buddyAllocator.cpp ****     {
 534              		.loc 1 126 5
 126:src/buddyAllocator.cpp ****     {
 535              		.loc 1 126 24 is_stmt 0
 536 02e0 83378501 		ld	a5,24(a0)
 126:src/buddyAllocator.cpp ****     {
 537              		.loc 1 126 5
 538 02e4 638AC702 		beq	a5,a2,.L48
 131:src/buddyAllocator.cpp ****     //KConsole::trapPrintString("Buddy block addr ");
 539              		.loc 1 131 5 is_stmt 1
 131:src/buddyAllocator.cpp ****     //KConsole::trapPrintString("Buddy block addr ");
 540              		.loc 1 131 46 is_stmt 0
 541 02e8 97000000 		call	_Z17getBuddyBlockAddrP14buddyAllocatorPvm
 541      E7800000 
 542              	.LVL57:
 134:src/buddyAllocator.cpp ****     buddyBlock* prev = nullptr;
 543              		.loc 1 134 5 is_stmt 1
 134:src/buddyAllocator.cpp ****     buddyBlock* prev = nullptr;
 544              		.loc 1 134 17 is_stmt 0
 545 02f0 93072900 		addi	a5,s2,2
 546 02f4 93974700 		slli	a5,a5,4
 547 02f8 B387F400 		add	a5,s1,a5
 548 02fc 83B70700 		ld	a5,0(a5)
 549              	.LVL58:
 135:src/buddyAllocator.cpp ****     while(curr != nullptr)
 550              		.loc 1 135 5 is_stmt 1
 135:src/buddyAllocator.cpp ****     while(curr != nullptr)
 551              		.loc 1 135 17 is_stmt 0
 552 0300 13070000 		li	a4,0
 553              	.LVL59:
 554              	.L46:
 136:src/buddyAllocator.cpp ****     {
 555              		.loc 1 136 5 is_stmt 1
 136:src/buddyAllocator.cpp ****     {
 556              		.loc 1 136 16
 557 0304 638E070A 		beqz	a5,.L39
 138:src/buddyAllocator.cpp ****         {
 558              		.loc 1 138 9
 559 0308 638EA700 		beq	a5,a0,.L49
GAS LISTING /tmp/ccSU3S2v.s 			page 15


 158:src/buddyAllocator.cpp ****         curr = curr->next;
 560              		.loc 1 158 9
 561              	.LVL60:
 159:src/buddyAllocator.cpp ****     }
 562              		.loc 1 159 9
 158:src/buddyAllocator.cpp ****         curr = curr->next;
 563              		.loc 1 158 14 is_stmt 0
 564 030c 13870700 		mv	a4,a5
 159:src/buddyAllocator.cpp ****     }
 565              		.loc 1 159 14
 566 0310 83B70700 		ld	a5,0(a5)
 567              	.LVL61:
 136:src/buddyAllocator.cpp ****     {
 568              		.loc 1 136 5
 569 0314 6FF01FFF 		j	.L46
 570              	.LVL62:
 571              	.L48:
 128:src/buddyAllocator.cpp ****         return;
 572              		.loc 1 128 9 is_stmt 1
 128:src/buddyAllocator.cpp ****         return;
 573              		.loc 1 128 24 is_stmt 0
 574 0318 97000000 		call	_Z15addBlockToLevelP14buddyAllocatorPvm
 574      E7800000 
 575              	.LVL63:
 129:src/buddyAllocator.cpp ****     }
 576              		.loc 1 129 9 is_stmt 1
 577 0320 6F00400B 		j	.L36
 578              	.LVL64:
 579              	.L49:
 140:src/buddyAllocator.cpp ****             {
 580              		.loc 1 140 13
 581 0324 63080704 		beqz	a4,.L41
 142:src/buddyAllocator.cpp ****                 if(curr == buddy->bucket[level].last)
 582              		.loc 1 142 17
 142:src/buddyAllocator.cpp ****                 if(curr == buddy->bucket[level].last)
 583              		.loc 1 142 36 is_stmt 0
 584 0328 83B60700 		ld	a3,0(a5)
 142:src/buddyAllocator.cpp ****                 if(curr == buddy->bucket[level].last)
 585              		.loc 1 142 28
 586 032c 2330D700 		sd	a3,0(a4)
 143:src/buddyAllocator.cpp ****                     buddy->bucket[level].last = prev;
 587              		.loc 1 143 17 is_stmt 1
 143:src/buddyAllocator.cpp ****                     buddy->bucket[level].last = prev;
 588              		.loc 1 143 49 is_stmt 0
 589 0330 93062900 		addi	a3,s2,2
 590 0334 93964600 		slli	a3,a3,4
 591 0338 B386D400 		add	a3,s1,a3
 592 033c 83B68600 		ld	a3,8(a3)
 143:src/buddyAllocator.cpp ****                     buddy->bucket[level].last = prev;
 593              		.loc 1 143 17
 594 0340 6380F602 		beq	a3,a5,.L50
 595              	.LVL65:
 596              	.L42:
 153:src/buddyAllocator.cpp ****             else addBlocks(buddy, (void*)buddyBlockAddr, level + 1); //merge two chunks
 597              		.loc 1 153 13 is_stmt 1
 598 0344 63F2A906 		bgeu	s3,a0,.L44
 153:src/buddyAllocator.cpp ****             else addBlocks(buddy, (void*)buddyBlockAddr, level + 1); //merge two chunks
GAS LISTING /tmp/ccSU3S2v.s 			page 16


 599              		.loc 1 153 47 discriminator 1
 153:src/buddyAllocator.cpp ****             else addBlocks(buddy, (void*)buddyBlockAddr, level + 1); //merge two chunks
 600              		.loc 1 153 56 is_stmt 0 discriminator 1
 601 0348 13061900 		addi	a2,s2,1
 602 034c 93850900 		mv	a1,s3
 603 0350 13850400 		mv	a0,s1
 604              	.LVL66:
 605 0354 97000000 		call	_Z9addBlocksP14buddyAllocatorPvm
 605      E7800000 
 606              	.LVL67:
 607 035c 6F008007 		j	.L36
 608              	.LVL68:
 609              	.L50:
 144:src/buddyAllocator.cpp ****             }
 610              		.loc 1 144 21 is_stmt 1
 144:src/buddyAllocator.cpp ****             }
 611              		.loc 1 144 47 is_stmt 0
 612 0360 93072900 		addi	a5,s2,2
 613              	.LVL69:
 614 0364 93974700 		slli	a5,a5,4
 615 0368 B387F400 		add	a5,s1,a5
 616 036c 23B4E700 		sd	a4,8(a5)
 617 0370 6FF05FFD 		j	.L42
 618              	.LVL70:
 619              	.L41:
 148:src/buddyAllocator.cpp ****                     buddy->bucket[level].first = buddy->bucket[level].last = nullptr;
 620              		.loc 1 148 17 is_stmt 1
 148:src/buddyAllocator.cpp ****                     buddy->bucket[level].first = buddy->bucket[level].last = nullptr;
 621              		.loc 1 148 26 is_stmt 0
 622 0374 03B70700 		ld	a4,0(a5)
 623              	.LVL71:
 148:src/buddyAllocator.cpp ****                     buddy->bucket[level].first = buddy->bucket[level].last = nullptr;
 624              		.loc 1 148 17
 625 0378 630C0700 		beqz	a4,.L51
 151:src/buddyAllocator.cpp ****             }
 626              		.loc 1 151 21 is_stmt 1
 151:src/buddyAllocator.cpp ****             }
 627              		.loc 1 151 48 is_stmt 0
 628 037c 93072900 		addi	a5,s2,2
 629              	.LVL72:
 630 0380 93974700 		slli	a5,a5,4
 631 0384 B387F400 		add	a5,s1,a5
 632 0388 23B0E700 		sd	a4,0(a5)
 633 038c 6FF09FFB 		j	.L42
 634              	.LVL73:
 635              	.L51:
 149:src/buddyAllocator.cpp ****                 else
 636              		.loc 1 149 21 is_stmt 1
 149:src/buddyAllocator.cpp ****                 else
 637              		.loc 1 149 76 is_stmt 0
 638 0390 93072900 		addi	a5,s2,2
 639              	.LVL74:
 640 0394 93974700 		slli	a5,a5,4
 641 0398 B387F400 		add	a5,s1,a5
 642 039c 23B40700 		sd	zero,8(a5)
 149:src/buddyAllocator.cpp ****                 else
 643              		.loc 1 149 48
GAS LISTING /tmp/ccSU3S2v.s 			page 17


 644 03a0 23B00700 		sd	zero,0(a5)
 645 03a4 6FF01FFA 		j	.L42
 646              	.L44:
 154:src/buddyAllocator.cpp ****             return;
 647              		.loc 1 154 18 is_stmt 1
 154:src/buddyAllocator.cpp ****             return;
 648              		.loc 1 154 27 is_stmt 0
 649 03a8 13061900 		addi	a2,s2,1
 650 03ac 93050500 		mv	a1,a0
 651 03b0 13850400 		mv	a0,s1
 652              	.LVL75:
 653 03b4 97000000 		call	_Z9addBlocksP14buddyAllocatorPvm
 653      E7800000 
 654              	.LVL76:
 155:src/buddyAllocator.cpp ****         }
 655              		.loc 1 155 13 is_stmt 1
 656 03bc 6F008001 		j	.L36
 657              	.LVL77:
 658              	.L39:
 162:src/buddyAllocator.cpp **** }
 659              		.loc 1 162 5
 162:src/buddyAllocator.cpp **** }
 660              		.loc 1 162 20 is_stmt 0
 661 03c0 13060900 		mv	a2,s2
 662 03c4 93850900 		mv	a1,s3
 663 03c8 13850400 		mv	a0,s1
 664              	.LVL78:
 665 03cc 97000000 		call	_Z15addBlockToLevelP14buddyAllocatorPvm
 665      E7800000 
 666              	.LVL79:
 667              	.L36:
 163:src/buddyAllocator.cpp **** 
 668              		.loc 1 163 1
 669 03d4 83308102 		ld	ra,40(sp)
 670              		.cfi_restore 1
 671 03d8 03340102 		ld	s0,32(sp)
 672              		.cfi_restore 8
 673              		.cfi_def_cfa 2, 48
 674 03dc 83348101 		ld	s1,24(sp)
 675              		.cfi_restore 9
 676              	.LVL80:
 677 03e0 03390101 		ld	s2,16(sp)
 678              		.cfi_restore 18
 679              	.LVL81:
 680 03e4 83398100 		ld	s3,8(sp)
 681              		.cfi_restore 19
 682              	.LVL82:
 683 03e8 13010103 		addi	sp,sp,48
 684              		.cfi_def_cfa_offset 0
 685 03ec 67800000 		jr	ra
 686              		.cfi_endproc
 687              	.LFE13:
 689              		.align	2
 690              		.globl	_Z10buddy_initPvm
 692              	_Z10buddy_initPvm:
 693              	.LFB5:
   7:src/buddyAllocator.cpp ****     //KConsole::trapPrintString("Buddy initialization\n");
GAS LISTING /tmp/ccSU3S2v.s 			page 18


 694              		.loc 1 7 1 is_stmt 1
 695              		.cfi_startproc
 696              	.LVL83:
 697 03f0 130101FD 		addi	sp,sp,-48
 698              		.cfi_def_cfa_offset 48
 699 03f4 23341102 		sd	ra,40(sp)
 700 03f8 23308102 		sd	s0,32(sp)
 701 03fc 233C9100 		sd	s1,24(sp)
 702 0400 23382101 		sd	s2,16(sp)
 703 0404 23343101 		sd	s3,8(sp)
 704              		.cfi_offset 1, -8
 705              		.cfi_offset 8, -16
 706              		.cfi_offset 9, -24
 707              		.cfi_offset 18, -32
 708              		.cfi_offset 19, -40
 709 0408 13040103 		addi	s0,sp,48
 710              		.cfi_def_cfa 8, 0
 711 040c 93890500 		mv	s3,a1
   9:src/buddyAllocator.cpp ****     size_t buddyAddr = (size_t)addr;
 712              		.loc 1 9 5
   9:src/buddyAllocator.cpp ****     size_t buddyAddr = (size_t)addr;
 713              		.loc 1 9 36 is_stmt 0
 714 0410 93040500 		mv	s1,a0
 715 0414 97000000 		call	_Z12getBlockAddrm
 715      E7800000 
 716              	.LVL84:
  10:src/buddyAllocator.cpp ****     //KConsole::trapPrintInt(blockAddr,16); KConsole::trapPrintString("\n");
 717              		.loc 1 10 5 is_stmt 1
  13:src/buddyAllocator.cpp ****     {
 718              		.loc 1 13 5
 719 041c 638AA400 		beq	s1,a0,.L53
  15:src/buddyAllocator.cpp ****         numOfBlocks--; //have to discard one block
 720              		.loc 1 15 9
  15:src/buddyAllocator.cpp ****         numOfBlocks--; //have to discard one block
 721              		.loc 1 15 37 is_stmt 0
 722 0420 97000000 		call	_Z16getNextBlockAddrm
 722      E7800000 
 723              	.LVL85:
 724 0428 93040500 		mv	s1,a0
 725              	.LVL86:
  16:src/buddyAllocator.cpp ****     }
 726              		.loc 1 16 9 is_stmt 1
  16:src/buddyAllocator.cpp ****     }
 727              		.loc 1 16 20 is_stmt 0
 728 042c 9389F9FF 		addi	s3,s3,-1
 729              	.LVL87:
 730              	.L53:
  19:src/buddyAllocator.cpp ****     buddyAllocator* buddy = (buddyAllocator*)buddyAddr;
 731              		.loc 1 19 5 is_stmt 1
  19:src/buddyAllocator.cpp ****     buddyAllocator* buddy = (buddyAllocator*)buddyAddr;
 732              		.loc 1 19 16 is_stmt 0
 733 0430 9389F9FF 		addi	s3,s3,-1
 734              	.LVL88:
  20:src/buddyAllocator.cpp ****     buddy->startAddr = (void*)getNextBlockAddr(buddyAddr);
 735              		.loc 1 20 5 is_stmt 1
  20:src/buddyAllocator.cpp ****     buddy->startAddr = (void*)getNextBlockAddr(buddyAddr);
 736              		.loc 1 20 21 is_stmt 0
GAS LISTING /tmp/ccSU3S2v.s 			page 19


 737 0434 13890400 		mv	s2,s1
 738              	.LVL89:
  21:src/buddyAllocator.cpp ****     buddy->numOfBlocks = numOfBlocks;
 739              		.loc 1 21 5 is_stmt 1
  21:src/buddyAllocator.cpp ****     buddy->numOfBlocks = numOfBlocks;
 740              		.loc 1 21 47 is_stmt 0
 741 0438 13850400 		mv	a0,s1
 742 043c 97000000 		call	_Z16getNextBlockAddrm
 742      E7800000 
 743              	.LVL90:
  21:src/buddyAllocator.cpp ****     buddy->numOfBlocks = numOfBlocks;
 744              		.loc 1 21 22
 745 0444 23B4A400 		sd	a0,8(s1)
  22:src/buddyAllocator.cpp ****     buddy->numOfFreeBlocks = numOfBlocks;
 746              		.loc 1 22 5 is_stmt 1
  22:src/buddyAllocator.cpp ****     buddy->numOfFreeBlocks = numOfBlocks;
 747              		.loc 1 22 24 is_stmt 0
 748 0448 23B03401 		sd	s3,0(s1)
  23:src/buddyAllocator.cpp ****     buddy->maxLevel = getDeg2Floor(numOfBlocks);
 749              		.loc 1 23 5 is_stmt 1
  23:src/buddyAllocator.cpp ****     buddy->maxLevel = getDeg2Floor(numOfBlocks);
 750              		.loc 1 23 28 is_stmt 0
 751 044c 23B83401 		sd	s3,16(s1)
  24:src/buddyAllocator.cpp **** 
 752              		.loc 1 24 5 is_stmt 1
  24:src/buddyAllocator.cpp **** 
 753              		.loc 1 24 35 is_stmt 0
 754 0450 13850900 		mv	a0,s3
 755 0454 97000000 		call	_Z12getDeg2Floorm
 755      E7800000 
 756              	.LVL91:
  24:src/buddyAllocator.cpp **** 
 757              		.loc 1 24 21
 758 045c 23BCA400 		sd	a0,24(s1)
  26:src/buddyAllocator.cpp ****         buddy->bucket[i].first = buddy->bucket[i].last = nullptr;
 759              		.loc 1 26 5 is_stmt 1
 760              	.LVL92:
 761              	.LBB10:
  26:src/buddyAllocator.cpp ****         buddy->bucket[i].first = buddy->bucket[i].last = nullptr;
 762              		.loc 1 26 16 is_stmt 0
 763 0460 13070000 		li	a4,0
 764              	.LVL93:
 765              	.L55:
  26:src/buddyAllocator.cpp ****         buddy->bucket[i].first = buddy->bucket[i].last = nullptr;
 766              		.loc 1 26 25 is_stmt 1 discriminator 3
 767 0464 6360E502 		bltu	a0,a4,.L57
  27:src/buddyAllocator.cpp **** 
 768              		.loc 1 27 9 discriminator 2
  27:src/buddyAllocator.cpp **** 
 769              		.loc 1 27 56 is_stmt 0 discriminator 2
 770 0468 93072700 		addi	a5,a4,2
 771 046c 93974700 		slli	a5,a5,4
 772 0470 B307F900 		add	a5,s2,a5
 773 0474 23B40700 		sd	zero,8(a5)
  27:src/buddyAllocator.cpp **** 
 774              		.loc 1 27 32 discriminator 2
 775 0478 23B00700 		sd	zero,0(a5)
GAS LISTING /tmp/ccSU3S2v.s 			page 20


  26:src/buddyAllocator.cpp ****         buddy->bucket[i].first = buddy->bucket[i].last = nullptr;
 776              		.loc 1 26 5 is_stmt 1 discriminator 2
 777 047c 13071700 		addi	a4,a4,1
 778              	.LVL94:
 779 0480 6FF05FFE 		j	.L55
 780              	.L57:
 781              	.LBE10:
 782              	.LBB11:
  31:src/buddyAllocator.cpp ****         addBlocks(buddy, (block*)buddy->startAddr + i, 0);
 783              		.loc 1 31 16 is_stmt 0
 784 0484 93040000 		li	s1,0
 785              	.LVL95:
 786              	.L54:
  31:src/buddyAllocator.cpp ****         addBlocks(buddy, (block*)buddy->startAddr + i, 0);
 787              		.loc 1 31 24 is_stmt 1 discriminator 3
 788 0488 63F43403 		bgeu	s1,s3,.L52
  32:src/buddyAllocator.cpp **** 
 789              		.loc 1 32 9 discriminator 2
  32:src/buddyAllocator.cpp **** 
 790              		.loc 1 32 41 is_stmt 0 discriminator 2
 791 048c 83358900 		ld	a1,8(s2)
  32:src/buddyAllocator.cpp **** 
 792              		.loc 1 32 51 discriminator 2
 793 0490 9397C400 		slli	a5,s1,12
  32:src/buddyAllocator.cpp **** 
 794              		.loc 1 32 18 discriminator 2
 795 0494 13060000 		li	a2,0
 796 0498 B385F500 		add	a1,a1,a5
 797 049c 13050900 		mv	a0,s2
 798 04a0 97000000 		call	_Z9addBlocksP14buddyAllocatorPvm
 798      E7800000 
 799              	.LVL96:
  31:src/buddyAllocator.cpp ****         addBlocks(buddy, (block*)buddy->startAddr + i, 0);
 800              		.loc 1 31 5 is_stmt 1 discriminator 2
 801 04a8 93841400 		addi	s1,s1,1
 802              	.LVL97:
 803 04ac 6FF0DFFD 		j	.L54
 804              	.L52:
 805              	.LBE11:
  35:src/buddyAllocator.cpp **** 
 806              		.loc 1 35 1 is_stmt 0
 807 04b0 13050900 		mv	a0,s2
 808 04b4 83308102 		ld	ra,40(sp)
 809              		.cfi_restore 1
 810 04b8 03340102 		ld	s0,32(sp)
 811              		.cfi_restore 8
 812              		.cfi_def_cfa 2, 48
 813 04bc 83348101 		ld	s1,24(sp)
 814              		.cfi_restore 9
 815              	.LVL98:
 816 04c0 03390101 		ld	s2,16(sp)
 817              		.cfi_restore 18
 818              	.LVL99:
 819 04c4 83398100 		ld	s3,8(sp)
 820              		.cfi_restore 19
 821              	.LVL100:
 822 04c8 13010103 		addi	sp,sp,48
GAS LISTING /tmp/ccSU3S2v.s 			page 21


 823              		.cfi_def_cfa_offset 0
 824 04cc 67800000 		jr	ra
 825              		.cfi_endproc
 826              	.LFE5:
 828              		.align	2
 829              		.globl	_Z10buddy_freeP14buddyAllocatorPvm
 831              	_Z10buddy_freeP14buddyAllocatorPvm:
 832              	.LFB8:
  79:src/buddyAllocator.cpp ****     //KConsole::trapPrintStringInt("Buddy free: ", (size_t)addr,16);
 833              		.loc 1 79 1 is_stmt 1
 834              		.cfi_startproc
 835              	.LVL101:
 836 04d0 130101FE 		addi	sp,sp,-32
 837              		.cfi_def_cfa_offset 32
 838 04d4 233C1100 		sd	ra,24(sp)
 839 04d8 23388100 		sd	s0,16(sp)
 840 04dc 23349100 		sd	s1,8(sp)
 841 04e0 23302101 		sd	s2,0(sp)
 842              		.cfi_offset 1, -8
 843              		.cfi_offset 8, -16
 844              		.cfi_offset 9, -24
 845              		.cfi_offset 18, -32
 846 04e4 13040102 		addi	s0,sp,32
 847              		.cfi_def_cfa 8, 0
 848 04e8 93040500 		mv	s1,a0
 849 04ec 13890500 		mv	s2,a1
  82:src/buddyAllocator.cpp ****     addBlocks(buddy, addr, level); //adds free blocks
 850              		.loc 1 82 5
  82:src/buddyAllocator.cpp ****     addBlocks(buddy, addr, level); //adds free blocks
 851              		.loc 1 82 31 is_stmt 0
 852 04f0 13050600 		mv	a0,a2
 853              	.LVL102:
 854 04f4 97000000 		call	_Z11getDeg2Ceilm
 854      E7800000 
 855              	.LVL103:
 856 04fc 13060500 		mv	a2,a0
 857              	.LVL104:
  83:src/buddyAllocator.cpp **** }
 858              		.loc 1 83 5 is_stmt 1
  83:src/buddyAllocator.cpp **** }
 859              		.loc 1 83 14 is_stmt 0
 860 0500 93050900 		mv	a1,s2
 861 0504 13850400 		mv	a0,s1
 862              	.LVL105:
 863 0508 97000000 		call	_Z9addBlocksP14buddyAllocatorPvm
 863      E7800000 
 864              	.LVL106:
  84:src/buddyAllocator.cpp **** 
 865              		.loc 1 84 1
 866 0510 83308101 		ld	ra,24(sp)
 867              		.cfi_restore 1
 868 0514 03340101 		ld	s0,16(sp)
 869              		.cfi_restore 8
 870              		.cfi_def_cfa 2, 32
 871 0518 83348100 		ld	s1,8(sp)
 872              		.cfi_restore 9
 873              	.LVL107:
GAS LISTING /tmp/ccSU3S2v.s 			page 22


 874 051c 03390100 		ld	s2,0(sp)
 875              		.cfi_restore 18
 876              	.LVL108:
 877 0520 13010102 		addi	sp,sp,32
 878              		.cfi_def_cfa_offset 0
 879 0524 67800000 		jr	ra
 880              		.cfi_endproc
 881              	.LFE8:
 883              		.align	2
 884              		.globl	_Z14printBuddyInfoP14buddyAllocator
 886              	_Z14printBuddyInfoP14buddyAllocator:
 887              	.LFB16:
 190:src/buddyAllocator.cpp **** 
 191:src/buddyAllocator.cpp **** void printBuddyInfo(buddyAllocator* buddy)
 192:src/buddyAllocator.cpp **** {
 888              		.loc 1 192 1 is_stmt 1
 889              		.cfi_startproc
 890              	.LVL109:
 891 0528 130101FF 		addi	sp,sp,-16
 892              		.cfi_def_cfa_offset 16
 893 052c 23348100 		sd	s0,8(sp)
 894              		.cfi_offset 8, -8
 895 0530 13040101 		addi	s0,sp,16
 896              		.cfi_def_cfa 8, 0
 193:src/buddyAllocator.cpp ****     //KConsole::trapPrintString("Buddy info-------------------------------------------\n");
 194:src/buddyAllocator.cpp ****     //KConsole::trapPrintStringInt("Buddy starting address ", (size_t)buddy->startAddr, 16);
 195:src/buddyAllocator.cpp ****     //KConsole::trapPrintStringInt("Buddy number of blocks ", buddy->numOfBlocks);
 196:src/buddyAllocator.cpp ****     //TODO take care of numOfFreeBlocks
 197:src/buddyAllocator.cpp ****     //KConsole::trapPrintStringInt("Buddy number of free blocks ", buddy->numOfFreeBlocks);
 198:src/buddyAllocator.cpp ****     for(int i = buddy->maxLevel;i>=0;i--)
 897              		.loc 1 198 5
 898              	.LBB12:
 899              		.loc 1 198 13 is_stmt 0
 900 0534 03278501 		lw	a4,24(a0)
 901              	.LVL110:
 902 0538 6F008000 		j	.L65
 903              	.LVL111:
 904              	.L63:
 905              		.loc 1 198 5 is_stmt 1 discriminator 2
 906 053c 1B07F7FF 		addiw	a4,a4,-1
 907              	.LVL112:
 908              	.L65:
 909              		.loc 1 198 34 discriminator 1
 910 0540 63400702 		bltz	a4,.L61
 911              	.LBB13:
 199:src/buddyAllocator.cpp ****     {
 200:src/buddyAllocator.cpp ****         //KConsole::trapPrintStringInt("Level ",i);
 201:src/buddyAllocator.cpp ****         //KConsole::trapPrintString("Free blocks on this level\n");
 202:src/buddyAllocator.cpp ****         buddyBlock* curr = buddy->bucket[i].first;
 912              		.loc 1 202 9
 913              		.loc 1 202 21 is_stmt 0
 914 0544 93072700 		addi	a5,a4,2
 915 0548 93974700 		slli	a5,a5,4
 916 054c B307F500 		add	a5,a0,a5
 917 0550 83B70700 		ld	a5,0(a5)
 918              	.LVL113:
 919              	.L64:
GAS LISTING /tmp/ccSU3S2v.s 			page 23


 203:src/buddyAllocator.cpp ****         while(curr != 0)
 920              		.loc 1 203 9 is_stmt 1
 921              		.loc 1 203 20
 922 0554 E38407FE 		beqz	a5,.L63
 204:src/buddyAllocator.cpp ****         {
 205:src/buddyAllocator.cpp ****             //KConsole::trapPrintInt((size_t)curr, 16);
 206:src/buddyAllocator.cpp ****             //KConsole::trapPrintString("\n");
 207:src/buddyAllocator.cpp ****             curr = curr->next;
 923              		.loc 1 207 13
 924              		.loc 1 207 18 is_stmt 0
 925 0558 83B70700 		ld	a5,0(a5)
 926              	.LVL114:
 203:src/buddyAllocator.cpp ****         while(curr != 0)
 927              		.loc 1 203 9
 928 055c 6FF09FFF 		j	.L64
 929              	.LVL115:
 930              	.L61:
 931              	.LBE13:
 932              	.LBE12:
 208:src/buddyAllocator.cpp ****         }
 209:src/buddyAllocator.cpp ****     }
 210:src/buddyAllocator.cpp ****     //KConsole::trapPrintString("End of buddy info-------------------------------------------\n");
 211:src/buddyAllocator.cpp **** }...
 933              		.loc 1 211 1
 934 0560 03348100 		ld	s0,8(sp)
 935              		.cfi_restore 8
 936              		.cfi_def_cfa 2, 16
 937 0564 13010101 		addi	sp,sp,16
 938              		.cfi_def_cfa_offset 0
 939 0568 67800000 		jr	ra
 940              		.cfi_endproc
 941              	.LFE16:
 943              	.Letext0:
 944              		.file 2 "src/../h/../lib/hw.h"
 945              		.file 3 "src/../h/buddyAllocator.hpp"
GAS LISTING /tmp/ccSU3S2v.s 			page 24


DEFINED SYMBOLS
                            *ABS*:0000000000000000 buddyAllocator.cpp
     /tmp/ccSU3S2v.s:9      .text:0000000000000000 _Z12getBlockAddrm
     /tmp/ccSU3S2v.s:13     .text:0000000000000000 .L0 
     /tmp/ccSU3S2v.s:15     .text:0000000000000000 .L0 
     /tmp/ccSU3S2v.s:16     .text:0000000000000004 .L0 
     /tmp/ccSU3S2v.s:18     .text:0000000000000008 .L0 
     /tmp/ccSU3S2v.s:20     .text:000000000000000c .L0 
     /tmp/ccSU3S2v.s:23     .text:000000000000000c .L0 
     /tmp/ccSU3S2v.s:24     .text:000000000000000c .L0 
     /tmp/ccSU3S2v.s:25     .text:000000000000000c .L0 
     /tmp/ccSU3S2v.s:29     .text:0000000000000018 .L0 
     /tmp/ccSU3S2v.s:30     .text:0000000000000018 .L0 
     /tmp/ccSU3S2v.s:32     .text:000000000000001c .L0 
     /tmp/ccSU3S2v.s:34     .text:0000000000000020 .L0 
     /tmp/ccSU3S2v.s:40     .text:0000000000000020 _Z16getNextBlockAddrm
     /tmp/ccSU3S2v.s:43     .text:0000000000000020 .L0 
     /tmp/ccSU3S2v.s:45     .text:0000000000000020 .L0 
     /tmp/ccSU3S2v.s:46     .text:0000000000000024 .L0 
     /tmp/ccSU3S2v.s:49     .text:000000000000002c .L0 
     /tmp/ccSU3S2v.s:50     .text:000000000000002c .L0 
     /tmp/ccSU3S2v.s:52     .text:0000000000000030 .L0 
     /tmp/ccSU3S2v.s:54     .text:0000000000000030 .L0 
     /tmp/ccSU3S2v.s:55     .text:0000000000000030 .L0 
     /tmp/ccSU3S2v.s:58     .text:0000000000000038 .L0 
     /tmp/ccSU3S2v.s:59     .text:0000000000000038 .L0 
     /tmp/ccSU3S2v.s:63     .text:0000000000000044 .L0 
     /tmp/ccSU3S2v.s:65     .text:0000000000000048 .L0 
     /tmp/ccSU3S2v.s:66     .text:0000000000000048 .L0 
     /tmp/ccSU3S2v.s:68     .text:000000000000004c .L0 
     /tmp/ccSU3S2v.s:70     .text:0000000000000050 .L0 
     /tmp/ccSU3S2v.s:76     .text:0000000000000050 _Z12getDeg2Floorm
     /tmp/ccSU3S2v.s:79     .text:0000000000000050 .L0 
     /tmp/ccSU3S2v.s:81     .text:0000000000000050 .L0 
     /tmp/ccSU3S2v.s:82     .text:0000000000000054 .L0 
     /tmp/ccSU3S2v.s:84     .text:0000000000000058 .L0 
     /tmp/ccSU3S2v.s:86     .text:000000000000005c .L0 
     /tmp/ccSU3S2v.s:89     .text:000000000000005c .L0 
     /tmp/ccSU3S2v.s:90     .text:000000000000005c .L0 
     /tmp/ccSU3S2v.s:91     .text:000000000000005c .L0 
     /tmp/ccSU3S2v.s:93     .text:0000000000000060 .L0 
     /tmp/ccSU3S2v.s:97     .text:0000000000000064 .L0 
     /tmp/ccSU3S2v.s:98     .text:0000000000000064 .L0 
     /tmp/ccSU3S2v.s:100    .text:0000000000000068 .L0 
     /tmp/ccSU3S2v.s:101    .text:0000000000000068 .L0 
     /tmp/ccSU3S2v.s:104    .text:000000000000006c .L0 
     /tmp/ccSU3S2v.s:105    .text:000000000000006c .L0 
     /tmp/ccSU3S2v.s:108    .text:0000000000000070 .L0 
     /tmp/ccSU3S2v.s:111    .text:0000000000000074 .L0 
     /tmp/ccSU3S2v.s:112    .text:0000000000000074 .L0 
     /tmp/ccSU3S2v.s:115    .text:000000000000007c .L0 
     /tmp/ccSU3S2v.s:116    .text:000000000000007c .L0 
     /tmp/ccSU3S2v.s:118    .text:0000000000000080 .L0 
     /tmp/ccSU3S2v.s:120    .text:0000000000000084 .L0 
     /tmp/ccSU3S2v.s:126    .text:0000000000000084 _Z11getDeg2Ceilm
     /tmp/ccSU3S2v.s:129    .text:0000000000000084 .L0 
     /tmp/ccSU3S2v.s:131    .text:0000000000000084 .L0 
GAS LISTING /tmp/ccSU3S2v.s 			page 25


     /tmp/ccSU3S2v.s:132    .text:0000000000000088 .L0 
     /tmp/ccSU3S2v.s:134    .text:000000000000008c .L0 
     /tmp/ccSU3S2v.s:136    .text:0000000000000090 .L0 
     /tmp/ccSU3S2v.s:140    .text:0000000000000094 .L0 
     /tmp/ccSU3S2v.s:141    .text:0000000000000094 .L0 
     /tmp/ccSU3S2v.s:142    .text:0000000000000094 .L0 
     /tmp/ccSU3S2v.s:145    .text:0000000000000098 .L0 
     /tmp/ccSU3S2v.s:149    .text:000000000000009c .L0 
     /tmp/ccSU3S2v.s:150    .text:000000000000009c .L0 
     /tmp/ccSU3S2v.s:152    .text:00000000000000a0 .L0 
     /tmp/ccSU3S2v.s:153    .text:00000000000000a0 .L0 
     /tmp/ccSU3S2v.s:156    .text:00000000000000a4 .L0 
     /tmp/ccSU3S2v.s:157    .text:00000000000000a4 .L0 
     /tmp/ccSU3S2v.s:160    .text:00000000000000a8 .L0 
     /tmp/ccSU3S2v.s:163    .text:00000000000000ac .L0 
     /tmp/ccSU3S2v.s:164    .text:00000000000000b0 .L0 
     /tmp/ccSU3S2v.s:165    .text:00000000000000b0 .L0 
     /tmp/ccSU3S2v.s:167    .text:00000000000000b4 .L0 
     /tmp/ccSU3S2v.s:169    .text:00000000000000b8 .L0 
     /tmp/ccSU3S2v.s:175    .text:00000000000000b8 _Z15addBlockToLevelP14buddyAllocatorPvm
     /tmp/ccSU3S2v.s:178    .text:00000000000000b8 .L0 
     /tmp/ccSU3S2v.s:180    .text:00000000000000b8 .L0 
     /tmp/ccSU3S2v.s:181    .text:00000000000000bc .L0 
     /tmp/ccSU3S2v.s:183    .text:00000000000000c0 .L0 
     /tmp/ccSU3S2v.s:185    .text:00000000000000c4 .L0 
     /tmp/ccSU3S2v.s:188    .text:00000000000000c4 .L0 
     /tmp/ccSU3S2v.s:189    .text:00000000000000c4 .L0 
     /tmp/ccSU3S2v.s:190    .text:00000000000000c4 .L0 
     /tmp/ccSU3S2v.s:192    .text:00000000000000c8 .L0 
     /tmp/ccSU3S2v.s:193    .text:00000000000000c8 .L0 
     /tmp/ccSU3S2v.s:198    .text:00000000000000d8 .L0 
     /tmp/ccSU3S2v.s:200    .text:00000000000000dc .L0 
     /tmp/ccSU3S2v.s:201    .text:00000000000000dc .L0 
     /tmp/ccSU3S2v.s:208    .text:00000000000000ec .L0 
     /tmp/ccSU3S2v.s:210    .text:00000000000000f0 .L0 
     /tmp/ccSU3S2v.s:211    .text:00000000000000f0 .L0 
     /tmp/ccSU3S2v.s:214    .text:00000000000000f4 .L0 
     /tmp/ccSU3S2v.s:215    .text:00000000000000f8 .L0 
     /tmp/ccSU3S2v.s:216    .text:00000000000000f8 .L0 
     /tmp/ccSU3S2v.s:217    .text:00000000000000f8 .L0 
     /tmp/ccSU3S2v.s:219    .text:00000000000000fc .L0 
     /tmp/ccSU3S2v.s:223    .text:0000000000000100 .L0 
     /tmp/ccSU3S2v.s:225    .text:0000000000000100 .L0 
     /tmp/ccSU3S2v.s:226    .text:0000000000000100 .L0 
     /tmp/ccSU3S2v.s:233    .text:0000000000000110 .L0 
     /tmp/ccSU3S2v.s:235    .text:0000000000000118 .L0 
     /tmp/ccSU3S2v.s:241    .text:0000000000000118 _Z17getBuddyBlockAddrP14buddyAllocatorPvm
     /tmp/ccSU3S2v.s:244    .text:0000000000000118 .L0 
     /tmp/ccSU3S2v.s:246    .text:0000000000000118 .L0 
     /tmp/ccSU3S2v.s:247    .text:000000000000011c .L0 
     /tmp/ccSU3S2v.s:249    .text:0000000000000120 .L0 
     /tmp/ccSU3S2v.s:251    .text:0000000000000124 .L0 
     /tmp/ccSU3S2v.s:253    .text:0000000000000124 .L0 
     /tmp/ccSU3S2v.s:254    .text:0000000000000124 .L0 
     /tmp/ccSU3S2v.s:258    .text:000000000000012c .L0 
     /tmp/ccSU3S2v.s:259    .text:000000000000012c .L0 
     /tmp/ccSU3S2v.s:261    .text:0000000000000130 .L0 
GAS LISTING /tmp/ccSU3S2v.s 			page 26


     /tmp/ccSU3S2v.s:264    .text:0000000000000134 .L0 
     /tmp/ccSU3S2v.s:265    .text:0000000000000134 .L0 
     /tmp/ccSU3S2v.s:268    .text:0000000000000138 .L0 
     /tmp/ccSU3S2v.s:270    .text:000000000000013c .L0 
     /tmp/ccSU3S2v.s:271    .text:000000000000013c .L0 
     /tmp/ccSU3S2v.s:275    .text:0000000000000140 .L0 
     /tmp/ccSU3S2v.s:276    .text:0000000000000144 .L0 
     /tmp/ccSU3S2v.s:277    .text:0000000000000144 .L0 
     /tmp/ccSU3S2v.s:278    .text:0000000000000144 .L0 
     /tmp/ccSU3S2v.s:280    .text:0000000000000148 .L0 
     /tmp/ccSU3S2v.s:284    .text:000000000000014c .L0 
     /tmp/ccSU3S2v.s:286    .text:000000000000014c .L0 
     /tmp/ccSU3S2v.s:287    .text:000000000000014c .L0 
     /tmp/ccSU3S2v.s:290    .text:0000000000000154 .L0 
     /tmp/ccSU3S2v.s:296    .text:0000000000000154 _Z5splitP14buddyAllocatorPvmmb
     /tmp/ccSU3S2v.s:299    .text:0000000000000154 .L0 
     /tmp/ccSU3S2v.s:301    .text:0000000000000154 .L0 
     /tmp/ccSU3S2v.s:302    .text:0000000000000158 .L0 
     /tmp/ccSU3S2v.s:309    .text:0000000000000170 .L0 
     /tmp/ccSU3S2v.s:310    .text:0000000000000170 .L0 
     /tmp/ccSU3S2v.s:311    .text:0000000000000170 .L0 
     /tmp/ccSU3S2v.s:312    .text:0000000000000170 .L0 
     /tmp/ccSU3S2v.s:313    .text:0000000000000170 .L0 
     /tmp/ccSU3S2v.s:314    .text:0000000000000170 .L0 
     /tmp/ccSU3S2v.s:316    .text:0000000000000174 .L0 
     /tmp/ccSU3S2v.s:321    .text:000000000000017c .L0 
     /tmp/ccSU3S2v.s:325    .text:0000000000000184 .L0 
     /tmp/ccSU3S2v.s:327    .text:0000000000000188 .L0 
     /tmp/ccSU3S2v.s:328    .text:0000000000000188 .L0 
     /tmp/ccSU3S2v.s:336    .text:000000000000019c .L0 
     /tmp/ccSU3S2v.s:337    .text:000000000000019c .L0 
     /tmp/ccSU3S2v.s:345    .text:00000000000001b4 .L0 
     /tmp/ccSU3S2v.s:346    .text:00000000000001b4 .L0 
     /tmp/ccSU3S2v.s:357    .text:00000000000001d0 .L0 
     /tmp/ccSU3S2v.s:358    .text:00000000000001d4 .L0 
     /tmp/ccSU3S2v.s:359    .text:00000000000001d4 .L0 
     /tmp/ccSU3S2v.s:361    .text:00000000000001d8 .L0 
     /tmp/ccSU3S2v.s:362    .text:00000000000001d8 .L0 
     /tmp/ccSU3S2v.s:364    .text:00000000000001dc .L0 
     /tmp/ccSU3S2v.s:366    .text:00000000000001e0 .L0 
     /tmp/ccSU3S2v.s:369    .text:00000000000001e4 .L0 
     /tmp/ccSU3S2v.s:371    .text:00000000000001e8 .L0 
     /tmp/ccSU3S2v.s:374    .text:00000000000001ec .L0 
     /tmp/ccSU3S2v.s:378    .text:00000000000001f0 .L0 
     /tmp/ccSU3S2v.s:381    .text:00000000000001f0 .L0 
     /tmp/ccSU3S2v.s:382    .text:00000000000001f0 .L0 
     /tmp/ccSU3S2v.s:388    .text:0000000000000200 .L0 
     /tmp/ccSU3S2v.s:394    .text:0000000000000200 _Z11buddy_allocP14buddyAllocatorm
     /tmp/ccSU3S2v.s:397    .text:0000000000000200 .L0 
     /tmp/ccSU3S2v.s:399    .text:0000000000000200 .L0 
     /tmp/ccSU3S2v.s:400    .text:0000000000000204 .L0 
     /tmp/ccSU3S2v.s:405    .text:0000000000000214 .L0 
     /tmp/ccSU3S2v.s:406    .text:0000000000000214 .L0 
     /tmp/ccSU3S2v.s:407    .text:0000000000000214 .L0 
     /tmp/ccSU3S2v.s:408    .text:0000000000000214 .L0 
     /tmp/ccSU3S2v.s:410    .text:0000000000000218 .L0 
     /tmp/ccSU3S2v.s:413    .text:000000000000021c .L0 
GAS LISTING /tmp/ccSU3S2v.s 			page 27


     /tmp/ccSU3S2v.s:414    .text:000000000000021c .L0 
     /tmp/ccSU3S2v.s:420    .text:0000000000000228 .L0 
     /tmp/ccSU3S2v.s:421    .text:0000000000000228 .L0 
     /tmp/ccSU3S2v.s:425    .text:000000000000022c .L0 
     /tmp/ccSU3S2v.s:426    .text:000000000000022c .L0 
     /tmp/ccSU3S2v.s:428    .text:0000000000000230 .L0 
     /tmp/ccSU3S2v.s:433    .text:0000000000000234 .L0 
     /tmp/ccSU3S2v.s:434    .text:0000000000000234 .L0 
     /tmp/ccSU3S2v.s:439    .text:0000000000000244 .L0 
     /tmp/ccSU3S2v.s:442    .text:0000000000000248 .L0 
     /tmp/ccSU3S2v.s:450    .text:0000000000000250 .L0 
     /tmp/ccSU3S2v.s:451    .text:0000000000000250 .L0 
     /tmp/ccSU3S2v.s:452    .text:0000000000000250 .L0 
     /tmp/ccSU3S2v.s:454    .text:0000000000000254 .L0 
     /tmp/ccSU3S2v.s:459    .text:0000000000000264 .L0 
     /tmp/ccSU3S2v.s:462    .text:0000000000000268 .L0 
     /tmp/ccSU3S2v.s:463    .text:0000000000000268 .L0 
     /tmp/ccSU3S2v.s:471    .text:0000000000000280 .L0 
     /tmp/ccSU3S2v.s:472    .text:0000000000000280 .L0 
     /tmp/ccSU3S2v.s:476    .text:0000000000000284 .L0 
     /tmp/ccSU3S2v.s:477    .text:0000000000000284 .L0 
     /tmp/ccSU3S2v.s:488    .text:0000000000000298 .L0 
     /tmp/ccSU3S2v.s:492    .text:000000000000029c .L0 
     /tmp/ccSU3S2v.s:494    .text:00000000000002a4 .L0 
     /tmp/ccSU3S2v.s:496    .text:00000000000002a8 .L0 
     /tmp/ccSU3S2v.s:497    .text:00000000000002a8 .L0 
     /tmp/ccSU3S2v.s:499    .text:00000000000002ac .L0 
     /tmp/ccSU3S2v.s:502    .text:00000000000002b0 .L0 
     /tmp/ccSU3S2v.s:504    .text:00000000000002b4 .L0 
     /tmp/ccSU3S2v.s:506    .text:00000000000002b8 .L0 
     /tmp/ccSU3S2v.s:512    .text:00000000000002b8 _Z9addBlocksP14buddyAllocatorPvm
     /tmp/ccSU3S2v.s:515    .text:00000000000002b8 .L0 
     /tmp/ccSU3S2v.s:517    .text:00000000000002b8 .L0 
     /tmp/ccSU3S2v.s:518    .text:00000000000002bc .L0 
     /tmp/ccSU3S2v.s:524    .text:00000000000002d0 .L0 
     /tmp/ccSU3S2v.s:525    .text:00000000000002d0 .L0 
     /tmp/ccSU3S2v.s:526    .text:00000000000002d0 .L0 
     /tmp/ccSU3S2v.s:527    .text:00000000000002d0 .L0 
     /tmp/ccSU3S2v.s:528    .text:00000000000002d0 .L0 
     /tmp/ccSU3S2v.s:530    .text:00000000000002d4 .L0 
     /tmp/ccSU3S2v.s:535    .text:00000000000002e0 .L0 
     /tmp/ccSU3S2v.s:536    .text:00000000000002e0 .L0 
     /tmp/ccSU3S2v.s:538    .text:00000000000002e4 .L0 
     /tmp/ccSU3S2v.s:540    .text:00000000000002e8 .L0 
     /tmp/ccSU3S2v.s:541    .text:00000000000002e8 .L0 
     /tmp/ccSU3S2v.s:544    .text:00000000000002f0 .L0 
     /tmp/ccSU3S2v.s:545    .text:00000000000002f0 .L0 
     /tmp/ccSU3S2v.s:551    .text:0000000000000300 .L0 
     /tmp/ccSU3S2v.s:552    .text:0000000000000300 .L0 
     /tmp/ccSU3S2v.s:556    .text:0000000000000304 .L0 
     /tmp/ccSU3S2v.s:557    .text:0000000000000304 .L0 
     /tmp/ccSU3S2v.s:559    .text:0000000000000308 .L0 
     /tmp/ccSU3S2v.s:562    .text:000000000000030c .L0 
     /tmp/ccSU3S2v.s:563    .text:000000000000030c .L0 
     /tmp/ccSU3S2v.s:564    .text:000000000000030c .L0 
     /tmp/ccSU3S2v.s:566    .text:0000000000000310 .L0 
     /tmp/ccSU3S2v.s:569    .text:0000000000000314 .L0 
GAS LISTING /tmp/ccSU3S2v.s 			page 28


     /tmp/ccSU3S2v.s:573    .text:0000000000000318 .L0 
     /tmp/ccSU3S2v.s:574    .text:0000000000000318 .L0 
     /tmp/ccSU3S2v.s:577    .text:0000000000000320 .L0 
     /tmp/ccSU3S2v.s:581    .text:0000000000000324 .L0 
     /tmp/ccSU3S2v.s:583    .text:0000000000000328 .L0 
     /tmp/ccSU3S2v.s:584    .text:0000000000000328 .L0 
     /tmp/ccSU3S2v.s:586    .text:000000000000032c .L0 
     /tmp/ccSU3S2v.s:588    .text:0000000000000330 .L0 
     /tmp/ccSU3S2v.s:589    .text:0000000000000330 .L0 
     /tmp/ccSU3S2v.s:594    .text:0000000000000340 .L0 
     /tmp/ccSU3S2v.s:598    .text:0000000000000344 .L0 
     /tmp/ccSU3S2v.s:600    .text:0000000000000348 .L0 
     /tmp/ccSU3S2v.s:601    .text:0000000000000348 .L0 
     /tmp/ccSU3S2v.s:611    .text:0000000000000360 .L0 
     /tmp/ccSU3S2v.s:612    .text:0000000000000360 .L0 
     /tmp/ccSU3S2v.s:621    .text:0000000000000374 .L0 
     /tmp/ccSU3S2v.s:622    .text:0000000000000374 .L0 
     /tmp/ccSU3S2v.s:625    .text:0000000000000378 .L0 
     /tmp/ccSU3S2v.s:627    .text:000000000000037c .L0 
     /tmp/ccSU3S2v.s:628    .text:000000000000037c .L0 
     /tmp/ccSU3S2v.s:637    .text:0000000000000390 .L0 
     /tmp/ccSU3S2v.s:638    .text:0000000000000390 .L0 
     /tmp/ccSU3S2v.s:644    .text:00000000000003a0 .L0 
     /tmp/ccSU3S2v.s:648    .text:00000000000003a8 .L0 
     /tmp/ccSU3S2v.s:649    .text:00000000000003a8 .L0 
     /tmp/ccSU3S2v.s:656    .text:00000000000003bc .L0 
     /tmp/ccSU3S2v.s:660    .text:00000000000003c0 .L0 
     /tmp/ccSU3S2v.s:661    .text:00000000000003c0 .L0 
     /tmp/ccSU3S2v.s:669    .text:00000000000003d4 .L0 
     /tmp/ccSU3S2v.s:670    .text:00000000000003d8 .L0 
     /tmp/ccSU3S2v.s:672    .text:00000000000003dc .L0 
     /tmp/ccSU3S2v.s:673    .text:00000000000003dc .L0 
     /tmp/ccSU3S2v.s:675    .text:00000000000003e0 .L0 
     /tmp/ccSU3S2v.s:678    .text:00000000000003e4 .L0 
     /tmp/ccSU3S2v.s:681    .text:00000000000003e8 .L0 
     /tmp/ccSU3S2v.s:684    .text:00000000000003ec .L0 
     /tmp/ccSU3S2v.s:686    .text:00000000000003f0 .L0 
     /tmp/ccSU3S2v.s:692    .text:00000000000003f0 _Z10buddy_initPvm
     /tmp/ccSU3S2v.s:695    .text:00000000000003f0 .L0 
     /tmp/ccSU3S2v.s:697    .text:00000000000003f0 .L0 
     /tmp/ccSU3S2v.s:698    .text:00000000000003f4 .L0 
     /tmp/ccSU3S2v.s:704    .text:0000000000000408 .L0 
     /tmp/ccSU3S2v.s:705    .text:0000000000000408 .L0 
     /tmp/ccSU3S2v.s:706    .text:0000000000000408 .L0 
     /tmp/ccSU3S2v.s:707    .text:0000000000000408 .L0 
     /tmp/ccSU3S2v.s:708    .text:0000000000000408 .L0 
     /tmp/ccSU3S2v.s:710    .text:000000000000040c .L0 
     /tmp/ccSU3S2v.s:713    .text:0000000000000410 .L0 
     /tmp/ccSU3S2v.s:714    .text:0000000000000410 .L0 
     /tmp/ccSU3S2v.s:718    .text:000000000000041c .L0 
     /tmp/ccSU3S2v.s:719    .text:000000000000041c .L0 
     /tmp/ccSU3S2v.s:721    .text:0000000000000420 .L0 
     /tmp/ccSU3S2v.s:722    .text:0000000000000420 .L0 
     /tmp/ccSU3S2v.s:727    .text:000000000000042c .L0 
     /tmp/ccSU3S2v.s:728    .text:000000000000042c .L0 
     /tmp/ccSU3S2v.s:732    .text:0000000000000430 .L0 
     /tmp/ccSU3S2v.s:733    .text:0000000000000430 .L0 
GAS LISTING /tmp/ccSU3S2v.s 			page 29


     /tmp/ccSU3S2v.s:736    .text:0000000000000434 .L0 
     /tmp/ccSU3S2v.s:737    .text:0000000000000434 .L0 
     /tmp/ccSU3S2v.s:740    .text:0000000000000438 .L0 
     /tmp/ccSU3S2v.s:741    .text:0000000000000438 .L0 
     /tmp/ccSU3S2v.s:745    .text:0000000000000444 .L0 
     /tmp/ccSU3S2v.s:747    .text:0000000000000448 .L0 
     /tmp/ccSU3S2v.s:748    .text:0000000000000448 .L0 
     /tmp/ccSU3S2v.s:750    .text:000000000000044c .L0 
     /tmp/ccSU3S2v.s:751    .text:000000000000044c .L0 
     /tmp/ccSU3S2v.s:753    .text:0000000000000450 .L0 
     /tmp/ccSU3S2v.s:754    .text:0000000000000450 .L0 
     /tmp/ccSU3S2v.s:758    .text:000000000000045c .L0 
     /tmp/ccSU3S2v.s:762    .text:0000000000000460 .L0 
     /tmp/ccSU3S2v.s:763    .text:0000000000000460 .L0 
     /tmp/ccSU3S2v.s:767    .text:0000000000000464 .L0 
     /tmp/ccSU3S2v.s:769    .text:0000000000000468 .L0 
     /tmp/ccSU3S2v.s:770    .text:0000000000000468 .L0 
     /tmp/ccSU3S2v.s:775    .text:0000000000000478 .L0 
     /tmp/ccSU3S2v.s:777    .text:000000000000047c .L0 
     /tmp/ccSU3S2v.s:784    .text:0000000000000484 .L0 
     /tmp/ccSU3S2v.s:788    .text:0000000000000488 .L0 
     /tmp/ccSU3S2v.s:790    .text:000000000000048c .L0 
     /tmp/ccSU3S2v.s:791    .text:000000000000048c .L0 
     /tmp/ccSU3S2v.s:793    .text:0000000000000490 .L0 
     /tmp/ccSU3S2v.s:795    .text:0000000000000494 .L0 
     /tmp/ccSU3S2v.s:801    .text:00000000000004a8 .L0 
     /tmp/ccSU3S2v.s:807    .text:00000000000004b0 .L0 
     /tmp/ccSU3S2v.s:809    .text:00000000000004b8 .L0 
     /tmp/ccSU3S2v.s:811    .text:00000000000004bc .L0 
     /tmp/ccSU3S2v.s:812    .text:00000000000004bc .L0 
     /tmp/ccSU3S2v.s:814    .text:00000000000004c0 .L0 
     /tmp/ccSU3S2v.s:817    .text:00000000000004c4 .L0 
     /tmp/ccSU3S2v.s:820    .text:00000000000004c8 .L0 
     /tmp/ccSU3S2v.s:823    .text:00000000000004cc .L0 
     /tmp/ccSU3S2v.s:825    .text:00000000000004d0 .L0 
     /tmp/ccSU3S2v.s:831    .text:00000000000004d0 _Z10buddy_freeP14buddyAllocatorPvm
     /tmp/ccSU3S2v.s:834    .text:00000000000004d0 .L0 
     /tmp/ccSU3S2v.s:836    .text:00000000000004d0 .L0 
     /tmp/ccSU3S2v.s:837    .text:00000000000004d4 .L0 
     /tmp/ccSU3S2v.s:842    .text:00000000000004e4 .L0 
     /tmp/ccSU3S2v.s:843    .text:00000000000004e4 .L0 
     /tmp/ccSU3S2v.s:844    .text:00000000000004e4 .L0 
     /tmp/ccSU3S2v.s:845    .text:00000000000004e4 .L0 
     /tmp/ccSU3S2v.s:847    .text:00000000000004e8 .L0 
     /tmp/ccSU3S2v.s:851    .text:00000000000004f0 .L0 
     /tmp/ccSU3S2v.s:852    .text:00000000000004f0 .L0 
     /tmp/ccSU3S2v.s:859    .text:0000000000000500 .L0 
     /tmp/ccSU3S2v.s:860    .text:0000000000000500 .L0 
     /tmp/ccSU3S2v.s:866    .text:0000000000000510 .L0 
     /tmp/ccSU3S2v.s:867    .text:0000000000000514 .L0 
     /tmp/ccSU3S2v.s:869    .text:0000000000000518 .L0 
     /tmp/ccSU3S2v.s:870    .text:0000000000000518 .L0 
     /tmp/ccSU3S2v.s:872    .text:000000000000051c .L0 
     /tmp/ccSU3S2v.s:875    .text:0000000000000520 .L0 
     /tmp/ccSU3S2v.s:878    .text:0000000000000524 .L0 
     /tmp/ccSU3S2v.s:880    .text:0000000000000528 .L0 
     /tmp/ccSU3S2v.s:886    .text:0000000000000528 _Z14printBuddyInfoP14buddyAllocator
GAS LISTING /tmp/ccSU3S2v.s 			page 30


     /tmp/ccSU3S2v.s:889    .text:0000000000000528 .L0 
     /tmp/ccSU3S2v.s:891    .text:0000000000000528 .L0 
     /tmp/ccSU3S2v.s:892    .text:000000000000052c .L0 
     /tmp/ccSU3S2v.s:894    .text:0000000000000530 .L0 
     /tmp/ccSU3S2v.s:896    .text:0000000000000534 .L0 
     /tmp/ccSU3S2v.s:899    .text:0000000000000534 .L0 
     /tmp/ccSU3S2v.s:900    .text:0000000000000534 .L0 
     /tmp/ccSU3S2v.s:906    .text:000000000000053c .L0 
     /tmp/ccSU3S2v.s:910    .text:0000000000000540 .L0 
     /tmp/ccSU3S2v.s:913    .text:0000000000000544 .L0 
     /tmp/ccSU3S2v.s:914    .text:0000000000000544 .L0 
     /tmp/ccSU3S2v.s:921    .text:0000000000000554 .L0 
     /tmp/ccSU3S2v.s:922    .text:0000000000000554 .L0 
     /tmp/ccSU3S2v.s:924    .text:0000000000000558 .L0 
     /tmp/ccSU3S2v.s:925    .text:0000000000000558 .L0 
     /tmp/ccSU3S2v.s:928    .text:000000000000055c .L0 
     /tmp/ccSU3S2v.s:934    .text:0000000000000560 .L0 
     /tmp/ccSU3S2v.s:935    .text:0000000000000564 .L0 
     /tmp/ccSU3S2v.s:936    .text:0000000000000564 .L0 
     /tmp/ccSU3S2v.s:938    .text:0000000000000568 .L0 
     /tmp/ccSU3S2v.s:940    .text:000000000000056c .L0 
     /tmp/ccSU3S2v.s:946    .text:000000000000056c .L0 
     /tmp/ccSU3S2v.s:109    .text:0000000000000074 .L6
     /tmp/ccSU3S2v.s:95     .text:0000000000000064 .L7
     /tmp/ccSU3S2v.s:161    .text:00000000000000ac .L9
     /tmp/ccSU3S2v.s:147    .text:000000000000009c .L11
     /tmp/ccSU3S2v.s:222    .text:0000000000000100 .L17
     /tmp/ccSU3S2v.s:212    .text:00000000000000f4 .L13
     /tmp/ccSU3S2v.s:283    .text:000000000000014c .L19
     /tmp/ccSU3S2v.s:273    .text:0000000000000140 .L18
     /tmp/ccSU3S2v.s:377    .text:00000000000001f0 .L26
     /tmp/ccSU3S2v.s:353    .text:00000000000001d0 .L22
     /tmp/ccSU3S2v.s:483    .text:0000000000000298 .L32
     /tmp/ccSU3S2v.s:445    .text:0000000000000250 .L34
     /tmp/ccSU3S2v.s:423    .text:000000000000022c .L31
     /tmp/ccSU3S2v.s:474    .text:0000000000000284 .L35
     /tmp/ccSU3S2v.s:490    .text:000000000000029c .L27
     /tmp/ccSU3S2v.s:460    .text:0000000000000268 .L30
     /tmp/ccSU3S2v.s:571    .text:0000000000000318 .L48
     /tmp/ccSU3S2v.s:658    .text:00000000000003c0 .L39
     /tmp/ccSU3S2v.s:579    .text:0000000000000324 .L49
     /tmp/ccSU3S2v.s:554    .text:0000000000000304 .L46
     /tmp/ccSU3S2v.s:667    .text:00000000000003d4 .L36
     /tmp/ccSU3S2v.s:619    .text:0000000000000374 .L41
     /tmp/ccSU3S2v.s:609    .text:0000000000000360 .L50
     /tmp/ccSU3S2v.s:646    .text:00000000000003a8 .L44
     /tmp/ccSU3S2v.s:596    .text:0000000000000344 .L42
     /tmp/ccSU3S2v.s:635    .text:0000000000000390 .L51
     /tmp/ccSU3S2v.s:730    .text:0000000000000430 .L53
     /tmp/ccSU3S2v.s:780    .text:0000000000000484 .L57
     /tmp/ccSU3S2v.s:765    .text:0000000000000464 .L55
     /tmp/ccSU3S2v.s:804    .text:00000000000004b0 .L52
     /tmp/ccSU3S2v.s:786    .text:0000000000000488 .L54
     /tmp/ccSU3S2v.s:908    .text:0000000000000540 .L65
     /tmp/ccSU3S2v.s:930    .text:0000000000000560 .L61
     /tmp/ccSU3S2v.s:904    .text:000000000000053c .L63
     /tmp/ccSU3S2v.s:919    .text:0000000000000554 .L64
GAS LISTING /tmp/ccSU3S2v.s 			page 31


     /tmp/ccSU3S2v.s:2060   .debug_abbrev:0000000000000000 .Ldebug_abbrev0
     /tmp/ccSU3S2v.s:3465   .debug_str:0000000000000369 .LASF71
     /tmp/ccSU3S2v.s:3483   .debug_str:0000000000000498 .LASF72
     /tmp/ccSU3S2v.s:3377   .debug_str:00000000000000a7 .LASF73
     /tmp/ccSU3S2v.s:5      .text:0000000000000000 .Ltext0
     /tmp/ccSU3S2v.s:943    .text:000000000000056c .Letext0
     /tmp/ccSU3S2v.s:3347   .debug_line:0000000000000000 .Ldebug_line0
     /tmp/ccSU3S2v.s:3397   .debug_str:0000000000000156 .LASF0
     /tmp/ccSU3S2v.s:3407   .debug_str:00000000000001a0 .LASF1
     /tmp/ccSU3S2v.s:3451   .debug_str:00000000000002ff .LASF2
     /tmp/ccSU3S2v.s:3455   .debug_str:0000000000000312 .LASF4
     /tmp/ccSU3S2v.s:3401   .debug_str:0000000000000175 .LASF3
     /tmp/ccSU3S2v.s:3349   .debug_str:0000000000000000 .LASF5
     /tmp/ccSU3S2v.s:3435   .debug_str:0000000000000255 .LASF6
     /tmp/ccSU3S2v.s:3403   .debug_str:0000000000000187 .LASF7
     /tmp/ccSU3S2v.s:3387   .debug_str:0000000000000100 .LASF8
     /tmp/ccSU3S2v.s:3391   .debug_str:0000000000000132 .LASF9
     /tmp/ccSU3S2v.s:3367   .debug_str:0000000000000062 .LASF10
     /tmp/ccSU3S2v.s:3357   .debug_str:000000000000002a .LASF11
     /tmp/ccSU3S2v.s:3385   .debug_str:00000000000000f1 .LASF12
     /tmp/ccSU3S2v.s:3371   .debug_str:0000000000000076 .LASF13
     /tmp/ccSU3S2v.s:3365   .debug_str:0000000000000052 .LASF14
     /tmp/ccSU3S2v.s:3469   .debug_str:000000000000044e .LASF15
     /tmp/ccSU3S2v.s:3375   .debug_str:0000000000000091 .LASF16
     /tmp/ccSU3S2v.s:3461   .debug_str:0000000000000349 .LASF17
     /tmp/ccSU3S2v.s:3395   .debug_str:0000000000000150 .LASF18
     /tmp/ccSU3S2v.s:3475   .debug_str:000000000000046f .LASF19
     /tmp/ccSU3S2v.s:3437   .debug_str:0000000000000268 .LASF20
     /tmp/ccSU3S2v.s:3369   .debug_str:0000000000000071 .LASF22
     /tmp/ccSU3S2v.s:3449   .debug_str:00000000000002f4 .LASF21
     /tmp/ccSU3S2v.s:3473   .debug_str:0000000000000469 .LASF23
     /tmp/ccSU3S2v.s:3411   .debug_str:00000000000001bc .LASF24
     /tmp/ccSU3S2v.s:3415   .debug_str:00000000000001ce .LASF25
     /tmp/ccSU3S2v.s:3419   .debug_str:00000000000001e2 .LASF26
     /tmp/ccSU3S2v.s:3477   .debug_str:0000000000000474 .LASF27
     /tmp/ccSU3S2v.s:3481   .debug_str:0000000000000488 .LASF28
     /tmp/ccSU3S2v.s:3409   .debug_str:00000000000001b3 .LASF29
     /tmp/ccSU3S2v.s:3381   .debug_str:00000000000000c2 .LASF30
     /tmp/ccSU3S2v.s:3417   .debug_str:00000000000001dd .LASF31
     /tmp/ccSU3S2v.s:3491   .debug_str:00000000000004c8 .LASF37
     /tmp/ccSU3S2v.s:3457   .debug_str:0000000000000319 .LASF39
     /tmp/ccSU3S2v.s:887    .text:0000000000000528 .LFB16
     /tmp/ccSU3S2v.s:941    .text:000000000000056c .LFE16
     /tmp/ccSU3S2v.s:3425   .debug_str:0000000000000205 .LASF33
     /tmp/ccSU3S2v.s:898    .text:0000000000000534 .LBB12
     /tmp/ccSU3S2v.s:932    .text:0000000000000560 .LBE12
     /tmp/ccSU3S2v.s:911    .text:0000000000000544 .LBB13
     /tmp/ccSU3S2v.s:931    .text:0000000000000560 .LBE13
     /tmp/ccSU3S2v.s:3453   .debug_str:000000000000030d .LASF32
     /tmp/ccSU3S2v.s:2548   .debug_loc:0000000000000000 .LLST41
     /tmp/ccSU3S2v.s:3443   .debug_str:00000000000002c0 .LASF46
     /tmp/ccSU3S2v.s:3441   .debug_str:0000000000000296 .LASF48
     /tmp/ccSU3S2v.s:242    .text:0000000000000118 .LFB15
     /tmp/ccSU3S2v.s:291    .text:0000000000000154 .LFE15
     /tmp/ccSU3S2v.s:2559   .debug_loc:0000000000000036 .LLST10
     /tmp/ccSU3S2v.s:3359   .debug_str:000000000000003d .LASF34
     /tmp/ccSU3S2v.s:3405   .debug_str:000000000000019a .LASF35
GAS LISTING /tmp/ccSU3S2v.s 			page 32


     /tmp/ccSU3S2v.s:2584   .debug_loc:0000000000000098 .LLST11
     /tmp/ccSU3S2v.s:3361   .debug_str:0000000000000042 .LASF36
     /tmp/ccSU3S2v.s:2598   .debug_loc:00000000000000d1 .LLST12
     /tmp/ccSU3S2v.s:3393   .debug_str:0000000000000140 .LASF38
     /tmp/ccSU3S2v.s:3383   .debug_str:00000000000000c9 .LASF40
     /tmp/ccSU3S2v.s:176    .text:00000000000000b8 .LFB14
     /tmp/ccSU3S2v.s:236    .text:0000000000000118 .LFE14
     /tmp/ccSU3S2v.s:2651   .debug_loc:000000000000015e .LLST9
     /tmp/ccSU3S2v.s:3493   .debug_str:00000000000004d7 .LASF41
     /tmp/ccSU3S2v.s:3429   .debug_str:0000000000000216 .LASF42
     /tmp/ccSU3S2v.s:3467   .debug_str:000000000000042d .LASF43
     /tmp/ccSU3S2v.s:513    .text:00000000000002b8 .LFB13
     /tmp/ccSU3S2v.s:687    .text:00000000000003f0 .LFE13
     /tmp/ccSU3S2v.s:2688   .debug_loc:00000000000001ea .LLST24
     /tmp/ccSU3S2v.s:2706   .debug_loc:0000000000000236 .LLST25
     /tmp/ccSU3S2v.s:2732   .debug_loc:00000000000002a8 .LLST26
     /tmp/ccSU3S2v.s:3471   .debug_str:000000000000045a .LASF44
     /tmp/ccSU3S2v.s:2758   .debug_loc:000000000000031a .LLST27
     /tmp/ccSU3S2v.s:2781   .debug_loc:0000000000000389 .LLST28
     /tmp/ccSU3S2v.s:3353   .debug_str:0000000000000019 .LASF45
     /tmp/ccSU3S2v.s:2817   .debug_loc:0000000000000432 .LLST29
     /tmp/ccSU3S2v.s:542    .text:00000000000002f0 .LVL57
     /tmp/ccSU3S2v.s:575    .text:0000000000000320 .LVL63
     /tmp/ccSU3S2v.s:606    .text:000000000000035c .LVL67
     /tmp/ccSU3S2v.s:654    .text:00000000000003bc .LVL76
     /tmp/ccSU3S2v.s:666    .text:00000000000003d4 .LVL79
     /tmp/ccSU3S2v.s:3355   .debug_str:000000000000001e .LASF47
     /tmp/ccSU3S2v.s:3445   .debug_str:00000000000002d2 .LASF49
     /tmp/ccSU3S2v.s:127    .text:0000000000000084 .LFB12
     /tmp/ccSU3S2v.s:170    .text:00000000000000b8 .LFE12
     /tmp/ccSU3S2v.s:2849   .debug_loc:00000000000004c8 .LLST6
     /tmp/ccSU3S2v.s:2860   .debug_loc:00000000000004fe .LLST7
     /tmp/ccSU3S2v.s:2872   .debug_loc:0000000000000535 .LLST8
     /tmp/ccSU3S2v.s:3413   .debug_str:00000000000001c1 .LASF50
     /tmp/ccSU3S2v.s:3495   .debug_str:00000000000004e0 .LASF51
     /tmp/ccSU3S2v.s:77     .text:0000000000000050 .LFB11
     /tmp/ccSU3S2v.s:121    .text:0000000000000084 .LFE11
     /tmp/ccSU3S2v.s:2884   .debug_loc:000000000000056c .LLST3
     /tmp/ccSU3S2v.s:2898   .debug_loc:00000000000005a5 .LLST4
     /tmp/ccSU3S2v.s:2910   .debug_loc:00000000000005dc .LLST5
     /tmp/ccSU3S2v.s:3447   .debug_str:00000000000002e3 .LASF52
     /tmp/ccSU3S2v.s:3431   .debug_str:0000000000000220 .LASF53
     /tmp/ccSU3S2v.s:41     .text:0000000000000020 .LFB10
     /tmp/ccSU3S2v.s:71     .text:0000000000000050 .LFE10
     /tmp/ccSU3S2v.s:2922   .debug_loc:0000000000000613 .LLST1
     /tmp/ccSU3S2v.s:3479   .debug_str:000000000000047e .LASF54
     /tmp/ccSU3S2v.s:2936   .debug_loc:000000000000064c .LLST2
     /tmp/ccSU3S2v.s:56     .text:0000000000000038 .LVL4
     /tmp/ccSU3S2v.s:3423   .debug_str:00000000000001f8 .LASF55
     /tmp/ccSU3S2v.s:3399   .debug_str:0000000000000163 .LASF56
     /tmp/ccSU3S2v.s:10     .text:0000000000000000 .LFB9
     /tmp/ccSU3S2v.s:35     .text:0000000000000020 .LFE9
     /tmp/ccSU3S2v.s:2949   .debug_loc:0000000000000685 .LLST0
     /tmp/ccSU3S2v.s:3487   .debug_str:00000000000004b9 .LASF57
     /tmp/ccSU3S2v.s:3373   .debug_str:0000000000000086 .LASF58
     /tmp/ccSU3S2v.s:3439   .debug_str:0000000000000273 .LASF59
     /tmp/ccSU3S2v.s:832    .text:00000000000004d0 .LFB8
GAS LISTING /tmp/ccSU3S2v.s 			page 33


     /tmp/ccSU3S2v.s:881    .text:0000000000000528 .LFE8
     /tmp/ccSU3S2v.s:2963   .debug_loc:00000000000006be .LLST37
     /tmp/ccSU3S2v.s:2981   .debug_loc:000000000000070a .LLST38
     /tmp/ccSU3S2v.s:2999   .debug_loc:0000000000000756 .LLST39
     /tmp/ccSU3S2v.s:3013   .debug_loc:000000000000078f .LLST40
     /tmp/ccSU3S2v.s:855    .text:00000000000004fc .LVL103
     /tmp/ccSU3S2v.s:864    .text:0000000000000510 .LVL106
     /tmp/ccSU3S2v.s:3379   .debug_str:00000000000000bc .LASF60
     /tmp/ccSU3S2v.s:3433   .debug_str:0000000000000236 .LASF61
     /tmp/ccSU3S2v.s:297    .text:0000000000000154 .LFB7
     /tmp/ccSU3S2v.s:389    .text:0000000000000200 .LFE7
     /tmp/ccSU3S2v.s:3024   .debug_loc:00000000000007c5 .LLST13
     /tmp/ccSU3S2v.s:3050   .debug_loc:0000000000000837 .LLST14
     /tmp/ccSU3S2v.s:3427   .debug_str:000000000000020b .LASF62
     /tmp/ccSU3S2v.s:3076   .debug_loc:00000000000008a9 .LLST15
     /tmp/ccSU3S2v.s:3489   .debug_str:00000000000004be .LASF63
     /tmp/ccSU3S2v.s:3105   .debug_loc:000000000000091e .LLST16
     /tmp/ccSU3S2v.s:3421   .debug_str:00000000000001ee .LASF64
     /tmp/ccSU3S2v.s:3136   .debug_loc:0000000000000995 .LLST17
     /tmp/ccSU3S2v.s:323    .text:0000000000000184 .LBB3
     /tmp/ccSU3S2v.s:354    .text:00000000000001d0 .LBE3
     /tmp/ccSU3S2v.s:3161   .debug_loc:00000000000009f7 .LLST18
     /tmp/ccSU3S2v.s:332    .text:0000000000000198 .LVL34
     /tmp/ccSU3S2v.s:343    .text:00000000000001b4 .LVL37
     /tmp/ccSU3S2v.s:352    .text:00000000000001d0 .LVL38
     /tmp/ccSU3S2v.s:385    .text:00000000000001fc .LVL43
     /tmp/ccSU3S2v.s:3459   .debug_str:000000000000033d .LASF65
     /tmp/ccSU3S2v.s:3389   .debug_str:0000000000000110 .LASF66
     /tmp/ccSU3S2v.s:395    .text:0000000000000200 .LFB6
     /tmp/ccSU3S2v.s:507    .text:00000000000002b8 .LFE6
     /tmp/ccSU3S2v.s:3172   .debug_loc:0000000000000a2d .LLST19
     /tmp/ccSU3S2v.s:3190   .debug_loc:0000000000000a79 .LLST20
     /tmp/ccSU3S2v.s:3204   .debug_loc:0000000000000ab2 .LLST21
     /tmp/ccSU3S2v.s:3339   .debug_ranges:0000000000000000 .Ldebug_ranges0
     /tmp/ccSU3S2v.s:3219   .debug_loc:0000000000000afb .LLST22
     /tmp/ccSU3S2v.s:447    .text:0000000000000250 .LBB7
     /tmp/ccSU3S2v.s:484    .text:0000000000000298 .LBE7
     /tmp/ccSU3S2v.s:3234   .debug_loc:0000000000000b44 .LLST23
     /tmp/ccSU3S2v.s:469    .text:0000000000000280 .LVL51
     /tmp/ccSU3S2v.s:417    .text:0000000000000228 .LVL46
     /tmp/ccSU3S2v.s:3363   .debug_str:0000000000000047 .LASF67
     /tmp/ccSU3S2v.s:3351   .debug_str:0000000000000007 .LASF68
     /tmp/ccSU3S2v.s:693    .text:00000000000003f0 .LFB5
     /tmp/ccSU3S2v.s:826    .text:00000000000004d0 .LFE5
     /tmp/ccSU3S2v.s:3241   .debug_loc:0000000000000b67 .LLST30
     /tmp/ccSU3S2v.s:3259   .debug_loc:0000000000000bb3 .LLST31
     /tmp/ccSU3S2v.s:3485   .debug_str:00000000000004af .LASF69
     /tmp/ccSU3S2v.s:3270   .debug_loc:0000000000000be9 .LLST32
     /tmp/ccSU3S2v.s:3463   .debug_str:000000000000035f .LASF70
     /tmp/ccSU3S2v.s:3277   .debug_loc:0000000000000c0c .LLST33
     /tmp/ccSU3S2v.s:3292   .debug_loc:0000000000000c55 .LLST34
     /tmp/ccSU3S2v.s:761    .text:0000000000000460 .LBB10
     /tmp/ccSU3S2v.s:781    .text:0000000000000484 .LBE10
     /tmp/ccSU3S2v.s:3307   .debug_loc:0000000000000c9e .LLST35
     /tmp/ccSU3S2v.s:782    .text:0000000000000484 .LBB11
     /tmp/ccSU3S2v.s:805    .text:00000000000004b0 .LBE11
     /tmp/ccSU3S2v.s:3319   .debug_loc:0000000000000cd5 .LLST36
GAS LISTING /tmp/ccSU3S2v.s 			page 34


     /tmp/ccSU3S2v.s:799    .text:00000000000004a8 .LVL96
     /tmp/ccSU3S2v.s:716    .text:000000000000041c .LVL84
     /tmp/ccSU3S2v.s:723    .text:0000000000000428 .LVL85
     /tmp/ccSU3S2v.s:743    .text:0000000000000444 .LVL90
     /tmp/ccSU3S2v.s:756    .text:000000000000045c .LVL91
     /tmp/ccSU3S2v.s:903    .text:000000000000053c .LVL111
     /tmp/ccSU3S2v.s:907    .text:0000000000000540 .LVL112
     /tmp/ccSU3S2v.s:918    .text:0000000000000554 .LVL113
     /tmp/ccSU3S2v.s:929    .text:0000000000000560 .LVL115
     /tmp/ccSU3S2v.s:245    .text:0000000000000118 .LVL25
     /tmp/ccSU3S2v.s:272    .text:0000000000000140 .LVL29
     /tmp/ccSU3S2v.s:282    .text:000000000000014c .LVL30
     /tmp/ccSU3S2v.s:288    .text:0000000000000150 .LVL31
     /tmp/ccSU3S2v.s:256    .text:000000000000012c .LVL26
     /tmp/ccSU3S2v.s:262    .text:0000000000000134 .LVL27
     /tmp/ccSU3S2v.s:266    .text:0000000000000138 .LVL28
     /tmp/ccSU3S2v.s:179    .text:00000000000000b8 .LVL18
     /tmp/ccSU3S2v.s:202    .text:00000000000000e0 .LVL20
     /tmp/ccSU3S2v.s:204    .text:00000000000000e4 .LVL21
     /tmp/ccSU3S2v.s:221    .text:0000000000000100 .LVL22
     /tmp/ccSU3S2v.s:227    .text:0000000000000104 .LVL23
     /tmp/ccSU3S2v.s:229    .text:0000000000000108 .LVL24
     /tmp/ccSU3S2v.s:516    .text:00000000000002b8 .LVL56
     /tmp/ccSU3S2v.s:676    .text:00000000000003e0 .LVL80
     /tmp/ccSU3S2v.s:570    .text:0000000000000318 .LVL62
     /tmp/ccSU3S2v.s:682    .text:00000000000003e8 .LVL82
     /tmp/ccSU3S2v.s:679    .text:00000000000003e4 .LVL81
     /tmp/ccSU3S2v.s:578    .text:0000000000000324 .LVL64
     /tmp/ccSU3S2v.s:604    .text:0000000000000354 .LVL66
     /tmp/ccSU3S2v.s:608    .text:0000000000000360 .LVL68
     /tmp/ccSU3S2v.s:652    .text:00000000000003b4 .LVL75
     /tmp/ccSU3S2v.s:657    .text:00000000000003c0 .LVL77
     /tmp/ccSU3S2v.s:664    .text:00000000000003cc .LVL78
     /tmp/ccSU3S2v.s:549    .text:0000000000000300 .LVL58
     /tmp/ccSU3S2v.s:561    .text:000000000000030c .LVL60
     /tmp/ccSU3S2v.s:567    .text:0000000000000314 .LVL61
     /tmp/ccSU3S2v.s:595    .text:0000000000000344 .LVL65
     /tmp/ccSU3S2v.s:613    .text:0000000000000364 .LVL69
     /tmp/ccSU3S2v.s:618    .text:0000000000000374 .LVL70
     /tmp/ccSU3S2v.s:629    .text:0000000000000380 .LVL72
     /tmp/ccSU3S2v.s:634    .text:0000000000000390 .LVL73
     /tmp/ccSU3S2v.s:639    .text:0000000000000394 .LVL74
     /tmp/ccSU3S2v.s:553    .text:0000000000000304 .LVL59
     /tmp/ccSU3S2v.s:623    .text:0000000000000378 .LVL71
     /tmp/ccSU3S2v.s:130    .text:0000000000000084 .LVL12
     /tmp/ccSU3S2v.s:143    .text:0000000000000098 .LVL14
     /tmp/ccSU3S2v.s:139    .text:0000000000000094 .LVL13
     /tmp/ccSU3S2v.s:146    .text:000000000000009c .LVL15
     /tmp/ccSU3S2v.s:80     .text:0000000000000050 .LVL6
     /tmp/ccSU3S2v.s:113    .text:0000000000000078 .LVL11
     /tmp/ccSU3S2v.s:88     .text:000000000000005c .LVL7
     /tmp/ccSU3S2v.s:94     .text:0000000000000064 .LVL8
     /tmp/ccSU3S2v.s:44     .text:0000000000000020 .LVL3
     /tmp/ccSU3S2v.s:61     .text:0000000000000040 .LVL5
     /tmp/ccSU3S2v.s:14     .text:0000000000000000 .LVL0
     /tmp/ccSU3S2v.s:27     .text:0000000000000014 .LVL2
     /tmp/ccSU3S2v.s:835    .text:00000000000004d0 .LVL101
GAS LISTING /tmp/ccSU3S2v.s 			page 35


     /tmp/ccSU3S2v.s:853    .text:00000000000004f4 .LVL102
     /tmp/ccSU3S2v.s:873    .text:000000000000051c .LVL107
     /tmp/ccSU3S2v.s:876    .text:0000000000000520 .LVL108
     /tmp/ccSU3S2v.s:857    .text:0000000000000500 .LVL104
     /tmp/ccSU3S2v.s:862    .text:0000000000000508 .LVL105
     /tmp/ccSU3S2v.s:300    .text:0000000000000154 .LVL32
     /tmp/ccSU3S2v.s:367    .text:00000000000001e0 .LVL39
     /tmp/ccSU3S2v.s:376    .text:00000000000001f0 .LVL41
     /tmp/ccSU3S2v.s:372    .text:00000000000001e8 .LVL40
     /tmp/ccSU3S2v.s:330    .text:0000000000000190 .LVL33
     /tmp/ccSU3S2v.s:383    .text:00000000000001f4 .LVL42
     /tmp/ccSU3S2v.s:334    .text:000000000000019c .LVL35
     /tmp/ccSU3S2v.s:341    .text:00000000000001ac .LVL36
     /tmp/ccSU3S2v.s:398    .text:0000000000000200 .LVL44
     /tmp/ccSU3S2v.s:415    .text:0000000000000220 .LVL45
     /tmp/ccSU3S2v.s:500    .text:00000000000002ac .LVL55
     /tmp/ccSU3S2v.s:467    .text:0000000000000278 .LVL50
     /tmp/ccSU3S2v.s:473    .text:0000000000000284 .LVL52
     /tmp/ccSU3S2v.s:489    .text:000000000000029c .LVL54
     /tmp/ccSU3S2v.s:422    .text:000000000000022c .LVL47
     /tmp/ccSU3S2v.s:449    .text:0000000000000250 .LVL49
     /tmp/ccSU3S2v.s:482    .text:0000000000000298 .LVL53
     /tmp/ccSU3S2v.s:696    .text:00000000000003f0 .LVL83
     /tmp/ccSU3S2v.s:725    .text:000000000000042c .LVL86
     /tmp/ccSU3S2v.s:821    .text:00000000000004c8 .LVL100
     /tmp/ccSU3S2v.s:785    .text:0000000000000488 .LVL95
     /tmp/ccSU3S2v.s:818    .text:00000000000004c4 .LVL99
     /tmp/ccSU3S2v.s:738    .text:0000000000000438 .LVL89
     /tmp/ccSU3S2v.s:760    .text:0000000000000460 .LVL92
     /tmp/ccSU3S2v.s:764    .text:0000000000000464 .LVL93
     /tmp/ccSU3S2v.s:815    .text:00000000000004c0 .LVL98
     /tmp/ccSU3S2v.s:947    .debug_info:0000000000000000 .Ldebug_info0
     /tmp/ccSU3S2v.s:419    .text:0000000000000228 .LBB5
     /tmp/ccSU3S2v.s:429    .text:0000000000000234 .LBE5
     /tmp/ccSU3S2v.s:431    .text:0000000000000234 .LBB9
     /tmp/ccSU3S2v.s:486    .text:0000000000000298 .LBE9

NO UNDEFINED SYMBOLS
