GAS LISTING /tmp/ccdO8xmZ.s 			page 1


   1              		.file	"buddyAllocator.cpp"
   2              		.option pic
   3              		.option norelax
   4              		.text
   5              	.Ltext0:
   6              		.align	2
   7              		.globl	_Z12getBlockAddrm
   9              	_Z12getBlockAddrm:
  10              	.LFB9:
  11              		.file 1 "src/buddyAllocator.cpp"
   1:src/buddyAllocator.cpp **** #include "../h/buddyAllocator.hpp"
   2:src/buddyAllocator.cpp **** #include "../h/KConsole.hpp"
   3:src/buddyAllocator.cpp **** 
   4:src/buddyAllocator.cpp **** #define BLOCK_SIZE 4096
   5:src/buddyAllocator.cpp **** 
   6:src/buddyAllocator.cpp **** buddyAllocator* buddy_init(void* addr, size_t numOfBlocks)
   7:src/buddyAllocator.cpp **** {
   8:src/buddyAllocator.cpp ****     KConsole::trapPrintString("Buddy initialization\n");
   9:src/buddyAllocator.cpp ****     size_t blockAddr = getBlockAddr((size_t)addr); //alling the address
  10:src/buddyAllocator.cpp ****     size_t buddyAddr = (size_t)addr;
  11:src/buddyAllocator.cpp ****     KConsole::trapPrintInt(blockAddr,16); KConsole::trapPrintString("\n");
  12:src/buddyAllocator.cpp ****     KConsole::trapPrintInt(buddyAddr,16); KConsole::trapPrintString("\n");
  13:src/buddyAllocator.cpp ****     if((size_t)addr != blockAddr) // if start address not aligned
  14:src/buddyAllocator.cpp ****     {
  15:src/buddyAllocator.cpp ****         buddyAddr = getNextBlockAddr(blockAddr);
  16:src/buddyAllocator.cpp ****         numOfBlocks--; //have to discard one block
  17:src/buddyAllocator.cpp ****     }
  18:src/buddyAllocator.cpp ****     KConsole::trapPrintString("Buddy metadata address: ");
  19:src/buddyAllocator.cpp ****     KConsole::trapPrintInt(buddyAddr,16); KConsole::trapPrintString("\n");
  20:src/buddyAllocator.cpp ****     numOfBlocks--; // take one block for buddy metadata
  21:src/buddyAllocator.cpp ****     buddyAllocator* buddy = (buddyAllocator*)buddyAddr;
  22:src/buddyAllocator.cpp ****     buddy->startAddr = (void*)getNextBlockAddr(buddyAddr);
  23:src/buddyAllocator.cpp ****     buddy->numOfBlocks = numOfBlocks;
  24:src/buddyAllocator.cpp ****     buddy->numOfFreeBlocks = numOfBlocks;
  25:src/buddyAllocator.cpp ****     buddy->maxLevel = getDeg2Floor(numOfBlocks);
  26:src/buddyAllocator.cpp **** 
  27:src/buddyAllocator.cpp ****     for(size_t i = 0; i <= buddy->maxLevel;i++)
  28:src/buddyAllocator.cpp ****         buddy->bucket[i].first = buddy->bucket[i].last = nullptr;
  29:src/buddyAllocator.cpp **** 
  30:src/buddyAllocator.cpp ****     //TODO
  31:src/buddyAllocator.cpp ****     //maybe do it differently, like putting in chunks of power of 2
  32:src/buddyAllocator.cpp ****     for(size_t i = 0;i < numOfBlocks;i++)
  33:src/buddyAllocator.cpp ****         addBlocks(buddy, (block*)buddy->startAddr + i, 0);
  34:src/buddyAllocator.cpp **** 
  35:src/buddyAllocator.cpp ****     return buddy;
  36:src/buddyAllocator.cpp **** }
  37:src/buddyAllocator.cpp **** 
  38:src/buddyAllocator.cpp **** void* buddy_alloc(buddyAllocator* buddy, size_t numOfBlocks)
  39:src/buddyAllocator.cpp **** {
  40:src/buddyAllocator.cpp ****     KConsole::trapPrintString("Buddy allocation: ");
  41:src/buddyAllocator.cpp ****     KConsole::trapPrintInt(numOfBlocks); KConsole::trapPrintString("\n");
  42:src/buddyAllocator.cpp ****     size_t level = getDeg2Ceil(numOfBlocks);
  43:src/buddyAllocator.cpp ****     KConsole::trapPrintString("Level: ");
  44:src/buddyAllocator.cpp ****     KConsole::trapPrintInt(level); KConsole::trapPrintString("\n");
  45:src/buddyAllocator.cpp ****     for(size_t i = level; i <= buddy->maxLevel;i++)
  46:src/buddyAllocator.cpp ****     {
  47:src/buddyAllocator.cpp ****         if(buddy->bucket[i].first != nullptr)
GAS LISTING /tmp/ccdO8xmZ.s 			page 2


  48:src/buddyAllocator.cpp ****         {
  49:src/buddyAllocator.cpp ****             buddyBlock* ret = buddy->bucket[i].first;
  50:src/buddyAllocator.cpp ****             KConsole::trapPrintString("Found the block:");
  51:src/buddyAllocator.cpp ****             KConsole::trapPrintInt((size_t)ret, 16); KConsole::trapPrintString("\n");
  52:src/buddyAllocator.cpp ****             buddy->bucket[i].first = ret->next;
  53:src/buddyAllocator.cpp ****             if(buddy->bucket[i].first == nullptr)
  54:src/buddyAllocator.cpp ****                 buddy->bucket[i].last = nullptr;
  55:src/buddyAllocator.cpp ****             split(buddy, (void*)ret, level, i, true);
  56:src/buddyAllocator.cpp ****             return ret;
  57:src/buddyAllocator.cpp ****         }
  58:src/buddyAllocator.cpp ****     }
  59:src/buddyAllocator.cpp **** 
  60:src/buddyAllocator.cpp ****     return nullptr;
  61:src/buddyAllocator.cpp **** }
  62:src/buddyAllocator.cpp **** 
  63:src/buddyAllocator.cpp **** //split chunks into smaller chunks, until it is necessary
  64:src/buddyAllocator.cpp **** void split(buddyAllocator* buddy, void* addr, size_t finalLevel, size_t currLevel, bool splitMore)
  65:src/buddyAllocator.cpp **** {
  66:src/buddyAllocator.cpp ****     if(!splitMore)
  67:src/buddyAllocator.cpp ****     {
  68:src/buddyAllocator.cpp ****         addBlockToLevel(buddy, addr, currLevel);
  69:src/buddyAllocator.cpp ****     }
  70:src/buddyAllocator.cpp ****     else
  71:src/buddyAllocator.cpp ****     {
  72:src/buddyAllocator.cpp ****         if(currLevel == finalLevel)
  73:src/buddyAllocator.cpp ****             return;
  74:src/buddyAllocator.cpp ****         size_t buddyBlock = getBuddyBlockAddr(buddy, addr, currLevel - 1); // currLevel - 1 for nex
  75:src/buddyAllocator.cpp ****         split(buddy, (void*)buddyBlock, finalLevel, currLevel - 1, false); // continue splitting
  76:src/buddyAllocator.cpp ****         split(buddy, addr, finalLevel, currLevel - 1, true); // continue splitting
  77:src/buddyAllocator.cpp ****     }
  78:src/buddyAllocator.cpp **** }
  79:src/buddyAllocator.cpp **** 
  80:src/buddyAllocator.cpp **** //TODO
  81:src/buddyAllocator.cpp **** //maybe check if address is aligned to start of block
  82:src/buddyAllocator.cpp **** void buddy_free(buddyAllocator* buddy, void* addr, size_t numOfBlocks)
  83:src/buddyAllocator.cpp **** {
  84:src/buddyAllocator.cpp ****     KConsole::trapPrintString("Buddy free: ");
  85:src/buddyAllocator.cpp ****     KConsole::trapPrintInt((size_t)addr,16); KConsole::trapPrintString(" ");
  86:src/buddyAllocator.cpp ****     KConsole::trapPrintInt(numOfBlocks); KConsole::trapPrintString("\n");
  87:src/buddyAllocator.cpp ****     size_t level = getDeg2Ceil(numOfBlocks);
  88:src/buddyAllocator.cpp ****     addBlocks(buddy, addr, level); //adds free blocks
  89:src/buddyAllocator.cpp **** }
  90:src/buddyAllocator.cpp **** 
  91:src/buddyAllocator.cpp **** size_t getBlockAddr(size_t addr)
  92:src/buddyAllocator.cpp **** {
  12              		.loc 1 92 1
  13              		.cfi_startproc
  14              	.LVL0:
  15 0000 130101FF 		addi	sp,sp,-16
  16              		.cfi_def_cfa_offset 16
  17 0004 23348100 		sd	s0,8(sp)
  18              		.cfi_offset 8, -8
  19 0008 13040101 		addi	s0,sp,16
  20              		.cfi_def_cfa 8, 0
  93:src/buddyAllocator.cpp ****     size_t mask = ((size_t)-1) << BLOCK_SIZE_POWER_2;
  21              		.loc 1 93 5
  22              	.LVL1:
GAS LISTING /tmp/ccdO8xmZ.s 			page 3


  94:src/buddyAllocator.cpp ****     return addr & mask;
  23              		.loc 1 94 5
  95:src/buddyAllocator.cpp **** }
  24              		.loc 1 95 1 is_stmt 0
  25 000c B7F7FFFF 		li	a5,-4096
  26 0010 3375F500 		and	a0,a0,a5
  27              	.LVL2:
  28 0014 03348100 		ld	s0,8(sp)
  29              		.cfi_restore 8
  30              		.cfi_def_cfa 2, 16
  31 0018 13010101 		addi	sp,sp,16
  32              		.cfi_def_cfa_offset 0
  33 001c 67800000 		jr	ra
  34              		.cfi_endproc
  35              	.LFE9:
  37              		.align	2
  38              		.globl	_Z16getNextBlockAddrm
  40              	_Z16getNextBlockAddrm:
  41              	.LFB10:
  96:src/buddyAllocator.cpp **** size_t getNextBlockAddr(size_t addr)
  97:src/buddyAllocator.cpp **** {
  42              		.loc 1 97 1 is_stmt 1
  43              		.cfi_startproc
  44              	.LVL3:
  45 0020 130101FF 		addi	sp,sp,-16
  46              		.cfi_def_cfa_offset 16
  47 0024 23341100 		sd	ra,8(sp)
  48 0028 23308100 		sd	s0,0(sp)
  49              		.cfi_offset 1, -8
  50              		.cfi_offset 8, -16
  51 002c 13040101 		addi	s0,sp,16
  52              		.cfi_def_cfa 8, 0
  98:src/buddyAllocator.cpp ****     size_t currBlock = getBlockAddr(addr);
  53              		.loc 1 98 5
  54              		.loc 1 98 36 is_stmt 0
  55 0030 97000000 		call	_Z12getBlockAddrm
  55      E7800000 
  56              	.LVL4:
  99:src/buddyAllocator.cpp ****     return currBlock + BLOCK_SIZE;
  57              		.loc 1 99 5 is_stmt 1
 100:src/buddyAllocator.cpp **** }
  58              		.loc 1 100 1 is_stmt 0
  59 0038 B7170000 		li	a5,4096
  60 003c 3305F500 		add	a0,a0,a5
  61              	.LVL5:
  62 0040 83308100 		ld	ra,8(sp)
  63              		.cfi_restore 1
  64 0044 03340100 		ld	s0,0(sp)
  65              		.cfi_restore 8
  66              		.cfi_def_cfa 2, 16
  67 0048 13010101 		addi	sp,sp,16
  68              		.cfi_def_cfa_offset 0
  69 004c 67800000 		jr	ra
  70              		.cfi_endproc
  71              	.LFE10:
  73              		.align	2
  74              		.globl	_Z12getDeg2Floorm
GAS LISTING /tmp/ccdO8xmZ.s 			page 4


  76              	_Z12getDeg2Floorm:
  77              	.LFB11:
 101:src/buddyAllocator.cpp **** 
 102:src/buddyAllocator.cpp **** size_t getDeg2Floor(size_t num)
 103:src/buddyAllocator.cpp **** {
  78              		.loc 1 103 1 is_stmt 1
  79              		.cfi_startproc
  80              	.LVL6:
  81 0050 130101FF 		addi	sp,sp,-16
  82              		.cfi_def_cfa_offset 16
  83 0054 23348100 		sd	s0,8(sp)
  84              		.cfi_offset 8, -8
  85 0058 13040101 		addi	s0,sp,16
  86              		.cfi_def_cfa 8, 0
 104:src/buddyAllocator.cpp ****     size_t x = 1;
  87              		.loc 1 104 5
  88              	.LVL7:
 105:src/buddyAllocator.cpp ****     size_t deg = 0;
  89              		.loc 1 105 5
  90              		.loc 1 105 12 is_stmt 0
  91 005c 13070000 		li	a4,0
 104:src/buddyAllocator.cpp ****     size_t x = 1;
  92              		.loc 1 104 12
  93 0060 93071000 		li	a5,1
  94              	.LVL8:
  95              	.L7:
 106:src/buddyAllocator.cpp ****     while(x <= num)
  96              		.loc 1 106 5 is_stmt 1
  97              		.loc 1 106 13
  98 0064 6368F500 		bgtu	a5,a0,.L6
 107:src/buddyAllocator.cpp ****     {
 108:src/buddyAllocator.cpp ****         deg++;
  99              		.loc 1 108 9
 100              		.loc 1 108 12 is_stmt 0
 101 0068 13071700 		addi	a4,a4,1
 102              	.LVL9:
 109:src/buddyAllocator.cpp ****         x<<=1;
 103              		.loc 1 109 9 is_stmt 1
 104              		.loc 1 109 10 is_stmt 0
 105 006c 93971700 		slli	a5,a5,1
 106              	.LVL10:
 106:src/buddyAllocator.cpp ****     while(x <= num)
 107              		.loc 1 106 5
 108 0070 6FF05FFF 		j	.L7
 109              	.L6:
 110:src/buddyAllocator.cpp ****     }
 111:src/buddyAllocator.cpp ****     return deg - 1;
 110              		.loc 1 111 5 is_stmt 1
 112:src/buddyAllocator.cpp **** }
 111              		.loc 1 112 1 is_stmt 0
 112 0074 1305F7FF 		addi	a0,a4,-1
 113              	.LVL11:
 114 0078 03348100 		ld	s0,8(sp)
 115              		.cfi_restore 8
 116              		.cfi_def_cfa 2, 16
 117 007c 13010101 		addi	sp,sp,16
 118              		.cfi_def_cfa_offset 0
GAS LISTING /tmp/ccdO8xmZ.s 			page 5


 119 0080 67800000 		jr	ra
 120              		.cfi_endproc
 121              	.LFE11:
 123              		.align	2
 124              		.globl	_Z11getDeg2Ceilm
 126              	_Z11getDeg2Ceilm:
 127              	.LFB12:
 113:src/buddyAllocator.cpp **** 
 114:src/buddyAllocator.cpp **** size_t getDeg2Ceil(size_t num)
 115:src/buddyAllocator.cpp **** {
 128              		.loc 1 115 1 is_stmt 1
 129              		.cfi_startproc
 130              	.LVL12:
 131 0084 130101FF 		addi	sp,sp,-16
 132              		.cfi_def_cfa_offset 16
 133 0088 23348100 		sd	s0,8(sp)
 134              		.cfi_offset 8, -8
 135 008c 13040101 		addi	s0,sp,16
 136              		.cfi_def_cfa 8, 0
 137 0090 13070500 		mv	a4,a0
 116:src/buddyAllocator.cpp ****     size_t x = 1;
 138              		.loc 1 116 5
 139              	.LVL13:
 117:src/buddyAllocator.cpp ****     size_t deg = 0;
 140              		.loc 1 117 5
 141              		.loc 1 117 12 is_stmt 0
 142 0094 13050000 		li	a0,0
 143              	.LVL14:
 116:src/buddyAllocator.cpp ****     size_t x = 1;
 144              		.loc 1 116 12
 145 0098 93071000 		li	a5,1
 146              	.LVL15:
 147              	.L11:
 118:src/buddyAllocator.cpp ****     while(x < num)
 148              		.loc 1 118 5 is_stmt 1
 149              		.loc 1 118 13
 150 009c 63F8E700 		bgeu	a5,a4,.L9
 119:src/buddyAllocator.cpp ****     {
 120:src/buddyAllocator.cpp ****         deg++;
 151              		.loc 1 120 9
 152              		.loc 1 120 12 is_stmt 0
 153 00a0 13051500 		addi	a0,a0,1
 154              	.LVL16:
 121:src/buddyAllocator.cpp ****         x<<=1;
 155              		.loc 1 121 9 is_stmt 1
 156              		.loc 1 121 10 is_stmt 0
 157 00a4 93971700 		slli	a5,a5,1
 158              	.LVL17:
 118:src/buddyAllocator.cpp ****     while(x < num)
 159              		.loc 1 118 5
 160 00a8 6FF05FFF 		j	.L11
 161              	.L9:
 122:src/buddyAllocator.cpp ****     }
 123:src/buddyAllocator.cpp ****     return deg;
 124:src/buddyAllocator.cpp **** }
 162              		.loc 1 124 1
 163 00ac 03348100 		ld	s0,8(sp)
GAS LISTING /tmp/ccdO8xmZ.s 			page 6


 164              		.cfi_restore 8
 165              		.cfi_def_cfa 2, 16
 166 00b0 13010101 		addi	sp,sp,16
 167              		.cfi_def_cfa_offset 0
 168 00b4 67800000 		jr	ra
 169              		.cfi_endproc
 170              	.LFE12:
 172              		.align	2
 173              		.globl	_Z15addBlockToLevelP14buddyAllocatorPvm
 175              	_Z15addBlockToLevelP14buddyAllocatorPvm:
 176              	.LFB14:
 125:src/buddyAllocator.cpp **** 
 126:src/buddyAllocator.cpp **** //TODO
 127:src/buddyAllocator.cpp **** //maybe change it to work with levels instead of numOfBlocks
 128:src/buddyAllocator.cpp **** //function to add free blocks to the buddy
 129:src/buddyAllocator.cpp **** void addBlocks(buddyAllocator* buddy, void* addr, size_t level)
 130:src/buddyAllocator.cpp **** {
 131:src/buddyAllocator.cpp ****     if(level == buddy->maxLevel)
 132:src/buddyAllocator.cpp ****     {
 133:src/buddyAllocator.cpp ****         addBlockToLevel(buddy, addr, level);
 134:src/buddyAllocator.cpp ****         return;
 135:src/buddyAllocator.cpp ****     }
 136:src/buddyAllocator.cpp ****     size_t buddyBlockAddr = getBuddyBlockAddr(buddy,addr,level);
 137:src/buddyAllocator.cpp ****     //KConsole::trapPrintString("Buddy block addr ");
 138:src/buddyAllocator.cpp ****     //KConsole::trapPrintInt(buddyBlockAddr, 16); KConsole::trapPrintString("\n");
 139:src/buddyAllocator.cpp ****     buddyBlock* curr = buddy->bucket[level].first;
 140:src/buddyAllocator.cpp ****     buddyBlock* prev = nullptr;
 141:src/buddyAllocator.cpp ****     while(curr != nullptr)
 142:src/buddyAllocator.cpp ****     {
 143:src/buddyAllocator.cpp ****         if((size_t)curr == buddyBlockAddr)
 144:src/buddyAllocator.cpp ****         {
 145:src/buddyAllocator.cpp ****             if(prev != nullptr)
 146:src/buddyAllocator.cpp ****             {
 147:src/buddyAllocator.cpp ****                 prev->next = curr->next;
 148:src/buddyAllocator.cpp ****                 if(curr == buddy->bucket[level].last)
 149:src/buddyAllocator.cpp ****                     buddy->bucket[level].last = prev;
 150:src/buddyAllocator.cpp ****             }
 151:src/buddyAllocator.cpp ****             else
 152:src/buddyAllocator.cpp ****             {
 153:src/buddyAllocator.cpp ****                 if(curr->next == nullptr)
 154:src/buddyAllocator.cpp ****                     buddy->bucket[level].first = buddy->bucket[level].last = nullptr;
 155:src/buddyAllocator.cpp ****                 else
 156:src/buddyAllocator.cpp ****                     buddy->bucket[level].first = curr->next;
 157:src/buddyAllocator.cpp ****             }
 158:src/buddyAllocator.cpp ****             if((size_t)addr < buddyBlockAddr) addBlocks(buddy, addr, level + 1); //merge two chunks
 159:src/buddyAllocator.cpp ****             else addBlocks(buddy, (void*)buddyBlockAddr, level + 1); //merge two chunks
 160:src/buddyAllocator.cpp ****             return;
 161:src/buddyAllocator.cpp ****         }
 162:src/buddyAllocator.cpp **** 
 163:src/buddyAllocator.cpp ****         prev = curr;
 164:src/buddyAllocator.cpp ****         curr = curr->next;
 165:src/buddyAllocator.cpp ****     }
 166:src/buddyAllocator.cpp **** 
 167:src/buddyAllocator.cpp ****     addBlockToLevel(buddy, addr, level);
 168:src/buddyAllocator.cpp **** }
 169:src/buddyAllocator.cpp **** 
 170:src/buddyAllocator.cpp **** //adds free block to level
GAS LISTING /tmp/ccdO8xmZ.s 			page 7


 171:src/buddyAllocator.cpp **** void addBlockToLevel(buddyAllocator* buddy, void* addr, size_t level)
 172:src/buddyAllocator.cpp **** {
 177              		.loc 1 172 1 is_stmt 1
 178              		.cfi_startproc
 179              	.LVL18:
 180 00b8 130101FF 		addi	sp,sp,-16
 181              		.cfi_def_cfa_offset 16
 182 00bc 23348100 		sd	s0,8(sp)
 183              		.cfi_offset 8, -8
 184 00c0 13040101 		addi	s0,sp,16
 185              		.cfi_def_cfa 8, 0
 173:src/buddyAllocator.cpp ****     buddyBlock* newBlock = (buddyBlock*)addr;
 186              		.loc 1 173 5
 187              	.LVL19:
 174:src/buddyAllocator.cpp ****     newBlock->next = nullptr;
 188              		.loc 1 174 5
 189              		.loc 1 174 20 is_stmt 0
 190 00c4 23B00500 		sd	zero,0(a1)
 175:src/buddyAllocator.cpp ****     if(buddy->bucket[level].first == nullptr)
 191              		.loc 1 175 5 is_stmt 1
 192              		.loc 1 175 29 is_stmt 0
 193 00c8 93072600 		addi	a5,a2,2
 194 00cc 93974700 		slli	a5,a5,4
 195 00d0 B307F500 		add	a5,a0,a5
 196 00d4 83B70700 		ld	a5,0(a5)
 197              		.loc 1 175 5
 198 00d8 63840702 		beqz	a5,.L17
 176:src/buddyAllocator.cpp ****     {
 177:src/buddyAllocator.cpp ****         buddy->bucket[level].first = buddy->bucket[level].last = newBlock;
 178:src/buddyAllocator.cpp ****     }
 179:src/buddyAllocator.cpp ****     else
 180:src/buddyAllocator.cpp ****     {
 181:src/buddyAllocator.cpp ****         buddy->bucket[level].last->next = newBlock;
 199              		.loc 1 181 9 is_stmt 1
 200              		.loc 1 181 30 is_stmt 0
 201 00dc 13062600 		addi	a2,a2,2
 202              	.LVL20:
 203 00e0 13164600 		slli	a2,a2,4
 204              	.LVL21:
 205 00e4 3306C500 		add	a2,a0,a2
 206 00e8 83378600 		ld	a5,8(a2)
 207              		.loc 1 181 41
 208 00ec 23B0B700 		sd	a1,0(a5)
 182:src/buddyAllocator.cpp ****         buddy->bucket[level].last = newBlock;
 209              		.loc 1 182 9 is_stmt 1
 210              		.loc 1 182 35 is_stmt 0
 211 00f0 2334B600 		sd	a1,8(a2)
 212              	.L13:
 183:src/buddyAllocator.cpp ****     }
 184:src/buddyAllocator.cpp **** }
 213              		.loc 1 184 1
 214 00f4 03348100 		ld	s0,8(sp)
 215              		.cfi_remember_state
 216              		.cfi_restore 8
 217              		.cfi_def_cfa 2, 16
 218 00f8 13010101 		addi	sp,sp,16
 219              		.cfi_def_cfa_offset 0
GAS LISTING /tmp/ccdO8xmZ.s 			page 8


 220 00fc 67800000 		jr	ra
 221              	.LVL22:
 222              	.L17:
 223              		.cfi_restore_state
 177:src/buddyAllocator.cpp ****     }
 224              		.loc 1 177 9 is_stmt 1
 177:src/buddyAllocator.cpp ****     }
 225              		.loc 1 177 64 is_stmt 0
 226 0100 13062600 		addi	a2,a2,2
 227              	.LVL23:
 228 0104 13164600 		slli	a2,a2,4
 229              	.LVL24:
 230 0108 3306C500 		add	a2,a0,a2
 231 010c 2334B600 		sd	a1,8(a2)
 177:src/buddyAllocator.cpp ****     }
 232              		.loc 1 177 36
 233 0110 2330B600 		sd	a1,0(a2)
 234 0114 6FF01FFE 		j	.L13
 235              		.cfi_endproc
 236              	.LFE14:
 238              		.align	2
 239              		.globl	_Z17getBuddyBlockAddrP14buddyAllocatorPvm
 241              	_Z17getBuddyBlockAddrP14buddyAllocatorPvm:
 242              	.LFB15:
 185:src/buddyAllocator.cpp **** 
 186:src/buddyAllocator.cpp **** size_t getBuddyBlockAddr(buddyAllocator* buddy, void* addr, size_t level)
 187:src/buddyAllocator.cpp **** {
 243              		.loc 1 187 1 is_stmt 1
 244              		.cfi_startproc
 245              	.LVL25:
 246 0118 130101FF 		addi	sp,sp,-16
 247              		.cfi_def_cfa_offset 16
 248 011c 23348100 		sd	s0,8(sp)
 249              		.cfi_offset 8, -8
 250 0120 13040101 		addi	s0,sp,16
 251              		.cfi_def_cfa 8, 0
 188:src/buddyAllocator.cpp ****     size_t diff = BLOCK_SIZE << level;
 252              		.loc 1 188 5
 253              		.loc 1 188 30 is_stmt 0
 254 0124 B7170000 		li	a5,4096
 255 0128 3B96C700 		sllw	a2,a5,a2
 256              	.LVL26:
 189:src/buddyAllocator.cpp ****     size_t off = (size_t)addr - (size_t)buddy->startAddr;
 257              		.loc 1 189 5 is_stmt 1
 258              		.loc 1 189 48 is_stmt 0
 259 012c 83378500 		ld	a5,8(a0)
 260              		.loc 1 189 12
 261 0130 B387F540 		sub	a5,a1,a5
 262              	.LVL27:
 190:src/buddyAllocator.cpp ****     if(diff & off)
 263              		.loc 1 190 5 is_stmt 1
 264              		.loc 1 190 13 is_stmt 0
 265 0134 B377F600 		and	a5,a2,a5
 266              	.LVL28:
 267              		.loc 1 190 5
 268 0138 638A0700 		beqz	a5,.L19
 191:src/buddyAllocator.cpp ****         return (size_t)addr - diff;
GAS LISTING /tmp/ccdO8xmZ.s 			page 9


 269              		.loc 1 191 9 is_stmt 1
 270              		.loc 1 191 31 is_stmt 0
 271 013c 3385C540 		sub	a0,a1,a2
 272              	.LVL29:
 273              	.L18:
 192:src/buddyAllocator.cpp ****     else
 193:src/buddyAllocator.cpp ****         return (size_t)addr + diff;
 194:src/buddyAllocator.cpp **** }
 274              		.loc 1 194 1
 275 0140 03348100 		ld	s0,8(sp)
 276              		.cfi_remember_state
 277              		.cfi_restore 8
 278              		.cfi_def_cfa 2, 16
 279 0144 13010101 		addi	sp,sp,16
 280              		.cfi_def_cfa_offset 0
 281 0148 67800000 		jr	ra
 282              	.LVL30:
 283              	.L19:
 284              		.cfi_restore_state
 193:src/buddyAllocator.cpp **** }
 285              		.loc 1 193 9 is_stmt 1
 193:src/buddyAllocator.cpp **** }
 286              		.loc 1 193 31 is_stmt 0
 287 014c 3385C500 		add	a0,a1,a2
 288              	.LVL31:
 289 0150 6FF01FFF 		j	.L18
 290              		.cfi_endproc
 291              	.LFE15:
 293              		.align	2
 294              		.globl	_Z5splitP14buddyAllocatorPvmmb
 296              	_Z5splitP14buddyAllocatorPvmmb:
 297              	.LFB7:
  65:src/buddyAllocator.cpp ****     if(!splitMore)
 298              		.loc 1 65 1 is_stmt 1
 299              		.cfi_startproc
 300              	.LVL32:
 301 0154 130101FD 		addi	sp,sp,-48
 302              		.cfi_def_cfa_offset 48
 303 0158 23341102 		sd	ra,40(sp)
 304 015c 23308102 		sd	s0,32(sp)
 305 0160 233C9100 		sd	s1,24(sp)
 306 0164 23382101 		sd	s2,16(sp)
 307 0168 23343101 		sd	s3,8(sp)
 308 016c 23304101 		sd	s4,0(sp)
 309              		.cfi_offset 1, -8
 310              		.cfi_offset 8, -16
 311              		.cfi_offset 9, -24
 312              		.cfi_offset 18, -32
 313              		.cfi_offset 19, -40
 314              		.cfi_offset 20, -48
 315 0170 13040103 		addi	s0,sp,48
 316              		.cfi_def_cfa 8, 0
 317 0174 13090500 		mv	s2,a0
 318 0178 138A0500 		mv	s4,a1
  66:src/buddyAllocator.cpp ****     {
 319              		.loc 1 66 5
 320              	.LBB2:
GAS LISTING /tmp/ccdO8xmZ.s 			page 10


 321 017c 630A0706 		beqz	a4,.L26
 322 0180 93090600 		mv	s3,a2
 323              	.LBB3:
  72:src/buddyAllocator.cpp ****             return;
 324              		.loc 1 72 9
 325 0184 6386C604 		beq	a3,a2,.L22
  74:src/buddyAllocator.cpp ****         split(buddy, (void*)buddyBlock, finalLevel, currLevel - 1, false); // continue splitting
 326              		.loc 1 74 9
  74:src/buddyAllocator.cpp ****         split(buddy, (void*)buddyBlock, finalLevel, currLevel - 1, false); // continue splitting
 327              		.loc 1 74 46 is_stmt 0
 328 0188 9384F6FF 		addi	s1,a3,-1
 329 018c 13860400 		mv	a2,s1
 330              	.LVL33:
 331 0190 97000000 		call	_Z17getBuddyBlockAddrP14buddyAllocatorPvm
 331      E7800000 
 332              	.LVL34:
 333 0198 93050500 		mv	a1,a0
 334              	.LVL35:
  75:src/buddyAllocator.cpp ****         split(buddy, addr, finalLevel, currLevel - 1, true); // continue splitting
 335              		.loc 1 75 9 is_stmt 1
  75:src/buddyAllocator.cpp ****         split(buddy, addr, finalLevel, currLevel - 1, true); // continue splitting
 336              		.loc 1 75 14 is_stmt 0
 337 019c 13070000 		li	a4,0
 338 01a0 93860400 		mv	a3,s1
 339 01a4 13860900 		mv	a2,s3
 340 01a8 13050900 		mv	a0,s2
 341              	.LVL36:
 342 01ac 97000000 		call	_Z5splitP14buddyAllocatorPvmmb
 342      E7800000 
 343              	.LVL37:
  76:src/buddyAllocator.cpp ****     }
 344              		.loc 1 76 9 is_stmt 1
  76:src/buddyAllocator.cpp ****     }
 345              		.loc 1 76 14 is_stmt 0
 346 01b4 13071000 		li	a4,1
 347 01b8 93860400 		mv	a3,s1
 348 01bc 13860900 		mv	a2,s3
 349 01c0 93050A00 		mv	a1,s4
 350 01c4 13050900 		mv	a0,s2
 351 01c8 97000000 		call	_Z5splitP14buddyAllocatorPvmmb
 351      E7800000 
 352              	.LVL38:
 353              	.L22:
 354              	.LBE3:
 355              	.LBE2:
  78:src/buddyAllocator.cpp **** 
 356              		.loc 1 78 1
 357 01d0 83308102 		ld	ra,40(sp)
 358              		.cfi_remember_state
 359              		.cfi_restore 1
 360 01d4 03340102 		ld	s0,32(sp)
 361              		.cfi_restore 8
 362              		.cfi_def_cfa 2, 48
 363 01d8 83348101 		ld	s1,24(sp)
 364              		.cfi_restore 9
 365 01dc 03390101 		ld	s2,16(sp)
 366              		.cfi_restore 18
GAS LISTING /tmp/ccdO8xmZ.s 			page 11


 367              	.LVL39:
 368 01e0 83398100 		ld	s3,8(sp)
 369              		.cfi_restore 19
 370 01e4 033A0100 		ld	s4,0(sp)
 371              		.cfi_restore 20
 372              	.LVL40:
 373 01e8 13010103 		addi	sp,sp,48
 374              		.cfi_def_cfa_offset 0
 375 01ec 67800000 		jr	ra
 376              	.LVL41:
 377              	.L26:
 378              		.cfi_restore_state
 379              	.LBB4:
  68:src/buddyAllocator.cpp ****     }
 380              		.loc 1 68 9 is_stmt 1
  68:src/buddyAllocator.cpp ****     }
 381              		.loc 1 68 24 is_stmt 0
 382 01f0 13860600 		mv	a2,a3
 383              	.LVL42:
 384 01f4 97000000 		call	_Z15addBlockToLevelP14buddyAllocatorPvm
 384      E7800000 
 385              	.LVL43:
 386 01fc 6FF05FFD 		j	.L22
 387              	.LBE4:
 388              		.cfi_endproc
 389              	.LFE7:
 391              		.section	.rodata.str1.8,"aMS",@progbits,1
 392              		.align	3
 393              	.LC0:
 394 0000 42756464 		.string	"Buddy allocation: "
 394      7920616C 
 394      6C6F6361 
 394      74696F6E 
 394      3A2000
 395 0013 00000000 		.align	3
 395      00
 396              	.LC1:
 397 0018 0A00     		.string	"\n"
 398 001a 00000000 		.align	3
 398      0000
 399              	.LC2:
 400 0020 4C657665 		.string	"Level: "
 400      6C3A2000 
 401              		.align	3
 402              	.LC3:
 403 0028 466F756E 		.string	"Found the block:"
 403      64207468 
 403      6520626C 
 403      6F636B3A 
 403      00
 404              		.text
 405              		.align	2
 406              		.globl	_Z11buddy_allocP14buddyAllocatorm
 408              	_Z11buddy_allocP14buddyAllocatorm:
 409              	.LFB6:
  39:src/buddyAllocator.cpp ****     KConsole::trapPrintString("Buddy allocation: ");
 410              		.loc 1 39 1 is_stmt 1
GAS LISTING /tmp/ccdO8xmZ.s 			page 12


 411              		.cfi_startproc
 412              	.LVL44:
 413 0200 130101FD 		addi	sp,sp,-48
 414              		.cfi_def_cfa_offset 48
 415 0204 23341102 		sd	ra,40(sp)
 416 0208 23308102 		sd	s0,32(sp)
 417 020c 233C9100 		sd	s1,24(sp)
 418 0210 23382101 		sd	s2,16(sp)
 419 0214 23343101 		sd	s3,8(sp)
 420 0218 23304101 		sd	s4,0(sp)
 421              		.cfi_offset 1, -8
 422              		.cfi_offset 8, -16
 423              		.cfi_offset 9, -24
 424              		.cfi_offset 18, -32
 425              		.cfi_offset 19, -40
 426              		.cfi_offset 20, -48
 427 021c 13040103 		addi	s0,sp,48
 428              		.cfi_def_cfa 8, 0
 429 0220 13090500 		mv	s2,a0
 430 0224 93840500 		mv	s1,a1
  40:src/buddyAllocator.cpp ****     KConsole::trapPrintInt(numOfBlocks); KConsole::trapPrintString("\n");
 431              		.loc 1 40 5
  40:src/buddyAllocator.cpp ****     KConsole::trapPrintInt(numOfBlocks); KConsole::trapPrintString("\n");
 432              		.loc 1 40 30 is_stmt 0
 433 0228 17050000 		lla	a0,.LC0
 433      13050500 
 434              	.LVL45:
 435 0230 97000000 		call	_ZN8KConsole15trapPrintStringEPKc@plt
 435      E7800000 
 436              	.LVL46:
  41:src/buddyAllocator.cpp ****     size_t level = getDeg2Ceil(numOfBlocks);
 437              		.loc 1 41 5 is_stmt 1
  41:src/buddyAllocator.cpp ****     size_t level = getDeg2Ceil(numOfBlocks);
 438              		.loc 1 41 27 is_stmt 0
 439 0238 13060000 		li	a2,0
 440 023c 9305A000 		li	a1,10
 441 0240 13850400 		mv	a0,s1
 442 0244 97000000 		call	_ZN8KConsole12trapPrintIntEmii@plt
 442      E7800000 
 443              	.LVL47:
  41:src/buddyAllocator.cpp ****     size_t level = getDeg2Ceil(numOfBlocks);
 444              		.loc 1 41 42 is_stmt 1
  41:src/buddyAllocator.cpp ****     size_t level = getDeg2Ceil(numOfBlocks);
 445              		.loc 1 41 67 is_stmt 0
 446 024c 17050000 		lla	a0,.LC1
 446      13050500 
 447 0254 97000000 		call	_ZN8KConsole15trapPrintStringEPKc@plt
 447      E7800000 
 448              	.LVL48:
  42:src/buddyAllocator.cpp ****     KConsole::trapPrintString("Level: ");
 449              		.loc 1 42 5 is_stmt 1
  42:src/buddyAllocator.cpp ****     KConsole::trapPrintString("Level: ");
 450              		.loc 1 42 31 is_stmt 0
 451 025c 13850400 		mv	a0,s1
 452 0260 97000000 		call	_Z11getDeg2Ceilm
 452      E7800000 
 453              	.LVL49:
GAS LISTING /tmp/ccdO8xmZ.s 			page 13


 454 0268 130A0500 		mv	s4,a0
 455              	.LVL50:
  43:src/buddyAllocator.cpp ****     KConsole::trapPrintInt(level); KConsole::trapPrintString("\n");
 456              		.loc 1 43 5 is_stmt 1
  43:src/buddyAllocator.cpp ****     KConsole::trapPrintInt(level); KConsole::trapPrintString("\n");
 457              		.loc 1 43 30 is_stmt 0
 458 026c 17050000 		lla	a0,.LC2
 458      13050500 
 459              	.LVL51:
 460 0274 97000000 		call	_ZN8KConsole15trapPrintStringEPKc@plt
 460      E7800000 
 461              	.LVL52:
  44:src/buddyAllocator.cpp ****     for(size_t i = level; i <= buddy->maxLevel;i++)
 462              		.loc 1 44 5 is_stmt 1
  44:src/buddyAllocator.cpp ****     for(size_t i = level; i <= buddy->maxLevel;i++)
 463              		.loc 1 44 27 is_stmt 0
 464 027c 13060000 		li	a2,0
 465 0280 9305A000 		li	a1,10
 466 0284 13050A00 		mv	a0,s4
 467 0288 97000000 		call	_ZN8KConsole12trapPrintIntEmii@plt
 467      E7800000 
 468              	.LVL53:
  44:src/buddyAllocator.cpp ****     for(size_t i = level; i <= buddy->maxLevel;i++)
 469              		.loc 1 44 36 is_stmt 1
  44:src/buddyAllocator.cpp ****     for(size_t i = level; i <= buddy->maxLevel;i++)
 470              		.loc 1 44 61 is_stmt 0
 471 0290 17050000 		lla	a0,.LC1
 471      13050500 
 472 0298 97000000 		call	_ZN8KConsole15trapPrintStringEPKc@plt
 472      E7800000 
 473              	.LVL54:
  45:src/buddyAllocator.cpp ****     {
 474              		.loc 1 45 5 is_stmt 1
 475              	.LBB5:
  45:src/buddyAllocator.cpp ****     {
 476              		.loc 1 45 16 is_stmt 0
 477 02a0 93040A00 		mv	s1,s4
 478              	.LVL55:
 479              	.L31:
  45:src/buddyAllocator.cpp ****     {
 480              		.loc 1 45 29 is_stmt 1 discriminator 1
  45:src/buddyAllocator.cpp ****     {
 481              		.loc 1 45 39 is_stmt 0 discriminator 1
 482 02a4 83378901 		ld	a5,24(s2)
  45:src/buddyAllocator.cpp ****     {
 483              		.loc 1 45 29 discriminator 1
 484 02a8 63E0970A 		bltu	a5,s1,.L32
 485              	.LBE5:
  47:src/buddyAllocator.cpp ****         {
 486              		.loc 1 47 9 is_stmt 1
 487              	.LBB9:
 488              	.LBB6:
  47:src/buddyAllocator.cpp ****         {
 489              		.loc 1 47 29 is_stmt 0
 490 02ac 93872400 		addi	a5,s1,2
 491 02b0 93974700 		slli	a5,a5,4
 492 02b4 B307F900 		add	a5,s2,a5
GAS LISTING /tmp/ccdO8xmZ.s 			page 14


 493 02b8 83B90700 		ld	s3,0(a5)
  47:src/buddyAllocator.cpp ****         {
 494              		.loc 1 47 9
 495 02bc 63960900 		bnez	s3,.L34
 496              	.LBE6:
  45:src/buddyAllocator.cpp ****     {
 497              		.loc 1 45 5 is_stmt 1 discriminator 2
 498 02c0 93841400 		addi	s1,s1,1
 499              	.LVL56:
 500 02c4 6FF01FFE 		j	.L31
 501              	.L34:
 502              	.LBB8:
 503              	.LBB7:
  49:src/buddyAllocator.cpp ****             KConsole::trapPrintString("Found the block:");
 504              		.loc 1 49 13
 505              	.LVL57:
  50:src/buddyAllocator.cpp ****             KConsole::trapPrintInt((size_t)ret, 16); KConsole::trapPrintString("\n");
 506              		.loc 1 50 13
  50:src/buddyAllocator.cpp ****             KConsole::trapPrintInt((size_t)ret, 16); KConsole::trapPrintString("\n");
 507              		.loc 1 50 38 is_stmt 0
 508 02c8 17050000 		lla	a0,.LC3
 508      13050500 
 509 02d0 97000000 		call	_ZN8KConsole15trapPrintStringEPKc@plt
 509      E7800000 
 510              	.LVL58:
  51:src/buddyAllocator.cpp ****             buddy->bucket[i].first = ret->next;
 511              		.loc 1 51 13 is_stmt 1
  51:src/buddyAllocator.cpp ****             buddy->bucket[i].first = ret->next;
 512              		.loc 1 51 35 is_stmt 0
 513 02d8 13060000 		li	a2,0
 514 02dc 93050001 		li	a1,16
 515 02e0 13850900 		mv	a0,s3
 516 02e4 97000000 		call	_ZN8KConsole12trapPrintIntEmii@plt
 516      E7800000 
 517              	.LVL59:
  51:src/buddyAllocator.cpp ****             buddy->bucket[i].first = ret->next;
 518              		.loc 1 51 54 is_stmt 1
  51:src/buddyAllocator.cpp ****             buddy->bucket[i].first = ret->next;
 519              		.loc 1 51 79 is_stmt 0
 520 02ec 17050000 		lla	a0,.LC1
 520      13050500 
 521 02f4 97000000 		call	_ZN8KConsole15trapPrintStringEPKc@plt
 521      E7800000 
 522              	.LVL60:
  52:src/buddyAllocator.cpp ****             if(buddy->bucket[i].first == nullptr)
 523              		.loc 1 52 13 is_stmt 1
  52:src/buddyAllocator.cpp ****             if(buddy->bucket[i].first == nullptr)
 524              		.loc 1 52 43 is_stmt 0
 525 02fc 03B70900 		ld	a4,0(s3)
  52:src/buddyAllocator.cpp ****             if(buddy->bucket[i].first == nullptr)
 526              		.loc 1 52 36
 527 0300 93872400 		addi	a5,s1,2
 528 0304 93974700 		slli	a5,a5,4
 529 0308 B307F900 		add	a5,s2,a5
 530 030c 23B0E700 		sd	a4,0(a5)
  53:src/buddyAllocator.cpp ****                 buddy->bucket[i].last = nullptr;
 531              		.loc 1 53 13 is_stmt 1
GAS LISTING /tmp/ccdO8xmZ.s 			page 15


 532 0310 63020702 		beqz	a4,.L35
 533              	.L30:
  55:src/buddyAllocator.cpp ****             return ret;
 534              		.loc 1 55 13
  55:src/buddyAllocator.cpp ****             return ret;
 535              		.loc 1 55 18 is_stmt 0
 536 0314 13071000 		li	a4,1
 537 0318 93860400 		mv	a3,s1
 538 031c 13060A00 		mv	a2,s4
 539 0320 93850900 		mv	a1,s3
 540 0324 13050900 		mv	a0,s2
 541 0328 97000000 		call	_Z5splitP14buddyAllocatorPvmmb
 541      E7800000 
 542              	.LVL61:
  56:src/buddyAllocator.cpp ****         }
 543              		.loc 1 56 13 is_stmt 1
  56:src/buddyAllocator.cpp ****         }
 544              		.loc 1 56 20 is_stmt 0
 545 0330 6F00C001 		j	.L27
 546              	.L35:
  54:src/buddyAllocator.cpp ****             split(buddy, (void*)ret, level, i, true);
 547              		.loc 1 54 17 is_stmt 1
  54:src/buddyAllocator.cpp ****             split(buddy, (void*)ret, level, i, true);
 548              		.loc 1 54 39 is_stmt 0
 549 0334 93872400 		addi	a5,s1,2
 550 0338 93974700 		slli	a5,a5,4
 551 033c B307F900 		add	a5,s2,a5
 552 0340 23B40700 		sd	zero,8(a5)
 553 0344 6FF01FFD 		j	.L30
 554              	.LVL62:
 555              	.L32:
 556              	.LBE7:
 557              	.LBE8:
 558              	.LBE9:
  60:src/buddyAllocator.cpp **** }
 559              		.loc 1 60 12
 560 0348 93090000 		li	s3,0
 561              	.L27:
  61:src/buddyAllocator.cpp **** 
 562              		.loc 1 61 1
 563 034c 13850900 		mv	a0,s3
 564 0350 83308102 		ld	ra,40(sp)
 565              		.cfi_restore 1
 566 0354 03340102 		ld	s0,32(sp)
 567              		.cfi_restore 8
 568              		.cfi_def_cfa 2, 48
 569 0358 83348101 		ld	s1,24(sp)
 570              		.cfi_restore 9
 571              	.LVL63:
 572 035c 03390101 		ld	s2,16(sp)
 573              		.cfi_restore 18
 574              	.LVL64:
 575 0360 83398100 		ld	s3,8(sp)
 576              		.cfi_restore 19
 577 0364 033A0100 		ld	s4,0(sp)
 578              		.cfi_restore 20
 579              	.LVL65:
GAS LISTING /tmp/ccdO8xmZ.s 			page 16


 580 0368 13010103 		addi	sp,sp,48
 581              		.cfi_def_cfa_offset 0
 582 036c 67800000 		jr	ra
 583              		.cfi_endproc
 584              	.LFE6:
 586              		.align	2
 587              		.globl	_Z9addBlocksP14buddyAllocatorPvm
 589              	_Z9addBlocksP14buddyAllocatorPvm:
 590              	.LFB13:
 130:src/buddyAllocator.cpp ****     if(level == buddy->maxLevel)
 591              		.loc 1 130 1 is_stmt 1
 592              		.cfi_startproc
 593              	.LVL66:
 594 0370 130101FD 		addi	sp,sp,-48
 595              		.cfi_def_cfa_offset 48
 596 0374 23341102 		sd	ra,40(sp)
 597 0378 23308102 		sd	s0,32(sp)
 598 037c 233C9100 		sd	s1,24(sp)
 599 0380 23382101 		sd	s2,16(sp)
 600 0384 23343101 		sd	s3,8(sp)
 601              		.cfi_offset 1, -8
 602              		.cfi_offset 8, -16
 603              		.cfi_offset 9, -24
 604              		.cfi_offset 18, -32
 605              		.cfi_offset 19, -40
 606 0388 13040103 		addi	s0,sp,48
 607              		.cfi_def_cfa 8, 0
 608 038c 93040500 		mv	s1,a0
 609 0390 93890500 		mv	s3,a1
 610 0394 13090600 		mv	s2,a2
 131:src/buddyAllocator.cpp ****     {
 611              		.loc 1 131 5
 131:src/buddyAllocator.cpp ****     {
 612              		.loc 1 131 24 is_stmt 0
 613 0398 83378501 		ld	a5,24(a0)
 131:src/buddyAllocator.cpp ****     {
 614              		.loc 1 131 5
 615 039c 638AC702 		beq	a5,a2,.L48
 136:src/buddyAllocator.cpp ****     //KConsole::trapPrintString("Buddy block addr ");
 616              		.loc 1 136 5 is_stmt 1
 136:src/buddyAllocator.cpp ****     //KConsole::trapPrintString("Buddy block addr ");
 617              		.loc 1 136 46 is_stmt 0
 618 03a0 97000000 		call	_Z17getBuddyBlockAddrP14buddyAllocatorPvm
 618      E7800000 
 619              	.LVL67:
 139:src/buddyAllocator.cpp ****     buddyBlock* prev = nullptr;
 620              		.loc 1 139 5 is_stmt 1
 139:src/buddyAllocator.cpp ****     buddyBlock* prev = nullptr;
 621              		.loc 1 139 17 is_stmt 0
 622 03a8 93072900 		addi	a5,s2,2
 623 03ac 93974700 		slli	a5,a5,4
 624 03b0 B387F400 		add	a5,s1,a5
 625 03b4 83B70700 		ld	a5,0(a5)
 626              	.LVL68:
 140:src/buddyAllocator.cpp ****     while(curr != nullptr)
 627              		.loc 1 140 5 is_stmt 1
 140:src/buddyAllocator.cpp ****     while(curr != nullptr)
GAS LISTING /tmp/ccdO8xmZ.s 			page 17


 628              		.loc 1 140 17 is_stmt 0
 629 03b8 13070000 		li	a4,0
 630              	.LVL69:
 631              	.L46:
 141:src/buddyAllocator.cpp ****     {
 632              		.loc 1 141 5 is_stmt 1
 141:src/buddyAllocator.cpp ****     {
 633              		.loc 1 141 16
 634 03bc 638E070A 		beqz	a5,.L39
 143:src/buddyAllocator.cpp ****         {
 635              		.loc 1 143 9
 636 03c0 638EA700 		beq	a5,a0,.L49
 163:src/buddyAllocator.cpp ****         curr = curr->next;
 637              		.loc 1 163 9
 638              	.LVL70:
 164:src/buddyAllocator.cpp ****     }
 639              		.loc 1 164 9
 163:src/buddyAllocator.cpp ****         curr = curr->next;
 640              		.loc 1 163 14 is_stmt 0
 641 03c4 13870700 		mv	a4,a5
 164:src/buddyAllocator.cpp ****     }
 642              		.loc 1 164 14
 643 03c8 83B70700 		ld	a5,0(a5)
 644              	.LVL71:
 141:src/buddyAllocator.cpp ****     {
 645              		.loc 1 141 5
 646 03cc 6FF01FFF 		j	.L46
 647              	.LVL72:
 648              	.L48:
 133:src/buddyAllocator.cpp ****         return;
 649              		.loc 1 133 9 is_stmt 1
 133:src/buddyAllocator.cpp ****         return;
 650              		.loc 1 133 24 is_stmt 0
 651 03d0 97000000 		call	_Z15addBlockToLevelP14buddyAllocatorPvm
 651      E7800000 
 652              	.LVL73:
 134:src/buddyAllocator.cpp ****     }
 653              		.loc 1 134 9 is_stmt 1
 654 03d8 6F00400B 		j	.L36
 655              	.LVL74:
 656              	.L49:
 145:src/buddyAllocator.cpp ****             {
 657              		.loc 1 145 13
 658 03dc 63080704 		beqz	a4,.L41
 147:src/buddyAllocator.cpp ****                 if(curr == buddy->bucket[level].last)
 659              		.loc 1 147 17
 147:src/buddyAllocator.cpp ****                 if(curr == buddy->bucket[level].last)
 660              		.loc 1 147 36 is_stmt 0
 661 03e0 83B60700 		ld	a3,0(a5)
 147:src/buddyAllocator.cpp ****                 if(curr == buddy->bucket[level].last)
 662              		.loc 1 147 28
 663 03e4 2330D700 		sd	a3,0(a4)
 148:src/buddyAllocator.cpp ****                     buddy->bucket[level].last = prev;
 664              		.loc 1 148 17 is_stmt 1
 148:src/buddyAllocator.cpp ****                     buddy->bucket[level].last = prev;
 665              		.loc 1 148 49 is_stmt 0
 666 03e8 93062900 		addi	a3,s2,2
GAS LISTING /tmp/ccdO8xmZ.s 			page 18


 667 03ec 93964600 		slli	a3,a3,4
 668 03f0 B386D400 		add	a3,s1,a3
 669 03f4 83B68600 		ld	a3,8(a3)
 148:src/buddyAllocator.cpp ****                     buddy->bucket[level].last = prev;
 670              		.loc 1 148 17
 671 03f8 6380F602 		beq	a3,a5,.L50
 672              	.LVL75:
 673              	.L42:
 158:src/buddyAllocator.cpp ****             else addBlocks(buddy, (void*)buddyBlockAddr, level + 1); //merge two chunks
 674              		.loc 1 158 13 is_stmt 1
 675 03fc 63F2A906 		bgeu	s3,a0,.L44
 158:src/buddyAllocator.cpp ****             else addBlocks(buddy, (void*)buddyBlockAddr, level + 1); //merge two chunks
 676              		.loc 1 158 47 discriminator 1
 158:src/buddyAllocator.cpp ****             else addBlocks(buddy, (void*)buddyBlockAddr, level + 1); //merge two chunks
 677              		.loc 1 158 56 is_stmt 0 discriminator 1
 678 0400 13061900 		addi	a2,s2,1
 679 0404 93850900 		mv	a1,s3
 680 0408 13850400 		mv	a0,s1
 681              	.LVL76:
 682 040c 97000000 		call	_Z9addBlocksP14buddyAllocatorPvm
 682      E7800000 
 683              	.LVL77:
 684 0414 6F008007 		j	.L36
 685              	.LVL78:
 686              	.L50:
 149:src/buddyAllocator.cpp ****             }
 687              		.loc 1 149 21 is_stmt 1
 149:src/buddyAllocator.cpp ****             }
 688              		.loc 1 149 47 is_stmt 0
 689 0418 93072900 		addi	a5,s2,2
 690              	.LVL79:
 691 041c 93974700 		slli	a5,a5,4
 692 0420 B387F400 		add	a5,s1,a5
 693 0424 23B4E700 		sd	a4,8(a5)
 694 0428 6FF05FFD 		j	.L42
 695              	.LVL80:
 696              	.L41:
 153:src/buddyAllocator.cpp ****                     buddy->bucket[level].first = buddy->bucket[level].last = nullptr;
 697              		.loc 1 153 17 is_stmt 1
 153:src/buddyAllocator.cpp ****                     buddy->bucket[level].first = buddy->bucket[level].last = nullptr;
 698              		.loc 1 153 26 is_stmt 0
 699 042c 03B70700 		ld	a4,0(a5)
 700              	.LVL81:
 153:src/buddyAllocator.cpp ****                     buddy->bucket[level].first = buddy->bucket[level].last = nullptr;
 701              		.loc 1 153 17
 702 0430 630C0700 		beqz	a4,.L51
 156:src/buddyAllocator.cpp ****             }
 703              		.loc 1 156 21 is_stmt 1
 156:src/buddyAllocator.cpp ****             }
 704              		.loc 1 156 48 is_stmt 0
 705 0434 93072900 		addi	a5,s2,2
 706              	.LVL82:
 707 0438 93974700 		slli	a5,a5,4
 708 043c B387F400 		add	a5,s1,a5
 709 0440 23B0E700 		sd	a4,0(a5)
 710 0444 6FF09FFB 		j	.L42
 711              	.LVL83:
GAS LISTING /tmp/ccdO8xmZ.s 			page 19


 712              	.L51:
 154:src/buddyAllocator.cpp ****                 else
 713              		.loc 1 154 21 is_stmt 1
 154:src/buddyAllocator.cpp ****                 else
 714              		.loc 1 154 76 is_stmt 0
 715 0448 93072900 		addi	a5,s2,2
 716              	.LVL84:
 717 044c 93974700 		slli	a5,a5,4
 718 0450 B387F400 		add	a5,s1,a5
 719 0454 23B40700 		sd	zero,8(a5)
 154:src/buddyAllocator.cpp ****                 else
 720              		.loc 1 154 48
 721 0458 23B00700 		sd	zero,0(a5)
 722 045c 6FF01FFA 		j	.L42
 723              	.L44:
 159:src/buddyAllocator.cpp ****             return;
 724              		.loc 1 159 18 is_stmt 1
 159:src/buddyAllocator.cpp ****             return;
 725              		.loc 1 159 27 is_stmt 0
 726 0460 13061900 		addi	a2,s2,1
 727 0464 93050500 		mv	a1,a0
 728 0468 13850400 		mv	a0,s1
 729              	.LVL85:
 730 046c 97000000 		call	_Z9addBlocksP14buddyAllocatorPvm
 730      E7800000 
 731              	.LVL86:
 160:src/buddyAllocator.cpp ****         }
 732              		.loc 1 160 13 is_stmt 1
 733 0474 6F008001 		j	.L36
 734              	.LVL87:
 735              	.L39:
 167:src/buddyAllocator.cpp **** }
 736              		.loc 1 167 5
 167:src/buddyAllocator.cpp **** }
 737              		.loc 1 167 20 is_stmt 0
 738 0478 13060900 		mv	a2,s2
 739 047c 93850900 		mv	a1,s3
 740 0480 13850400 		mv	a0,s1
 741              	.LVL88:
 742 0484 97000000 		call	_Z15addBlockToLevelP14buddyAllocatorPvm
 742      E7800000 
 743              	.LVL89:
 744              	.L36:
 168:src/buddyAllocator.cpp **** 
 745              		.loc 1 168 1
 746 048c 83308102 		ld	ra,40(sp)
 747              		.cfi_restore 1
 748 0490 03340102 		ld	s0,32(sp)
 749              		.cfi_restore 8
 750              		.cfi_def_cfa 2, 48
 751 0494 83348101 		ld	s1,24(sp)
 752              		.cfi_restore 9
 753              	.LVL90:
 754 0498 03390101 		ld	s2,16(sp)
 755              		.cfi_restore 18
 756              	.LVL91:
 757 049c 83398100 		ld	s3,8(sp)
GAS LISTING /tmp/ccdO8xmZ.s 			page 20


 758              		.cfi_restore 19
 759              	.LVL92:
 760 04a0 13010103 		addi	sp,sp,48
 761              		.cfi_def_cfa_offset 0
 762 04a4 67800000 		jr	ra
 763              		.cfi_endproc
 764              	.LFE13:
 766              		.section	.rodata.str1.8
 767 0039 00000000 		.align	3
 767      000000
 768              	.LC4:
 769 0040 42756464 		.string	"Buddy initialization\n"
 769      7920696E 
 769      69746961 
 769      6C697A61 
 769      74696F6E 
 770 0056 0000     		.align	3
 771              	.LC5:
 772 0058 42756464 		.string	"Buddy metadata address: "
 772      79206D65 
 772      74616461 
 772      74612061 
 772      64647265 
 773              		.text
 774              		.align	2
 775              		.globl	_Z10buddy_initPvm
 777              	_Z10buddy_initPvm:
 778              	.LFB5:
   7:src/buddyAllocator.cpp ****     KConsole::trapPrintString("Buddy initialization\n");
 779              		.loc 1 7 1 is_stmt 1
 780              		.cfi_startproc
 781              	.LVL93:
 782 04a8 130101FD 		addi	sp,sp,-48
 783              		.cfi_def_cfa_offset 48
 784 04ac 23341102 		sd	ra,40(sp)
 785 04b0 23308102 		sd	s0,32(sp)
 786 04b4 233C9100 		sd	s1,24(sp)
 787 04b8 23382101 		sd	s2,16(sp)
 788 04bc 23343101 		sd	s3,8(sp)
 789 04c0 23304101 		sd	s4,0(sp)
 790              		.cfi_offset 1, -8
 791              		.cfi_offset 8, -16
 792              		.cfi_offset 9, -24
 793              		.cfi_offset 18, -32
 794              		.cfi_offset 19, -40
 795              		.cfi_offset 20, -48
 796 04c4 13040103 		addi	s0,sp,48
 797              		.cfi_def_cfa 8, 0
 798 04c8 13090500 		mv	s2,a0
 799 04cc 93890500 		mv	s3,a1
   8:src/buddyAllocator.cpp ****     size_t blockAddr = getBlockAddr((size_t)addr); //alling the address
 800              		.loc 1 8 5
   8:src/buddyAllocator.cpp ****     size_t blockAddr = getBlockAddr((size_t)addr); //alling the address
 801              		.loc 1 8 30 is_stmt 0
 802 04d0 17050000 		lla	a0,.LC4
 802      13050500 
 803              	.LVL94:
GAS LISTING /tmp/ccdO8xmZ.s 			page 21


 804 04d8 97000000 		call	_ZN8KConsole15trapPrintStringEPKc@plt
 804      E7800000 
 805              	.LVL95:
   9:src/buddyAllocator.cpp ****     size_t buddyAddr = (size_t)addr;
 806              		.loc 1 9 5 is_stmt 1
   9:src/buddyAllocator.cpp ****     size_t buddyAddr = (size_t)addr;
 807              		.loc 1 9 36 is_stmt 0
 808 04e0 93040900 		mv	s1,s2
 809 04e4 13050900 		mv	a0,s2
 810 04e8 97000000 		call	_Z12getBlockAddrm
 810      E7800000 
 811              	.LVL96:
 812 04f0 130A0500 		mv	s4,a0
 813              	.LVL97:
  10:src/buddyAllocator.cpp ****     KConsole::trapPrintInt(blockAddr,16); KConsole::trapPrintString("\n");
 814              		.loc 1 10 5 is_stmt 1
  11:src/buddyAllocator.cpp ****     KConsole::trapPrintInt(buddyAddr,16); KConsole::trapPrintString("\n");
 815              		.loc 1 11 5
  11:src/buddyAllocator.cpp ****     KConsole::trapPrintInt(buddyAddr,16); KConsole::trapPrintString("\n");
 816              		.loc 1 11 27 is_stmt 0
 817 04f4 13060000 		li	a2,0
 818 04f8 93050001 		li	a1,16
 819 04fc 97000000 		call	_ZN8KConsole12trapPrintIntEmii@plt
 819      E7800000 
 820              	.LVL98:
  11:src/buddyAllocator.cpp ****     KConsole::trapPrintInt(buddyAddr,16); KConsole::trapPrintString("\n");
 821              		.loc 1 11 43 is_stmt 1
  11:src/buddyAllocator.cpp ****     KConsole::trapPrintInt(buddyAddr,16); KConsole::trapPrintString("\n");
 822              		.loc 1 11 68 is_stmt 0
 823 0504 17050000 		lla	a0,.LC1
 823      13050500 
 824 050c 97000000 		call	_ZN8KConsole15trapPrintStringEPKc@plt
 824      E7800000 
 825              	.LVL99:
  12:src/buddyAllocator.cpp ****     if((size_t)addr != blockAddr) // if start address not aligned
 826              		.loc 1 12 5 is_stmt 1
  12:src/buddyAllocator.cpp ****     if((size_t)addr != blockAddr) // if start address not aligned
 827              		.loc 1 12 27 is_stmt 0
 828 0514 13060000 		li	a2,0
 829 0518 93050001 		li	a1,16
 830 051c 13050900 		mv	a0,s2
 831 0520 97000000 		call	_ZN8KConsole12trapPrintIntEmii@plt
 831      E7800000 
 832              	.LVL100:
  12:src/buddyAllocator.cpp ****     if((size_t)addr != blockAddr) // if start address not aligned
 833              		.loc 1 12 43 is_stmt 1
  12:src/buddyAllocator.cpp ****     if((size_t)addr != blockAddr) // if start address not aligned
 834              		.loc 1 12 68 is_stmt 0
 835 0528 17050000 		lla	a0,.LC1
 835      13050500 
 836 0530 97000000 		call	_ZN8KConsole15trapPrintStringEPKc@plt
 836      E7800000 
 837              	.LVL101:
  13:src/buddyAllocator.cpp ****     {
 838              		.loc 1 13 5 is_stmt 1
 839 0538 630C4901 		beq	s2,s4,.L53
  15:src/buddyAllocator.cpp ****         numOfBlocks--; //have to discard one block
GAS LISTING /tmp/ccdO8xmZ.s 			page 22


 840              		.loc 1 15 9
  15:src/buddyAllocator.cpp ****         numOfBlocks--; //have to discard one block
 841              		.loc 1 15 37 is_stmt 0
 842 053c 13050A00 		mv	a0,s4
 843 0540 97000000 		call	_Z16getNextBlockAddrm
 843      E7800000 
 844              	.LVL102:
 845 0548 93040500 		mv	s1,a0
 846              	.LVL103:
  16:src/buddyAllocator.cpp ****     }
 847              		.loc 1 16 9 is_stmt 1
  16:src/buddyAllocator.cpp ****     }
 848              		.loc 1 16 20 is_stmt 0
 849 054c 9389F9FF 		addi	s3,s3,-1
 850              	.LVL104:
 851              	.L53:
  18:src/buddyAllocator.cpp ****     KConsole::trapPrintInt(buddyAddr,16); KConsole::trapPrintString("\n");
 852              		.loc 1 18 5 is_stmt 1
  18:src/buddyAllocator.cpp ****     KConsole::trapPrintInt(buddyAddr,16); KConsole::trapPrintString("\n");
 853              		.loc 1 18 30 is_stmt 0
 854 0550 17050000 		lla	a0,.LC5
 854      13050500 
 855 0558 97000000 		call	_ZN8KConsole15trapPrintStringEPKc@plt
 855      E7800000 
 856              	.LVL105:
  19:src/buddyAllocator.cpp ****     numOfBlocks--; // take one block for buddy metadata
 857              		.loc 1 19 5 is_stmt 1
  19:src/buddyAllocator.cpp ****     numOfBlocks--; // take one block for buddy metadata
 858              		.loc 1 19 27 is_stmt 0
 859 0560 13060000 		li	a2,0
 860 0564 93050001 		li	a1,16
 861 0568 13850400 		mv	a0,s1
 862 056c 97000000 		call	_ZN8KConsole12trapPrintIntEmii@plt
 862      E7800000 
 863              	.LVL106:
  19:src/buddyAllocator.cpp ****     numOfBlocks--; // take one block for buddy metadata
 864              		.loc 1 19 43 is_stmt 1
  19:src/buddyAllocator.cpp ****     numOfBlocks--; // take one block for buddy metadata
 865              		.loc 1 19 68 is_stmt 0
 866 0574 17050000 		lla	a0,.LC1
 866      13050500 
 867 057c 97000000 		call	_ZN8KConsole15trapPrintStringEPKc@plt
 867      E7800000 
 868              	.LVL107:
  20:src/buddyAllocator.cpp ****     buddyAllocator* buddy = (buddyAllocator*)buddyAddr;
 869              		.loc 1 20 5 is_stmt 1
  20:src/buddyAllocator.cpp ****     buddyAllocator* buddy = (buddyAllocator*)buddyAddr;
 870              		.loc 1 20 16 is_stmt 0
 871 0584 9389F9FF 		addi	s3,s3,-1
 872              	.LVL108:
  21:src/buddyAllocator.cpp ****     buddy->startAddr = (void*)getNextBlockAddr(buddyAddr);
 873              		.loc 1 21 5 is_stmt 1
  21:src/buddyAllocator.cpp ****     buddy->startAddr = (void*)getNextBlockAddr(buddyAddr);
 874              		.loc 1 21 21 is_stmt 0
 875 0588 13890400 		mv	s2,s1
 876              	.LVL109:
  22:src/buddyAllocator.cpp ****     buddy->numOfBlocks = numOfBlocks;
GAS LISTING /tmp/ccdO8xmZ.s 			page 23


 877              		.loc 1 22 5 is_stmt 1
  22:src/buddyAllocator.cpp ****     buddy->numOfBlocks = numOfBlocks;
 878              		.loc 1 22 47 is_stmt 0
 879 058c 13850400 		mv	a0,s1
 880 0590 97000000 		call	_Z16getNextBlockAddrm
 880      E7800000 
 881              	.LVL110:
  22:src/buddyAllocator.cpp ****     buddy->numOfBlocks = numOfBlocks;
 882              		.loc 1 22 22
 883 0598 23B4A400 		sd	a0,8(s1)
  23:src/buddyAllocator.cpp ****     buddy->numOfFreeBlocks = numOfBlocks;
 884              		.loc 1 23 5 is_stmt 1
  23:src/buddyAllocator.cpp ****     buddy->numOfFreeBlocks = numOfBlocks;
 885              		.loc 1 23 24 is_stmt 0
 886 059c 23B03401 		sd	s3,0(s1)
  24:src/buddyAllocator.cpp ****     buddy->maxLevel = getDeg2Floor(numOfBlocks);
 887              		.loc 1 24 5 is_stmt 1
  24:src/buddyAllocator.cpp ****     buddy->maxLevel = getDeg2Floor(numOfBlocks);
 888              		.loc 1 24 28 is_stmt 0
 889 05a0 23B83401 		sd	s3,16(s1)
  25:src/buddyAllocator.cpp **** 
 890              		.loc 1 25 5 is_stmt 1
  25:src/buddyAllocator.cpp **** 
 891              		.loc 1 25 35 is_stmt 0
 892 05a4 13850900 		mv	a0,s3
 893 05a8 97000000 		call	_Z12getDeg2Floorm
 893      E7800000 
 894              	.LVL111:
  25:src/buddyAllocator.cpp **** 
 895              		.loc 1 25 21
 896 05b0 23BCA400 		sd	a0,24(s1)
  27:src/buddyAllocator.cpp ****         buddy->bucket[i].first = buddy->bucket[i].last = nullptr;
 897              		.loc 1 27 5 is_stmt 1
 898              	.LVL112:
 899              	.LBB10:
  27:src/buddyAllocator.cpp ****         buddy->bucket[i].first = buddy->bucket[i].last = nullptr;
 900              		.loc 1 27 16 is_stmt 0
 901 05b4 13070000 		li	a4,0
 902              	.LVL113:
 903              	.L55:
  27:src/buddyAllocator.cpp ****         buddy->bucket[i].first = buddy->bucket[i].last = nullptr;
 904              		.loc 1 27 25 is_stmt 1 discriminator 3
 905 05b8 6360E502 		bltu	a0,a4,.L57
  28:src/buddyAllocator.cpp **** 
 906              		.loc 1 28 9 discriminator 2
  28:src/buddyAllocator.cpp **** 
 907              		.loc 1 28 56 is_stmt 0 discriminator 2
 908 05bc 93072700 		addi	a5,a4,2
 909 05c0 93974700 		slli	a5,a5,4
 910 05c4 B307F900 		add	a5,s2,a5
 911 05c8 23B40700 		sd	zero,8(a5)
  28:src/buddyAllocator.cpp **** 
 912              		.loc 1 28 32 discriminator 2
 913 05cc 23B00700 		sd	zero,0(a5)
  27:src/buddyAllocator.cpp ****         buddy->bucket[i].first = buddy->bucket[i].last = nullptr;
 914              		.loc 1 27 5 is_stmt 1 discriminator 2
 915 05d0 13071700 		addi	a4,a4,1
GAS LISTING /tmp/ccdO8xmZ.s 			page 24


 916              	.LVL114:
 917 05d4 6FF05FFE 		j	.L55
 918              	.L57:
 919              	.LBE10:
 920              	.LBB11:
  32:src/buddyAllocator.cpp ****         addBlocks(buddy, (block*)buddy->startAddr + i, 0);
 921              		.loc 1 32 16 is_stmt 0
 922 05d8 93040000 		li	s1,0
 923              	.LVL115:
 924              	.L54:
  32:src/buddyAllocator.cpp ****         addBlocks(buddy, (block*)buddy->startAddr + i, 0);
 925              		.loc 1 32 24 is_stmt 1 discriminator 3
 926 05dc 63F43403 		bgeu	s1,s3,.L52
  33:src/buddyAllocator.cpp **** 
 927              		.loc 1 33 9 discriminator 2
  33:src/buddyAllocator.cpp **** 
 928              		.loc 1 33 41 is_stmt 0 discriminator 2
 929 05e0 83358900 		ld	a1,8(s2)
  33:src/buddyAllocator.cpp **** 
 930              		.loc 1 33 51 discriminator 2
 931 05e4 9397C400 		slli	a5,s1,12
  33:src/buddyAllocator.cpp **** 
 932              		.loc 1 33 18 discriminator 2
 933 05e8 13060000 		li	a2,0
 934 05ec B385F500 		add	a1,a1,a5
 935 05f0 13050900 		mv	a0,s2
 936 05f4 97000000 		call	_Z9addBlocksP14buddyAllocatorPvm
 936      E7800000 
 937              	.LVL116:
  32:src/buddyAllocator.cpp ****         addBlocks(buddy, (block*)buddy->startAddr + i, 0);
 938              		.loc 1 32 5 is_stmt 1 discriminator 2
 939 05fc 93841400 		addi	s1,s1,1
 940              	.LVL117:
 941 0600 6FF0DFFD 		j	.L54
 942              	.L52:
 943              	.LBE11:
  36:src/buddyAllocator.cpp **** 
 944              		.loc 1 36 1 is_stmt 0
 945 0604 13050900 		mv	a0,s2
 946 0608 83308102 		ld	ra,40(sp)
 947              		.cfi_restore 1
 948 060c 03340102 		ld	s0,32(sp)
 949              		.cfi_restore 8
 950              		.cfi_def_cfa 2, 48
 951 0610 83348101 		ld	s1,24(sp)
 952              		.cfi_restore 9
 953              	.LVL118:
 954 0614 03390101 		ld	s2,16(sp)
 955              		.cfi_restore 18
 956              	.LVL119:
 957 0618 83398100 		ld	s3,8(sp)
 958              		.cfi_restore 19
 959              	.LVL120:
 960 061c 033A0100 		ld	s4,0(sp)
 961              		.cfi_restore 20
 962              	.LVL121:
 963 0620 13010103 		addi	sp,sp,48
GAS LISTING /tmp/ccdO8xmZ.s 			page 25


 964              		.cfi_def_cfa_offset 0
 965 0624 67800000 		jr	ra
 966              		.cfi_endproc
 967              	.LFE5:
 969              		.section	.rodata.str1.8
 970 0071 00000000 		.align	3
 970      000000
 971              	.LC6:
 972 0078 42756464 		.string	"Buddy free: "
 972      79206672 
 972      65653A20 
 972      00
 973 0085 000000   		.align	3
 974              	.LC7:
 975 0088 2000     		.string	" "
 976              		.text
 977              		.align	2
 978              		.globl	_Z10buddy_freeP14buddyAllocatorPvm
 980              	_Z10buddy_freeP14buddyAllocatorPvm:
 981              	.LFB8:
  83:src/buddyAllocator.cpp ****     KConsole::trapPrintString("Buddy free: ");
 982              		.loc 1 83 1 is_stmt 1
 983              		.cfi_startproc
 984              	.LVL122:
 985 0628 130101FD 		addi	sp,sp,-48
 986              		.cfi_def_cfa_offset 48
 987 062c 23341102 		sd	ra,40(sp)
 988 0630 23308102 		sd	s0,32(sp)
 989 0634 233C9100 		sd	s1,24(sp)
 990 0638 23382101 		sd	s2,16(sp)
 991 063c 23343101 		sd	s3,8(sp)
 992              		.cfi_offset 1, -8
 993              		.cfi_offset 8, -16
 994              		.cfi_offset 9, -24
 995              		.cfi_offset 18, -32
 996              		.cfi_offset 19, -40
 997 0640 13040103 		addi	s0,sp,48
 998              		.cfi_def_cfa 8, 0
 999 0644 93090500 		mv	s3,a0
 1000 0648 93840500 		mv	s1,a1
 1001 064c 13090600 		mv	s2,a2
  84:src/buddyAllocator.cpp ****     KConsole::trapPrintInt((size_t)addr,16); KConsole::trapPrintString(" ");
 1002              		.loc 1 84 5
  84:src/buddyAllocator.cpp ****     KConsole::trapPrintInt((size_t)addr,16); KConsole::trapPrintString(" ");
 1003              		.loc 1 84 30 is_stmt 0
 1004 0650 17050000 		lla	a0,.LC6
 1004      13050500 
 1005              	.LVL123:
 1006 0658 97000000 		call	_ZN8KConsole15trapPrintStringEPKc@plt
 1006      E7800000 
 1007              	.LVL124:
  85:src/buddyAllocator.cpp ****     KConsole::trapPrintInt(numOfBlocks); KConsole::trapPrintString("\n");
 1008              		.loc 1 85 5 is_stmt 1
  85:src/buddyAllocator.cpp ****     KConsole::trapPrintInt(numOfBlocks); KConsole::trapPrintString("\n");
 1009              		.loc 1 85 27 is_stmt 0
 1010 0660 13060000 		li	a2,0
 1011 0664 93050001 		li	a1,16
GAS LISTING /tmp/ccdO8xmZ.s 			page 26


 1012 0668 13850400 		mv	a0,s1
 1013 066c 97000000 		call	_ZN8KConsole12trapPrintIntEmii@plt
 1013      E7800000 
 1014              	.LVL125:
  85:src/buddyAllocator.cpp ****     KConsole::trapPrintInt(numOfBlocks); KConsole::trapPrintString("\n");
 1015              		.loc 1 85 46 is_stmt 1
  85:src/buddyAllocator.cpp ****     KConsole::trapPrintInt(numOfBlocks); KConsole::trapPrintString("\n");
 1016              		.loc 1 85 71 is_stmt 0
 1017 0674 17050000 		lla	a0,.LC7
 1017      13050500 
 1018 067c 97000000 		call	_ZN8KConsole15trapPrintStringEPKc@plt
 1018      E7800000 
 1019              	.LVL126:
  86:src/buddyAllocator.cpp ****     size_t level = getDeg2Ceil(numOfBlocks);
 1020              		.loc 1 86 5 is_stmt 1
  86:src/buddyAllocator.cpp ****     size_t level = getDeg2Ceil(numOfBlocks);
 1021              		.loc 1 86 27 is_stmt 0
 1022 0684 13060000 		li	a2,0
 1023 0688 9305A000 		li	a1,10
 1024 068c 13050900 		mv	a0,s2
 1025 0690 97000000 		call	_ZN8KConsole12trapPrintIntEmii@plt
 1025      E7800000 
 1026              	.LVL127:
  86:src/buddyAllocator.cpp ****     size_t level = getDeg2Ceil(numOfBlocks);
 1027              		.loc 1 86 42 is_stmt 1
  86:src/buddyAllocator.cpp ****     size_t level = getDeg2Ceil(numOfBlocks);
 1028              		.loc 1 86 67 is_stmt 0
 1029 0698 17050000 		lla	a0,.LC1
 1029      13050500 
 1030 06a0 97000000 		call	_ZN8KConsole15trapPrintStringEPKc@plt
 1030      E7800000 
 1031              	.LVL128:
  87:src/buddyAllocator.cpp ****     addBlocks(buddy, addr, level); //adds free blocks
 1032              		.loc 1 87 5 is_stmt 1
  87:src/buddyAllocator.cpp ****     addBlocks(buddy, addr, level); //adds free blocks
 1033              		.loc 1 87 31 is_stmt 0
 1034 06a8 13050900 		mv	a0,s2
 1035 06ac 97000000 		call	_Z11getDeg2Ceilm
 1035      E7800000 
 1036              	.LVL129:
 1037 06b4 13060500 		mv	a2,a0
 1038              	.LVL130:
  88:src/buddyAllocator.cpp **** }
 1039              		.loc 1 88 5 is_stmt 1
  88:src/buddyAllocator.cpp **** }
 1040              		.loc 1 88 14 is_stmt 0
 1041 06b8 93850400 		mv	a1,s1
 1042 06bc 13850900 		mv	a0,s3
 1043              	.LVL131:
 1044 06c0 97000000 		call	_Z9addBlocksP14buddyAllocatorPvm
 1044      E7800000 
 1045              	.LVL132:
  89:src/buddyAllocator.cpp **** 
 1046              		.loc 1 89 1
 1047 06c8 83308102 		ld	ra,40(sp)
 1048              		.cfi_restore 1
 1049 06cc 03340102 		ld	s0,32(sp)
GAS LISTING /tmp/ccdO8xmZ.s 			page 27


 1050              		.cfi_restore 8
 1051              		.cfi_def_cfa 2, 48
 1052 06d0 83348101 		ld	s1,24(sp)
 1053              		.cfi_restore 9
 1054              	.LVL133:
 1055 06d4 03390101 		ld	s2,16(sp)
 1056              		.cfi_restore 18
 1057              	.LVL134:
 1058 06d8 83398100 		ld	s3,8(sp)
 1059              		.cfi_restore 19
 1060              	.LVL135:
 1061 06dc 13010103 		addi	sp,sp,48
 1062              		.cfi_def_cfa_offset 0
 1063 06e0 67800000 		jr	ra
 1064              		.cfi_endproc
 1065              	.LFE8:
 1067              		.section	.rodata.str1.8
 1068 008a 00000000 		.align	3
 1068      0000
 1069              	.LC8:
 1070 0090 42756464 		.string	"Buddy info-------------------------------------------\n"
 1070      7920696E 
 1070      666F2D2D 
 1070      2D2D2D2D 
 1070      2D2D2D2D 
 1071 00c7 00       		.align	3
 1072              	.LC9:
 1073 00c8 42756464 		.string	"Buddy starting address "
 1073      79207374 
 1073      61727469 
 1073      6E672061 
 1073      64647265 
 1074              		.align	3
 1075              	.LC10:
 1076 00e0 42756464 		.string	"Buddy number of blocks "
 1076      79206E75 
 1076      6D626572 
 1076      206F6620 
 1076      626C6F63 
 1077              		.align	3
 1078              	.LC11:
 1079 00f8 42756464 		.string	"Buddy number of free blocks "
 1079      79206E75 
 1079      6D626572 
 1079      206F6620 
 1079      66726565 
 1080 0115 000000   		.align	3
 1081              	.LC12:
 1082 0118 4C657665 		.string	"Level "
 1082      6C2000
 1083 011f 00       		.align	3
 1084              	.LC13:
 1085 0120 46726565 		.string	"Free blocks on this level\n"
 1085      20626C6F 
 1085      636B7320 
 1085      6F6E2074 
 1085      68697320 
GAS LISTING /tmp/ccdO8xmZ.s 			page 28


 1086 013b 00000000 		.align	3
 1086      00
 1087              	.LC14:
 1088 0140 456E6420 		.string	"End of buddy info-------------------------------------------\n"
 1088      6F662062 
 1088      75646479 
 1088      20696E66 
 1088      6F2D2D2D 
 1089              		.text
 1090              		.align	2
 1091              		.globl	_Z14printBuddyInfoP14buddyAllocator
 1093              	_Z14printBuddyInfoP14buddyAllocator:
 1094              	.LFB16:
 195:src/buddyAllocator.cpp **** 
 196:src/buddyAllocator.cpp **** void printBuddyInfo(buddyAllocator* buddy)
 197:src/buddyAllocator.cpp **** {
 1095              		.loc 1 197 1 is_stmt 1
 1096              		.cfi_startproc
 1097              	.LVL136:
 1098 06e4 130101FD 		addi	sp,sp,-48
 1099              		.cfi_def_cfa_offset 48
 1100 06e8 23341102 		sd	ra,40(sp)
 1101 06ec 23308102 		sd	s0,32(sp)
 1102 06f0 233C9100 		sd	s1,24(sp)
 1103 06f4 23382101 		sd	s2,16(sp)
 1104 06f8 23343101 		sd	s3,8(sp)
 1105              		.cfi_offset 1, -8
 1106              		.cfi_offset 8, -16
 1107              		.cfi_offset 9, -24
 1108              		.cfi_offset 18, -32
 1109              		.cfi_offset 19, -40
 1110 06fc 13040103 		addi	s0,sp,48
 1111              		.cfi_def_cfa 8, 0
 1112 0700 93090500 		mv	s3,a0
 198:src/buddyAllocator.cpp ****     KConsole::trapPrintString("Buddy info-------------------------------------------\n");
 1113              		.loc 1 198 5
 1114              		.loc 1 198 30 is_stmt 0
 1115 0704 17050000 		lla	a0,.LC8
 1115      13050500 
 1116              	.LVL137:
 1117 070c 97000000 		call	_ZN8KConsole15trapPrintStringEPKc@plt
 1117      E7800000 
 1118              	.LVL138:
 199:src/buddyAllocator.cpp ****     KConsole::trapPrintString("Buddy starting address ");
 1119              		.loc 1 199 5 is_stmt 1
 1120              		.loc 1 199 30 is_stmt 0
 1121 0714 17050000 		lla	a0,.LC9
 1121      13050500 
 1122 071c 97000000 		call	_ZN8KConsole15trapPrintStringEPKc@plt
 1122      E7800000 
 1123              	.LVL139:
 200:src/buddyAllocator.cpp ****     KConsole::trapPrintInt((size_t)buddy->startAddr, 16);KConsole::trapPrintString("\n");
 1124              		.loc 1 200 5 is_stmt 1
 1125              		.loc 1 200 27 is_stmt 0
 1126 0724 13060000 		li	a2,0
 1127 0728 93050001 		li	a1,16
 1128 072c 03B58900 		ld	a0,8(s3)
GAS LISTING /tmp/ccdO8xmZ.s 			page 29


 1129 0730 97000000 		call	_ZN8KConsole12trapPrintIntEmii@plt
 1129      E7800000 
 1130              	.LVL140:
 1131              		.loc 1 200 58 is_stmt 1
 1132              		.loc 1 200 83 is_stmt 0
 1133 0738 17050000 		lla	a0,.LC1
 1133      13050500 
 1134 0740 97000000 		call	_ZN8KConsole15trapPrintStringEPKc@plt
 1134      E7800000 
 1135              	.LVL141:
 201:src/buddyAllocator.cpp ****     KConsole::trapPrintString("Buddy number of blocks ");
 1136              		.loc 1 201 5 is_stmt 1
 1137              		.loc 1 201 30 is_stmt 0
 1138 0748 17050000 		lla	a0,.LC10
 1138      13050500 
 1139 0750 97000000 		call	_ZN8KConsole15trapPrintStringEPKc@plt
 1139      E7800000 
 1140              	.LVL142:
 202:src/buddyAllocator.cpp ****     KConsole::trapPrintInt(buddy->numOfBlocks);KConsole::trapPrintString("\n");
 1141              		.loc 1 202 5 is_stmt 1
 1142              		.loc 1 202 27 is_stmt 0
 1143 0758 13060000 		li	a2,0
 1144 075c 9305A000 		li	a1,10
 1145 0760 03B50900 		ld	a0,0(s3)
 1146 0764 97000000 		call	_ZN8KConsole12trapPrintIntEmii@plt
 1146      E7800000 
 1147              	.LVL143:
 1148              		.loc 1 202 48 is_stmt 1
 1149              		.loc 1 202 73 is_stmt 0
 1150 076c 17050000 		lla	a0,.LC1
 1150      13050500 
 1151 0774 97000000 		call	_ZN8KConsole15trapPrintStringEPKc@plt
 1151      E7800000 
 1152              	.LVL144:
 203:src/buddyAllocator.cpp ****     KConsole::trapPrintString("Buddy number of free blocks ");
 1153              		.loc 1 203 5 is_stmt 1
 1154              		.loc 1 203 30 is_stmt 0
 1155 077c 17050000 		lla	a0,.LC11
 1155      13050500 
 1156 0784 97000000 		call	_ZN8KConsole15trapPrintStringEPKc@plt
 1156      E7800000 
 1157              	.LVL145:
 204:src/buddyAllocator.cpp ****     KConsole::trapPrintInt(buddy->numOfFreeBlocks); KConsole::trapPrintString("\n");
 1158              		.loc 1 204 5 is_stmt 1
 1159              		.loc 1 204 27 is_stmt 0
 1160 078c 13060000 		li	a2,0
 1161 0790 9305A000 		li	a1,10
 1162 0794 03B50901 		ld	a0,16(s3)
 1163 0798 97000000 		call	_ZN8KConsole12trapPrintIntEmii@plt
 1163      E7800000 
 1164              	.LVL146:
 1165              		.loc 1 204 53 is_stmt 1
 1166              		.loc 1 204 78 is_stmt 0
 1167 07a0 17050000 		lla	a0,.LC1
 1167      13050500 
 1168 07a8 97000000 		call	_ZN8KConsole15trapPrintStringEPKc@plt
 1168      E7800000 
GAS LISTING /tmp/ccdO8xmZ.s 			page 30


 1169              	.LVL147:
 205:src/buddyAllocator.cpp ****     for(int i = buddy->maxLevel;i>=0;i--)
 1170              		.loc 1 205 5 is_stmt 1
 1171              	.LBB12:
 1172              		.loc 1 205 13 is_stmt 0
 1173 07b0 03A98901 		lw	s2,24(s3)
 1174              	.LVL148:
 1175 07b4 6F008000 		j	.L65
 1176              	.LVL149:
 1177              	.L63:
 1178              		.loc 1 205 5 is_stmt 1 discriminator 2
 1179 07b8 1B09F9FF 		addiw	s2,s2,-1
 1180              	.LVL150:
 1181              	.L65:
 1182              		.loc 1 205 34 discriminator 1
 1183 07bc 63440908 		bltz	s2,.L62
 1184              	.LBB13:
 206:src/buddyAllocator.cpp ****     {
 207:src/buddyAllocator.cpp ****         KConsole::trapPrintString("Level ");
 1185              		.loc 1 207 9
 1186              		.loc 1 207 34 is_stmt 0
 1187 07c0 17050000 		lla	a0,.LC12
 1187      13050500 
 1188 07c8 97000000 		call	_ZN8KConsole15trapPrintStringEPKc@plt
 1188      E7800000 
 1189              	.LVL151:
 208:src/buddyAllocator.cpp ****         KConsole::trapPrintInt(i);KConsole::trapPrintString("\n");
 1190              		.loc 1 208 9 is_stmt 1
 1191              		.loc 1 208 31 is_stmt 0
 1192 07d0 13060000 		li	a2,0
 1193 07d4 9305A000 		li	a1,10
 1194 07d8 13050900 		mv	a0,s2
 1195 07dc 97000000 		call	_ZN8KConsole12trapPrintIntEmii@plt
 1195      E7800000 
 1196              	.LVL152:
 1197              		.loc 1 208 35 is_stmt 1
 1198              		.loc 1 208 60 is_stmt 0
 1199 07e4 17050000 		lla	a0,.LC1
 1199      13050500 
 1200 07ec 97000000 		call	_ZN8KConsole15trapPrintStringEPKc@plt
 1200      E7800000 
 1201              	.LVL153:
 209:src/buddyAllocator.cpp ****         KConsole::trapPrintString("Free blocks on this level\n");
 1202              		.loc 1 209 9 is_stmt 1
 1203              		.loc 1 209 34 is_stmt 0
 1204 07f4 17050000 		lla	a0,.LC13
 1204      13050500 
 1205 07fc 97000000 		call	_ZN8KConsole15trapPrintStringEPKc@plt
 1205      E7800000 
 1206              	.LVL154:
 210:src/buddyAllocator.cpp ****         buddyBlock* curr = buddy->bucket[i].first;
 1207              		.loc 1 210 9 is_stmt 1
 1208              		.loc 1 210 21 is_stmt 0
 1209 0804 93072900 		addi	a5,s2,2
 1210 0808 93974700 		slli	a5,a5,4
 1211 080c B387F900 		add	a5,s3,a5
 1212 0810 83B40700 		ld	s1,0(a5)
GAS LISTING /tmp/ccdO8xmZ.s 			page 31


 1213              	.LVL155:
 1214              	.L64:
 211:src/buddyAllocator.cpp ****         while(curr != 0)
 1215              		.loc 1 211 9 is_stmt 1
 1216              		.loc 1 211 20
 1217 0814 E38204FA 		beqz	s1,.L63
 212:src/buddyAllocator.cpp ****         {
 213:src/buddyAllocator.cpp ****             KConsole::trapPrintInt((size_t)curr, 16);
 1218              		.loc 1 213 13
 1219              		.loc 1 213 35 is_stmt 0
 1220 0818 13060000 		li	a2,0
 1221 081c 93050001 		li	a1,16
 1222 0820 13850400 		mv	a0,s1
 1223 0824 97000000 		call	_ZN8KConsole12trapPrintIntEmii@plt
 1223      E7800000 
 1224              	.LVL156:
 214:src/buddyAllocator.cpp ****             KConsole::trapPrintString("\n");
 1225              		.loc 1 214 13 is_stmt 1
 1226              		.loc 1 214 38 is_stmt 0
 1227 082c 17050000 		lla	a0,.LC1
 1227      13050500 
 1228 0834 97000000 		call	_ZN8KConsole15trapPrintStringEPKc@plt
 1228      E7800000 
 1229              	.LVL157:
 215:src/buddyAllocator.cpp ****             curr = curr->next;
 1230              		.loc 1 215 13 is_stmt 1
 1231              		.loc 1 215 18 is_stmt 0
 1232 083c 83B40400 		ld	s1,0(s1)
 1233              	.LVL158:
 211:src/buddyAllocator.cpp ****         {
 1234              		.loc 1 211 9
 1235 0840 6FF05FFD 		j	.L64
 1236              	.LVL159:
 1237              	.L62:
 1238              	.LBE13:
 1239              	.LBE12:
 216:src/buddyAllocator.cpp ****         }
 217:src/buddyAllocator.cpp ****     }
 218:src/buddyAllocator.cpp ****     KConsole::trapPrintString("End of buddy info-------------------------------------------\n");
 1240              		.loc 1 218 5 is_stmt 1
 1241              		.loc 1 218 30 is_stmt 0
 1242 0844 17050000 		lla	a0,.LC14
 1242      13050500 
 1243 084c 97000000 		call	_ZN8KConsole15trapPrintStringEPKc@plt
 1243      E7800000 
 1244              	.LVL160:
 219:src/buddyAllocator.cpp **** }...
 1245              		.loc 1 219 1
 1246 0854 83308102 		ld	ra,40(sp)
 1247              		.cfi_restore 1
 1248 0858 03340102 		ld	s0,32(sp)
 1249              		.cfi_restore 8
 1250              		.cfi_def_cfa 2, 48
 1251 085c 83348101 		ld	s1,24(sp)
 1252              		.cfi_restore 9
 1253 0860 03390101 		ld	s2,16(sp)
 1254              		.cfi_restore 18
GAS LISTING /tmp/ccdO8xmZ.s 			page 32


 1255              	.LVL161:
 1256 0864 83398100 		ld	s3,8(sp)
 1257              		.cfi_restore 19
 1258              	.LVL162:
 1259 0868 13010103 		addi	sp,sp,48
 1260              		.cfi_def_cfa_offset 0
 1261 086c 67800000 		jr	ra
 1262              		.cfi_endproc
 1263              	.LFE16:
 1265              	.Letext0:
 1266              		.file 2 "src/../h/../lib/hw.h"
 1267              		.file 3 "src/../h/buddyAllocator.hpp"
 1268              		.file 4 "src/../h/PCB.hpp"
 1269              		.file 5 "src/../h/KSemaphore.hpp"
 1270              		.file 6 "src/../h/KConsole.hpp"
GAS LISTING /tmp/ccdO8xmZ.s 			page 33


DEFINED SYMBOLS
                            *ABS*:0000000000000000 buddyAllocator.cpp
     /tmp/ccdO8xmZ.s:9      .text:0000000000000000 _Z12getBlockAddrm
     /tmp/ccdO8xmZ.s:13     .text:0000000000000000 .L0 
     /tmp/ccdO8xmZ.s:15     .text:0000000000000000 .L0 
     /tmp/ccdO8xmZ.s:16     .text:0000000000000004 .L0 
     /tmp/ccdO8xmZ.s:18     .text:0000000000000008 .L0 
     /tmp/ccdO8xmZ.s:20     .text:000000000000000c .L0 
     /tmp/ccdO8xmZ.s:23     .text:000000000000000c .L0 
     /tmp/ccdO8xmZ.s:24     .text:000000000000000c .L0 
     /tmp/ccdO8xmZ.s:25     .text:000000000000000c .L0 
     /tmp/ccdO8xmZ.s:29     .text:0000000000000018 .L0 
     /tmp/ccdO8xmZ.s:30     .text:0000000000000018 .L0 
     /tmp/ccdO8xmZ.s:32     .text:000000000000001c .L0 
     /tmp/ccdO8xmZ.s:34     .text:0000000000000020 .L0 
     /tmp/ccdO8xmZ.s:40     .text:0000000000000020 _Z16getNextBlockAddrm
     /tmp/ccdO8xmZ.s:43     .text:0000000000000020 .L0 
     /tmp/ccdO8xmZ.s:45     .text:0000000000000020 .L0 
     /tmp/ccdO8xmZ.s:46     .text:0000000000000024 .L0 
     /tmp/ccdO8xmZ.s:49     .text:000000000000002c .L0 
     /tmp/ccdO8xmZ.s:50     .text:000000000000002c .L0 
     /tmp/ccdO8xmZ.s:52     .text:0000000000000030 .L0 
     /tmp/ccdO8xmZ.s:54     .text:0000000000000030 .L0 
     /tmp/ccdO8xmZ.s:55     .text:0000000000000030 .L0 
     /tmp/ccdO8xmZ.s:58     .text:0000000000000038 .L0 
     /tmp/ccdO8xmZ.s:59     .text:0000000000000038 .L0 
     /tmp/ccdO8xmZ.s:63     .text:0000000000000044 .L0 
     /tmp/ccdO8xmZ.s:65     .text:0000000000000048 .L0 
     /tmp/ccdO8xmZ.s:66     .text:0000000000000048 .L0 
     /tmp/ccdO8xmZ.s:68     .text:000000000000004c .L0 
     /tmp/ccdO8xmZ.s:70     .text:0000000000000050 .L0 
     /tmp/ccdO8xmZ.s:76     .text:0000000000000050 _Z12getDeg2Floorm
     /tmp/ccdO8xmZ.s:79     .text:0000000000000050 .L0 
     /tmp/ccdO8xmZ.s:81     .text:0000000000000050 .L0 
     /tmp/ccdO8xmZ.s:82     .text:0000000000000054 .L0 
     /tmp/ccdO8xmZ.s:84     .text:0000000000000058 .L0 
     /tmp/ccdO8xmZ.s:86     .text:000000000000005c .L0 
     /tmp/ccdO8xmZ.s:89     .text:000000000000005c .L0 
     /tmp/ccdO8xmZ.s:90     .text:000000000000005c .L0 
     /tmp/ccdO8xmZ.s:91     .text:000000000000005c .L0 
     /tmp/ccdO8xmZ.s:93     .text:0000000000000060 .L0 
     /tmp/ccdO8xmZ.s:97     .text:0000000000000064 .L0 
     /tmp/ccdO8xmZ.s:98     .text:0000000000000064 .L0 
     /tmp/ccdO8xmZ.s:100    .text:0000000000000068 .L0 
     /tmp/ccdO8xmZ.s:101    .text:0000000000000068 .L0 
     /tmp/ccdO8xmZ.s:104    .text:000000000000006c .L0 
     /tmp/ccdO8xmZ.s:105    .text:000000000000006c .L0 
     /tmp/ccdO8xmZ.s:108    .text:0000000000000070 .L0 
     /tmp/ccdO8xmZ.s:111    .text:0000000000000074 .L0 
     /tmp/ccdO8xmZ.s:112    .text:0000000000000074 .L0 
     /tmp/ccdO8xmZ.s:115    .text:000000000000007c .L0 
     /tmp/ccdO8xmZ.s:116    .text:000000000000007c .L0 
     /tmp/ccdO8xmZ.s:118    .text:0000000000000080 .L0 
     /tmp/ccdO8xmZ.s:120    .text:0000000000000084 .L0 
     /tmp/ccdO8xmZ.s:126    .text:0000000000000084 _Z11getDeg2Ceilm
     /tmp/ccdO8xmZ.s:129    .text:0000000000000084 .L0 
     /tmp/ccdO8xmZ.s:131    .text:0000000000000084 .L0 
GAS LISTING /tmp/ccdO8xmZ.s 			page 34


     /tmp/ccdO8xmZ.s:132    .text:0000000000000088 .L0 
     /tmp/ccdO8xmZ.s:134    .text:000000000000008c .L0 
     /tmp/ccdO8xmZ.s:136    .text:0000000000000090 .L0 
     /tmp/ccdO8xmZ.s:140    .text:0000000000000094 .L0 
     /tmp/ccdO8xmZ.s:141    .text:0000000000000094 .L0 
     /tmp/ccdO8xmZ.s:142    .text:0000000000000094 .L0 
     /tmp/ccdO8xmZ.s:145    .text:0000000000000098 .L0 
     /tmp/ccdO8xmZ.s:149    .text:000000000000009c .L0 
     /tmp/ccdO8xmZ.s:150    .text:000000000000009c .L0 
     /tmp/ccdO8xmZ.s:152    .text:00000000000000a0 .L0 
     /tmp/ccdO8xmZ.s:153    .text:00000000000000a0 .L0 
     /tmp/ccdO8xmZ.s:156    .text:00000000000000a4 .L0 
     /tmp/ccdO8xmZ.s:157    .text:00000000000000a4 .L0 
     /tmp/ccdO8xmZ.s:160    .text:00000000000000a8 .L0 
     /tmp/ccdO8xmZ.s:163    .text:00000000000000ac .L0 
     /tmp/ccdO8xmZ.s:164    .text:00000000000000b0 .L0 
     /tmp/ccdO8xmZ.s:165    .text:00000000000000b0 .L0 
     /tmp/ccdO8xmZ.s:167    .text:00000000000000b4 .L0 
     /tmp/ccdO8xmZ.s:169    .text:00000000000000b8 .L0 
     /tmp/ccdO8xmZ.s:175    .text:00000000000000b8 _Z15addBlockToLevelP14buddyAllocatorPvm
     /tmp/ccdO8xmZ.s:178    .text:00000000000000b8 .L0 
     /tmp/ccdO8xmZ.s:180    .text:00000000000000b8 .L0 
     /tmp/ccdO8xmZ.s:181    .text:00000000000000bc .L0 
     /tmp/ccdO8xmZ.s:183    .text:00000000000000c0 .L0 
     /tmp/ccdO8xmZ.s:185    .text:00000000000000c4 .L0 
     /tmp/ccdO8xmZ.s:188    .text:00000000000000c4 .L0 
     /tmp/ccdO8xmZ.s:189    .text:00000000000000c4 .L0 
     /tmp/ccdO8xmZ.s:190    .text:00000000000000c4 .L0 
     /tmp/ccdO8xmZ.s:192    .text:00000000000000c8 .L0 
     /tmp/ccdO8xmZ.s:193    .text:00000000000000c8 .L0 
     /tmp/ccdO8xmZ.s:198    .text:00000000000000d8 .L0 
     /tmp/ccdO8xmZ.s:200    .text:00000000000000dc .L0 
     /tmp/ccdO8xmZ.s:201    .text:00000000000000dc .L0 
     /tmp/ccdO8xmZ.s:208    .text:00000000000000ec .L0 
     /tmp/ccdO8xmZ.s:210    .text:00000000000000f0 .L0 
     /tmp/ccdO8xmZ.s:211    .text:00000000000000f0 .L0 
     /tmp/ccdO8xmZ.s:214    .text:00000000000000f4 .L0 
     /tmp/ccdO8xmZ.s:215    .text:00000000000000f8 .L0 
     /tmp/ccdO8xmZ.s:216    .text:00000000000000f8 .L0 
     /tmp/ccdO8xmZ.s:217    .text:00000000000000f8 .L0 
     /tmp/ccdO8xmZ.s:219    .text:00000000000000fc .L0 
     /tmp/ccdO8xmZ.s:223    .text:0000000000000100 .L0 
     /tmp/ccdO8xmZ.s:225    .text:0000000000000100 .L0 
     /tmp/ccdO8xmZ.s:226    .text:0000000000000100 .L0 
     /tmp/ccdO8xmZ.s:233    .text:0000000000000110 .L0 
     /tmp/ccdO8xmZ.s:235    .text:0000000000000118 .L0 
     /tmp/ccdO8xmZ.s:241    .text:0000000000000118 _Z17getBuddyBlockAddrP14buddyAllocatorPvm
     /tmp/ccdO8xmZ.s:244    .text:0000000000000118 .L0 
     /tmp/ccdO8xmZ.s:246    .text:0000000000000118 .L0 
     /tmp/ccdO8xmZ.s:247    .text:000000000000011c .L0 
     /tmp/ccdO8xmZ.s:249    .text:0000000000000120 .L0 
     /tmp/ccdO8xmZ.s:251    .text:0000000000000124 .L0 
     /tmp/ccdO8xmZ.s:253    .text:0000000000000124 .L0 
     /tmp/ccdO8xmZ.s:254    .text:0000000000000124 .L0 
     /tmp/ccdO8xmZ.s:258    .text:000000000000012c .L0 
     /tmp/ccdO8xmZ.s:259    .text:000000000000012c .L0 
     /tmp/ccdO8xmZ.s:261    .text:0000000000000130 .L0 
GAS LISTING /tmp/ccdO8xmZ.s 			page 35


     /tmp/ccdO8xmZ.s:264    .text:0000000000000134 .L0 
     /tmp/ccdO8xmZ.s:265    .text:0000000000000134 .L0 
     /tmp/ccdO8xmZ.s:268    .text:0000000000000138 .L0 
     /tmp/ccdO8xmZ.s:270    .text:000000000000013c .L0 
     /tmp/ccdO8xmZ.s:271    .text:000000000000013c .L0 
     /tmp/ccdO8xmZ.s:275    .text:0000000000000140 .L0 
     /tmp/ccdO8xmZ.s:276    .text:0000000000000144 .L0 
     /tmp/ccdO8xmZ.s:277    .text:0000000000000144 .L0 
     /tmp/ccdO8xmZ.s:278    .text:0000000000000144 .L0 
     /tmp/ccdO8xmZ.s:280    .text:0000000000000148 .L0 
     /tmp/ccdO8xmZ.s:284    .text:000000000000014c .L0 
     /tmp/ccdO8xmZ.s:286    .text:000000000000014c .L0 
     /tmp/ccdO8xmZ.s:287    .text:000000000000014c .L0 
     /tmp/ccdO8xmZ.s:290    .text:0000000000000154 .L0 
     /tmp/ccdO8xmZ.s:296    .text:0000000000000154 _Z5splitP14buddyAllocatorPvmmb
     /tmp/ccdO8xmZ.s:299    .text:0000000000000154 .L0 
     /tmp/ccdO8xmZ.s:301    .text:0000000000000154 .L0 
     /tmp/ccdO8xmZ.s:302    .text:0000000000000158 .L0 
     /tmp/ccdO8xmZ.s:309    .text:0000000000000170 .L0 
     /tmp/ccdO8xmZ.s:310    .text:0000000000000170 .L0 
     /tmp/ccdO8xmZ.s:311    .text:0000000000000170 .L0 
     /tmp/ccdO8xmZ.s:312    .text:0000000000000170 .L0 
     /tmp/ccdO8xmZ.s:313    .text:0000000000000170 .L0 
     /tmp/ccdO8xmZ.s:314    .text:0000000000000170 .L0 
     /tmp/ccdO8xmZ.s:316    .text:0000000000000174 .L0 
     /tmp/ccdO8xmZ.s:321    .text:000000000000017c .L0 
     /tmp/ccdO8xmZ.s:325    .text:0000000000000184 .L0 
     /tmp/ccdO8xmZ.s:327    .text:0000000000000188 .L0 
     /tmp/ccdO8xmZ.s:328    .text:0000000000000188 .L0 
     /tmp/ccdO8xmZ.s:336    .text:000000000000019c .L0 
     /tmp/ccdO8xmZ.s:337    .text:000000000000019c .L0 
     /tmp/ccdO8xmZ.s:345    .text:00000000000001b4 .L0 
     /tmp/ccdO8xmZ.s:346    .text:00000000000001b4 .L0 
     /tmp/ccdO8xmZ.s:357    .text:00000000000001d0 .L0 
     /tmp/ccdO8xmZ.s:358    .text:00000000000001d4 .L0 
     /tmp/ccdO8xmZ.s:359    .text:00000000000001d4 .L0 
     /tmp/ccdO8xmZ.s:361    .text:00000000000001d8 .L0 
     /tmp/ccdO8xmZ.s:362    .text:00000000000001d8 .L0 
     /tmp/ccdO8xmZ.s:364    .text:00000000000001dc .L0 
     /tmp/ccdO8xmZ.s:366    .text:00000000000001e0 .L0 
     /tmp/ccdO8xmZ.s:369    .text:00000000000001e4 .L0 
     /tmp/ccdO8xmZ.s:371    .text:00000000000001e8 .L0 
     /tmp/ccdO8xmZ.s:374    .text:00000000000001ec .L0 
     /tmp/ccdO8xmZ.s:378    .text:00000000000001f0 .L0 
     /tmp/ccdO8xmZ.s:381    .text:00000000000001f0 .L0 
     /tmp/ccdO8xmZ.s:382    .text:00000000000001f0 .L0 
     /tmp/ccdO8xmZ.s:388    .text:0000000000000200 .L0 
     /tmp/ccdO8xmZ.s:408    .text:0000000000000200 _Z11buddy_allocP14buddyAllocatorm
     /tmp/ccdO8xmZ.s:411    .text:0000000000000200 .L0 
     /tmp/ccdO8xmZ.s:413    .text:0000000000000200 .L0 
     /tmp/ccdO8xmZ.s:414    .text:0000000000000204 .L0 
     /tmp/ccdO8xmZ.s:421    .text:000000000000021c .L0 
     /tmp/ccdO8xmZ.s:422    .text:000000000000021c .L0 
     /tmp/ccdO8xmZ.s:423    .text:000000000000021c .L0 
     /tmp/ccdO8xmZ.s:424    .text:000000000000021c .L0 
     /tmp/ccdO8xmZ.s:425    .text:000000000000021c .L0 
     /tmp/ccdO8xmZ.s:426    .text:000000000000021c .L0 
GAS LISTING /tmp/ccdO8xmZ.s 			page 36


     /tmp/ccdO8xmZ.s:428    .text:0000000000000220 .L0 
     /tmp/ccdO8xmZ.s:432    .text:0000000000000228 .L0 
     /tmp/ccdO8xmZ.s:433    .text:0000000000000228 .L0 
     /tmp/ccdO8xmZ.s:438    .text:0000000000000238 .L0 
     /tmp/ccdO8xmZ.s:439    .text:0000000000000238 .L0 
     /tmp/ccdO8xmZ.s:445    .text:000000000000024c .L0 
     /tmp/ccdO8xmZ.s:446    .text:000000000000024c .L0 
     /tmp/ccdO8xmZ.s:450    .text:000000000000025c .L0 
     /tmp/ccdO8xmZ.s:451    .text:000000000000025c .L0 
     /tmp/ccdO8xmZ.s:457    .text:000000000000026c .L0 
     /tmp/ccdO8xmZ.s:458    .text:000000000000026c .L0 
     /tmp/ccdO8xmZ.s:463    .text:000000000000027c .L0 
     /tmp/ccdO8xmZ.s:464    .text:000000000000027c .L0 
     /tmp/ccdO8xmZ.s:470    .text:0000000000000290 .L0 
     /tmp/ccdO8xmZ.s:471    .text:0000000000000290 .L0 
     /tmp/ccdO8xmZ.s:476    .text:00000000000002a0 .L0 
     /tmp/ccdO8xmZ.s:477    .text:00000000000002a0 .L0 
     /tmp/ccdO8xmZ.s:481    .text:00000000000002a4 .L0 
     /tmp/ccdO8xmZ.s:482    .text:00000000000002a4 .L0 
     /tmp/ccdO8xmZ.s:484    .text:00000000000002a8 .L0 
     /tmp/ccdO8xmZ.s:489    .text:00000000000002ac .L0 
     /tmp/ccdO8xmZ.s:490    .text:00000000000002ac .L0 
     /tmp/ccdO8xmZ.s:495    .text:00000000000002bc .L0 
     /tmp/ccdO8xmZ.s:498    .text:00000000000002c0 .L0 
     /tmp/ccdO8xmZ.s:506    .text:00000000000002c8 .L0 
     /tmp/ccdO8xmZ.s:507    .text:00000000000002c8 .L0 
     /tmp/ccdO8xmZ.s:508    .text:00000000000002c8 .L0 
     /tmp/ccdO8xmZ.s:512    .text:00000000000002d8 .L0 
     /tmp/ccdO8xmZ.s:513    .text:00000000000002d8 .L0 
     /tmp/ccdO8xmZ.s:519    .text:00000000000002ec .L0 
     /tmp/ccdO8xmZ.s:520    .text:00000000000002ec .L0 
     /tmp/ccdO8xmZ.s:524    .text:00000000000002fc .L0 
     /tmp/ccdO8xmZ.s:525    .text:00000000000002fc .L0 
     /tmp/ccdO8xmZ.s:527    .text:0000000000000300 .L0 
     /tmp/ccdO8xmZ.s:532    .text:0000000000000310 .L0 
     /tmp/ccdO8xmZ.s:535    .text:0000000000000314 .L0 
     /tmp/ccdO8xmZ.s:536    .text:0000000000000314 .L0 
     /tmp/ccdO8xmZ.s:544    .text:0000000000000330 .L0 
     /tmp/ccdO8xmZ.s:545    .text:0000000000000330 .L0 
     /tmp/ccdO8xmZ.s:548    .text:0000000000000334 .L0 
     /tmp/ccdO8xmZ.s:549    .text:0000000000000334 .L0 
     /tmp/ccdO8xmZ.s:560    .text:0000000000000348 .L0 
     /tmp/ccdO8xmZ.s:563    .text:000000000000034c .L0 
     /tmp/ccdO8xmZ.s:565    .text:0000000000000354 .L0 
     /tmp/ccdO8xmZ.s:567    .text:0000000000000358 .L0 
     /tmp/ccdO8xmZ.s:568    .text:0000000000000358 .L0 
     /tmp/ccdO8xmZ.s:570    .text:000000000000035c .L0 
     /tmp/ccdO8xmZ.s:573    .text:0000000000000360 .L0 
     /tmp/ccdO8xmZ.s:576    .text:0000000000000364 .L0 
     /tmp/ccdO8xmZ.s:578    .text:0000000000000368 .L0 
     /tmp/ccdO8xmZ.s:581    .text:000000000000036c .L0 
     /tmp/ccdO8xmZ.s:583    .text:0000000000000370 .L0 
     /tmp/ccdO8xmZ.s:589    .text:0000000000000370 _Z9addBlocksP14buddyAllocatorPvm
     /tmp/ccdO8xmZ.s:592    .text:0000000000000370 .L0 
     /tmp/ccdO8xmZ.s:594    .text:0000000000000370 .L0 
     /tmp/ccdO8xmZ.s:595    .text:0000000000000374 .L0 
     /tmp/ccdO8xmZ.s:601    .text:0000000000000388 .L0 
GAS LISTING /tmp/ccdO8xmZ.s 			page 37


     /tmp/ccdO8xmZ.s:602    .text:0000000000000388 .L0 
     /tmp/ccdO8xmZ.s:603    .text:0000000000000388 .L0 
     /tmp/ccdO8xmZ.s:604    .text:0000000000000388 .L0 
     /tmp/ccdO8xmZ.s:605    .text:0000000000000388 .L0 
     /tmp/ccdO8xmZ.s:607    .text:000000000000038c .L0 
     /tmp/ccdO8xmZ.s:612    .text:0000000000000398 .L0 
     /tmp/ccdO8xmZ.s:613    .text:0000000000000398 .L0 
     /tmp/ccdO8xmZ.s:615    .text:000000000000039c .L0 
     /tmp/ccdO8xmZ.s:617    .text:00000000000003a0 .L0 
     /tmp/ccdO8xmZ.s:618    .text:00000000000003a0 .L0 
     /tmp/ccdO8xmZ.s:621    .text:00000000000003a8 .L0 
     /tmp/ccdO8xmZ.s:622    .text:00000000000003a8 .L0 
     /tmp/ccdO8xmZ.s:628    .text:00000000000003b8 .L0 
     /tmp/ccdO8xmZ.s:629    .text:00000000000003b8 .L0 
     /tmp/ccdO8xmZ.s:633    .text:00000000000003bc .L0 
     /tmp/ccdO8xmZ.s:634    .text:00000000000003bc .L0 
     /tmp/ccdO8xmZ.s:636    .text:00000000000003c0 .L0 
     /tmp/ccdO8xmZ.s:639    .text:00000000000003c4 .L0 
     /tmp/ccdO8xmZ.s:640    .text:00000000000003c4 .L0 
     /tmp/ccdO8xmZ.s:641    .text:00000000000003c4 .L0 
     /tmp/ccdO8xmZ.s:643    .text:00000000000003c8 .L0 
     /tmp/ccdO8xmZ.s:646    .text:00000000000003cc .L0 
     /tmp/ccdO8xmZ.s:650    .text:00000000000003d0 .L0 
     /tmp/ccdO8xmZ.s:651    .text:00000000000003d0 .L0 
     /tmp/ccdO8xmZ.s:654    .text:00000000000003d8 .L0 
     /tmp/ccdO8xmZ.s:658    .text:00000000000003dc .L0 
     /tmp/ccdO8xmZ.s:660    .text:00000000000003e0 .L0 
     /tmp/ccdO8xmZ.s:661    .text:00000000000003e0 .L0 
     /tmp/ccdO8xmZ.s:663    .text:00000000000003e4 .L0 
     /tmp/ccdO8xmZ.s:665    .text:00000000000003e8 .L0 
     /tmp/ccdO8xmZ.s:666    .text:00000000000003e8 .L0 
     /tmp/ccdO8xmZ.s:671    .text:00000000000003f8 .L0 
     /tmp/ccdO8xmZ.s:675    .text:00000000000003fc .L0 
     /tmp/ccdO8xmZ.s:677    .text:0000000000000400 .L0 
     /tmp/ccdO8xmZ.s:678    .text:0000000000000400 .L0 
     /tmp/ccdO8xmZ.s:688    .text:0000000000000418 .L0 
     /tmp/ccdO8xmZ.s:689    .text:0000000000000418 .L0 
     /tmp/ccdO8xmZ.s:698    .text:000000000000042c .L0 
     /tmp/ccdO8xmZ.s:699    .text:000000000000042c .L0 
     /tmp/ccdO8xmZ.s:702    .text:0000000000000430 .L0 
     /tmp/ccdO8xmZ.s:704    .text:0000000000000434 .L0 
     /tmp/ccdO8xmZ.s:705    .text:0000000000000434 .L0 
     /tmp/ccdO8xmZ.s:714    .text:0000000000000448 .L0 
     /tmp/ccdO8xmZ.s:715    .text:0000000000000448 .L0 
     /tmp/ccdO8xmZ.s:721    .text:0000000000000458 .L0 
     /tmp/ccdO8xmZ.s:725    .text:0000000000000460 .L0 
     /tmp/ccdO8xmZ.s:726    .text:0000000000000460 .L0 
     /tmp/ccdO8xmZ.s:733    .text:0000000000000474 .L0 
     /tmp/ccdO8xmZ.s:737    .text:0000000000000478 .L0 
     /tmp/ccdO8xmZ.s:738    .text:0000000000000478 .L0 
     /tmp/ccdO8xmZ.s:746    .text:000000000000048c .L0 
     /tmp/ccdO8xmZ.s:747    .text:0000000000000490 .L0 
     /tmp/ccdO8xmZ.s:749    .text:0000000000000494 .L0 
     /tmp/ccdO8xmZ.s:750    .text:0000000000000494 .L0 
     /tmp/ccdO8xmZ.s:752    .text:0000000000000498 .L0 
     /tmp/ccdO8xmZ.s:755    .text:000000000000049c .L0 
     /tmp/ccdO8xmZ.s:758    .text:00000000000004a0 .L0 
GAS LISTING /tmp/ccdO8xmZ.s 			page 38


     /tmp/ccdO8xmZ.s:761    .text:00000000000004a4 .L0 
     /tmp/ccdO8xmZ.s:763    .text:00000000000004a8 .L0 
     /tmp/ccdO8xmZ.s:777    .text:00000000000004a8 _Z10buddy_initPvm
     /tmp/ccdO8xmZ.s:780    .text:00000000000004a8 .L0 
     /tmp/ccdO8xmZ.s:782    .text:00000000000004a8 .L0 
     /tmp/ccdO8xmZ.s:783    .text:00000000000004ac .L0 
     /tmp/ccdO8xmZ.s:790    .text:00000000000004c4 .L0 
     /tmp/ccdO8xmZ.s:791    .text:00000000000004c4 .L0 
     /tmp/ccdO8xmZ.s:792    .text:00000000000004c4 .L0 
     /tmp/ccdO8xmZ.s:793    .text:00000000000004c4 .L0 
     /tmp/ccdO8xmZ.s:794    .text:00000000000004c4 .L0 
     /tmp/ccdO8xmZ.s:795    .text:00000000000004c4 .L0 
     /tmp/ccdO8xmZ.s:797    .text:00000000000004c8 .L0 
     /tmp/ccdO8xmZ.s:801    .text:00000000000004d0 .L0 
     /tmp/ccdO8xmZ.s:802    .text:00000000000004d0 .L0 
     /tmp/ccdO8xmZ.s:807    .text:00000000000004e0 .L0 
     /tmp/ccdO8xmZ.s:808    .text:00000000000004e0 .L0 
     /tmp/ccdO8xmZ.s:815    .text:00000000000004f4 .L0 
     /tmp/ccdO8xmZ.s:816    .text:00000000000004f4 .L0 
     /tmp/ccdO8xmZ.s:817    .text:00000000000004f4 .L0 
     /tmp/ccdO8xmZ.s:822    .text:0000000000000504 .L0 
     /tmp/ccdO8xmZ.s:823    .text:0000000000000504 .L0 
     /tmp/ccdO8xmZ.s:827    .text:0000000000000514 .L0 
     /tmp/ccdO8xmZ.s:828    .text:0000000000000514 .L0 
     /tmp/ccdO8xmZ.s:834    .text:0000000000000528 .L0 
     /tmp/ccdO8xmZ.s:835    .text:0000000000000528 .L0 
     /tmp/ccdO8xmZ.s:839    .text:0000000000000538 .L0 
     /tmp/ccdO8xmZ.s:841    .text:000000000000053c .L0 
     /tmp/ccdO8xmZ.s:842    .text:000000000000053c .L0 
     /tmp/ccdO8xmZ.s:848    .text:000000000000054c .L0 
     /tmp/ccdO8xmZ.s:849    .text:000000000000054c .L0 
     /tmp/ccdO8xmZ.s:853    .text:0000000000000550 .L0 
     /tmp/ccdO8xmZ.s:854    .text:0000000000000550 .L0 
     /tmp/ccdO8xmZ.s:858    .text:0000000000000560 .L0 
     /tmp/ccdO8xmZ.s:859    .text:0000000000000560 .L0 
     /tmp/ccdO8xmZ.s:865    .text:0000000000000574 .L0 
     /tmp/ccdO8xmZ.s:866    .text:0000000000000574 .L0 
     /tmp/ccdO8xmZ.s:870    .text:0000000000000584 .L0 
     /tmp/ccdO8xmZ.s:871    .text:0000000000000584 .L0 
     /tmp/ccdO8xmZ.s:874    .text:0000000000000588 .L0 
     /tmp/ccdO8xmZ.s:875    .text:0000000000000588 .L0 
     /tmp/ccdO8xmZ.s:878    .text:000000000000058c .L0 
     /tmp/ccdO8xmZ.s:879    .text:000000000000058c .L0 
     /tmp/ccdO8xmZ.s:883    .text:0000000000000598 .L0 
     /tmp/ccdO8xmZ.s:885    .text:000000000000059c .L0 
     /tmp/ccdO8xmZ.s:886    .text:000000000000059c .L0 
     /tmp/ccdO8xmZ.s:888    .text:00000000000005a0 .L0 
     /tmp/ccdO8xmZ.s:889    .text:00000000000005a0 .L0 
     /tmp/ccdO8xmZ.s:891    .text:00000000000005a4 .L0 
     /tmp/ccdO8xmZ.s:892    .text:00000000000005a4 .L0 
     /tmp/ccdO8xmZ.s:896    .text:00000000000005b0 .L0 
     /tmp/ccdO8xmZ.s:900    .text:00000000000005b4 .L0 
     /tmp/ccdO8xmZ.s:901    .text:00000000000005b4 .L0 
     /tmp/ccdO8xmZ.s:905    .text:00000000000005b8 .L0 
     /tmp/ccdO8xmZ.s:907    .text:00000000000005bc .L0 
     /tmp/ccdO8xmZ.s:908    .text:00000000000005bc .L0 
     /tmp/ccdO8xmZ.s:913    .text:00000000000005cc .L0 
GAS LISTING /tmp/ccdO8xmZ.s 			page 39


     /tmp/ccdO8xmZ.s:915    .text:00000000000005d0 .L0 
     /tmp/ccdO8xmZ.s:922    .text:00000000000005d8 .L0 
     /tmp/ccdO8xmZ.s:926    .text:00000000000005dc .L0 
     /tmp/ccdO8xmZ.s:928    .text:00000000000005e0 .L0 
     /tmp/ccdO8xmZ.s:929    .text:00000000000005e0 .L0 
     /tmp/ccdO8xmZ.s:931    .text:00000000000005e4 .L0 
     /tmp/ccdO8xmZ.s:933    .text:00000000000005e8 .L0 
     /tmp/ccdO8xmZ.s:939    .text:00000000000005fc .L0 
     /tmp/ccdO8xmZ.s:945    .text:0000000000000604 .L0 
     /tmp/ccdO8xmZ.s:947    .text:000000000000060c .L0 
     /tmp/ccdO8xmZ.s:949    .text:0000000000000610 .L0 
     /tmp/ccdO8xmZ.s:950    .text:0000000000000610 .L0 
     /tmp/ccdO8xmZ.s:952    .text:0000000000000614 .L0 
     /tmp/ccdO8xmZ.s:955    .text:0000000000000618 .L0 
     /tmp/ccdO8xmZ.s:958    .text:000000000000061c .L0 
     /tmp/ccdO8xmZ.s:961    .text:0000000000000620 .L0 
     /tmp/ccdO8xmZ.s:964    .text:0000000000000624 .L0 
     /tmp/ccdO8xmZ.s:966    .text:0000000000000628 .L0 
     /tmp/ccdO8xmZ.s:980    .text:0000000000000628 _Z10buddy_freeP14buddyAllocatorPvm
     /tmp/ccdO8xmZ.s:983    .text:0000000000000628 .L0 
     /tmp/ccdO8xmZ.s:985    .text:0000000000000628 .L0 
     /tmp/ccdO8xmZ.s:986    .text:000000000000062c .L0 
     /tmp/ccdO8xmZ.s:992    .text:0000000000000640 .L0 
     /tmp/ccdO8xmZ.s:993    .text:0000000000000640 .L0 
     /tmp/ccdO8xmZ.s:994    .text:0000000000000640 .L0 
     /tmp/ccdO8xmZ.s:995    .text:0000000000000640 .L0 
     /tmp/ccdO8xmZ.s:996    .text:0000000000000640 .L0 
     /tmp/ccdO8xmZ.s:998    .text:0000000000000644 .L0 
     /tmp/ccdO8xmZ.s:1003   .text:0000000000000650 .L0 
     /tmp/ccdO8xmZ.s:1004   .text:0000000000000650 .L0 
     /tmp/ccdO8xmZ.s:1009   .text:0000000000000660 .L0 
     /tmp/ccdO8xmZ.s:1010   .text:0000000000000660 .L0 
     /tmp/ccdO8xmZ.s:1016   .text:0000000000000674 .L0 
     /tmp/ccdO8xmZ.s:1017   .text:0000000000000674 .L0 
     /tmp/ccdO8xmZ.s:1021   .text:0000000000000684 .L0 
     /tmp/ccdO8xmZ.s:1022   .text:0000000000000684 .L0 
     /tmp/ccdO8xmZ.s:1028   .text:0000000000000698 .L0 
     /tmp/ccdO8xmZ.s:1029   .text:0000000000000698 .L0 
     /tmp/ccdO8xmZ.s:1033   .text:00000000000006a8 .L0 
     /tmp/ccdO8xmZ.s:1034   .text:00000000000006a8 .L0 
     /tmp/ccdO8xmZ.s:1040   .text:00000000000006b8 .L0 
     /tmp/ccdO8xmZ.s:1041   .text:00000000000006b8 .L0 
     /tmp/ccdO8xmZ.s:1047   .text:00000000000006c8 .L0 
     /tmp/ccdO8xmZ.s:1048   .text:00000000000006cc .L0 
     /tmp/ccdO8xmZ.s:1050   .text:00000000000006d0 .L0 
     /tmp/ccdO8xmZ.s:1051   .text:00000000000006d0 .L0 
     /tmp/ccdO8xmZ.s:1053   .text:00000000000006d4 .L0 
     /tmp/ccdO8xmZ.s:1056   .text:00000000000006d8 .L0 
     /tmp/ccdO8xmZ.s:1059   .text:00000000000006dc .L0 
     /tmp/ccdO8xmZ.s:1062   .text:00000000000006e0 .L0 
     /tmp/ccdO8xmZ.s:1064   .text:00000000000006e4 .L0 
     /tmp/ccdO8xmZ.s:1093   .text:00000000000006e4 _Z14printBuddyInfoP14buddyAllocator
     /tmp/ccdO8xmZ.s:1096   .text:00000000000006e4 .L0 
     /tmp/ccdO8xmZ.s:1098   .text:00000000000006e4 .L0 
     /tmp/ccdO8xmZ.s:1099   .text:00000000000006e8 .L0 
     /tmp/ccdO8xmZ.s:1105   .text:00000000000006fc .L0 
     /tmp/ccdO8xmZ.s:1106   .text:00000000000006fc .L0 
GAS LISTING /tmp/ccdO8xmZ.s 			page 40


     /tmp/ccdO8xmZ.s:1107   .text:00000000000006fc .L0 
     /tmp/ccdO8xmZ.s:1108   .text:00000000000006fc .L0 
     /tmp/ccdO8xmZ.s:1109   .text:00000000000006fc .L0 
     /tmp/ccdO8xmZ.s:1111   .text:0000000000000700 .L0 
     /tmp/ccdO8xmZ.s:1114   .text:0000000000000704 .L0 
     /tmp/ccdO8xmZ.s:1115   .text:0000000000000704 .L0 
     /tmp/ccdO8xmZ.s:1120   .text:0000000000000714 .L0 
     /tmp/ccdO8xmZ.s:1121   .text:0000000000000714 .L0 
     /tmp/ccdO8xmZ.s:1125   .text:0000000000000724 .L0 
     /tmp/ccdO8xmZ.s:1126   .text:0000000000000724 .L0 
     /tmp/ccdO8xmZ.s:1132   .text:0000000000000738 .L0 
     /tmp/ccdO8xmZ.s:1133   .text:0000000000000738 .L0 
     /tmp/ccdO8xmZ.s:1137   .text:0000000000000748 .L0 
     /tmp/ccdO8xmZ.s:1138   .text:0000000000000748 .L0 
     /tmp/ccdO8xmZ.s:1142   .text:0000000000000758 .L0 
     /tmp/ccdO8xmZ.s:1143   .text:0000000000000758 .L0 
     /tmp/ccdO8xmZ.s:1149   .text:000000000000076c .L0 
     /tmp/ccdO8xmZ.s:1150   .text:000000000000076c .L0 
     /tmp/ccdO8xmZ.s:1154   .text:000000000000077c .L0 
     /tmp/ccdO8xmZ.s:1155   .text:000000000000077c .L0 
     /tmp/ccdO8xmZ.s:1159   .text:000000000000078c .L0 
     /tmp/ccdO8xmZ.s:1160   .text:000000000000078c .L0 
     /tmp/ccdO8xmZ.s:1166   .text:00000000000007a0 .L0 
     /tmp/ccdO8xmZ.s:1167   .text:00000000000007a0 .L0 
     /tmp/ccdO8xmZ.s:1172   .text:00000000000007b0 .L0 
     /tmp/ccdO8xmZ.s:1173   .text:00000000000007b0 .L0 
     /tmp/ccdO8xmZ.s:1179   .text:00000000000007b8 .L0 
     /tmp/ccdO8xmZ.s:1183   .text:00000000000007bc .L0 
     /tmp/ccdO8xmZ.s:1186   .text:00000000000007c0 .L0 
     /tmp/ccdO8xmZ.s:1187   .text:00000000000007c0 .L0 
     /tmp/ccdO8xmZ.s:1191   .text:00000000000007d0 .L0 
     /tmp/ccdO8xmZ.s:1192   .text:00000000000007d0 .L0 
     /tmp/ccdO8xmZ.s:1198   .text:00000000000007e4 .L0 
     /tmp/ccdO8xmZ.s:1199   .text:00000000000007e4 .L0 
     /tmp/ccdO8xmZ.s:1203   .text:00000000000007f4 .L0 
     /tmp/ccdO8xmZ.s:1204   .text:00000000000007f4 .L0 
     /tmp/ccdO8xmZ.s:1208   .text:0000000000000804 .L0 
     /tmp/ccdO8xmZ.s:1209   .text:0000000000000804 .L0 
     /tmp/ccdO8xmZ.s:1216   .text:0000000000000814 .L0 
     /tmp/ccdO8xmZ.s:1217   .text:0000000000000814 .L0 
     /tmp/ccdO8xmZ.s:1219   .text:0000000000000818 .L0 
     /tmp/ccdO8xmZ.s:1220   .text:0000000000000818 .L0 
     /tmp/ccdO8xmZ.s:1226   .text:000000000000082c .L0 
     /tmp/ccdO8xmZ.s:1227   .text:000000000000082c .L0 
     /tmp/ccdO8xmZ.s:1231   .text:000000000000083c .L0 
     /tmp/ccdO8xmZ.s:1232   .text:000000000000083c .L0 
     /tmp/ccdO8xmZ.s:1235   .text:0000000000000840 .L0 
     /tmp/ccdO8xmZ.s:1241   .text:0000000000000844 .L0 
     /tmp/ccdO8xmZ.s:1242   .text:0000000000000844 .L0 
     /tmp/ccdO8xmZ.s:1246   .text:0000000000000854 .L0 
     /tmp/ccdO8xmZ.s:1247   .text:0000000000000858 .L0 
     /tmp/ccdO8xmZ.s:1249   .text:000000000000085c .L0 
     /tmp/ccdO8xmZ.s:1250   .text:000000000000085c .L0 
     /tmp/ccdO8xmZ.s:1252   .text:0000000000000860 .L0 
     /tmp/ccdO8xmZ.s:1254   .text:0000000000000864 .L0 
     /tmp/ccdO8xmZ.s:1257   .text:0000000000000868 .L0 
     /tmp/ccdO8xmZ.s:1260   .text:000000000000086c .L0 
GAS LISTING /tmp/ccdO8xmZ.s 			page 41


     /tmp/ccdO8xmZ.s:1262   .text:0000000000000870 .L0 
     /tmp/ccdO8xmZ.s:1271   .text:0000000000000870 .L0 
     /tmp/ccdO8xmZ.s:393    .rodata.str1.8:0000000000000000 .LC0
     /tmp/ccdO8xmZ.s:433    .text:0000000000000228 .L0 
     /tmp/ccdO8xmZ.s:396    .rodata.str1.8:0000000000000018 .LC1
     /tmp/ccdO8xmZ.s:446    .text:000000000000024c .L0 
     /tmp/ccdO8xmZ.s:399    .rodata.str1.8:0000000000000020 .LC2
     /tmp/ccdO8xmZ.s:458    .text:000000000000026c .L0 
     /tmp/ccdO8xmZ.s:471    .text:0000000000000290 .L0 
     /tmp/ccdO8xmZ.s:402    .rodata.str1.8:0000000000000028 .LC3
     /tmp/ccdO8xmZ.s:508    .text:00000000000002c8 .L0 
     /tmp/ccdO8xmZ.s:520    .text:00000000000002ec .L0 
     /tmp/ccdO8xmZ.s:768    .rodata.str1.8:0000000000000040 .LC4
     /tmp/ccdO8xmZ.s:802    .text:00000000000004d0 .L0 
     /tmp/ccdO8xmZ.s:823    .text:0000000000000504 .L0 
     /tmp/ccdO8xmZ.s:835    .text:0000000000000528 .L0 
     /tmp/ccdO8xmZ.s:771    .rodata.str1.8:0000000000000058 .LC5
     /tmp/ccdO8xmZ.s:854    .text:0000000000000550 .L0 
     /tmp/ccdO8xmZ.s:866    .text:0000000000000574 .L0 
     /tmp/ccdO8xmZ.s:971    .rodata.str1.8:0000000000000078 .LC6
     /tmp/ccdO8xmZ.s:1004   .text:0000000000000650 .L0 
     /tmp/ccdO8xmZ.s:974    .rodata.str1.8:0000000000000088 .LC7
     /tmp/ccdO8xmZ.s:1017   .text:0000000000000674 .L0 
     /tmp/ccdO8xmZ.s:1029   .text:0000000000000698 .L0 
     /tmp/ccdO8xmZ.s:1069   .rodata.str1.8:0000000000000090 .LC8
     /tmp/ccdO8xmZ.s:1115   .text:0000000000000704 .L0 
     /tmp/ccdO8xmZ.s:1072   .rodata.str1.8:00000000000000c8 .LC9
     /tmp/ccdO8xmZ.s:1121   .text:0000000000000714 .L0 
     /tmp/ccdO8xmZ.s:1133   .text:0000000000000738 .L0 
     /tmp/ccdO8xmZ.s:1075   .rodata.str1.8:00000000000000e0 .LC10
     /tmp/ccdO8xmZ.s:1138   .text:0000000000000748 .L0 
     /tmp/ccdO8xmZ.s:1150   .text:000000000000076c .L0 
     /tmp/ccdO8xmZ.s:1078   .rodata.str1.8:00000000000000f8 .LC11
     /tmp/ccdO8xmZ.s:1155   .text:000000000000077c .L0 
     /tmp/ccdO8xmZ.s:1167   .text:00000000000007a0 .L0 
     /tmp/ccdO8xmZ.s:1081   .rodata.str1.8:0000000000000118 .LC12
     /tmp/ccdO8xmZ.s:1187   .text:00000000000007c0 .L0 
     /tmp/ccdO8xmZ.s:1199   .text:00000000000007e4 .L0 
     /tmp/ccdO8xmZ.s:1084   .rodata.str1.8:0000000000000120 .LC13
     /tmp/ccdO8xmZ.s:1204   .text:00000000000007f4 .L0 
     /tmp/ccdO8xmZ.s:1227   .text:000000000000082c .L0 
     /tmp/ccdO8xmZ.s:1087   .rodata.str1.8:0000000000000140 .LC14
     /tmp/ccdO8xmZ.s:1242   .text:0000000000000844 .L0 
     /tmp/ccdO8xmZ.s:109    .text:0000000000000074 .L6
     /tmp/ccdO8xmZ.s:95     .text:0000000000000064 .L7
     /tmp/ccdO8xmZ.s:161    .text:00000000000000ac .L9
     /tmp/ccdO8xmZ.s:147    .text:000000000000009c .L11
     /tmp/ccdO8xmZ.s:222    .text:0000000000000100 .L17
     /tmp/ccdO8xmZ.s:212    .text:00000000000000f4 .L13
     /tmp/ccdO8xmZ.s:283    .text:000000000000014c .L19
     /tmp/ccdO8xmZ.s:273    .text:0000000000000140 .L18
     /tmp/ccdO8xmZ.s:377    .text:00000000000001f0 .L26
     /tmp/ccdO8xmZ.s:353    .text:00000000000001d0 .L22
     /tmp/ccdO8xmZ.s:555    .text:0000000000000348 .L32
     /tmp/ccdO8xmZ.s:501    .text:00000000000002c8 .L34
     /tmp/ccdO8xmZ.s:479    .text:00000000000002a4 .L31
     /tmp/ccdO8xmZ.s:546    .text:0000000000000334 .L35
GAS LISTING /tmp/ccdO8xmZ.s 			page 42


     /tmp/ccdO8xmZ.s:561    .text:000000000000034c .L27
     /tmp/ccdO8xmZ.s:533    .text:0000000000000314 .L30
     /tmp/ccdO8xmZ.s:648    .text:00000000000003d0 .L48
     /tmp/ccdO8xmZ.s:735    .text:0000000000000478 .L39
     /tmp/ccdO8xmZ.s:656    .text:00000000000003dc .L49
     /tmp/ccdO8xmZ.s:631    .text:00000000000003bc .L46
     /tmp/ccdO8xmZ.s:744    .text:000000000000048c .L36
     /tmp/ccdO8xmZ.s:696    .text:000000000000042c .L41
     /tmp/ccdO8xmZ.s:686    .text:0000000000000418 .L50
     /tmp/ccdO8xmZ.s:723    .text:0000000000000460 .L44
     /tmp/ccdO8xmZ.s:673    .text:00000000000003fc .L42
     /tmp/ccdO8xmZ.s:712    .text:0000000000000448 .L51
     /tmp/ccdO8xmZ.s:851    .text:0000000000000550 .L53
     /tmp/ccdO8xmZ.s:918    .text:00000000000005d8 .L57
     /tmp/ccdO8xmZ.s:903    .text:00000000000005b8 .L55
     /tmp/ccdO8xmZ.s:942    .text:0000000000000604 .L52
     /tmp/ccdO8xmZ.s:924    .text:00000000000005dc .L54
     /tmp/ccdO8xmZ.s:1181   .text:00000000000007bc .L65
     /tmp/ccdO8xmZ.s:1237   .text:0000000000000844 .L62
     /tmp/ccdO8xmZ.s:1177   .text:00000000000007b8 .L63
     /tmp/ccdO8xmZ.s:1214   .text:0000000000000814 .L64
     /tmp/ccdO8xmZ.s:3835   .debug_abbrev:0000000000000000 .Ldebug_abbrev0
     /tmp/ccdO8xmZ.s:5893   .debug_str:0000000000000c32 .LASF221
     /tmp/ccdO8xmZ.s:5919   .debug_str:0000000000000db9 .LASF222
     /tmp/ccdO8xmZ.s:5647   .debug_str:00000000000003db .LASF223
     /tmp/ccdO8xmZ.s:5      .text:0000000000000000 .Ltext0
     /tmp/ccdO8xmZ.s:1265   .text:0000000000000870 .Letext0
     /tmp/ccdO8xmZ.s:5527   .debug_line:0000000000000000 .Ldebug_line0
     /tmp/ccdO8xmZ.s:5669   .debug_str:00000000000004ab .LASF0
     /tmp/ccdO8xmZ.s:5695   .debug_str:00000000000005b7 .LASF1
     /tmp/ccdO8xmZ.s:5813   .debug_str:00000000000009b4 .LASF2
     /tmp/ccdO8xmZ.s:5827   .debug_str:0000000000000a27 .LASF4
     /tmp/ccdO8xmZ.s:5681   .debug_str:0000000000000520 .LASF3
     /tmp/ccdO8xmZ.s:5543   .debug_str:0000000000000071 .LASF5
     /tmp/ccdO8xmZ.s:5777   .debug_str:0000000000000877 .LASF6
     /tmp/ccdO8xmZ.s:5687   .debug_str:0000000000000568 .LASF7
     /tmp/ccdO8xmZ.s:5645   .debug_str:00000000000003cb .LASF8
     /tmp/ccdO8xmZ.s:5653   .debug_str:000000000000042f .LASF9
     /tmp/ccdO8xmZ.s:5583   .debug_str:0000000000000201 .LASF10
     /tmp/ccdO8xmZ.s:5637   .debug_str:0000000000000393 .LASF11
     /tmp/ccdO8xmZ.s:5595   .debug_str:000000000000023b .LASF12
     /tmp/ccdO8xmZ.s:5581   .debug_str:00000000000001f1 .LASF13
     /tmp/ccdO8xmZ.s:5871   .debug_str:0000000000000bd0 .LASF14
     /tmp/ccdO8xmZ.s:5621   .debug_str:00000000000002f2 .LASF15
     /tmp/ccdO8xmZ.s:5857   .debug_str:0000000000000b27 .LASF16
     /tmp/ccdO8xmZ.s:5667   .debug_str:00000000000004a5 .LASF17
     /tmp/ccdO8xmZ.s:5883   .debug_str:0000000000000c0a .LASF18
     /tmp/ccdO8xmZ.s:5781   .debug_str:0000000000000892 .LASF19
     /tmp/ccdO8xmZ.s:5585   .debug_str:0000000000000210 .LASF21
     /tmp/ccdO8xmZ.s:5807   .debug_str:0000000000000987 .LASF20
     /tmp/ccdO8xmZ.s:5879   .debug_str:0000000000000bfe .LASF22
     /tmp/ccdO8xmZ.s:5705   .debug_str:0000000000000603 .LASF23
     /tmp/ccdO8xmZ.s:5717   .debug_str:000000000000066b .LASF24
     /tmp/ccdO8xmZ.s:5725   .debug_str:000000000000069d .LASF25
     /tmp/ccdO8xmZ.s:5891   .debug_str:0000000000000c28 .LASF26
     /tmp/ccdO8xmZ.s:5917   .debug_str:0000000000000da9 .LASF27
     /tmp/ccdO8xmZ.s:5699   .debug_str:00000000000005d5 .LASF28
GAS LISTING /tmp/ccdO8xmZ.s 			page 43


     /tmp/ccdO8xmZ.s:5629   .debug_str:000000000000033e .LASF29
     /tmp/ccdO8xmZ.s:5887   .debug_str:0000000000000c1a .LASF224
     /tmp/ccdO8xmZ.s:5881   .debug_str:0000000000000c04 .LASF30
     /tmp/ccdO8xmZ.s:5845   .debug_str:0000000000000abb .LASF31
     /tmp/ccdO8xmZ.s:5591   .debug_str:0000000000000227 .LASF32
     /tmp/ccdO8xmZ.s:5567   .debug_str:0000000000000155 .LASF33
     /tmp/ccdO8xmZ.s:5779   .debug_str:000000000000088a .LASF34
     /tmp/ccdO8xmZ.s:5589   .debug_str:000000000000021e .LASF35
     /tmp/ccdO8xmZ.s:5877   .debug_str:0000000000000bf6 .LASF36
     /tmp/ccdO8xmZ.s:5663   .debug_str:000000000000048f .LASF37
     /tmp/ccdO8xmZ.s:5545   .debug_str:0000000000000078 .LASF43
     /tmp/ccdO8xmZ.s:5907   .debug_str:0000000000000d4e .LASF225
     /tmp/ccdO8xmZ.s:5767   .debug_str:0000000000000827 .LASF38
     /tmp/ccdO8xmZ.s:5693   .debug_str:00000000000005b2 .LASF39
     /tmp/ccdO8xmZ.s:5963   .debug_str:0000000000000efc .LASF41
     /tmp/ccdO8xmZ.s:5959   .debug_str:0000000000000ee0 .LASF40
     /tmp/ccdO8xmZ.s:5895   .debug_str:0000000000000cf6 .LASF42
     /tmp/ccdO8xmZ.s:5609   .debug_str:00000000000002bc .LASF66
     /tmp/ccdO8xmZ.s:5551   .debug_str:00000000000000b1 .LASF68
     /tmp/ccdO8xmZ.s:5889   .debug_str:0000000000000c20 .LASF44
     /tmp/ccdO8xmZ.s:5835   .debug_str:0000000000000a66 .LASF45
     /tmp/ccdO8xmZ.s:5701   .debug_str:00000000000005de .LASF48
     /tmp/ccdO8xmZ.s:5709   .debug_str:0000000000000624 .LASF50
     /tmp/ccdO8xmZ.s:5971   .debug_str:0000000000000f4a .LASF46
     /tmp/ccdO8xmZ.s:5625   .debug_str:000000000000032c .LASF47
     /tmp/ccdO8xmZ.s:5539   .debug_str:0000000000000059 .LASF92
     /tmp/ccdO8xmZ.s:5677   .debug_str:00000000000004e9 .LASF94
     /tmp/ccdO8xmZ.s:5837   .debug_str:0000000000000a77 .LASF49
     /tmp/ccdO8xmZ.s:5743   .debug_str:000000000000072c .LASF51
     /tmp/ccdO8xmZ.s:5821   .debug_str:00000000000009ed .LASF52
     /tmp/ccdO8xmZ.s:5865   .debug_str:0000000000000b71 .LASF53
     /tmp/ccdO8xmZ.s:5745   .debug_str:000000000000073f .LASF54
     /tmp/ccdO8xmZ.s:5533   .debug_str:000000000000001b .LASF55
     /tmp/ccdO8xmZ.s:5947   .debug_str:0000000000000e8d .LASF56
     /tmp/ccdO8xmZ.s:5775   .debug_str:000000000000085d .LASF57
     /tmp/ccdO8xmZ.s:5855   .debug_str:0000000000000b19 .LASF58
     /tmp/ccdO8xmZ.s:5791   .debug_str:00000000000008e8 .LASF59
     /tmp/ccdO8xmZ.s:5605   .debug_str:00000000000002a2 .LASF60
     /tmp/ccdO8xmZ.s:5639   .debug_str:00000000000003a2 .LASF61
     /tmp/ccdO8xmZ.s:5809   .debug_str:0000000000000992 .LASF62
     /tmp/ccdO8xmZ.s:5949   .debug_str:0000000000000e9c .LASF63
     /tmp/ccdO8xmZ.s:5951   .debug_str:0000000000000eab .LASF64
     /tmp/ccdO8xmZ.s:5683   .debug_str:0000000000000532 .LASF65
     /tmp/ccdO8xmZ.s:5851   .debug_str:0000000000000afc .LASF67
     /tmp/ccdO8xmZ.s:5961   .debug_str:0000000000000ee6 .LASF69
     /tmp/ccdO8xmZ.s:5655   .debug_str:000000000000043d .LASF70
     /tmp/ccdO8xmZ.s:5601   .debug_str:0000000000000281 .LASF71
     /tmp/ccdO8xmZ.s:5833   .debug_str:0000000000000a5e .LASF72
     /tmp/ccdO8xmZ.s:5671   .debug_str:00000000000004b8 .LASF73
     /tmp/ccdO8xmZ.s:5755   .debug_str:0000000000000783 .LASF74
     /tmp/ccdO8xmZ.s:5599   .debug_str:000000000000026f .LASF75
     /tmp/ccdO8xmZ.s:5799   .debug_str:000000000000093a .LASF76
     /tmp/ccdO8xmZ.s:5979   .debug_str:0000000000000f81 .LASF77
     /tmp/ccdO8xmZ.s:5757   .debug_str:00000000000007a2 .LASF78
     /tmp/ccdO8xmZ.s:5819   .debug_str:00000000000009da .LASF79
     /tmp/ccdO8xmZ.s:5839   .debug_str:0000000000000a80 .LASF80
     /tmp/ccdO8xmZ.s:5925   .debug_str:0000000000000de1 .LASF81
GAS LISTING /tmp/ccdO8xmZ.s 			page 44


     /tmp/ccdO8xmZ.s:5729   .debug_str:00000000000006bd .LASF82
     /tmp/ccdO8xmZ.s:5909   .debug_str:0000000000000d66 .LASF83
     /tmp/ccdO8xmZ.s:5863   .debug_str:0000000000000b51 .LASF84
     /tmp/ccdO8xmZ.s:5771   .debug_str:0000000000000836 .LASF85
     /tmp/ccdO8xmZ.s:5759   .debug_str:00000000000007c3 .LASF86
     /tmp/ccdO8xmZ.s:5615   .debug_str:00000000000002d0 .LASF87
     /tmp/ccdO8xmZ.s:5675   .debug_str:00000000000004de .LASF88
     /tmp/ccdO8xmZ.s:5733   .debug_str:00000000000006fa .LASF89
     /tmp/ccdO8xmZ.s:5897   .debug_str:0000000000000d06 .LASF90
     /tmp/ccdO8xmZ.s:5641   .debug_str:00000000000003b2 .LASF91
     /tmp/ccdO8xmZ.s:5957   .debug_str:0000000000000ed2 .LASF93
     /tmp/ccdO8xmZ.s:5559   .debug_str:0000000000000100 .LASF95
     /tmp/ccdO8xmZ.s:5631   .debug_str:0000000000000345 .LASF96
     /tmp/ccdO8xmZ.s:5577   .debug_str:00000000000001ba .LASF97
     /tmp/ccdO8xmZ.s:5945   .debug_str:0000000000000e86 .LASF98
     /tmp/ccdO8xmZ.s:5575   .debug_str:00000000000001a9 .LASF99
     /tmp/ccdO8xmZ.s:5537   .debug_str:0000000000000054 .LASF100
     /tmp/ccdO8xmZ.s:5921   .debug_str:0000000000000dd0 .LASF101
     /tmp/ccdO8xmZ.s:5713   .debug_str:0000000000000656 .LASF102
     /tmp/ccdO8xmZ.s:5613   .debug_str:00000000000002ca .LASF103
     /tmp/ccdO8xmZ.s:5905   .debug_str:0000000000000d46 .LASF104
     /tmp/ccdO8xmZ.s:5565   .debug_str:0000000000000144 .LASF105
     /tmp/ccdO8xmZ.s:5723   .debug_str:0000000000000698 .LASF106
     /tmp/ccdO8xmZ.s:5805   .debug_str:000000000000097c .LASF107
     /tmp/ccdO8xmZ.s:5651   .debug_str:000000000000041b .LASF108
     /tmp/ccdO8xmZ.s:5815   .debug_str:00000000000009c2 .LASF109
     /tmp/ccdO8xmZ.s:5803   .debug_str:0000000000000968 .LASF110
     /tmp/ccdO8xmZ.s:5611   .debug_str:00000000000002c5 .LASF111
     /tmp/ccdO8xmZ.s:5849   .debug_str:0000000000000ae5 .LASF112
     /tmp/ccdO8xmZ.s:5875   .debug_str:0000000000000bef .LASF113
     /tmp/ccdO8xmZ.s:5749   .debug_str:0000000000000757 .LASF114
     /tmp/ccdO8xmZ.s:5531   .debug_str:000000000000000f .LASF115
     /tmp/ccdO8xmZ.s:5817   .debug_str:00000000000009ce .LASF116
     /tmp/ccdO8xmZ.s:5727   .debug_str:00000000000006a9 .LASF117
     /tmp/ccdO8xmZ.s:5811   .debug_str:000000000000099f .LASF118
     /tmp/ccdO8xmZ.s:5587   .debug_str:0000000000000215 .LASF119
     /tmp/ccdO8xmZ.s:5593   .debug_str:0000000000000231 .LASF120
     /tmp/ccdO8xmZ.s:5747   .debug_str:000000000000074e .LASF121
     /tmp/ccdO8xmZ.s:5825   .debug_str:0000000000000a1c .LASF122
     /tmp/ccdO8xmZ.s:5529   .debug_str:0000000000000000 .LASF123
     /tmp/ccdO8xmZ.s:5659   .debug_str:0000000000000459 .LASF124
     /tmp/ccdO8xmZ.s:5903   .debug_str:0000000000000d37 .LASF125
     /tmp/ccdO8xmZ.s:5869   .debug_str:0000000000000bae .LASF126
     /tmp/ccdO8xmZ.s:5841   .debug_str:0000000000000a9e .LASF127
     /tmp/ccdO8xmZ.s:5597   .debug_str:000000000000024b .LASF128
     /tmp/ccdO8xmZ.s:5765   .debug_str:0000000000000817 .LASF129
     /tmp/ccdO8xmZ.s:5795   .debug_str:0000000000000906 .LASF130
     /tmp/ccdO8xmZ.s:5973   .debug_str:0000000000000f57 .LASF131
     /tmp/ccdO8xmZ.s:5541   .debug_str:0000000000000069 .LASF132
     /tmp/ccdO8xmZ.s:5711   .debug_str:000000000000063c .LASF133
     /tmp/ccdO8xmZ.s:5969   .debug_str:0000000000000f3a .LASF134
     /tmp/ccdO8xmZ.s:5829   .debug_str:0000000000000a2e .LASF135
     /tmp/ccdO8xmZ.s:5873   .debug_str:0000000000000bdc .LASF136
     /tmp/ccdO8xmZ.s:5823   .debug_str:00000000000009f6 .LASF137
     /tmp/ccdO8xmZ.s:5975   .debug_str:0000000000000f6f .LASF138
     /tmp/ccdO8xmZ.s:5691   .debug_str:000000000000058e .LASF139
     /tmp/ccdO8xmZ.s:5751   .debug_str:0000000000000770 .LASF140
GAS LISTING /tmp/ccdO8xmZ.s 			page 45


     /tmp/ccdO8xmZ.s:5563   .debug_str:0000000000000134 .LASF141
     /tmp/ccdO8xmZ.s:5899   .debug_str:0000000000000d10 .LASF142
     /tmp/ccdO8xmZ.s:5831   .debug_str:0000000000000a51 .LASF143
     /tmp/ccdO8xmZ.s:5535   .debug_str:0000000000000035 .LASF144
     /tmp/ccdO8xmZ.s:5773   .debug_str:000000000000084a .LASF145
     /tmp/ccdO8xmZ.s:5661   .debug_str:000000000000047b .LASF146
     /tmp/ccdO8xmZ.s:5769   .debug_str:000000000000082c .LASF147
     /tmp/ccdO8xmZ.s:5697   .debug_str:00000000000005ca .LASF148
     /tmp/ccdO8xmZ.s:5789   .debug_str:00000000000008de .LASF149
     /tmp/ccdO8xmZ.s:5927   .debug_str:0000000000000df4 .LASF150
     /tmp/ccdO8xmZ.s:5885   .debug_str:0000000000000c0f .LASF151
     /tmp/ccdO8xmZ.s:5923   .debug_str:0000000000000dd5 .LASF152
     /tmp/ccdO8xmZ.s:5935   .debug_str:0000000000000e1d .LASF153
     /tmp/ccdO8xmZ.s:5735   .debug_str:0000000000000702 .LASF154
     /tmp/ccdO8xmZ.s:5787   .debug_str:00000000000008d2 .LASF155
     /tmp/ccdO8xmZ.s:5853   .debug_str:0000000000000b07 .LASF158
     /tmp/ccdO8xmZ.s:5847   .debug_str:0000000000000ac3 .LASF160
     /tmp/ccdO8xmZ.s:5915   .debug_str:0000000000000d97 .LASF156
     /tmp/ccdO8xmZ.s:5943   .debug_str:0000000000000e64 .LASF157
     /tmp/ccdO8xmZ.s:5913   .debug_str:0000000000000d85 .LASF159
     /tmp/ccdO8xmZ.s:5547   .debug_str:0000000000000083 .LASF161
     /tmp/ccdO8xmZ.s:5689   .debug_str:000000000000057b .LASF162
     /tmp/ccdO8xmZ.s:5573   .debug_str:0000000000000186 .LASF163
     /tmp/ccdO8xmZ.s:5619   .debug_str:00000000000002df .LASF164
     /tmp/ccdO8xmZ.s:5569   .debug_str:000000000000015e .LASF165
     /tmp/ccdO8xmZ.s:5553   .debug_str:00000000000000c4 .LASF166
     /tmp/ccdO8xmZ.s:5933   .debug_str:0000000000000e0e .LASF167
     /tmp/ccdO8xmZ.s:5731   .debug_str:00000000000006db .LASF168
     /tmp/ccdO8xmZ.s:5941   .debug_str:0000000000000e4b .LASF169
     /tmp/ccdO8xmZ.s:5685   .debug_str:000000000000053f .LASF170
     /tmp/ccdO8xmZ.s:5703   .debug_str:00000000000005eb .LASF171
     /tmp/ccdO8xmZ.s:5965   .debug_str:0000000000000f08 .LASF172
     /tmp/ccdO8xmZ.s:5635   .debug_str:0000000000000382 .LASF173
     /tmp/ccdO8xmZ.s:5939   .debug_str:0000000000000e39 .LASF174
     /tmp/ccdO8xmZ.s:5643   .debug_str:00000000000003be .LASF175
     /tmp/ccdO8xmZ.s:5953   .debug_str:0000000000000eb6 .LASF176
     /tmp/ccdO8xmZ.s:5657   .debug_str:0000000000000448 .LASF177
     /tmp/ccdO8xmZ.s:5549   .debug_str:00000000000000a5 .LASF178
     /tmp/ccdO8xmZ.s:5707   .debug_str:0000000000000608 .LASF179
     /tmp/ccdO8xmZ.s:5721   .debug_str:000000000000068c .LASF180
     /tmp/ccdO8xmZ.s:5555   .debug_str:00000000000000df .LASF181
     /tmp/ccdO8xmZ.s:5955   .debug_str:0000000000000ec3 .LASF187
     /tmp/ccdO8xmZ.s:5623   .debug_str:0000000000000308 .LASF189
     /tmp/ccdO8xmZ.s:1094   .text:00000000000006e4 .LFB16
     /tmp/ccdO8xmZ.s:1263   .text:0000000000000870 .LFE16
     /tmp/ccdO8xmZ.s:5739   .debug_str:000000000000071b .LASF183
     /tmp/ccdO8xmZ.s:4695   .debug_loc:0000000000000000 .LLST41
     /tmp/ccdO8xmZ.s:1171   .text:00000000000007b0 .LBB12
     /tmp/ccdO8xmZ.s:1239   .text:0000000000000844 .LBE12
     /tmp/ccdO8xmZ.s:4713   .debug_loc:000000000000004c .LLST42
     /tmp/ccdO8xmZ.s:1184   .text:00000000000007c0 .LBB13
     /tmp/ccdO8xmZ.s:1238   .text:0000000000000844 .LBE13
     /tmp/ccdO8xmZ.s:5977   .debug_str:0000000000000f7c .LASF182
     /tmp/ccdO8xmZ.s:4720   .debug_loc:000000000000006f .LLST43
     /tmp/ccdO8xmZ.s:1189   .text:00000000000007d0 .LVL151
     /tmp/ccdO8xmZ.s:1196   .text:00000000000007e4 .LVL152
     /tmp/ccdO8xmZ.s:1201   .text:00000000000007f4 .LVL153
GAS LISTING /tmp/ccdO8xmZ.s 			page 46


     /tmp/ccdO8xmZ.s:1206   .text:0000000000000804 .LVL154
     /tmp/ccdO8xmZ.s:1224   .text:000000000000082c .LVL156
     /tmp/ccdO8xmZ.s:1229   .text:000000000000083c .LVL157
     /tmp/ccdO8xmZ.s:1118   .text:0000000000000714 .LVL138
     /tmp/ccdO8xmZ.s:1123   .text:0000000000000724 .LVL139
     /tmp/ccdO8xmZ.s:1130   .text:0000000000000738 .LVL140
     /tmp/ccdO8xmZ.s:1135   .text:0000000000000748 .LVL141
     /tmp/ccdO8xmZ.s:1140   .text:0000000000000758 .LVL142
     /tmp/ccdO8xmZ.s:1147   .text:000000000000076c .LVL143
     /tmp/ccdO8xmZ.s:1152   .text:000000000000077c .LVL144
     /tmp/ccdO8xmZ.s:1157   .text:000000000000078c .LVL145
     /tmp/ccdO8xmZ.s:1164   .text:00000000000007a0 .LVL146
     /tmp/ccdO8xmZ.s:1169   .text:00000000000007b0 .LVL147
     /tmp/ccdO8xmZ.s:1244   .text:0000000000000854 .LVL160
     /tmp/ccdO8xmZ.s:5793   .debug_str:00000000000008f4 .LASF196
     /tmp/ccdO8xmZ.s:5679   .debug_str:00000000000004f6 .LASF198
     /tmp/ccdO8xmZ.s:242    .text:0000000000000118 .LFB15
     /tmp/ccdO8xmZ.s:291    .text:0000000000000154 .LFE15
     /tmp/ccdO8xmZ.s:4731   .debug_loc:00000000000000a5 .LLST10
     /tmp/ccdO8xmZ.s:5571   .debug_str:0000000000000181 .LASF184
     /tmp/ccdO8xmZ.s:5617   .debug_str:00000000000002d9 .LASF185
     /tmp/ccdO8xmZ.s:4756   .debug_loc:0000000000000107 .LLST11
     /tmp/ccdO8xmZ.s:5901   .debug_str:0000000000000d32 .LASF186
     /tmp/ccdO8xmZ.s:4770   .debug_loc:0000000000000140 .LLST12
     /tmp/ccdO8xmZ.s:5665   .debug_str:0000000000000495 .LASF188
     /tmp/ccdO8xmZ.s:5633   .debug_str:000000000000035a .LASF190
     /tmp/ccdO8xmZ.s:176    .text:00000000000000b8 .LFB14
     /tmp/ccdO8xmZ.s:236    .text:0000000000000118 .LFE14
     /tmp/ccdO8xmZ.s:4823   .debug_loc:00000000000001cd .LLST9
     /tmp/ccdO8xmZ.s:5967   .debug_str:0000000000000f31 .LASF191
     /tmp/ccdO8xmZ.s:5753   .debug_str:0000000000000779 .LASF192
     /tmp/ccdO8xmZ.s:5867   .debug_str:0000000000000b8d .LASF193
     /tmp/ccdO8xmZ.s:590    .text:0000000000000370 .LFB13
     /tmp/ccdO8xmZ.s:764    .text:00000000000004a8 .LFE13
     /tmp/ccdO8xmZ.s:4860   .debug_loc:0000000000000259 .LLST24
     /tmp/ccdO8xmZ.s:4878   .debug_loc:00000000000002a5 .LLST25
     /tmp/ccdO8xmZ.s:4904   .debug_loc:0000000000000317 .LLST26
     /tmp/ccdO8xmZ.s:5937   .debug_str:0000000000000e2a .LASF194
     /tmp/ccdO8xmZ.s:4930   .debug_loc:0000000000000389 .LLST27
     /tmp/ccdO8xmZ.s:4953   .debug_loc:00000000000003f8 .LLST28
     /tmp/ccdO8xmZ.s:5557   .debug_str:00000000000000fb .LASF195
     /tmp/ccdO8xmZ.s:4989   .debug_loc:00000000000004a1 .LLST29
     /tmp/ccdO8xmZ.s:619    .text:00000000000003a8 .LVL67
     /tmp/ccdO8xmZ.s:652    .text:00000000000003d8 .LVL73
     /tmp/ccdO8xmZ.s:683    .text:0000000000000414 .LVL77
     /tmp/ccdO8xmZ.s:731    .text:0000000000000474 .LVL86
     /tmp/ccdO8xmZ.s:743    .text:000000000000048c .LVL89
     /tmp/ccdO8xmZ.s:5561   .debug_str:0000000000000128 .LASF197
     /tmp/ccdO8xmZ.s:5797   .debug_str:0000000000000929 .LASF199
     /tmp/ccdO8xmZ.s:127    .text:0000000000000084 .LFB12
     /tmp/ccdO8xmZ.s:170    .text:00000000000000b8 .LFE12
     /tmp/ccdO8xmZ.s:5021   .debug_loc:0000000000000537 .LLST6
     /tmp/ccdO8xmZ.s:5032   .debug_loc:000000000000056d .LLST7
     /tmp/ccdO8xmZ.s:5044   .debug_loc:00000000000005a4 .LLST8
     /tmp/ccdO8xmZ.s:5715   .debug_str:000000000000065e .LASF200
     /tmp/ccdO8xmZ.s:5785   .debug_str:00000000000008c0 .LASF201
     /tmp/ccdO8xmZ.s:77     .text:0000000000000050 .LFB11
GAS LISTING /tmp/ccdO8xmZ.s 			page 47


     /tmp/ccdO8xmZ.s:121    .text:0000000000000084 .LFE11
     /tmp/ccdO8xmZ.s:5056   .debug_loc:00000000000005db .LLST3
     /tmp/ccdO8xmZ.s:5070   .debug_loc:0000000000000614 .LLST4
     /tmp/ccdO8xmZ.s:5082   .debug_loc:000000000000064b .LLST5
     /tmp/ccdO8xmZ.s:5801   .debug_str:0000000000000957 .LASF202
     /tmp/ccdO8xmZ.s:5761   .debug_str:00000000000007e2 .LASF203
     /tmp/ccdO8xmZ.s:41     .text:0000000000000020 .LFB10
     /tmp/ccdO8xmZ.s:71     .text:0000000000000050 .LFE10
     /tmp/ccdO8xmZ.s:5094   .debug_loc:0000000000000682 .LLST1
     /tmp/ccdO8xmZ.s:5607   .debug_str:00000000000002b2 .LASF204
     /tmp/ccdO8xmZ.s:5108   .debug_loc:00000000000006bb .LLST2
     /tmp/ccdO8xmZ.s:56     .text:0000000000000038 .LVL4
     /tmp/ccdO8xmZ.s:5737   .debug_str:000000000000070e .LASF205
     /tmp/ccdO8xmZ.s:5673   .debug_str:00000000000004cc .LASF206
     /tmp/ccdO8xmZ.s:10     .text:0000000000000000 .LFB9
     /tmp/ccdO8xmZ.s:35     .text:0000000000000020 .LFE9
     /tmp/ccdO8xmZ.s:5121   .debug_loc:00000000000006f4 .LLST0
     /tmp/ccdO8xmZ.s:5931   .debug_str:0000000000000e09 .LASF207
     /tmp/ccdO8xmZ.s:5603   .debug_str:0000000000000297 .LASF208
     /tmp/ccdO8xmZ.s:5783   .debug_str:000000000000089d .LASF209
     /tmp/ccdO8xmZ.s:981    .text:0000000000000628 .LFB8
     /tmp/ccdO8xmZ.s:1065   .text:00000000000006e4 .LFE8
     /tmp/ccdO8xmZ.s:5135   .debug_loc:000000000000072d .LLST37
     /tmp/ccdO8xmZ.s:5153   .debug_loc:0000000000000779 .LLST38
     /tmp/ccdO8xmZ.s:5171   .debug_loc:00000000000007c5 .LLST39
     /tmp/ccdO8xmZ.s:5189   .debug_loc:0000000000000811 .LLST40
     /tmp/ccdO8xmZ.s:1007   .text:0000000000000660 .LVL124
     /tmp/ccdO8xmZ.s:1014   .text:0000000000000674 .LVL125
     /tmp/ccdO8xmZ.s:1019   .text:0000000000000684 .LVL126
     /tmp/ccdO8xmZ.s:1026   .text:0000000000000698 .LVL127
     /tmp/ccdO8xmZ.s:1031   .text:00000000000006a8 .LVL128
     /tmp/ccdO8xmZ.s:1036   .text:00000000000006b4 .LVL129
     /tmp/ccdO8xmZ.s:1045   .text:00000000000006c8 .LVL132
     /tmp/ccdO8xmZ.s:5627   .debug_str:0000000000000338 .LASF210
     /tmp/ccdO8xmZ.s:5763   .debug_str:00000000000007f8 .LASF211
     /tmp/ccdO8xmZ.s:297    .text:0000000000000154 .LFB7
     /tmp/ccdO8xmZ.s:389    .text:0000000000000200 .LFE7
     /tmp/ccdO8xmZ.s:5200   .debug_loc:0000000000000847 .LLST13
     /tmp/ccdO8xmZ.s:5226   .debug_loc:00000000000008b9 .LLST14
     /tmp/ccdO8xmZ.s:5741   .debug_str:0000000000000721 .LASF212
     /tmp/ccdO8xmZ.s:5252   .debug_loc:000000000000092b .LLST15
     /tmp/ccdO8xmZ.s:5861   .debug_str:0000000000000b47 .LASF213
     /tmp/ccdO8xmZ.s:5281   .debug_loc:00000000000009a0 .LLST16
     /tmp/ccdO8xmZ.s:5911   .debug_str:0000000000000d7b .LASF214
     /tmp/ccdO8xmZ.s:5312   .debug_loc:0000000000000a17 .LLST17
     /tmp/ccdO8xmZ.s:323    .text:0000000000000184 .LBB3
     /tmp/ccdO8xmZ.s:354    .text:00000000000001d0 .LBE3
     /tmp/ccdO8xmZ.s:5337   .debug_loc:0000000000000a79 .LLST18
     /tmp/ccdO8xmZ.s:332    .text:0000000000000198 .LVL34
     /tmp/ccdO8xmZ.s:343    .text:00000000000001b4 .LVL37
     /tmp/ccdO8xmZ.s:352    .text:00000000000001d0 .LVL38
     /tmp/ccdO8xmZ.s:385    .text:00000000000001fc .LVL43
     /tmp/ccdO8xmZ.s:5843   .debug_str:0000000000000aaf .LASF215
     /tmp/ccdO8xmZ.s:5649   .debug_str:00000000000003f9 .LASF216
     /tmp/ccdO8xmZ.s:409    .text:0000000000000200 .LFB6
     /tmp/ccdO8xmZ.s:584    .text:0000000000000370 .LFE6
     /tmp/ccdO8xmZ.s:5348   .debug_loc:0000000000000aaf .LLST19
GAS LISTING /tmp/ccdO8xmZ.s 			page 48


     /tmp/ccdO8xmZ.s:5366   .debug_loc:0000000000000afb .LLST20
     /tmp/ccdO8xmZ.s:5384   .debug_loc:0000000000000b47 .LLST21
     /tmp/ccdO8xmZ.s:5519   .debug_ranges:0000000000000000 .Ldebug_ranges0
     /tmp/ccdO8xmZ.s:5395   .debug_loc:0000000000000b7d .LLST22
     /tmp/ccdO8xmZ.s:503    .text:00000000000002c8 .LBB7
     /tmp/ccdO8xmZ.s:556    .text:0000000000000348 .LBE7
     /tmp/ccdO8xmZ.s:5406   .debug_loc:0000000000000bb3 .LLST23
     /tmp/ccdO8xmZ.s:510    .text:00000000000002d8 .LVL58
     /tmp/ccdO8xmZ.s:517    .text:00000000000002ec .LVL59
     /tmp/ccdO8xmZ.s:522    .text:00000000000002fc .LVL60
     /tmp/ccdO8xmZ.s:542    .text:0000000000000330 .LVL61
     /tmp/ccdO8xmZ.s:436    .text:0000000000000238 .LVL46
     /tmp/ccdO8xmZ.s:443    .text:000000000000024c .LVL47
     /tmp/ccdO8xmZ.s:448    .text:000000000000025c .LVL48
     /tmp/ccdO8xmZ.s:453    .text:0000000000000268 .LVL49
     /tmp/ccdO8xmZ.s:461    .text:000000000000027c .LVL52
     /tmp/ccdO8xmZ.s:468    .text:0000000000000290 .LVL53
     /tmp/ccdO8xmZ.s:473    .text:00000000000002a0 .LVL54
     /tmp/ccdO8xmZ.s:5579   .debug_str:00000000000001e6 .LASF217
     /tmp/ccdO8xmZ.s:5719   .debug_str:000000000000067a .LASF218
     /tmp/ccdO8xmZ.s:778    .text:00000000000004a8 .LFB5
     /tmp/ccdO8xmZ.s:967    .text:0000000000000628 .LFE5
     /tmp/ccdO8xmZ.s:5413   .debug_loc:0000000000000bd6 .LLST30
     /tmp/ccdO8xmZ.s:5431   .debug_loc:0000000000000c22 .LLST31
     /tmp/ccdO8xmZ.s:5929   .debug_str:0000000000000dff .LASF219
     /tmp/ccdO8xmZ.s:5442   .debug_loc:0000000000000c58 .LLST32
     /tmp/ccdO8xmZ.s:5859   .debug_str:0000000000000b3d .LASF220
     /tmp/ccdO8xmZ.s:5453   .debug_loc:0000000000000c8e .LLST33
     /tmp/ccdO8xmZ.s:5472   .debug_loc:0000000000000cea .LLST34
     /tmp/ccdO8xmZ.s:899    .text:00000000000005b4 .LBB10
     /tmp/ccdO8xmZ.s:919    .text:00000000000005d8 .LBE10
     /tmp/ccdO8xmZ.s:5487   .debug_loc:0000000000000d33 .LLST35
     /tmp/ccdO8xmZ.s:920    .text:00000000000005d8 .LBB11
     /tmp/ccdO8xmZ.s:943    .text:0000000000000604 .LBE11
     /tmp/ccdO8xmZ.s:5499   .debug_loc:0000000000000d6a .LLST36
     /tmp/ccdO8xmZ.s:937    .text:00000000000005fc .LVL116
     /tmp/ccdO8xmZ.s:805    .text:00000000000004e0 .LVL95
     /tmp/ccdO8xmZ.s:811    .text:00000000000004f0 .LVL96
     /tmp/ccdO8xmZ.s:820    .text:0000000000000504 .LVL98
     /tmp/ccdO8xmZ.s:825    .text:0000000000000514 .LVL99
     /tmp/ccdO8xmZ.s:832    .text:0000000000000528 .LVL100
     /tmp/ccdO8xmZ.s:837    .text:0000000000000538 .LVL101
     /tmp/ccdO8xmZ.s:844    .text:0000000000000548 .LVL102
     /tmp/ccdO8xmZ.s:856    .text:0000000000000560 .LVL105
     /tmp/ccdO8xmZ.s:863    .text:0000000000000574 .LVL106
     /tmp/ccdO8xmZ.s:868    .text:0000000000000584 .LVL107
     /tmp/ccdO8xmZ.s:881    .text:0000000000000598 .LVL110
     /tmp/ccdO8xmZ.s:894    .text:00000000000005b0 .LVL111
     /tmp/ccdO8xmZ.s:1097   .text:00000000000006e4 .LVL136
     /tmp/ccdO8xmZ.s:1116   .text:000000000000070c .LVL137
     /tmp/ccdO8xmZ.s:1258   .text:0000000000000868 .LVL162
     /tmp/ccdO8xmZ.s:1174   .text:00000000000007b4 .LVL148
     /tmp/ccdO8xmZ.s:1255   .text:0000000000000864 .LVL161
     /tmp/ccdO8xmZ.s:1176   .text:00000000000007b8 .LVL149
     /tmp/ccdO8xmZ.s:1180   .text:00000000000007bc .LVL150
     /tmp/ccdO8xmZ.s:1213   .text:0000000000000814 .LVL155
     /tmp/ccdO8xmZ.s:1236   .text:0000000000000844 .LVL159
GAS LISTING /tmp/ccdO8xmZ.s 			page 49


     /tmp/ccdO8xmZ.s:245    .text:0000000000000118 .LVL25
     /tmp/ccdO8xmZ.s:272    .text:0000000000000140 .LVL29
     /tmp/ccdO8xmZ.s:282    .text:000000000000014c .LVL30
     /tmp/ccdO8xmZ.s:288    .text:0000000000000150 .LVL31
     /tmp/ccdO8xmZ.s:256    .text:000000000000012c .LVL26
     /tmp/ccdO8xmZ.s:262    .text:0000000000000134 .LVL27
     /tmp/ccdO8xmZ.s:266    .text:0000000000000138 .LVL28
     /tmp/ccdO8xmZ.s:179    .text:00000000000000b8 .LVL18
     /tmp/ccdO8xmZ.s:202    .text:00000000000000e0 .LVL20
     /tmp/ccdO8xmZ.s:204    .text:00000000000000e4 .LVL21
     /tmp/ccdO8xmZ.s:221    .text:0000000000000100 .LVL22
     /tmp/ccdO8xmZ.s:227    .text:0000000000000104 .LVL23
     /tmp/ccdO8xmZ.s:229    .text:0000000000000108 .LVL24
     /tmp/ccdO8xmZ.s:593    .text:0000000000000370 .LVL66
     /tmp/ccdO8xmZ.s:753    .text:0000000000000498 .LVL90
     /tmp/ccdO8xmZ.s:647    .text:00000000000003d0 .LVL72
     /tmp/ccdO8xmZ.s:759    .text:00000000000004a0 .LVL92
     /tmp/ccdO8xmZ.s:756    .text:000000000000049c .LVL91
     /tmp/ccdO8xmZ.s:655    .text:00000000000003dc .LVL74
     /tmp/ccdO8xmZ.s:681    .text:000000000000040c .LVL76
     /tmp/ccdO8xmZ.s:685    .text:0000000000000418 .LVL78
     /tmp/ccdO8xmZ.s:729    .text:000000000000046c .LVL85
     /tmp/ccdO8xmZ.s:734    .text:0000000000000478 .LVL87
     /tmp/ccdO8xmZ.s:741    .text:0000000000000484 .LVL88
     /tmp/ccdO8xmZ.s:626    .text:00000000000003b8 .LVL68
     /tmp/ccdO8xmZ.s:638    .text:00000000000003c4 .LVL70
     /tmp/ccdO8xmZ.s:644    .text:00000000000003cc .LVL71
     /tmp/ccdO8xmZ.s:672    .text:00000000000003fc .LVL75
     /tmp/ccdO8xmZ.s:690    .text:000000000000041c .LVL79
     /tmp/ccdO8xmZ.s:695    .text:000000000000042c .LVL80
     /tmp/ccdO8xmZ.s:706    .text:0000000000000438 .LVL82
     /tmp/ccdO8xmZ.s:711    .text:0000000000000448 .LVL83
     /tmp/ccdO8xmZ.s:716    .text:000000000000044c .LVL84
     /tmp/ccdO8xmZ.s:630    .text:00000000000003bc .LVL69
     /tmp/ccdO8xmZ.s:700    .text:0000000000000430 .LVL81
     /tmp/ccdO8xmZ.s:130    .text:0000000000000084 .LVL12
     /tmp/ccdO8xmZ.s:143    .text:0000000000000098 .LVL14
     /tmp/ccdO8xmZ.s:139    .text:0000000000000094 .LVL13
     /tmp/ccdO8xmZ.s:146    .text:000000000000009c .LVL15
     /tmp/ccdO8xmZ.s:80     .text:0000000000000050 .LVL6
     /tmp/ccdO8xmZ.s:113    .text:0000000000000078 .LVL11
     /tmp/ccdO8xmZ.s:88     .text:000000000000005c .LVL7
     /tmp/ccdO8xmZ.s:94     .text:0000000000000064 .LVL8
     /tmp/ccdO8xmZ.s:44     .text:0000000000000020 .LVL3
     /tmp/ccdO8xmZ.s:61     .text:0000000000000040 .LVL5
     /tmp/ccdO8xmZ.s:14     .text:0000000000000000 .LVL0
     /tmp/ccdO8xmZ.s:27     .text:0000000000000014 .LVL2
     /tmp/ccdO8xmZ.s:984    .text:0000000000000628 .LVL122
     /tmp/ccdO8xmZ.s:1005   .text:0000000000000658 .LVL123
     /tmp/ccdO8xmZ.s:1060   .text:00000000000006dc .LVL135
     /tmp/ccdO8xmZ.s:1054   .text:00000000000006d4 .LVL133
     /tmp/ccdO8xmZ.s:1057   .text:00000000000006d8 .LVL134
     /tmp/ccdO8xmZ.s:1038   .text:00000000000006b8 .LVL130
     /tmp/ccdO8xmZ.s:1043   .text:00000000000006c0 .LVL131
     /tmp/ccdO8xmZ.s:300    .text:0000000000000154 .LVL32
     /tmp/ccdO8xmZ.s:367    .text:00000000000001e0 .LVL39
     /tmp/ccdO8xmZ.s:376    .text:00000000000001f0 .LVL41
GAS LISTING /tmp/ccdO8xmZ.s 			page 50


     /tmp/ccdO8xmZ.s:372    .text:00000000000001e8 .LVL40
     /tmp/ccdO8xmZ.s:330    .text:0000000000000190 .LVL33
     /tmp/ccdO8xmZ.s:383    .text:00000000000001f4 .LVL42
     /tmp/ccdO8xmZ.s:334    .text:000000000000019c .LVL35
     /tmp/ccdO8xmZ.s:341    .text:00000000000001ac .LVL36
     /tmp/ccdO8xmZ.s:412    .text:0000000000000200 .LVL44
     /tmp/ccdO8xmZ.s:434    .text:0000000000000230 .LVL45
     /tmp/ccdO8xmZ.s:574    .text:0000000000000360 .LVL64
     /tmp/ccdO8xmZ.s:478    .text:00000000000002a4 .LVL55
     /tmp/ccdO8xmZ.s:455    .text:000000000000026c .LVL50
     /tmp/ccdO8xmZ.s:459    .text:0000000000000274 .LVL51
     /tmp/ccdO8xmZ.s:579    .text:0000000000000368 .LVL65
     /tmp/ccdO8xmZ.s:571    .text:000000000000035c .LVL63
     /tmp/ccdO8xmZ.s:505    .text:00000000000002c8 .LVL57
     /tmp/ccdO8xmZ.s:554    .text:0000000000000348 .LVL62
     /tmp/ccdO8xmZ.s:781    .text:00000000000004a8 .LVL93
     /tmp/ccdO8xmZ.s:803    .text:00000000000004d8 .LVL94
     /tmp/ccdO8xmZ.s:876    .text:000000000000058c .LVL109
     /tmp/ccdO8xmZ.s:959    .text:000000000000061c .LVL120
     /tmp/ccdO8xmZ.s:813    .text:00000000000004f4 .LVL97
     /tmp/ccdO8xmZ.s:962    .text:0000000000000620 .LVL121
     /tmp/ccdO8xmZ.s:846    .text:000000000000054c .LVL103
     /tmp/ccdO8xmZ.s:923    .text:00000000000005dc .LVL115
     /tmp/ccdO8xmZ.s:956    .text:0000000000000618 .LVL119
     /tmp/ccdO8xmZ.s:898    .text:00000000000005b4 .LVL112
     /tmp/ccdO8xmZ.s:902    .text:00000000000005b8 .LVL113
     /tmp/ccdO8xmZ.s:953    .text:0000000000000614 .LVL118
     /tmp/ccdO8xmZ.s:1272   .debug_info:0000000000000000 .Ldebug_info0
     /tmp/ccdO8xmZ.s:475    .text:00000000000002a0 .LBB5
     /tmp/ccdO8xmZ.s:485    .text:00000000000002ac .LBE5
     /tmp/ccdO8xmZ.s:487    .text:00000000000002ac .LBB9
     /tmp/ccdO8xmZ.s:558    .text:0000000000000348 .LBE9

UNDEFINED SYMBOLS
_ZN8KConsole15trapPrintStringEPKc
_ZN8KConsole12trapPrintIntEmii
