GAS LISTING /tmp/ccmoKFXP.s 			page 1


   1              		.file	"buddyAllocator.cpp"
   2              		.option pic
   3              		.option norelax
   4              		.text
   5              	.Ltext0:
   6              		.align	2
   7              		.globl	_Z12getBlockAddrm
   9              	_Z12getBlockAddrm:
  10              	.LFB9:
  11              		.file 1 "src/buddyAllocator.cpp"
   1:src/buddyAllocator.cpp **** #include "../h/buddyAllocator.hpp"
   2:src/buddyAllocator.cpp **** #include "../h/KConsole.hpp"
   3:src/buddyAllocator.cpp **** 
   4:src/buddyAllocator.cpp **** #define BLOCK_SIZE 4096
   5:src/buddyAllocator.cpp **** 
   6:src/buddyAllocator.cpp **** buddyAllocator* buddy_init(void* addr, size_t numOfBlocks)
   7:src/buddyAllocator.cpp **** {
   8:src/buddyAllocator.cpp ****     KConsole::trapPrintString("Buddy initialization\n");
   9:src/buddyAllocator.cpp ****     size_t blockAddr = getBlockAddr((size_t)addr); //alling the address
  10:src/buddyAllocator.cpp ****     size_t buddyAddr = (size_t)addr;
  11:src/buddyAllocator.cpp ****     KConsole::trapPrintInt(blockAddr,16); KConsole::trapPrintString("\n");
  12:src/buddyAllocator.cpp ****     KConsole::trapPrintInt(buddyAddr,16); KConsole::trapPrintString("\n");
  13:src/buddyAllocator.cpp ****     if((size_t)addr != blockAddr) // if start address not aligned
  14:src/buddyAllocator.cpp ****     {
  15:src/buddyAllocator.cpp ****         buddyAddr = getNextBlockAddr(blockAddr);
  16:src/buddyAllocator.cpp ****         numOfBlocks--; //have to discard one block
  17:src/buddyAllocator.cpp ****     }
  18:src/buddyAllocator.cpp ****     KConsole::trapPrintString("Buddy metadata address: ");
  19:src/buddyAllocator.cpp ****     KConsole::trapPrintInt(buddyAddr,16); KConsole::trapPrintString("\n");
  20:src/buddyAllocator.cpp ****     numOfBlocks--; // take one block for buddy metadata
  21:src/buddyAllocator.cpp ****     buddyAllocator* buddy = (buddyAllocator*)buddyAddr;
  22:src/buddyAllocator.cpp ****     buddy->startAddr = (void*)getNextBlockAddr(buddyAddr);
  23:src/buddyAllocator.cpp ****     buddy->numOfBlocks = numOfBlocks;
  24:src/buddyAllocator.cpp ****     buddy->numOfFreeBlocks = numOfBlocks;
  25:src/buddyAllocator.cpp ****     buddy->maxLevel = getDeg2Floor(numOfBlocks);
  26:src/buddyAllocator.cpp **** 
  27:src/buddyAllocator.cpp ****     for(size_t i = 0; i <= buddy->maxLevel;i++)
  28:src/buddyAllocator.cpp ****         buddy->bucket[i].first = buddy->bucket[i].last = nullptr;
  29:src/buddyAllocator.cpp **** 
  30:src/buddyAllocator.cpp ****     //TODO
  31:src/buddyAllocator.cpp ****     //maybe do it differently, like putting in chunks of power of 2
  32:src/buddyAllocator.cpp ****     for(size_t i = 0;i < numOfBlocks;i++)
  33:src/buddyAllocator.cpp ****         addBlocks(buddy, (block*)buddy->startAddr + i, 0);
  34:src/buddyAllocator.cpp **** 
  35:src/buddyAllocator.cpp ****     return buddy;
  36:src/buddyAllocator.cpp **** }
  37:src/buddyAllocator.cpp **** 
  38:src/buddyAllocator.cpp **** void* buddy_alloc(buddyAllocator* buddy, size_t numOfBlocks)
  39:src/buddyAllocator.cpp **** {
  40:src/buddyAllocator.cpp ****     KConsole::trapPrintString("Buddy allocation: ");
  41:src/buddyAllocator.cpp ****     KConsole::trapPrintInt(numOfBlocks); KConsole::trapPrintString("\n");
  42:src/buddyAllocator.cpp ****     size_t level = getDeg2Ceil(numOfBlocks);
  43:src/buddyAllocator.cpp ****     KConsole::trapPrintString("Level: ");
  44:src/buddyAllocator.cpp ****     KConsole::trapPrintInt(level); KConsole::trapPrintString("\n");
  45:src/buddyAllocator.cpp ****     for(size_t i = level; i <= buddy->maxLevel;i++)
  46:src/buddyAllocator.cpp ****     {
  47:src/buddyAllocator.cpp ****         if(buddy->bucket[i].first != nullptr)
GAS LISTING /tmp/ccmoKFXP.s 			page 2


  48:src/buddyAllocator.cpp ****         {
  49:src/buddyAllocator.cpp ****             buddyBlock* ret = buddy->bucket[i].first;
  50:src/buddyAllocator.cpp ****             KConsole::trapPrintString("Found the block:");
  51:src/buddyAllocator.cpp ****             KConsole::trapPrintInt((size_t)ret, 16); KConsole::trapPrintString("\n");
  52:src/buddyAllocator.cpp ****             buddy->bucket[i].first = ret->next;
  53:src/buddyAllocator.cpp ****             if(buddy->bucket[i].first == nullptr)
  54:src/buddyAllocator.cpp ****                 buddy->bucket[i].last = nullptr;
  55:src/buddyAllocator.cpp ****             split(buddy, (void*)ret, level, i, true);
  56:src/buddyAllocator.cpp ****             return ret;
  57:src/buddyAllocator.cpp ****         }
  58:src/buddyAllocator.cpp ****     }
  59:src/buddyAllocator.cpp **** 
  60:src/buddyAllocator.cpp ****     return nullptr;
  61:src/buddyAllocator.cpp **** }
  62:src/buddyAllocator.cpp **** 
  63:src/buddyAllocator.cpp **** //split chunks into smaller chunks, until it is necessary
  64:src/buddyAllocator.cpp **** void split(buddyAllocator* buddy, void* addr, size_t finalLevel, size_t currLevel, bool splitMore)
  65:src/buddyAllocator.cpp **** {
  66:src/buddyAllocator.cpp ****     if(!splitMore)
  67:src/buddyAllocator.cpp ****     {
  68:src/buddyAllocator.cpp ****         addBlockToLevel(buddy, addr, currLevel);
  69:src/buddyAllocator.cpp ****     }
  70:src/buddyAllocator.cpp ****     else
  71:src/buddyAllocator.cpp ****     {
  72:src/buddyAllocator.cpp ****         if(currLevel == finalLevel)
  73:src/buddyAllocator.cpp ****             return;
  74:src/buddyAllocator.cpp ****         size_t buddyBlock = getBuddyBlockAddr(buddy, addr, currLevel - 1); // currLevel - 1 for nex
  75:src/buddyAllocator.cpp ****         split(buddy, (void*)buddyBlock, finalLevel, currLevel - 1, false); // continue splitting
  76:src/buddyAllocator.cpp ****         split(buddy, addr, finalLevel, currLevel - 1, true); // continue splitting
  77:src/buddyAllocator.cpp ****     }
  78:src/buddyAllocator.cpp **** }
  79:src/buddyAllocator.cpp **** 
  80:src/buddyAllocator.cpp **** //TODO
  81:src/buddyAllocator.cpp **** //maybe check if address is aligned to start of block
  82:src/buddyAllocator.cpp **** void buddy_free(buddyAllocator* buddy, void* addr, size_t numOfBlocks)
  83:src/buddyAllocator.cpp **** {
  84:src/buddyAllocator.cpp ****     KConsole::trapPrintString("Buddy free: ");
  85:src/buddyAllocator.cpp ****     KConsole::trapPrintInt((size_t)addr,16); KConsole::trapPrintString(" ");
  86:src/buddyAllocator.cpp ****     KConsole::trapPrintInt(numOfBlocks); KConsole::trapPrintString("\n");
  87:src/buddyAllocator.cpp ****     size_t level = getDeg2Ceil(numOfBlocks);
  88:src/buddyAllocator.cpp ****     addBlocks(buddy, addr, level); //adds free blocks
  89:src/buddyAllocator.cpp **** }
  90:src/buddyAllocator.cpp **** 
  91:src/buddyAllocator.cpp **** size_t getBlockAddr(size_t addr)
  92:src/buddyAllocator.cpp **** {
  12              		.loc 1 92 1
  13              		.cfi_startproc
  14              	.LVL0:
  15 0000 130101FF 		addi	sp,sp,-16
  16              		.cfi_def_cfa_offset 16
  17 0004 23348100 		sd	s0,8(sp)
  18              		.cfi_offset 8, -8
  19 0008 13040101 		addi	s0,sp,16
  20              		.cfi_def_cfa 8, 0
  93:src/buddyAllocator.cpp ****     size_t mask = ((size_t)-1) << BLOCK_SIZE_POWER_2;
  21              		.loc 1 93 5
  22              	.LVL1:
GAS LISTING /tmp/ccmoKFXP.s 			page 3


  94:src/buddyAllocator.cpp ****     return addr & mask;
  23              		.loc 1 94 5
  95:src/buddyAllocator.cpp **** }
  24              		.loc 1 95 1 is_stmt 0
  25 000c B7F7FFFF 		li	a5,-4096
  26 0010 3375F500 		and	a0,a0,a5
  27              	.LVL2:
  28 0014 03348100 		ld	s0,8(sp)
  29              		.cfi_restore 8
  30              		.cfi_def_cfa 2, 16
  31 0018 13010101 		addi	sp,sp,16
  32              		.cfi_def_cfa_offset 0
  33 001c 67800000 		jr	ra
  34              		.cfi_endproc
  35              	.LFE9:
  37              		.align	2
  38              		.globl	_Z16getNextBlockAddrm
  40              	_Z16getNextBlockAddrm:
  41              	.LFB10:
  96:src/buddyAllocator.cpp **** size_t getNextBlockAddr(size_t addr)
  97:src/buddyAllocator.cpp **** {
  42              		.loc 1 97 1 is_stmt 1
  43              		.cfi_startproc
  44              	.LVL3:
  45 0020 130101FF 		addi	sp,sp,-16
  46              		.cfi_def_cfa_offset 16
  47 0024 23341100 		sd	ra,8(sp)
  48 0028 23308100 		sd	s0,0(sp)
  49              		.cfi_offset 1, -8
  50              		.cfi_offset 8, -16
  51 002c 13040101 		addi	s0,sp,16
  52              		.cfi_def_cfa 8, 0
  98:src/buddyAllocator.cpp ****     size_t currBlock = getBlockAddr(addr);
  53              		.loc 1 98 5
  54              		.loc 1 98 36 is_stmt 0
  55 0030 97000000 		call	_Z12getBlockAddrm
  55      E7800000 
  56              	.LVL4:
  99:src/buddyAllocator.cpp ****     return currBlock + BLOCK_SIZE;
  57              		.loc 1 99 5 is_stmt 1
 100:src/buddyAllocator.cpp **** }
  58              		.loc 1 100 1 is_stmt 0
  59 0038 B7170000 		li	a5,4096
  60 003c 3305F500 		add	a0,a0,a5
  61              	.LVL5:
  62 0040 83308100 		ld	ra,8(sp)
  63              		.cfi_restore 1
  64 0044 03340100 		ld	s0,0(sp)
  65              		.cfi_restore 8
  66              		.cfi_def_cfa 2, 16
  67 0048 13010101 		addi	sp,sp,16
  68              		.cfi_def_cfa_offset 0
  69 004c 67800000 		jr	ra
  70              		.cfi_endproc
  71              	.LFE10:
  73              		.align	2
  74              		.globl	_Z12getDeg2Floorm
GAS LISTING /tmp/ccmoKFXP.s 			page 4


  76              	_Z12getDeg2Floorm:
  77              	.LFB11:
 101:src/buddyAllocator.cpp **** 
 102:src/buddyAllocator.cpp **** size_t getDeg2Floor(size_t num)
 103:src/buddyAllocator.cpp **** {
  78              		.loc 1 103 1 is_stmt 1
  79              		.cfi_startproc
  80              	.LVL6:
  81 0050 130101FF 		addi	sp,sp,-16
  82              		.cfi_def_cfa_offset 16
  83 0054 23348100 		sd	s0,8(sp)
  84              		.cfi_offset 8, -8
  85 0058 13040101 		addi	s0,sp,16
  86              		.cfi_def_cfa 8, 0
 104:src/buddyAllocator.cpp ****     size_t x = 1;
  87              		.loc 1 104 5
  88              	.LVL7:
 105:src/buddyAllocator.cpp ****     size_t deg = 0;
  89              		.loc 1 105 5
  90              		.loc 1 105 12 is_stmt 0
  91 005c 13070000 		li	a4,0
 104:src/buddyAllocator.cpp ****     size_t x = 1;
  92              		.loc 1 104 12
  93 0060 93071000 		li	a5,1
  94              	.LVL8:
  95              	.L7:
 106:src/buddyAllocator.cpp ****     while(x <= num)
  96              		.loc 1 106 5 is_stmt 1
  97              		.loc 1 106 13
  98 0064 6368F500 		bgtu	a5,a0,.L6
 107:src/buddyAllocator.cpp ****     {
 108:src/buddyAllocator.cpp ****         deg++;
  99              		.loc 1 108 9
 100              		.loc 1 108 12 is_stmt 0
 101 0068 13071700 		addi	a4,a4,1
 102              	.LVL9:
 109:src/buddyAllocator.cpp ****         x<<=1;
 103              		.loc 1 109 9 is_stmt 1
 104              		.loc 1 109 10 is_stmt 0
 105 006c 93971700 		slli	a5,a5,1
 106              	.LVL10:
 106:src/buddyAllocator.cpp ****     while(x <= num)
 107              		.loc 1 106 5
 108 0070 6FF05FFF 		j	.L7
 109              	.L6:
 110:src/buddyAllocator.cpp ****     }
 111:src/buddyAllocator.cpp ****     return deg - 1;
 110              		.loc 1 111 5 is_stmt 1
 112:src/buddyAllocator.cpp **** }
 111              		.loc 1 112 1 is_stmt 0
 112 0074 1305F7FF 		addi	a0,a4,-1
 113              	.LVL11:
 114 0078 03348100 		ld	s0,8(sp)
 115              		.cfi_restore 8
 116              		.cfi_def_cfa 2, 16
 117 007c 13010101 		addi	sp,sp,16
 118              		.cfi_def_cfa_offset 0
GAS LISTING /tmp/ccmoKFXP.s 			page 5


 119 0080 67800000 		jr	ra
 120              		.cfi_endproc
 121              	.LFE11:
 123              		.align	2
 124              		.globl	_Z11getDeg2Ceilm
 126              	_Z11getDeg2Ceilm:
 127              	.LFB12:
 113:src/buddyAllocator.cpp **** 
 114:src/buddyAllocator.cpp **** size_t getDeg2Ceil(size_t num)
 115:src/buddyAllocator.cpp **** {
 128              		.loc 1 115 1 is_stmt 1
 129              		.cfi_startproc
 130              	.LVL12:
 131 0084 130101FF 		addi	sp,sp,-16
 132              		.cfi_def_cfa_offset 16
 133 0088 23348100 		sd	s0,8(sp)
 134              		.cfi_offset 8, -8
 135 008c 13040101 		addi	s0,sp,16
 136              		.cfi_def_cfa 8, 0
 137 0090 13070500 		mv	a4,a0
 116:src/buddyAllocator.cpp ****     size_t x = 1;
 138              		.loc 1 116 5
 139              	.LVL13:
 117:src/buddyAllocator.cpp ****     size_t deg = 0;
 140              		.loc 1 117 5
 141              		.loc 1 117 12 is_stmt 0
 142 0094 13050000 		li	a0,0
 143              	.LVL14:
 116:src/buddyAllocator.cpp ****     size_t x = 1;
 144              		.loc 1 116 12
 145 0098 93071000 		li	a5,1
 146              	.LVL15:
 147              	.L11:
 118:src/buddyAllocator.cpp ****     while(x < num)
 148              		.loc 1 118 5 is_stmt 1
 149              		.loc 1 118 13
 150 009c 63F8E700 		bgeu	a5,a4,.L9
 119:src/buddyAllocator.cpp ****     {
 120:src/buddyAllocator.cpp ****         deg++;
 151              		.loc 1 120 9
 152              		.loc 1 120 12 is_stmt 0
 153 00a0 13051500 		addi	a0,a0,1
 154              	.LVL16:
 121:src/buddyAllocator.cpp ****         x<<=1;
 155              		.loc 1 121 9 is_stmt 1
 156              		.loc 1 121 10 is_stmt 0
 157 00a4 93971700 		slli	a5,a5,1
 158              	.LVL17:
 118:src/buddyAllocator.cpp ****     while(x < num)
 159              		.loc 1 118 5
 160 00a8 6FF05FFF 		j	.L11
 161              	.L9:
 122:src/buddyAllocator.cpp ****     }
 123:src/buddyAllocator.cpp ****     return deg;
 124:src/buddyAllocator.cpp **** }
 162              		.loc 1 124 1
 163 00ac 03348100 		ld	s0,8(sp)
GAS LISTING /tmp/ccmoKFXP.s 			page 6


 164              		.cfi_restore 8
 165              		.cfi_def_cfa 2, 16
 166 00b0 13010101 		addi	sp,sp,16
 167              		.cfi_def_cfa_offset 0
 168 00b4 67800000 		jr	ra
 169              		.cfi_endproc
 170              	.LFE12:
 172              		.align	2
 173              		.globl	_Z15addBlockToLevelP14buddyAllocatorPvm
 175              	_Z15addBlockToLevelP14buddyAllocatorPvm:
 176              	.LFB14:
 125:src/buddyAllocator.cpp **** 
 126:src/buddyAllocator.cpp **** //TODO
 127:src/buddyAllocator.cpp **** //maybe change it to work with levels instead of numOfBlocks
 128:src/buddyAllocator.cpp **** //function to add free blocks to the buddy
 129:src/buddyAllocator.cpp **** void addBlocks(buddyAllocator* buddy, void* addr, size_t level)
 130:src/buddyAllocator.cpp **** {
 131:src/buddyAllocator.cpp ****     if(level == buddy->maxLevel)
 132:src/buddyAllocator.cpp ****     {
 133:src/buddyAllocator.cpp ****         addBlockToLevel(buddy, addr, level);
 134:src/buddyAllocator.cpp ****         return;
 135:src/buddyAllocator.cpp ****     }
 136:src/buddyAllocator.cpp ****     size_t buddyBlockAddr = getBuddyBlockAddr(buddy,addr,level);
 137:src/buddyAllocator.cpp ****     KConsole::trapPrintString("Buddy block addr ");
 138:src/buddyAllocator.cpp ****     KConsole::trapPrintInt(buddyBlockAddr, 16); KConsole::trapPrintString("\n");
 139:src/buddyAllocator.cpp ****     buddyBlock* curr = buddy->bucket[level].first;
 140:src/buddyAllocator.cpp ****     buddyBlock* prev = nullptr;
 141:src/buddyAllocator.cpp ****     while(curr != nullptr)
 142:src/buddyAllocator.cpp ****     {
 143:src/buddyAllocator.cpp ****         if((size_t)curr == buddyBlockAddr)
 144:src/buddyAllocator.cpp ****         {
 145:src/buddyAllocator.cpp ****             if(prev != nullptr)
 146:src/buddyAllocator.cpp ****             {
 147:src/buddyAllocator.cpp ****                 prev->next = curr->next;
 148:src/buddyAllocator.cpp ****                 if(curr == buddy->bucket[level].last)
 149:src/buddyAllocator.cpp ****                     buddy->bucket[level].last = prev;
 150:src/buddyAllocator.cpp ****             }
 151:src/buddyAllocator.cpp ****             else
 152:src/buddyAllocator.cpp ****             {
 153:src/buddyAllocator.cpp ****                 if(curr->next == nullptr)
 154:src/buddyAllocator.cpp ****                     buddy->bucket[level].first = buddy->bucket[level].last = nullptr;
 155:src/buddyAllocator.cpp ****                 else
 156:src/buddyAllocator.cpp ****                     buddy->bucket[level].first = curr->next;
 157:src/buddyAllocator.cpp ****             }
 158:src/buddyAllocator.cpp ****             if((size_t)addr < buddyBlockAddr) addBlocks(buddy, addr, level + 1); //merge two chunks
 159:src/buddyAllocator.cpp ****             else addBlocks(buddy, (void*)buddyBlockAddr, level + 1); //merge two chunks
 160:src/buddyAllocator.cpp ****             return;
 161:src/buddyAllocator.cpp ****         }
 162:src/buddyAllocator.cpp **** 
 163:src/buddyAllocator.cpp ****         prev = curr;
 164:src/buddyAllocator.cpp ****         curr = curr->next;
 165:src/buddyAllocator.cpp ****     }
 166:src/buddyAllocator.cpp **** 
 167:src/buddyAllocator.cpp ****     addBlockToLevel(buddy, addr, level);
 168:src/buddyAllocator.cpp **** }
 169:src/buddyAllocator.cpp **** 
 170:src/buddyAllocator.cpp **** //adds free block to level
GAS LISTING /tmp/ccmoKFXP.s 			page 7


 171:src/buddyAllocator.cpp **** void addBlockToLevel(buddyAllocator* buddy, void* addr, size_t level)
 172:src/buddyAllocator.cpp **** {
 177              		.loc 1 172 1 is_stmt 1
 178              		.cfi_startproc
 179              	.LVL18:
 180 00b8 130101FF 		addi	sp,sp,-16
 181              		.cfi_def_cfa_offset 16
 182 00bc 23348100 		sd	s0,8(sp)
 183              		.cfi_offset 8, -8
 184 00c0 13040101 		addi	s0,sp,16
 185              		.cfi_def_cfa 8, 0
 173:src/buddyAllocator.cpp ****     buddyBlock* newBlock = (buddyBlock*)addr;
 186              		.loc 1 173 5
 187              	.LVL19:
 174:src/buddyAllocator.cpp ****     newBlock->next = nullptr;
 188              		.loc 1 174 5
 189              		.loc 1 174 20 is_stmt 0
 190 00c4 23B00500 		sd	zero,0(a1)
 175:src/buddyAllocator.cpp ****     if(buddy->bucket[level].first == nullptr)
 191              		.loc 1 175 5 is_stmt 1
 192              		.loc 1 175 29 is_stmt 0
 193 00c8 93072600 		addi	a5,a2,2
 194 00cc 93974700 		slli	a5,a5,4
 195 00d0 B307F500 		add	a5,a0,a5
 196 00d4 83B70700 		ld	a5,0(a5)
 197              		.loc 1 175 5
 198 00d8 63840702 		beqz	a5,.L17
 176:src/buddyAllocator.cpp ****     {
 177:src/buddyAllocator.cpp ****         buddy->bucket[level].first = buddy->bucket[level].last = newBlock;
 178:src/buddyAllocator.cpp ****     }
 179:src/buddyAllocator.cpp ****     else
 180:src/buddyAllocator.cpp ****     {
 181:src/buddyAllocator.cpp ****         buddy->bucket[level].last->next = newBlock;
 199              		.loc 1 181 9 is_stmt 1
 200              		.loc 1 181 30 is_stmt 0
 201 00dc 13062600 		addi	a2,a2,2
 202              	.LVL20:
 203 00e0 13164600 		slli	a2,a2,4
 204              	.LVL21:
 205 00e4 3306C500 		add	a2,a0,a2
 206 00e8 83378600 		ld	a5,8(a2)
 207              		.loc 1 181 41
 208 00ec 23B0B700 		sd	a1,0(a5)
 182:src/buddyAllocator.cpp ****         buddy->bucket[level].last = newBlock;
 209              		.loc 1 182 9 is_stmt 1
 210              		.loc 1 182 35 is_stmt 0
 211 00f0 2334B600 		sd	a1,8(a2)
 212              	.L13:
 183:src/buddyAllocator.cpp ****     }
 184:src/buddyAllocator.cpp **** }
 213              		.loc 1 184 1
 214 00f4 03348100 		ld	s0,8(sp)
 215              		.cfi_remember_state
 216              		.cfi_restore 8
 217              		.cfi_def_cfa 2, 16
 218 00f8 13010101 		addi	sp,sp,16
 219              		.cfi_def_cfa_offset 0
GAS LISTING /tmp/ccmoKFXP.s 			page 8


 220 00fc 67800000 		jr	ra
 221              	.LVL22:
 222              	.L17:
 223              		.cfi_restore_state
 177:src/buddyAllocator.cpp ****     }
 224              		.loc 1 177 9 is_stmt 1
 177:src/buddyAllocator.cpp ****     }
 225              		.loc 1 177 64 is_stmt 0
 226 0100 13062600 		addi	a2,a2,2
 227              	.LVL23:
 228 0104 13164600 		slli	a2,a2,4
 229              	.LVL24:
 230 0108 3306C500 		add	a2,a0,a2
 231 010c 2334B600 		sd	a1,8(a2)
 177:src/buddyAllocator.cpp ****     }
 232              		.loc 1 177 36
 233 0110 2330B600 		sd	a1,0(a2)
 234 0114 6FF01FFE 		j	.L13
 235              		.cfi_endproc
 236              	.LFE14:
 238              		.align	2
 239              		.globl	_Z17getBuddyBlockAddrP14buddyAllocatorPvm
 241              	_Z17getBuddyBlockAddrP14buddyAllocatorPvm:
 242              	.LFB15:
 185:src/buddyAllocator.cpp **** 
 186:src/buddyAllocator.cpp **** size_t getBuddyBlockAddr(buddyAllocator* buddy, void* addr, size_t level)
 187:src/buddyAllocator.cpp **** {
 243              		.loc 1 187 1 is_stmt 1
 244              		.cfi_startproc
 245              	.LVL25:
 246 0118 130101FF 		addi	sp,sp,-16
 247              		.cfi_def_cfa_offset 16
 248 011c 23348100 		sd	s0,8(sp)
 249              		.cfi_offset 8, -8
 250 0120 13040101 		addi	s0,sp,16
 251              		.cfi_def_cfa 8, 0
 188:src/buddyAllocator.cpp ****     size_t diff = BLOCK_SIZE << level;
 252              		.loc 1 188 5
 253              		.loc 1 188 30 is_stmt 0
 254 0124 B7170000 		li	a5,4096
 255 0128 3B96C700 		sllw	a2,a5,a2
 256              	.LVL26:
 189:src/buddyAllocator.cpp ****     size_t off = (size_t)addr - (size_t)buddy->startAddr;
 257              		.loc 1 189 5 is_stmt 1
 258              		.loc 1 189 48 is_stmt 0
 259 012c 83378500 		ld	a5,8(a0)
 260              		.loc 1 189 12
 261 0130 B387F540 		sub	a5,a1,a5
 262              	.LVL27:
 190:src/buddyAllocator.cpp ****     if(diff & off)
 263              		.loc 1 190 5 is_stmt 1
 264              		.loc 1 190 13 is_stmt 0
 265 0134 B377F600 		and	a5,a2,a5
 266              	.LVL28:
 267              		.loc 1 190 5
 268 0138 638A0700 		beqz	a5,.L19
 191:src/buddyAllocator.cpp ****         return (size_t)addr - diff;
GAS LISTING /tmp/ccmoKFXP.s 			page 9


 269              		.loc 1 191 9 is_stmt 1
 270              		.loc 1 191 31 is_stmt 0
 271 013c 3385C540 		sub	a0,a1,a2
 272              	.LVL29:
 273              	.L18:
 192:src/buddyAllocator.cpp ****     else
 193:src/buddyAllocator.cpp ****         return (size_t)addr + diff;
 194:src/buddyAllocator.cpp **** }
 274              		.loc 1 194 1
 275 0140 03348100 		ld	s0,8(sp)
 276              		.cfi_remember_state
 277              		.cfi_restore 8
 278              		.cfi_def_cfa 2, 16
 279 0144 13010101 		addi	sp,sp,16
 280              		.cfi_def_cfa_offset 0
 281 0148 67800000 		jr	ra
 282              	.LVL30:
 283              	.L19:
 284              		.cfi_restore_state
 193:src/buddyAllocator.cpp **** }
 285              		.loc 1 193 9 is_stmt 1
 193:src/buddyAllocator.cpp **** }
 286              		.loc 1 193 31 is_stmt 0
 287 014c 3385C500 		add	a0,a1,a2
 288              	.LVL31:
 289 0150 6FF01FFF 		j	.L18
 290              		.cfi_endproc
 291              	.LFE15:
 293              		.align	2
 294              		.globl	_Z5splitP14buddyAllocatorPvmmb
 296              	_Z5splitP14buddyAllocatorPvmmb:
 297              	.LFB7:
  65:src/buddyAllocator.cpp ****     if(!splitMore)
 298              		.loc 1 65 1 is_stmt 1
 299              		.cfi_startproc
 300              	.LVL32:
 301 0154 130101FD 		addi	sp,sp,-48
 302              		.cfi_def_cfa_offset 48
 303 0158 23341102 		sd	ra,40(sp)
 304 015c 23308102 		sd	s0,32(sp)
 305 0160 233C9100 		sd	s1,24(sp)
 306 0164 23382101 		sd	s2,16(sp)
 307 0168 23343101 		sd	s3,8(sp)
 308 016c 23304101 		sd	s4,0(sp)
 309              		.cfi_offset 1, -8
 310              		.cfi_offset 8, -16
 311              		.cfi_offset 9, -24
 312              		.cfi_offset 18, -32
 313              		.cfi_offset 19, -40
 314              		.cfi_offset 20, -48
 315 0170 13040103 		addi	s0,sp,48
 316              		.cfi_def_cfa 8, 0
 317 0174 13090500 		mv	s2,a0
 318 0178 138A0500 		mv	s4,a1
  66:src/buddyAllocator.cpp ****     {
 319              		.loc 1 66 5
 320              	.LBB2:
GAS LISTING /tmp/ccmoKFXP.s 			page 10


 321 017c 630A0706 		beqz	a4,.L26
 322 0180 93090600 		mv	s3,a2
 323              	.LBB3:
  72:src/buddyAllocator.cpp ****             return;
 324              		.loc 1 72 9
 325 0184 6386C604 		beq	a3,a2,.L22
  74:src/buddyAllocator.cpp ****         split(buddy, (void*)buddyBlock, finalLevel, currLevel - 1, false); // continue splitting
 326              		.loc 1 74 9
  74:src/buddyAllocator.cpp ****         split(buddy, (void*)buddyBlock, finalLevel, currLevel - 1, false); // continue splitting
 327              		.loc 1 74 46 is_stmt 0
 328 0188 9384F6FF 		addi	s1,a3,-1
 329 018c 13860400 		mv	a2,s1
 330              	.LVL33:
 331 0190 97000000 		call	_Z17getBuddyBlockAddrP14buddyAllocatorPvm
 331      E7800000 
 332              	.LVL34:
 333 0198 93050500 		mv	a1,a0
 334              	.LVL35:
  75:src/buddyAllocator.cpp ****         split(buddy, addr, finalLevel, currLevel - 1, true); // continue splitting
 335              		.loc 1 75 9 is_stmt 1
  75:src/buddyAllocator.cpp ****         split(buddy, addr, finalLevel, currLevel - 1, true); // continue splitting
 336              		.loc 1 75 14 is_stmt 0
 337 019c 13070000 		li	a4,0
 338 01a0 93860400 		mv	a3,s1
 339 01a4 13860900 		mv	a2,s3
 340 01a8 13050900 		mv	a0,s2
 341              	.LVL36:
 342 01ac 97000000 		call	_Z5splitP14buddyAllocatorPvmmb
 342      E7800000 
 343              	.LVL37:
  76:src/buddyAllocator.cpp ****     }
 344              		.loc 1 76 9 is_stmt 1
  76:src/buddyAllocator.cpp ****     }
 345              		.loc 1 76 14 is_stmt 0
 346 01b4 13071000 		li	a4,1
 347 01b8 93860400 		mv	a3,s1
 348 01bc 13860900 		mv	a2,s3
 349 01c0 93050A00 		mv	a1,s4
 350 01c4 13050900 		mv	a0,s2
 351 01c8 97000000 		call	_Z5splitP14buddyAllocatorPvmmb
 351      E7800000 
 352              	.LVL38:
 353              	.L22:
 354              	.LBE3:
 355              	.LBE2:
  78:src/buddyAllocator.cpp **** 
 356              		.loc 1 78 1
 357 01d0 83308102 		ld	ra,40(sp)
 358              		.cfi_remember_state
 359              		.cfi_restore 1
 360 01d4 03340102 		ld	s0,32(sp)
 361              		.cfi_restore 8
 362              		.cfi_def_cfa 2, 48
 363 01d8 83348101 		ld	s1,24(sp)
 364              		.cfi_restore 9
 365 01dc 03390101 		ld	s2,16(sp)
 366              		.cfi_restore 18
GAS LISTING /tmp/ccmoKFXP.s 			page 11


 367              	.LVL39:
 368 01e0 83398100 		ld	s3,8(sp)
 369              		.cfi_restore 19
 370 01e4 033A0100 		ld	s4,0(sp)
 371              		.cfi_restore 20
 372              	.LVL40:
 373 01e8 13010103 		addi	sp,sp,48
 374              		.cfi_def_cfa_offset 0
 375 01ec 67800000 		jr	ra
 376              	.LVL41:
 377              	.L26:
 378              		.cfi_restore_state
 379              	.LBB4:
  68:src/buddyAllocator.cpp ****     }
 380              		.loc 1 68 9 is_stmt 1
  68:src/buddyAllocator.cpp ****     }
 381              		.loc 1 68 24 is_stmt 0
 382 01f0 13860600 		mv	a2,a3
 383              	.LVL42:
 384 01f4 97000000 		call	_Z15addBlockToLevelP14buddyAllocatorPvm
 384      E7800000 
 385              	.LVL43:
 386 01fc 6FF05FFD 		j	.L22
 387              	.LBE4:
 388              		.cfi_endproc
 389              	.LFE7:
 391              		.section	.rodata.str1.8,"aMS",@progbits,1
 392              		.align	3
 393              	.LC0:
 394 0000 42756464 		.string	"Buddy allocation: "
 394      7920616C 
 394      6C6F6361 
 394      74696F6E 
 394      3A2000
 395 0013 00000000 		.align	3
 395      00
 396              	.LC1:
 397 0018 0A00     		.string	"\n"
 398 001a 00000000 		.align	3
 398      0000
 399              	.LC2:
 400 0020 4C657665 		.string	"Level: "
 400      6C3A2000 
 401              		.align	3
 402              	.LC3:
 403 0028 466F756E 		.string	"Found the block:"
 403      64207468 
 403      6520626C 
 403      6F636B3A 
 403      00
 404              		.text
 405              		.align	2
 406              		.globl	_Z11buddy_allocP14buddyAllocatorm
 408              	_Z11buddy_allocP14buddyAllocatorm:
 409              	.LFB6:
  39:src/buddyAllocator.cpp ****     KConsole::trapPrintString("Buddy allocation: ");
 410              		.loc 1 39 1 is_stmt 1
GAS LISTING /tmp/ccmoKFXP.s 			page 12


 411              		.cfi_startproc
 412              	.LVL44:
 413 0200 130101FD 		addi	sp,sp,-48
 414              		.cfi_def_cfa_offset 48
 415 0204 23341102 		sd	ra,40(sp)
 416 0208 23308102 		sd	s0,32(sp)
 417 020c 233C9100 		sd	s1,24(sp)
 418 0210 23382101 		sd	s2,16(sp)
 419 0214 23343101 		sd	s3,8(sp)
 420 0218 23304101 		sd	s4,0(sp)
 421              		.cfi_offset 1, -8
 422              		.cfi_offset 8, -16
 423              		.cfi_offset 9, -24
 424              		.cfi_offset 18, -32
 425              		.cfi_offset 19, -40
 426              		.cfi_offset 20, -48
 427 021c 13040103 		addi	s0,sp,48
 428              		.cfi_def_cfa 8, 0
 429 0220 13090500 		mv	s2,a0
 430 0224 93840500 		mv	s1,a1
  40:src/buddyAllocator.cpp ****     KConsole::trapPrintInt(numOfBlocks); KConsole::trapPrintString("\n");
 431              		.loc 1 40 5
  40:src/buddyAllocator.cpp ****     KConsole::trapPrintInt(numOfBlocks); KConsole::trapPrintString("\n");
 432              		.loc 1 40 30 is_stmt 0
 433 0228 17050000 		lla	a0,.LC0
 433      13050500 
 434              	.LVL45:
 435 0230 97000000 		call	_ZN8KConsole15trapPrintStringEPKc@plt
 435      E7800000 
 436              	.LVL46:
  41:src/buddyAllocator.cpp ****     size_t level = getDeg2Ceil(numOfBlocks);
 437              		.loc 1 41 5 is_stmt 1
  41:src/buddyAllocator.cpp ****     size_t level = getDeg2Ceil(numOfBlocks);
 438              		.loc 1 41 27 is_stmt 0
 439 0238 13060000 		li	a2,0
 440 023c 9305A000 		li	a1,10
 441 0240 13850400 		mv	a0,s1
 442 0244 97000000 		call	_ZN8KConsole12trapPrintIntEmii@plt
 442      E7800000 
 443              	.LVL47:
  41:src/buddyAllocator.cpp ****     size_t level = getDeg2Ceil(numOfBlocks);
 444              		.loc 1 41 42 is_stmt 1
  41:src/buddyAllocator.cpp ****     size_t level = getDeg2Ceil(numOfBlocks);
 445              		.loc 1 41 67 is_stmt 0
 446 024c 17050000 		lla	a0,.LC1
 446      13050500 
 447 0254 97000000 		call	_ZN8KConsole15trapPrintStringEPKc@plt
 447      E7800000 
 448              	.LVL48:
  42:src/buddyAllocator.cpp ****     KConsole::trapPrintString("Level: ");
 449              		.loc 1 42 5 is_stmt 1
  42:src/buddyAllocator.cpp ****     KConsole::trapPrintString("Level: ");
 450              		.loc 1 42 31 is_stmt 0
 451 025c 13850400 		mv	a0,s1
 452 0260 97000000 		call	_Z11getDeg2Ceilm
 452      E7800000 
 453              	.LVL49:
GAS LISTING /tmp/ccmoKFXP.s 			page 13


 454 0268 130A0500 		mv	s4,a0
 455              	.LVL50:
  43:src/buddyAllocator.cpp ****     KConsole::trapPrintInt(level); KConsole::trapPrintString("\n");
 456              		.loc 1 43 5 is_stmt 1
  43:src/buddyAllocator.cpp ****     KConsole::trapPrintInt(level); KConsole::trapPrintString("\n");
 457              		.loc 1 43 30 is_stmt 0
 458 026c 17050000 		lla	a0,.LC2
 458      13050500 
 459              	.LVL51:
 460 0274 97000000 		call	_ZN8KConsole15trapPrintStringEPKc@plt
 460      E7800000 
 461              	.LVL52:
  44:src/buddyAllocator.cpp ****     for(size_t i = level; i <= buddy->maxLevel;i++)
 462              		.loc 1 44 5 is_stmt 1
  44:src/buddyAllocator.cpp ****     for(size_t i = level; i <= buddy->maxLevel;i++)
 463              		.loc 1 44 27 is_stmt 0
 464 027c 13060000 		li	a2,0
 465 0280 9305A000 		li	a1,10
 466 0284 13050A00 		mv	a0,s4
 467 0288 97000000 		call	_ZN8KConsole12trapPrintIntEmii@plt
 467      E7800000 
 468              	.LVL53:
  44:src/buddyAllocator.cpp ****     for(size_t i = level; i <= buddy->maxLevel;i++)
 469              		.loc 1 44 36 is_stmt 1
  44:src/buddyAllocator.cpp ****     for(size_t i = level; i <= buddy->maxLevel;i++)
 470              		.loc 1 44 61 is_stmt 0
 471 0290 17050000 		lla	a0,.LC1
 471      13050500 
 472 0298 97000000 		call	_ZN8KConsole15trapPrintStringEPKc@plt
 472      E7800000 
 473              	.LVL54:
  45:src/buddyAllocator.cpp ****     {
 474              		.loc 1 45 5 is_stmt 1
 475              	.LBB5:
  45:src/buddyAllocator.cpp ****     {
 476              		.loc 1 45 16 is_stmt 0
 477 02a0 93040A00 		mv	s1,s4
 478              	.LVL55:
 479              	.L31:
  45:src/buddyAllocator.cpp ****     {
 480              		.loc 1 45 29 is_stmt 1 discriminator 1
  45:src/buddyAllocator.cpp ****     {
 481              		.loc 1 45 39 is_stmt 0 discriminator 1
 482 02a4 83378901 		ld	a5,24(s2)
  45:src/buddyAllocator.cpp ****     {
 483              		.loc 1 45 29 discriminator 1
 484 02a8 63E0970A 		bltu	a5,s1,.L32
 485              	.LBE5:
  47:src/buddyAllocator.cpp ****         {
 486              		.loc 1 47 9 is_stmt 1
 487              	.LBB9:
 488              	.LBB6:
  47:src/buddyAllocator.cpp ****         {
 489              		.loc 1 47 29 is_stmt 0
 490 02ac 93872400 		addi	a5,s1,2
 491 02b0 93974700 		slli	a5,a5,4
 492 02b4 B307F900 		add	a5,s2,a5
GAS LISTING /tmp/ccmoKFXP.s 			page 14


 493 02b8 83B90700 		ld	s3,0(a5)
  47:src/buddyAllocator.cpp ****         {
 494              		.loc 1 47 9
 495 02bc 63960900 		bnez	s3,.L34
 496              	.LBE6:
  45:src/buddyAllocator.cpp ****     {
 497              		.loc 1 45 5 is_stmt 1 discriminator 2
 498 02c0 93841400 		addi	s1,s1,1
 499              	.LVL56:
 500 02c4 6FF01FFE 		j	.L31
 501              	.L34:
 502              	.LBB8:
 503              	.LBB7:
  49:src/buddyAllocator.cpp ****             KConsole::trapPrintString("Found the block:");
 504              		.loc 1 49 13
 505              	.LVL57:
  50:src/buddyAllocator.cpp ****             KConsole::trapPrintInt((size_t)ret, 16); KConsole::trapPrintString("\n");
 506              		.loc 1 50 13
  50:src/buddyAllocator.cpp ****             KConsole::trapPrintInt((size_t)ret, 16); KConsole::trapPrintString("\n");
 507              		.loc 1 50 38 is_stmt 0
 508 02c8 17050000 		lla	a0,.LC3
 508      13050500 
 509 02d0 97000000 		call	_ZN8KConsole15trapPrintStringEPKc@plt
 509      E7800000 
 510              	.LVL58:
  51:src/buddyAllocator.cpp ****             buddy->bucket[i].first = ret->next;
 511              		.loc 1 51 13 is_stmt 1
  51:src/buddyAllocator.cpp ****             buddy->bucket[i].first = ret->next;
 512              		.loc 1 51 35 is_stmt 0
 513 02d8 13060000 		li	a2,0
 514 02dc 93050001 		li	a1,16
 515 02e0 13850900 		mv	a0,s3
 516 02e4 97000000 		call	_ZN8KConsole12trapPrintIntEmii@plt
 516      E7800000 
 517              	.LVL59:
  51:src/buddyAllocator.cpp ****             buddy->bucket[i].first = ret->next;
 518              		.loc 1 51 54 is_stmt 1
  51:src/buddyAllocator.cpp ****             buddy->bucket[i].first = ret->next;
 519              		.loc 1 51 79 is_stmt 0
 520 02ec 17050000 		lla	a0,.LC1
 520      13050500 
 521 02f4 97000000 		call	_ZN8KConsole15trapPrintStringEPKc@plt
 521      E7800000 
 522              	.LVL60:
  52:src/buddyAllocator.cpp ****             if(buddy->bucket[i].first == nullptr)
 523              		.loc 1 52 13 is_stmt 1
  52:src/buddyAllocator.cpp ****             if(buddy->bucket[i].first == nullptr)
 524              		.loc 1 52 43 is_stmt 0
 525 02fc 03B70900 		ld	a4,0(s3)
  52:src/buddyAllocator.cpp ****             if(buddy->bucket[i].first == nullptr)
 526              		.loc 1 52 36
 527 0300 93872400 		addi	a5,s1,2
 528 0304 93974700 		slli	a5,a5,4
 529 0308 B307F900 		add	a5,s2,a5
 530 030c 23B0E700 		sd	a4,0(a5)
  53:src/buddyAllocator.cpp ****                 buddy->bucket[i].last = nullptr;
 531              		.loc 1 53 13 is_stmt 1
GAS LISTING /tmp/ccmoKFXP.s 			page 15


 532 0310 63020702 		beqz	a4,.L35
 533              	.L30:
  55:src/buddyAllocator.cpp ****             return ret;
 534              		.loc 1 55 13
  55:src/buddyAllocator.cpp ****             return ret;
 535              		.loc 1 55 18 is_stmt 0
 536 0314 13071000 		li	a4,1
 537 0318 93860400 		mv	a3,s1
 538 031c 13060A00 		mv	a2,s4
 539 0320 93850900 		mv	a1,s3
 540 0324 13050900 		mv	a0,s2
 541 0328 97000000 		call	_Z5splitP14buddyAllocatorPvmmb
 541      E7800000 
 542              	.LVL61:
  56:src/buddyAllocator.cpp ****         }
 543              		.loc 1 56 13 is_stmt 1
  56:src/buddyAllocator.cpp ****         }
 544              		.loc 1 56 20 is_stmt 0
 545 0330 6F00C001 		j	.L27
 546              	.L35:
  54:src/buddyAllocator.cpp ****             split(buddy, (void*)ret, level, i, true);
 547              		.loc 1 54 17 is_stmt 1
  54:src/buddyAllocator.cpp ****             split(buddy, (void*)ret, level, i, true);
 548              		.loc 1 54 39 is_stmt 0
 549 0334 93872400 		addi	a5,s1,2
 550 0338 93974700 		slli	a5,a5,4
 551 033c B307F900 		add	a5,s2,a5
 552 0340 23B40700 		sd	zero,8(a5)
 553 0344 6FF01FFD 		j	.L30
 554              	.LVL62:
 555              	.L32:
 556              	.LBE7:
 557              	.LBE8:
 558              	.LBE9:
  60:src/buddyAllocator.cpp **** }
 559              		.loc 1 60 12
 560 0348 93090000 		li	s3,0
 561              	.L27:
  61:src/buddyAllocator.cpp **** 
 562              		.loc 1 61 1
 563 034c 13850900 		mv	a0,s3
 564 0350 83308102 		ld	ra,40(sp)
 565              		.cfi_restore 1
 566 0354 03340102 		ld	s0,32(sp)
 567              		.cfi_restore 8
 568              		.cfi_def_cfa 2, 48
 569 0358 83348101 		ld	s1,24(sp)
 570              		.cfi_restore 9
 571              	.LVL63:
 572 035c 03390101 		ld	s2,16(sp)
 573              		.cfi_restore 18
 574              	.LVL64:
 575 0360 83398100 		ld	s3,8(sp)
 576              		.cfi_restore 19
 577 0364 033A0100 		ld	s4,0(sp)
 578              		.cfi_restore 20
 579              	.LVL65:
GAS LISTING /tmp/ccmoKFXP.s 			page 16


 580 0368 13010103 		addi	sp,sp,48
 581              		.cfi_def_cfa_offset 0
 582 036c 67800000 		jr	ra
 583              		.cfi_endproc
 584              	.LFE6:
 586              		.section	.rodata.str1.8
 587 0039 00000000 		.align	3
 587      000000
 588              	.LC4:
 589 0040 42756464 		.string	"Buddy block addr "
 589      7920626C 
 589      6F636B20 
 589      61646472 
 589      2000
 590              		.text
 591              		.align	2
 592              		.globl	_Z9addBlocksP14buddyAllocatorPvm
 594              	_Z9addBlocksP14buddyAllocatorPvm:
 595              	.LFB13:
 130:src/buddyAllocator.cpp ****     if(level == buddy->maxLevel)
 596              		.loc 1 130 1 is_stmt 1
 597              		.cfi_startproc
 598              	.LVL66:
 599 0370 130101FD 		addi	sp,sp,-48
 600              		.cfi_def_cfa_offset 48
 601 0374 23341102 		sd	ra,40(sp)
 602 0378 23308102 		sd	s0,32(sp)
 603 037c 233C9100 		sd	s1,24(sp)
 604 0380 23382101 		sd	s2,16(sp)
 605 0384 23343101 		sd	s3,8(sp)
 606 0388 23304101 		sd	s4,0(sp)
 607              		.cfi_offset 1, -8
 608              		.cfi_offset 8, -16
 609              		.cfi_offset 9, -24
 610              		.cfi_offset 18, -32
 611              		.cfi_offset 19, -40
 612              		.cfi_offset 20, -48
 613 038c 13040103 		addi	s0,sp,48
 614              		.cfi_def_cfa 8, 0
 615 0390 13090500 		mv	s2,a0
 616 0394 138A0500 		mv	s4,a1
 617 0398 93090600 		mv	s3,a2
 131:src/buddyAllocator.cpp ****     {
 618              		.loc 1 131 5
 131:src/buddyAllocator.cpp ****     {
 619              		.loc 1 131 24 is_stmt 0
 620 039c 83378501 		ld	a5,24(a0)
 131:src/buddyAllocator.cpp ****     {
 621              		.loc 1 131 5
 622 03a0 6386C706 		beq	a5,a2,.L48
 136:src/buddyAllocator.cpp ****     KConsole::trapPrintString("Buddy block addr ");
 623              		.loc 1 136 5 is_stmt 1
 136:src/buddyAllocator.cpp ****     KConsole::trapPrintString("Buddy block addr ");
 624              		.loc 1 136 46 is_stmt 0
 625 03a4 97000000 		call	_Z17getBuddyBlockAddrP14buddyAllocatorPvm
 625      E7800000 
 626              	.LVL67:
GAS LISTING /tmp/ccmoKFXP.s 			page 17


 627 03ac 93040500 		mv	s1,a0
 628              	.LVL68:
 137:src/buddyAllocator.cpp ****     KConsole::trapPrintInt(buddyBlockAddr, 16); KConsole::trapPrintString("\n");
 629              		.loc 1 137 5 is_stmt 1
 137:src/buddyAllocator.cpp ****     KConsole::trapPrintInt(buddyBlockAddr, 16); KConsole::trapPrintString("\n");
 630              		.loc 1 137 30 is_stmt 0
 631 03b0 17050000 		lla	a0,.LC4
 631      13050500 
 632 03b8 97000000 		call	_ZN8KConsole15trapPrintStringEPKc@plt
 632      E7800000 
 633              	.LVL69:
 138:src/buddyAllocator.cpp ****     buddyBlock* curr = buddy->bucket[level].first;
 634              		.loc 1 138 5 is_stmt 1
 138:src/buddyAllocator.cpp ****     buddyBlock* curr = buddy->bucket[level].first;
 635              		.loc 1 138 27 is_stmt 0
 636 03c0 13060000 		li	a2,0
 637 03c4 93050001 		li	a1,16
 638 03c8 13850400 		mv	a0,s1
 639 03cc 97000000 		call	_ZN8KConsole12trapPrintIntEmii@plt
 639      E7800000 
 640              	.LVL70:
 138:src/buddyAllocator.cpp ****     buddyBlock* curr = buddy->bucket[level].first;
 641              		.loc 1 138 49 is_stmt 1
 138:src/buddyAllocator.cpp ****     buddyBlock* curr = buddy->bucket[level].first;
 642              		.loc 1 138 74 is_stmt 0
 643 03d4 17050000 		lla	a0,.LC1
 643      13050500 
 644 03dc 97000000 		call	_ZN8KConsole15trapPrintStringEPKc@plt
 644      E7800000 
 645              	.LVL71:
 139:src/buddyAllocator.cpp ****     buddyBlock* prev = nullptr;
 646              		.loc 1 139 5 is_stmt 1
 139:src/buddyAllocator.cpp ****     buddyBlock* prev = nullptr;
 647              		.loc 1 139 17 is_stmt 0
 648 03e4 93872900 		addi	a5,s3,2
 649 03e8 93974700 		slli	a5,a5,4
 650 03ec B307F900 		add	a5,s2,a5
 651 03f0 83B70700 		ld	a5,0(a5)
 652              	.LVL72:
 140:src/buddyAllocator.cpp ****     while(curr != nullptr)
 653              		.loc 1 140 5 is_stmt 1
 140:src/buddyAllocator.cpp ****     while(curr != nullptr)
 654              		.loc 1 140 17 is_stmt 0
 655 03f4 13070000 		li	a4,0
 656              	.LVL73:
 657              	.L46:
 141:src/buddyAllocator.cpp ****     {
 658              		.loc 1 141 5 is_stmt 1
 141:src/buddyAllocator.cpp ****     {
 659              		.loc 1 141 16
 660 03f8 638E070A 		beqz	a5,.L39
 143:src/buddyAllocator.cpp ****         {
 661              		.loc 1 143 9
 662 03fc 638E9700 		beq	a5,s1,.L49
 163:src/buddyAllocator.cpp ****         curr = curr->next;
 663              		.loc 1 163 9
 664              	.LVL74:
GAS LISTING /tmp/ccmoKFXP.s 			page 18


 164:src/buddyAllocator.cpp ****     }
 665              		.loc 1 164 9
 163:src/buddyAllocator.cpp ****         curr = curr->next;
 666              		.loc 1 163 14 is_stmt 0
 667 0400 13870700 		mv	a4,a5
 164:src/buddyAllocator.cpp ****     }
 668              		.loc 1 164 14
 669 0404 83B70700 		ld	a5,0(a5)
 670              	.LVL75:
 141:src/buddyAllocator.cpp ****     {
 671              		.loc 1 141 5
 672 0408 6FF01FFF 		j	.L46
 673              	.LVL76:
 674              	.L48:
 133:src/buddyAllocator.cpp ****         return;
 675              		.loc 1 133 9 is_stmt 1
 133:src/buddyAllocator.cpp ****         return;
 676              		.loc 1 133 24 is_stmt 0
 677 040c 97000000 		call	_Z15addBlockToLevelP14buddyAllocatorPvm
 677      E7800000 
 678              	.LVL77:
 134:src/buddyAllocator.cpp ****     }
 679              		.loc 1 134 9 is_stmt 1
 680 0414 6F00400B 		j	.L36
 681              	.LVL78:
 682              	.L49:
 145:src/buddyAllocator.cpp ****             {
 683              		.loc 1 145 13
 684 0418 63080704 		beqz	a4,.L41
 147:src/buddyAllocator.cpp ****                 if(curr == buddy->bucket[level].last)
 685              		.loc 1 147 17
 147:src/buddyAllocator.cpp ****                 if(curr == buddy->bucket[level].last)
 686              		.loc 1 147 36 is_stmt 0
 687 041c 83B60700 		ld	a3,0(a5)
 147:src/buddyAllocator.cpp ****                 if(curr == buddy->bucket[level].last)
 688              		.loc 1 147 28
 689 0420 2330D700 		sd	a3,0(a4)
 148:src/buddyAllocator.cpp ****                     buddy->bucket[level].last = prev;
 690              		.loc 1 148 17 is_stmt 1
 148:src/buddyAllocator.cpp ****                     buddy->bucket[level].last = prev;
 691              		.loc 1 148 49 is_stmt 0
 692 0424 93862900 		addi	a3,s3,2
 693 0428 93964600 		slli	a3,a3,4
 694 042c B306D900 		add	a3,s2,a3
 695 0430 83B68600 		ld	a3,8(a3)
 148:src/buddyAllocator.cpp ****                     buddy->bucket[level].last = prev;
 696              		.loc 1 148 17
 697 0434 6380F602 		beq	a3,a5,.L50
 698              	.LVL79:
 699              	.L42:
 158:src/buddyAllocator.cpp ****             else addBlocks(buddy, (void*)buddyBlockAddr, level + 1); //merge two chunks
 700              		.loc 1 158 13 is_stmt 1
 701 0438 63729A06 		bgeu	s4,s1,.L44
 158:src/buddyAllocator.cpp ****             else addBlocks(buddy, (void*)buddyBlockAddr, level + 1); //merge two chunks
 702              		.loc 1 158 47 discriminator 1
 158:src/buddyAllocator.cpp ****             else addBlocks(buddy, (void*)buddyBlockAddr, level + 1); //merge two chunks
 703              		.loc 1 158 56 is_stmt 0 discriminator 1
GAS LISTING /tmp/ccmoKFXP.s 			page 19


 704 043c 13861900 		addi	a2,s3,1
 705 0440 93050A00 		mv	a1,s4
 706 0444 13050900 		mv	a0,s2
 707 0448 97000000 		call	_Z9addBlocksP14buddyAllocatorPvm
 707      E7800000 
 708              	.LVL80:
 709 0450 6F008007 		j	.L36
 710              	.LVL81:
 711              	.L50:
 149:src/buddyAllocator.cpp ****             }
 712              		.loc 1 149 21 is_stmt 1
 149:src/buddyAllocator.cpp ****             }
 713              		.loc 1 149 47 is_stmt 0
 714 0454 93872900 		addi	a5,s3,2
 715              	.LVL82:
 716 0458 93974700 		slli	a5,a5,4
 717 045c B307F900 		add	a5,s2,a5
 718 0460 23B4E700 		sd	a4,8(a5)
 719 0464 6FF05FFD 		j	.L42
 720              	.LVL83:
 721              	.L41:
 153:src/buddyAllocator.cpp ****                     buddy->bucket[level].first = buddy->bucket[level].last = nullptr;
 722              		.loc 1 153 17 is_stmt 1
 153:src/buddyAllocator.cpp ****                     buddy->bucket[level].first = buddy->bucket[level].last = nullptr;
 723              		.loc 1 153 26 is_stmt 0
 724 0468 03B70700 		ld	a4,0(a5)
 725              	.LVL84:
 153:src/buddyAllocator.cpp ****                     buddy->bucket[level].first = buddy->bucket[level].last = nullptr;
 726              		.loc 1 153 17
 727 046c 630C0700 		beqz	a4,.L51
 156:src/buddyAllocator.cpp ****             }
 728              		.loc 1 156 21 is_stmt 1
 156:src/buddyAllocator.cpp ****             }
 729              		.loc 1 156 48 is_stmt 0
 730 0470 93872900 		addi	a5,s3,2
 731              	.LVL85:
 732 0474 93974700 		slli	a5,a5,4
 733 0478 B307F900 		add	a5,s2,a5
 734 047c 23B0E700 		sd	a4,0(a5)
 735 0480 6FF09FFB 		j	.L42
 736              	.LVL86:
 737              	.L51:
 154:src/buddyAllocator.cpp ****                 else
 738              		.loc 1 154 21 is_stmt 1
 154:src/buddyAllocator.cpp ****                 else
 739              		.loc 1 154 76 is_stmt 0
 740 0484 93872900 		addi	a5,s3,2
 741              	.LVL87:
 742 0488 93974700 		slli	a5,a5,4
 743 048c B307F900 		add	a5,s2,a5
 744 0490 23B40700 		sd	zero,8(a5)
 154:src/buddyAllocator.cpp ****                 else
 745              		.loc 1 154 48
 746 0494 23B00700 		sd	zero,0(a5)
 747 0498 6FF01FFA 		j	.L42
 748              	.L44:
 159:src/buddyAllocator.cpp ****             return;
GAS LISTING /tmp/ccmoKFXP.s 			page 20


 749              		.loc 1 159 18 is_stmt 1
 159:src/buddyAllocator.cpp ****             return;
 750              		.loc 1 159 27 is_stmt 0
 751 049c 13861900 		addi	a2,s3,1
 752 04a0 93850400 		mv	a1,s1
 753 04a4 13050900 		mv	a0,s2
 754 04a8 97000000 		call	_Z9addBlocksP14buddyAllocatorPvm
 754      E7800000 
 755              	.LVL88:
 160:src/buddyAllocator.cpp ****         }
 756              		.loc 1 160 13 is_stmt 1
 757 04b0 6F008001 		j	.L36
 758              	.LVL89:
 759              	.L39:
 167:src/buddyAllocator.cpp **** }
 760              		.loc 1 167 5
 167:src/buddyAllocator.cpp **** }
 761              		.loc 1 167 20 is_stmt 0
 762 04b4 13860900 		mv	a2,s3
 763 04b8 93050A00 		mv	a1,s4
 764 04bc 13050900 		mv	a0,s2
 765 04c0 97000000 		call	_Z15addBlockToLevelP14buddyAllocatorPvm
 765      E7800000 
 766              	.LVL90:
 767              	.L36:
 168:src/buddyAllocator.cpp **** 
 768              		.loc 1 168 1
 769 04c8 83308102 		ld	ra,40(sp)
 770              		.cfi_restore 1
 771 04cc 03340102 		ld	s0,32(sp)
 772              		.cfi_restore 8
 773              		.cfi_def_cfa 2, 48
 774 04d0 83348101 		ld	s1,24(sp)
 775              		.cfi_restore 9
 776 04d4 03390101 		ld	s2,16(sp)
 777              		.cfi_restore 18
 778              	.LVL91:
 779 04d8 83398100 		ld	s3,8(sp)
 780              		.cfi_restore 19
 781              	.LVL92:
 782 04dc 033A0100 		ld	s4,0(sp)
 783              		.cfi_restore 20
 784              	.LVL93:
 785 04e0 13010103 		addi	sp,sp,48
 786              		.cfi_def_cfa_offset 0
 787 04e4 67800000 		jr	ra
 788              		.cfi_endproc
 789              	.LFE13:
 791              		.section	.rodata.str1.8
 792 0052 00000000 		.align	3
 792      0000
 793              	.LC5:
 794 0058 42756464 		.string	"Buddy initialization\n"
 794      7920696E 
 794      69746961 
 794      6C697A61 
 794      74696F6E 
GAS LISTING /tmp/ccmoKFXP.s 			page 21


 795 006e 0000     		.align	3
 796              	.LC6:
 797 0070 42756464 		.string	"Buddy metadata address: "
 797      79206D65 
 797      74616461 
 797      74612061 
 797      64647265 
 798              		.text
 799              		.align	2
 800              		.globl	_Z10buddy_initPvm
 802              	_Z10buddy_initPvm:
 803              	.LFB5:
   7:src/buddyAllocator.cpp ****     KConsole::trapPrintString("Buddy initialization\n");
 804              		.loc 1 7 1 is_stmt 1
 805              		.cfi_startproc
 806              	.LVL94:
 807 04e8 130101FD 		addi	sp,sp,-48
 808              		.cfi_def_cfa_offset 48
 809 04ec 23341102 		sd	ra,40(sp)
 810 04f0 23308102 		sd	s0,32(sp)
 811 04f4 233C9100 		sd	s1,24(sp)
 812 04f8 23382101 		sd	s2,16(sp)
 813 04fc 23343101 		sd	s3,8(sp)
 814 0500 23304101 		sd	s4,0(sp)
 815              		.cfi_offset 1, -8
 816              		.cfi_offset 8, -16
 817              		.cfi_offset 9, -24
 818              		.cfi_offset 18, -32
 819              		.cfi_offset 19, -40
 820              		.cfi_offset 20, -48
 821 0504 13040103 		addi	s0,sp,48
 822              		.cfi_def_cfa 8, 0
 823 0508 13090500 		mv	s2,a0
 824 050c 93890500 		mv	s3,a1
   8:src/buddyAllocator.cpp ****     size_t blockAddr = getBlockAddr((size_t)addr); //alling the address
 825              		.loc 1 8 5
   8:src/buddyAllocator.cpp ****     size_t blockAddr = getBlockAddr((size_t)addr); //alling the address
 826              		.loc 1 8 30 is_stmt 0
 827 0510 17050000 		lla	a0,.LC5
 827      13050500 
 828              	.LVL95:
 829 0518 97000000 		call	_ZN8KConsole15trapPrintStringEPKc@plt
 829      E7800000 
 830              	.LVL96:
   9:src/buddyAllocator.cpp ****     size_t buddyAddr = (size_t)addr;
 831              		.loc 1 9 5 is_stmt 1
   9:src/buddyAllocator.cpp ****     size_t buddyAddr = (size_t)addr;
 832              		.loc 1 9 36 is_stmt 0
 833 0520 93040900 		mv	s1,s2
 834 0524 13050900 		mv	a0,s2
 835 0528 97000000 		call	_Z12getBlockAddrm
 835      E7800000 
 836              	.LVL97:
 837 0530 130A0500 		mv	s4,a0
 838              	.LVL98:
  10:src/buddyAllocator.cpp ****     KConsole::trapPrintInt(blockAddr,16); KConsole::trapPrintString("\n");
 839              		.loc 1 10 5 is_stmt 1
GAS LISTING /tmp/ccmoKFXP.s 			page 22


  11:src/buddyAllocator.cpp ****     KConsole::trapPrintInt(buddyAddr,16); KConsole::trapPrintString("\n");
 840              		.loc 1 11 5
  11:src/buddyAllocator.cpp ****     KConsole::trapPrintInt(buddyAddr,16); KConsole::trapPrintString("\n");
 841              		.loc 1 11 27 is_stmt 0
 842 0534 13060000 		li	a2,0
 843 0538 93050001 		li	a1,16
 844 053c 97000000 		call	_ZN8KConsole12trapPrintIntEmii@plt
 844      E7800000 
 845              	.LVL99:
  11:src/buddyAllocator.cpp ****     KConsole::trapPrintInt(buddyAddr,16); KConsole::trapPrintString("\n");
 846              		.loc 1 11 43 is_stmt 1
  11:src/buddyAllocator.cpp ****     KConsole::trapPrintInt(buddyAddr,16); KConsole::trapPrintString("\n");
 847              		.loc 1 11 68 is_stmt 0
 848 0544 17050000 		lla	a0,.LC1
 848      13050500 
 849 054c 97000000 		call	_ZN8KConsole15trapPrintStringEPKc@plt
 849      E7800000 
 850              	.LVL100:
  12:src/buddyAllocator.cpp ****     if((size_t)addr != blockAddr) // if start address not aligned
 851              		.loc 1 12 5 is_stmt 1
  12:src/buddyAllocator.cpp ****     if((size_t)addr != blockAddr) // if start address not aligned
 852              		.loc 1 12 27 is_stmt 0
 853 0554 13060000 		li	a2,0
 854 0558 93050001 		li	a1,16
 855 055c 13050900 		mv	a0,s2
 856 0560 97000000 		call	_ZN8KConsole12trapPrintIntEmii@plt
 856      E7800000 
 857              	.LVL101:
  12:src/buddyAllocator.cpp ****     if((size_t)addr != blockAddr) // if start address not aligned
 858              		.loc 1 12 43 is_stmt 1
  12:src/buddyAllocator.cpp ****     if((size_t)addr != blockAddr) // if start address not aligned
 859              		.loc 1 12 68 is_stmt 0
 860 0568 17050000 		lla	a0,.LC1
 860      13050500 
 861 0570 97000000 		call	_ZN8KConsole15trapPrintStringEPKc@plt
 861      E7800000 
 862              	.LVL102:
  13:src/buddyAllocator.cpp ****     {
 863              		.loc 1 13 5 is_stmt 1
 864 0578 630C4901 		beq	s2,s4,.L53
  15:src/buddyAllocator.cpp ****         numOfBlocks--; //have to discard one block
 865              		.loc 1 15 9
  15:src/buddyAllocator.cpp ****         numOfBlocks--; //have to discard one block
 866              		.loc 1 15 37 is_stmt 0
 867 057c 13050A00 		mv	a0,s4
 868 0580 97000000 		call	_Z16getNextBlockAddrm
 868      E7800000 
 869              	.LVL103:
 870 0588 93040500 		mv	s1,a0
 871              	.LVL104:
  16:src/buddyAllocator.cpp ****     }
 872              		.loc 1 16 9 is_stmt 1
  16:src/buddyAllocator.cpp ****     }
 873              		.loc 1 16 20 is_stmt 0
 874 058c 9389F9FF 		addi	s3,s3,-1
 875              	.LVL105:
 876              	.L53:
GAS LISTING /tmp/ccmoKFXP.s 			page 23


  18:src/buddyAllocator.cpp ****     KConsole::trapPrintInt(buddyAddr,16); KConsole::trapPrintString("\n");
 877              		.loc 1 18 5 is_stmt 1
  18:src/buddyAllocator.cpp ****     KConsole::trapPrintInt(buddyAddr,16); KConsole::trapPrintString("\n");
 878              		.loc 1 18 30 is_stmt 0
 879 0590 17050000 		lla	a0,.LC6
 879      13050500 
 880 0598 97000000 		call	_ZN8KConsole15trapPrintStringEPKc@plt
 880      E7800000 
 881              	.LVL106:
  19:src/buddyAllocator.cpp ****     numOfBlocks--; // take one block for buddy metadata
 882              		.loc 1 19 5 is_stmt 1
  19:src/buddyAllocator.cpp ****     numOfBlocks--; // take one block for buddy metadata
 883              		.loc 1 19 27 is_stmt 0
 884 05a0 13060000 		li	a2,0
 885 05a4 93050001 		li	a1,16
 886 05a8 13850400 		mv	a0,s1
 887 05ac 97000000 		call	_ZN8KConsole12trapPrintIntEmii@plt
 887      E7800000 
 888              	.LVL107:
  19:src/buddyAllocator.cpp ****     numOfBlocks--; // take one block for buddy metadata
 889              		.loc 1 19 43 is_stmt 1
  19:src/buddyAllocator.cpp ****     numOfBlocks--; // take one block for buddy metadata
 890              		.loc 1 19 68 is_stmt 0
 891 05b4 17050000 		lla	a0,.LC1
 891      13050500 
 892 05bc 97000000 		call	_ZN8KConsole15trapPrintStringEPKc@plt
 892      E7800000 
 893              	.LVL108:
  20:src/buddyAllocator.cpp ****     buddyAllocator* buddy = (buddyAllocator*)buddyAddr;
 894              		.loc 1 20 5 is_stmt 1
  20:src/buddyAllocator.cpp ****     buddyAllocator* buddy = (buddyAllocator*)buddyAddr;
 895              		.loc 1 20 16 is_stmt 0
 896 05c4 9389F9FF 		addi	s3,s3,-1
 897              	.LVL109:
  21:src/buddyAllocator.cpp ****     buddy->startAddr = (void*)getNextBlockAddr(buddyAddr);
 898              		.loc 1 21 5 is_stmt 1
  21:src/buddyAllocator.cpp ****     buddy->startAddr = (void*)getNextBlockAddr(buddyAddr);
 899              		.loc 1 21 21 is_stmt 0
 900 05c8 13890400 		mv	s2,s1
 901              	.LVL110:
  22:src/buddyAllocator.cpp ****     buddy->numOfBlocks = numOfBlocks;
 902              		.loc 1 22 5 is_stmt 1
  22:src/buddyAllocator.cpp ****     buddy->numOfBlocks = numOfBlocks;
 903              		.loc 1 22 47 is_stmt 0
 904 05cc 13850400 		mv	a0,s1
 905 05d0 97000000 		call	_Z16getNextBlockAddrm
 905      E7800000 
 906              	.LVL111:
  22:src/buddyAllocator.cpp ****     buddy->numOfBlocks = numOfBlocks;
 907              		.loc 1 22 22
 908 05d8 23B4A400 		sd	a0,8(s1)
  23:src/buddyAllocator.cpp ****     buddy->numOfFreeBlocks = numOfBlocks;
 909              		.loc 1 23 5 is_stmt 1
  23:src/buddyAllocator.cpp ****     buddy->numOfFreeBlocks = numOfBlocks;
 910              		.loc 1 23 24 is_stmt 0
 911 05dc 23B03401 		sd	s3,0(s1)
  24:src/buddyAllocator.cpp ****     buddy->maxLevel = getDeg2Floor(numOfBlocks);
GAS LISTING /tmp/ccmoKFXP.s 			page 24


 912              		.loc 1 24 5 is_stmt 1
  24:src/buddyAllocator.cpp ****     buddy->maxLevel = getDeg2Floor(numOfBlocks);
 913              		.loc 1 24 28 is_stmt 0
 914 05e0 23B83401 		sd	s3,16(s1)
  25:src/buddyAllocator.cpp **** 
 915              		.loc 1 25 5 is_stmt 1
  25:src/buddyAllocator.cpp **** 
 916              		.loc 1 25 35 is_stmt 0
 917 05e4 13850900 		mv	a0,s3
 918 05e8 97000000 		call	_Z12getDeg2Floorm
 918      E7800000 
 919              	.LVL112:
  25:src/buddyAllocator.cpp **** 
 920              		.loc 1 25 21
 921 05f0 23BCA400 		sd	a0,24(s1)
  27:src/buddyAllocator.cpp ****         buddy->bucket[i].first = buddy->bucket[i].last = nullptr;
 922              		.loc 1 27 5 is_stmt 1
 923              	.LVL113:
 924              	.LBB10:
  27:src/buddyAllocator.cpp ****         buddy->bucket[i].first = buddy->bucket[i].last = nullptr;
 925              		.loc 1 27 16 is_stmt 0
 926 05f4 13070000 		li	a4,0
 927              	.LVL114:
 928              	.L55:
  27:src/buddyAllocator.cpp ****         buddy->bucket[i].first = buddy->bucket[i].last = nullptr;
 929              		.loc 1 27 25 is_stmt 1 discriminator 3
 930 05f8 6360E502 		bltu	a0,a4,.L57
  28:src/buddyAllocator.cpp **** 
 931              		.loc 1 28 9 discriminator 2
  28:src/buddyAllocator.cpp **** 
 932              		.loc 1 28 56 is_stmt 0 discriminator 2
 933 05fc 93072700 		addi	a5,a4,2
 934 0600 93974700 		slli	a5,a5,4
 935 0604 B307F900 		add	a5,s2,a5
 936 0608 23B40700 		sd	zero,8(a5)
  28:src/buddyAllocator.cpp **** 
 937              		.loc 1 28 32 discriminator 2
 938 060c 23B00700 		sd	zero,0(a5)
  27:src/buddyAllocator.cpp ****         buddy->bucket[i].first = buddy->bucket[i].last = nullptr;
 939              		.loc 1 27 5 is_stmt 1 discriminator 2
 940 0610 13071700 		addi	a4,a4,1
 941              	.LVL115:
 942 0614 6FF05FFE 		j	.L55
 943              	.L57:
 944              	.LBE10:
 945              	.LBB11:
  32:src/buddyAllocator.cpp ****         addBlocks(buddy, (block*)buddy->startAddr + i, 0);
 946              		.loc 1 32 16 is_stmt 0
 947 0618 93040000 		li	s1,0
 948              	.LVL116:
 949              	.L54:
  32:src/buddyAllocator.cpp ****         addBlocks(buddy, (block*)buddy->startAddr + i, 0);
 950              		.loc 1 32 24 is_stmt 1 discriminator 3
 951 061c 63F43403 		bgeu	s1,s3,.L52
  33:src/buddyAllocator.cpp **** 
 952              		.loc 1 33 9 discriminator 2
  33:src/buddyAllocator.cpp **** 
GAS LISTING /tmp/ccmoKFXP.s 			page 25


 953              		.loc 1 33 41 is_stmt 0 discriminator 2
 954 0620 83358900 		ld	a1,8(s2)
  33:src/buddyAllocator.cpp **** 
 955              		.loc 1 33 51 discriminator 2
 956 0624 9397C400 		slli	a5,s1,12
  33:src/buddyAllocator.cpp **** 
 957              		.loc 1 33 18 discriminator 2
 958 0628 13060000 		li	a2,0
 959 062c B385F500 		add	a1,a1,a5
 960 0630 13050900 		mv	a0,s2
 961 0634 97000000 		call	_Z9addBlocksP14buddyAllocatorPvm
 961      E7800000 
 962              	.LVL117:
  32:src/buddyAllocator.cpp ****         addBlocks(buddy, (block*)buddy->startAddr + i, 0);
 963              		.loc 1 32 5 is_stmt 1 discriminator 2
 964 063c 93841400 		addi	s1,s1,1
 965              	.LVL118:
 966 0640 6FF0DFFD 		j	.L54
 967              	.L52:
 968              	.LBE11:
  36:src/buddyAllocator.cpp **** 
 969              		.loc 1 36 1 is_stmt 0
 970 0644 13050900 		mv	a0,s2
 971 0648 83308102 		ld	ra,40(sp)
 972              		.cfi_restore 1
 973 064c 03340102 		ld	s0,32(sp)
 974              		.cfi_restore 8
 975              		.cfi_def_cfa 2, 48
 976 0650 83348101 		ld	s1,24(sp)
 977              		.cfi_restore 9
 978              	.LVL119:
 979 0654 03390101 		ld	s2,16(sp)
 980              		.cfi_restore 18
 981              	.LVL120:
 982 0658 83398100 		ld	s3,8(sp)
 983              		.cfi_restore 19
 984              	.LVL121:
 985 065c 033A0100 		ld	s4,0(sp)
 986              		.cfi_restore 20
 987              	.LVL122:
 988 0660 13010103 		addi	sp,sp,48
 989              		.cfi_def_cfa_offset 0
 990 0664 67800000 		jr	ra
 991              		.cfi_endproc
 992              	.LFE5:
 994              		.section	.rodata.str1.8
 995 0089 00000000 		.align	3
 995      000000
 996              	.LC7:
 997 0090 42756464 		.string	"Buddy free: "
 997      79206672 
 997      65653A20 
 997      00
 998 009d 000000   		.align	3
 999              	.LC8:
 1000 00a0 2000     		.string	" "
 1001              		.text
GAS LISTING /tmp/ccmoKFXP.s 			page 26


 1002              		.align	2
 1003              		.globl	_Z10buddy_freeP14buddyAllocatorPvm
 1005              	_Z10buddy_freeP14buddyAllocatorPvm:
 1006              	.LFB8:
  83:src/buddyAllocator.cpp ****     KConsole::trapPrintString("Buddy free: ");
 1007              		.loc 1 83 1 is_stmt 1
 1008              		.cfi_startproc
 1009              	.LVL123:
 1010 0668 130101FD 		addi	sp,sp,-48
 1011              		.cfi_def_cfa_offset 48
 1012 066c 23341102 		sd	ra,40(sp)
 1013 0670 23308102 		sd	s0,32(sp)
 1014 0674 233C9100 		sd	s1,24(sp)
 1015 0678 23382101 		sd	s2,16(sp)
 1016 067c 23343101 		sd	s3,8(sp)
 1017              		.cfi_offset 1, -8
 1018              		.cfi_offset 8, -16
 1019              		.cfi_offset 9, -24
 1020              		.cfi_offset 18, -32
 1021              		.cfi_offset 19, -40
 1022 0680 13040103 		addi	s0,sp,48
 1023              		.cfi_def_cfa 8, 0
 1024 0684 93090500 		mv	s3,a0
 1025 0688 93840500 		mv	s1,a1
 1026 068c 13090600 		mv	s2,a2
  84:src/buddyAllocator.cpp ****     KConsole::trapPrintInt((size_t)addr,16); KConsole::trapPrintString(" ");
 1027              		.loc 1 84 5
  84:src/buddyAllocator.cpp ****     KConsole::trapPrintInt((size_t)addr,16); KConsole::trapPrintString(" ");
 1028              		.loc 1 84 30 is_stmt 0
 1029 0690 17050000 		lla	a0,.LC7
 1029      13050500 
 1030              	.LVL124:
 1031 0698 97000000 		call	_ZN8KConsole15trapPrintStringEPKc@plt
 1031      E7800000 
 1032              	.LVL125:
  85:src/buddyAllocator.cpp ****     KConsole::trapPrintInt(numOfBlocks); KConsole::trapPrintString("\n");
 1033              		.loc 1 85 5 is_stmt 1
  85:src/buddyAllocator.cpp ****     KConsole::trapPrintInt(numOfBlocks); KConsole::trapPrintString("\n");
 1034              		.loc 1 85 27 is_stmt 0
 1035 06a0 13060000 		li	a2,0
 1036 06a4 93050001 		li	a1,16
 1037 06a8 13850400 		mv	a0,s1
 1038 06ac 97000000 		call	_ZN8KConsole12trapPrintIntEmii@plt
 1038      E7800000 
 1039              	.LVL126:
  85:src/buddyAllocator.cpp ****     KConsole::trapPrintInt(numOfBlocks); KConsole::trapPrintString("\n");
 1040              		.loc 1 85 46 is_stmt 1
  85:src/buddyAllocator.cpp ****     KConsole::trapPrintInt(numOfBlocks); KConsole::trapPrintString("\n");
 1041              		.loc 1 85 71 is_stmt 0
 1042 06b4 17050000 		lla	a0,.LC8
 1042      13050500 
 1043 06bc 97000000 		call	_ZN8KConsole15trapPrintStringEPKc@plt
 1043      E7800000 
 1044              	.LVL127:
  86:src/buddyAllocator.cpp ****     size_t level = getDeg2Ceil(numOfBlocks);
 1045              		.loc 1 86 5 is_stmt 1
  86:src/buddyAllocator.cpp ****     size_t level = getDeg2Ceil(numOfBlocks);
GAS LISTING /tmp/ccmoKFXP.s 			page 27


 1046              		.loc 1 86 27 is_stmt 0
 1047 06c4 13060000 		li	a2,0
 1048 06c8 9305A000 		li	a1,10
 1049 06cc 13050900 		mv	a0,s2
 1050 06d0 97000000 		call	_ZN8KConsole12trapPrintIntEmii@plt
 1050      E7800000 
 1051              	.LVL128:
  86:src/buddyAllocator.cpp ****     size_t level = getDeg2Ceil(numOfBlocks);
 1052              		.loc 1 86 42 is_stmt 1
  86:src/buddyAllocator.cpp ****     size_t level = getDeg2Ceil(numOfBlocks);
 1053              		.loc 1 86 67 is_stmt 0
 1054 06d8 17050000 		lla	a0,.LC1
 1054      13050500 
 1055 06e0 97000000 		call	_ZN8KConsole15trapPrintStringEPKc@plt
 1055      E7800000 
 1056              	.LVL129:
  87:src/buddyAllocator.cpp ****     addBlocks(buddy, addr, level); //adds free blocks
 1057              		.loc 1 87 5 is_stmt 1
  87:src/buddyAllocator.cpp ****     addBlocks(buddy, addr, level); //adds free blocks
 1058              		.loc 1 87 31 is_stmt 0
 1059 06e8 13050900 		mv	a0,s2
 1060 06ec 97000000 		call	_Z11getDeg2Ceilm
 1060      E7800000 
 1061              	.LVL130:
 1062 06f4 13060500 		mv	a2,a0
 1063              	.LVL131:
  88:src/buddyAllocator.cpp **** }
 1064              		.loc 1 88 5 is_stmt 1
  88:src/buddyAllocator.cpp **** }
 1065              		.loc 1 88 14 is_stmt 0
 1066 06f8 93850400 		mv	a1,s1
 1067 06fc 13850900 		mv	a0,s3
 1068              	.LVL132:
 1069 0700 97000000 		call	_Z9addBlocksP14buddyAllocatorPvm
 1069      E7800000 
 1070              	.LVL133:
  89:src/buddyAllocator.cpp **** 
 1071              		.loc 1 89 1
 1072 0708 83308102 		ld	ra,40(sp)
 1073              		.cfi_restore 1
 1074 070c 03340102 		ld	s0,32(sp)
 1075              		.cfi_restore 8
 1076              		.cfi_def_cfa 2, 48
 1077 0710 83348101 		ld	s1,24(sp)
 1078              		.cfi_restore 9
 1079              	.LVL134:
 1080 0714 03390101 		ld	s2,16(sp)
 1081              		.cfi_restore 18
 1082              	.LVL135:
 1083 0718 83398100 		ld	s3,8(sp)
 1084              		.cfi_restore 19
 1085              	.LVL136:
 1086 071c 13010103 		addi	sp,sp,48
 1087              		.cfi_def_cfa_offset 0
 1088 0720 67800000 		jr	ra
 1089              		.cfi_endproc
 1090              	.LFE8:
GAS LISTING /tmp/ccmoKFXP.s 			page 28


 1092              		.section	.rodata.str1.8
 1093 00a2 00000000 		.align	3
 1093      0000
 1094              	.LC9:
 1095 00a8 42756464 		.string	"Buddy info-------------------------------------------\n"
 1095      7920696E 
 1095      666F2D2D 
 1095      2D2D2D2D 
 1095      2D2D2D2D 
 1096 00df 00       		.align	3
 1097              	.LC10:
 1098 00e0 42756464 		.string	"Buddy starting address "
 1098      79207374 
 1098      61727469 
 1098      6E672061 
 1098      64647265 
 1099              		.align	3
 1100              	.LC11:
 1101 00f8 42756464 		.string	"Buddy number of blocks "
 1101      79206E75 
 1101      6D626572 
 1101      206F6620 
 1101      626C6F63 
 1102              		.align	3
 1103              	.LC12:
 1104 0110 42756464 		.string	"Buddy number of free blocks "
 1104      79206E75 
 1104      6D626572 
 1104      206F6620 
 1104      66726565 
 1105 012d 000000   		.align	3
 1106              	.LC13:
 1107 0130 4C657665 		.string	"Level "
 1107      6C2000
 1108 0137 00       		.align	3
 1109              	.LC14:
 1110 0138 46726565 		.string	"Free blocks on this level\n"
 1110      20626C6F 
 1110      636B7320 
 1110      6F6E2074 
 1110      68697320 
 1111 0153 00000000 		.align	3
 1111      00
 1112              	.LC15:
 1113 0158 456E6420 		.string	"End of buddy info-------------------------------------------\n"
 1113      6F662062 
 1113      75646479 
 1113      20696E66 
 1113      6F2D2D2D 
 1114              		.text
 1115              		.align	2
 1116              		.globl	_Z14printBuddyInfoP14buddyAllocator
 1118              	_Z14printBuddyInfoP14buddyAllocator:
 1119              	.LFB16:
 195:src/buddyAllocator.cpp **** 
 196:src/buddyAllocator.cpp **** void printBuddyInfo(buddyAllocator* buddy)
 197:src/buddyAllocator.cpp **** {
GAS LISTING /tmp/ccmoKFXP.s 			page 29


 1120              		.loc 1 197 1 is_stmt 1
 1121              		.cfi_startproc
 1122              	.LVL137:
 1123 0724 130101FD 		addi	sp,sp,-48
 1124              		.cfi_def_cfa_offset 48
 1125 0728 23341102 		sd	ra,40(sp)
 1126 072c 23308102 		sd	s0,32(sp)
 1127 0730 233C9100 		sd	s1,24(sp)
 1128 0734 23382101 		sd	s2,16(sp)
 1129 0738 23343101 		sd	s3,8(sp)
 1130              		.cfi_offset 1, -8
 1131              		.cfi_offset 8, -16
 1132              		.cfi_offset 9, -24
 1133              		.cfi_offset 18, -32
 1134              		.cfi_offset 19, -40
 1135 073c 13040103 		addi	s0,sp,48
 1136              		.cfi_def_cfa 8, 0
 1137 0740 93090500 		mv	s3,a0
 198:src/buddyAllocator.cpp ****     KConsole::trapPrintString("Buddy info-------------------------------------------\n");
 1138              		.loc 1 198 5
 1139              		.loc 1 198 30 is_stmt 0
 1140 0744 17050000 		lla	a0,.LC9
 1140      13050500 
 1141              	.LVL138:
 1142 074c 97000000 		call	_ZN8KConsole15trapPrintStringEPKc@plt
 1142      E7800000 
 1143              	.LVL139:
 199:src/buddyAllocator.cpp ****     KConsole::trapPrintString("Buddy starting address ");
 1144              		.loc 1 199 5 is_stmt 1
 1145              		.loc 1 199 30 is_stmt 0
 1146 0754 17050000 		lla	a0,.LC10
 1146      13050500 
 1147 075c 97000000 		call	_ZN8KConsole15trapPrintStringEPKc@plt
 1147      E7800000 
 1148              	.LVL140:
 200:src/buddyAllocator.cpp ****     KConsole::trapPrintInt((size_t)buddy->startAddr, 16);KConsole::trapPrintString("\n");
 1149              		.loc 1 200 5 is_stmt 1
 1150              		.loc 1 200 27 is_stmt 0
 1151 0764 13060000 		li	a2,0
 1152 0768 93050001 		li	a1,16
 1153 076c 03B58900 		ld	a0,8(s3)
 1154 0770 97000000 		call	_ZN8KConsole12trapPrintIntEmii@plt
 1154      E7800000 
 1155              	.LVL141:
 1156              		.loc 1 200 58 is_stmt 1
 1157              		.loc 1 200 83 is_stmt 0
 1158 0778 17050000 		lla	a0,.LC1
 1158      13050500 
 1159 0780 97000000 		call	_ZN8KConsole15trapPrintStringEPKc@plt
 1159      E7800000 
 1160              	.LVL142:
 201:src/buddyAllocator.cpp ****     KConsole::trapPrintString("Buddy number of blocks ");
 1161              		.loc 1 201 5 is_stmt 1
 1162              		.loc 1 201 30 is_stmt 0
 1163 0788 17050000 		lla	a0,.LC11
 1163      13050500 
 1164 0790 97000000 		call	_ZN8KConsole15trapPrintStringEPKc@plt
GAS LISTING /tmp/ccmoKFXP.s 			page 30


 1164      E7800000 
 1165              	.LVL143:
 202:src/buddyAllocator.cpp ****     KConsole::trapPrintInt(buddy->numOfBlocks);KConsole::trapPrintString("\n");
 1166              		.loc 1 202 5 is_stmt 1
 1167              		.loc 1 202 27 is_stmt 0
 1168 0798 13060000 		li	a2,0
 1169 079c 9305A000 		li	a1,10
 1170 07a0 03B50900 		ld	a0,0(s3)
 1171 07a4 97000000 		call	_ZN8KConsole12trapPrintIntEmii@plt
 1171      E7800000 
 1172              	.LVL144:
 1173              		.loc 1 202 48 is_stmt 1
 1174              		.loc 1 202 73 is_stmt 0
 1175 07ac 17050000 		lla	a0,.LC1
 1175      13050500 
 1176 07b4 97000000 		call	_ZN8KConsole15trapPrintStringEPKc@plt
 1176      E7800000 
 1177              	.LVL145:
 203:src/buddyAllocator.cpp ****     KConsole::trapPrintString("Buddy number of free blocks ");
 1178              		.loc 1 203 5 is_stmt 1
 1179              		.loc 1 203 30 is_stmt 0
 1180 07bc 17050000 		lla	a0,.LC12
 1180      13050500 
 1181 07c4 97000000 		call	_ZN8KConsole15trapPrintStringEPKc@plt
 1181      E7800000 
 1182              	.LVL146:
 204:src/buddyAllocator.cpp ****     KConsole::trapPrintInt(buddy->numOfFreeBlocks); KConsole::trapPrintString("\n");
 1183              		.loc 1 204 5 is_stmt 1
 1184              		.loc 1 204 27 is_stmt 0
 1185 07cc 13060000 		li	a2,0
 1186 07d0 9305A000 		li	a1,10
 1187 07d4 03B50901 		ld	a0,16(s3)
 1188 07d8 97000000 		call	_ZN8KConsole12trapPrintIntEmii@plt
 1188      E7800000 
 1189              	.LVL147:
 1190              		.loc 1 204 53 is_stmt 1
 1191              		.loc 1 204 78 is_stmt 0
 1192 07e0 17050000 		lla	a0,.LC1
 1192      13050500 
 1193 07e8 97000000 		call	_ZN8KConsole15trapPrintStringEPKc@plt
 1193      E7800000 
 1194              	.LVL148:
 205:src/buddyAllocator.cpp ****     for(int i = buddy->maxLevel;i>=0;i--)
 1195              		.loc 1 205 5 is_stmt 1
 1196              	.LBB12:
 1197              		.loc 1 205 13 is_stmt 0
 1198 07f0 03A98901 		lw	s2,24(s3)
 1199              	.LVL149:
 1200 07f4 6F008000 		j	.L65
 1201              	.LVL150:
 1202              	.L63:
 1203              		.loc 1 205 5 is_stmt 1 discriminator 2
 1204 07f8 1B09F9FF 		addiw	s2,s2,-1
 1205              	.LVL151:
 1206              	.L65:
 1207              		.loc 1 205 34 discriminator 1
 1208 07fc 63440908 		bltz	s2,.L62
GAS LISTING /tmp/ccmoKFXP.s 			page 31


 1209              	.LBB13:
 206:src/buddyAllocator.cpp ****     {
 207:src/buddyAllocator.cpp ****         KConsole::trapPrintString("Level ");
 1210              		.loc 1 207 9
 1211              		.loc 1 207 34 is_stmt 0
 1212 0800 17050000 		lla	a0,.LC13
 1212      13050500 
 1213 0808 97000000 		call	_ZN8KConsole15trapPrintStringEPKc@plt
 1213      E7800000 
 1214              	.LVL152:
 208:src/buddyAllocator.cpp ****         KConsole::trapPrintInt(i);KConsole::trapPrintString("\n");
 1215              		.loc 1 208 9 is_stmt 1
 1216              		.loc 1 208 31 is_stmt 0
 1217 0810 13060000 		li	a2,0
 1218 0814 9305A000 		li	a1,10
 1219 0818 13050900 		mv	a0,s2
 1220 081c 97000000 		call	_ZN8KConsole12trapPrintIntEmii@plt
 1220      E7800000 
 1221              	.LVL153:
 1222              		.loc 1 208 35 is_stmt 1
 1223              		.loc 1 208 60 is_stmt 0
 1224 0824 17050000 		lla	a0,.LC1
 1224      13050500 
 1225 082c 97000000 		call	_ZN8KConsole15trapPrintStringEPKc@plt
 1225      E7800000 
 1226              	.LVL154:
 209:src/buddyAllocator.cpp ****         KConsole::trapPrintString("Free blocks on this level\n");
 1227              		.loc 1 209 9 is_stmt 1
 1228              		.loc 1 209 34 is_stmt 0
 1229 0834 17050000 		lla	a0,.LC14
 1229      13050500 
 1230 083c 97000000 		call	_ZN8KConsole15trapPrintStringEPKc@plt
 1230      E7800000 
 1231              	.LVL155:
 210:src/buddyAllocator.cpp ****         buddyBlock* curr = buddy->bucket[i].first;
 1232              		.loc 1 210 9 is_stmt 1
 1233              		.loc 1 210 21 is_stmt 0
 1234 0844 93072900 		addi	a5,s2,2
 1235 0848 93974700 		slli	a5,a5,4
 1236 084c B387F900 		add	a5,s3,a5
 1237 0850 83B40700 		ld	s1,0(a5)
 1238              	.LVL156:
 1239              	.L64:
 211:src/buddyAllocator.cpp ****         while(curr != 0)
 1240              		.loc 1 211 9 is_stmt 1
 1241              		.loc 1 211 20
 1242 0854 E38204FA 		beqz	s1,.L63
 212:src/buddyAllocator.cpp ****         {
 213:src/buddyAllocator.cpp ****             KConsole::trapPrintInt((size_t)curr, 16);
 1243              		.loc 1 213 13
 1244              		.loc 1 213 35 is_stmt 0
 1245 0858 13060000 		li	a2,0
 1246 085c 93050001 		li	a1,16
 1247 0860 13850400 		mv	a0,s1
 1248 0864 97000000 		call	_ZN8KConsole12trapPrintIntEmii@plt
 1248      E7800000 
 1249              	.LVL157:
GAS LISTING /tmp/ccmoKFXP.s 			page 32


 214:src/buddyAllocator.cpp ****             KConsole::trapPrintString("\n");
 1250              		.loc 1 214 13 is_stmt 1
 1251              		.loc 1 214 38 is_stmt 0
 1252 086c 17050000 		lla	a0,.LC1
 1252      13050500 
 1253 0874 97000000 		call	_ZN8KConsole15trapPrintStringEPKc@plt
 1253      E7800000 
 1254              	.LVL158:
 215:src/buddyAllocator.cpp ****             curr = curr->next;
 1255              		.loc 1 215 13 is_stmt 1
 1256              		.loc 1 215 18 is_stmt 0
 1257 087c 83B40400 		ld	s1,0(s1)
 1258              	.LVL159:
 211:src/buddyAllocator.cpp ****         {
 1259              		.loc 1 211 9
 1260 0880 6FF05FFD 		j	.L64
 1261              	.LVL160:
 1262              	.L62:
 1263              	.LBE13:
 1264              	.LBE12:
 216:src/buddyAllocator.cpp ****         }
 217:src/buddyAllocator.cpp ****     }
 218:src/buddyAllocator.cpp ****     KConsole::trapPrintString("End of buddy info-------------------------------------------\n");
 1265              		.loc 1 218 5 is_stmt 1
 1266              		.loc 1 218 30 is_stmt 0
 1267 0884 17050000 		lla	a0,.LC15
 1267      13050500 
 1268 088c 97000000 		call	_ZN8KConsole15trapPrintStringEPKc@plt
 1268      E7800000 
 1269              	.LVL161:
 219:src/buddyAllocator.cpp **** }...
 1270              		.loc 1 219 1
 1271 0894 83308102 		ld	ra,40(sp)
 1272              		.cfi_restore 1
 1273 0898 03340102 		ld	s0,32(sp)
 1274              		.cfi_restore 8
 1275              		.cfi_def_cfa 2, 48
 1276 089c 83348101 		ld	s1,24(sp)
 1277              		.cfi_restore 9
 1278 08a0 03390101 		ld	s2,16(sp)
 1279              		.cfi_restore 18
 1280              	.LVL162:
 1281 08a4 83398100 		ld	s3,8(sp)
 1282              		.cfi_restore 19
 1283              	.LVL163:
 1284 08a8 13010103 		addi	sp,sp,48
 1285              		.cfi_def_cfa_offset 0
 1286 08ac 67800000 		jr	ra
 1287              		.cfi_endproc
 1288              	.LFE16:
 1290              	.Letext0:
 1291              		.file 2 "src/../h/../lib/hw.h"
 1292              		.file 3 "src/../h/buddyAllocator.hpp"
 1293              		.file 4 "src/../h/PCB.hpp"
 1294              		.file 5 "src/../h/KSemaphore.hpp"
 1295              		.file 6 "src/../h/KConsole.hpp"
GAS LISTING /tmp/ccmoKFXP.s 			page 33


DEFINED SYMBOLS
                            *ABS*:0000000000000000 buddyAllocator.cpp
     /tmp/ccmoKFXP.s:9      .text:0000000000000000 _Z12getBlockAddrm
     /tmp/ccmoKFXP.s:13     .text:0000000000000000 .L0 
     /tmp/ccmoKFXP.s:15     .text:0000000000000000 .L0 
     /tmp/ccmoKFXP.s:16     .text:0000000000000004 .L0 
     /tmp/ccmoKFXP.s:18     .text:0000000000000008 .L0 
     /tmp/ccmoKFXP.s:20     .text:000000000000000c .L0 
     /tmp/ccmoKFXP.s:23     .text:000000000000000c .L0 
     /tmp/ccmoKFXP.s:24     .text:000000000000000c .L0 
     /tmp/ccmoKFXP.s:25     .text:000000000000000c .L0 
     /tmp/ccmoKFXP.s:29     .text:0000000000000018 .L0 
     /tmp/ccmoKFXP.s:30     .text:0000000000000018 .L0 
     /tmp/ccmoKFXP.s:32     .text:000000000000001c .L0 
     /tmp/ccmoKFXP.s:34     .text:0000000000000020 .L0 
     /tmp/ccmoKFXP.s:40     .text:0000000000000020 _Z16getNextBlockAddrm
     /tmp/ccmoKFXP.s:43     .text:0000000000000020 .L0 
     /tmp/ccmoKFXP.s:45     .text:0000000000000020 .L0 
     /tmp/ccmoKFXP.s:46     .text:0000000000000024 .L0 
     /tmp/ccmoKFXP.s:49     .text:000000000000002c .L0 
     /tmp/ccmoKFXP.s:50     .text:000000000000002c .L0 
     /tmp/ccmoKFXP.s:52     .text:0000000000000030 .L0 
     /tmp/ccmoKFXP.s:54     .text:0000000000000030 .L0 
     /tmp/ccmoKFXP.s:55     .text:0000000000000030 .L0 
     /tmp/ccmoKFXP.s:58     .text:0000000000000038 .L0 
     /tmp/ccmoKFXP.s:59     .text:0000000000000038 .L0 
     /tmp/ccmoKFXP.s:63     .text:0000000000000044 .L0 
     /tmp/ccmoKFXP.s:65     .text:0000000000000048 .L0 
     /tmp/ccmoKFXP.s:66     .text:0000000000000048 .L0 
     /tmp/ccmoKFXP.s:68     .text:000000000000004c .L0 
     /tmp/ccmoKFXP.s:70     .text:0000000000000050 .L0 
     /tmp/ccmoKFXP.s:76     .text:0000000000000050 _Z12getDeg2Floorm
     /tmp/ccmoKFXP.s:79     .text:0000000000000050 .L0 
     /tmp/ccmoKFXP.s:81     .text:0000000000000050 .L0 
     /tmp/ccmoKFXP.s:82     .text:0000000000000054 .L0 
     /tmp/ccmoKFXP.s:84     .text:0000000000000058 .L0 
     /tmp/ccmoKFXP.s:86     .text:000000000000005c .L0 
     /tmp/ccmoKFXP.s:89     .text:000000000000005c .L0 
     /tmp/ccmoKFXP.s:90     .text:000000000000005c .L0 
     /tmp/ccmoKFXP.s:91     .text:000000000000005c .L0 
     /tmp/ccmoKFXP.s:93     .text:0000000000000060 .L0 
     /tmp/ccmoKFXP.s:97     .text:0000000000000064 .L0 
     /tmp/ccmoKFXP.s:98     .text:0000000000000064 .L0 
     /tmp/ccmoKFXP.s:100    .text:0000000000000068 .L0 
     /tmp/ccmoKFXP.s:101    .text:0000000000000068 .L0 
     /tmp/ccmoKFXP.s:104    .text:000000000000006c .L0 
     /tmp/ccmoKFXP.s:105    .text:000000000000006c .L0 
     /tmp/ccmoKFXP.s:108    .text:0000000000000070 .L0 
     /tmp/ccmoKFXP.s:111    .text:0000000000000074 .L0 
     /tmp/ccmoKFXP.s:112    .text:0000000000000074 .L0 
     /tmp/ccmoKFXP.s:115    .text:000000000000007c .L0 
     /tmp/ccmoKFXP.s:116    .text:000000000000007c .L0 
     /tmp/ccmoKFXP.s:118    .text:0000000000000080 .L0 
     /tmp/ccmoKFXP.s:120    .text:0000000000000084 .L0 
     /tmp/ccmoKFXP.s:126    .text:0000000000000084 _Z11getDeg2Ceilm
     /tmp/ccmoKFXP.s:129    .text:0000000000000084 .L0 
     /tmp/ccmoKFXP.s:131    .text:0000000000000084 .L0 
GAS LISTING /tmp/ccmoKFXP.s 			page 34


     /tmp/ccmoKFXP.s:132    .text:0000000000000088 .L0 
     /tmp/ccmoKFXP.s:134    .text:000000000000008c .L0 
     /tmp/ccmoKFXP.s:136    .text:0000000000000090 .L0 
     /tmp/ccmoKFXP.s:140    .text:0000000000000094 .L0 
     /tmp/ccmoKFXP.s:141    .text:0000000000000094 .L0 
     /tmp/ccmoKFXP.s:142    .text:0000000000000094 .L0 
     /tmp/ccmoKFXP.s:145    .text:0000000000000098 .L0 
     /tmp/ccmoKFXP.s:149    .text:000000000000009c .L0 
     /tmp/ccmoKFXP.s:150    .text:000000000000009c .L0 
     /tmp/ccmoKFXP.s:152    .text:00000000000000a0 .L0 
     /tmp/ccmoKFXP.s:153    .text:00000000000000a0 .L0 
     /tmp/ccmoKFXP.s:156    .text:00000000000000a4 .L0 
     /tmp/ccmoKFXP.s:157    .text:00000000000000a4 .L0 
     /tmp/ccmoKFXP.s:160    .text:00000000000000a8 .L0 
     /tmp/ccmoKFXP.s:163    .text:00000000000000ac .L0 
     /tmp/ccmoKFXP.s:164    .text:00000000000000b0 .L0 
     /tmp/ccmoKFXP.s:165    .text:00000000000000b0 .L0 
     /tmp/ccmoKFXP.s:167    .text:00000000000000b4 .L0 
     /tmp/ccmoKFXP.s:169    .text:00000000000000b8 .L0 
     /tmp/ccmoKFXP.s:175    .text:00000000000000b8 _Z15addBlockToLevelP14buddyAllocatorPvm
     /tmp/ccmoKFXP.s:178    .text:00000000000000b8 .L0 
     /tmp/ccmoKFXP.s:180    .text:00000000000000b8 .L0 
     /tmp/ccmoKFXP.s:181    .text:00000000000000bc .L0 
     /tmp/ccmoKFXP.s:183    .text:00000000000000c0 .L0 
     /tmp/ccmoKFXP.s:185    .text:00000000000000c4 .L0 
     /tmp/ccmoKFXP.s:188    .text:00000000000000c4 .L0 
     /tmp/ccmoKFXP.s:189    .text:00000000000000c4 .L0 
     /tmp/ccmoKFXP.s:190    .text:00000000000000c4 .L0 
     /tmp/ccmoKFXP.s:192    .text:00000000000000c8 .L0 
     /tmp/ccmoKFXP.s:193    .text:00000000000000c8 .L0 
     /tmp/ccmoKFXP.s:198    .text:00000000000000d8 .L0 
     /tmp/ccmoKFXP.s:200    .text:00000000000000dc .L0 
     /tmp/ccmoKFXP.s:201    .text:00000000000000dc .L0 
     /tmp/ccmoKFXP.s:208    .text:00000000000000ec .L0 
     /tmp/ccmoKFXP.s:210    .text:00000000000000f0 .L0 
     /tmp/ccmoKFXP.s:211    .text:00000000000000f0 .L0 
     /tmp/ccmoKFXP.s:214    .text:00000000000000f4 .L0 
     /tmp/ccmoKFXP.s:215    .text:00000000000000f8 .L0 
     /tmp/ccmoKFXP.s:216    .text:00000000000000f8 .L0 
     /tmp/ccmoKFXP.s:217    .text:00000000000000f8 .L0 
     /tmp/ccmoKFXP.s:219    .text:00000000000000fc .L0 
     /tmp/ccmoKFXP.s:223    .text:0000000000000100 .L0 
     /tmp/ccmoKFXP.s:225    .text:0000000000000100 .L0 
     /tmp/ccmoKFXP.s:226    .text:0000000000000100 .L0 
     /tmp/ccmoKFXP.s:233    .text:0000000000000110 .L0 
     /tmp/ccmoKFXP.s:235    .text:0000000000000118 .L0 
     /tmp/ccmoKFXP.s:241    .text:0000000000000118 _Z17getBuddyBlockAddrP14buddyAllocatorPvm
     /tmp/ccmoKFXP.s:244    .text:0000000000000118 .L0 
     /tmp/ccmoKFXP.s:246    .text:0000000000000118 .L0 
     /tmp/ccmoKFXP.s:247    .text:000000000000011c .L0 
     /tmp/ccmoKFXP.s:249    .text:0000000000000120 .L0 
     /tmp/ccmoKFXP.s:251    .text:0000000000000124 .L0 
     /tmp/ccmoKFXP.s:253    .text:0000000000000124 .L0 
     /tmp/ccmoKFXP.s:254    .text:0000000000000124 .L0 
     /tmp/ccmoKFXP.s:258    .text:000000000000012c .L0 
     /tmp/ccmoKFXP.s:259    .text:000000000000012c .L0 
     /tmp/ccmoKFXP.s:261    .text:0000000000000130 .L0 
GAS LISTING /tmp/ccmoKFXP.s 			page 35


     /tmp/ccmoKFXP.s:264    .text:0000000000000134 .L0 
     /tmp/ccmoKFXP.s:265    .text:0000000000000134 .L0 
     /tmp/ccmoKFXP.s:268    .text:0000000000000138 .L0 
     /tmp/ccmoKFXP.s:270    .text:000000000000013c .L0 
     /tmp/ccmoKFXP.s:271    .text:000000000000013c .L0 
     /tmp/ccmoKFXP.s:275    .text:0000000000000140 .L0 
     /tmp/ccmoKFXP.s:276    .text:0000000000000144 .L0 
     /tmp/ccmoKFXP.s:277    .text:0000000000000144 .L0 
     /tmp/ccmoKFXP.s:278    .text:0000000000000144 .L0 
     /tmp/ccmoKFXP.s:280    .text:0000000000000148 .L0 
     /tmp/ccmoKFXP.s:284    .text:000000000000014c .L0 
     /tmp/ccmoKFXP.s:286    .text:000000000000014c .L0 
     /tmp/ccmoKFXP.s:287    .text:000000000000014c .L0 
     /tmp/ccmoKFXP.s:290    .text:0000000000000154 .L0 
     /tmp/ccmoKFXP.s:296    .text:0000000000000154 _Z5splitP14buddyAllocatorPvmmb
     /tmp/ccmoKFXP.s:299    .text:0000000000000154 .L0 
     /tmp/ccmoKFXP.s:301    .text:0000000000000154 .L0 
     /tmp/ccmoKFXP.s:302    .text:0000000000000158 .L0 
     /tmp/ccmoKFXP.s:309    .text:0000000000000170 .L0 
     /tmp/ccmoKFXP.s:310    .text:0000000000000170 .L0 
     /tmp/ccmoKFXP.s:311    .text:0000000000000170 .L0 
     /tmp/ccmoKFXP.s:312    .text:0000000000000170 .L0 
     /tmp/ccmoKFXP.s:313    .text:0000000000000170 .L0 
     /tmp/ccmoKFXP.s:314    .text:0000000000000170 .L0 
     /tmp/ccmoKFXP.s:316    .text:0000000000000174 .L0 
     /tmp/ccmoKFXP.s:321    .text:000000000000017c .L0 
     /tmp/ccmoKFXP.s:325    .text:0000000000000184 .L0 
     /tmp/ccmoKFXP.s:327    .text:0000000000000188 .L0 
     /tmp/ccmoKFXP.s:328    .text:0000000000000188 .L0 
     /tmp/ccmoKFXP.s:336    .text:000000000000019c .L0 
     /tmp/ccmoKFXP.s:337    .text:000000000000019c .L0 
     /tmp/ccmoKFXP.s:345    .text:00000000000001b4 .L0 
     /tmp/ccmoKFXP.s:346    .text:00000000000001b4 .L0 
     /tmp/ccmoKFXP.s:357    .text:00000000000001d0 .L0 
     /tmp/ccmoKFXP.s:358    .text:00000000000001d4 .L0 
     /tmp/ccmoKFXP.s:359    .text:00000000000001d4 .L0 
     /tmp/ccmoKFXP.s:361    .text:00000000000001d8 .L0 
     /tmp/ccmoKFXP.s:362    .text:00000000000001d8 .L0 
     /tmp/ccmoKFXP.s:364    .text:00000000000001dc .L0 
     /tmp/ccmoKFXP.s:366    .text:00000000000001e0 .L0 
     /tmp/ccmoKFXP.s:369    .text:00000000000001e4 .L0 
     /tmp/ccmoKFXP.s:371    .text:00000000000001e8 .L0 
     /tmp/ccmoKFXP.s:374    .text:00000000000001ec .L0 
     /tmp/ccmoKFXP.s:378    .text:00000000000001f0 .L0 
     /tmp/ccmoKFXP.s:381    .text:00000000000001f0 .L0 
     /tmp/ccmoKFXP.s:382    .text:00000000000001f0 .L0 
     /tmp/ccmoKFXP.s:388    .text:0000000000000200 .L0 
     /tmp/ccmoKFXP.s:408    .text:0000000000000200 _Z11buddy_allocP14buddyAllocatorm
     /tmp/ccmoKFXP.s:411    .text:0000000000000200 .L0 
     /tmp/ccmoKFXP.s:413    .text:0000000000000200 .L0 
     /tmp/ccmoKFXP.s:414    .text:0000000000000204 .L0 
     /tmp/ccmoKFXP.s:421    .text:000000000000021c .L0 
     /tmp/ccmoKFXP.s:422    .text:000000000000021c .L0 
     /tmp/ccmoKFXP.s:423    .text:000000000000021c .L0 
     /tmp/ccmoKFXP.s:424    .text:000000000000021c .L0 
     /tmp/ccmoKFXP.s:425    .text:000000000000021c .L0 
     /tmp/ccmoKFXP.s:426    .text:000000000000021c .L0 
GAS LISTING /tmp/ccmoKFXP.s 			page 36


     /tmp/ccmoKFXP.s:428    .text:0000000000000220 .L0 
     /tmp/ccmoKFXP.s:432    .text:0000000000000228 .L0 
     /tmp/ccmoKFXP.s:433    .text:0000000000000228 .L0 
     /tmp/ccmoKFXP.s:438    .text:0000000000000238 .L0 
     /tmp/ccmoKFXP.s:439    .text:0000000000000238 .L0 
     /tmp/ccmoKFXP.s:445    .text:000000000000024c .L0 
     /tmp/ccmoKFXP.s:446    .text:000000000000024c .L0 
     /tmp/ccmoKFXP.s:450    .text:000000000000025c .L0 
     /tmp/ccmoKFXP.s:451    .text:000000000000025c .L0 
     /tmp/ccmoKFXP.s:457    .text:000000000000026c .L0 
     /tmp/ccmoKFXP.s:458    .text:000000000000026c .L0 
     /tmp/ccmoKFXP.s:463    .text:000000000000027c .L0 
     /tmp/ccmoKFXP.s:464    .text:000000000000027c .L0 
     /tmp/ccmoKFXP.s:470    .text:0000000000000290 .L0 
     /tmp/ccmoKFXP.s:471    .text:0000000000000290 .L0 
     /tmp/ccmoKFXP.s:476    .text:00000000000002a0 .L0 
     /tmp/ccmoKFXP.s:477    .text:00000000000002a0 .L0 
     /tmp/ccmoKFXP.s:481    .text:00000000000002a4 .L0 
     /tmp/ccmoKFXP.s:482    .text:00000000000002a4 .L0 
     /tmp/ccmoKFXP.s:484    .text:00000000000002a8 .L0 
     /tmp/ccmoKFXP.s:489    .text:00000000000002ac .L0 
     /tmp/ccmoKFXP.s:490    .text:00000000000002ac .L0 
     /tmp/ccmoKFXP.s:495    .text:00000000000002bc .L0 
     /tmp/ccmoKFXP.s:498    .text:00000000000002c0 .L0 
     /tmp/ccmoKFXP.s:506    .text:00000000000002c8 .L0 
     /tmp/ccmoKFXP.s:507    .text:00000000000002c8 .L0 
     /tmp/ccmoKFXP.s:508    .text:00000000000002c8 .L0 
     /tmp/ccmoKFXP.s:512    .text:00000000000002d8 .L0 
     /tmp/ccmoKFXP.s:513    .text:00000000000002d8 .L0 
     /tmp/ccmoKFXP.s:519    .text:00000000000002ec .L0 
     /tmp/ccmoKFXP.s:520    .text:00000000000002ec .L0 
     /tmp/ccmoKFXP.s:524    .text:00000000000002fc .L0 
     /tmp/ccmoKFXP.s:525    .text:00000000000002fc .L0 
     /tmp/ccmoKFXP.s:527    .text:0000000000000300 .L0 
     /tmp/ccmoKFXP.s:532    .text:0000000000000310 .L0 
     /tmp/ccmoKFXP.s:535    .text:0000000000000314 .L0 
     /tmp/ccmoKFXP.s:536    .text:0000000000000314 .L0 
     /tmp/ccmoKFXP.s:544    .text:0000000000000330 .L0 
     /tmp/ccmoKFXP.s:545    .text:0000000000000330 .L0 
     /tmp/ccmoKFXP.s:548    .text:0000000000000334 .L0 
     /tmp/ccmoKFXP.s:549    .text:0000000000000334 .L0 
     /tmp/ccmoKFXP.s:560    .text:0000000000000348 .L0 
     /tmp/ccmoKFXP.s:563    .text:000000000000034c .L0 
     /tmp/ccmoKFXP.s:565    .text:0000000000000354 .L0 
     /tmp/ccmoKFXP.s:567    .text:0000000000000358 .L0 
     /tmp/ccmoKFXP.s:568    .text:0000000000000358 .L0 
     /tmp/ccmoKFXP.s:570    .text:000000000000035c .L0 
     /tmp/ccmoKFXP.s:573    .text:0000000000000360 .L0 
     /tmp/ccmoKFXP.s:576    .text:0000000000000364 .L0 
     /tmp/ccmoKFXP.s:578    .text:0000000000000368 .L0 
     /tmp/ccmoKFXP.s:581    .text:000000000000036c .L0 
     /tmp/ccmoKFXP.s:583    .text:0000000000000370 .L0 
     /tmp/ccmoKFXP.s:594    .text:0000000000000370 _Z9addBlocksP14buddyAllocatorPvm
     /tmp/ccmoKFXP.s:597    .text:0000000000000370 .L0 
     /tmp/ccmoKFXP.s:599    .text:0000000000000370 .L0 
     /tmp/ccmoKFXP.s:600    .text:0000000000000374 .L0 
     /tmp/ccmoKFXP.s:607    .text:000000000000038c .L0 
GAS LISTING /tmp/ccmoKFXP.s 			page 37


     /tmp/ccmoKFXP.s:608    .text:000000000000038c .L0 
     /tmp/ccmoKFXP.s:609    .text:000000000000038c .L0 
     /tmp/ccmoKFXP.s:610    .text:000000000000038c .L0 
     /tmp/ccmoKFXP.s:611    .text:000000000000038c .L0 
     /tmp/ccmoKFXP.s:612    .text:000000000000038c .L0 
     /tmp/ccmoKFXP.s:614    .text:0000000000000390 .L0 
     /tmp/ccmoKFXP.s:619    .text:000000000000039c .L0 
     /tmp/ccmoKFXP.s:620    .text:000000000000039c .L0 
     /tmp/ccmoKFXP.s:622    .text:00000000000003a0 .L0 
     /tmp/ccmoKFXP.s:624    .text:00000000000003a4 .L0 
     /tmp/ccmoKFXP.s:625    .text:00000000000003a4 .L0 
     /tmp/ccmoKFXP.s:630    .text:00000000000003b0 .L0 
     /tmp/ccmoKFXP.s:631    .text:00000000000003b0 .L0 
     /tmp/ccmoKFXP.s:635    .text:00000000000003c0 .L0 
     /tmp/ccmoKFXP.s:636    .text:00000000000003c0 .L0 
     /tmp/ccmoKFXP.s:642    .text:00000000000003d4 .L0 
     /tmp/ccmoKFXP.s:643    .text:00000000000003d4 .L0 
     /tmp/ccmoKFXP.s:647    .text:00000000000003e4 .L0 
     /tmp/ccmoKFXP.s:648    .text:00000000000003e4 .L0 
     /tmp/ccmoKFXP.s:654    .text:00000000000003f4 .L0 
     /tmp/ccmoKFXP.s:655    .text:00000000000003f4 .L0 
     /tmp/ccmoKFXP.s:659    .text:00000000000003f8 .L0 
     /tmp/ccmoKFXP.s:660    .text:00000000000003f8 .L0 
     /tmp/ccmoKFXP.s:662    .text:00000000000003fc .L0 
     /tmp/ccmoKFXP.s:665    .text:0000000000000400 .L0 
     /tmp/ccmoKFXP.s:666    .text:0000000000000400 .L0 
     /tmp/ccmoKFXP.s:667    .text:0000000000000400 .L0 
     /tmp/ccmoKFXP.s:669    .text:0000000000000404 .L0 
     /tmp/ccmoKFXP.s:672    .text:0000000000000408 .L0 
     /tmp/ccmoKFXP.s:676    .text:000000000000040c .L0 
     /tmp/ccmoKFXP.s:677    .text:000000000000040c .L0 
     /tmp/ccmoKFXP.s:680    .text:0000000000000414 .L0 
     /tmp/ccmoKFXP.s:684    .text:0000000000000418 .L0 
     /tmp/ccmoKFXP.s:686    .text:000000000000041c .L0 
     /tmp/ccmoKFXP.s:687    .text:000000000000041c .L0 
     /tmp/ccmoKFXP.s:689    .text:0000000000000420 .L0 
     /tmp/ccmoKFXP.s:691    .text:0000000000000424 .L0 
     /tmp/ccmoKFXP.s:692    .text:0000000000000424 .L0 
     /tmp/ccmoKFXP.s:697    .text:0000000000000434 .L0 
     /tmp/ccmoKFXP.s:701    .text:0000000000000438 .L0 
     /tmp/ccmoKFXP.s:703    .text:000000000000043c .L0 
     /tmp/ccmoKFXP.s:704    .text:000000000000043c .L0 
     /tmp/ccmoKFXP.s:713    .text:0000000000000454 .L0 
     /tmp/ccmoKFXP.s:714    .text:0000000000000454 .L0 
     /tmp/ccmoKFXP.s:723    .text:0000000000000468 .L0 
     /tmp/ccmoKFXP.s:724    .text:0000000000000468 .L0 
     /tmp/ccmoKFXP.s:727    .text:000000000000046c .L0 
     /tmp/ccmoKFXP.s:729    .text:0000000000000470 .L0 
     /tmp/ccmoKFXP.s:730    .text:0000000000000470 .L0 
     /tmp/ccmoKFXP.s:739    .text:0000000000000484 .L0 
     /tmp/ccmoKFXP.s:740    .text:0000000000000484 .L0 
     /tmp/ccmoKFXP.s:746    .text:0000000000000494 .L0 
     /tmp/ccmoKFXP.s:750    .text:000000000000049c .L0 
     /tmp/ccmoKFXP.s:751    .text:000000000000049c .L0 
     /tmp/ccmoKFXP.s:757    .text:00000000000004b0 .L0 
     /tmp/ccmoKFXP.s:761    .text:00000000000004b4 .L0 
     /tmp/ccmoKFXP.s:762    .text:00000000000004b4 .L0 
GAS LISTING /tmp/ccmoKFXP.s 			page 38


     /tmp/ccmoKFXP.s:769    .text:00000000000004c8 .L0 
     /tmp/ccmoKFXP.s:770    .text:00000000000004cc .L0 
     /tmp/ccmoKFXP.s:772    .text:00000000000004d0 .L0 
     /tmp/ccmoKFXP.s:773    .text:00000000000004d0 .L0 
     /tmp/ccmoKFXP.s:775    .text:00000000000004d4 .L0 
     /tmp/ccmoKFXP.s:777    .text:00000000000004d8 .L0 
     /tmp/ccmoKFXP.s:780    .text:00000000000004dc .L0 
     /tmp/ccmoKFXP.s:783    .text:00000000000004e0 .L0 
     /tmp/ccmoKFXP.s:786    .text:00000000000004e4 .L0 
     /tmp/ccmoKFXP.s:788    .text:00000000000004e8 .L0 
     /tmp/ccmoKFXP.s:802    .text:00000000000004e8 _Z10buddy_initPvm
     /tmp/ccmoKFXP.s:805    .text:00000000000004e8 .L0 
     /tmp/ccmoKFXP.s:807    .text:00000000000004e8 .L0 
     /tmp/ccmoKFXP.s:808    .text:00000000000004ec .L0 
     /tmp/ccmoKFXP.s:815    .text:0000000000000504 .L0 
     /tmp/ccmoKFXP.s:816    .text:0000000000000504 .L0 
     /tmp/ccmoKFXP.s:817    .text:0000000000000504 .L0 
     /tmp/ccmoKFXP.s:818    .text:0000000000000504 .L0 
     /tmp/ccmoKFXP.s:819    .text:0000000000000504 .L0 
     /tmp/ccmoKFXP.s:820    .text:0000000000000504 .L0 
     /tmp/ccmoKFXP.s:822    .text:0000000000000508 .L0 
     /tmp/ccmoKFXP.s:826    .text:0000000000000510 .L0 
     /tmp/ccmoKFXP.s:827    .text:0000000000000510 .L0 
     /tmp/ccmoKFXP.s:832    .text:0000000000000520 .L0 
     /tmp/ccmoKFXP.s:833    .text:0000000000000520 .L0 
     /tmp/ccmoKFXP.s:840    .text:0000000000000534 .L0 
     /tmp/ccmoKFXP.s:841    .text:0000000000000534 .L0 
     /tmp/ccmoKFXP.s:842    .text:0000000000000534 .L0 
     /tmp/ccmoKFXP.s:847    .text:0000000000000544 .L0 
     /tmp/ccmoKFXP.s:848    .text:0000000000000544 .L0 
     /tmp/ccmoKFXP.s:852    .text:0000000000000554 .L0 
     /tmp/ccmoKFXP.s:853    .text:0000000000000554 .L0 
     /tmp/ccmoKFXP.s:859    .text:0000000000000568 .L0 
     /tmp/ccmoKFXP.s:860    .text:0000000000000568 .L0 
     /tmp/ccmoKFXP.s:864    .text:0000000000000578 .L0 
     /tmp/ccmoKFXP.s:866    .text:000000000000057c .L0 
     /tmp/ccmoKFXP.s:867    .text:000000000000057c .L0 
     /tmp/ccmoKFXP.s:873    .text:000000000000058c .L0 
     /tmp/ccmoKFXP.s:874    .text:000000000000058c .L0 
     /tmp/ccmoKFXP.s:878    .text:0000000000000590 .L0 
     /tmp/ccmoKFXP.s:879    .text:0000000000000590 .L0 
     /tmp/ccmoKFXP.s:883    .text:00000000000005a0 .L0 
     /tmp/ccmoKFXP.s:884    .text:00000000000005a0 .L0 
     /tmp/ccmoKFXP.s:890    .text:00000000000005b4 .L0 
     /tmp/ccmoKFXP.s:891    .text:00000000000005b4 .L0 
     /tmp/ccmoKFXP.s:895    .text:00000000000005c4 .L0 
     /tmp/ccmoKFXP.s:896    .text:00000000000005c4 .L0 
     /tmp/ccmoKFXP.s:899    .text:00000000000005c8 .L0 
     /tmp/ccmoKFXP.s:900    .text:00000000000005c8 .L0 
     /tmp/ccmoKFXP.s:903    .text:00000000000005cc .L0 
     /tmp/ccmoKFXP.s:904    .text:00000000000005cc .L0 
     /tmp/ccmoKFXP.s:908    .text:00000000000005d8 .L0 
     /tmp/ccmoKFXP.s:910    .text:00000000000005dc .L0 
     /tmp/ccmoKFXP.s:911    .text:00000000000005dc .L0 
     /tmp/ccmoKFXP.s:913    .text:00000000000005e0 .L0 
     /tmp/ccmoKFXP.s:914    .text:00000000000005e0 .L0 
     /tmp/ccmoKFXP.s:916    .text:00000000000005e4 .L0 
GAS LISTING /tmp/ccmoKFXP.s 			page 39


     /tmp/ccmoKFXP.s:917    .text:00000000000005e4 .L0 
     /tmp/ccmoKFXP.s:921    .text:00000000000005f0 .L0 
     /tmp/ccmoKFXP.s:925    .text:00000000000005f4 .L0 
     /tmp/ccmoKFXP.s:926    .text:00000000000005f4 .L0 
     /tmp/ccmoKFXP.s:930    .text:00000000000005f8 .L0 
     /tmp/ccmoKFXP.s:932    .text:00000000000005fc .L0 
     /tmp/ccmoKFXP.s:933    .text:00000000000005fc .L0 
     /tmp/ccmoKFXP.s:938    .text:000000000000060c .L0 
     /tmp/ccmoKFXP.s:940    .text:0000000000000610 .L0 
     /tmp/ccmoKFXP.s:947    .text:0000000000000618 .L0 
     /tmp/ccmoKFXP.s:951    .text:000000000000061c .L0 
     /tmp/ccmoKFXP.s:953    .text:0000000000000620 .L0 
     /tmp/ccmoKFXP.s:954    .text:0000000000000620 .L0 
     /tmp/ccmoKFXP.s:956    .text:0000000000000624 .L0 
     /tmp/ccmoKFXP.s:958    .text:0000000000000628 .L0 
     /tmp/ccmoKFXP.s:964    .text:000000000000063c .L0 
     /tmp/ccmoKFXP.s:970    .text:0000000000000644 .L0 
     /tmp/ccmoKFXP.s:972    .text:000000000000064c .L0 
     /tmp/ccmoKFXP.s:974    .text:0000000000000650 .L0 
     /tmp/ccmoKFXP.s:975    .text:0000000000000650 .L0 
     /tmp/ccmoKFXP.s:977    .text:0000000000000654 .L0 
     /tmp/ccmoKFXP.s:980    .text:0000000000000658 .L0 
     /tmp/ccmoKFXP.s:983    .text:000000000000065c .L0 
     /tmp/ccmoKFXP.s:986    .text:0000000000000660 .L0 
     /tmp/ccmoKFXP.s:989    .text:0000000000000664 .L0 
     /tmp/ccmoKFXP.s:991    .text:0000000000000668 .L0 
     /tmp/ccmoKFXP.s:1005   .text:0000000000000668 _Z10buddy_freeP14buddyAllocatorPvm
     /tmp/ccmoKFXP.s:1008   .text:0000000000000668 .L0 
     /tmp/ccmoKFXP.s:1010   .text:0000000000000668 .L0 
     /tmp/ccmoKFXP.s:1011   .text:000000000000066c .L0 
     /tmp/ccmoKFXP.s:1017   .text:0000000000000680 .L0 
     /tmp/ccmoKFXP.s:1018   .text:0000000000000680 .L0 
     /tmp/ccmoKFXP.s:1019   .text:0000000000000680 .L0 
     /tmp/ccmoKFXP.s:1020   .text:0000000000000680 .L0 
     /tmp/ccmoKFXP.s:1021   .text:0000000000000680 .L0 
     /tmp/ccmoKFXP.s:1023   .text:0000000000000684 .L0 
     /tmp/ccmoKFXP.s:1028   .text:0000000000000690 .L0 
     /tmp/ccmoKFXP.s:1029   .text:0000000000000690 .L0 
     /tmp/ccmoKFXP.s:1034   .text:00000000000006a0 .L0 
     /tmp/ccmoKFXP.s:1035   .text:00000000000006a0 .L0 
     /tmp/ccmoKFXP.s:1041   .text:00000000000006b4 .L0 
     /tmp/ccmoKFXP.s:1042   .text:00000000000006b4 .L0 
     /tmp/ccmoKFXP.s:1046   .text:00000000000006c4 .L0 
     /tmp/ccmoKFXP.s:1047   .text:00000000000006c4 .L0 
     /tmp/ccmoKFXP.s:1053   .text:00000000000006d8 .L0 
     /tmp/ccmoKFXP.s:1054   .text:00000000000006d8 .L0 
     /tmp/ccmoKFXP.s:1058   .text:00000000000006e8 .L0 
     /tmp/ccmoKFXP.s:1059   .text:00000000000006e8 .L0 
     /tmp/ccmoKFXP.s:1065   .text:00000000000006f8 .L0 
     /tmp/ccmoKFXP.s:1066   .text:00000000000006f8 .L0 
     /tmp/ccmoKFXP.s:1072   .text:0000000000000708 .L0 
     /tmp/ccmoKFXP.s:1073   .text:000000000000070c .L0 
     /tmp/ccmoKFXP.s:1075   .text:0000000000000710 .L0 
     /tmp/ccmoKFXP.s:1076   .text:0000000000000710 .L0 
     /tmp/ccmoKFXP.s:1078   .text:0000000000000714 .L0 
     /tmp/ccmoKFXP.s:1081   .text:0000000000000718 .L0 
     /tmp/ccmoKFXP.s:1084   .text:000000000000071c .L0 
GAS LISTING /tmp/ccmoKFXP.s 			page 40


     /tmp/ccmoKFXP.s:1087   .text:0000000000000720 .L0 
     /tmp/ccmoKFXP.s:1089   .text:0000000000000724 .L0 
     /tmp/ccmoKFXP.s:1118   .text:0000000000000724 _Z14printBuddyInfoP14buddyAllocator
     /tmp/ccmoKFXP.s:1121   .text:0000000000000724 .L0 
     /tmp/ccmoKFXP.s:1123   .text:0000000000000724 .L0 
     /tmp/ccmoKFXP.s:1124   .text:0000000000000728 .L0 
     /tmp/ccmoKFXP.s:1130   .text:000000000000073c .L0 
     /tmp/ccmoKFXP.s:1131   .text:000000000000073c .L0 
     /tmp/ccmoKFXP.s:1132   .text:000000000000073c .L0 
     /tmp/ccmoKFXP.s:1133   .text:000000000000073c .L0 
     /tmp/ccmoKFXP.s:1134   .text:000000000000073c .L0 
     /tmp/ccmoKFXP.s:1136   .text:0000000000000740 .L0 
     /tmp/ccmoKFXP.s:1139   .text:0000000000000744 .L0 
     /tmp/ccmoKFXP.s:1140   .text:0000000000000744 .L0 
     /tmp/ccmoKFXP.s:1145   .text:0000000000000754 .L0 
     /tmp/ccmoKFXP.s:1146   .text:0000000000000754 .L0 
     /tmp/ccmoKFXP.s:1150   .text:0000000000000764 .L0 
     /tmp/ccmoKFXP.s:1151   .text:0000000000000764 .L0 
     /tmp/ccmoKFXP.s:1157   .text:0000000000000778 .L0 
     /tmp/ccmoKFXP.s:1158   .text:0000000000000778 .L0 
     /tmp/ccmoKFXP.s:1162   .text:0000000000000788 .L0 
     /tmp/ccmoKFXP.s:1163   .text:0000000000000788 .L0 
     /tmp/ccmoKFXP.s:1167   .text:0000000000000798 .L0 
     /tmp/ccmoKFXP.s:1168   .text:0000000000000798 .L0 
     /tmp/ccmoKFXP.s:1174   .text:00000000000007ac .L0 
     /tmp/ccmoKFXP.s:1175   .text:00000000000007ac .L0 
     /tmp/ccmoKFXP.s:1179   .text:00000000000007bc .L0 
     /tmp/ccmoKFXP.s:1180   .text:00000000000007bc .L0 
     /tmp/ccmoKFXP.s:1184   .text:00000000000007cc .L0 
     /tmp/ccmoKFXP.s:1185   .text:00000000000007cc .L0 
     /tmp/ccmoKFXP.s:1191   .text:00000000000007e0 .L0 
     /tmp/ccmoKFXP.s:1192   .text:00000000000007e0 .L0 
     /tmp/ccmoKFXP.s:1197   .text:00000000000007f0 .L0 
     /tmp/ccmoKFXP.s:1198   .text:00000000000007f0 .L0 
     /tmp/ccmoKFXP.s:1204   .text:00000000000007f8 .L0 
     /tmp/ccmoKFXP.s:1208   .text:00000000000007fc .L0 
     /tmp/ccmoKFXP.s:1211   .text:0000000000000800 .L0 
     /tmp/ccmoKFXP.s:1212   .text:0000000000000800 .L0 
     /tmp/ccmoKFXP.s:1216   .text:0000000000000810 .L0 
     /tmp/ccmoKFXP.s:1217   .text:0000000000000810 .L0 
     /tmp/ccmoKFXP.s:1223   .text:0000000000000824 .L0 
     /tmp/ccmoKFXP.s:1224   .text:0000000000000824 .L0 
     /tmp/ccmoKFXP.s:1228   .text:0000000000000834 .L0 
     /tmp/ccmoKFXP.s:1229   .text:0000000000000834 .L0 
     /tmp/ccmoKFXP.s:1233   .text:0000000000000844 .L0 
     /tmp/ccmoKFXP.s:1234   .text:0000000000000844 .L0 
     /tmp/ccmoKFXP.s:1241   .text:0000000000000854 .L0 
     /tmp/ccmoKFXP.s:1242   .text:0000000000000854 .L0 
     /tmp/ccmoKFXP.s:1244   .text:0000000000000858 .L0 
     /tmp/ccmoKFXP.s:1245   .text:0000000000000858 .L0 
     /tmp/ccmoKFXP.s:1251   .text:000000000000086c .L0 
     /tmp/ccmoKFXP.s:1252   .text:000000000000086c .L0 
     /tmp/ccmoKFXP.s:1256   .text:000000000000087c .L0 
     /tmp/ccmoKFXP.s:1257   .text:000000000000087c .L0 
     /tmp/ccmoKFXP.s:1260   .text:0000000000000880 .L0 
     /tmp/ccmoKFXP.s:1266   .text:0000000000000884 .L0 
     /tmp/ccmoKFXP.s:1267   .text:0000000000000884 .L0 
GAS LISTING /tmp/ccmoKFXP.s 			page 41


     /tmp/ccmoKFXP.s:1271   .text:0000000000000894 .L0 
     /tmp/ccmoKFXP.s:1272   .text:0000000000000898 .L0 
     /tmp/ccmoKFXP.s:1274   .text:000000000000089c .L0 
     /tmp/ccmoKFXP.s:1275   .text:000000000000089c .L0 
     /tmp/ccmoKFXP.s:1277   .text:00000000000008a0 .L0 
     /tmp/ccmoKFXP.s:1279   .text:00000000000008a4 .L0 
     /tmp/ccmoKFXP.s:1282   .text:00000000000008a8 .L0 
     /tmp/ccmoKFXP.s:1285   .text:00000000000008ac .L0 
     /tmp/ccmoKFXP.s:1287   .text:00000000000008b0 .L0 
     /tmp/ccmoKFXP.s:1296   .text:00000000000008b0 .L0 
     /tmp/ccmoKFXP.s:393    .rodata.str1.8:0000000000000000 .LC0
     /tmp/ccmoKFXP.s:433    .text:0000000000000228 .L0 
     /tmp/ccmoKFXP.s:396    .rodata.str1.8:0000000000000018 .LC1
     /tmp/ccmoKFXP.s:446    .text:000000000000024c .L0 
     /tmp/ccmoKFXP.s:399    .rodata.str1.8:0000000000000020 .LC2
     /tmp/ccmoKFXP.s:458    .text:000000000000026c .L0 
     /tmp/ccmoKFXP.s:471    .text:0000000000000290 .L0 
     /tmp/ccmoKFXP.s:402    .rodata.str1.8:0000000000000028 .LC3
     /tmp/ccmoKFXP.s:508    .text:00000000000002c8 .L0 
     /tmp/ccmoKFXP.s:520    .text:00000000000002ec .L0 
     /tmp/ccmoKFXP.s:588    .rodata.str1.8:0000000000000040 .LC4
     /tmp/ccmoKFXP.s:631    .text:00000000000003b0 .L0 
     /tmp/ccmoKFXP.s:643    .text:00000000000003d4 .L0 
     /tmp/ccmoKFXP.s:793    .rodata.str1.8:0000000000000058 .LC5
     /tmp/ccmoKFXP.s:827    .text:0000000000000510 .L0 
     /tmp/ccmoKFXP.s:848    .text:0000000000000544 .L0 
     /tmp/ccmoKFXP.s:860    .text:0000000000000568 .L0 
     /tmp/ccmoKFXP.s:796    .rodata.str1.8:0000000000000070 .LC6
     /tmp/ccmoKFXP.s:879    .text:0000000000000590 .L0 
     /tmp/ccmoKFXP.s:891    .text:00000000000005b4 .L0 
     /tmp/ccmoKFXP.s:996    .rodata.str1.8:0000000000000090 .LC7
     /tmp/ccmoKFXP.s:1029   .text:0000000000000690 .L0 
     /tmp/ccmoKFXP.s:999    .rodata.str1.8:00000000000000a0 .LC8
     /tmp/ccmoKFXP.s:1042   .text:00000000000006b4 .L0 
     /tmp/ccmoKFXP.s:1054   .text:00000000000006d8 .L0 
     /tmp/ccmoKFXP.s:1094   .rodata.str1.8:00000000000000a8 .LC9
     /tmp/ccmoKFXP.s:1140   .text:0000000000000744 .L0 
     /tmp/ccmoKFXP.s:1097   .rodata.str1.8:00000000000000e0 .LC10
     /tmp/ccmoKFXP.s:1146   .text:0000000000000754 .L0 
     /tmp/ccmoKFXP.s:1158   .text:0000000000000778 .L0 
     /tmp/ccmoKFXP.s:1100   .rodata.str1.8:00000000000000f8 .LC11
     /tmp/ccmoKFXP.s:1163   .text:0000000000000788 .L0 
     /tmp/ccmoKFXP.s:1175   .text:00000000000007ac .L0 
     /tmp/ccmoKFXP.s:1103   .rodata.str1.8:0000000000000110 .LC12
     /tmp/ccmoKFXP.s:1180   .text:00000000000007bc .L0 
     /tmp/ccmoKFXP.s:1192   .text:00000000000007e0 .L0 
     /tmp/ccmoKFXP.s:1106   .rodata.str1.8:0000000000000130 .LC13
     /tmp/ccmoKFXP.s:1212   .text:0000000000000800 .L0 
     /tmp/ccmoKFXP.s:1224   .text:0000000000000824 .L0 
     /tmp/ccmoKFXP.s:1109   .rodata.str1.8:0000000000000138 .LC14
     /tmp/ccmoKFXP.s:1229   .text:0000000000000834 .L0 
     /tmp/ccmoKFXP.s:1252   .text:000000000000086c .L0 
     /tmp/ccmoKFXP.s:1112   .rodata.str1.8:0000000000000158 .LC15
     /tmp/ccmoKFXP.s:1267   .text:0000000000000884 .L0 
     /tmp/ccmoKFXP.s:109    .text:0000000000000074 .L6
     /tmp/ccmoKFXP.s:95     .text:0000000000000064 .L7
     /tmp/ccmoKFXP.s:161    .text:00000000000000ac .L9
GAS LISTING /tmp/ccmoKFXP.s 			page 42


     /tmp/ccmoKFXP.s:147    .text:000000000000009c .L11
     /tmp/ccmoKFXP.s:222    .text:0000000000000100 .L17
     /tmp/ccmoKFXP.s:212    .text:00000000000000f4 .L13
     /tmp/ccmoKFXP.s:283    .text:000000000000014c .L19
     /tmp/ccmoKFXP.s:273    .text:0000000000000140 .L18
     /tmp/ccmoKFXP.s:377    .text:00000000000001f0 .L26
     /tmp/ccmoKFXP.s:353    .text:00000000000001d0 .L22
     /tmp/ccmoKFXP.s:555    .text:0000000000000348 .L32
     /tmp/ccmoKFXP.s:501    .text:00000000000002c8 .L34
     /tmp/ccmoKFXP.s:479    .text:00000000000002a4 .L31
     /tmp/ccmoKFXP.s:546    .text:0000000000000334 .L35
     /tmp/ccmoKFXP.s:561    .text:000000000000034c .L27
     /tmp/ccmoKFXP.s:533    .text:0000000000000314 .L30
     /tmp/ccmoKFXP.s:674    .text:000000000000040c .L48
     /tmp/ccmoKFXP.s:759    .text:00000000000004b4 .L39
     /tmp/ccmoKFXP.s:682    .text:0000000000000418 .L49
     /tmp/ccmoKFXP.s:657    .text:00000000000003f8 .L46
     /tmp/ccmoKFXP.s:767    .text:00000000000004c8 .L36
     /tmp/ccmoKFXP.s:721    .text:0000000000000468 .L41
     /tmp/ccmoKFXP.s:711    .text:0000000000000454 .L50
     /tmp/ccmoKFXP.s:748    .text:000000000000049c .L44
     /tmp/ccmoKFXP.s:699    .text:0000000000000438 .L42
     /tmp/ccmoKFXP.s:737    .text:0000000000000484 .L51
     /tmp/ccmoKFXP.s:876    .text:0000000000000590 .L53
     /tmp/ccmoKFXP.s:943    .text:0000000000000618 .L57
     /tmp/ccmoKFXP.s:928    .text:00000000000005f8 .L55
     /tmp/ccmoKFXP.s:967    .text:0000000000000644 .L52
     /tmp/ccmoKFXP.s:949    .text:000000000000061c .L54
     /tmp/ccmoKFXP.s:1206   .text:00000000000007fc .L65
     /tmp/ccmoKFXP.s:1262   .text:0000000000000884 .L62
     /tmp/ccmoKFXP.s:1202   .text:00000000000007f8 .L63
     /tmp/ccmoKFXP.s:1239   .text:0000000000000854 .L64
     /tmp/ccmoKFXP.s:3909   .debug_abbrev:0000000000000000 .Ldebug_abbrev0
     /tmp/ccmoKFXP.s:5963   .debug_str:0000000000000c32 .LASF221
     /tmp/ccmoKFXP.s:5989   .debug_str:0000000000000db9 .LASF222
     /tmp/ccmoKFXP.s:5717   .debug_str:00000000000003db .LASF223
     /tmp/ccmoKFXP.s:5      .text:0000000000000000 .Ltext0
     /tmp/ccmoKFXP.s:1290   .text:00000000000008b0 .Letext0
     /tmp/ccmoKFXP.s:5597   .debug_line:0000000000000000 .Ldebug_line0
     /tmp/ccmoKFXP.s:5739   .debug_str:00000000000004ab .LASF0
     /tmp/ccmoKFXP.s:5765   .debug_str:00000000000005b7 .LASF1
     /tmp/ccmoKFXP.s:5883   .debug_str:00000000000009b4 .LASF2
     /tmp/ccmoKFXP.s:5897   .debug_str:0000000000000a27 .LASF4
     /tmp/ccmoKFXP.s:5751   .debug_str:0000000000000520 .LASF3
     /tmp/ccmoKFXP.s:5613   .debug_str:0000000000000071 .LASF5
     /tmp/ccmoKFXP.s:5847   .debug_str:0000000000000877 .LASF6
     /tmp/ccmoKFXP.s:5757   .debug_str:0000000000000568 .LASF7
     /tmp/ccmoKFXP.s:5715   .debug_str:00000000000003cb .LASF8
     /tmp/ccmoKFXP.s:5723   .debug_str:000000000000042f .LASF9
     /tmp/ccmoKFXP.s:5653   .debug_str:0000000000000201 .LASF10
     /tmp/ccmoKFXP.s:5707   .debug_str:0000000000000393 .LASF11
     /tmp/ccmoKFXP.s:5665   .debug_str:000000000000023b .LASF12
     /tmp/ccmoKFXP.s:5651   .debug_str:00000000000001f1 .LASF13
     /tmp/ccmoKFXP.s:5941   .debug_str:0000000000000bd0 .LASF14
     /tmp/ccmoKFXP.s:5691   .debug_str:00000000000002f2 .LASF15
     /tmp/ccmoKFXP.s:5927   .debug_str:0000000000000b27 .LASF16
     /tmp/ccmoKFXP.s:5737   .debug_str:00000000000004a5 .LASF17
GAS LISTING /tmp/ccmoKFXP.s 			page 43


     /tmp/ccmoKFXP.s:5953   .debug_str:0000000000000c0a .LASF18
     /tmp/ccmoKFXP.s:5851   .debug_str:0000000000000892 .LASF19
     /tmp/ccmoKFXP.s:5655   .debug_str:0000000000000210 .LASF21
     /tmp/ccmoKFXP.s:5877   .debug_str:0000000000000987 .LASF20
     /tmp/ccmoKFXP.s:5949   .debug_str:0000000000000bfe .LASF22
     /tmp/ccmoKFXP.s:5775   .debug_str:0000000000000603 .LASF23
     /tmp/ccmoKFXP.s:5787   .debug_str:000000000000066b .LASF24
     /tmp/ccmoKFXP.s:5795   .debug_str:000000000000069d .LASF25
     /tmp/ccmoKFXP.s:5961   .debug_str:0000000000000c28 .LASF26
     /tmp/ccmoKFXP.s:5987   .debug_str:0000000000000da9 .LASF27
     /tmp/ccmoKFXP.s:5769   .debug_str:00000000000005d5 .LASF28
     /tmp/ccmoKFXP.s:5699   .debug_str:000000000000033e .LASF29
     /tmp/ccmoKFXP.s:5957   .debug_str:0000000000000c1a .LASF224
     /tmp/ccmoKFXP.s:5951   .debug_str:0000000000000c04 .LASF30
     /tmp/ccmoKFXP.s:5915   .debug_str:0000000000000abb .LASF31
     /tmp/ccmoKFXP.s:5661   .debug_str:0000000000000227 .LASF32
     /tmp/ccmoKFXP.s:5637   .debug_str:0000000000000155 .LASF33
     /tmp/ccmoKFXP.s:5849   .debug_str:000000000000088a .LASF34
     /tmp/ccmoKFXP.s:5659   .debug_str:000000000000021e .LASF35
     /tmp/ccmoKFXP.s:5947   .debug_str:0000000000000bf6 .LASF36
     /tmp/ccmoKFXP.s:5733   .debug_str:000000000000048f .LASF37
     /tmp/ccmoKFXP.s:5615   .debug_str:0000000000000078 .LASF43
     /tmp/ccmoKFXP.s:5977   .debug_str:0000000000000d4e .LASF225
     /tmp/ccmoKFXP.s:5837   .debug_str:0000000000000827 .LASF38
     /tmp/ccmoKFXP.s:5763   .debug_str:00000000000005b2 .LASF39
     /tmp/ccmoKFXP.s:6033   .debug_str:0000000000000efc .LASF41
     /tmp/ccmoKFXP.s:6029   .debug_str:0000000000000ee0 .LASF40
     /tmp/ccmoKFXP.s:5965   .debug_str:0000000000000cf6 .LASF42
     /tmp/ccmoKFXP.s:5679   .debug_str:00000000000002bc .LASF66
     /tmp/ccmoKFXP.s:5621   .debug_str:00000000000000b1 .LASF68
     /tmp/ccmoKFXP.s:5959   .debug_str:0000000000000c20 .LASF44
     /tmp/ccmoKFXP.s:5905   .debug_str:0000000000000a66 .LASF45
     /tmp/ccmoKFXP.s:5771   .debug_str:00000000000005de .LASF48
     /tmp/ccmoKFXP.s:5779   .debug_str:0000000000000624 .LASF50
     /tmp/ccmoKFXP.s:6041   .debug_str:0000000000000f4a .LASF46
     /tmp/ccmoKFXP.s:5695   .debug_str:000000000000032c .LASF47
     /tmp/ccmoKFXP.s:5609   .debug_str:0000000000000059 .LASF92
     /tmp/ccmoKFXP.s:5747   .debug_str:00000000000004e9 .LASF94
     /tmp/ccmoKFXP.s:5907   .debug_str:0000000000000a77 .LASF49
     /tmp/ccmoKFXP.s:5813   .debug_str:000000000000072c .LASF51
     /tmp/ccmoKFXP.s:5891   .debug_str:00000000000009ed .LASF52
     /tmp/ccmoKFXP.s:5935   .debug_str:0000000000000b71 .LASF53
     /tmp/ccmoKFXP.s:5815   .debug_str:000000000000073f .LASF54
     /tmp/ccmoKFXP.s:5603   .debug_str:000000000000001b .LASF55
     /tmp/ccmoKFXP.s:6017   .debug_str:0000000000000e8d .LASF56
     /tmp/ccmoKFXP.s:5845   .debug_str:000000000000085d .LASF57
     /tmp/ccmoKFXP.s:5925   .debug_str:0000000000000b19 .LASF58
     /tmp/ccmoKFXP.s:5861   .debug_str:00000000000008e8 .LASF59
     /tmp/ccmoKFXP.s:5675   .debug_str:00000000000002a2 .LASF60
     /tmp/ccmoKFXP.s:5709   .debug_str:00000000000003a2 .LASF61
     /tmp/ccmoKFXP.s:5879   .debug_str:0000000000000992 .LASF62
     /tmp/ccmoKFXP.s:6019   .debug_str:0000000000000e9c .LASF63
     /tmp/ccmoKFXP.s:6021   .debug_str:0000000000000eab .LASF64
     /tmp/ccmoKFXP.s:5753   .debug_str:0000000000000532 .LASF65
     /tmp/ccmoKFXP.s:5921   .debug_str:0000000000000afc .LASF67
     /tmp/ccmoKFXP.s:6031   .debug_str:0000000000000ee6 .LASF69
     /tmp/ccmoKFXP.s:5725   .debug_str:000000000000043d .LASF70
GAS LISTING /tmp/ccmoKFXP.s 			page 44


     /tmp/ccmoKFXP.s:5671   .debug_str:0000000000000281 .LASF71
     /tmp/ccmoKFXP.s:5903   .debug_str:0000000000000a5e .LASF72
     /tmp/ccmoKFXP.s:5741   .debug_str:00000000000004b8 .LASF73
     /tmp/ccmoKFXP.s:5825   .debug_str:0000000000000783 .LASF74
     /tmp/ccmoKFXP.s:5669   .debug_str:000000000000026f .LASF75
     /tmp/ccmoKFXP.s:5869   .debug_str:000000000000093a .LASF76
     /tmp/ccmoKFXP.s:6049   .debug_str:0000000000000f81 .LASF77
     /tmp/ccmoKFXP.s:5827   .debug_str:00000000000007a2 .LASF78
     /tmp/ccmoKFXP.s:5889   .debug_str:00000000000009da .LASF79
     /tmp/ccmoKFXP.s:5909   .debug_str:0000000000000a80 .LASF80
     /tmp/ccmoKFXP.s:5995   .debug_str:0000000000000de1 .LASF81
     /tmp/ccmoKFXP.s:5799   .debug_str:00000000000006bd .LASF82
     /tmp/ccmoKFXP.s:5979   .debug_str:0000000000000d66 .LASF83
     /tmp/ccmoKFXP.s:5933   .debug_str:0000000000000b51 .LASF84
     /tmp/ccmoKFXP.s:5841   .debug_str:0000000000000836 .LASF85
     /tmp/ccmoKFXP.s:5829   .debug_str:00000000000007c3 .LASF86
     /tmp/ccmoKFXP.s:5685   .debug_str:00000000000002d0 .LASF87
     /tmp/ccmoKFXP.s:5745   .debug_str:00000000000004de .LASF88
     /tmp/ccmoKFXP.s:5803   .debug_str:00000000000006fa .LASF89
     /tmp/ccmoKFXP.s:5967   .debug_str:0000000000000d06 .LASF90
     /tmp/ccmoKFXP.s:5711   .debug_str:00000000000003b2 .LASF91
     /tmp/ccmoKFXP.s:6027   .debug_str:0000000000000ed2 .LASF93
     /tmp/ccmoKFXP.s:5629   .debug_str:0000000000000100 .LASF95
     /tmp/ccmoKFXP.s:5701   .debug_str:0000000000000345 .LASF96
     /tmp/ccmoKFXP.s:5647   .debug_str:00000000000001ba .LASF97
     /tmp/ccmoKFXP.s:6015   .debug_str:0000000000000e86 .LASF98
     /tmp/ccmoKFXP.s:5645   .debug_str:00000000000001a9 .LASF99
     /tmp/ccmoKFXP.s:5607   .debug_str:0000000000000054 .LASF100
     /tmp/ccmoKFXP.s:5991   .debug_str:0000000000000dd0 .LASF101
     /tmp/ccmoKFXP.s:5783   .debug_str:0000000000000656 .LASF102
     /tmp/ccmoKFXP.s:5683   .debug_str:00000000000002ca .LASF103
     /tmp/ccmoKFXP.s:5975   .debug_str:0000000000000d46 .LASF104
     /tmp/ccmoKFXP.s:5635   .debug_str:0000000000000144 .LASF105
     /tmp/ccmoKFXP.s:5793   .debug_str:0000000000000698 .LASF106
     /tmp/ccmoKFXP.s:5875   .debug_str:000000000000097c .LASF107
     /tmp/ccmoKFXP.s:5721   .debug_str:000000000000041b .LASF108
     /tmp/ccmoKFXP.s:5885   .debug_str:00000000000009c2 .LASF109
     /tmp/ccmoKFXP.s:5873   .debug_str:0000000000000968 .LASF110
     /tmp/ccmoKFXP.s:5681   .debug_str:00000000000002c5 .LASF111
     /tmp/ccmoKFXP.s:5919   .debug_str:0000000000000ae5 .LASF112
     /tmp/ccmoKFXP.s:5945   .debug_str:0000000000000bef .LASF113
     /tmp/ccmoKFXP.s:5819   .debug_str:0000000000000757 .LASF114
     /tmp/ccmoKFXP.s:5601   .debug_str:000000000000000f .LASF115
     /tmp/ccmoKFXP.s:5887   .debug_str:00000000000009ce .LASF116
     /tmp/ccmoKFXP.s:5797   .debug_str:00000000000006a9 .LASF117
     /tmp/ccmoKFXP.s:5881   .debug_str:000000000000099f .LASF118
     /tmp/ccmoKFXP.s:5657   .debug_str:0000000000000215 .LASF119
     /tmp/ccmoKFXP.s:5663   .debug_str:0000000000000231 .LASF120
     /tmp/ccmoKFXP.s:5817   .debug_str:000000000000074e .LASF121
     /tmp/ccmoKFXP.s:5895   .debug_str:0000000000000a1c .LASF122
     /tmp/ccmoKFXP.s:5599   .debug_str:0000000000000000 .LASF123
     /tmp/ccmoKFXP.s:5729   .debug_str:0000000000000459 .LASF124
     /tmp/ccmoKFXP.s:5973   .debug_str:0000000000000d37 .LASF125
     /tmp/ccmoKFXP.s:5939   .debug_str:0000000000000bae .LASF126
     /tmp/ccmoKFXP.s:5911   .debug_str:0000000000000a9e .LASF127
     /tmp/ccmoKFXP.s:5667   .debug_str:000000000000024b .LASF128
     /tmp/ccmoKFXP.s:5835   .debug_str:0000000000000817 .LASF129
GAS LISTING /tmp/ccmoKFXP.s 			page 45


     /tmp/ccmoKFXP.s:5865   .debug_str:0000000000000906 .LASF130
     /tmp/ccmoKFXP.s:6043   .debug_str:0000000000000f57 .LASF131
     /tmp/ccmoKFXP.s:5611   .debug_str:0000000000000069 .LASF132
     /tmp/ccmoKFXP.s:5781   .debug_str:000000000000063c .LASF133
     /tmp/ccmoKFXP.s:6039   .debug_str:0000000000000f3a .LASF134
     /tmp/ccmoKFXP.s:5899   .debug_str:0000000000000a2e .LASF135
     /tmp/ccmoKFXP.s:5943   .debug_str:0000000000000bdc .LASF136
     /tmp/ccmoKFXP.s:5893   .debug_str:00000000000009f6 .LASF137
     /tmp/ccmoKFXP.s:6045   .debug_str:0000000000000f6f .LASF138
     /tmp/ccmoKFXP.s:5761   .debug_str:000000000000058e .LASF139
     /tmp/ccmoKFXP.s:5821   .debug_str:0000000000000770 .LASF140
     /tmp/ccmoKFXP.s:5633   .debug_str:0000000000000134 .LASF141
     /tmp/ccmoKFXP.s:5969   .debug_str:0000000000000d10 .LASF142
     /tmp/ccmoKFXP.s:5901   .debug_str:0000000000000a51 .LASF143
     /tmp/ccmoKFXP.s:5605   .debug_str:0000000000000035 .LASF144
     /tmp/ccmoKFXP.s:5843   .debug_str:000000000000084a .LASF145
     /tmp/ccmoKFXP.s:5731   .debug_str:000000000000047b .LASF146
     /tmp/ccmoKFXP.s:5839   .debug_str:000000000000082c .LASF147
     /tmp/ccmoKFXP.s:5767   .debug_str:00000000000005ca .LASF148
     /tmp/ccmoKFXP.s:5859   .debug_str:00000000000008de .LASF149
     /tmp/ccmoKFXP.s:5997   .debug_str:0000000000000df4 .LASF150
     /tmp/ccmoKFXP.s:5955   .debug_str:0000000000000c0f .LASF151
     /tmp/ccmoKFXP.s:5993   .debug_str:0000000000000dd5 .LASF152
     /tmp/ccmoKFXP.s:6005   .debug_str:0000000000000e1d .LASF153
     /tmp/ccmoKFXP.s:5805   .debug_str:0000000000000702 .LASF154
     /tmp/ccmoKFXP.s:5857   .debug_str:00000000000008d2 .LASF155
     /tmp/ccmoKFXP.s:5923   .debug_str:0000000000000b07 .LASF158
     /tmp/ccmoKFXP.s:5917   .debug_str:0000000000000ac3 .LASF160
     /tmp/ccmoKFXP.s:5985   .debug_str:0000000000000d97 .LASF156
     /tmp/ccmoKFXP.s:6013   .debug_str:0000000000000e64 .LASF157
     /tmp/ccmoKFXP.s:5983   .debug_str:0000000000000d85 .LASF159
     /tmp/ccmoKFXP.s:5617   .debug_str:0000000000000083 .LASF161
     /tmp/ccmoKFXP.s:5759   .debug_str:000000000000057b .LASF162
     /tmp/ccmoKFXP.s:5643   .debug_str:0000000000000186 .LASF163
     /tmp/ccmoKFXP.s:5689   .debug_str:00000000000002df .LASF164
     /tmp/ccmoKFXP.s:5639   .debug_str:000000000000015e .LASF165
     /tmp/ccmoKFXP.s:5623   .debug_str:00000000000000c4 .LASF166
     /tmp/ccmoKFXP.s:6003   .debug_str:0000000000000e0e .LASF167
     /tmp/ccmoKFXP.s:5801   .debug_str:00000000000006db .LASF168
     /tmp/ccmoKFXP.s:6011   .debug_str:0000000000000e4b .LASF169
     /tmp/ccmoKFXP.s:5755   .debug_str:000000000000053f .LASF170
     /tmp/ccmoKFXP.s:5773   .debug_str:00000000000005eb .LASF171
     /tmp/ccmoKFXP.s:6035   .debug_str:0000000000000f08 .LASF172
     /tmp/ccmoKFXP.s:5705   .debug_str:0000000000000382 .LASF173
     /tmp/ccmoKFXP.s:6009   .debug_str:0000000000000e39 .LASF174
     /tmp/ccmoKFXP.s:5713   .debug_str:00000000000003be .LASF175
     /tmp/ccmoKFXP.s:6023   .debug_str:0000000000000eb6 .LASF176
     /tmp/ccmoKFXP.s:5727   .debug_str:0000000000000448 .LASF177
     /tmp/ccmoKFXP.s:5619   .debug_str:00000000000000a5 .LASF178
     /tmp/ccmoKFXP.s:5777   .debug_str:0000000000000608 .LASF179
     /tmp/ccmoKFXP.s:5791   .debug_str:000000000000068c .LASF180
     /tmp/ccmoKFXP.s:5625   .debug_str:00000000000000df .LASF181
     /tmp/ccmoKFXP.s:6025   .debug_str:0000000000000ec3 .LASF187
     /tmp/ccmoKFXP.s:5693   .debug_str:0000000000000308 .LASF189
     /tmp/ccmoKFXP.s:1119   .text:0000000000000724 .LFB16
     /tmp/ccmoKFXP.s:1288   .text:00000000000008b0 .LFE16
     /tmp/ccmoKFXP.s:5809   .debug_str:000000000000071b .LASF183
GAS LISTING /tmp/ccmoKFXP.s 			page 46


     /tmp/ccmoKFXP.s:4769   .debug_loc:0000000000000000 .LLST41
     /tmp/ccmoKFXP.s:1196   .text:00000000000007f0 .LBB12
     /tmp/ccmoKFXP.s:1264   .text:0000000000000884 .LBE12
     /tmp/ccmoKFXP.s:4787   .debug_loc:000000000000004c .LLST42
     /tmp/ccmoKFXP.s:1209   .text:0000000000000800 .LBB13
     /tmp/ccmoKFXP.s:1263   .text:0000000000000884 .LBE13
     /tmp/ccmoKFXP.s:6047   .debug_str:0000000000000f7c .LASF182
     /tmp/ccmoKFXP.s:4794   .debug_loc:000000000000006f .LLST43
     /tmp/ccmoKFXP.s:1214   .text:0000000000000810 .LVL152
     /tmp/ccmoKFXP.s:1221   .text:0000000000000824 .LVL153
     /tmp/ccmoKFXP.s:1226   .text:0000000000000834 .LVL154
     /tmp/ccmoKFXP.s:1231   .text:0000000000000844 .LVL155
     /tmp/ccmoKFXP.s:1249   .text:000000000000086c .LVL157
     /tmp/ccmoKFXP.s:1254   .text:000000000000087c .LVL158
     /tmp/ccmoKFXP.s:1143   .text:0000000000000754 .LVL139
     /tmp/ccmoKFXP.s:1148   .text:0000000000000764 .LVL140
     /tmp/ccmoKFXP.s:1155   .text:0000000000000778 .LVL141
     /tmp/ccmoKFXP.s:1160   .text:0000000000000788 .LVL142
     /tmp/ccmoKFXP.s:1165   .text:0000000000000798 .LVL143
     /tmp/ccmoKFXP.s:1172   .text:00000000000007ac .LVL144
     /tmp/ccmoKFXP.s:1177   .text:00000000000007bc .LVL145
     /tmp/ccmoKFXP.s:1182   .text:00000000000007cc .LVL146
     /tmp/ccmoKFXP.s:1189   .text:00000000000007e0 .LVL147
     /tmp/ccmoKFXP.s:1194   .text:00000000000007f0 .LVL148
     /tmp/ccmoKFXP.s:1269   .text:0000000000000894 .LVL161
     /tmp/ccmoKFXP.s:5863   .debug_str:00000000000008f4 .LASF196
     /tmp/ccmoKFXP.s:5749   .debug_str:00000000000004f6 .LASF198
     /tmp/ccmoKFXP.s:242    .text:0000000000000118 .LFB15
     /tmp/ccmoKFXP.s:291    .text:0000000000000154 .LFE15
     /tmp/ccmoKFXP.s:4805   .debug_loc:00000000000000a5 .LLST10
     /tmp/ccmoKFXP.s:5641   .debug_str:0000000000000181 .LASF184
     /tmp/ccmoKFXP.s:5687   .debug_str:00000000000002d9 .LASF185
     /tmp/ccmoKFXP.s:4830   .debug_loc:0000000000000107 .LLST11
     /tmp/ccmoKFXP.s:5971   .debug_str:0000000000000d32 .LASF186
     /tmp/ccmoKFXP.s:4844   .debug_loc:0000000000000140 .LLST12
     /tmp/ccmoKFXP.s:5735   .debug_str:0000000000000495 .LASF188
     /tmp/ccmoKFXP.s:5703   .debug_str:000000000000035a .LASF190
     /tmp/ccmoKFXP.s:176    .text:00000000000000b8 .LFB14
     /tmp/ccmoKFXP.s:236    .text:0000000000000118 .LFE14
     /tmp/ccmoKFXP.s:4897   .debug_loc:00000000000001cd .LLST9
     /tmp/ccmoKFXP.s:6037   .debug_str:0000000000000f31 .LASF191
     /tmp/ccmoKFXP.s:5823   .debug_str:0000000000000779 .LASF192
     /tmp/ccmoKFXP.s:5937   .debug_str:0000000000000b8d .LASF193
     /tmp/ccmoKFXP.s:595    .text:0000000000000370 .LFB13
     /tmp/ccmoKFXP.s:789    .text:00000000000004e8 .LFE13
     /tmp/ccmoKFXP.s:4934   .debug_loc:0000000000000259 .LLST24
     /tmp/ccmoKFXP.s:4960   .debug_loc:00000000000002cb .LLST25
     /tmp/ccmoKFXP.s:4986   .debug_loc:000000000000033d .LLST26
     /tmp/ccmoKFXP.s:6007   .debug_str:0000000000000e2a .LASF194
     /tmp/ccmoKFXP.s:5012   .debug_loc:00000000000003af .LLST27
     /tmp/ccmoKFXP.s:5023   .debug_loc:00000000000003e5 .LLST28
     /tmp/ccmoKFXP.s:5627   .debug_str:00000000000000fb .LASF195
     /tmp/ccmoKFXP.s:5059   .debug_loc:000000000000048e .LLST29
     /tmp/ccmoKFXP.s:626    .text:00000000000003ac .LVL67
     /tmp/ccmoKFXP.s:633    .text:00000000000003c0 .LVL69
     /tmp/ccmoKFXP.s:640    .text:00000000000003d4 .LVL70
     /tmp/ccmoKFXP.s:645    .text:00000000000003e4 .LVL71
GAS LISTING /tmp/ccmoKFXP.s 			page 47


     /tmp/ccmoKFXP.s:678    .text:0000000000000414 .LVL77
     /tmp/ccmoKFXP.s:708    .text:0000000000000450 .LVL80
     /tmp/ccmoKFXP.s:755    .text:00000000000004b0 .LVL88
     /tmp/ccmoKFXP.s:766    .text:00000000000004c8 .LVL90
     /tmp/ccmoKFXP.s:5631   .debug_str:0000000000000128 .LASF197
     /tmp/ccmoKFXP.s:5867   .debug_str:0000000000000929 .LASF199
     /tmp/ccmoKFXP.s:127    .text:0000000000000084 .LFB12
     /tmp/ccmoKFXP.s:170    .text:00000000000000b8 .LFE12
     /tmp/ccmoKFXP.s:5091   .debug_loc:0000000000000524 .LLST6
     /tmp/ccmoKFXP.s:5102   .debug_loc:000000000000055a .LLST7
     /tmp/ccmoKFXP.s:5114   .debug_loc:0000000000000591 .LLST8
     /tmp/ccmoKFXP.s:5785   .debug_str:000000000000065e .LASF200
     /tmp/ccmoKFXP.s:5855   .debug_str:00000000000008c0 .LASF201
     /tmp/ccmoKFXP.s:77     .text:0000000000000050 .LFB11
     /tmp/ccmoKFXP.s:121    .text:0000000000000084 .LFE11
     /tmp/ccmoKFXP.s:5126   .debug_loc:00000000000005c8 .LLST3
     /tmp/ccmoKFXP.s:5140   .debug_loc:0000000000000601 .LLST4
     /tmp/ccmoKFXP.s:5152   .debug_loc:0000000000000638 .LLST5
     /tmp/ccmoKFXP.s:5871   .debug_str:0000000000000957 .LASF202
     /tmp/ccmoKFXP.s:5831   .debug_str:00000000000007e2 .LASF203
     /tmp/ccmoKFXP.s:41     .text:0000000000000020 .LFB10
     /tmp/ccmoKFXP.s:71     .text:0000000000000050 .LFE10
     /tmp/ccmoKFXP.s:5164   .debug_loc:000000000000066f .LLST1
     /tmp/ccmoKFXP.s:5677   .debug_str:00000000000002b2 .LASF204
     /tmp/ccmoKFXP.s:5178   .debug_loc:00000000000006a8 .LLST2
     /tmp/ccmoKFXP.s:56     .text:0000000000000038 .LVL4
     /tmp/ccmoKFXP.s:5807   .debug_str:000000000000070e .LASF205
     /tmp/ccmoKFXP.s:5743   .debug_str:00000000000004cc .LASF206
     /tmp/ccmoKFXP.s:10     .text:0000000000000000 .LFB9
     /tmp/ccmoKFXP.s:35     .text:0000000000000020 .LFE9
     /tmp/ccmoKFXP.s:5191   .debug_loc:00000000000006e1 .LLST0
     /tmp/ccmoKFXP.s:6001   .debug_str:0000000000000e09 .LASF207
     /tmp/ccmoKFXP.s:5673   .debug_str:0000000000000297 .LASF208
     /tmp/ccmoKFXP.s:5853   .debug_str:000000000000089d .LASF209
     /tmp/ccmoKFXP.s:1006   .text:0000000000000668 .LFB8
     /tmp/ccmoKFXP.s:1090   .text:0000000000000724 .LFE8
     /tmp/ccmoKFXP.s:5205   .debug_loc:000000000000071a .LLST37
     /tmp/ccmoKFXP.s:5223   .debug_loc:0000000000000766 .LLST38
     /tmp/ccmoKFXP.s:5241   .debug_loc:00000000000007b2 .LLST39
     /tmp/ccmoKFXP.s:5259   .debug_loc:00000000000007fe .LLST40
     /tmp/ccmoKFXP.s:1032   .text:00000000000006a0 .LVL125
     /tmp/ccmoKFXP.s:1039   .text:00000000000006b4 .LVL126
     /tmp/ccmoKFXP.s:1044   .text:00000000000006c4 .LVL127
     /tmp/ccmoKFXP.s:1051   .text:00000000000006d8 .LVL128
     /tmp/ccmoKFXP.s:1056   .text:00000000000006e8 .LVL129
     /tmp/ccmoKFXP.s:1061   .text:00000000000006f4 .LVL130
     /tmp/ccmoKFXP.s:1070   .text:0000000000000708 .LVL133
     /tmp/ccmoKFXP.s:5697   .debug_str:0000000000000338 .LASF210
     /tmp/ccmoKFXP.s:5833   .debug_str:00000000000007f8 .LASF211
     /tmp/ccmoKFXP.s:297    .text:0000000000000154 .LFB7
     /tmp/ccmoKFXP.s:389    .text:0000000000000200 .LFE7
     /tmp/ccmoKFXP.s:5270   .debug_loc:0000000000000834 .LLST13
     /tmp/ccmoKFXP.s:5296   .debug_loc:00000000000008a6 .LLST14
     /tmp/ccmoKFXP.s:5811   .debug_str:0000000000000721 .LASF212
     /tmp/ccmoKFXP.s:5322   .debug_loc:0000000000000918 .LLST15
     /tmp/ccmoKFXP.s:5931   .debug_str:0000000000000b47 .LASF213
     /tmp/ccmoKFXP.s:5351   .debug_loc:000000000000098d .LLST16
GAS LISTING /tmp/ccmoKFXP.s 			page 48


     /tmp/ccmoKFXP.s:5981   .debug_str:0000000000000d7b .LASF214
     /tmp/ccmoKFXP.s:5382   .debug_loc:0000000000000a04 .LLST17
     /tmp/ccmoKFXP.s:323    .text:0000000000000184 .LBB3
     /tmp/ccmoKFXP.s:354    .text:00000000000001d0 .LBE3
     /tmp/ccmoKFXP.s:5407   .debug_loc:0000000000000a66 .LLST18
     /tmp/ccmoKFXP.s:332    .text:0000000000000198 .LVL34
     /tmp/ccmoKFXP.s:343    .text:00000000000001b4 .LVL37
     /tmp/ccmoKFXP.s:352    .text:00000000000001d0 .LVL38
     /tmp/ccmoKFXP.s:385    .text:00000000000001fc .LVL43
     /tmp/ccmoKFXP.s:5913   .debug_str:0000000000000aaf .LASF215
     /tmp/ccmoKFXP.s:5719   .debug_str:00000000000003f9 .LASF216
     /tmp/ccmoKFXP.s:409    .text:0000000000000200 .LFB6
     /tmp/ccmoKFXP.s:584    .text:0000000000000370 .LFE6
     /tmp/ccmoKFXP.s:5418   .debug_loc:0000000000000a9c .LLST19
     /tmp/ccmoKFXP.s:5436   .debug_loc:0000000000000ae8 .LLST20
     /tmp/ccmoKFXP.s:5454   .debug_loc:0000000000000b34 .LLST21
     /tmp/ccmoKFXP.s:5589   .debug_ranges:0000000000000000 .Ldebug_ranges0
     /tmp/ccmoKFXP.s:5465   .debug_loc:0000000000000b6a .LLST22
     /tmp/ccmoKFXP.s:503    .text:00000000000002c8 .LBB7
     /tmp/ccmoKFXP.s:556    .text:0000000000000348 .LBE7
     /tmp/ccmoKFXP.s:5476   .debug_loc:0000000000000ba0 .LLST23
     /tmp/ccmoKFXP.s:510    .text:00000000000002d8 .LVL58
     /tmp/ccmoKFXP.s:517    .text:00000000000002ec .LVL59
     /tmp/ccmoKFXP.s:522    .text:00000000000002fc .LVL60
     /tmp/ccmoKFXP.s:542    .text:0000000000000330 .LVL61
     /tmp/ccmoKFXP.s:436    .text:0000000000000238 .LVL46
     /tmp/ccmoKFXP.s:443    .text:000000000000024c .LVL47
     /tmp/ccmoKFXP.s:448    .text:000000000000025c .LVL48
     /tmp/ccmoKFXP.s:453    .text:0000000000000268 .LVL49
     /tmp/ccmoKFXP.s:461    .text:000000000000027c .LVL52
     /tmp/ccmoKFXP.s:468    .text:0000000000000290 .LVL53
     /tmp/ccmoKFXP.s:473    .text:00000000000002a0 .LVL54
     /tmp/ccmoKFXP.s:5649   .debug_str:00000000000001e6 .LASF217
     /tmp/ccmoKFXP.s:5789   .debug_str:000000000000067a .LASF218
     /tmp/ccmoKFXP.s:803    .text:00000000000004e8 .LFB5
     /tmp/ccmoKFXP.s:992    .text:0000000000000668 .LFE5
     /tmp/ccmoKFXP.s:5483   .debug_loc:0000000000000bc3 .LLST30
     /tmp/ccmoKFXP.s:5501   .debug_loc:0000000000000c0f .LLST31
     /tmp/ccmoKFXP.s:5999   .debug_str:0000000000000dff .LASF219
     /tmp/ccmoKFXP.s:5512   .debug_loc:0000000000000c45 .LLST32
     /tmp/ccmoKFXP.s:5929   .debug_str:0000000000000b3d .LASF220
     /tmp/ccmoKFXP.s:5523   .debug_loc:0000000000000c7b .LLST33
     /tmp/ccmoKFXP.s:5542   .debug_loc:0000000000000cd7 .LLST34
     /tmp/ccmoKFXP.s:924    .text:00000000000005f4 .LBB10
     /tmp/ccmoKFXP.s:944    .text:0000000000000618 .LBE10
     /tmp/ccmoKFXP.s:5557   .debug_loc:0000000000000d20 .LLST35
     /tmp/ccmoKFXP.s:945    .text:0000000000000618 .LBB11
     /tmp/ccmoKFXP.s:968    .text:0000000000000644 .LBE11
     /tmp/ccmoKFXP.s:5569   .debug_loc:0000000000000d57 .LLST36
     /tmp/ccmoKFXP.s:962    .text:000000000000063c .LVL117
     /tmp/ccmoKFXP.s:830    .text:0000000000000520 .LVL96
     /tmp/ccmoKFXP.s:836    .text:0000000000000530 .LVL97
     /tmp/ccmoKFXP.s:845    .text:0000000000000544 .LVL99
     /tmp/ccmoKFXP.s:850    .text:0000000000000554 .LVL100
     /tmp/ccmoKFXP.s:857    .text:0000000000000568 .LVL101
     /tmp/ccmoKFXP.s:862    .text:0000000000000578 .LVL102
     /tmp/ccmoKFXP.s:869    .text:0000000000000588 .LVL103
GAS LISTING /tmp/ccmoKFXP.s 			page 49


     /tmp/ccmoKFXP.s:881    .text:00000000000005a0 .LVL106
     /tmp/ccmoKFXP.s:888    .text:00000000000005b4 .LVL107
     /tmp/ccmoKFXP.s:893    .text:00000000000005c4 .LVL108
     /tmp/ccmoKFXP.s:906    .text:00000000000005d8 .LVL111
     /tmp/ccmoKFXP.s:919    .text:00000000000005f0 .LVL112
     /tmp/ccmoKFXP.s:1122   .text:0000000000000724 .LVL137
     /tmp/ccmoKFXP.s:1141   .text:000000000000074c .LVL138
     /tmp/ccmoKFXP.s:1283   .text:00000000000008a8 .LVL163
     /tmp/ccmoKFXP.s:1199   .text:00000000000007f4 .LVL149
     /tmp/ccmoKFXP.s:1280   .text:00000000000008a4 .LVL162
     /tmp/ccmoKFXP.s:1201   .text:00000000000007f8 .LVL150
     /tmp/ccmoKFXP.s:1205   .text:00000000000007fc .LVL151
     /tmp/ccmoKFXP.s:1238   .text:0000000000000854 .LVL156
     /tmp/ccmoKFXP.s:1261   .text:0000000000000884 .LVL160
     /tmp/ccmoKFXP.s:245    .text:0000000000000118 .LVL25
     /tmp/ccmoKFXP.s:272    .text:0000000000000140 .LVL29
     /tmp/ccmoKFXP.s:282    .text:000000000000014c .LVL30
     /tmp/ccmoKFXP.s:288    .text:0000000000000150 .LVL31
     /tmp/ccmoKFXP.s:256    .text:000000000000012c .LVL26
     /tmp/ccmoKFXP.s:262    .text:0000000000000134 .LVL27
     /tmp/ccmoKFXP.s:266    .text:0000000000000138 .LVL28
     /tmp/ccmoKFXP.s:179    .text:00000000000000b8 .LVL18
     /tmp/ccmoKFXP.s:202    .text:00000000000000e0 .LVL20
     /tmp/ccmoKFXP.s:204    .text:00000000000000e4 .LVL21
     /tmp/ccmoKFXP.s:221    .text:0000000000000100 .LVL22
     /tmp/ccmoKFXP.s:227    .text:0000000000000104 .LVL23
     /tmp/ccmoKFXP.s:229    .text:0000000000000108 .LVL24
     /tmp/ccmoKFXP.s:598    .text:0000000000000370 .LVL66
     /tmp/ccmoKFXP.s:673    .text:000000000000040c .LVL76
     /tmp/ccmoKFXP.s:778    .text:00000000000004d8 .LVL91
     /tmp/ccmoKFXP.s:784    .text:00000000000004e0 .LVL93
     /tmp/ccmoKFXP.s:781    .text:00000000000004dc .LVL92
     /tmp/ccmoKFXP.s:628    .text:00000000000003b0 .LVL68
     /tmp/ccmoKFXP.s:681    .text:0000000000000418 .LVL78
     /tmp/ccmoKFXP.s:652    .text:00000000000003f4 .LVL72
     /tmp/ccmoKFXP.s:664    .text:0000000000000400 .LVL74
     /tmp/ccmoKFXP.s:670    .text:0000000000000408 .LVL75
     /tmp/ccmoKFXP.s:698    .text:0000000000000438 .LVL79
     /tmp/ccmoKFXP.s:710    .text:0000000000000454 .LVL81
     /tmp/ccmoKFXP.s:715    .text:0000000000000458 .LVL82
     /tmp/ccmoKFXP.s:720    .text:0000000000000468 .LVL83
     /tmp/ccmoKFXP.s:731    .text:0000000000000474 .LVL85
     /tmp/ccmoKFXP.s:736    .text:0000000000000484 .LVL86
     /tmp/ccmoKFXP.s:741    .text:0000000000000488 .LVL87
     /tmp/ccmoKFXP.s:758    .text:00000000000004b4 .LVL89
     /tmp/ccmoKFXP.s:656    .text:00000000000003f8 .LVL73
     /tmp/ccmoKFXP.s:725    .text:000000000000046c .LVL84
     /tmp/ccmoKFXP.s:130    .text:0000000000000084 .LVL12
     /tmp/ccmoKFXP.s:143    .text:0000000000000098 .LVL14
     /tmp/ccmoKFXP.s:139    .text:0000000000000094 .LVL13
     /tmp/ccmoKFXP.s:146    .text:000000000000009c .LVL15
     /tmp/ccmoKFXP.s:80     .text:0000000000000050 .LVL6
     /tmp/ccmoKFXP.s:113    .text:0000000000000078 .LVL11
     /tmp/ccmoKFXP.s:88     .text:000000000000005c .LVL7
     /tmp/ccmoKFXP.s:94     .text:0000000000000064 .LVL8
     /tmp/ccmoKFXP.s:44     .text:0000000000000020 .LVL3
     /tmp/ccmoKFXP.s:61     .text:0000000000000040 .LVL5
GAS LISTING /tmp/ccmoKFXP.s 			page 50


     /tmp/ccmoKFXP.s:14     .text:0000000000000000 .LVL0
     /tmp/ccmoKFXP.s:27     .text:0000000000000014 .LVL2
     /tmp/ccmoKFXP.s:1009   .text:0000000000000668 .LVL123
     /tmp/ccmoKFXP.s:1030   .text:0000000000000698 .LVL124
     /tmp/ccmoKFXP.s:1085   .text:000000000000071c .LVL136
     /tmp/ccmoKFXP.s:1079   .text:0000000000000714 .LVL134
     /tmp/ccmoKFXP.s:1082   .text:0000000000000718 .LVL135
     /tmp/ccmoKFXP.s:1063   .text:00000000000006f8 .LVL131
     /tmp/ccmoKFXP.s:1068   .text:0000000000000700 .LVL132
     /tmp/ccmoKFXP.s:300    .text:0000000000000154 .LVL32
     /tmp/ccmoKFXP.s:367    .text:00000000000001e0 .LVL39
     /tmp/ccmoKFXP.s:376    .text:00000000000001f0 .LVL41
     /tmp/ccmoKFXP.s:372    .text:00000000000001e8 .LVL40
     /tmp/ccmoKFXP.s:330    .text:0000000000000190 .LVL33
     /tmp/ccmoKFXP.s:383    .text:00000000000001f4 .LVL42
     /tmp/ccmoKFXP.s:334    .text:000000000000019c .LVL35
     /tmp/ccmoKFXP.s:341    .text:00000000000001ac .LVL36
     /tmp/ccmoKFXP.s:412    .text:0000000000000200 .LVL44
     /tmp/ccmoKFXP.s:434    .text:0000000000000230 .LVL45
     /tmp/ccmoKFXP.s:574    .text:0000000000000360 .LVL64
     /tmp/ccmoKFXP.s:478    .text:00000000000002a4 .LVL55
     /tmp/ccmoKFXP.s:455    .text:000000000000026c .LVL50
     /tmp/ccmoKFXP.s:459    .text:0000000000000274 .LVL51
     /tmp/ccmoKFXP.s:579    .text:0000000000000368 .LVL65
     /tmp/ccmoKFXP.s:571    .text:000000000000035c .LVL63
     /tmp/ccmoKFXP.s:505    .text:00000000000002c8 .LVL57
     /tmp/ccmoKFXP.s:554    .text:0000000000000348 .LVL62
     /tmp/ccmoKFXP.s:806    .text:00000000000004e8 .LVL94
     /tmp/ccmoKFXP.s:828    .text:0000000000000518 .LVL95
     /tmp/ccmoKFXP.s:901    .text:00000000000005cc .LVL110
     /tmp/ccmoKFXP.s:984    .text:000000000000065c .LVL121
     /tmp/ccmoKFXP.s:838    .text:0000000000000534 .LVL98
     /tmp/ccmoKFXP.s:987    .text:0000000000000660 .LVL122
     /tmp/ccmoKFXP.s:871    .text:000000000000058c .LVL104
     /tmp/ccmoKFXP.s:948    .text:000000000000061c .LVL116
     /tmp/ccmoKFXP.s:981    .text:0000000000000658 .LVL120
     /tmp/ccmoKFXP.s:923    .text:00000000000005f4 .LVL113
     /tmp/ccmoKFXP.s:927    .text:00000000000005f8 .LVL114
     /tmp/ccmoKFXP.s:978    .text:0000000000000654 .LVL119
     /tmp/ccmoKFXP.s:1297   .debug_info:0000000000000000 .Ldebug_info0
     /tmp/ccmoKFXP.s:475    .text:00000000000002a0 .LBB5
     /tmp/ccmoKFXP.s:485    .text:00000000000002ac .LBE5
     /tmp/ccmoKFXP.s:487    .text:00000000000002ac .LBB9
     /tmp/ccmoKFXP.s:558    .text:0000000000000348 .LBE9

UNDEFINED SYMBOLS
_ZN8KConsole15trapPrintStringEPKc
_ZN8KConsole12trapPrintIntEmii
