GAS LISTING /tmp/ccx9O3zd.s 			page 1


   1              		.file	"buddyAllocator.cpp"
   2              		.option pic
   3              		.option norelax
   4              		.text
   5              	.Ltext0:
   6              		.align	2
   7              		.globl	_Z15addBlockToLevelP14buddyAllocatorPvm
   9              	_Z15addBlockToLevelP14buddyAllocatorPvm:
  10              	.LFB14:
  11              		.file 1 "src/buddyAllocator.cpp"
   1:src/buddyAllocator.cpp **** #include "../h/buddyAllocator.hpp"
   2:src/buddyAllocator.cpp **** #include "../h/KConsole.hpp"
   3:src/buddyAllocator.cpp **** 
   4:src/buddyAllocator.cpp **** #define BLOCK_SIZE 4096
   5:src/buddyAllocator.cpp **** 
   6:src/buddyAllocator.cpp **** buddyAllocator* buddy_init(void* addr, size_t numOfBlocks)
   7:src/buddyAllocator.cpp **** {
   8:src/buddyAllocator.cpp ****     KConsole::trapPrintString("Buddy initialization\n");
   9:src/buddyAllocator.cpp ****     size_t blockAddr = getBlockAddr((size_t)addr);
  10:src/buddyAllocator.cpp ****     size_t buddyAddr = (size_t)addr;
  11:src/buddyAllocator.cpp ****     if((size_t)addr != blockAddr) // if start address not aligned
  12:src/buddyAllocator.cpp ****     {
  13:src/buddyAllocator.cpp ****         buddyAddr = getNextBlockAddr(blockAddr);
  14:src/buddyAllocator.cpp ****         numOfBlocks--;
  15:src/buddyAllocator.cpp ****     }
  16:src/buddyAllocator.cpp ****     KConsole::trapPrintString("Buddy starting address: ");
  17:src/buddyAllocator.cpp ****     KConsole::trapPrintInt(buddyAddr); KConsole::trapPrintString("\n");
  18:src/buddyAllocator.cpp ****     numOfBlocks--; // take one block for buddy metadata
  19:src/buddyAllocator.cpp ****     buddyAllocator* buddy = (buddyAllocator*)buddyAddr;
  20:src/buddyAllocator.cpp ****     buddy->startAddr = (void*)getNextBlockAddr(buddyAddr);
  21:src/buddyAllocator.cpp ****     buddy->numOfBlocks = numOfBlocks;
  22:src/buddyAllocator.cpp ****     buddy->numOfFreeBlocks = numOfBlocks;
  23:src/buddyAllocator.cpp ****     buddy->maxLevel = getDeg2Floor(numOfBlocks);
  24:src/buddyAllocator.cpp **** 
  25:src/buddyAllocator.cpp ****     for(size_t i = 0; i <= buddy->maxLevel;i++)
  26:src/buddyAllocator.cpp ****         buddy->bucket[i].first = buddy->bucket[i].last = nullptr;
  27:src/buddyAllocator.cpp **** 
  28:src/buddyAllocator.cpp ****     //TODO
  29:src/buddyAllocator.cpp ****     //maybe do it differently, like putting in chunks of power of 2
  30:src/buddyAllocator.cpp ****     for(size_t i = 0;i < numOfBlocks;i++)
  31:src/buddyAllocator.cpp ****         addBlocks(buddy, (block*)buddy->startAddr + i, 1);
  32:src/buddyAllocator.cpp **** 
  33:src/buddyAllocator.cpp ****     return buddy;
  34:src/buddyAllocator.cpp **** }
  35:src/buddyAllocator.cpp **** 
  36:src/buddyAllocator.cpp **** void* buddy_alloc(buddyAllocator* buddy, size_t numOfBlocks)
  37:src/buddyAllocator.cpp **** {
  38:src/buddyAllocator.cpp ****     KConsole::trapPrintString("Buddy allocation: ");
  39:src/buddyAllocator.cpp ****     KConsole::trapPrintInt(numOfBlocks); KConsole::trapPrintString("\n");
  40:src/buddyAllocator.cpp ****     size_t level = getDeg2Ceil(numOfBlocks);
  41:src/buddyAllocator.cpp ****     KConsole::trapPrintString("Level: ");
  42:src/buddyAllocator.cpp ****     KConsole::trapPrintInt(level); KConsole::trapPrintString("\n");
  43:src/buddyAllocator.cpp ****     for(size_t i = level; i <= buddy->maxLevel;i++)
  44:src/buddyAllocator.cpp ****     {
  45:src/buddyAllocator.cpp ****         if(buddy->bucket[i].first != nullptr)
  46:src/buddyAllocator.cpp ****         {
  47:src/buddyAllocator.cpp ****             buddyBlock* ret = buddy->bucket[i].first;
GAS LISTING /tmp/ccx9O3zd.s 			page 2


  48:src/buddyAllocator.cpp ****             KConsole::trapPrintString("Found the block:");
  49:src/buddyAllocator.cpp ****             KConsole::trapPrintInt((size_t)ret); KConsole::trapPrintString("\n");
  50:src/buddyAllocator.cpp ****             buddy->bucket[i].first = ret->next;
  51:src/buddyAllocator.cpp ****             if(buddy->bucket[i].first == nullptr)
  52:src/buddyAllocator.cpp ****                 buddy->bucket[i].last = nullptr;
  53:src/buddyAllocator.cpp ****             split(buddy, (void*)ret, level, i, true);
  54:src/buddyAllocator.cpp ****             return ret;
  55:src/buddyAllocator.cpp ****         }
  56:src/buddyAllocator.cpp ****     }
  57:src/buddyAllocator.cpp **** 
  58:src/buddyAllocator.cpp ****     return nullptr;
  59:src/buddyAllocator.cpp **** }
  60:src/buddyAllocator.cpp **** 
  61:src/buddyAllocator.cpp **** void split(buddyAllocator* buddy, void* addr, size_t finalLevel, size_t currLevel, bool splitMore)
  62:src/buddyAllocator.cpp **** {
  63:src/buddyAllocator.cpp ****     if(!splitMore)
  64:src/buddyAllocator.cpp ****     {
  65:src/buddyAllocator.cpp ****         addBlockToLevel(buddy, addr, currLevel);
  66:src/buddyAllocator.cpp ****     }
  67:src/buddyAllocator.cpp ****     else
  68:src/buddyAllocator.cpp ****     {
  69:src/buddyAllocator.cpp ****         if(currLevel == finalLevel)
  70:src/buddyAllocator.cpp ****             return;
  71:src/buddyAllocator.cpp ****         if(currLevel > finalLevel) // condition not necessary, just for protection
  72:src/buddyAllocator.cpp ****         {
  73:src/buddyAllocator.cpp ****             size_t buddyBlock = getBuddyBlockAddr(addr, currLevel - 1); // currLevel - 1 for next s
  74:src/buddyAllocator.cpp ****             split(buddy, (void*)buddyBlock, finalLevel, currLevel - 1, false);
  75:src/buddyAllocator.cpp ****             split(buddy, addr, finalLevel, currLevel - 1, true);
  76:src/buddyAllocator.cpp ****         }
  77:src/buddyAllocator.cpp ****     }
  78:src/buddyAllocator.cpp **** }
  79:src/buddyAllocator.cpp **** 
  80:src/buddyAllocator.cpp **** void buddy_free(buddyAllocator* buddy, void* addr, size_t numOfBlocks)
  81:src/buddyAllocator.cpp **** {
  82:src/buddyAllocator.cpp ****     KConsole::trapPrintString("Buddy free: ");
  83:src/buddyAllocator.cpp ****     KConsole::trapPrintInt((size_t)addr); KConsole::trapPrintString(" ");
  84:src/buddyAllocator.cpp ****     KConsole::trapPrintInt(numOfBlocks); KConsole::trapPrintString("\n");
  85:src/buddyAllocator.cpp ****     addBlocks(buddy, addr, numOfBlocks);
  86:src/buddyAllocator.cpp **** }
  87:src/buddyAllocator.cpp **** 
  88:src/buddyAllocator.cpp **** inline size_t getBlockAddr(size_t addr)
  89:src/buddyAllocator.cpp **** {
  90:src/buddyAllocator.cpp ****     size_t mask = ((size_t)-1) << BLOCK_SIZE_POWER_2;
  91:src/buddyAllocator.cpp ****     return addr & mask;
  92:src/buddyAllocator.cpp **** }
  93:src/buddyAllocator.cpp **** inline size_t getNextBlockAddr(size_t addr)
  94:src/buddyAllocator.cpp **** {
  95:src/buddyAllocator.cpp ****     size_t currBlock = getBlockAddr(addr);
  96:src/buddyAllocator.cpp ****     return currBlock + BLOCK_SIZE;
  97:src/buddyAllocator.cpp **** }
  98:src/buddyAllocator.cpp **** 
  99:src/buddyAllocator.cpp **** inline size_t getDeg2Floor(size_t num)
 100:src/buddyAllocator.cpp **** {
 101:src/buddyAllocator.cpp ****     size_t x = 1;
 102:src/buddyAllocator.cpp ****     size_t deg = 0;
 103:src/buddyAllocator.cpp ****     while(x <= num)
 104:src/buddyAllocator.cpp ****     {
GAS LISTING /tmp/ccx9O3zd.s 			page 3


 105:src/buddyAllocator.cpp ****         deg++;
 106:src/buddyAllocator.cpp ****         x<<=1;
 107:src/buddyAllocator.cpp ****     }
 108:src/buddyAllocator.cpp ****     return deg - 1;
 109:src/buddyAllocator.cpp **** }
 110:src/buddyAllocator.cpp **** 
 111:src/buddyAllocator.cpp **** inline size_t getDeg2Ceil(size_t num)
 112:src/buddyAllocator.cpp **** {
 113:src/buddyAllocator.cpp ****     size_t x = 1;
 114:src/buddyAllocator.cpp ****     size_t deg = 0;
 115:src/buddyAllocator.cpp ****     while(x < num)
 116:src/buddyAllocator.cpp ****     {
 117:src/buddyAllocator.cpp ****         deg++;
 118:src/buddyAllocator.cpp ****         x<<=1;
 119:src/buddyAllocator.cpp ****     }
 120:src/buddyAllocator.cpp ****     return deg;
 121:src/buddyAllocator.cpp **** }
 122:src/buddyAllocator.cpp **** 
 123:src/buddyAllocator.cpp **** //TODO
 124:src/buddyAllocator.cpp **** //maybe change it to work with levels instead of numOfBlocks
 125:src/buddyAllocator.cpp **** void addBlocks(buddyAllocator* buddy, void* addr, size_t numOfBlocks)
 126:src/buddyAllocator.cpp **** {
 127:src/buddyAllocator.cpp ****     size_t level = getDeg2Ceil(numOfBlocks);
 128:src/buddyAllocator.cpp ****     if(level == buddy->maxLevel)
 129:src/buddyAllocator.cpp ****     {
 130:src/buddyAllocator.cpp ****         addBlockToLevel(buddy, addr, level);
 131:src/buddyAllocator.cpp ****         return;
 132:src/buddyAllocator.cpp ****     }
 133:src/buddyAllocator.cpp ****     size_t buddyBlockAddr = getBuddyBlockAddr(addr, level);
 134:src/buddyAllocator.cpp ****     buddyBlock* curr = buddy->bucket[level].first;
 135:src/buddyAllocator.cpp ****     buddyBlock* prev = nullptr;
 136:src/buddyAllocator.cpp ****     while(curr != nullptr)
 137:src/buddyAllocator.cpp ****     {
 138:src/buddyAllocator.cpp ****         if((size_t)curr == buddyBlockAddr)
 139:src/buddyAllocator.cpp ****         {
 140:src/buddyAllocator.cpp ****             if(prev != nullptr)
 141:src/buddyAllocator.cpp ****             {
 142:src/buddyAllocator.cpp ****                 prev->next = curr->next;
 143:src/buddyAllocator.cpp ****                 if(curr == buddy->bucket[level].last)
 144:src/buddyAllocator.cpp ****                     buddy->bucket[level].last = prev;
 145:src/buddyAllocator.cpp ****             }
 146:src/buddyAllocator.cpp ****             else
 147:src/buddyAllocator.cpp ****             {
 148:src/buddyAllocator.cpp ****                 if(curr->next == nullptr)
 149:src/buddyAllocator.cpp ****                     buddy->bucket[level].first = buddy->bucket[level].last = nullptr;
 150:src/buddyAllocator.cpp ****                 else
 151:src/buddyAllocator.cpp ****                     buddy->bucket[level].first = curr->next;
 152:src/buddyAllocator.cpp ****             }
 153:src/buddyAllocator.cpp ****             if((size_t)addr < buddyBlockAddr) addBlocks(buddy, addr, 1 << (level + 1));
 154:src/buddyAllocator.cpp ****             else addBlocks(buddy, (void*)buddyBlockAddr, 1 << (level + 1));
 155:src/buddyAllocator.cpp ****             return;
 156:src/buddyAllocator.cpp ****         }
 157:src/buddyAllocator.cpp **** 
 158:src/buddyAllocator.cpp ****         prev = curr;
 159:src/buddyAllocator.cpp ****         curr = curr->next;
 160:src/buddyAllocator.cpp ****     }
 161:src/buddyAllocator.cpp **** 
GAS LISTING /tmp/ccx9O3zd.s 			page 4


 162:src/buddyAllocator.cpp ****     addBlockToLevel(buddy, addr, level);
 163:src/buddyAllocator.cpp **** }
 164:src/buddyAllocator.cpp **** 
 165:src/buddyAllocator.cpp **** void addBlockToLevel(buddyAllocator* buddy, void* addr, size_t level)
 166:src/buddyAllocator.cpp **** {
  12              		.loc 1 166 1
  13              		.cfi_startproc
  14              	.LVL0:
  15 0000 130101FF 		addi	sp,sp,-16
  16              		.cfi_def_cfa_offset 16
  17 0004 23348100 		sd	s0,8(sp)
  18              		.cfi_offset 8, -8
  19 0008 13040101 		addi	s0,sp,16
  20              		.cfi_def_cfa 8, 0
 167:src/buddyAllocator.cpp ****     buddyBlock* newBlock = (buddyBlock*)addr;
  21              		.loc 1 167 5
  22              	.LVL1:
 168:src/buddyAllocator.cpp ****     newBlock->next = nullptr;
  23              		.loc 1 168 5
  24              		.loc 1 168 20 is_stmt 0
  25 000c 23B00500 		sd	zero,0(a1)
 169:src/buddyAllocator.cpp ****     if(buddy->bucket[level].first == nullptr)
  26              		.loc 1 169 5 is_stmt 1
  27              		.loc 1 169 29 is_stmt 0
  28 0010 93072600 		addi	a5,a2,2
  29 0014 93974700 		slli	a5,a5,4
  30 0018 B307F500 		add	a5,a0,a5
  31 001c 83B70700 		ld	a5,0(a5)
  32              		.loc 1 169 5
  33 0020 63840702 		beqz	a5,.L5
 170:src/buddyAllocator.cpp ****     {
 171:src/buddyAllocator.cpp ****         buddy->bucket[level].first = buddy->bucket[level].last = newBlock;
 172:src/buddyAllocator.cpp ****     }
 173:src/buddyAllocator.cpp ****     else
 174:src/buddyAllocator.cpp ****     {
 175:src/buddyAllocator.cpp ****         buddy->bucket[level].last->next = newBlock;
  34              		.loc 1 175 9 is_stmt 1
  35              		.loc 1 175 30 is_stmt 0
  36 0024 13062600 		addi	a2,a2,2
  37              	.LVL2:
  38 0028 13164600 		slli	a2,a2,4
  39              	.LVL3:
  40 002c 3306C500 		add	a2,a0,a2
  41 0030 83378600 		ld	a5,8(a2)
  42              		.loc 1 175 41
  43 0034 23B0B700 		sd	a1,0(a5)
 176:src/buddyAllocator.cpp ****         buddy->bucket[level].last = newBlock;
  44              		.loc 1 176 9 is_stmt 1
  45              		.loc 1 176 35 is_stmt 0
  46 0038 2334B600 		sd	a1,8(a2)
  47              	.L1:
 177:src/buddyAllocator.cpp ****     }
 178:src/buddyAllocator.cpp **** }
  48              		.loc 1 178 1
  49 003c 03348100 		ld	s0,8(sp)
  50              		.cfi_remember_state
  51              		.cfi_restore 8
GAS LISTING /tmp/ccx9O3zd.s 			page 5


  52              		.cfi_def_cfa 2, 16
  53 0040 13010101 		addi	sp,sp,16
  54              		.cfi_def_cfa_offset 0
  55 0044 67800000 		jr	ra
  56              	.LVL4:
  57              	.L5:
  58              		.cfi_restore_state
 171:src/buddyAllocator.cpp ****     }
  59              		.loc 1 171 9 is_stmt 1
 171:src/buddyAllocator.cpp ****     }
  60              		.loc 1 171 64 is_stmt 0
  61 0048 13062600 		addi	a2,a2,2
  62              	.LVL5:
  63 004c 13164600 		slli	a2,a2,4
  64              	.LVL6:
  65 0050 3306C500 		add	a2,a0,a2
  66 0054 2334B600 		sd	a1,8(a2)
 171:src/buddyAllocator.cpp ****     }
  67              		.loc 1 171 36
  68 0058 2330B600 		sd	a1,0(a2)
  69 005c 6FF01FFE 		j	.L1
  70              		.cfi_endproc
  71              	.LFE14:
  73              		.align	2
  74              		.globl	_Z17getBuddyBlockAddrPvm
  76              	_Z17getBuddyBlockAddrPvm:
  77              	.LFB15:
 179:src/buddyAllocator.cpp **** 
 180:src/buddyAllocator.cpp **** size_t getBuddyBlockAddr(void* addr, size_t level)
 181:src/buddyAllocator.cpp **** {
  78              		.loc 1 181 1 is_stmt 1
  79              		.cfi_startproc
  80              	.LVL7:
  81 0060 130101FF 		addi	sp,sp,-16
  82              		.cfi_def_cfa_offset 16
  83 0064 23348100 		sd	s0,8(sp)
  84              		.cfi_offset 8, -8
  85 0068 13040101 		addi	s0,sp,16
  86              		.cfi_def_cfa 8, 0
 182:src/buddyAllocator.cpp ****     return (size_t)addr ^ (1 << level);
  87              		.loc 1 182 5
  88              		.loc 1 182 30 is_stmt 0
  89 006c 93071000 		li	a5,1
  90 0070 BB97B700 		sllw	a5,a5,a1
 183:src/buddyAllocator.cpp **** }
  91              		.loc 1 183 1
  92 0074 33C5A700 		xor	a0,a5,a0
  93              	.LVL8:
  94 0078 03348100 		ld	s0,8(sp)
  95              		.cfi_restore 8
  96              		.cfi_def_cfa 2, 16
  97 007c 13010101 		addi	sp,sp,16
  98              		.cfi_def_cfa_offset 0
  99 0080 67800000 		jr	ra
 100              		.cfi_endproc
 101              	.LFE15:
 103              		.align	2
GAS LISTING /tmp/ccx9O3zd.s 			page 6


 104              		.globl	_Z5splitP14buddyAllocatorPvmmb
 106              	_Z5splitP14buddyAllocatorPvmmb:
 107              	.LFB7:
  62:src/buddyAllocator.cpp ****     if(!splitMore)
 108              		.loc 1 62 1 is_stmt 1
 109              		.cfi_startproc
 110              	.LVL9:
 111 0084 130101FD 		addi	sp,sp,-48
 112              		.cfi_def_cfa_offset 48
 113 0088 23341102 		sd	ra,40(sp)
 114 008c 23308102 		sd	s0,32(sp)
 115 0090 233C9100 		sd	s1,24(sp)
 116 0094 23382101 		sd	s2,16(sp)
 117 0098 23343101 		sd	s3,8(sp)
 118 009c 23304101 		sd	s4,0(sp)
 119              		.cfi_offset 1, -8
 120              		.cfi_offset 8, -16
 121              		.cfi_offset 9, -24
 122              		.cfi_offset 18, -32
 123              		.cfi_offset 19, -40
 124              		.cfi_offset 20, -48
 125 00a0 13040103 		addi	s0,sp,48
 126              		.cfi_def_cfa 8, 0
 127 00a4 93090500 		mv	s3,a0
 128 00a8 138A0500 		mv	s4,a1
  63:src/buddyAllocator.cpp ****     {
 129              		.loc 1 63 5
 130              	.LBB25:
 131 00ac 63080702 		beqz	a4,.L12
 132 00b0 13090600 		mv	s2,a2
 133              	.LBB26:
  69:src/buddyAllocator.cpp ****             return;
 134              		.loc 1 69 9
 135 00b4 6384C600 		beq	a3,a2,.L8
  71:src/buddyAllocator.cpp ****         {
 136              		.loc 1 71 9
 137              	.LBB27:
 138 00b8 636AD602 		bgtu	a3,a2,.L13
 139              	.LVL10:
 140              	.L8:
 141              	.LBE27:
 142              	.LBE26:
 143              	.LBE25:
  78:src/buddyAllocator.cpp **** 
 144              		.loc 1 78 1 is_stmt 0
 145 00bc 83308102 		ld	ra,40(sp)
 146              		.cfi_remember_state
 147              		.cfi_restore 1
 148 00c0 03340102 		ld	s0,32(sp)
 149              		.cfi_restore 8
 150              		.cfi_def_cfa 2, 48
 151 00c4 83348101 		ld	s1,24(sp)
 152              		.cfi_restore 9
 153 00c8 03390101 		ld	s2,16(sp)
 154              		.cfi_restore 18
 155 00cc 83398100 		ld	s3,8(sp)
 156              		.cfi_restore 19
GAS LISTING /tmp/ccx9O3zd.s 			page 7


 157              	.LVL11:
 158 00d0 033A0100 		ld	s4,0(sp)
 159              		.cfi_restore 20
 160              	.LVL12:
 161 00d4 13010103 		addi	sp,sp,48
 162              		.cfi_def_cfa_offset 0
 163 00d8 67800000 		jr	ra
 164              	.LVL13:
 165              	.L12:
 166              		.cfi_restore_state
 167              	.LBB31:
  65:src/buddyAllocator.cpp ****     }
 168              		.loc 1 65 9 is_stmt 1
  65:src/buddyAllocator.cpp ****     }
 169              		.loc 1 65 24 is_stmt 0
 170 00dc 13860600 		mv	a2,a3
 171              	.LVL14:
 172 00e0 97000000 		call	_Z15addBlockToLevelP14buddyAllocatorPvm
 172      E7800000 
 173              	.LVL15:
 174 00e8 6FF05FFD 		j	.L8
 175              	.LVL16:
 176              	.L13:
 177              	.LBB30:
 178              	.LBB29:
 179              	.LBB28:
  73:src/buddyAllocator.cpp ****             split(buddy, (void*)buddyBlock, finalLevel, currLevel - 1, false);
 180              		.loc 1 73 13 is_stmt 1
  73:src/buddyAllocator.cpp ****             split(buddy, (void*)buddyBlock, finalLevel, currLevel - 1, false);
 181              		.loc 1 73 50 is_stmt 0
 182 00ec 9384F6FF 		addi	s1,a3,-1
 183 00f0 93850400 		mv	a1,s1
 184              	.LVL17:
 185 00f4 13050A00 		mv	a0,s4
 186              	.LVL18:
 187 00f8 97000000 		call	_Z17getBuddyBlockAddrPvm
 187      E7800000 
 188              	.LVL19:
 189 0100 93050500 		mv	a1,a0
 190              	.LVL20:
  74:src/buddyAllocator.cpp ****             split(buddy, addr, finalLevel, currLevel - 1, true);
 191              		.loc 1 74 13 is_stmt 1
  74:src/buddyAllocator.cpp ****             split(buddy, addr, finalLevel, currLevel - 1, true);
 192              		.loc 1 74 18 is_stmt 0
 193 0104 13070000 		li	a4,0
 194 0108 93860400 		mv	a3,s1
 195 010c 13060900 		mv	a2,s2
 196 0110 13850900 		mv	a0,s3
 197              	.LVL21:
 198 0114 97000000 		call	_Z5splitP14buddyAllocatorPvmmb
 198      E7800000 
 199              	.LVL22:
  75:src/buddyAllocator.cpp ****         }
 200              		.loc 1 75 13 is_stmt 1
  75:src/buddyAllocator.cpp ****         }
 201              		.loc 1 75 18 is_stmt 0
 202 011c 13071000 		li	a4,1
GAS LISTING /tmp/ccx9O3zd.s 			page 8


 203 0120 93860400 		mv	a3,s1
 204 0124 13060900 		mv	a2,s2
 205 0128 93050A00 		mv	a1,s4
 206 012c 13850900 		mv	a0,s3
 207 0130 97000000 		call	_Z5splitP14buddyAllocatorPvmmb
 207      E7800000 
 208              	.LVL23:
 209              	.LBE28:
 210 0138 6FF05FF8 		j	.L8
 211              	.LBE29:
 212              	.LBE30:
 213              	.LBE31:
 214              		.cfi_endproc
 215              	.LFE7:
 217              		.section	.rodata.str1.8,"aMS",@progbits,1
 218              		.align	3
 219              	.LC0:
 220 0000 42756464 		.string	"Buddy allocation: "
 220      7920616C 
 220      6C6F6361 
 220      74696F6E 
 220      3A2000
 221 0013 00000000 		.align	3
 221      00
 222              	.LC1:
 223 0018 0A00     		.string	"\n"
 224 001a 00000000 		.align	3
 224      0000
 225              	.LC2:
 226 0020 4C657665 		.string	"Level: "
 226      6C3A2000 
 227              		.align	3
 228              	.LC3:
 229 0028 466F756E 		.string	"Found the block:"
 229      64207468 
 229      6520626C 
 229      6F636B3A 
 229      00
 230              		.text
 231              		.align	2
 232              		.globl	_Z11buddy_allocP14buddyAllocatorm
 234              	_Z11buddy_allocP14buddyAllocatorm:
 235              	.LFB6:
  37:src/buddyAllocator.cpp ****     KConsole::trapPrintString("Buddy allocation: ");
 236              		.loc 1 37 1 is_stmt 1
 237              		.cfi_startproc
 238              	.LVL24:
 239 013c 130101FD 		addi	sp,sp,-48
 240              		.cfi_def_cfa_offset 48
 241 0140 23341102 		sd	ra,40(sp)
 242 0144 23308102 		sd	s0,32(sp)
 243 0148 233C9100 		sd	s1,24(sp)
 244 014c 23382101 		sd	s2,16(sp)
 245 0150 23343101 		sd	s3,8(sp)
 246 0154 23304101 		sd	s4,0(sp)
 247              		.cfi_offset 1, -8
 248              		.cfi_offset 8, -16
GAS LISTING /tmp/ccx9O3zd.s 			page 9


 249              		.cfi_offset 9, -24
 250              		.cfi_offset 18, -32
 251              		.cfi_offset 19, -40
 252              		.cfi_offset 20, -48
 253 0158 13040103 		addi	s0,sp,48
 254              		.cfi_def_cfa 8, 0
 255 015c 13090500 		mv	s2,a0
 256 0160 93840500 		mv	s1,a1
  38:src/buddyAllocator.cpp ****     KConsole::trapPrintInt(numOfBlocks); KConsole::trapPrintString("\n");
 257              		.loc 1 38 5
  38:src/buddyAllocator.cpp ****     KConsole::trapPrintInt(numOfBlocks); KConsole::trapPrintString("\n");
 258              		.loc 1 38 30 is_stmt 0
 259 0164 17050000 		lla	a0,.LC0
 259      13050500 
 260              	.LVL25:
 261 016c 97000000 		call	_ZN8KConsole15trapPrintStringEPKc@plt
 261      E7800000 
 262              	.LVL26:
  39:src/buddyAllocator.cpp ****     size_t level = getDeg2Ceil(numOfBlocks);
 263              		.loc 1 39 5 is_stmt 1
  39:src/buddyAllocator.cpp ****     size_t level = getDeg2Ceil(numOfBlocks);
 264              		.loc 1 39 27 is_stmt 0
 265 0174 13060000 		li	a2,0
 266 0178 9305A000 		li	a1,10
 267 017c 1B850400 		sext.w	a0,s1
 268 0180 97000000 		call	_ZN8KConsole12trapPrintIntEiii@plt
 268      E7800000 
 269              	.LVL27:
  39:src/buddyAllocator.cpp ****     size_t level = getDeg2Ceil(numOfBlocks);
 270              		.loc 1 39 42 is_stmt 1
  39:src/buddyAllocator.cpp ****     size_t level = getDeg2Ceil(numOfBlocks);
 271              		.loc 1 39 67 is_stmt 0
 272 0188 17050000 		lla	a0,.LC1
 272      13050500 
 273 0190 97000000 		call	_ZN8KConsole15trapPrintStringEPKc@plt
 273      E7800000 
 274              	.LVL28:
  40:src/buddyAllocator.cpp ****     KConsole::trapPrintString("Level: ");
 275              		.loc 1 40 5 is_stmt 1
 276              	.LBB32:
 277              	.LBB33:
 113:src/buddyAllocator.cpp ****     size_t deg = 0;
 278              		.loc 1 113 5
 114:src/buddyAllocator.cpp ****     while(x < num)
 279              		.loc 1 114 5
 114:src/buddyAllocator.cpp ****     while(x < num)
 280              		.loc 1 114 12 is_stmt 0
 281 0198 130A0000 		li	s4,0
 113:src/buddyAllocator.cpp ****     size_t deg = 0;
 282              		.loc 1 113 12
 283 019c 93071000 		li	a5,1
 284              	.LVL29:
 285              	.L16:
 115:src/buddyAllocator.cpp ****     {
 286              		.loc 1 115 5 is_stmt 1
 115:src/buddyAllocator.cpp ****     {
 287              		.loc 1 115 13
GAS LISTING /tmp/ccx9O3zd.s 			page 10


 288 01a0 63F89700 		bleu	s1,a5,.L15
 117:src/buddyAllocator.cpp ****         x<<=1;
 289              		.loc 1 117 9
 117:src/buddyAllocator.cpp ****         x<<=1;
 290              		.loc 1 117 12 is_stmt 0
 291 01a4 130A1A00 		addi	s4,s4,1
 292              	.LVL30:
 118:src/buddyAllocator.cpp ****     }
 293              		.loc 1 118 9 is_stmt 1
 118:src/buddyAllocator.cpp ****     }
 294              		.loc 1 118 10 is_stmt 0
 295 01a8 93971700 		slli	a5,a5,1
 296              	.LVL31:
 115:src/buddyAllocator.cpp ****     {
 297              		.loc 1 115 5
 298 01ac 6FF05FFF 		j	.L16
 299              	.L15:
 120:src/buddyAllocator.cpp **** }
 300              		.loc 1 120 5 is_stmt 1
 301              	.LVL32:
 302              	.LBE33:
 303              	.LBE32:
  41:src/buddyAllocator.cpp ****     KConsole::trapPrintInt(level); KConsole::trapPrintString("\n");
 304              		.loc 1 41 5
  41:src/buddyAllocator.cpp ****     KConsole::trapPrintInt(level); KConsole::trapPrintString("\n");
 305              		.loc 1 41 30 is_stmt 0
 306 01b0 17050000 		lla	a0,.LC2
 306      13050500 
 307 01b8 97000000 		call	_ZN8KConsole15trapPrintStringEPKc@plt
 307      E7800000 
 308              	.LVL33:
  42:src/buddyAllocator.cpp ****     for(size_t i = level; i <= buddy->maxLevel;i++)
 309              		.loc 1 42 5 is_stmt 1
  42:src/buddyAllocator.cpp ****     for(size_t i = level; i <= buddy->maxLevel;i++)
 310              		.loc 1 42 27 is_stmt 0
 311 01c0 13060000 		li	a2,0
 312 01c4 9305A000 		li	a1,10
 313 01c8 1B050A00 		sext.w	a0,s4
 314 01cc 97000000 		call	_ZN8KConsole12trapPrintIntEiii@plt
 314      E7800000 
 315              	.LVL34:
  42:src/buddyAllocator.cpp ****     for(size_t i = level; i <= buddy->maxLevel;i++)
 316              		.loc 1 42 36 is_stmt 1
  42:src/buddyAllocator.cpp ****     for(size_t i = level; i <= buddy->maxLevel;i++)
 317              		.loc 1 42 61 is_stmt 0
 318 01d4 17050000 		lla	a0,.LC1
 318      13050500 
 319 01dc 97000000 		call	_ZN8KConsole15trapPrintStringEPKc@plt
 319      E7800000 
 320              	.LVL35:
  43:src/buddyAllocator.cpp ****     {
 321              		.loc 1 43 5 is_stmt 1
 322              	.LBB34:
  43:src/buddyAllocator.cpp ****     {
 323              		.loc 1 43 16 is_stmt 0
 324 01e4 93040A00 		mv	s1,s4
 325              	.LVL36:
GAS LISTING /tmp/ccx9O3zd.s 			page 11


 326              	.L20:
  43:src/buddyAllocator.cpp ****     {
 327              		.loc 1 43 29 is_stmt 1 discriminator 1
  43:src/buddyAllocator.cpp ****     {
 328              		.loc 1 43 39 is_stmt 0 discriminator 1
 329 01e8 83378901 		ld	a5,24(s2)
  43:src/buddyAllocator.cpp ****     {
 330              		.loc 1 43 29 discriminator 1
 331 01ec 63E0970A 		bltu	a5,s1,.L21
 332              	.LBE34:
  45:src/buddyAllocator.cpp ****         {
 333              		.loc 1 45 9 is_stmt 1
 334              	.LBB38:
 335              	.LBB35:
  45:src/buddyAllocator.cpp ****         {
 336              		.loc 1 45 29 is_stmt 0
 337 01f0 93872400 		addi	a5,s1,2
 338 01f4 93974700 		slli	a5,a5,4
 339 01f8 B307F900 		add	a5,s2,a5
 340 01fc 83B90700 		ld	s3,0(a5)
  45:src/buddyAllocator.cpp ****         {
 341              		.loc 1 45 9
 342 0200 63960900 		bnez	s3,.L23
 343              	.LBE35:
  43:src/buddyAllocator.cpp ****     {
 344              		.loc 1 43 5 is_stmt 1 discriminator 2
 345 0204 93841400 		addi	s1,s1,1
 346              	.LVL37:
 347 0208 6FF01FFE 		j	.L20
 348              	.L23:
 349              	.LBB37:
 350              	.LBB36:
  47:src/buddyAllocator.cpp ****             KConsole::trapPrintString("Found the block:");
 351              		.loc 1 47 13
 352              	.LVL38:
  48:src/buddyAllocator.cpp ****             KConsole::trapPrintInt((size_t)ret); KConsole::trapPrintString("\n");
 353              		.loc 1 48 13
  48:src/buddyAllocator.cpp ****             KConsole::trapPrintInt((size_t)ret); KConsole::trapPrintString("\n");
 354              		.loc 1 48 38 is_stmt 0
 355 020c 17050000 		lla	a0,.LC3
 355      13050500 
 356 0214 97000000 		call	_ZN8KConsole15trapPrintStringEPKc@plt
 356      E7800000 
 357              	.LVL39:
  49:src/buddyAllocator.cpp ****             buddy->bucket[i].first = ret->next;
 358              		.loc 1 49 13 is_stmt 1
  49:src/buddyAllocator.cpp ****             buddy->bucket[i].first = ret->next;
 359              		.loc 1 49 35 is_stmt 0
 360 021c 13060000 		li	a2,0
 361 0220 9305A000 		li	a1,10
 362 0224 1B850900 		sext.w	a0,s3
 363 0228 97000000 		call	_ZN8KConsole12trapPrintIntEiii@plt
 363      E7800000 
 364              	.LVL40:
  49:src/buddyAllocator.cpp ****             buddy->bucket[i].first = ret->next;
 365              		.loc 1 49 50 is_stmt 1
  49:src/buddyAllocator.cpp ****             buddy->bucket[i].first = ret->next;
GAS LISTING /tmp/ccx9O3zd.s 			page 12


 366              		.loc 1 49 75 is_stmt 0
 367 0230 17050000 		lla	a0,.LC1
 367      13050500 
 368 0238 97000000 		call	_ZN8KConsole15trapPrintStringEPKc@plt
 368      E7800000 
 369              	.LVL41:
  50:src/buddyAllocator.cpp ****             if(buddy->bucket[i].first == nullptr)
 370              		.loc 1 50 13 is_stmt 1
  50:src/buddyAllocator.cpp ****             if(buddy->bucket[i].first == nullptr)
 371              		.loc 1 50 43 is_stmt 0
 372 0240 03B70900 		ld	a4,0(s3)
  50:src/buddyAllocator.cpp ****             if(buddy->bucket[i].first == nullptr)
 373              		.loc 1 50 36
 374 0244 93872400 		addi	a5,s1,2
 375 0248 93974700 		slli	a5,a5,4
 376 024c B307F900 		add	a5,s2,a5
 377 0250 23B0E700 		sd	a4,0(a5)
  51:src/buddyAllocator.cpp ****                 buddy->bucket[i].last = nullptr;
 378              		.loc 1 51 13 is_stmt 1
 379 0254 63020702 		beqz	a4,.L24
 380              	.L19:
  53:src/buddyAllocator.cpp ****             return ret;
 381              		.loc 1 53 13
  53:src/buddyAllocator.cpp ****             return ret;
 382              		.loc 1 53 18 is_stmt 0
 383 0258 13071000 		li	a4,1
 384 025c 93860400 		mv	a3,s1
 385 0260 13060A00 		mv	a2,s4
 386 0264 93850900 		mv	a1,s3
 387 0268 13050900 		mv	a0,s2
 388 026c 97000000 		call	_Z5splitP14buddyAllocatorPvmmb
 388      E7800000 
 389              	.LVL42:
  54:src/buddyAllocator.cpp ****         }
 390              		.loc 1 54 13 is_stmt 1
  54:src/buddyAllocator.cpp ****         }
 391              		.loc 1 54 20 is_stmt 0
 392 0274 6F00C001 		j	.L14
 393              	.L24:
  52:src/buddyAllocator.cpp ****             split(buddy, (void*)ret, level, i, true);
 394              		.loc 1 52 17 is_stmt 1
  52:src/buddyAllocator.cpp ****             split(buddy, (void*)ret, level, i, true);
 395              		.loc 1 52 39 is_stmt 0
 396 0278 93872400 		addi	a5,s1,2
 397 027c 93974700 		slli	a5,a5,4
 398 0280 B307F900 		add	a5,s2,a5
 399 0284 23B40700 		sd	zero,8(a5)
 400 0288 6FF01FFD 		j	.L19
 401              	.LVL43:
 402              	.L21:
 403              	.LBE36:
 404              	.LBE37:
 405              	.LBE38:
  58:src/buddyAllocator.cpp **** }
 406              		.loc 1 58 12
 407 028c 93090000 		li	s3,0
 408              	.L14:
GAS LISTING /tmp/ccx9O3zd.s 			page 13


  59:src/buddyAllocator.cpp **** 
 409              		.loc 1 59 1
 410 0290 13850900 		mv	a0,s3
 411 0294 83308102 		ld	ra,40(sp)
 412              		.cfi_restore 1
 413 0298 03340102 		ld	s0,32(sp)
 414              		.cfi_restore 8
 415              		.cfi_def_cfa 2, 48
 416 029c 83348101 		ld	s1,24(sp)
 417              		.cfi_restore 9
 418              	.LVL44:
 419 02a0 03390101 		ld	s2,16(sp)
 420              		.cfi_restore 18
 421              	.LVL45:
 422 02a4 83398100 		ld	s3,8(sp)
 423              		.cfi_restore 19
 424 02a8 033A0100 		ld	s4,0(sp)
 425              		.cfi_restore 20
 426              	.LVL46:
 427 02ac 13010103 		addi	sp,sp,48
 428              		.cfi_def_cfa_offset 0
 429 02b0 67800000 		jr	ra
 430              		.cfi_endproc
 431              	.LFE6:
 433              		.align	2
 434              		.globl	_Z9addBlocksP14buddyAllocatorPvm
 436              	_Z9addBlocksP14buddyAllocatorPvm:
 437              	.LFB13:
 126:src/buddyAllocator.cpp ****     size_t level = getDeg2Ceil(numOfBlocks);
 438              		.loc 1 126 1 is_stmt 1
 439              		.cfi_startproc
 440              	.LVL47:
 441 02b4 130101FD 		addi	sp,sp,-48
 442              		.cfi_def_cfa_offset 48
 443 02b8 23341102 		sd	ra,40(sp)
 444 02bc 23308102 		sd	s0,32(sp)
 445 02c0 233C9100 		sd	s1,24(sp)
 446 02c4 23382101 		sd	s2,16(sp)
 447 02c8 23343101 		sd	s3,8(sp)
 448              		.cfi_offset 1, -8
 449              		.cfi_offset 8, -16
 450              		.cfi_offset 9, -24
 451              		.cfi_offset 18, -32
 452              		.cfi_offset 19, -40
 453 02cc 13040103 		addi	s0,sp,48
 454              		.cfi_def_cfa 8, 0
 455 02d0 13090500 		mv	s2,a0
 456 02d4 93890500 		mv	s3,a1
 127:src/buddyAllocator.cpp ****     if(level == buddy->maxLevel)
 457              		.loc 1 127 5
 458              	.LVL48:
 459              	.LBB39:
 460              	.LBB40:
 113:src/buddyAllocator.cpp ****     size_t deg = 0;
 461              		.loc 1 113 5
 114:src/buddyAllocator.cpp ****     while(x < num)
 462              		.loc 1 114 5
GAS LISTING /tmp/ccx9O3zd.s 			page 14


 114:src/buddyAllocator.cpp ****     while(x < num)
 463              		.loc 1 114 12 is_stmt 0
 464 02d8 93040000 		li	s1,0
 113:src/buddyAllocator.cpp ****     size_t deg = 0;
 465              		.loc 1 113 12
 466 02dc 93071000 		li	a5,1
 467              	.LVL49:
 468              	.L27:
 115:src/buddyAllocator.cpp ****     {
 469              		.loc 1 115 5 is_stmt 1
 115:src/buddyAllocator.cpp ****     {
 470              		.loc 1 115 13
 471 02e0 63F8C700 		bleu	a2,a5,.L26
 117:src/buddyAllocator.cpp ****         x<<=1;
 472              		.loc 1 117 9
 117:src/buddyAllocator.cpp ****         x<<=1;
 473              		.loc 1 117 12 is_stmt 0
 474 02e4 93841400 		addi	s1,s1,1
 475              	.LVL50:
 118:src/buddyAllocator.cpp ****     }
 476              		.loc 1 118 9 is_stmt 1
 118:src/buddyAllocator.cpp ****     }
 477              		.loc 1 118 10 is_stmt 0
 478 02e8 93971700 		slli	a5,a5,1
 479              	.LVL51:
 115:src/buddyAllocator.cpp ****     {
 480              		.loc 1 115 5
 481 02ec 6FF05FFF 		j	.L27
 482              	.L26:
 120:src/buddyAllocator.cpp **** }
 483              		.loc 1 120 5 is_stmt 1
 484              	.LVL52:
 485              	.LBE40:
 486              	.LBE39:
 128:src/buddyAllocator.cpp ****     {
 487              		.loc 1 128 5
 128:src/buddyAllocator.cpp ****     {
 488              		.loc 1 128 24 is_stmt 0
 489 02f0 83378901 		ld	a5,24(s2)
 128:src/buddyAllocator.cpp ****     {
 490              		.loc 1 128 5
 491 02f4 638E9702 		beq	a5,s1,.L39
 133:src/buddyAllocator.cpp ****     buddyBlock* curr = buddy->bucket[level].first;
 492              		.loc 1 133 5 is_stmt 1
 133:src/buddyAllocator.cpp ****     buddyBlock* curr = buddy->bucket[level].first;
 493              		.loc 1 133 46 is_stmt 0
 494 02f8 93850400 		mv	a1,s1
 495              	.LVL53:
 496 02fc 13850900 		mv	a0,s3
 497              	.LVL54:
 498 0300 97000000 		call	_Z17getBuddyBlockAddrPvm
 498      E7800000 
 499              	.LVL55:
 134:src/buddyAllocator.cpp ****     buddyBlock* prev = nullptr;
 500              		.loc 1 134 5 is_stmt 1
 134:src/buddyAllocator.cpp ****     buddyBlock* prev = nullptr;
 501              		.loc 1 134 17 is_stmt 0
GAS LISTING /tmp/ccx9O3zd.s 			page 15


 502 0308 93872400 		addi	a5,s1,2
 503 030c 93974700 		slli	a5,a5,4
 504 0310 B307F900 		add	a5,s2,a5
 505 0314 83B70700 		ld	a5,0(a5)
 506              	.LVL56:
 135:src/buddyAllocator.cpp ****     while(curr != nullptr)
 507              		.loc 1 135 5 is_stmt 1
 135:src/buddyAllocator.cpp ****     while(curr != nullptr)
 508              		.loc 1 135 17 is_stmt 0
 509 0318 13070000 		li	a4,0
 510              	.LVL57:
 511              	.L37:
 136:src/buddyAllocator.cpp ****     {
 512              		.loc 1 136 5 is_stmt 1
 136:src/buddyAllocator.cpp ****     {
 513              		.loc 1 136 16
 514 031c 638C070C 		beqz	a5,.L30
 138:src/buddyAllocator.cpp ****         {
 515              		.loc 1 138 9
 516 0320 6384A702 		beq	a5,a0,.L40
 158:src/buddyAllocator.cpp ****         curr = curr->next;
 517              		.loc 1 158 9
 518              	.LVL58:
 159:src/buddyAllocator.cpp ****     }
 519              		.loc 1 159 9
 158:src/buddyAllocator.cpp ****         curr = curr->next;
 520              		.loc 1 158 14 is_stmt 0
 521 0324 13870700 		mv	a4,a5
 159:src/buddyAllocator.cpp ****     }
 522              		.loc 1 159 14
 523 0328 83B70700 		ld	a5,0(a5)
 524              	.LVL59:
 136:src/buddyAllocator.cpp ****     {
 525              		.loc 1 136 5
 526 032c 6FF01FFF 		j	.L37
 527              	.LVL60:
 528              	.L39:
 130:src/buddyAllocator.cpp ****         return;
 529              		.loc 1 130 9 is_stmt 1
 130:src/buddyAllocator.cpp ****         return;
 530              		.loc 1 130 24 is_stmt 0
 531 0330 13860400 		mv	a2,s1
 532              	.LVL61:
 533 0334 93850900 		mv	a1,s3
 534              	.LVL62:
 535 0338 13050900 		mv	a0,s2
 536              	.LVL63:
 537 033c 97000000 		call	_Z15addBlockToLevelP14buddyAllocatorPvm
 537      E7800000 
 538              	.LVL64:
 131:src/buddyAllocator.cpp ****     }
 539              		.loc 1 131 9 is_stmt 1
 540 0344 6F00400C 		j	.L25
 541              	.LVL65:
 542              	.L40:
 140:src/buddyAllocator.cpp ****             {
 543              		.loc 1 140 13
GAS LISTING /tmp/ccx9O3zd.s 			page 16


 544 0348 630C0704 		beqz	a4,.L32
 142:src/buddyAllocator.cpp ****                 if(curr == buddy->bucket[level].last)
 545              		.loc 1 142 17
 142:src/buddyAllocator.cpp ****                 if(curr == buddy->bucket[level].last)
 546              		.loc 1 142 36 is_stmt 0
 547 034c 83B60700 		ld	a3,0(a5)
 142:src/buddyAllocator.cpp ****                 if(curr == buddy->bucket[level].last)
 548              		.loc 1 142 28
 549 0350 2330D700 		sd	a3,0(a4)
 143:src/buddyAllocator.cpp ****                     buddy->bucket[level].last = prev;
 550              		.loc 1 143 17 is_stmt 1
 143:src/buddyAllocator.cpp ****                     buddy->bucket[level].last = prev;
 551              		.loc 1 143 49 is_stmt 0
 552 0354 93862400 		addi	a3,s1,2
 553 0358 93964600 		slli	a3,a3,4
 554 035c B306D900 		add	a3,s2,a3
 555 0360 83B68600 		ld	a3,8(a3)
 143:src/buddyAllocator.cpp ****                     buddy->bucket[level].last = prev;
 556              		.loc 1 143 17
 557 0364 6384F602 		beq	a3,a5,.L41
 558              	.LVL66:
 559              	.L33:
 153:src/buddyAllocator.cpp ****             else addBlocks(buddy, (void*)buddyBlockAddr, 1 << (level + 1));
 560              		.loc 1 153 13 is_stmt 1
 561 0368 63F6A906 		bgeu	s3,a0,.L35
 153:src/buddyAllocator.cpp ****             else addBlocks(buddy, (void*)buddyBlockAddr, 1 << (level + 1));
 562              		.loc 1 153 47 discriminator 1
 153:src/buddyAllocator.cpp ****             else addBlocks(buddy, (void*)buddyBlockAddr, 1 << (level + 1));
 563              		.loc 1 153 82 is_stmt 0 discriminator 1
 564 036c 9B841400 		addiw	s1,s1,1
 565              	.LVL67:
 153:src/buddyAllocator.cpp ****             else addBlocks(buddy, (void*)buddyBlockAddr, 1 << (level + 1));
 566              		.loc 1 153 56 discriminator 1
 567 0370 13061000 		li	a2,1
 568 0374 3B169600 		sllw	a2,a2,s1
 569 0378 93850900 		mv	a1,s3
 570 037c 13050900 		mv	a0,s2
 571              	.LVL68:
 572 0380 97000000 		call	_Z9addBlocksP14buddyAllocatorPvm
 572      E7800000 
 573              	.LVL69:
 574 0388 6F000008 		j	.L25
 575              	.LVL70:
 576              	.L41:
 144:src/buddyAllocator.cpp ****             }
 577              		.loc 1 144 21 is_stmt 1
 144:src/buddyAllocator.cpp ****             }
 578              		.loc 1 144 47 is_stmt 0
 579 038c 93872400 		addi	a5,s1,2
 580              	.LVL71:
 581 0390 93974700 		slli	a5,a5,4
 582 0394 B307F900 		add	a5,s2,a5
 583 0398 23B4E700 		sd	a4,8(a5)
 584 039c 6FF0DFFC 		j	.L33
 585              	.LVL72:
 586              	.L32:
 148:src/buddyAllocator.cpp ****                     buddy->bucket[level].first = buddy->bucket[level].last = nullptr;
GAS LISTING /tmp/ccx9O3zd.s 			page 17


 587              		.loc 1 148 17 is_stmt 1
 148:src/buddyAllocator.cpp ****                     buddy->bucket[level].first = buddy->bucket[level].last = nullptr;
 588              		.loc 1 148 26 is_stmt 0
 589 03a0 03B70700 		ld	a4,0(a5)
 590              	.LVL73:
 148:src/buddyAllocator.cpp ****                     buddy->bucket[level].first = buddy->bucket[level].last = nullptr;
 591              		.loc 1 148 17
 592 03a4 630C0700 		beqz	a4,.L42
 151:src/buddyAllocator.cpp ****             }
 593              		.loc 1 151 21 is_stmt 1
 151:src/buddyAllocator.cpp ****             }
 594              		.loc 1 151 48 is_stmt 0
 595 03a8 93872400 		addi	a5,s1,2
 596              	.LVL74:
 597 03ac 93974700 		slli	a5,a5,4
 598 03b0 B307F900 		add	a5,s2,a5
 599 03b4 23B0E700 		sd	a4,0(a5)
 600 03b8 6FF01FFB 		j	.L33
 601              	.LVL75:
 602              	.L42:
 149:src/buddyAllocator.cpp ****                 else
 603              		.loc 1 149 21 is_stmt 1
 149:src/buddyAllocator.cpp ****                 else
 604              		.loc 1 149 76 is_stmt 0
 605 03bc 93872400 		addi	a5,s1,2
 606              	.LVL76:
 607 03c0 93974700 		slli	a5,a5,4
 608 03c4 B307F900 		add	a5,s2,a5
 609 03c8 23B40700 		sd	zero,8(a5)
 149:src/buddyAllocator.cpp ****                 else
 610              		.loc 1 149 48
 611 03cc 23B00700 		sd	zero,0(a5)
 612 03d0 6FF09FF9 		j	.L33
 613              	.L35:
 154:src/buddyAllocator.cpp ****             return;
 614              		.loc 1 154 18 is_stmt 1
 154:src/buddyAllocator.cpp ****             return;
 615              		.loc 1 154 70 is_stmt 0
 616 03d4 9B841400 		addiw	s1,s1,1
 617              	.LVL77:
 154:src/buddyAllocator.cpp ****             return;
 618              		.loc 1 154 27
 619 03d8 13061000 		li	a2,1
 620 03dc 3B169600 		sllw	a2,a2,s1
 621 03e0 93050500 		mv	a1,a0
 622 03e4 13050900 		mv	a0,s2
 623              	.LVL78:
 624 03e8 97000000 		call	_Z9addBlocksP14buddyAllocatorPvm
 624      E7800000 
 625              	.LVL79:
 155:src/buddyAllocator.cpp ****         }
 626              		.loc 1 155 13 is_stmt 1
 627 03f0 6F008001 		j	.L25
 628              	.LVL80:
 629              	.L30:
 162:src/buddyAllocator.cpp **** }
 630              		.loc 1 162 5
GAS LISTING /tmp/ccx9O3zd.s 			page 18


 162:src/buddyAllocator.cpp **** }
 631              		.loc 1 162 20 is_stmt 0
 632 03f4 13860400 		mv	a2,s1
 633 03f8 93850900 		mv	a1,s3
 634 03fc 13050900 		mv	a0,s2
 635              	.LVL81:
 636 0400 97000000 		call	_Z15addBlockToLevelP14buddyAllocatorPvm
 636      E7800000 
 637              	.LVL82:
 638              	.L25:
 163:src/buddyAllocator.cpp **** 
 639              		.loc 1 163 1
 640 0408 83308102 		ld	ra,40(sp)
 641              		.cfi_restore 1
 642 040c 03340102 		ld	s0,32(sp)
 643              		.cfi_restore 8
 644              		.cfi_def_cfa 2, 48
 645 0410 83348101 		ld	s1,24(sp)
 646              		.cfi_restore 9
 647 0414 03390101 		ld	s2,16(sp)
 648              		.cfi_restore 18
 649              	.LVL83:
 650 0418 83398100 		ld	s3,8(sp)
 651              		.cfi_restore 19
 652              	.LVL84:
 653 041c 13010103 		addi	sp,sp,48
 654              		.cfi_def_cfa_offset 0
 655 0420 67800000 		jr	ra
 656              		.cfi_endproc
 657              	.LFE13:
 659              		.section	.rodata.str1.8
 660 0039 00000000 		.align	3
 660      000000
 661              	.LC4:
 662 0040 42756464 		.string	"Buddy initialization\n"
 662      7920696E 
 662      69746961 
 662      6C697A61 
 662      74696F6E 
 663 0056 0000     		.align	3
 664              	.LC5:
 665 0058 42756464 		.string	"Buddy starting address: "
 665      79207374 
 665      61727469 
 665      6E672061 
 665      64647265 
 666              		.text
 667              		.align	2
 668              		.globl	_Z10buddy_initPvm
 670              	_Z10buddy_initPvm:
 671              	.LFB5:
   7:src/buddyAllocator.cpp ****     KConsole::trapPrintString("Buddy initialization\n");
 672              		.loc 1 7 1 is_stmt 1
 673              		.cfi_startproc
 674              	.LVL85:
 675 0424 130101FD 		addi	sp,sp,-48
 676              		.cfi_def_cfa_offset 48
GAS LISTING /tmp/ccx9O3zd.s 			page 19


 677 0428 23341102 		sd	ra,40(sp)
 678 042c 23308102 		sd	s0,32(sp)
 679 0430 233C9100 		sd	s1,24(sp)
 680 0434 23382101 		sd	s2,16(sp)
 681 0438 23343101 		sd	s3,8(sp)
 682              		.cfi_offset 1, -8
 683              		.cfi_offset 8, -16
 684              		.cfi_offset 9, -24
 685              		.cfi_offset 18, -32
 686              		.cfi_offset 19, -40
 687 043c 13040103 		addi	s0,sp,48
 688              		.cfi_def_cfa 8, 0
 689 0440 13090500 		mv	s2,a0
 690 0444 93890500 		mv	s3,a1
   8:src/buddyAllocator.cpp ****     size_t blockAddr = getBlockAddr((size_t)addr);
 691              		.loc 1 8 5
   8:src/buddyAllocator.cpp ****     size_t blockAddr = getBlockAddr((size_t)addr);
 692              		.loc 1 8 30 is_stmt 0
 693 0448 17050000 		lla	a0,.LC4
 693      13050500 
 694              	.LVL86:
 695 0450 97000000 		call	_ZN8KConsole15trapPrintStringEPKc@plt
 695      E7800000 
 696              	.LVL87:
   9:src/buddyAllocator.cpp ****     size_t buddyAddr = (size_t)addr;
 697              		.loc 1 9 5 is_stmt 1
   9:src/buddyAllocator.cpp ****     size_t buddyAddr = (size_t)addr;
 698              		.loc 1 9 36 is_stmt 0
 699 0458 93040900 		mv	s1,s2
 700              	.LVL88:
 701              	.LBB41:
 702              	.LBB42:
  90:src/buddyAllocator.cpp ****     return addr & mask;
 703              		.loc 1 90 5 is_stmt 1
  91:src/buddyAllocator.cpp **** }
 704              		.loc 1 91 5
  91:src/buddyAllocator.cpp **** }
 705              		.loc 1 91 19 is_stmt 0
 706 045c 37F5FFFF 		li	a0,-4096
 707 0460 3379A900 		and	s2,s2,a0
 708              	.LVL89:
 709              	.LBE42:
 710              	.LBE41:
  10:src/buddyAllocator.cpp ****     if((size_t)addr != blockAddr) // if start address not aligned
 711              		.loc 1 10 5 is_stmt 1
  11:src/buddyAllocator.cpp ****     {
 712              		.loc 1 11 5
 713 0464 63882401 		beq	s1,s2,.L44
  13:src/buddyAllocator.cpp ****         numOfBlocks--;
 714              		.loc 1 13 9
 715              	.LVL90:
 716              	.LBB43:
 717              	.LBB44:
  95:src/buddyAllocator.cpp ****     return currBlock + BLOCK_SIZE;
 718              		.loc 1 95 5
 719              	.LBE44:
 720              	.LBE43:
GAS LISTING /tmp/ccx9O3zd.s 			page 20


  90:src/buddyAllocator.cpp ****     return addr & mask;
 721              		.loc 1 90 5
  91:src/buddyAllocator.cpp **** }
 722              		.loc 1 91 5
 723              	.LBB46:
 724              	.LBB45:
  96:src/buddyAllocator.cpp **** }
 725              		.loc 1 96 5
  96:src/buddyAllocator.cpp **** }
 726              		.loc 1 96 24 is_stmt 0
 727 0468 B7140000 		li	s1,4096
 728              	.LVL91:
 729 046c B3049900 		add	s1,s2,s1
 730              	.LVL92:
 731              	.LBE45:
 732              	.LBE46:
  14:src/buddyAllocator.cpp ****     }
 733              		.loc 1 14 9 is_stmt 1
  14:src/buddyAllocator.cpp ****     }
 734              		.loc 1 14 20 is_stmt 0
 735 0470 9389F9FF 		addi	s3,s3,-1
 736              	.LVL93:
 737              	.L44:
  16:src/buddyAllocator.cpp ****     KConsole::trapPrintInt(buddyAddr); KConsole::trapPrintString("\n");
 738              		.loc 1 16 5 is_stmt 1
  16:src/buddyAllocator.cpp ****     KConsole::trapPrintInt(buddyAddr); KConsole::trapPrintString("\n");
 739              		.loc 1 16 30 is_stmt 0
 740 0474 17050000 		lla	a0,.LC5
 740      13050500 
 741 047c 97000000 		call	_ZN8KConsole15trapPrintStringEPKc@plt
 741      E7800000 
 742              	.LVL94:
  17:src/buddyAllocator.cpp ****     numOfBlocks--; // take one block for buddy metadata
 743              		.loc 1 17 5 is_stmt 1
  17:src/buddyAllocator.cpp ****     numOfBlocks--; // take one block for buddy metadata
 744              		.loc 1 17 27 is_stmt 0
 745 0484 13060000 		li	a2,0
 746 0488 9305A000 		li	a1,10
 747 048c 1B850400 		sext.w	a0,s1
 748 0490 97000000 		call	_ZN8KConsole12trapPrintIntEiii@plt
 748      E7800000 
 749              	.LVL95:
  17:src/buddyAllocator.cpp ****     numOfBlocks--; // take one block for buddy metadata
 750              		.loc 1 17 40 is_stmt 1
  17:src/buddyAllocator.cpp ****     numOfBlocks--; // take one block for buddy metadata
 751              		.loc 1 17 65 is_stmt 0
 752 0498 17050000 		lla	a0,.LC1
 752      13050500 
 753 04a0 97000000 		call	_ZN8KConsole15trapPrintStringEPKc@plt
 753      E7800000 
 754              	.LVL96:
  18:src/buddyAllocator.cpp ****     buddyAllocator* buddy = (buddyAllocator*)buddyAddr;
 755              		.loc 1 18 5 is_stmt 1
  18:src/buddyAllocator.cpp ****     buddyAllocator* buddy = (buddyAllocator*)buddyAddr;
 756              		.loc 1 18 16 is_stmt 0
 757 04a8 9389F9FF 		addi	s3,s3,-1
 758              	.LVL97:
GAS LISTING /tmp/ccx9O3zd.s 			page 21


  19:src/buddyAllocator.cpp ****     buddy->startAddr = (void*)getNextBlockAddr(buddyAddr);
 759              		.loc 1 19 5 is_stmt 1
  19:src/buddyAllocator.cpp ****     buddy->startAddr = (void*)getNextBlockAddr(buddyAddr);
 760              		.loc 1 19 21 is_stmt 0
 761 04ac 13890400 		mv	s2,s1
 762              	.LVL98:
  20:src/buddyAllocator.cpp ****     buddy->numOfBlocks = numOfBlocks;
 763              		.loc 1 20 5 is_stmt 1
 764              	.LBB47:
 765              	.LBB48:
  95:src/buddyAllocator.cpp ****     return currBlock + BLOCK_SIZE;
 766              		.loc 1 95 5
 767              	.LBB49:
 768              	.LBB50:
  90:src/buddyAllocator.cpp ****     return addr & mask;
 769              		.loc 1 90 5
  91:src/buddyAllocator.cpp **** }
 770              		.loc 1 91 5
  91:src/buddyAllocator.cpp **** }
 771              		.loc 1 91 19 is_stmt 0
 772 04b0 B7F7FFFF 		li	a5,-4096
 773              	.LVL99:
 774 04b4 B3F7F400 		and	a5,s1,a5
 775              	.LVL100:
 776              	.LBE50:
 777              	.LBE49:
  96:src/buddyAllocator.cpp **** }
 778              		.loc 1 96 5 is_stmt 1
  96:src/buddyAllocator.cpp **** }
 779              		.loc 1 96 24 is_stmt 0
 780 04b8 37170000 		li	a4,4096
 781 04bc B387E700 		add	a5,a5,a4
 782              	.LVL101:
 783              	.LBE48:
 784              	.LBE47:
  20:src/buddyAllocator.cpp ****     buddy->numOfBlocks = numOfBlocks;
 785              		.loc 1 20 22
 786 04c0 23B4F400 		sd	a5,8(s1)
  21:src/buddyAllocator.cpp ****     buddy->numOfFreeBlocks = numOfBlocks;
 787              		.loc 1 21 5 is_stmt 1
  21:src/buddyAllocator.cpp ****     buddy->numOfFreeBlocks = numOfBlocks;
 788              		.loc 1 21 24 is_stmt 0
 789 04c4 23B03401 		sd	s3,0(s1)
  22:src/buddyAllocator.cpp ****     buddy->maxLevel = getDeg2Floor(numOfBlocks);
 790              		.loc 1 22 5 is_stmt 1
  22:src/buddyAllocator.cpp ****     buddy->maxLevel = getDeg2Floor(numOfBlocks);
 791              		.loc 1 22 28 is_stmt 0
 792 04c8 23B83401 		sd	s3,16(s1)
  23:src/buddyAllocator.cpp **** 
 793              		.loc 1 23 5 is_stmt 1
 794              	.LVL102:
 795              	.LBB51:
 796              	.LBB52:
 102:src/buddyAllocator.cpp ****     while(x <= num)
 797              		.loc 1 102 12 is_stmt 0
 798 04cc 93070000 		li	a5,0
 799              	.LVL103:
GAS LISTING /tmp/ccx9O3zd.s 			page 22


 101:src/buddyAllocator.cpp ****     size_t deg = 0;
 800              		.loc 1 101 12
 801 04d0 13071000 		li	a4,1
 802              	.L46:
 803              	.LVL104:
 103:src/buddyAllocator.cpp ****     {
 804              		.loc 1 103 5 is_stmt 1
 103:src/buddyAllocator.cpp ****     {
 805              		.loc 1 103 13
 806 04d4 63E8E900 		bgtu	a4,s3,.L45
 105:src/buddyAllocator.cpp ****         x<<=1;
 807              		.loc 1 105 9
 105:src/buddyAllocator.cpp ****         x<<=1;
 808              		.loc 1 105 12 is_stmt 0
 809 04d8 93871700 		addi	a5,a5,1
 810              	.LVL105:
 106:src/buddyAllocator.cpp ****     }
 811              		.loc 1 106 9 is_stmt 1
 106:src/buddyAllocator.cpp ****     }
 812              		.loc 1 106 10 is_stmt 0
 813 04dc 13171700 		slli	a4,a4,1
 814              	.LVL106:
 103:src/buddyAllocator.cpp ****     {
 815              		.loc 1 103 5
 816 04e0 6FF05FFF 		j	.L46
 817              	.L45:
 108:src/buddyAllocator.cpp **** }
 818              		.loc 1 108 5 is_stmt 1
 108:src/buddyAllocator.cpp **** }
 819              		.loc 1 108 18 is_stmt 0
 820 04e4 9386F7FF 		addi	a3,a5,-1
 821              	.LVL107:
 822              	.LBE52:
 823              	.LBE51:
  23:src/buddyAllocator.cpp **** 
 824              		.loc 1 23 21
 825 04e8 233CD900 		sd	a3,24(s2)
  25:src/buddyAllocator.cpp ****         buddy->bucket[i].first = buddy->bucket[i].last = nullptr;
 826              		.loc 1 25 5 is_stmt 1
 827              	.LVL108:
 828              	.LBB53:
  25:src/buddyAllocator.cpp ****         buddy->bucket[i].first = buddy->bucket[i].last = nullptr;
 829              		.loc 1 25 16 is_stmt 0
 830 04ec 13070000 		li	a4,0
 831              	.LVL109:
 832              	.L48:
  25:src/buddyAllocator.cpp ****         buddy->bucket[i].first = buddy->bucket[i].last = nullptr;
 833              		.loc 1 25 25 is_stmt 1 discriminator 3
 834 04f0 63E0E602 		bgtu	a4,a3,.L50
  26:src/buddyAllocator.cpp **** 
 835              		.loc 1 26 9 discriminator 2
  26:src/buddyAllocator.cpp **** 
 836              		.loc 1 26 56 is_stmt 0 discriminator 2
 837 04f4 93072700 		addi	a5,a4,2
 838 04f8 93974700 		slli	a5,a5,4
 839 04fc B307F900 		add	a5,s2,a5
 840 0500 23B40700 		sd	zero,8(a5)
GAS LISTING /tmp/ccx9O3zd.s 			page 23


  26:src/buddyAllocator.cpp **** 
 841              		.loc 1 26 32 discriminator 2
 842 0504 23B00700 		sd	zero,0(a5)
  25:src/buddyAllocator.cpp ****         buddy->bucket[i].first = buddy->bucket[i].last = nullptr;
 843              		.loc 1 25 5 is_stmt 1 discriminator 2
 844 0508 13071700 		addi	a4,a4,1
 845              	.LVL110:
 846 050c 6FF05FFE 		j	.L48
 847              	.L50:
 848              	.LBE53:
 849              	.LBB54:
  30:src/buddyAllocator.cpp ****         addBlocks(buddy, (block*)buddy->startAddr + i, 1);
 850              		.loc 1 30 16 is_stmt 0
 851 0510 93040000 		li	s1,0
 852              	.LVL111:
 853              	.L47:
  30:src/buddyAllocator.cpp ****         addBlocks(buddy, (block*)buddy->startAddr + i, 1);
 854              		.loc 1 30 24 is_stmt 1 discriminator 3
 855 0514 63F43403 		bgeu	s1,s3,.L43
  31:src/buddyAllocator.cpp **** 
 856              		.loc 1 31 9 discriminator 2
  31:src/buddyAllocator.cpp **** 
 857              		.loc 1 31 41 is_stmt 0 discriminator 2
 858 0518 83358900 		ld	a1,8(s2)
  31:src/buddyAllocator.cpp **** 
 859              		.loc 1 31 51 discriminator 2
 860 051c 9397C400 		slli	a5,s1,12
  31:src/buddyAllocator.cpp **** 
 861              		.loc 1 31 18 discriminator 2
 862 0520 13061000 		li	a2,1
 863 0524 B385F500 		add	a1,a1,a5
 864 0528 13050900 		mv	a0,s2
 865 052c 97000000 		call	_Z9addBlocksP14buddyAllocatorPvm
 865      E7800000 
 866              	.LVL112:
  30:src/buddyAllocator.cpp ****         addBlocks(buddy, (block*)buddy->startAddr + i, 1);
 867              		.loc 1 30 5 is_stmt 1 discriminator 2
 868 0534 93841400 		addi	s1,s1,1
 869              	.LVL113:
 870 0538 6FF0DFFD 		j	.L47
 871              	.L43:
 872              	.LBE54:
  34:src/buddyAllocator.cpp **** 
 873              		.loc 1 34 1 is_stmt 0
 874 053c 13050900 		mv	a0,s2
 875 0540 83308102 		ld	ra,40(sp)
 876              		.cfi_restore 1
 877 0544 03340102 		ld	s0,32(sp)
 878              		.cfi_restore 8
 879              		.cfi_def_cfa 2, 48
 880 0548 83348101 		ld	s1,24(sp)
 881              		.cfi_restore 9
 882              	.LVL114:
 883 054c 03390101 		ld	s2,16(sp)
 884              		.cfi_restore 18
 885              	.LVL115:
 886 0550 83398100 		ld	s3,8(sp)
GAS LISTING /tmp/ccx9O3zd.s 			page 24


 887              		.cfi_restore 19
 888              	.LVL116:
 889 0554 13010103 		addi	sp,sp,48
 890              		.cfi_def_cfa_offset 0
 891 0558 67800000 		jr	ra
 892              		.cfi_endproc
 893              	.LFE5:
 895              		.section	.rodata.str1.8
 896 0071 00000000 		.align	3
 896      000000
 897              	.LC6:
 898 0078 42756464 		.string	"Buddy free: "
 898      79206672 
 898      65653A20 
 898      00
 899 0085 000000   		.align	3
 900              	.LC7:
 901 0088 2000     		.string	" "
 902              		.text
 903              		.align	2
 904              		.globl	_Z10buddy_freeP14buddyAllocatorPvm
 906              	_Z10buddy_freeP14buddyAllocatorPvm:
 907              	.LFB8:
  81:src/buddyAllocator.cpp ****     KConsole::trapPrintString("Buddy free: ");
 908              		.loc 1 81 1 is_stmt 1
 909              		.cfi_startproc
 910              	.LVL117:
 911 055c 130101FD 		addi	sp,sp,-48
 912              		.cfi_def_cfa_offset 48
 913 0560 23341102 		sd	ra,40(sp)
 914 0564 23308102 		sd	s0,32(sp)
 915 0568 233C9100 		sd	s1,24(sp)
 916 056c 23382101 		sd	s2,16(sp)
 917 0570 23343101 		sd	s3,8(sp)
 918              		.cfi_offset 1, -8
 919              		.cfi_offset 8, -16
 920              		.cfi_offset 9, -24
 921              		.cfi_offset 18, -32
 922              		.cfi_offset 19, -40
 923 0574 13040103 		addi	s0,sp,48
 924              		.cfi_def_cfa 8, 0
 925 0578 93090500 		mv	s3,a0
 926 057c 93840500 		mv	s1,a1
 927 0580 13090600 		mv	s2,a2
  82:src/buddyAllocator.cpp ****     KConsole::trapPrintInt((size_t)addr); KConsole::trapPrintString(" ");
 928              		.loc 1 82 5
  82:src/buddyAllocator.cpp ****     KConsole::trapPrintInt((size_t)addr); KConsole::trapPrintString(" ");
 929              		.loc 1 82 30 is_stmt 0
 930 0584 17050000 		lla	a0,.LC6
 930      13050500 
 931              	.LVL118:
 932 058c 97000000 		call	_ZN8KConsole15trapPrintStringEPKc@plt
 932      E7800000 
 933              	.LVL119:
  83:src/buddyAllocator.cpp ****     KConsole::trapPrintInt(numOfBlocks); KConsole::trapPrintString("\n");
 934              		.loc 1 83 5 is_stmt 1
  83:src/buddyAllocator.cpp ****     KConsole::trapPrintInt(numOfBlocks); KConsole::trapPrintString("\n");
GAS LISTING /tmp/ccx9O3zd.s 			page 25


 935              		.loc 1 83 27 is_stmt 0
 936 0594 13060000 		li	a2,0
 937 0598 9305A000 		li	a1,10
 938 059c 1B850400 		sext.w	a0,s1
 939 05a0 97000000 		call	_ZN8KConsole12trapPrintIntEiii@plt
 939      E7800000 
 940              	.LVL120:
  83:src/buddyAllocator.cpp ****     KConsole::trapPrintInt(numOfBlocks); KConsole::trapPrintString("\n");
 941              		.loc 1 83 43 is_stmt 1
  83:src/buddyAllocator.cpp ****     KConsole::trapPrintInt(numOfBlocks); KConsole::trapPrintString("\n");
 942              		.loc 1 83 68 is_stmt 0
 943 05a8 17050000 		lla	a0,.LC7
 943      13050500 
 944 05b0 97000000 		call	_ZN8KConsole15trapPrintStringEPKc@plt
 944      E7800000 
 945              	.LVL121:
  84:src/buddyAllocator.cpp ****     addBlocks(buddy, addr, numOfBlocks);
 946              		.loc 1 84 5 is_stmt 1
  84:src/buddyAllocator.cpp ****     addBlocks(buddy, addr, numOfBlocks);
 947              		.loc 1 84 27 is_stmt 0
 948 05b8 13060000 		li	a2,0
 949 05bc 9305A000 		li	a1,10
 950 05c0 1B050900 		sext.w	a0,s2
 951 05c4 97000000 		call	_ZN8KConsole12trapPrintIntEiii@plt
 951      E7800000 
 952              	.LVL122:
  84:src/buddyAllocator.cpp ****     addBlocks(buddy, addr, numOfBlocks);
 953              		.loc 1 84 42 is_stmt 1
  84:src/buddyAllocator.cpp ****     addBlocks(buddy, addr, numOfBlocks);
 954              		.loc 1 84 67 is_stmt 0
 955 05cc 17050000 		lla	a0,.LC1
 955      13050500 
 956 05d4 97000000 		call	_ZN8KConsole15trapPrintStringEPKc@plt
 956      E7800000 
 957              	.LVL123:
  85:src/buddyAllocator.cpp **** }
 958              		.loc 1 85 5 is_stmt 1
  85:src/buddyAllocator.cpp **** }
 959              		.loc 1 85 14 is_stmt 0
 960 05dc 13060900 		mv	a2,s2
 961 05e0 93850400 		mv	a1,s1
 962 05e4 13850900 		mv	a0,s3
 963 05e8 97000000 		call	_Z9addBlocksP14buddyAllocatorPvm
 963      E7800000 
 964              	.LVL124:
  86:src/buddyAllocator.cpp **** 
 965              		.loc 1 86 1
 966 05f0 83308102 		ld	ra,40(sp)
 967              		.cfi_restore 1
 968 05f4 03340102 		ld	s0,32(sp)
 969              		.cfi_restore 8
 970              		.cfi_def_cfa 2, 48
 971 05f8 83348101 		ld	s1,24(sp)
 972              		.cfi_restore 9
 973              	.LVL125:
 974 05fc 03390101 		ld	s2,16(sp)
 975              		.cfi_restore 18
GAS LISTING /tmp/ccx9O3zd.s 			page 26


 976              	.LVL126:
 977 0600 83398100 		ld	s3,8(sp)
 978              		.cfi_restore 19
 979              	.LVL127:
 980 0604 13010103 		addi	sp,sp,48
 981              		.cfi_def_cfa_offset 0
 982 0608 67800000 		jr	ra
 983              		.cfi_endproc
 984              	.LFE8:
 986              		.section	.rodata.str1.8
 987 008a 00000000 		.align	3
 987      0000
 988              	.LC8:
 989 0090 42756464 		.string	"Buddy info\n--------------\n"
 989      7920696E 
 989      666F0A2D 
 989      2D2D2D2D 
 989      2D2D2D2D 
 990 00ab 00000000 		.align	3
 990      00
 991              	.LC9:
 992 00b0 4C657665 		.string	"Level "
 992      6C2000
 993 00b7 00       		.align	3
 994              	.LC10:
 995 00b8 46726565 		.string	"Free blocks on this level\n"
 995      20626C6F 
 995      636B7320 
 995      6F6E2074 
 995      68697320 
 996              		.text
 997              		.align	2
 998              		.globl	_Z14printBuddyInfoP14buddyAllocator
 1000              	_Z14printBuddyInfoP14buddyAllocator:
 1001              	.LFB16:
 184:src/buddyAllocator.cpp **** 
 185:src/buddyAllocator.cpp **** void printBuddyInfo(buddyAllocator* buddy)
 186:src/buddyAllocator.cpp **** {
 1002              		.loc 1 186 1 is_stmt 1
 1003              		.cfi_startproc
 1004              	.LVL128:
 1005 060c 130101FD 		addi	sp,sp,-48
 1006              		.cfi_def_cfa_offset 48
 1007 0610 23341102 		sd	ra,40(sp)
 1008 0614 23308102 		sd	s0,32(sp)
 1009 0618 233C9100 		sd	s1,24(sp)
 1010 061c 23382101 		sd	s2,16(sp)
 1011 0620 23343101 		sd	s3,8(sp)
 1012              		.cfi_offset 1, -8
 1013              		.cfi_offset 8, -16
 1014              		.cfi_offset 9, -24
 1015              		.cfi_offset 18, -32
 1016              		.cfi_offset 19, -40
 1017 0624 13040103 		addi	s0,sp,48
 1018              		.cfi_def_cfa 8, 0
 1019 0628 93090500 		mv	s3,a0
 187:src/buddyAllocator.cpp ****     KConsole::trapPrintString("Buddy info\n--------------\n");
GAS LISTING /tmp/ccx9O3zd.s 			page 27


 1020              		.loc 1 187 5
 1021              		.loc 1 187 30 is_stmt 0
 1022 062c 17050000 		lla	a0,.LC8
 1022      13050500 
 1023              	.LVL129:
 1024 0634 97000000 		call	_ZN8KConsole15trapPrintStringEPKc@plt
 1024      E7800000 
 1025              	.LVL130:
 188:src/buddyAllocator.cpp ****     for(int i = buddy->maxLevel;i>=0;i--)
 1026              		.loc 1 188 5 is_stmt 1
 1027              	.LBB55:
 1028              		.loc 1 188 13 is_stmt 0
 1029 063c 03A98901 		lw	s2,24(s3)
 1030              	.LVL131:
 1031 0640 6F008000 		j	.L58
 1032              	.LVL132:
 1033              	.L56:
 1034              		.loc 1 188 5 is_stmt 1 discriminator 2
 1035 0644 1B09F9FF 		addiw	s2,s2,-1
 1036              	.LVL133:
 1037              	.L58:
 1038              		.loc 1 188 34 discriminator 1
 1039 0648 63440908 		bltz	s2,.L54
 1040              	.LBB56:
 189:src/buddyAllocator.cpp ****     {
 190:src/buddyAllocator.cpp ****         KConsole::trapPrintString("Level ");
 1041              		.loc 1 190 9
 1042              		.loc 1 190 34 is_stmt 0
 1043 064c 17050000 		lla	a0,.LC9
 1043      13050500 
 1044 0654 97000000 		call	_ZN8KConsole15trapPrintStringEPKc@plt
 1044      E7800000 
 1045              	.LVL134:
 191:src/buddyAllocator.cpp ****         KConsole::trapPrintInt(i);KConsole::trapPrintString("\n");
 1046              		.loc 1 191 9 is_stmt 1
 1047              		.loc 1 191 31 is_stmt 0
 1048 065c 13060000 		li	a2,0
 1049 0660 9305A000 		li	a1,10
 1050 0664 13050900 		mv	a0,s2
 1051 0668 97000000 		call	_ZN8KConsole12trapPrintIntEiii@plt
 1051      E7800000 
 1052              	.LVL135:
 1053              		.loc 1 191 35 is_stmt 1
 1054              		.loc 1 191 60 is_stmt 0
 1055 0670 17050000 		lla	a0,.LC1
 1055      13050500 
 1056 0678 97000000 		call	_ZN8KConsole15trapPrintStringEPKc@plt
 1056      E7800000 
 1057              	.LVL136:
 192:src/buddyAllocator.cpp ****         KConsole::trapPrintString("Free blocks on this level\n");
 1058              		.loc 1 192 9 is_stmt 1
 1059              		.loc 1 192 34 is_stmt 0
 1060 0680 17050000 		lla	a0,.LC10
 1060      13050500 
 1061 0688 97000000 		call	_ZN8KConsole15trapPrintStringEPKc@plt
 1061      E7800000 
 1062              	.LVL137:
GAS LISTING /tmp/ccx9O3zd.s 			page 28


 193:src/buddyAllocator.cpp ****         buddyBlock* curr = buddy->bucket[i].first;
 1063              		.loc 1 193 9 is_stmt 1
 1064              		.loc 1 193 21 is_stmt 0
 1065 0690 93072900 		addi	a5,s2,2
 1066 0694 93974700 		slli	a5,a5,4
 1067 0698 B387F900 		add	a5,s3,a5
 1068 069c 83B40700 		ld	s1,0(a5)
 1069              	.LVL138:
 1070              	.L57:
 194:src/buddyAllocator.cpp ****         while(curr != 0)
 1071              		.loc 1 194 9 is_stmt 1
 1072              		.loc 1 194 20
 1073 06a0 E38204FA 		beqz	s1,.L56
 195:src/buddyAllocator.cpp ****         {
 196:src/buddyAllocator.cpp ****             KConsole::trapPrintInt((size_t)curr);
 1074              		.loc 1 196 13
 1075              		.loc 1 196 35 is_stmt 0
 1076 06a4 13060000 		li	a2,0
 1077 06a8 9305A000 		li	a1,10
 1078 06ac 1B850400 		sext.w	a0,s1
 1079 06b0 97000000 		call	_ZN8KConsole12trapPrintIntEiii@plt
 1079      E7800000 
 1080              	.LVL139:
 197:src/buddyAllocator.cpp ****             KConsole::trapPrintString("\n");
 1081              		.loc 1 197 13 is_stmt 1
 1082              		.loc 1 197 38 is_stmt 0
 1083 06b8 17050000 		lla	a0,.LC1
 1083      13050500 
 1084 06c0 97000000 		call	_ZN8KConsole15trapPrintStringEPKc@plt
 1084      E7800000 
 1085              	.LVL140:
 198:src/buddyAllocator.cpp ****             curr = curr->next;
 1086              		.loc 1 198 13 is_stmt 1
 1087              		.loc 1 198 18 is_stmt 0
 1088 06c8 83B40400 		ld	s1,0(s1)
 1089              	.LVL141:
 194:src/buddyAllocator.cpp ****         {
 1090              		.loc 1 194 9
 1091 06cc 6FF05FFD 		j	.L57
 1092              	.LVL142:
 1093              	.L54:
 1094              	.LBE56:
 1095              	.LBE55:
 199:src/buddyAllocator.cpp ****         }
 200:src/buddyAllocator.cpp ****     }
 201:src/buddyAllocator.cpp **** }...
 1096              		.loc 1 201 1
 1097 06d0 83308102 		ld	ra,40(sp)
 1098              		.cfi_restore 1
 1099 06d4 03340102 		ld	s0,32(sp)
 1100              		.cfi_restore 8
 1101              		.cfi_def_cfa 2, 48
 1102 06d8 83348101 		ld	s1,24(sp)
 1103              		.cfi_restore 9
 1104 06dc 03390101 		ld	s2,16(sp)
 1105              		.cfi_restore 18
 1106              	.LVL143:
GAS LISTING /tmp/ccx9O3zd.s 			page 29


 1107 06e0 83398100 		ld	s3,8(sp)
 1108              		.cfi_restore 19
 1109              	.LVL144:
 1110 06e4 13010103 		addi	sp,sp,48
 1111              		.cfi_def_cfa_offset 0
 1112 06e8 67800000 		jr	ra
 1113              		.cfi_endproc
 1114              	.LFE16:
 1116              	.Letext0:
 1117              		.file 2 "src/../h/../lib/hw.h"
 1118              		.file 3 "src/../h/buddyAllocator.hpp"
 1119              		.file 4 "src/../h/PCB.hpp"
 1120              		.file 5 "src/../h/KSemaphore.hpp"
 1121              		.file 6 "src/../h/KConsole.hpp"
GAS LISTING /tmp/ccx9O3zd.s 			page 30


DEFINED SYMBOLS
                            *ABS*:0000000000000000 buddyAllocator.cpp
     /tmp/ccx9O3zd.s:9      .text:0000000000000000 _Z15addBlockToLevelP14buddyAllocatorPvm
     /tmp/ccx9O3zd.s:13     .text:0000000000000000 .L0 
     /tmp/ccx9O3zd.s:15     .text:0000000000000000 .L0 
     /tmp/ccx9O3zd.s:16     .text:0000000000000004 .L0 
     /tmp/ccx9O3zd.s:18     .text:0000000000000008 .L0 
     /tmp/ccx9O3zd.s:20     .text:000000000000000c .L0 
     /tmp/ccx9O3zd.s:23     .text:000000000000000c .L0 
     /tmp/ccx9O3zd.s:24     .text:000000000000000c .L0 
     /tmp/ccx9O3zd.s:25     .text:000000000000000c .L0 
     /tmp/ccx9O3zd.s:27     .text:0000000000000010 .L0 
     /tmp/ccx9O3zd.s:28     .text:0000000000000010 .L0 
     /tmp/ccx9O3zd.s:33     .text:0000000000000020 .L0 
     /tmp/ccx9O3zd.s:35     .text:0000000000000024 .L0 
     /tmp/ccx9O3zd.s:36     .text:0000000000000024 .L0 
     /tmp/ccx9O3zd.s:43     .text:0000000000000034 .L0 
     /tmp/ccx9O3zd.s:45     .text:0000000000000038 .L0 
     /tmp/ccx9O3zd.s:46     .text:0000000000000038 .L0 
     /tmp/ccx9O3zd.s:49     .text:000000000000003c .L0 
     /tmp/ccx9O3zd.s:50     .text:0000000000000040 .L0 
     /tmp/ccx9O3zd.s:51     .text:0000000000000040 .L0 
     /tmp/ccx9O3zd.s:52     .text:0000000000000040 .L0 
     /tmp/ccx9O3zd.s:54     .text:0000000000000044 .L0 
     /tmp/ccx9O3zd.s:58     .text:0000000000000048 .L0 
     /tmp/ccx9O3zd.s:60     .text:0000000000000048 .L0 
     /tmp/ccx9O3zd.s:61     .text:0000000000000048 .L0 
     /tmp/ccx9O3zd.s:68     .text:0000000000000058 .L0 
     /tmp/ccx9O3zd.s:70     .text:0000000000000060 .L0 
     /tmp/ccx9O3zd.s:76     .text:0000000000000060 _Z17getBuddyBlockAddrPvm
     /tmp/ccx9O3zd.s:79     .text:0000000000000060 .L0 
     /tmp/ccx9O3zd.s:81     .text:0000000000000060 .L0 
     /tmp/ccx9O3zd.s:82     .text:0000000000000064 .L0 
     /tmp/ccx9O3zd.s:84     .text:0000000000000068 .L0 
     /tmp/ccx9O3zd.s:86     .text:000000000000006c .L0 
     /tmp/ccx9O3zd.s:88     .text:000000000000006c .L0 
     /tmp/ccx9O3zd.s:89     .text:000000000000006c .L0 
     /tmp/ccx9O3zd.s:92     .text:0000000000000074 .L0 
     /tmp/ccx9O3zd.s:95     .text:000000000000007c .L0 
     /tmp/ccx9O3zd.s:96     .text:000000000000007c .L0 
     /tmp/ccx9O3zd.s:98     .text:0000000000000080 .L0 
     /tmp/ccx9O3zd.s:100    .text:0000000000000084 .L0 
     /tmp/ccx9O3zd.s:106    .text:0000000000000084 _Z5splitP14buddyAllocatorPvmmb
     /tmp/ccx9O3zd.s:109    .text:0000000000000084 .L0 
     /tmp/ccx9O3zd.s:111    .text:0000000000000084 .L0 
     /tmp/ccx9O3zd.s:112    .text:0000000000000088 .L0 
     /tmp/ccx9O3zd.s:119    .text:00000000000000a0 .L0 
     /tmp/ccx9O3zd.s:120    .text:00000000000000a0 .L0 
     /tmp/ccx9O3zd.s:121    .text:00000000000000a0 .L0 
     /tmp/ccx9O3zd.s:122    .text:00000000000000a0 .L0 
     /tmp/ccx9O3zd.s:123    .text:00000000000000a0 .L0 
     /tmp/ccx9O3zd.s:124    .text:00000000000000a0 .L0 
     /tmp/ccx9O3zd.s:126    .text:00000000000000a4 .L0 
     /tmp/ccx9O3zd.s:131    .text:00000000000000ac .L0 
     /tmp/ccx9O3zd.s:135    .text:00000000000000b4 .L0 
     /tmp/ccx9O3zd.s:138    .text:00000000000000b8 .L0 
     /tmp/ccx9O3zd.s:145    .text:00000000000000bc .L0 
GAS LISTING /tmp/ccx9O3zd.s 			page 31


     /tmp/ccx9O3zd.s:146    .text:00000000000000c0 .L0 
     /tmp/ccx9O3zd.s:147    .text:00000000000000c0 .L0 
     /tmp/ccx9O3zd.s:149    .text:00000000000000c4 .L0 
     /tmp/ccx9O3zd.s:150    .text:00000000000000c4 .L0 
     /tmp/ccx9O3zd.s:152    .text:00000000000000c8 .L0 
     /tmp/ccx9O3zd.s:154    .text:00000000000000cc .L0 
     /tmp/ccx9O3zd.s:156    .text:00000000000000d0 .L0 
     /tmp/ccx9O3zd.s:159    .text:00000000000000d4 .L0 
     /tmp/ccx9O3zd.s:162    .text:00000000000000d8 .L0 
     /tmp/ccx9O3zd.s:166    .text:00000000000000dc .L0 
     /tmp/ccx9O3zd.s:169    .text:00000000000000dc .L0 
     /tmp/ccx9O3zd.s:170    .text:00000000000000dc .L0 
     /tmp/ccx9O3zd.s:181    .text:00000000000000ec .L0 
     /tmp/ccx9O3zd.s:182    .text:00000000000000ec .L0 
     /tmp/ccx9O3zd.s:192    .text:0000000000000104 .L0 
     /tmp/ccx9O3zd.s:193    .text:0000000000000104 .L0 
     /tmp/ccx9O3zd.s:201    .text:000000000000011c .L0 
     /tmp/ccx9O3zd.s:202    .text:000000000000011c .L0 
     /tmp/ccx9O3zd.s:214    .text:000000000000013c .L0 
     /tmp/ccx9O3zd.s:234    .text:000000000000013c _Z11buddy_allocP14buddyAllocatorm
     /tmp/ccx9O3zd.s:237    .text:000000000000013c .L0 
     /tmp/ccx9O3zd.s:239    .text:000000000000013c .L0 
     /tmp/ccx9O3zd.s:240    .text:0000000000000140 .L0 
     /tmp/ccx9O3zd.s:247    .text:0000000000000158 .L0 
     /tmp/ccx9O3zd.s:248    .text:0000000000000158 .L0 
     /tmp/ccx9O3zd.s:249    .text:0000000000000158 .L0 
     /tmp/ccx9O3zd.s:250    .text:0000000000000158 .L0 
     /tmp/ccx9O3zd.s:251    .text:0000000000000158 .L0 
     /tmp/ccx9O3zd.s:252    .text:0000000000000158 .L0 
     /tmp/ccx9O3zd.s:254    .text:000000000000015c .L0 
     /tmp/ccx9O3zd.s:258    .text:0000000000000164 .L0 
     /tmp/ccx9O3zd.s:259    .text:0000000000000164 .L0 
     /tmp/ccx9O3zd.s:264    .text:0000000000000174 .L0 
     /tmp/ccx9O3zd.s:265    .text:0000000000000174 .L0 
     /tmp/ccx9O3zd.s:271    .text:0000000000000188 .L0 
     /tmp/ccx9O3zd.s:272    .text:0000000000000188 .L0 
     /tmp/ccx9O3zd.s:278    .text:0000000000000198 .L0 
     /tmp/ccx9O3zd.s:279    .text:0000000000000198 .L0 
     /tmp/ccx9O3zd.s:280    .text:0000000000000198 .L0 
     /tmp/ccx9O3zd.s:281    .text:0000000000000198 .L0 
     /tmp/ccx9O3zd.s:283    .text:000000000000019c .L0 
     /tmp/ccx9O3zd.s:287    .text:00000000000001a0 .L0 
     /tmp/ccx9O3zd.s:288    .text:00000000000001a0 .L0 
     /tmp/ccx9O3zd.s:290    .text:00000000000001a4 .L0 
     /tmp/ccx9O3zd.s:291    .text:00000000000001a4 .L0 
     /tmp/ccx9O3zd.s:294    .text:00000000000001a8 .L0 
     /tmp/ccx9O3zd.s:295    .text:00000000000001a8 .L0 
     /tmp/ccx9O3zd.s:298    .text:00000000000001ac .L0 
     /tmp/ccx9O3zd.s:304    .text:00000000000001b0 .L0 
     /tmp/ccx9O3zd.s:305    .text:00000000000001b0 .L0 
     /tmp/ccx9O3zd.s:306    .text:00000000000001b0 .L0 
     /tmp/ccx9O3zd.s:310    .text:00000000000001c0 .L0 
     /tmp/ccx9O3zd.s:311    .text:00000000000001c0 .L0 
     /tmp/ccx9O3zd.s:317    .text:00000000000001d4 .L0 
     /tmp/ccx9O3zd.s:318    .text:00000000000001d4 .L0 
     /tmp/ccx9O3zd.s:323    .text:00000000000001e4 .L0 
     /tmp/ccx9O3zd.s:324    .text:00000000000001e4 .L0 
GAS LISTING /tmp/ccx9O3zd.s 			page 32


     /tmp/ccx9O3zd.s:328    .text:00000000000001e8 .L0 
     /tmp/ccx9O3zd.s:329    .text:00000000000001e8 .L0 
     /tmp/ccx9O3zd.s:331    .text:00000000000001ec .L0 
     /tmp/ccx9O3zd.s:336    .text:00000000000001f0 .L0 
     /tmp/ccx9O3zd.s:337    .text:00000000000001f0 .L0 
     /tmp/ccx9O3zd.s:342    .text:0000000000000200 .L0 
     /tmp/ccx9O3zd.s:345    .text:0000000000000204 .L0 
     /tmp/ccx9O3zd.s:353    .text:000000000000020c .L0 
     /tmp/ccx9O3zd.s:354    .text:000000000000020c .L0 
     /tmp/ccx9O3zd.s:355    .text:000000000000020c .L0 
     /tmp/ccx9O3zd.s:359    .text:000000000000021c .L0 
     /tmp/ccx9O3zd.s:360    .text:000000000000021c .L0 
     /tmp/ccx9O3zd.s:366    .text:0000000000000230 .L0 
     /tmp/ccx9O3zd.s:367    .text:0000000000000230 .L0 
     /tmp/ccx9O3zd.s:371    .text:0000000000000240 .L0 
     /tmp/ccx9O3zd.s:372    .text:0000000000000240 .L0 
     /tmp/ccx9O3zd.s:374    .text:0000000000000244 .L0 
     /tmp/ccx9O3zd.s:379    .text:0000000000000254 .L0 
     /tmp/ccx9O3zd.s:382    .text:0000000000000258 .L0 
     /tmp/ccx9O3zd.s:383    .text:0000000000000258 .L0 
     /tmp/ccx9O3zd.s:391    .text:0000000000000274 .L0 
     /tmp/ccx9O3zd.s:392    .text:0000000000000274 .L0 
     /tmp/ccx9O3zd.s:395    .text:0000000000000278 .L0 
     /tmp/ccx9O3zd.s:396    .text:0000000000000278 .L0 
     /tmp/ccx9O3zd.s:407    .text:000000000000028c .L0 
     /tmp/ccx9O3zd.s:410    .text:0000000000000290 .L0 
     /tmp/ccx9O3zd.s:412    .text:0000000000000298 .L0 
     /tmp/ccx9O3zd.s:414    .text:000000000000029c .L0 
     /tmp/ccx9O3zd.s:415    .text:000000000000029c .L0 
     /tmp/ccx9O3zd.s:417    .text:00000000000002a0 .L0 
     /tmp/ccx9O3zd.s:420    .text:00000000000002a4 .L0 
     /tmp/ccx9O3zd.s:423    .text:00000000000002a8 .L0 
     /tmp/ccx9O3zd.s:425    .text:00000000000002ac .L0 
     /tmp/ccx9O3zd.s:428    .text:00000000000002b0 .L0 
     /tmp/ccx9O3zd.s:430    .text:00000000000002b4 .L0 
     /tmp/ccx9O3zd.s:436    .text:00000000000002b4 _Z9addBlocksP14buddyAllocatorPvm
     /tmp/ccx9O3zd.s:439    .text:00000000000002b4 .L0 
     /tmp/ccx9O3zd.s:441    .text:00000000000002b4 .L0 
     /tmp/ccx9O3zd.s:442    .text:00000000000002b8 .L0 
     /tmp/ccx9O3zd.s:448    .text:00000000000002cc .L0 
     /tmp/ccx9O3zd.s:449    .text:00000000000002cc .L0 
     /tmp/ccx9O3zd.s:450    .text:00000000000002cc .L0 
     /tmp/ccx9O3zd.s:451    .text:00000000000002cc .L0 
     /tmp/ccx9O3zd.s:452    .text:00000000000002cc .L0 
     /tmp/ccx9O3zd.s:454    .text:00000000000002d0 .L0 
     /tmp/ccx9O3zd.s:461    .text:00000000000002d8 .L0 
     /tmp/ccx9O3zd.s:462    .text:00000000000002d8 .L0 
     /tmp/ccx9O3zd.s:463    .text:00000000000002d8 .L0 
     /tmp/ccx9O3zd.s:464    .text:00000000000002d8 .L0 
     /tmp/ccx9O3zd.s:466    .text:00000000000002dc .L0 
     /tmp/ccx9O3zd.s:470    .text:00000000000002e0 .L0 
     /tmp/ccx9O3zd.s:471    .text:00000000000002e0 .L0 
     /tmp/ccx9O3zd.s:473    .text:00000000000002e4 .L0 
     /tmp/ccx9O3zd.s:474    .text:00000000000002e4 .L0 
     /tmp/ccx9O3zd.s:477    .text:00000000000002e8 .L0 
     /tmp/ccx9O3zd.s:478    .text:00000000000002e8 .L0 
     /tmp/ccx9O3zd.s:481    .text:00000000000002ec .L0 
GAS LISTING /tmp/ccx9O3zd.s 			page 33


     /tmp/ccx9O3zd.s:487    .text:00000000000002f0 .L0 
     /tmp/ccx9O3zd.s:488    .text:00000000000002f0 .L0 
     /tmp/ccx9O3zd.s:489    .text:00000000000002f0 .L0 
     /tmp/ccx9O3zd.s:491    .text:00000000000002f4 .L0 
     /tmp/ccx9O3zd.s:493    .text:00000000000002f8 .L0 
     /tmp/ccx9O3zd.s:494    .text:00000000000002f8 .L0 
     /tmp/ccx9O3zd.s:501    .text:0000000000000308 .L0 
     /tmp/ccx9O3zd.s:502    .text:0000000000000308 .L0 
     /tmp/ccx9O3zd.s:508    .text:0000000000000318 .L0 
     /tmp/ccx9O3zd.s:509    .text:0000000000000318 .L0 
     /tmp/ccx9O3zd.s:513    .text:000000000000031c .L0 
     /tmp/ccx9O3zd.s:514    .text:000000000000031c .L0 
     /tmp/ccx9O3zd.s:516    .text:0000000000000320 .L0 
     /tmp/ccx9O3zd.s:519    .text:0000000000000324 .L0 
     /tmp/ccx9O3zd.s:520    .text:0000000000000324 .L0 
     /tmp/ccx9O3zd.s:521    .text:0000000000000324 .L0 
     /tmp/ccx9O3zd.s:523    .text:0000000000000328 .L0 
     /tmp/ccx9O3zd.s:526    .text:000000000000032c .L0 
     /tmp/ccx9O3zd.s:530    .text:0000000000000330 .L0 
     /tmp/ccx9O3zd.s:531    .text:0000000000000330 .L0 
     /tmp/ccx9O3zd.s:540    .text:0000000000000344 .L0 
     /tmp/ccx9O3zd.s:544    .text:0000000000000348 .L0 
     /tmp/ccx9O3zd.s:546    .text:000000000000034c .L0 
     /tmp/ccx9O3zd.s:547    .text:000000000000034c .L0 
     /tmp/ccx9O3zd.s:549    .text:0000000000000350 .L0 
     /tmp/ccx9O3zd.s:551    .text:0000000000000354 .L0 
     /tmp/ccx9O3zd.s:552    .text:0000000000000354 .L0 
     /tmp/ccx9O3zd.s:557    .text:0000000000000364 .L0 
     /tmp/ccx9O3zd.s:561    .text:0000000000000368 .L0 
     /tmp/ccx9O3zd.s:563    .text:000000000000036c .L0 
     /tmp/ccx9O3zd.s:564    .text:000000000000036c .L0 
     /tmp/ccx9O3zd.s:567    .text:0000000000000370 .L0 
     /tmp/ccx9O3zd.s:578    .text:000000000000038c .L0 
     /tmp/ccx9O3zd.s:579    .text:000000000000038c .L0 
     /tmp/ccx9O3zd.s:588    .text:00000000000003a0 .L0 
     /tmp/ccx9O3zd.s:589    .text:00000000000003a0 .L0 
     /tmp/ccx9O3zd.s:592    .text:00000000000003a4 .L0 
     /tmp/ccx9O3zd.s:594    .text:00000000000003a8 .L0 
     /tmp/ccx9O3zd.s:595    .text:00000000000003a8 .L0 
     /tmp/ccx9O3zd.s:604    .text:00000000000003bc .L0 
     /tmp/ccx9O3zd.s:605    .text:00000000000003bc .L0 
     /tmp/ccx9O3zd.s:611    .text:00000000000003cc .L0 
     /tmp/ccx9O3zd.s:615    .text:00000000000003d4 .L0 
     /tmp/ccx9O3zd.s:616    .text:00000000000003d4 .L0 
     /tmp/ccx9O3zd.s:619    .text:00000000000003d8 .L0 
     /tmp/ccx9O3zd.s:627    .text:00000000000003f0 .L0 
     /tmp/ccx9O3zd.s:631    .text:00000000000003f4 .L0 
     /tmp/ccx9O3zd.s:632    .text:00000000000003f4 .L0 
     /tmp/ccx9O3zd.s:640    .text:0000000000000408 .L0 
     /tmp/ccx9O3zd.s:641    .text:000000000000040c .L0 
     /tmp/ccx9O3zd.s:643    .text:0000000000000410 .L0 
     /tmp/ccx9O3zd.s:644    .text:0000000000000410 .L0 
     /tmp/ccx9O3zd.s:646    .text:0000000000000414 .L0 
     /tmp/ccx9O3zd.s:648    .text:0000000000000418 .L0 
     /tmp/ccx9O3zd.s:651    .text:000000000000041c .L0 
     /tmp/ccx9O3zd.s:654    .text:0000000000000420 .L0 
     /tmp/ccx9O3zd.s:656    .text:0000000000000424 .L0 
GAS LISTING /tmp/ccx9O3zd.s 			page 34


     /tmp/ccx9O3zd.s:670    .text:0000000000000424 _Z10buddy_initPvm
     /tmp/ccx9O3zd.s:673    .text:0000000000000424 .L0 
     /tmp/ccx9O3zd.s:675    .text:0000000000000424 .L0 
     /tmp/ccx9O3zd.s:676    .text:0000000000000428 .L0 
     /tmp/ccx9O3zd.s:682    .text:000000000000043c .L0 
     /tmp/ccx9O3zd.s:683    .text:000000000000043c .L0 
     /tmp/ccx9O3zd.s:684    .text:000000000000043c .L0 
     /tmp/ccx9O3zd.s:685    .text:000000000000043c .L0 
     /tmp/ccx9O3zd.s:686    .text:000000000000043c .L0 
     /tmp/ccx9O3zd.s:688    .text:0000000000000440 .L0 
     /tmp/ccx9O3zd.s:692    .text:0000000000000448 .L0 
     /tmp/ccx9O3zd.s:693    .text:0000000000000448 .L0 
     /tmp/ccx9O3zd.s:698    .text:0000000000000458 .L0 
     /tmp/ccx9O3zd.s:699    .text:0000000000000458 .L0 
     /tmp/ccx9O3zd.s:704    .text:000000000000045c .L0 
     /tmp/ccx9O3zd.s:705    .text:000000000000045c .L0 
     /tmp/ccx9O3zd.s:706    .text:000000000000045c .L0 
     /tmp/ccx9O3zd.s:712    .text:0000000000000464 .L0 
     /tmp/ccx9O3zd.s:713    .text:0000000000000464 .L0 
     /tmp/ccx9O3zd.s:718    .text:0000000000000468 .L0 
     /tmp/ccx9O3zd.s:721    .text:0000000000000468 .L0 
     /tmp/ccx9O3zd.s:722    .text:0000000000000468 .L0 
     /tmp/ccx9O3zd.s:725    .text:0000000000000468 .L0 
     /tmp/ccx9O3zd.s:726    .text:0000000000000468 .L0 
     /tmp/ccx9O3zd.s:727    .text:0000000000000468 .L0 
     /tmp/ccx9O3zd.s:734    .text:0000000000000470 .L0 
     /tmp/ccx9O3zd.s:735    .text:0000000000000470 .L0 
     /tmp/ccx9O3zd.s:739    .text:0000000000000474 .L0 
     /tmp/ccx9O3zd.s:740    .text:0000000000000474 .L0 
     /tmp/ccx9O3zd.s:744    .text:0000000000000484 .L0 
     /tmp/ccx9O3zd.s:745    .text:0000000000000484 .L0 
     /tmp/ccx9O3zd.s:751    .text:0000000000000498 .L0 
     /tmp/ccx9O3zd.s:752    .text:0000000000000498 .L0 
     /tmp/ccx9O3zd.s:756    .text:00000000000004a8 .L0 
     /tmp/ccx9O3zd.s:757    .text:00000000000004a8 .L0 
     /tmp/ccx9O3zd.s:760    .text:00000000000004ac .L0 
     /tmp/ccx9O3zd.s:761    .text:00000000000004ac .L0 
     /tmp/ccx9O3zd.s:766    .text:00000000000004b0 .L0 
     /tmp/ccx9O3zd.s:769    .text:00000000000004b0 .L0 
     /tmp/ccx9O3zd.s:770    .text:00000000000004b0 .L0 
     /tmp/ccx9O3zd.s:771    .text:00000000000004b0 .L0 
     /tmp/ccx9O3zd.s:772    .text:00000000000004b0 .L0 
     /tmp/ccx9O3zd.s:779    .text:00000000000004b8 .L0 
     /tmp/ccx9O3zd.s:780    .text:00000000000004b8 .L0 
     /tmp/ccx9O3zd.s:786    .text:00000000000004c0 .L0 
     /tmp/ccx9O3zd.s:788    .text:00000000000004c4 .L0 
     /tmp/ccx9O3zd.s:789    .text:00000000000004c4 .L0 
     /tmp/ccx9O3zd.s:791    .text:00000000000004c8 .L0 
     /tmp/ccx9O3zd.s:792    .text:00000000000004c8 .L0 
     /tmp/ccx9O3zd.s:797    .text:00000000000004cc .L0 
     /tmp/ccx9O3zd.s:798    .text:00000000000004cc .L0 
     /tmp/ccx9O3zd.s:801    .text:00000000000004d0 .L0 
     /tmp/ccx9O3zd.s:805    .text:00000000000004d4 .L0 
     /tmp/ccx9O3zd.s:806    .text:00000000000004d4 .L0 
     /tmp/ccx9O3zd.s:808    .text:00000000000004d8 .L0 
     /tmp/ccx9O3zd.s:809    .text:00000000000004d8 .L0 
     /tmp/ccx9O3zd.s:812    .text:00000000000004dc .L0 
GAS LISTING /tmp/ccx9O3zd.s 			page 35


     /tmp/ccx9O3zd.s:813    .text:00000000000004dc .L0 
     /tmp/ccx9O3zd.s:816    .text:00000000000004e0 .L0 
     /tmp/ccx9O3zd.s:819    .text:00000000000004e4 .L0 
     /tmp/ccx9O3zd.s:820    .text:00000000000004e4 .L0 
     /tmp/ccx9O3zd.s:825    .text:00000000000004e8 .L0 
     /tmp/ccx9O3zd.s:829    .text:00000000000004ec .L0 
     /tmp/ccx9O3zd.s:830    .text:00000000000004ec .L0 
     /tmp/ccx9O3zd.s:834    .text:00000000000004f0 .L0 
     /tmp/ccx9O3zd.s:836    .text:00000000000004f4 .L0 
     /tmp/ccx9O3zd.s:837    .text:00000000000004f4 .L0 
     /tmp/ccx9O3zd.s:842    .text:0000000000000504 .L0 
     /tmp/ccx9O3zd.s:844    .text:0000000000000508 .L0 
     /tmp/ccx9O3zd.s:851    .text:0000000000000510 .L0 
     /tmp/ccx9O3zd.s:855    .text:0000000000000514 .L0 
     /tmp/ccx9O3zd.s:857    .text:0000000000000518 .L0 
     /tmp/ccx9O3zd.s:858    .text:0000000000000518 .L0 
     /tmp/ccx9O3zd.s:860    .text:000000000000051c .L0 
     /tmp/ccx9O3zd.s:862    .text:0000000000000520 .L0 
     /tmp/ccx9O3zd.s:868    .text:0000000000000534 .L0 
     /tmp/ccx9O3zd.s:874    .text:000000000000053c .L0 
     /tmp/ccx9O3zd.s:876    .text:0000000000000544 .L0 
     /tmp/ccx9O3zd.s:878    .text:0000000000000548 .L0 
     /tmp/ccx9O3zd.s:879    .text:0000000000000548 .L0 
     /tmp/ccx9O3zd.s:881    .text:000000000000054c .L0 
     /tmp/ccx9O3zd.s:884    .text:0000000000000550 .L0 
     /tmp/ccx9O3zd.s:887    .text:0000000000000554 .L0 
     /tmp/ccx9O3zd.s:890    .text:0000000000000558 .L0 
     /tmp/ccx9O3zd.s:892    .text:000000000000055c .L0 
     /tmp/ccx9O3zd.s:906    .text:000000000000055c _Z10buddy_freeP14buddyAllocatorPvm
     /tmp/ccx9O3zd.s:909    .text:000000000000055c .L0 
     /tmp/ccx9O3zd.s:911    .text:000000000000055c .L0 
     /tmp/ccx9O3zd.s:912    .text:0000000000000560 .L0 
     /tmp/ccx9O3zd.s:918    .text:0000000000000574 .L0 
     /tmp/ccx9O3zd.s:919    .text:0000000000000574 .L0 
     /tmp/ccx9O3zd.s:920    .text:0000000000000574 .L0 
     /tmp/ccx9O3zd.s:921    .text:0000000000000574 .L0 
     /tmp/ccx9O3zd.s:922    .text:0000000000000574 .L0 
     /tmp/ccx9O3zd.s:924    .text:0000000000000578 .L0 
     /tmp/ccx9O3zd.s:929    .text:0000000000000584 .L0 
     /tmp/ccx9O3zd.s:930    .text:0000000000000584 .L0 
     /tmp/ccx9O3zd.s:935    .text:0000000000000594 .L0 
     /tmp/ccx9O3zd.s:936    .text:0000000000000594 .L0 
     /tmp/ccx9O3zd.s:942    .text:00000000000005a8 .L0 
     /tmp/ccx9O3zd.s:943    .text:00000000000005a8 .L0 
     /tmp/ccx9O3zd.s:947    .text:00000000000005b8 .L0 
     /tmp/ccx9O3zd.s:948    .text:00000000000005b8 .L0 
     /tmp/ccx9O3zd.s:954    .text:00000000000005cc .L0 
     /tmp/ccx9O3zd.s:955    .text:00000000000005cc .L0 
     /tmp/ccx9O3zd.s:959    .text:00000000000005dc .L0 
     /tmp/ccx9O3zd.s:960    .text:00000000000005dc .L0 
     /tmp/ccx9O3zd.s:966    .text:00000000000005f0 .L0 
     /tmp/ccx9O3zd.s:967    .text:00000000000005f4 .L0 
     /tmp/ccx9O3zd.s:969    .text:00000000000005f8 .L0 
     /tmp/ccx9O3zd.s:970    .text:00000000000005f8 .L0 
     /tmp/ccx9O3zd.s:972    .text:00000000000005fc .L0 
     /tmp/ccx9O3zd.s:975    .text:0000000000000600 .L0 
     /tmp/ccx9O3zd.s:978    .text:0000000000000604 .L0 
GAS LISTING /tmp/ccx9O3zd.s 			page 36


     /tmp/ccx9O3zd.s:981    .text:0000000000000608 .L0 
     /tmp/ccx9O3zd.s:983    .text:000000000000060c .L0 
     /tmp/ccx9O3zd.s:1000   .text:000000000000060c _Z14printBuddyInfoP14buddyAllocator
     /tmp/ccx9O3zd.s:1003   .text:000000000000060c .L0 
     /tmp/ccx9O3zd.s:1005   .text:000000000000060c .L0 
     /tmp/ccx9O3zd.s:1006   .text:0000000000000610 .L0 
     /tmp/ccx9O3zd.s:1012   .text:0000000000000624 .L0 
     /tmp/ccx9O3zd.s:1013   .text:0000000000000624 .L0 
     /tmp/ccx9O3zd.s:1014   .text:0000000000000624 .L0 
     /tmp/ccx9O3zd.s:1015   .text:0000000000000624 .L0 
     /tmp/ccx9O3zd.s:1016   .text:0000000000000624 .L0 
     /tmp/ccx9O3zd.s:1018   .text:0000000000000628 .L0 
     /tmp/ccx9O3zd.s:1021   .text:000000000000062c .L0 
     /tmp/ccx9O3zd.s:1022   .text:000000000000062c .L0 
     /tmp/ccx9O3zd.s:1028   .text:000000000000063c .L0 
     /tmp/ccx9O3zd.s:1029   .text:000000000000063c .L0 
     /tmp/ccx9O3zd.s:1035   .text:0000000000000644 .L0 
     /tmp/ccx9O3zd.s:1039   .text:0000000000000648 .L0 
     /tmp/ccx9O3zd.s:1042   .text:000000000000064c .L0 
     /tmp/ccx9O3zd.s:1043   .text:000000000000064c .L0 
     /tmp/ccx9O3zd.s:1047   .text:000000000000065c .L0 
     /tmp/ccx9O3zd.s:1048   .text:000000000000065c .L0 
     /tmp/ccx9O3zd.s:1054   .text:0000000000000670 .L0 
     /tmp/ccx9O3zd.s:1055   .text:0000000000000670 .L0 
     /tmp/ccx9O3zd.s:1059   .text:0000000000000680 .L0 
     /tmp/ccx9O3zd.s:1060   .text:0000000000000680 .L0 
     /tmp/ccx9O3zd.s:1064   .text:0000000000000690 .L0 
     /tmp/ccx9O3zd.s:1065   .text:0000000000000690 .L0 
     /tmp/ccx9O3zd.s:1072   .text:00000000000006a0 .L0 
     /tmp/ccx9O3zd.s:1073   .text:00000000000006a0 .L0 
     /tmp/ccx9O3zd.s:1075   .text:00000000000006a4 .L0 
     /tmp/ccx9O3zd.s:1076   .text:00000000000006a4 .L0 
     /tmp/ccx9O3zd.s:1082   .text:00000000000006b8 .L0 
     /tmp/ccx9O3zd.s:1083   .text:00000000000006b8 .L0 
     /tmp/ccx9O3zd.s:1087   .text:00000000000006c8 .L0 
     /tmp/ccx9O3zd.s:1088   .text:00000000000006c8 .L0 
     /tmp/ccx9O3zd.s:1091   .text:00000000000006cc .L0 
     /tmp/ccx9O3zd.s:1097   .text:00000000000006d0 .L0 
     /tmp/ccx9O3zd.s:1098   .text:00000000000006d4 .L0 
     /tmp/ccx9O3zd.s:1100   .text:00000000000006d8 .L0 
     /tmp/ccx9O3zd.s:1101   .text:00000000000006d8 .L0 
     /tmp/ccx9O3zd.s:1103   .text:00000000000006dc .L0 
     /tmp/ccx9O3zd.s:1105   .text:00000000000006e0 .L0 
     /tmp/ccx9O3zd.s:1108   .text:00000000000006e4 .L0 
     /tmp/ccx9O3zd.s:1111   .text:00000000000006e8 .L0 
     /tmp/ccx9O3zd.s:1113   .text:00000000000006ec .L0 
     /tmp/ccx9O3zd.s:1122   .text:00000000000006ec .L0 
     /tmp/ccx9O3zd.s:219    .rodata.str1.8:0000000000000000 .LC0
     /tmp/ccx9O3zd.s:259    .text:0000000000000164 .L0 
     /tmp/ccx9O3zd.s:222    .rodata.str1.8:0000000000000018 .LC1
     /tmp/ccx9O3zd.s:272    .text:0000000000000188 .L0 
     /tmp/ccx9O3zd.s:225    .rodata.str1.8:0000000000000020 .LC2
     /tmp/ccx9O3zd.s:306    .text:00000000000001b0 .L0 
     /tmp/ccx9O3zd.s:318    .text:00000000000001d4 .L0 
     /tmp/ccx9O3zd.s:228    .rodata.str1.8:0000000000000028 .LC3
     /tmp/ccx9O3zd.s:355    .text:000000000000020c .L0 
     /tmp/ccx9O3zd.s:367    .text:0000000000000230 .L0 
GAS LISTING /tmp/ccx9O3zd.s 			page 37


     /tmp/ccx9O3zd.s:661    .rodata.str1.8:0000000000000040 .LC4
     /tmp/ccx9O3zd.s:693    .text:0000000000000448 .L0 
     /tmp/ccx9O3zd.s:664    .rodata.str1.8:0000000000000058 .LC5
     /tmp/ccx9O3zd.s:740    .text:0000000000000474 .L0 
     /tmp/ccx9O3zd.s:752    .text:0000000000000498 .L0 
     /tmp/ccx9O3zd.s:897    .rodata.str1.8:0000000000000078 .LC6
     /tmp/ccx9O3zd.s:930    .text:0000000000000584 .L0 
     /tmp/ccx9O3zd.s:900    .rodata.str1.8:0000000000000088 .LC7
     /tmp/ccx9O3zd.s:943    .text:00000000000005a8 .L0 
     /tmp/ccx9O3zd.s:955    .text:00000000000005cc .L0 
     /tmp/ccx9O3zd.s:988    .rodata.str1.8:0000000000000090 .LC8
     /tmp/ccx9O3zd.s:1022   .text:000000000000062c .L0 
     /tmp/ccx9O3zd.s:991    .rodata.str1.8:00000000000000b0 .LC9
     /tmp/ccx9O3zd.s:1043   .text:000000000000064c .L0 
     /tmp/ccx9O3zd.s:1055   .text:0000000000000670 .L0 
     /tmp/ccx9O3zd.s:994    .rodata.str1.8:00000000000000b8 .LC10
     /tmp/ccx9O3zd.s:1060   .text:0000000000000680 .L0 
     /tmp/ccx9O3zd.s:1083   .text:00000000000006b8 .L0 
     /tmp/ccx9O3zd.s:57     .text:0000000000000048 .L5
     /tmp/ccx9O3zd.s:47     .text:000000000000003c .L1
     /tmp/ccx9O3zd.s:165    .text:00000000000000dc .L12
     /tmp/ccx9O3zd.s:140    .text:00000000000000bc .L8
     /tmp/ccx9O3zd.s:176    .text:00000000000000ec .L13
     /tmp/ccx9O3zd.s:299    .text:00000000000001b0 .L15
     /tmp/ccx9O3zd.s:285    .text:00000000000001a0 .L16
     /tmp/ccx9O3zd.s:402    .text:000000000000028c .L21
     /tmp/ccx9O3zd.s:348    .text:000000000000020c .L23
     /tmp/ccx9O3zd.s:326    .text:00000000000001e8 .L20
     /tmp/ccx9O3zd.s:393    .text:0000000000000278 .L24
     /tmp/ccx9O3zd.s:408    .text:0000000000000290 .L14
     /tmp/ccx9O3zd.s:380    .text:0000000000000258 .L19
     /tmp/ccx9O3zd.s:482    .text:00000000000002f0 .L26
     /tmp/ccx9O3zd.s:468    .text:00000000000002e0 .L27
     /tmp/ccx9O3zd.s:528    .text:0000000000000330 .L39
     /tmp/ccx9O3zd.s:629    .text:00000000000003f4 .L30
     /tmp/ccx9O3zd.s:542    .text:0000000000000348 .L40
     /tmp/ccx9O3zd.s:511    .text:000000000000031c .L37
     /tmp/ccx9O3zd.s:638    .text:0000000000000408 .L25
     /tmp/ccx9O3zd.s:586    .text:00000000000003a0 .L32
     /tmp/ccx9O3zd.s:576    .text:000000000000038c .L41
     /tmp/ccx9O3zd.s:613    .text:00000000000003d4 .L35
     /tmp/ccx9O3zd.s:559    .text:0000000000000368 .L33
     /tmp/ccx9O3zd.s:602    .text:00000000000003bc .L42
     /tmp/ccx9O3zd.s:737    .text:0000000000000474 .L44
     /tmp/ccx9O3zd.s:817    .text:00000000000004e4 .L45
     /tmp/ccx9O3zd.s:802    .text:00000000000004d4 .L46
     /tmp/ccx9O3zd.s:847    .text:0000000000000510 .L50
     /tmp/ccx9O3zd.s:832    .text:00000000000004f0 .L48
     /tmp/ccx9O3zd.s:871    .text:000000000000053c .L43
     /tmp/ccx9O3zd.s:853    .text:0000000000000514 .L47
     /tmp/ccx9O3zd.s:1037   .text:0000000000000648 .L58
     /tmp/ccx9O3zd.s:1093   .text:00000000000006d0 .L54
     /tmp/ccx9O3zd.s:1033   .text:0000000000000644 .L56
     /tmp/ccx9O3zd.s:1070   .text:00000000000006a0 .L57
     /tmp/ccx9O3zd.s:3531   .debug_abbrev:0000000000000000 .Ldebug_abbrev0
     /tmp/ccx9O3zd.s:5779   .debug_str:0000000000000c21 .LASF220
     /tmp/ccx9O3zd.s:5803   .debug_str:0000000000000da3 .LASF221
GAS LISTING /tmp/ccx9O3zd.s 			page 38


     /tmp/ccx9O3zd.s:5533   .debug_str:00000000000003cd .LASF222
     /tmp/ccx9O3zd.s:5      .text:0000000000000000 .Ltext0
     /tmp/ccx9O3zd.s:1116   .text:00000000000006ec .Letext0
     /tmp/ccx9O3zd.s:5413   .debug_line:0000000000000000 .Ldebug_line0
     /tmp/ccx9O3zd.s:5555   .debug_str:000000000000049d .LASF0
     /tmp/ccx9O3zd.s:5579   .debug_str:000000000000057f .LASF1
     /tmp/ccx9O3zd.s:5699   .debug_str:00000000000009a3 .LASF2
     /tmp/ccx9O3zd.s:5713   .debug_str:0000000000000a16 .LASF4
     /tmp/ccx9O3zd.s:5565   .debug_str:00000000000004e8 .LASF3
     /tmp/ccx9O3zd.s:5429   .debug_str:0000000000000063 .LASF5
     /tmp/ccx9O3zd.s:5663   .debug_str:000000000000085e .LASF6
     /tmp/ccx9O3zd.s:5571   .debug_str:0000000000000530 .LASF7
     /tmp/ccx9O3zd.s:5531   .debug_str:00000000000003bd .LASF8
     /tmp/ccx9O3zd.s:5539   .debug_str:0000000000000421 .LASF9
     /tmp/ccx9O3zd.s:5469   .debug_str:00000000000001f3 .LASF10
     /tmp/ccx9O3zd.s:5523   .debug_str:0000000000000385 .LASF11
     /tmp/ccx9O3zd.s:5481   .debug_str:000000000000022d .LASF12
     /tmp/ccx9O3zd.s:5467   .debug_str:00000000000001e3 .LASF13
     /tmp/ccx9O3zd.s:5757   .debug_str:0000000000000bbf .LASF14
     /tmp/ccx9O3zd.s:5507   .debug_str:00000000000002e4 .LASF15
     /tmp/ccx9O3zd.s:5743   .debug_str:0000000000000b16 .LASF16
     /tmp/ccx9O3zd.s:5553   .debug_str:0000000000000497 .LASF17
     /tmp/ccx9O3zd.s:5769   .debug_str:0000000000000bf9 .LASF18
     /tmp/ccx9O3zd.s:5667   .debug_str:0000000000000879 .LASF19
     /tmp/ccx9O3zd.s:5471   .debug_str:0000000000000202 .LASF21
     /tmp/ccx9O3zd.s:5693   .debug_str:0000000000000976 .LASF20
     /tmp/ccx9O3zd.s:5765   .debug_str:0000000000000bed .LASF22
     /tmp/ccx9O3zd.s:5589   .debug_str:00000000000005cb .LASF23
     /tmp/ccx9O3zd.s:5603   .debug_str:0000000000000652 .LASF24
     /tmp/ccx9O3zd.s:5611   .debug_str:0000000000000684 .LASF25
     /tmp/ccx9O3zd.s:5777   .debug_str:0000000000000c17 .LASF26
     /tmp/ccx9O3zd.s:5801   .debug_str:0000000000000d93 .LASF27
     /tmp/ccx9O3zd.s:5583   .debug_str:000000000000059d .LASF28
     /tmp/ccx9O3zd.s:5515   .debug_str:0000000000000330 .LASF29
     /tmp/ccx9O3zd.s:5773   .debug_str:0000000000000c09 .LASF223
     /tmp/ccx9O3zd.s:5767   .debug_str:0000000000000bf3 .LASF30
     /tmp/ccx9O3zd.s:5731   .debug_str:0000000000000aaa .LASF31
     /tmp/ccx9O3zd.s:5477   .debug_str:0000000000000219 .LASF32
     /tmp/ccx9O3zd.s:5453   .debug_str:0000000000000147 .LASF33
     /tmp/ccx9O3zd.s:5665   .debug_str:0000000000000871 .LASF34
     /tmp/ccx9O3zd.s:5475   .debug_str:0000000000000210 .LASF35
     /tmp/ccx9O3zd.s:5763   .debug_str:0000000000000be5 .LASF36
     /tmp/ccx9O3zd.s:5549   .debug_str:0000000000000481 .LASF37
     /tmp/ccx9O3zd.s:5431   .debug_str:000000000000006a .LASF43
     /tmp/ccx9O3zd.s:5791   .debug_str:0000000000000d38 .LASF224
     /tmp/ccx9O3zd.s:5653   .debug_str:000000000000080e .LASF38
     /tmp/ccx9O3zd.s:5577   .debug_str:000000000000057a .LASF39
     /tmp/ccx9O3zd.s:5847   .debug_str:0000000000000ee6 .LASF41
     /tmp/ccx9O3zd.s:5843   .debug_str:0000000000000eca .LASF40
     /tmp/ccx9O3zd.s:5781   .debug_str:0000000000000ce5 .LASF42
     /tmp/ccx9O3zd.s:5495   .debug_str:00000000000002ae .LASF66
     /tmp/ccx9O3zd.s:5437   .debug_str:00000000000000a3 .LASF68
     /tmp/ccx9O3zd.s:5775   .debug_str:0000000000000c0f .LASF44
     /tmp/ccx9O3zd.s:5721   .debug_str:0000000000000a55 .LASF45
     /tmp/ccx9O3zd.s:5585   .debug_str:00000000000005a6 .LASF48
     /tmp/ccx9O3zd.s:5595   .debug_str:000000000000060b .LASF50
     /tmp/ccx9O3zd.s:5855   .debug_str:0000000000000f34 .LASF46
GAS LISTING /tmp/ccx9O3zd.s 			page 39


     /tmp/ccx9O3zd.s:5511   .debug_str:000000000000031e .LASF47
     /tmp/ccx9O3zd.s:5425   .debug_str:000000000000004b .LASF92
     /tmp/ccx9O3zd.s:5563   .debug_str:00000000000004db .LASF94
     /tmp/ccx9O3zd.s:5723   .debug_str:0000000000000a66 .LASF49
     /tmp/ccx9O3zd.s:5629   .debug_str:0000000000000713 .LASF51
     /tmp/ccx9O3zd.s:5707   .debug_str:00000000000009dc .LASF52
     /tmp/ccx9O3zd.s:5751   .debug_str:0000000000000b60 .LASF53
     /tmp/ccx9O3zd.s:5631   .debug_str:0000000000000726 .LASF54
     /tmp/ccx9O3zd.s:5419   .debug_str:000000000000001b .LASF55
     /tmp/ccx9O3zd.s:5831   .debug_str:0000000000000e77 .LASF56
     /tmp/ccx9O3zd.s:5661   .debug_str:0000000000000844 .LASF57
     /tmp/ccx9O3zd.s:5741   .debug_str:0000000000000b08 .LASF58
     /tmp/ccx9O3zd.s:5677   .debug_str:00000000000008cf .LASF59
     /tmp/ccx9O3zd.s:5491   .debug_str:0000000000000294 .LASF60
     /tmp/ccx9O3zd.s:5525   .debug_str:0000000000000394 .LASF61
     /tmp/ccx9O3zd.s:5695   .debug_str:0000000000000981 .LASF62
     /tmp/ccx9O3zd.s:5833   .debug_str:0000000000000e86 .LASF63
     /tmp/ccx9O3zd.s:5835   .debug_str:0000000000000e95 .LASF64
     /tmp/ccx9O3zd.s:5567   .debug_str:00000000000004fa .LASF65
     /tmp/ccx9O3zd.s:5737   .debug_str:0000000000000aeb .LASF67
     /tmp/ccx9O3zd.s:5845   .debug_str:0000000000000ed0 .LASF69
     /tmp/ccx9O3zd.s:5541   .debug_str:000000000000042f .LASF70
     /tmp/ccx9O3zd.s:5487   .debug_str:0000000000000273 .LASF71
     /tmp/ccx9O3zd.s:5719   .debug_str:0000000000000a4d .LASF72
     /tmp/ccx9O3zd.s:5557   .debug_str:00000000000004aa .LASF73
     /tmp/ccx9O3zd.s:5641   .debug_str:000000000000076a .LASF74
     /tmp/ccx9O3zd.s:5485   .debug_str:0000000000000261 .LASF75
     /tmp/ccx9O3zd.s:5685   .debug_str:0000000000000921 .LASF76
     /tmp/ccx9O3zd.s:5863   .debug_str:0000000000000f6b .LASF77
     /tmp/ccx9O3zd.s:5643   .debug_str:0000000000000789 .LASF78
     /tmp/ccx9O3zd.s:5705   .debug_str:00000000000009c9 .LASF79
     /tmp/ccx9O3zd.s:5725   .debug_str:0000000000000a6f .LASF80
     /tmp/ccx9O3zd.s:5809   .debug_str:0000000000000dcb .LASF81
     /tmp/ccx9O3zd.s:5615   .debug_str:00000000000006a4 .LASF82
     /tmp/ccx9O3zd.s:5793   .debug_str:0000000000000d50 .LASF83
     /tmp/ccx9O3zd.s:5749   .debug_str:0000000000000b40 .LASF84
     /tmp/ccx9O3zd.s:5657   .debug_str:000000000000081d .LASF85
     /tmp/ccx9O3zd.s:5645   .debug_str:00000000000007aa .LASF86
     /tmp/ccx9O3zd.s:5501   .debug_str:00000000000002c2 .LASF87
     /tmp/ccx9O3zd.s:5561   .debug_str:00000000000004d0 .LASF88
     /tmp/ccx9O3zd.s:5619   .debug_str:00000000000006e1 .LASF89
     /tmp/ccx9O3zd.s:5783   .debug_str:0000000000000cf5 .LASF90
     /tmp/ccx9O3zd.s:5527   .debug_str:00000000000003a4 .LASF91
     /tmp/ccx9O3zd.s:5841   .debug_str:0000000000000ebc .LASF93
     /tmp/ccx9O3zd.s:5445   .debug_str:00000000000000f2 .LASF95
     /tmp/ccx9O3zd.s:5517   .debug_str:0000000000000337 .LASF96
     /tmp/ccx9O3zd.s:5463   .debug_str:00000000000001ac .LASF97
     /tmp/ccx9O3zd.s:5829   .debug_str:0000000000000e70 .LASF98
     /tmp/ccx9O3zd.s:5461   .debug_str:000000000000019b .LASF99
     /tmp/ccx9O3zd.s:5423   .debug_str:0000000000000046 .LASF100
     /tmp/ccx9O3zd.s:5805   .debug_str:0000000000000dba .LASF101
     /tmp/ccx9O3zd.s:5599   .debug_str:000000000000063d .LASF102
     /tmp/ccx9O3zd.s:5499   .debug_str:00000000000002bc .LASF103
     /tmp/ccx9O3zd.s:5789   .debug_str:0000000000000d30 .LASF104
     /tmp/ccx9O3zd.s:5451   .debug_str:0000000000000136 .LASF105
     /tmp/ccx9O3zd.s:5609   .debug_str:000000000000067f .LASF106
     /tmp/ccx9O3zd.s:5691   .debug_str:000000000000096b .LASF107
GAS LISTING /tmp/ccx9O3zd.s 			page 40


     /tmp/ccx9O3zd.s:5537   .debug_str:000000000000040d .LASF108
     /tmp/ccx9O3zd.s:5701   .debug_str:00000000000009b1 .LASF109
     /tmp/ccx9O3zd.s:5689   .debug_str:0000000000000957 .LASF110
     /tmp/ccx9O3zd.s:5497   .debug_str:00000000000002b7 .LASF111
     /tmp/ccx9O3zd.s:5735   .debug_str:0000000000000ad4 .LASF112
     /tmp/ccx9O3zd.s:5761   .debug_str:0000000000000bde .LASF113
     /tmp/ccx9O3zd.s:5635   .debug_str:000000000000073e .LASF114
     /tmp/ccx9O3zd.s:5417   .debug_str:000000000000000f .LASF115
     /tmp/ccx9O3zd.s:5703   .debug_str:00000000000009bd .LASF116
     /tmp/ccx9O3zd.s:5613   .debug_str:0000000000000690 .LASF117
     /tmp/ccx9O3zd.s:5697   .debug_str:000000000000098e .LASF118
     /tmp/ccx9O3zd.s:5473   .debug_str:0000000000000207 .LASF119
     /tmp/ccx9O3zd.s:5479   .debug_str:0000000000000223 .LASF120
     /tmp/ccx9O3zd.s:5633   .debug_str:0000000000000735 .LASF121
     /tmp/ccx9O3zd.s:5711   .debug_str:0000000000000a0b .LASF122
     /tmp/ccx9O3zd.s:5415   .debug_str:0000000000000000 .LASF123
     /tmp/ccx9O3zd.s:5545   .debug_str:000000000000044b .LASF124
     /tmp/ccx9O3zd.s:5787   .debug_str:0000000000000d21 .LASF125
     /tmp/ccx9O3zd.s:5755   .debug_str:0000000000000b9d .LASF126
     /tmp/ccx9O3zd.s:5727   .debug_str:0000000000000a8d .LASF127
     /tmp/ccx9O3zd.s:5483   .debug_str:000000000000023d .LASF128
     /tmp/ccx9O3zd.s:5651   .debug_str:00000000000007fe .LASF129
     /tmp/ccx9O3zd.s:5681   .debug_str:00000000000008ed .LASF130
     /tmp/ccx9O3zd.s:5857   .debug_str:0000000000000f41 .LASF131
     /tmp/ccx9O3zd.s:5427   .debug_str:000000000000005b .LASF132
     /tmp/ccx9O3zd.s:5597   .debug_str:0000000000000623 .LASF133
     /tmp/ccx9O3zd.s:5853   .debug_str:0000000000000f24 .LASF134
     /tmp/ccx9O3zd.s:5715   .debug_str:0000000000000a1d .LASF135
     /tmp/ccx9O3zd.s:5759   .debug_str:0000000000000bcb .LASF136
     /tmp/ccx9O3zd.s:5709   .debug_str:00000000000009e5 .LASF137
     /tmp/ccx9O3zd.s:5859   .debug_str:0000000000000f59 .LASF138
     /tmp/ccx9O3zd.s:5575   .debug_str:0000000000000556 .LASF139
     /tmp/ccx9O3zd.s:5637   .debug_str:0000000000000757 .LASF140
     /tmp/ccx9O3zd.s:5449   .debug_str:0000000000000126 .LASF141
     /tmp/ccx9O3zd.s:5785   .debug_str:0000000000000cff .LASF142
     /tmp/ccx9O3zd.s:5717   .debug_str:0000000000000a40 .LASF143
     /tmp/ccx9O3zd.s:5593   .debug_str:00000000000005ec .LASF144
     /tmp/ccx9O3zd.s:5659   .debug_str:0000000000000831 .LASF145
     /tmp/ccx9O3zd.s:5547   .debug_str:000000000000046d .LASF146
     /tmp/ccx9O3zd.s:5655   .debug_str:0000000000000813 .LASF147
     /tmp/ccx9O3zd.s:5581   .debug_str:0000000000000592 .LASF148
     /tmp/ccx9O3zd.s:5675   .debug_str:00000000000008c5 .LASF149
     /tmp/ccx9O3zd.s:5811   .debug_str:0000000000000dde .LASF150
     /tmp/ccx9O3zd.s:5771   .debug_str:0000000000000bfe .LASF151
     /tmp/ccx9O3zd.s:5807   .debug_str:0000000000000dbf .LASF152
     /tmp/ccx9O3zd.s:5819   .debug_str:0000000000000e07 .LASF153
     /tmp/ccx9O3zd.s:5621   .debug_str:00000000000006e9 .LASF154
     /tmp/ccx9O3zd.s:5673   .debug_str:00000000000008b9 .LASF155
     /tmp/ccx9O3zd.s:5739   .debug_str:0000000000000af6 .LASF158
     /tmp/ccx9O3zd.s:5733   .debug_str:0000000000000ab2 .LASF160
     /tmp/ccx9O3zd.s:5799   .debug_str:0000000000000d81 .LASF156
     /tmp/ccx9O3zd.s:5827   .debug_str:0000000000000e4e .LASF157
     /tmp/ccx9O3zd.s:5797   .debug_str:0000000000000d6f .LASF159
     /tmp/ccx9O3zd.s:5433   .debug_str:0000000000000075 .LASF161
     /tmp/ccx9O3zd.s:5573   .debug_str:0000000000000543 .LASF162
     /tmp/ccx9O3zd.s:5459   .debug_str:0000000000000178 .LASF163
     /tmp/ccx9O3zd.s:5505   .debug_str:00000000000002d1 .LASF164
GAS LISTING /tmp/ccx9O3zd.s 			page 41


     /tmp/ccx9O3zd.s:5455   .debug_str:0000000000000150 .LASF165
     /tmp/ccx9O3zd.s:5439   .debug_str:00000000000000b6 .LASF166
     /tmp/ccx9O3zd.s:5817   .debug_str:0000000000000df8 .LASF167
     /tmp/ccx9O3zd.s:5617   .debug_str:00000000000006c2 .LASF168
     /tmp/ccx9O3zd.s:5825   .debug_str:0000000000000e35 .LASF169
     /tmp/ccx9O3zd.s:5569   .debug_str:0000000000000507 .LASF170
     /tmp/ccx9O3zd.s:5587   .debug_str:00000000000005b3 .LASF171
     /tmp/ccx9O3zd.s:5849   .debug_str:0000000000000ef2 .LASF172
     /tmp/ccx9O3zd.s:5521   .debug_str:0000000000000374 .LASF173
     /tmp/ccx9O3zd.s:5823   .debug_str:0000000000000e23 .LASF174
     /tmp/ccx9O3zd.s:5529   .debug_str:00000000000003b0 .LASF175
     /tmp/ccx9O3zd.s:5837   .debug_str:0000000000000ea0 .LASF176
     /tmp/ccx9O3zd.s:5543   .debug_str:000000000000043a .LASF177
     /tmp/ccx9O3zd.s:5435   .debug_str:0000000000000097 .LASF178
     /tmp/ccx9O3zd.s:5591   .debug_str:00000000000005d0 .LASF179
     /tmp/ccx9O3zd.s:5607   .debug_str:0000000000000673 .LASF180
     /tmp/ccx9O3zd.s:5441   .debug_str:00000000000000d1 .LASF181
     /tmp/ccx9O3zd.s:5839   .debug_str:0000000000000ead .LASF186
     /tmp/ccx9O3zd.s:5509   .debug_str:00000000000002fa .LASF188
     /tmp/ccx9O3zd.s:1001   .text:000000000000060c .LFB16
     /tmp/ccx9O3zd.s:1114   .text:00000000000006ec .LFE16
     /tmp/ccx9O3zd.s:5625   .debug_str:0000000000000702 .LASF183
     /tmp/ccx9O3zd.s:4520   .debug_loc:0000000000000000 .LLST45
     /tmp/ccx9O3zd.s:1027   .text:000000000000063c .LBB55
     /tmp/ccx9O3zd.s:1095   .text:00000000000006d0 .LBE55
     /tmp/ccx9O3zd.s:4538   .debug_loc:000000000000004c .LLST46
     /tmp/ccx9O3zd.s:1040   .text:000000000000064c .LBB56
     /tmp/ccx9O3zd.s:1094   .text:00000000000006d0 .LBE56
     /tmp/ccx9O3zd.s:5861   .debug_str:0000000000000f66 .LASF182
     /tmp/ccx9O3zd.s:4545   .debug_loc:000000000000006f .LLST47
     /tmp/ccx9O3zd.s:1045   .text:000000000000065c .LVL134
     /tmp/ccx9O3zd.s:1052   .text:0000000000000670 .LVL135
     /tmp/ccx9O3zd.s:1057   .text:0000000000000680 .LVL136
     /tmp/ccx9O3zd.s:1062   .text:0000000000000690 .LVL137
     /tmp/ccx9O3zd.s:1080   .text:00000000000006b8 .LVL139
     /tmp/ccx9O3zd.s:1085   .text:00000000000006c8 .LVL140
     /tmp/ccx9O3zd.s:1025   .text:000000000000063c .LVL130
     /tmp/ccx9O3zd.s:5679   .debug_str:00000000000008db .LASF212
     /tmp/ccx9O3zd.s:5687   .debug_str:000000000000093e .LASF214
     /tmp/ccx9O3zd.s:77     .text:0000000000000060 .LFB15
     /tmp/ccx9O3zd.s:101    .text:0000000000000084 .LFE15
     /tmp/ccx9O3zd.s:5457   .debug_str:0000000000000173 .LASF184
     /tmp/ccx9O3zd.s:4556   .debug_loc:00000000000000a5 .LLST1
     /tmp/ccx9O3zd.s:5503   .debug_str:00000000000002cb .LASF185
     /tmp/ccx9O3zd.s:5551   .debug_str:0000000000000487 .LASF187
     /tmp/ccx9O3zd.s:5519   .debug_str:000000000000034c .LASF189
     /tmp/ccx9O3zd.s:10     .text:0000000000000000 .LFB14
     /tmp/ccx9O3zd.s:71     .text:0000000000000060 .LFE14
     /tmp/ccx9O3zd.s:4570   .debug_loc:00000000000000de .LLST0
     /tmp/ccx9O3zd.s:5851   .debug_str:0000000000000f1b .LASF190
     /tmp/ccx9O3zd.s:5639   .debug_str:0000000000000760 .LASF191
     /tmp/ccx9O3zd.s:5753   .debug_str:0000000000000b7c .LASF192
     /tmp/ccx9O3zd.s:437    .text:00000000000002b4 .LFB13
     /tmp/ccx9O3zd.s:657    .text:0000000000000424 .LFE13
     /tmp/ccx9O3zd.s:4607   .debug_loc:000000000000016a .LLST16
     /tmp/ccx9O3zd.s:4633   .debug_loc:00000000000001dc .LLST17
     /tmp/ccx9O3zd.s:4659   .debug_loc:000000000000024e .LLST18
GAS LISTING /tmp/ccx9O3zd.s 			page 42


     /tmp/ccx9O3zd.s:4684   .debug_loc:00000000000002b0 .LLST19
     /tmp/ccx9O3zd.s:5821   .debug_str:0000000000000e14 .LASF193
     /tmp/ccx9O3zd.s:4699   .debug_loc:00000000000002f9 .LLST20
     /tmp/ccx9O3zd.s:4722   .debug_loc:0000000000000368 .LLST21
     /tmp/ccx9O3zd.s:5443   .debug_str:00000000000000ed .LASF194
     /tmp/ccx9O3zd.s:4758   .debug_loc:0000000000000411 .LLST22
     /tmp/ccx9O3zd.s:459    .text:00000000000002d8 .LBB39
     /tmp/ccx9O3zd.s:486    .text:00000000000002f0 .LBE39
     /tmp/ccx9O3zd.s:4790   .debug_loc:00000000000004a7 .LLST23
     /tmp/ccx9O3zd.s:4797   .debug_loc:00000000000004ca .LLST24
     /tmp/ccx9O3zd.s:4809   .debug_loc:0000000000000501 .LLST25
     /tmp/ccx9O3zd.s:499    .text:0000000000000308 .LVL55
     /tmp/ccx9O3zd.s:538    .text:0000000000000344 .LVL64
     /tmp/ccx9O3zd.s:573    .text:0000000000000388 .LVL69
     /tmp/ccx9O3zd.s:625    .text:00000000000003f0 .LVL79
     /tmp/ccx9O3zd.s:637    .text:0000000000000408 .LVL82
     /tmp/ccx9O3zd.s:5447   .debug_str:000000000000011a .LASF195
     /tmp/ccx9O3zd.s:5683   .debug_str:0000000000000910 .LASF196
     /tmp/ccx9O3zd.s:5601   .debug_str:0000000000000645 .LASF197
     /tmp/ccx9O3zd.s:5671   .debug_str:00000000000008a7 .LASF198
     /tmp/ccx9O3zd.s:5421   .debug_str:0000000000000035 .LASF199
     /tmp/ccx9O3zd.s:5647   .debug_str:00000000000007c9 .LASF200
     /tmp/ccx9O3zd.s:5493   .debug_str:00000000000002a4 .LASF201
     /tmp/ccx9O3zd.s:5623   .debug_str:00000000000006f5 .LASF202
     /tmp/ccx9O3zd.s:5559   .debug_str:00000000000004be .LASF203
     /tmp/ccx9O3zd.s:5815   .debug_str:0000000000000df3 .LASF204
     /tmp/ccx9O3zd.s:5489   .debug_str:0000000000000289 .LASF205
     /tmp/ccx9O3zd.s:5669   .debug_str:0000000000000884 .LASF206
     /tmp/ccx9O3zd.s:907    .text:000000000000055c .LFB8
     /tmp/ccx9O3zd.s:984    .text:000000000000060c .LFE8
     /tmp/ccx9O3zd.s:4821   .debug_loc:0000000000000538 .LLST42
     /tmp/ccx9O3zd.s:4839   .debug_loc:0000000000000584 .LLST43
     /tmp/ccx9O3zd.s:4857   .debug_loc:00000000000005d0 .LLST44
     /tmp/ccx9O3zd.s:933    .text:0000000000000594 .LVL119
     /tmp/ccx9O3zd.s:940    .text:00000000000005a8 .LVL120
     /tmp/ccx9O3zd.s:945    .text:00000000000005b8 .LVL121
     /tmp/ccx9O3zd.s:952    .text:00000000000005cc .LVL122
     /tmp/ccx9O3zd.s:957    .text:00000000000005dc .LVL123
     /tmp/ccx9O3zd.s:964    .text:00000000000005f0 .LVL124
     /tmp/ccx9O3zd.s:5513   .debug_str:000000000000032a .LASF207
     /tmp/ccx9O3zd.s:5649   .debug_str:00000000000007df .LASF208
     /tmp/ccx9O3zd.s:107    .text:0000000000000084 .LFB7
     /tmp/ccx9O3zd.s:215    .text:000000000000013c .LFE7
     /tmp/ccx9O3zd.s:4875   .debug_loc:000000000000061c .LLST2
     /tmp/ccx9O3zd.s:4909   .debug_loc:00000000000006b4 .LLST3
     /tmp/ccx9O3zd.s:5627   .debug_str:0000000000000708 .LASF209
     /tmp/ccx9O3zd.s:4943   .debug_loc:000000000000074c .LLST4
     /tmp/ccx9O3zd.s:5747   .debug_str:0000000000000b36 .LASF210
     /tmp/ccx9O3zd.s:4976   .debug_loc:00000000000007d4 .LLST5
     /tmp/ccx9O3zd.s:5795   .debug_str:0000000000000d65 .LASF211
     /tmp/ccx9O3zd.s:5011   .debug_loc:000000000000085e .LLST6
     /tmp/ccx9O3zd.s:179    .text:00000000000000ec .LBB28
     /tmp/ccx9O3zd.s:209    .text:0000000000000138 .LBE28
     /tmp/ccx9O3zd.s:5047   .debug_loc:00000000000008e9 .LLST7
     /tmp/ccx9O3zd.s:188    .text:0000000000000100 .LVL19
     /tmp/ccx9O3zd.s:199    .text:000000000000011c .LVL22
     /tmp/ccx9O3zd.s:208    .text:0000000000000138 .LVL23
GAS LISTING /tmp/ccx9O3zd.s 			page 43


     /tmp/ccx9O3zd.s:173    .text:00000000000000e8 .LVL15
     /tmp/ccx9O3zd.s:5729   .debug_str:0000000000000a9e .LASF213
     /tmp/ccx9O3zd.s:5535   .debug_str:00000000000003eb .LASF215
     /tmp/ccx9O3zd.s:235    .text:000000000000013c .LFB6
     /tmp/ccx9O3zd.s:431    .text:00000000000002b4 .LFE6
     /tmp/ccx9O3zd.s:5058   .debug_loc:000000000000091f .LLST8
     /tmp/ccx9O3zd.s:5076   .debug_loc:000000000000096b .LLST9
     /tmp/ccx9O3zd.s:5094   .debug_loc:00000000000009b7 .LLST10
     /tmp/ccx9O3zd.s:5399   .debug_ranges:0000000000000000 .Ldebug_ranges0
     /tmp/ccx9O3zd.s:5101   .debug_loc:00000000000009da .LLST14
     /tmp/ccx9O3zd.s:350    .text:000000000000020c .LBB36
     /tmp/ccx9O3zd.s:403    .text:000000000000028c .LBE36
     /tmp/ccx9O3zd.s:5112   .debug_loc:0000000000000a10 .LLST15
     /tmp/ccx9O3zd.s:357    .text:000000000000021c .LVL39
     /tmp/ccx9O3zd.s:364    .text:0000000000000230 .LVL40
     /tmp/ccx9O3zd.s:369    .text:0000000000000240 .LVL41
     /tmp/ccx9O3zd.s:389    .text:0000000000000274 .LVL42
     /tmp/ccx9O3zd.s:276    .text:0000000000000198 .LBB32
     /tmp/ccx9O3zd.s:303    .text:00000000000001b0 .LBE32
     /tmp/ccx9O3zd.s:5119   .debug_loc:0000000000000a33 .LLST11
     /tmp/ccx9O3zd.s:5126   .debug_loc:0000000000000a56 .LLST12
     /tmp/ccx9O3zd.s:5138   .debug_loc:0000000000000a8d .LLST13
     /tmp/ccx9O3zd.s:262    .text:0000000000000174 .LVL26
     /tmp/ccx9O3zd.s:269    .text:0000000000000188 .LVL27
     /tmp/ccx9O3zd.s:274    .text:0000000000000198 .LVL28
     /tmp/ccx9O3zd.s:308    .text:00000000000001c0 .LVL33
     /tmp/ccx9O3zd.s:315    .text:00000000000001d4 .LVL34
     /tmp/ccx9O3zd.s:320    .text:00000000000001e4 .LVL35
     /tmp/ccx9O3zd.s:5465   .debug_str:00000000000001d8 .LASF216
     /tmp/ccx9O3zd.s:5605   .debug_str:0000000000000661 .LASF217
     /tmp/ccx9O3zd.s:671    .text:0000000000000424 .LFB5
     /tmp/ccx9O3zd.s:893    .text:000000000000055c .LFE5
     /tmp/ccx9O3zd.s:5150   .debug_loc:0000000000000ac4 .LLST26
     /tmp/ccx9O3zd.s:5172   .debug_loc:0000000000000b23 .LLST27
     /tmp/ccx9O3zd.s:5813   .debug_str:0000000000000de9 .LASF218
     /tmp/ccx9O3zd.s:5183   .debug_loc:0000000000000b59 .LLST28
     /tmp/ccx9O3zd.s:5745   .debug_str:0000000000000b2c .LASF219
     /tmp/ccx9O3zd.s:5220   .debug_loc:0000000000000bc9 .LLST29
     /tmp/ccx9O3zd.s:5246   .debug_loc:0000000000000c3b .LLST30
     /tmp/ccx9O3zd.s:828    .text:00000000000004ec .LBB53
     /tmp/ccx9O3zd.s:848    .text:0000000000000510 .LBE53
     /tmp/ccx9O3zd.s:5261   .debug_loc:0000000000000c84 .LLST40
     /tmp/ccx9O3zd.s:849    .text:0000000000000510 .LBB54
     /tmp/ccx9O3zd.s:872    .text:000000000000053c .LBE54
     /tmp/ccx9O3zd.s:5273   .debug_loc:0000000000000cbb .LLST41
     /tmp/ccx9O3zd.s:866    .text:0000000000000534 .LVL112
     /tmp/ccx9O3zd.s:701    .text:000000000000045c .LBB41
     /tmp/ccx9O3zd.s:710    .text:0000000000000464 .LBE41
     /tmp/ccx9O3zd.s:5280   .debug_loc:0000000000000cde .LLST31
     /tmp/ccx9O3zd.s:716    .text:0000000000000468 .LBB43
     /tmp/ccx9O3zd.s:5287   .debug_loc:0000000000000d01 .LLST32
     /tmp/ccx9O3zd.s:5294   .debug_loc:0000000000000d24 .LLST33
     /tmp/ccx9O3zd.s:764    .text:00000000000004b0 .LBB47
     /tmp/ccx9O3zd.s:784    .text:00000000000004c0 .LBE47
     /tmp/ccx9O3zd.s:5301   .debug_loc:0000000000000d47 .LLST34
     /tmp/ccx9O3zd.s:5308   .debug_loc:0000000000000d6a .LLST35
     /tmp/ccx9O3zd.s:767    .text:00000000000004b0 .LBB49
GAS LISTING /tmp/ccx9O3zd.s 			page 44


     /tmp/ccx9O3zd.s:777    .text:00000000000004b8 .LBE49
     /tmp/ccx9O3zd.s:5358   .debug_loc:0000000000000e08 .LLST36
     /tmp/ccx9O3zd.s:795    .text:00000000000004cc .LBB51
     /tmp/ccx9O3zd.s:823    .text:00000000000004e8 .LBE51
     /tmp/ccx9O3zd.s:5365   .debug_loc:0000000000000e2b .LLST37
     /tmp/ccx9O3zd.s:5372   .debug_loc:0000000000000e4e .LLST38
     /tmp/ccx9O3zd.s:5379   .debug_loc:0000000000000e71 .LLST39
     /tmp/ccx9O3zd.s:696    .text:0000000000000458 .LVL87
     /tmp/ccx9O3zd.s:742    .text:0000000000000484 .LVL94
     /tmp/ccx9O3zd.s:749    .text:0000000000000498 .LVL95
     /tmp/ccx9O3zd.s:754    .text:00000000000004a8 .LVL96
     /tmp/ccx9O3zd.s:1004   .text:000000000000060c .LVL128
     /tmp/ccx9O3zd.s:1023   .text:0000000000000634 .LVL129
     /tmp/ccx9O3zd.s:1109   .text:00000000000006e4 .LVL144
     /tmp/ccx9O3zd.s:1030   .text:0000000000000640 .LVL131
     /tmp/ccx9O3zd.s:1106   .text:00000000000006e0 .LVL143
     /tmp/ccx9O3zd.s:1032   .text:0000000000000644 .LVL132
     /tmp/ccx9O3zd.s:1036   .text:0000000000000648 .LVL133
     /tmp/ccx9O3zd.s:1069   .text:00000000000006a0 .LVL138
     /tmp/ccx9O3zd.s:1092   .text:00000000000006d0 .LVL142
     /tmp/ccx9O3zd.s:80     .text:0000000000000060 .LVL7
     /tmp/ccx9O3zd.s:93     .text:0000000000000078 .LVL8
     /tmp/ccx9O3zd.s:14     .text:0000000000000000 .LVL0
     /tmp/ccx9O3zd.s:37     .text:0000000000000028 .LVL2
     /tmp/ccx9O3zd.s:39     .text:000000000000002c .LVL3
     /tmp/ccx9O3zd.s:56     .text:0000000000000048 .LVL4
     /tmp/ccx9O3zd.s:62     .text:000000000000004c .LVL5
     /tmp/ccx9O3zd.s:64     .text:0000000000000050 .LVL6
     /tmp/ccx9O3zd.s:440    .text:00000000000002b4 .LVL47
     /tmp/ccx9O3zd.s:497    .text:0000000000000300 .LVL54
     /tmp/ccx9O3zd.s:527    .text:0000000000000330 .LVL60
     /tmp/ccx9O3zd.s:536    .text:000000000000033c .LVL63
     /tmp/ccx9O3zd.s:649    .text:0000000000000418 .LVL83
     /tmp/ccx9O3zd.s:495    .text:00000000000002fc .LVL53
     /tmp/ccx9O3zd.s:534    .text:0000000000000338 .LVL62
     /tmp/ccx9O3zd.s:652    .text:000000000000041c .LVL84
     /tmp/ccx9O3zd.s:532    .text:0000000000000334 .LVL61
     /tmp/ccx9O3zd.s:484    .text:00000000000002f0 .LVL52
     /tmp/ccx9O3zd.s:565    .text:0000000000000370 .LVL67
     /tmp/ccx9O3zd.s:575    .text:000000000000038c .LVL70
     /tmp/ccx9O3zd.s:617    .text:00000000000003d8 .LVL77
     /tmp/ccx9O3zd.s:628    .text:00000000000003f4 .LVL80
     /tmp/ccx9O3zd.s:541    .text:0000000000000348 .LVL65
     /tmp/ccx9O3zd.s:571    .text:0000000000000380 .LVL68
     /tmp/ccx9O3zd.s:623    .text:00000000000003e8 .LVL78
     /tmp/ccx9O3zd.s:635    .text:0000000000000400 .LVL81
     /tmp/ccx9O3zd.s:506    .text:0000000000000318 .LVL56
     /tmp/ccx9O3zd.s:518    .text:0000000000000324 .LVL58
     /tmp/ccx9O3zd.s:524    .text:000000000000032c .LVL59
     /tmp/ccx9O3zd.s:558    .text:0000000000000368 .LVL66
     /tmp/ccx9O3zd.s:580    .text:0000000000000390 .LVL71
     /tmp/ccx9O3zd.s:585    .text:00000000000003a0 .LVL72
     /tmp/ccx9O3zd.s:596    .text:00000000000003ac .LVL74
     /tmp/ccx9O3zd.s:601    .text:00000000000003bc .LVL75
     /tmp/ccx9O3zd.s:606    .text:00000000000003c0 .LVL76
     /tmp/ccx9O3zd.s:510    .text:000000000000031c .LVL57
     /tmp/ccx9O3zd.s:590    .text:00000000000003a4 .LVL73
GAS LISTING /tmp/ccx9O3zd.s 			page 45


     /tmp/ccx9O3zd.s:458    .text:00000000000002d8 .LVL48
     /tmp/ccx9O3zd.s:467    .text:00000000000002e0 .LVL49
     /tmp/ccx9O3zd.s:910    .text:000000000000055c .LVL117
     /tmp/ccx9O3zd.s:931    .text:000000000000058c .LVL118
     /tmp/ccx9O3zd.s:979    .text:0000000000000604 .LVL127
     /tmp/ccx9O3zd.s:973    .text:00000000000005fc .LVL125
     /tmp/ccx9O3zd.s:976    .text:0000000000000600 .LVL126
     /tmp/ccx9O3zd.s:110    .text:0000000000000084 .LVL9
     /tmp/ccx9O3zd.s:139    .text:00000000000000bc .LVL10
     /tmp/ccx9O3zd.s:157    .text:00000000000000d0 .LVL11
     /tmp/ccx9O3zd.s:164    .text:00000000000000dc .LVL13
     /tmp/ccx9O3zd.s:175    .text:00000000000000ec .LVL16
     /tmp/ccx9O3zd.s:186    .text:00000000000000f8 .LVL18
     /tmp/ccx9O3zd.s:160    .text:00000000000000d4 .LVL12
     /tmp/ccx9O3zd.s:184    .text:00000000000000f4 .LVL17
     /tmp/ccx9O3zd.s:171    .text:00000000000000e0 .LVL14
     /tmp/ccx9O3zd.s:190    .text:0000000000000104 .LVL20
     /tmp/ccx9O3zd.s:197    .text:0000000000000114 .LVL21
     /tmp/ccx9O3zd.s:238    .text:000000000000013c .LVL24
     /tmp/ccx9O3zd.s:260    .text:000000000000016c .LVL25
     /tmp/ccx9O3zd.s:421    .text:00000000000002a4 .LVL45
     /tmp/ccx9O3zd.s:325    .text:00000000000001e8 .LVL36
     /tmp/ccx9O3zd.s:301    .text:00000000000001b0 .LVL32
     /tmp/ccx9O3zd.s:426    .text:00000000000002ac .LVL46
     /tmp/ccx9O3zd.s:418    .text:00000000000002a0 .LVL44
     /tmp/ccx9O3zd.s:352    .text:000000000000020c .LVL38
     /tmp/ccx9O3zd.s:401    .text:000000000000028c .LVL43
     /tmp/ccx9O3zd.s:284    .text:00000000000001a0 .LVL29
     /tmp/ccx9O3zd.s:674    .text:0000000000000424 .LVL85
     /tmp/ccx9O3zd.s:694    .text:0000000000000450 .LVL86
     /tmp/ccx9O3zd.s:708    .text:0000000000000464 .LVL89
     /tmp/ccx9O3zd.s:728    .text:000000000000046c .LVL91
     /tmp/ccx9O3zd.s:888    .text:0000000000000554 .LVL116
     /tmp/ccx9O3zd.s:762    .text:00000000000004b0 .LVL98
     /tmp/ccx9O3zd.s:773    .text:00000000000004b4 .LVL99
     /tmp/ccx9O3zd.s:775    .text:00000000000004b8 .LVL100
     /tmp/ccx9O3zd.s:730    .text:0000000000000470 .LVL92
     /tmp/ccx9O3zd.s:852    .text:0000000000000514 .LVL111
     /tmp/ccx9O3zd.s:885    .text:0000000000000550 .LVL115
     /tmp/ccx9O3zd.s:827    .text:00000000000004ec .LVL108
     /tmp/ccx9O3zd.s:831    .text:00000000000004f0 .LVL109
     /tmp/ccx9O3zd.s:882    .text:000000000000054c .LVL114
     /tmp/ccx9O3zd.s:700    .text:000000000000045c .LVL88
     /tmp/ccx9O3zd.s:715    .text:0000000000000468 .LVL90
     /tmp/ccx9O3zd.s:736    .text:0000000000000474 .LVL93
     /tmp/ccx9O3zd.s:782    .text:00000000000004c0 .LVL101
     /tmp/ccx9O3zd.s:799    .text:00000000000004d0 .LVL103
     /tmp/ccx9O3zd.s:794    .text:00000000000004cc .LVL102
     /tmp/ccx9O3zd.s:821    .text:00000000000004e8 .LVL107
     /tmp/ccx9O3zd.s:803    .text:00000000000004d4 .LVL104
     /tmp/ccx9O3zd.s:1123   .debug_info:0000000000000000 .Ldebug_info0
     /tmp/ccx9O3zd.s:322    .text:00000000000001e4 .LBB34
     /tmp/ccx9O3zd.s:332    .text:00000000000001f0 .LBE34
     /tmp/ccx9O3zd.s:334    .text:00000000000001f0 .LBB38
     /tmp/ccx9O3zd.s:405    .text:000000000000028c .LBE38
     /tmp/ccx9O3zd.s:720    .text:0000000000000468 .LBE43
     /tmp/ccx9O3zd.s:723    .text:0000000000000468 .LBB46
GAS LISTING /tmp/ccx9O3zd.s 			page 46


     /tmp/ccx9O3zd.s:732    .text:0000000000000470 .LBE46

UNDEFINED SYMBOLS
_ZN8KConsole15trapPrintStringEPKc
_ZN8KConsole12trapPrintIntEiii
