GAS LISTING /tmp/ccl6rDaT.s 			page 1


   1              		.file	"buddyAllocator.cpp"
   2              		.option pic
   3              		.option norelax
   4              		.text
   5              	.Ltext0:
   6              		.align	2
   7              		.globl	_Z15addBlockToLevelP14buddyAllocatorPvm
   9              	_Z15addBlockToLevelP14buddyAllocatorPvm:
  10              	.LFB14:
  11              		.file 1 "src/buddyAllocator.cpp"
   1:src/buddyAllocator.cpp **** #include "../h/buddyAllocator.hpp"
   2:src/buddyAllocator.cpp **** #include "../h/KConsole.hpp"
   3:src/buddyAllocator.cpp **** 
   4:src/buddyAllocator.cpp **** #define BLOCK_SIZE 4096
   5:src/buddyAllocator.cpp **** 
   6:src/buddyAllocator.cpp **** buddyAllocator* buddy_init(void* addr, size_t numOfBlocks)
   7:src/buddyAllocator.cpp **** {
   8:src/buddyAllocator.cpp ****     KConsole::trapPrintString("Buddy initialization\n");
   9:src/buddyAllocator.cpp ****     size_t blockAddr = getBlockAddr((size_t)addr); //alling the address
  10:src/buddyAllocator.cpp ****     size_t buddyAddr = (size_t)addr;
  11:src/buddyAllocator.cpp ****     KConsole::trapPrintInt(blockAddr,16); KConsole::trapPrintString("\n");
  12:src/buddyAllocator.cpp ****     KConsole::trapPrintInt(buddyAddr,16); KConsole::trapPrintString("\n");
  13:src/buddyAllocator.cpp ****     if((size_t)addr != blockAddr) // if start address not aligned
  14:src/buddyAllocator.cpp ****     {
  15:src/buddyAllocator.cpp ****         buddyAddr = getNextBlockAddr(blockAddr);
  16:src/buddyAllocator.cpp ****         numOfBlocks--; //have to discard one block
  17:src/buddyAllocator.cpp ****     }
  18:src/buddyAllocator.cpp ****     KConsole::trapPrintString("Buddy metadata address: ");
  19:src/buddyAllocator.cpp ****     KConsole::trapPrintInt(buddyAddr,16); KConsole::trapPrintString("\n");
  20:src/buddyAllocator.cpp ****     numOfBlocks--; // take one block for buddy metadata
  21:src/buddyAllocator.cpp ****     buddyAllocator* buddy = (buddyAllocator*)buddyAddr;
  22:src/buddyAllocator.cpp ****     buddy->startAddr = (void*)getNextBlockAddr(buddyAddr);
  23:src/buddyAllocator.cpp ****     buddy->numOfBlocks = numOfBlocks;
  24:src/buddyAllocator.cpp ****     buddy->numOfFreeBlocks = numOfBlocks;
  25:src/buddyAllocator.cpp ****     buddy->maxLevel = getDeg2Floor(numOfBlocks);
  26:src/buddyAllocator.cpp **** 
  27:src/buddyAllocator.cpp ****     for(size_t i = 0; i <= buddy->maxLevel;i++)
  28:src/buddyAllocator.cpp ****         buddy->bucket[i].first = buddy->bucket[i].last = nullptr;
  29:src/buddyAllocator.cpp **** 
  30:src/buddyAllocator.cpp ****     //TODO
  31:src/buddyAllocator.cpp ****     //maybe do it differently, like putting in chunks of power of 2
  32:src/buddyAllocator.cpp ****     for(size_t i = 0;i < numOfBlocks;i++)
  33:src/buddyAllocator.cpp ****         addBlocks(buddy, (block*)buddy->startAddr + i, 1);
  34:src/buddyAllocator.cpp **** 
  35:src/buddyAllocator.cpp ****     return buddy;
  36:src/buddyAllocator.cpp **** }
  37:src/buddyAllocator.cpp **** 
  38:src/buddyAllocator.cpp **** void* buddy_alloc(buddyAllocator* buddy, size_t numOfBlocks)
  39:src/buddyAllocator.cpp **** {
  40:src/buddyAllocator.cpp ****     KConsole::trapPrintString("Buddy allocation: ");
  41:src/buddyAllocator.cpp ****     KConsole::trapPrintInt(numOfBlocks); KConsole::trapPrintString("\n");
  42:src/buddyAllocator.cpp ****     size_t level = getDeg2Ceil(numOfBlocks);
  43:src/buddyAllocator.cpp ****     KConsole::trapPrintString("Level: ");
  44:src/buddyAllocator.cpp ****     KConsole::trapPrintInt(level); KConsole::trapPrintString("\n");
  45:src/buddyAllocator.cpp ****     for(size_t i = level; i <= buddy->maxLevel;i++)
  46:src/buddyAllocator.cpp ****     {
  47:src/buddyAllocator.cpp ****         if(buddy->bucket[i].first != nullptr)
GAS LISTING /tmp/ccl6rDaT.s 			page 2


  48:src/buddyAllocator.cpp ****         {
  49:src/buddyAllocator.cpp ****             buddyBlock* ret = buddy->bucket[i].first;
  50:src/buddyAllocator.cpp ****             KConsole::trapPrintString("Found the block:");
  51:src/buddyAllocator.cpp ****             KConsole::trapPrintInt((size_t)ret, 16); KConsole::trapPrintString("\n");
  52:src/buddyAllocator.cpp ****             buddy->bucket[i].first = ret->next;
  53:src/buddyAllocator.cpp ****             if(buddy->bucket[i].first == nullptr)
  54:src/buddyAllocator.cpp ****                 buddy->bucket[i].last = nullptr;
  55:src/buddyAllocator.cpp ****             split(buddy, (void*)ret, level, i, true);
  56:src/buddyAllocator.cpp ****             return ret;
  57:src/buddyAllocator.cpp ****         }
  58:src/buddyAllocator.cpp ****     }
  59:src/buddyAllocator.cpp **** 
  60:src/buddyAllocator.cpp ****     return nullptr;
  61:src/buddyAllocator.cpp **** }
  62:src/buddyAllocator.cpp **** 
  63:src/buddyAllocator.cpp **** //split chunks into smaller chunks, until it is necessary
  64:src/buddyAllocator.cpp **** void split(buddyAllocator* buddy, void* addr, size_t finalLevel, size_t currLevel, bool splitMore)
  65:src/buddyAllocator.cpp **** {
  66:src/buddyAllocator.cpp ****     if(!splitMore)
  67:src/buddyAllocator.cpp ****     {
  68:src/buddyAllocator.cpp ****         addBlockToLevel(buddy, addr, currLevel);
  69:src/buddyAllocator.cpp ****     }
  70:src/buddyAllocator.cpp ****     else
  71:src/buddyAllocator.cpp ****     {
  72:src/buddyAllocator.cpp ****         if(currLevel == finalLevel)
  73:src/buddyAllocator.cpp ****             return;
  74:src/buddyAllocator.cpp ****         //if(currLevel > finalLevel) // condition not necessary, just for protection
  75:src/buddyAllocator.cpp ****         //{
  76:src/buddyAllocator.cpp ****         size_t buddyBlock = getBuddyBlockAddr(buddy, addr, currLevel - 1); // currLevel - 1 for nex
  77:src/buddyAllocator.cpp ****         split(buddy, (void*)buddyBlock, finalLevel, currLevel - 1, false); // continue splitting
  78:src/buddyAllocator.cpp ****         split(buddy, addr, finalLevel, currLevel - 1, true); // continue splitting
  79:src/buddyAllocator.cpp ****         //}
  80:src/buddyAllocator.cpp ****     }
  81:src/buddyAllocator.cpp **** }
  82:src/buddyAllocator.cpp **** 
  83:src/buddyAllocator.cpp **** //TODO
  84:src/buddyAllocator.cpp **** //maybe check if address is aligned to start of block
  85:src/buddyAllocator.cpp **** void buddy_free(buddyAllocator* buddy, void* addr, size_t numOfBlocks)
  86:src/buddyAllocator.cpp **** {
  87:src/buddyAllocator.cpp ****     KConsole::trapPrintString("Buddy free: ");
  88:src/buddyAllocator.cpp ****     KConsole::trapPrintInt((size_t)addr,16); KConsole::trapPrintString(" ");
  89:src/buddyAllocator.cpp ****     KConsole::trapPrintInt(numOfBlocks); KConsole::trapPrintString("\n");
  90:src/buddyAllocator.cpp ****     addBlocks(buddy, addr, numOfBlocks); //adds free blocks
  91:src/buddyAllocator.cpp **** }
  92:src/buddyAllocator.cpp **** 
  93:src/buddyAllocator.cpp **** inline size_t getBlockAddr(size_t addr)
  94:src/buddyAllocator.cpp **** {
  95:src/buddyAllocator.cpp ****     size_t mask = ((size_t)-1) << BLOCK_SIZE_POWER_2;
  96:src/buddyAllocator.cpp ****     return addr & mask;
  97:src/buddyAllocator.cpp **** }
  98:src/buddyAllocator.cpp **** inline size_t getNextBlockAddr(size_t addr)
  99:src/buddyAllocator.cpp **** {
 100:src/buddyAllocator.cpp ****     size_t currBlock = getBlockAddr(addr);
 101:src/buddyAllocator.cpp ****     return currBlock + BLOCK_SIZE;
 102:src/buddyAllocator.cpp **** }
 103:src/buddyAllocator.cpp **** 
 104:src/buddyAllocator.cpp **** inline size_t getDeg2Floor(size_t num)
GAS LISTING /tmp/ccl6rDaT.s 			page 3


 105:src/buddyAllocator.cpp **** {
 106:src/buddyAllocator.cpp ****     size_t x = 1;
 107:src/buddyAllocator.cpp ****     size_t deg = 0;
 108:src/buddyAllocator.cpp ****     while(x <= num)
 109:src/buddyAllocator.cpp ****     {
 110:src/buddyAllocator.cpp ****         deg++;
 111:src/buddyAllocator.cpp ****         x<<=1;
 112:src/buddyAllocator.cpp ****     }
 113:src/buddyAllocator.cpp ****     return deg - 1;
 114:src/buddyAllocator.cpp **** }
 115:src/buddyAllocator.cpp **** 
 116:src/buddyAllocator.cpp **** inline size_t getDeg2Ceil(size_t num)
 117:src/buddyAllocator.cpp **** {
 118:src/buddyAllocator.cpp ****     size_t x = 1;
 119:src/buddyAllocator.cpp ****     size_t deg = 0;
 120:src/buddyAllocator.cpp ****     while(x < num)
 121:src/buddyAllocator.cpp ****     {
 122:src/buddyAllocator.cpp ****         deg++;
 123:src/buddyAllocator.cpp ****         x<<=1;
 124:src/buddyAllocator.cpp ****     }
 125:src/buddyAllocator.cpp ****     return deg;
 126:src/buddyAllocator.cpp **** }
 127:src/buddyAllocator.cpp **** 
 128:src/buddyAllocator.cpp **** //TODO
 129:src/buddyAllocator.cpp **** //maybe change it to work with levels instead of numOfBlocks
 130:src/buddyAllocator.cpp **** //function to add free blocks to the buddy
 131:src/buddyAllocator.cpp **** void addBlocks(buddyAllocator* buddy, void* addr, size_t numOfBlocks)
 132:src/buddyAllocator.cpp **** {
 133:src/buddyAllocator.cpp ****     size_t level = getDeg2Ceil(numOfBlocks);
 134:src/buddyAllocator.cpp ****     if(level == buddy->maxLevel)
 135:src/buddyAllocator.cpp ****     {
 136:src/buddyAllocator.cpp ****         addBlockToLevel(buddy, addr, level);
 137:src/buddyAllocator.cpp ****         return;
 138:src/buddyAllocator.cpp ****     }
 139:src/buddyAllocator.cpp ****     size_t buddyBlockAddr = getBuddyBlockAddr(buddy,addr,level);
 140:src/buddyAllocator.cpp ****     KConsole::trapPrintString("Buddy block addr ");
 141:src/buddyAllocator.cpp ****     KConsole::trapPrintInt(buddyBlockAddr, 16); KConsole::trapPrintString("\n");
 142:src/buddyAllocator.cpp ****     buddyBlock* curr = buddy->bucket[level].first;
 143:src/buddyAllocator.cpp ****     buddyBlock* prev = nullptr;
 144:src/buddyAllocator.cpp ****     while(curr != nullptr)
 145:src/buddyAllocator.cpp ****     {
 146:src/buddyAllocator.cpp ****         if((size_t)curr == buddyBlockAddr)
 147:src/buddyAllocator.cpp ****         {
 148:src/buddyAllocator.cpp ****             if(prev != nullptr)
 149:src/buddyAllocator.cpp ****             {
 150:src/buddyAllocator.cpp ****                 prev->next = curr->next;
 151:src/buddyAllocator.cpp ****                 if(curr == buddy->bucket[level].last)
 152:src/buddyAllocator.cpp ****                     buddy->bucket[level].last = prev;
 153:src/buddyAllocator.cpp ****             }
 154:src/buddyAllocator.cpp ****             else
 155:src/buddyAllocator.cpp ****             {
 156:src/buddyAllocator.cpp ****                 if(curr->next == nullptr)
 157:src/buddyAllocator.cpp ****                     buddy->bucket[level].first = buddy->bucket[level].last = nullptr;
 158:src/buddyAllocator.cpp ****                 else
 159:src/buddyAllocator.cpp ****                     buddy->bucket[level].first = curr->next;
 160:src/buddyAllocator.cpp ****             }
 161:src/buddyAllocator.cpp ****             if((size_t)addr < buddyBlockAddr) addBlocks(buddy, addr, 1 << (level + 1)); //merge two
GAS LISTING /tmp/ccl6rDaT.s 			page 4


 162:src/buddyAllocator.cpp ****             else addBlocks(buddy, (void*)buddyBlockAddr, 1 << (level + 1)); //merge two chunks
 163:src/buddyAllocator.cpp ****             return;
 164:src/buddyAllocator.cpp ****         }
 165:src/buddyAllocator.cpp **** 
 166:src/buddyAllocator.cpp ****         prev = curr;
 167:src/buddyAllocator.cpp ****         curr = curr->next;
 168:src/buddyAllocator.cpp ****     }
 169:src/buddyAllocator.cpp **** 
 170:src/buddyAllocator.cpp ****     addBlockToLevel(buddy, addr, level);
 171:src/buddyAllocator.cpp **** }
 172:src/buddyAllocator.cpp **** 
 173:src/buddyAllocator.cpp **** //adds free block to level
 174:src/buddyAllocator.cpp **** void addBlockToLevel(buddyAllocator* buddy, void* addr, size_t level)
 175:src/buddyAllocator.cpp **** {
  12              		.loc 1 175 1
  13              		.cfi_startproc
  14              	.LVL0:
  15 0000 130101FF 		addi	sp,sp,-16
  16              		.cfi_def_cfa_offset 16
  17 0004 23348100 		sd	s0,8(sp)
  18              		.cfi_offset 8, -8
  19 0008 13040101 		addi	s0,sp,16
  20              		.cfi_def_cfa 8, 0
 176:src/buddyAllocator.cpp ****     buddyBlock* newBlock = (buddyBlock*)addr;
  21              		.loc 1 176 5
  22              	.LVL1:
 177:src/buddyAllocator.cpp ****     newBlock->next = nullptr;
  23              		.loc 1 177 5
  24              		.loc 1 177 20 is_stmt 0
  25 000c 23B00500 		sd	zero,0(a1)
 178:src/buddyAllocator.cpp ****     if(buddy->bucket[level].first == nullptr)
  26              		.loc 1 178 5 is_stmt 1
  27              		.loc 1 178 29 is_stmt 0
  28 0010 93072600 		addi	a5,a2,2
  29 0014 93974700 		slli	a5,a5,4
  30 0018 B307F500 		add	a5,a0,a5
  31 001c 83B70700 		ld	a5,0(a5)
  32              		.loc 1 178 5
  33 0020 63840702 		beqz	a5,.L5
 179:src/buddyAllocator.cpp ****     {
 180:src/buddyAllocator.cpp ****         buddy->bucket[level].first = buddy->bucket[level].last = newBlock;
 181:src/buddyAllocator.cpp ****     }
 182:src/buddyAllocator.cpp ****     else
 183:src/buddyAllocator.cpp ****     {
 184:src/buddyAllocator.cpp ****         buddy->bucket[level].last->next = newBlock;
  34              		.loc 1 184 9 is_stmt 1
  35              		.loc 1 184 30 is_stmt 0
  36 0024 13062600 		addi	a2,a2,2
  37              	.LVL2:
  38 0028 13164600 		slli	a2,a2,4
  39              	.LVL3:
  40 002c 3306C500 		add	a2,a0,a2
  41 0030 83378600 		ld	a5,8(a2)
  42              		.loc 1 184 41
  43 0034 23B0B700 		sd	a1,0(a5)
 185:src/buddyAllocator.cpp ****         buddy->bucket[level].last = newBlock;
  44              		.loc 1 185 9 is_stmt 1
GAS LISTING /tmp/ccl6rDaT.s 			page 5


  45              		.loc 1 185 35 is_stmt 0
  46 0038 2334B600 		sd	a1,8(a2)
  47              	.L1:
 186:src/buddyAllocator.cpp ****     }
 187:src/buddyAllocator.cpp **** }
  48              		.loc 1 187 1
  49 003c 03348100 		ld	s0,8(sp)
  50              		.cfi_remember_state
  51              		.cfi_restore 8
  52              		.cfi_def_cfa 2, 16
  53 0040 13010101 		addi	sp,sp,16
  54              		.cfi_def_cfa_offset 0
  55 0044 67800000 		jr	ra
  56              	.LVL4:
  57              	.L5:
  58              		.cfi_restore_state
 180:src/buddyAllocator.cpp ****     }
  59              		.loc 1 180 9 is_stmt 1
 180:src/buddyAllocator.cpp ****     }
  60              		.loc 1 180 64 is_stmt 0
  61 0048 13062600 		addi	a2,a2,2
  62              	.LVL5:
  63 004c 13164600 		slli	a2,a2,4
  64              	.LVL6:
  65 0050 3306C500 		add	a2,a0,a2
  66 0054 2334B600 		sd	a1,8(a2)
 180:src/buddyAllocator.cpp ****     }
  67              		.loc 1 180 36
  68 0058 2330B600 		sd	a1,0(a2)
  69 005c 6FF01FFE 		j	.L1
  70              		.cfi_endproc
  71              	.LFE14:
  73              		.align	2
  74              		.globl	_Z17getBuddyBlockAddrP14buddyAllocatorPvm
  76              	_Z17getBuddyBlockAddrP14buddyAllocatorPvm:
  77              	.LFB15:
 188:src/buddyAllocator.cpp **** 
 189:src/buddyAllocator.cpp **** size_t getBuddyBlockAddr(buddyAllocator* buddy, void* addr, size_t level)
 190:src/buddyAllocator.cpp **** {
  78              		.loc 1 190 1 is_stmt 1
  79              		.cfi_startproc
  80              	.LVL7:
  81 0060 130101FF 		addi	sp,sp,-16
  82              		.cfi_def_cfa_offset 16
  83 0064 23348100 		sd	s0,8(sp)
  84              		.cfi_offset 8, -8
  85 0068 13040101 		addi	s0,sp,16
  86              		.cfi_def_cfa 8, 0
 191:src/buddyAllocator.cpp ****     size_t diff = BLOCK_SIZE << level;
  87              		.loc 1 191 5
  88              		.loc 1 191 30 is_stmt 0
  89 006c B7170000 		li	a5,4096
  90 0070 3B96C700 		sllw	a2,a5,a2
  91              	.LVL8:
 192:src/buddyAllocator.cpp ****     size_t off = (size_t)addr - (size_t)buddy->startAddr;
  92              		.loc 1 192 5 is_stmt 1
  93              		.loc 1 192 48 is_stmt 0
GAS LISTING /tmp/ccl6rDaT.s 			page 6


  94 0074 83378500 		ld	a5,8(a0)
  95              		.loc 1 192 12
  96 0078 B387F540 		sub	a5,a1,a5
  97              	.LVL9:
 193:src/buddyAllocator.cpp ****     if(diff & off)
  98              		.loc 1 193 5 is_stmt 1
  99              		.loc 1 193 13 is_stmt 0
 100 007c B377F600 		and	a5,a2,a5
 101              	.LVL10:
 102              		.loc 1 193 5
 103 0080 638A0700 		beqz	a5,.L7
 194:src/buddyAllocator.cpp ****         return (size_t)addr - diff;
 104              		.loc 1 194 9 is_stmt 1
 105              		.loc 1 194 31 is_stmt 0
 106 0084 3385C540 		sub	a0,a1,a2
 107              	.LVL11:
 108              	.L6:
 195:src/buddyAllocator.cpp ****     else
 196:src/buddyAllocator.cpp ****         return (size_t)addr + diff;
 197:src/buddyAllocator.cpp **** }
 109              		.loc 1 197 1
 110 0088 03348100 		ld	s0,8(sp)
 111              		.cfi_remember_state
 112              		.cfi_restore 8
 113              		.cfi_def_cfa 2, 16
 114 008c 13010101 		addi	sp,sp,16
 115              		.cfi_def_cfa_offset 0
 116 0090 67800000 		jr	ra
 117              	.LVL12:
 118              	.L7:
 119              		.cfi_restore_state
 196:src/buddyAllocator.cpp **** }
 120              		.loc 1 196 9 is_stmt 1
 196:src/buddyAllocator.cpp **** }
 121              		.loc 1 196 31 is_stmt 0
 122 0094 3385C500 		add	a0,a1,a2
 123              	.LVL13:
 124 0098 6FF01FFF 		j	.L6
 125              		.cfi_endproc
 126              	.LFE15:
 128              		.align	2
 129              		.globl	_Z5splitP14buddyAllocatorPvmmb
 131              	_Z5splitP14buddyAllocatorPvmmb:
 132              	.LFB7:
  65:src/buddyAllocator.cpp ****     if(!splitMore)
 133              		.loc 1 65 1 is_stmt 1
 134              		.cfi_startproc
 135              	.LVL14:
 136 009c 130101FD 		addi	sp,sp,-48
 137              		.cfi_def_cfa_offset 48
 138 00a0 23341102 		sd	ra,40(sp)
 139 00a4 23308102 		sd	s0,32(sp)
 140 00a8 233C9100 		sd	s1,24(sp)
 141 00ac 23382101 		sd	s2,16(sp)
 142 00b0 23343101 		sd	s3,8(sp)
 143 00b4 23304101 		sd	s4,0(sp)
 144              		.cfi_offset 1, -8
GAS LISTING /tmp/ccl6rDaT.s 			page 7


 145              		.cfi_offset 8, -16
 146              		.cfi_offset 9, -24
 147              		.cfi_offset 18, -32
 148              		.cfi_offset 19, -40
 149              		.cfi_offset 20, -48
 150 00b8 13040103 		addi	s0,sp,48
 151              		.cfi_def_cfa 8, 0
 152 00bc 13090500 		mv	s2,a0
 153 00c0 138A0500 		mv	s4,a1
  66:src/buddyAllocator.cpp ****     {
 154              		.loc 1 66 5
 155              	.LBB25:
 156 00c4 630A0706 		beqz	a4,.L14
 157 00c8 93090600 		mv	s3,a2
 158              	.LBB26:
  72:src/buddyAllocator.cpp ****             return;
 159              		.loc 1 72 9
 160 00cc 6386C604 		beq	a3,a2,.L10
  76:src/buddyAllocator.cpp ****         split(buddy, (void*)buddyBlock, finalLevel, currLevel - 1, false); // continue splitting
 161              		.loc 1 76 9
  76:src/buddyAllocator.cpp ****         split(buddy, (void*)buddyBlock, finalLevel, currLevel - 1, false); // continue splitting
 162              		.loc 1 76 46 is_stmt 0
 163 00d0 9384F6FF 		addi	s1,a3,-1
 164 00d4 13860400 		mv	a2,s1
 165              	.LVL15:
 166 00d8 97000000 		call	_Z17getBuddyBlockAddrP14buddyAllocatorPvm
 166      E7800000 
 167              	.LVL16:
 168 00e0 93050500 		mv	a1,a0
 169              	.LVL17:
  77:src/buddyAllocator.cpp ****         split(buddy, addr, finalLevel, currLevel - 1, true); // continue splitting
 170              		.loc 1 77 9 is_stmt 1
  77:src/buddyAllocator.cpp ****         split(buddy, addr, finalLevel, currLevel - 1, true); // continue splitting
 171              		.loc 1 77 14 is_stmt 0
 172 00e4 13070000 		li	a4,0
 173 00e8 93860400 		mv	a3,s1
 174 00ec 13860900 		mv	a2,s3
 175 00f0 13050900 		mv	a0,s2
 176              	.LVL18:
 177 00f4 97000000 		call	_Z5splitP14buddyAllocatorPvmmb
 177      E7800000 
 178              	.LVL19:
  78:src/buddyAllocator.cpp ****         //}
 179              		.loc 1 78 9 is_stmt 1
  78:src/buddyAllocator.cpp ****         //}
 180              		.loc 1 78 14 is_stmt 0
 181 00fc 13071000 		li	a4,1
 182 0100 93860400 		mv	a3,s1
 183 0104 13860900 		mv	a2,s3
 184 0108 93050A00 		mv	a1,s4
 185 010c 13050900 		mv	a0,s2
 186 0110 97000000 		call	_Z5splitP14buddyAllocatorPvmmb
 186      E7800000 
 187              	.LVL20:
 188              	.L10:
 189              	.LBE26:
 190              	.LBE25:
GAS LISTING /tmp/ccl6rDaT.s 			page 8


  81:src/buddyAllocator.cpp **** 
 191              		.loc 1 81 1
 192 0118 83308102 		ld	ra,40(sp)
 193              		.cfi_remember_state
 194              		.cfi_restore 1
 195 011c 03340102 		ld	s0,32(sp)
 196              		.cfi_restore 8
 197              		.cfi_def_cfa 2, 48
 198 0120 83348101 		ld	s1,24(sp)
 199              		.cfi_restore 9
 200 0124 03390101 		ld	s2,16(sp)
 201              		.cfi_restore 18
 202              	.LVL21:
 203 0128 83398100 		ld	s3,8(sp)
 204              		.cfi_restore 19
 205 012c 033A0100 		ld	s4,0(sp)
 206              		.cfi_restore 20
 207              	.LVL22:
 208 0130 13010103 		addi	sp,sp,48
 209              		.cfi_def_cfa_offset 0
 210 0134 67800000 		jr	ra
 211              	.LVL23:
 212              	.L14:
 213              		.cfi_restore_state
 214              	.LBB27:
  68:src/buddyAllocator.cpp ****     }
 215              		.loc 1 68 9 is_stmt 1
  68:src/buddyAllocator.cpp ****     }
 216              		.loc 1 68 24 is_stmt 0
 217 0138 13860600 		mv	a2,a3
 218              	.LVL24:
 219 013c 97000000 		call	_Z15addBlockToLevelP14buddyAllocatorPvm
 219      E7800000 
 220              	.LVL25:
 221 0144 6FF05FFD 		j	.L10
 222              	.LBE27:
 223              		.cfi_endproc
 224              	.LFE7:
 226              		.section	.rodata.str1.8,"aMS",@progbits,1
 227              		.align	3
 228              	.LC0:
 229 0000 42756464 		.string	"Buddy allocation: "
 229      7920616C 
 229      6C6F6361 
 229      74696F6E 
 229      3A2000
 230 0013 00000000 		.align	3
 230      00
 231              	.LC1:
 232 0018 0A00     		.string	"\n"
 233 001a 00000000 		.align	3
 233      0000
 234              	.LC2:
 235 0020 4C657665 		.string	"Level: "
 235      6C3A2000 
 236              		.align	3
 237              	.LC3:
GAS LISTING /tmp/ccl6rDaT.s 			page 9


 238 0028 466F756E 		.string	"Found the block:"
 238      64207468 
 238      6520626C 
 238      6F636B3A 
 238      00
 239              		.text
 240              		.align	2
 241              		.globl	_Z11buddy_allocP14buddyAllocatorm
 243              	_Z11buddy_allocP14buddyAllocatorm:
 244              	.LFB6:
  39:src/buddyAllocator.cpp ****     KConsole::trapPrintString("Buddy allocation: ");
 245              		.loc 1 39 1 is_stmt 1
 246              		.cfi_startproc
 247              	.LVL26:
 248 0148 130101FD 		addi	sp,sp,-48
 249              		.cfi_def_cfa_offset 48
 250 014c 23341102 		sd	ra,40(sp)
 251 0150 23308102 		sd	s0,32(sp)
 252 0154 233C9100 		sd	s1,24(sp)
 253 0158 23382101 		sd	s2,16(sp)
 254 015c 23343101 		sd	s3,8(sp)
 255 0160 23304101 		sd	s4,0(sp)
 256              		.cfi_offset 1, -8
 257              		.cfi_offset 8, -16
 258              		.cfi_offset 9, -24
 259              		.cfi_offset 18, -32
 260              		.cfi_offset 19, -40
 261              		.cfi_offset 20, -48
 262 0164 13040103 		addi	s0,sp,48
 263              		.cfi_def_cfa 8, 0
 264 0168 13090500 		mv	s2,a0
 265 016c 93840500 		mv	s1,a1
  40:src/buddyAllocator.cpp ****     KConsole::trapPrintInt(numOfBlocks); KConsole::trapPrintString("\n");
 266              		.loc 1 40 5
  40:src/buddyAllocator.cpp ****     KConsole::trapPrintInt(numOfBlocks); KConsole::trapPrintString("\n");
 267              		.loc 1 40 30 is_stmt 0
 268 0170 17050000 		lla	a0,.LC0
 268      13050500 
 269              	.LVL27:
 270 0178 97000000 		call	_ZN8KConsole15trapPrintStringEPKc@plt
 270      E7800000 
 271              	.LVL28:
  41:src/buddyAllocator.cpp ****     size_t level = getDeg2Ceil(numOfBlocks);
 272              		.loc 1 41 5 is_stmt 1
  41:src/buddyAllocator.cpp ****     size_t level = getDeg2Ceil(numOfBlocks);
 273              		.loc 1 41 27 is_stmt 0
 274 0180 13060000 		li	a2,0
 275 0184 9305A000 		li	a1,10
 276 0188 13850400 		mv	a0,s1
 277 018c 97000000 		call	_ZN8KConsole12trapPrintIntEmii@plt
 277      E7800000 
 278              	.LVL29:
  41:src/buddyAllocator.cpp ****     size_t level = getDeg2Ceil(numOfBlocks);
 279              		.loc 1 41 42 is_stmt 1
  41:src/buddyAllocator.cpp ****     size_t level = getDeg2Ceil(numOfBlocks);
 280              		.loc 1 41 67 is_stmt 0
 281 0194 17050000 		lla	a0,.LC1
GAS LISTING /tmp/ccl6rDaT.s 			page 10


 281      13050500 
 282 019c 97000000 		call	_ZN8KConsole15trapPrintStringEPKc@plt
 282      E7800000 
 283              	.LVL30:
  42:src/buddyAllocator.cpp ****     KConsole::trapPrintString("Level: ");
 284              		.loc 1 42 5 is_stmt 1
 285              	.LBB28:
 286              	.LBB29:
 118:src/buddyAllocator.cpp ****     size_t deg = 0;
 287              		.loc 1 118 5
 119:src/buddyAllocator.cpp ****     while(x < num)
 288              		.loc 1 119 5
 119:src/buddyAllocator.cpp ****     while(x < num)
 289              		.loc 1 119 12 is_stmt 0
 290 01a4 130A0000 		li	s4,0
 118:src/buddyAllocator.cpp ****     size_t deg = 0;
 291              		.loc 1 118 12
 292 01a8 93071000 		li	a5,1
 293              	.LVL31:
 294              	.L17:
 120:src/buddyAllocator.cpp ****     {
 295              		.loc 1 120 5 is_stmt 1
 120:src/buddyAllocator.cpp ****     {
 296              		.loc 1 120 13
 297 01ac 63F89700 		bleu	s1,a5,.L16
 122:src/buddyAllocator.cpp ****         x<<=1;
 298              		.loc 1 122 9
 122:src/buddyAllocator.cpp ****         x<<=1;
 299              		.loc 1 122 12 is_stmt 0
 300 01b0 130A1A00 		addi	s4,s4,1
 301              	.LVL32:
 123:src/buddyAllocator.cpp ****     }
 302              		.loc 1 123 9 is_stmt 1
 123:src/buddyAllocator.cpp ****     }
 303              		.loc 1 123 10 is_stmt 0
 304 01b4 93971700 		slli	a5,a5,1
 305              	.LVL33:
 120:src/buddyAllocator.cpp ****     {
 306              		.loc 1 120 5
 307 01b8 6FF05FFF 		j	.L17
 308              	.L16:
 125:src/buddyAllocator.cpp **** }
 309              		.loc 1 125 5 is_stmt 1
 310              	.LVL34:
 311              	.LBE29:
 312              	.LBE28:
  43:src/buddyAllocator.cpp ****     KConsole::trapPrintInt(level); KConsole::trapPrintString("\n");
 313              		.loc 1 43 5
  43:src/buddyAllocator.cpp ****     KConsole::trapPrintInt(level); KConsole::trapPrintString("\n");
 314              		.loc 1 43 30 is_stmt 0
 315 01bc 17050000 		lla	a0,.LC2
 315      13050500 
 316 01c4 97000000 		call	_ZN8KConsole15trapPrintStringEPKc@plt
 316      E7800000 
 317              	.LVL35:
  44:src/buddyAllocator.cpp ****     for(size_t i = level; i <= buddy->maxLevel;i++)
 318              		.loc 1 44 5 is_stmt 1
GAS LISTING /tmp/ccl6rDaT.s 			page 11


  44:src/buddyAllocator.cpp ****     for(size_t i = level; i <= buddy->maxLevel;i++)
 319              		.loc 1 44 27 is_stmt 0
 320 01cc 13060000 		li	a2,0
 321 01d0 9305A000 		li	a1,10
 322 01d4 13050A00 		mv	a0,s4
 323 01d8 97000000 		call	_ZN8KConsole12trapPrintIntEmii@plt
 323      E7800000 
 324              	.LVL36:
  44:src/buddyAllocator.cpp ****     for(size_t i = level; i <= buddy->maxLevel;i++)
 325              		.loc 1 44 36 is_stmt 1
  44:src/buddyAllocator.cpp ****     for(size_t i = level; i <= buddy->maxLevel;i++)
 326              		.loc 1 44 61 is_stmt 0
 327 01e0 17050000 		lla	a0,.LC1
 327      13050500 
 328 01e8 97000000 		call	_ZN8KConsole15trapPrintStringEPKc@plt
 328      E7800000 
 329              	.LVL37:
  45:src/buddyAllocator.cpp ****     {
 330              		.loc 1 45 5 is_stmt 1
 331              	.LBB30:
  45:src/buddyAllocator.cpp ****     {
 332              		.loc 1 45 16 is_stmt 0
 333 01f0 93040A00 		mv	s1,s4
 334              	.LVL38:
 335              	.L21:
  45:src/buddyAllocator.cpp ****     {
 336              		.loc 1 45 29 is_stmt 1 discriminator 1
  45:src/buddyAllocator.cpp ****     {
 337              		.loc 1 45 39 is_stmt 0 discriminator 1
 338 01f4 83378901 		ld	a5,24(s2)
  45:src/buddyAllocator.cpp ****     {
 339              		.loc 1 45 29 discriminator 1
 340 01f8 63E0970A 		bltu	a5,s1,.L22
 341              	.LBE30:
  47:src/buddyAllocator.cpp ****         {
 342              		.loc 1 47 9 is_stmt 1
 343              	.LBB34:
 344              	.LBB31:
  47:src/buddyAllocator.cpp ****         {
 345              		.loc 1 47 29 is_stmt 0
 346 01fc 93872400 		addi	a5,s1,2
 347 0200 93974700 		slli	a5,a5,4
 348 0204 B307F900 		add	a5,s2,a5
 349 0208 83B90700 		ld	s3,0(a5)
  47:src/buddyAllocator.cpp ****         {
 350              		.loc 1 47 9
 351 020c 63960900 		bnez	s3,.L24
 352              	.LBE31:
  45:src/buddyAllocator.cpp ****     {
 353              		.loc 1 45 5 is_stmt 1 discriminator 2
 354 0210 93841400 		addi	s1,s1,1
 355              	.LVL39:
 356 0214 6FF01FFE 		j	.L21
 357              	.L24:
 358              	.LBB33:
 359              	.LBB32:
  49:src/buddyAllocator.cpp ****             KConsole::trapPrintString("Found the block:");
GAS LISTING /tmp/ccl6rDaT.s 			page 12


 360              		.loc 1 49 13
 361              	.LVL40:
  50:src/buddyAllocator.cpp ****             KConsole::trapPrintInt((size_t)ret, 16); KConsole::trapPrintString("\n");
 362              		.loc 1 50 13
  50:src/buddyAllocator.cpp ****             KConsole::trapPrintInt((size_t)ret, 16); KConsole::trapPrintString("\n");
 363              		.loc 1 50 38 is_stmt 0
 364 0218 17050000 		lla	a0,.LC3
 364      13050500 
 365 0220 97000000 		call	_ZN8KConsole15trapPrintStringEPKc@plt
 365      E7800000 
 366              	.LVL41:
  51:src/buddyAllocator.cpp ****             buddy->bucket[i].first = ret->next;
 367              		.loc 1 51 13 is_stmt 1
  51:src/buddyAllocator.cpp ****             buddy->bucket[i].first = ret->next;
 368              		.loc 1 51 35 is_stmt 0
 369 0228 13060000 		li	a2,0
 370 022c 93050001 		li	a1,16
 371 0230 13850900 		mv	a0,s3
 372 0234 97000000 		call	_ZN8KConsole12trapPrintIntEmii@plt
 372      E7800000 
 373              	.LVL42:
  51:src/buddyAllocator.cpp ****             buddy->bucket[i].first = ret->next;
 374              		.loc 1 51 54 is_stmt 1
  51:src/buddyAllocator.cpp ****             buddy->bucket[i].first = ret->next;
 375              		.loc 1 51 79 is_stmt 0
 376 023c 17050000 		lla	a0,.LC1
 376      13050500 
 377 0244 97000000 		call	_ZN8KConsole15trapPrintStringEPKc@plt
 377      E7800000 
 378              	.LVL43:
  52:src/buddyAllocator.cpp ****             if(buddy->bucket[i].first == nullptr)
 379              		.loc 1 52 13 is_stmt 1
  52:src/buddyAllocator.cpp ****             if(buddy->bucket[i].first == nullptr)
 380              		.loc 1 52 43 is_stmt 0
 381 024c 03B70900 		ld	a4,0(s3)
  52:src/buddyAllocator.cpp ****             if(buddy->bucket[i].first == nullptr)
 382              		.loc 1 52 36
 383 0250 93872400 		addi	a5,s1,2
 384 0254 93974700 		slli	a5,a5,4
 385 0258 B307F900 		add	a5,s2,a5
 386 025c 23B0E700 		sd	a4,0(a5)
  53:src/buddyAllocator.cpp ****                 buddy->bucket[i].last = nullptr;
 387              		.loc 1 53 13 is_stmt 1
 388 0260 63020702 		beqz	a4,.L25
 389              	.L20:
  55:src/buddyAllocator.cpp ****             return ret;
 390              		.loc 1 55 13
  55:src/buddyAllocator.cpp ****             return ret;
 391              		.loc 1 55 18 is_stmt 0
 392 0264 13071000 		li	a4,1
 393 0268 93860400 		mv	a3,s1
 394 026c 13060A00 		mv	a2,s4
 395 0270 93850900 		mv	a1,s3
 396 0274 13050900 		mv	a0,s2
 397 0278 97000000 		call	_Z5splitP14buddyAllocatorPvmmb
 397      E7800000 
 398              	.LVL44:
GAS LISTING /tmp/ccl6rDaT.s 			page 13


  56:src/buddyAllocator.cpp ****         }
 399              		.loc 1 56 13 is_stmt 1
  56:src/buddyAllocator.cpp ****         }
 400              		.loc 1 56 20 is_stmt 0
 401 0280 6F00C001 		j	.L15
 402              	.L25:
  54:src/buddyAllocator.cpp ****             split(buddy, (void*)ret, level, i, true);
 403              		.loc 1 54 17 is_stmt 1
  54:src/buddyAllocator.cpp ****             split(buddy, (void*)ret, level, i, true);
 404              		.loc 1 54 39 is_stmt 0
 405 0284 93872400 		addi	a5,s1,2
 406 0288 93974700 		slli	a5,a5,4
 407 028c B307F900 		add	a5,s2,a5
 408 0290 23B40700 		sd	zero,8(a5)
 409 0294 6FF01FFD 		j	.L20
 410              	.LVL45:
 411              	.L22:
 412              	.LBE32:
 413              	.LBE33:
 414              	.LBE34:
  60:src/buddyAllocator.cpp **** }
 415              		.loc 1 60 12
 416 0298 93090000 		li	s3,0
 417              	.L15:
  61:src/buddyAllocator.cpp **** 
 418              		.loc 1 61 1
 419 029c 13850900 		mv	a0,s3
 420 02a0 83308102 		ld	ra,40(sp)
 421              		.cfi_restore 1
 422 02a4 03340102 		ld	s0,32(sp)
 423              		.cfi_restore 8
 424              		.cfi_def_cfa 2, 48
 425 02a8 83348101 		ld	s1,24(sp)
 426              		.cfi_restore 9
 427              	.LVL46:
 428 02ac 03390101 		ld	s2,16(sp)
 429              		.cfi_restore 18
 430              	.LVL47:
 431 02b0 83398100 		ld	s3,8(sp)
 432              		.cfi_restore 19
 433 02b4 033A0100 		ld	s4,0(sp)
 434              		.cfi_restore 20
 435              	.LVL48:
 436 02b8 13010103 		addi	sp,sp,48
 437              		.cfi_def_cfa_offset 0
 438 02bc 67800000 		jr	ra
 439              		.cfi_endproc
 440              	.LFE6:
 442              		.section	.rodata.str1.8
 443 0039 00000000 		.align	3
 443      000000
 444              	.LC4:
 445 0040 42756464 		.string	"Buddy block addr "
 445      7920626C 
 445      6F636B20 
 445      61646472 
 445      2000
GAS LISTING /tmp/ccl6rDaT.s 			page 14


 446              		.text
 447              		.align	2
 448              		.globl	_Z9addBlocksP14buddyAllocatorPvm
 450              	_Z9addBlocksP14buddyAllocatorPvm:
 451              	.LFB13:
 132:src/buddyAllocator.cpp ****     size_t level = getDeg2Ceil(numOfBlocks);
 452              		.loc 1 132 1 is_stmt 1
 453              		.cfi_startproc
 454              	.LVL49:
 455 02c0 130101FD 		addi	sp,sp,-48
 456              		.cfi_def_cfa_offset 48
 457 02c4 23341102 		sd	ra,40(sp)
 458 02c8 23308102 		sd	s0,32(sp)
 459 02cc 233C9100 		sd	s1,24(sp)
 460 02d0 23382101 		sd	s2,16(sp)
 461 02d4 23343101 		sd	s3,8(sp)
 462 02d8 23304101 		sd	s4,0(sp)
 463              		.cfi_offset 1, -8
 464              		.cfi_offset 8, -16
 465              		.cfi_offset 9, -24
 466              		.cfi_offset 18, -32
 467              		.cfi_offset 19, -40
 468              		.cfi_offset 20, -48
 469 02dc 13040103 		addi	s0,sp,48
 470              		.cfi_def_cfa 8, 0
 471 02e0 93090500 		mv	s3,a0
 472 02e4 138A0500 		mv	s4,a1
 133:src/buddyAllocator.cpp ****     if(level == buddy->maxLevel)
 473              		.loc 1 133 5
 474              	.LVL50:
 475              	.LBB35:
 476              	.LBB36:
 118:src/buddyAllocator.cpp ****     size_t deg = 0;
 477              		.loc 1 118 5
 119:src/buddyAllocator.cpp ****     while(x < num)
 478              		.loc 1 119 5
 119:src/buddyAllocator.cpp ****     while(x < num)
 479              		.loc 1 119 12 is_stmt 0
 480 02e8 93040000 		li	s1,0
 118:src/buddyAllocator.cpp ****     size_t deg = 0;
 481              		.loc 1 118 12
 482 02ec 93071000 		li	a5,1
 483              	.LVL51:
 484              	.L28:
 120:src/buddyAllocator.cpp ****     {
 485              		.loc 1 120 5 is_stmt 1
 120:src/buddyAllocator.cpp ****     {
 486              		.loc 1 120 13
 487 02f0 63F8C700 		bleu	a2,a5,.L27
 122:src/buddyAllocator.cpp ****         x<<=1;
 488              		.loc 1 122 9
 122:src/buddyAllocator.cpp ****         x<<=1;
 489              		.loc 1 122 12 is_stmt 0
 490 02f4 93841400 		addi	s1,s1,1
 491              	.LVL52:
 123:src/buddyAllocator.cpp ****     }
 492              		.loc 1 123 9 is_stmt 1
GAS LISTING /tmp/ccl6rDaT.s 			page 15


 123:src/buddyAllocator.cpp ****     }
 493              		.loc 1 123 10 is_stmt 0
 494 02f8 93971700 		slli	a5,a5,1
 495              	.LVL53:
 120:src/buddyAllocator.cpp ****     {
 496              		.loc 1 120 5
 497 02fc 6FF05FFF 		j	.L28
 498              	.L27:
 125:src/buddyAllocator.cpp **** }
 499              		.loc 1 125 5 is_stmt 1
 500              	.LVL54:
 501              	.LBE36:
 502              	.LBE35:
 134:src/buddyAllocator.cpp ****     {
 503              		.loc 1 134 5
 134:src/buddyAllocator.cpp ****     {
 504              		.loc 1 134 24 is_stmt 0
 505 0300 83B78901 		ld	a5,24(s3)
 134:src/buddyAllocator.cpp ****     {
 506              		.loc 1 134 5
 507 0304 63849706 		beq	a5,s1,.L40
 139:src/buddyAllocator.cpp ****     KConsole::trapPrintString("Buddy block addr ");
 508              		.loc 1 139 5 is_stmt 1
 139:src/buddyAllocator.cpp ****     KConsole::trapPrintString("Buddy block addr ");
 509              		.loc 1 139 46 is_stmt 0
 510 0308 13860400 		mv	a2,s1
 511              	.LVL55:
 512 030c 93050A00 		mv	a1,s4
 513              	.LVL56:
 514 0310 13850900 		mv	a0,s3
 515              	.LVL57:
 516 0314 97000000 		call	_Z17getBuddyBlockAddrP14buddyAllocatorPvm
 516      E7800000 
 517              	.LVL58:
 518 031c 13090500 		mv	s2,a0
 519              	.LVL59:
 140:src/buddyAllocator.cpp ****     KConsole::trapPrintInt(buddyBlockAddr, 16); KConsole::trapPrintString("\n");
 520              		.loc 1 140 5 is_stmt 1
 140:src/buddyAllocator.cpp ****     KConsole::trapPrintInt(buddyBlockAddr, 16); KConsole::trapPrintString("\n");
 521              		.loc 1 140 30 is_stmt 0
 522 0320 17050000 		lla	a0,.LC4
 522      13050500 
 523              	.LVL60:
 524 0328 97000000 		call	_ZN8KConsole15trapPrintStringEPKc@plt
 524      E7800000 
 525              	.LVL61:
 141:src/buddyAllocator.cpp ****     buddyBlock* curr = buddy->bucket[level].first;
 526              		.loc 1 141 5 is_stmt 1
 141:src/buddyAllocator.cpp ****     buddyBlock* curr = buddy->bucket[level].first;
 527              		.loc 1 141 27 is_stmt 0
 528 0330 13060000 		li	a2,0
 529 0334 93050001 		li	a1,16
 530 0338 13050900 		mv	a0,s2
 531 033c 97000000 		call	_ZN8KConsole12trapPrintIntEmii@plt
 531      E7800000 
 532              	.LVL62:
 141:src/buddyAllocator.cpp ****     buddyBlock* curr = buddy->bucket[level].first;
GAS LISTING /tmp/ccl6rDaT.s 			page 16


 533              		.loc 1 141 49 is_stmt 1
 141:src/buddyAllocator.cpp ****     buddyBlock* curr = buddy->bucket[level].first;
 534              		.loc 1 141 74 is_stmt 0
 535 0344 17050000 		lla	a0,.LC1
 535      13050500 
 536 034c 97000000 		call	_ZN8KConsole15trapPrintStringEPKc@plt
 536      E7800000 
 537              	.LVL63:
 142:src/buddyAllocator.cpp ****     buddyBlock* prev = nullptr;
 538              		.loc 1 142 5 is_stmt 1
 142:src/buddyAllocator.cpp ****     buddyBlock* prev = nullptr;
 539              		.loc 1 142 17 is_stmt 0
 540 0354 93872400 		addi	a5,s1,2
 541 0358 93974700 		slli	a5,a5,4
 542 035c B387F900 		add	a5,s3,a5
 543 0360 83B70700 		ld	a5,0(a5)
 544              	.LVL64:
 143:src/buddyAllocator.cpp ****     while(curr != nullptr)
 545              		.loc 1 143 5 is_stmt 1
 143:src/buddyAllocator.cpp ****     while(curr != nullptr)
 546              		.loc 1 143 17 is_stmt 0
 547 0364 13070000 		li	a4,0
 548 0368 6F00C008 		j	.L38
 549              	.LVL65:
 550              	.L40:
 136:src/buddyAllocator.cpp ****         return;
 551              		.loc 1 136 9 is_stmt 1
 136:src/buddyAllocator.cpp ****         return;
 552              		.loc 1 136 24 is_stmt 0
 553 036c 13860400 		mv	a2,s1
 554              	.LVL66:
 555 0370 93050A00 		mv	a1,s4
 556              	.LVL67:
 557 0374 13850900 		mv	a0,s3
 558              	.LVL68:
 559 0378 97000000 		call	_Z15addBlockToLevelP14buddyAllocatorPvm
 559      E7800000 
 560              	.LVL69:
 137:src/buddyAllocator.cpp ****     }
 561              		.loc 1 137 9 is_stmt 1
 562 0380 6F00400D 		j	.L26
 563              	.LVL70:
 564              	.L42:
 152:src/buddyAllocator.cpp ****             }
 565              		.loc 1 152 21
 152:src/buddyAllocator.cpp ****             }
 566              		.loc 1 152 47 is_stmt 0
 567 0384 93872400 		addi	a5,s1,2
 568              	.LVL71:
 569 0388 93974700 		slli	a5,a5,4
 570 038c B387F900 		add	a5,s3,a5
 571 0390 23B4E700 		sd	a4,8(a5)
 572 0394 6F008008 		j	.L34
 573              	.LVL72:
 574              	.L33:
 156:src/buddyAllocator.cpp ****                     buddy->bucket[level].first = buddy->bucket[level].last = nullptr;
 575              		.loc 1 156 17 is_stmt 1
GAS LISTING /tmp/ccl6rDaT.s 			page 17


 156:src/buddyAllocator.cpp ****                     buddy->bucket[level].first = buddy->bucket[level].last = nullptr;
 576              		.loc 1 156 26 is_stmt 0
 577 0398 03B70700 		ld	a4,0(a5)
 578              	.LVL73:
 156:src/buddyAllocator.cpp ****                     buddy->bucket[level].first = buddy->bucket[level].last = nullptr;
 579              		.loc 1 156 17
 580 039c 630C0700 		beqz	a4,.L41
 159:src/buddyAllocator.cpp ****             }
 581              		.loc 1 159 21 is_stmt 1
 159:src/buddyAllocator.cpp ****             }
 582              		.loc 1 159 48 is_stmt 0
 583 03a0 93872400 		addi	a5,s1,2
 584              	.LVL74:
 585 03a4 93974700 		slli	a5,a5,4
 586 03a8 B387F900 		add	a5,s3,a5
 587 03ac 23B0E700 		sd	a4,0(a5)
 588 03b0 6F00C006 		j	.L34
 589              	.LVL75:
 590              	.L41:
 157:src/buddyAllocator.cpp ****                 else
 591              		.loc 1 157 21 is_stmt 1
 157:src/buddyAllocator.cpp ****                 else
 592              		.loc 1 157 76 is_stmt 0
 593 03b4 93872400 		addi	a5,s1,2
 594              	.LVL76:
 595 03b8 93974700 		slli	a5,a5,4
 596 03bc B387F900 		add	a5,s3,a5
 597 03c0 23B40700 		sd	zero,8(a5)
 157:src/buddyAllocator.cpp ****                 else
 598              		.loc 1 157 48
 599 03c4 23B00700 		sd	zero,0(a5)
 600 03c8 6F004005 		j	.L34
 601              	.L36:
 162:src/buddyAllocator.cpp ****             return;
 602              		.loc 1 162 18 is_stmt 1
 162:src/buddyAllocator.cpp ****             return;
 603              		.loc 1 162 70 is_stmt 0
 604 03cc 9B841400 		addiw	s1,s1,1
 605              	.LVL77:
 162:src/buddyAllocator.cpp ****             return;
 606              		.loc 1 162 27
 607 03d0 13061000 		li	a2,1
 608 03d4 3B169600 		sllw	a2,a2,s1
 609 03d8 93050900 		mv	a1,s2
 610 03dc 13850900 		mv	a0,s3
 611 03e0 97000000 		call	_Z9addBlocksP14buddyAllocatorPvm
 611      E7800000 
 612              	.LVL78:
 163:src/buddyAllocator.cpp ****         }
 613              		.loc 1 163 13 is_stmt 1
 614 03e8 6F00C006 		j	.L26
 615              	.LVL79:
 616              	.L32:
 166:src/buddyAllocator.cpp ****         curr = curr->next;
 617              		.loc 1 166 9
 167:src/buddyAllocator.cpp ****     }
 618              		.loc 1 167 9
GAS LISTING /tmp/ccl6rDaT.s 			page 18


 166:src/buddyAllocator.cpp ****         curr = curr->next;
 619              		.loc 1 166 14 is_stmt 0
 620 03ec 13870700 		mv	a4,a5
 167:src/buddyAllocator.cpp ****     }
 621              		.loc 1 167 14
 622 03f0 83B70700 		ld	a5,0(a5)
 623              	.LVL80:
 624              	.L38:
 144:src/buddyAllocator.cpp ****     {
 625              		.loc 1 144 5 is_stmt 1
 144:src/buddyAllocator.cpp ****     {
 626              		.loc 1 144 16
 627 03f4 63860704 		beqz	a5,.L31
 146:src/buddyAllocator.cpp ****         {
 628              		.loc 1 146 9
 629 03f8 E39A27FF 		bne	a5,s2,.L32
 148:src/buddyAllocator.cpp ****             {
 630              		.loc 1 148 13
 631 03fc E30E07F8 		beqz	a4,.L33
 150:src/buddyAllocator.cpp ****                 if(curr == buddy->bucket[level].last)
 632              		.loc 1 150 17
 150:src/buddyAllocator.cpp ****                 if(curr == buddy->bucket[level].last)
 633              		.loc 1 150 36 is_stmt 0
 634 0400 83B60700 		ld	a3,0(a5)
 150:src/buddyAllocator.cpp ****                 if(curr == buddy->bucket[level].last)
 635              		.loc 1 150 28
 636 0404 2330D700 		sd	a3,0(a4)
 151:src/buddyAllocator.cpp ****                     buddy->bucket[level].last = prev;
 637              		.loc 1 151 17 is_stmt 1
 151:src/buddyAllocator.cpp ****                     buddy->bucket[level].last = prev;
 638              		.loc 1 151 49 is_stmt 0
 639 0408 93862400 		addi	a3,s1,2
 640 040c 93964600 		slli	a3,a3,4
 641 0410 B386D900 		add	a3,s3,a3
 642 0414 83B68600 		ld	a3,8(a3)
 151:src/buddyAllocator.cpp ****                     buddy->bucket[level].last = prev;
 643              		.loc 1 151 17
 644 0418 E386F6F6 		beq	a3,a5,.L42
 645              	.LVL81:
 646              	.L34:
 161:src/buddyAllocator.cpp ****             else addBlocks(buddy, (void*)buddyBlockAddr, 1 << (level + 1)); //merge two chunks
 647              		.loc 1 161 13 is_stmt 1
 648 041c E3782AFB 		bgeu	s4,s2,.L36
 161:src/buddyAllocator.cpp ****             else addBlocks(buddy, (void*)buddyBlockAddr, 1 << (level + 1)); //merge two chunks
 649              		.loc 1 161 47 discriminator 1
 161:src/buddyAllocator.cpp ****             else addBlocks(buddy, (void*)buddyBlockAddr, 1 << (level + 1)); //merge two chunks
 650              		.loc 1 161 82 is_stmt 0 discriminator 1
 651 0420 9B841400 		addiw	s1,s1,1
 652              	.LVL82:
 161:src/buddyAllocator.cpp ****             else addBlocks(buddy, (void*)buddyBlockAddr, 1 << (level + 1)); //merge two chunks
 653              		.loc 1 161 56 discriminator 1
 654 0424 13061000 		li	a2,1
 655 0428 3B169600 		sllw	a2,a2,s1
 656 042c 93050A00 		mv	a1,s4
 657 0430 13850900 		mv	a0,s3
 658 0434 97000000 		call	_Z9addBlocksP14buddyAllocatorPvm
 658      E7800000 
GAS LISTING /tmp/ccl6rDaT.s 			page 19


 659              	.LVL83:
 660 043c 6F008001 		j	.L26
 661              	.LVL84:
 662              	.L31:
 170:src/buddyAllocator.cpp **** }
 663              		.loc 1 170 5 is_stmt 1
 170:src/buddyAllocator.cpp **** }
 664              		.loc 1 170 20 is_stmt 0
 665 0440 13860400 		mv	a2,s1
 666 0444 93050A00 		mv	a1,s4
 667 0448 13850900 		mv	a0,s3
 668 044c 97000000 		call	_Z15addBlockToLevelP14buddyAllocatorPvm
 668      E7800000 
 669              	.LVL85:
 670              	.L26:
 171:src/buddyAllocator.cpp **** 
 671              		.loc 1 171 1
 672 0454 83308102 		ld	ra,40(sp)
 673              		.cfi_restore 1
 674 0458 03340102 		ld	s0,32(sp)
 675              		.cfi_restore 8
 676              		.cfi_def_cfa 2, 48
 677 045c 83348101 		ld	s1,24(sp)
 678              		.cfi_restore 9
 679 0460 03390101 		ld	s2,16(sp)
 680              		.cfi_restore 18
 681 0464 83398100 		ld	s3,8(sp)
 682              		.cfi_restore 19
 683              	.LVL86:
 684 0468 033A0100 		ld	s4,0(sp)
 685              		.cfi_restore 20
 686              	.LVL87:
 687 046c 13010103 		addi	sp,sp,48
 688              		.cfi_def_cfa_offset 0
 689 0470 67800000 		jr	ra
 690              		.cfi_endproc
 691              	.LFE13:
 693              		.section	.rodata.str1.8
 694 0052 00000000 		.align	3
 694      0000
 695              	.LC5:
 696 0058 42756464 		.string	"Buddy initialization\n"
 696      7920696E 
 696      69746961 
 696      6C697A61 
 696      74696F6E 
 697 006e 0000     		.align	3
 698              	.LC6:
 699 0070 42756464 		.string	"Buddy metadata address: "
 699      79206D65 
 699      74616461 
 699      74612061 
 699      64647265 
 700              		.text
 701              		.align	2
 702              		.globl	_Z10buddy_initPvm
 704              	_Z10buddy_initPvm:
GAS LISTING /tmp/ccl6rDaT.s 			page 20


 705              	.LFB5:
   7:src/buddyAllocator.cpp ****     KConsole::trapPrintString("Buddy initialization\n");
 706              		.loc 1 7 1 is_stmt 1
 707              		.cfi_startproc
 708              	.LVL88:
 709 0474 130101FD 		addi	sp,sp,-48
 710              		.cfi_def_cfa_offset 48
 711 0478 23341102 		sd	ra,40(sp)
 712 047c 23308102 		sd	s0,32(sp)
 713 0480 233C9100 		sd	s1,24(sp)
 714 0484 23382101 		sd	s2,16(sp)
 715 0488 23343101 		sd	s3,8(sp)
 716 048c 23304101 		sd	s4,0(sp)
 717              		.cfi_offset 1, -8
 718              		.cfi_offset 8, -16
 719              		.cfi_offset 9, -24
 720              		.cfi_offset 18, -32
 721              		.cfi_offset 19, -40
 722              		.cfi_offset 20, -48
 723 0490 13040103 		addi	s0,sp,48
 724              		.cfi_def_cfa 8, 0
 725 0494 13090500 		mv	s2,a0
 726 0498 93890500 		mv	s3,a1
   8:src/buddyAllocator.cpp ****     size_t blockAddr = getBlockAddr((size_t)addr); //alling the address
 727              		.loc 1 8 5
   8:src/buddyAllocator.cpp ****     size_t blockAddr = getBlockAddr((size_t)addr); //alling the address
 728              		.loc 1 8 30 is_stmt 0
 729 049c 17050000 		lla	a0,.LC5
 729      13050500 
 730              	.LVL89:
 731 04a4 97000000 		call	_ZN8KConsole15trapPrintStringEPKc@plt
 731      E7800000 
 732              	.LVL90:
   9:src/buddyAllocator.cpp ****     size_t buddyAddr = (size_t)addr;
 733              		.loc 1 9 5 is_stmt 1
   9:src/buddyAllocator.cpp ****     size_t buddyAddr = (size_t)addr;
 734              		.loc 1 9 36 is_stmt 0
 735 04ac 93040900 		mv	s1,s2
 736              	.LVL91:
 737              	.LBB37:
 738              	.LBB38:
  95:src/buddyAllocator.cpp ****     return addr & mask;
 739              		.loc 1 95 5 is_stmt 1
  96:src/buddyAllocator.cpp **** }
 740              		.loc 1 96 5
  96:src/buddyAllocator.cpp **** }
 741              		.loc 1 96 19 is_stmt 0
 742 04b0 37FAFFFF 		li	s4,-4096
 743 04b4 337A4901 		and	s4,s2,s4
 744              	.LVL92:
 745              	.LBE38:
 746              	.LBE37:
  10:src/buddyAllocator.cpp ****     KConsole::trapPrintInt(blockAddr,16); KConsole::trapPrintString("\n");
 747              		.loc 1 10 5 is_stmt 1
  11:src/buddyAllocator.cpp ****     KConsole::trapPrintInt(buddyAddr,16); KConsole::trapPrintString("\n");
 748              		.loc 1 11 5
  11:src/buddyAllocator.cpp ****     KConsole::trapPrintInt(buddyAddr,16); KConsole::trapPrintString("\n");
GAS LISTING /tmp/ccl6rDaT.s 			page 21


 749              		.loc 1 11 27 is_stmt 0
 750 04b8 13060000 		li	a2,0
 751 04bc 93050001 		li	a1,16
 752 04c0 13050A00 		mv	a0,s4
 753 04c4 97000000 		call	_ZN8KConsole12trapPrintIntEmii@plt
 753      E7800000 
 754              	.LVL93:
  11:src/buddyAllocator.cpp ****     KConsole::trapPrintInt(buddyAddr,16); KConsole::trapPrintString("\n");
 755              		.loc 1 11 43 is_stmt 1
  11:src/buddyAllocator.cpp ****     KConsole::trapPrintInt(buddyAddr,16); KConsole::trapPrintString("\n");
 756              		.loc 1 11 68 is_stmt 0
 757 04cc 17050000 		lla	a0,.LC1
 757      13050500 
 758 04d4 97000000 		call	_ZN8KConsole15trapPrintStringEPKc@plt
 758      E7800000 
 759              	.LVL94:
  12:src/buddyAllocator.cpp ****     if((size_t)addr != blockAddr) // if start address not aligned
 760              		.loc 1 12 5 is_stmt 1
  12:src/buddyAllocator.cpp ****     if((size_t)addr != blockAddr) // if start address not aligned
 761              		.loc 1 12 27 is_stmt 0
 762 04dc 13060000 		li	a2,0
 763 04e0 93050001 		li	a1,16
 764 04e4 13050900 		mv	a0,s2
 765 04e8 97000000 		call	_ZN8KConsole12trapPrintIntEmii@plt
 765      E7800000 
 766              	.LVL95:
  12:src/buddyAllocator.cpp ****     if((size_t)addr != blockAddr) // if start address not aligned
 767              		.loc 1 12 43 is_stmt 1
  12:src/buddyAllocator.cpp ****     if((size_t)addr != blockAddr) // if start address not aligned
 768              		.loc 1 12 68 is_stmt 0
 769 04f0 17050000 		lla	a0,.LC1
 769      13050500 
 770 04f8 97000000 		call	_ZN8KConsole15trapPrintStringEPKc@plt
 770      E7800000 
 771              	.LVL96:
  13:src/buddyAllocator.cpp ****     {
 772              		.loc 1 13 5 is_stmt 1
 773 0500 63084901 		beq	s2,s4,.L44
  15:src/buddyAllocator.cpp ****         numOfBlocks--; //have to discard one block
 774              		.loc 1 15 9
 775              	.LVL97:
 776              	.LBB39:
 777              	.LBB40:
 100:src/buddyAllocator.cpp ****     return currBlock + BLOCK_SIZE;
 778              		.loc 1 100 5
 779              	.LBE40:
 780              	.LBE39:
  95:src/buddyAllocator.cpp ****     return addr & mask;
 781              		.loc 1 95 5
  96:src/buddyAllocator.cpp **** }
 782              		.loc 1 96 5
 783              	.LBB42:
 784              	.LBB41:
 101:src/buddyAllocator.cpp **** }
 785              		.loc 1 101 5
 101:src/buddyAllocator.cpp **** }
 786              		.loc 1 101 24 is_stmt 0
GAS LISTING /tmp/ccl6rDaT.s 			page 22


 787 0504 B7140000 		li	s1,4096
 788 0508 B3049A00 		add	s1,s4,s1
 789              	.LVL98:
 790              	.LBE41:
 791              	.LBE42:
  16:src/buddyAllocator.cpp ****     }
 792              		.loc 1 16 9 is_stmt 1
  16:src/buddyAllocator.cpp ****     }
 793              		.loc 1 16 20 is_stmt 0
 794 050c 9389F9FF 		addi	s3,s3,-1
 795              	.LVL99:
 796              	.L44:
  18:src/buddyAllocator.cpp ****     KConsole::trapPrintInt(buddyAddr,16); KConsole::trapPrintString("\n");
 797              		.loc 1 18 5 is_stmt 1
  18:src/buddyAllocator.cpp ****     KConsole::trapPrintInt(buddyAddr,16); KConsole::trapPrintString("\n");
 798              		.loc 1 18 30 is_stmt 0
 799 0510 17050000 		lla	a0,.LC6
 799      13050500 
 800 0518 97000000 		call	_ZN8KConsole15trapPrintStringEPKc@plt
 800      E7800000 
 801              	.LVL100:
  19:src/buddyAllocator.cpp ****     numOfBlocks--; // take one block for buddy metadata
 802              		.loc 1 19 5 is_stmt 1
  19:src/buddyAllocator.cpp ****     numOfBlocks--; // take one block for buddy metadata
 803              		.loc 1 19 27 is_stmt 0
 804 0520 13060000 		li	a2,0
 805 0524 93050001 		li	a1,16
 806 0528 13850400 		mv	a0,s1
 807 052c 97000000 		call	_ZN8KConsole12trapPrintIntEmii@plt
 807      E7800000 
 808              	.LVL101:
  19:src/buddyAllocator.cpp ****     numOfBlocks--; // take one block for buddy metadata
 809              		.loc 1 19 43 is_stmt 1
  19:src/buddyAllocator.cpp ****     numOfBlocks--; // take one block for buddy metadata
 810              		.loc 1 19 68 is_stmt 0
 811 0534 17050000 		lla	a0,.LC1
 811      13050500 
 812 053c 97000000 		call	_ZN8KConsole15trapPrintStringEPKc@plt
 812      E7800000 
 813              	.LVL102:
  20:src/buddyAllocator.cpp ****     buddyAllocator* buddy = (buddyAllocator*)buddyAddr;
 814              		.loc 1 20 5 is_stmt 1
  20:src/buddyAllocator.cpp ****     buddyAllocator* buddy = (buddyAllocator*)buddyAddr;
 815              		.loc 1 20 16 is_stmt 0
 816 0544 9389F9FF 		addi	s3,s3,-1
 817              	.LVL103:
  21:src/buddyAllocator.cpp ****     buddy->startAddr = (void*)getNextBlockAddr(buddyAddr);
 818              		.loc 1 21 5 is_stmt 1
  21:src/buddyAllocator.cpp ****     buddy->startAddr = (void*)getNextBlockAddr(buddyAddr);
 819              		.loc 1 21 21 is_stmt 0
 820 0548 13890400 		mv	s2,s1
 821              	.LVL104:
  22:src/buddyAllocator.cpp ****     buddy->numOfBlocks = numOfBlocks;
 822              		.loc 1 22 5 is_stmt 1
 823              	.LBB43:
 824              	.LBB44:
 100:src/buddyAllocator.cpp ****     return currBlock + BLOCK_SIZE;
GAS LISTING /tmp/ccl6rDaT.s 			page 23


 825              		.loc 1 100 5
 826              	.LBB45:
 827              	.LBB46:
  95:src/buddyAllocator.cpp ****     return addr & mask;
 828              		.loc 1 95 5
  96:src/buddyAllocator.cpp **** }
 829              		.loc 1 96 5
  96:src/buddyAllocator.cpp **** }
 830              		.loc 1 96 19 is_stmt 0
 831 054c B7F7FFFF 		li	a5,-4096
 832 0550 B3F7F400 		and	a5,s1,a5
 833              	.LVL105:
 834              	.LBE46:
 835              	.LBE45:
 101:src/buddyAllocator.cpp **** }
 836              		.loc 1 101 5 is_stmt 1
 101:src/buddyAllocator.cpp **** }
 837              		.loc 1 101 24 is_stmt 0
 838 0554 37170000 		li	a4,4096
 839 0558 B387E700 		add	a5,a5,a4
 840              	.LVL106:
 841              	.LBE44:
 842              	.LBE43:
  22:src/buddyAllocator.cpp ****     buddy->numOfBlocks = numOfBlocks;
 843              		.loc 1 22 22
 844 055c 23B4F400 		sd	a5,8(s1)
  23:src/buddyAllocator.cpp ****     buddy->numOfFreeBlocks = numOfBlocks;
 845              		.loc 1 23 5 is_stmt 1
  23:src/buddyAllocator.cpp ****     buddy->numOfFreeBlocks = numOfBlocks;
 846              		.loc 1 23 24 is_stmt 0
 847 0560 23B03401 		sd	s3,0(s1)
  24:src/buddyAllocator.cpp ****     buddy->maxLevel = getDeg2Floor(numOfBlocks);
 848              		.loc 1 24 5 is_stmt 1
  24:src/buddyAllocator.cpp ****     buddy->maxLevel = getDeg2Floor(numOfBlocks);
 849              		.loc 1 24 28 is_stmt 0
 850 0564 23B83401 		sd	s3,16(s1)
  25:src/buddyAllocator.cpp **** 
 851              		.loc 1 25 5 is_stmt 1
 852              	.LVL107:
 853              	.LBB47:
 854              	.LBB48:
 107:src/buddyAllocator.cpp ****     while(x <= num)
 855              		.loc 1 107 12 is_stmt 0
 856 0568 93070000 		li	a5,0
 857              	.LVL108:
 106:src/buddyAllocator.cpp ****     size_t deg = 0;
 858              		.loc 1 106 12
 859 056c 13071000 		li	a4,1
 860              	.L46:
 861              	.LVL109:
 108:src/buddyAllocator.cpp ****     {
 862              		.loc 1 108 5 is_stmt 1
 108:src/buddyAllocator.cpp ****     {
 863              		.loc 1 108 13
 864 0570 63E8E900 		bgtu	a4,s3,.L45
 110:src/buddyAllocator.cpp ****         x<<=1;
 865              		.loc 1 110 9
GAS LISTING /tmp/ccl6rDaT.s 			page 24


 110:src/buddyAllocator.cpp ****         x<<=1;
 866              		.loc 1 110 12 is_stmt 0
 867 0574 93871700 		addi	a5,a5,1
 868              	.LVL110:
 111:src/buddyAllocator.cpp ****     }
 869              		.loc 1 111 9 is_stmt 1
 111:src/buddyAllocator.cpp ****     }
 870              		.loc 1 111 10 is_stmt 0
 871 0578 13171700 		slli	a4,a4,1
 872              	.LVL111:
 108:src/buddyAllocator.cpp ****     {
 873              		.loc 1 108 5
 874 057c 6FF05FFF 		j	.L46
 875              	.L45:
 113:src/buddyAllocator.cpp **** }
 876              		.loc 1 113 5 is_stmt 1
 113:src/buddyAllocator.cpp **** }
 877              		.loc 1 113 18 is_stmt 0
 878 0580 9386F7FF 		addi	a3,a5,-1
 879              	.LVL112:
 880              	.LBE48:
 881              	.LBE47:
  25:src/buddyAllocator.cpp **** 
 882              		.loc 1 25 21
 883 0584 233CD900 		sd	a3,24(s2)
  27:src/buddyAllocator.cpp ****         buddy->bucket[i].first = buddy->bucket[i].last = nullptr;
 884              		.loc 1 27 5 is_stmt 1
 885              	.LVL113:
 886              	.LBB49:
  27:src/buddyAllocator.cpp ****         buddy->bucket[i].first = buddy->bucket[i].last = nullptr;
 887              		.loc 1 27 16 is_stmt 0
 888 0588 13070000 		li	a4,0
 889              	.LVL114:
 890              	.L48:
  27:src/buddyAllocator.cpp ****         buddy->bucket[i].first = buddy->bucket[i].last = nullptr;
 891              		.loc 1 27 25 is_stmt 1 discriminator 3
 892 058c 63E0E602 		bgtu	a4,a3,.L50
  28:src/buddyAllocator.cpp **** 
 893              		.loc 1 28 9 discriminator 2
  28:src/buddyAllocator.cpp **** 
 894              		.loc 1 28 56 is_stmt 0 discriminator 2
 895 0590 93072700 		addi	a5,a4,2
 896 0594 93974700 		slli	a5,a5,4
 897 0598 B307F900 		add	a5,s2,a5
 898 059c 23B40700 		sd	zero,8(a5)
  28:src/buddyAllocator.cpp **** 
 899              		.loc 1 28 32 discriminator 2
 900 05a0 23B00700 		sd	zero,0(a5)
  27:src/buddyAllocator.cpp ****         buddy->bucket[i].first = buddy->bucket[i].last = nullptr;
 901              		.loc 1 27 5 is_stmt 1 discriminator 2
 902 05a4 13071700 		addi	a4,a4,1
 903              	.LVL115:
 904 05a8 6FF05FFE 		j	.L48
 905              	.L50:
 906              	.LBE49:
 907              	.LBB50:
  32:src/buddyAllocator.cpp ****         addBlocks(buddy, (block*)buddy->startAddr + i, 1);
GAS LISTING /tmp/ccl6rDaT.s 			page 25


 908              		.loc 1 32 16 is_stmt 0
 909 05ac 93040000 		li	s1,0
 910              	.LVL116:
 911              	.L47:
  32:src/buddyAllocator.cpp ****         addBlocks(buddy, (block*)buddy->startAddr + i, 1);
 912              		.loc 1 32 24 is_stmt 1 discriminator 3
 913 05b0 63F43403 		bgeu	s1,s3,.L43
  33:src/buddyAllocator.cpp **** 
 914              		.loc 1 33 9 discriminator 2
  33:src/buddyAllocator.cpp **** 
 915              		.loc 1 33 41 is_stmt 0 discriminator 2
 916 05b4 83358900 		ld	a1,8(s2)
  33:src/buddyAllocator.cpp **** 
 917              		.loc 1 33 51 discriminator 2
 918 05b8 9397C400 		slli	a5,s1,12
  33:src/buddyAllocator.cpp **** 
 919              		.loc 1 33 18 discriminator 2
 920 05bc 13061000 		li	a2,1
 921 05c0 B385F500 		add	a1,a1,a5
 922 05c4 13050900 		mv	a0,s2
 923 05c8 97000000 		call	_Z9addBlocksP14buddyAllocatorPvm
 923      E7800000 
 924              	.LVL117:
  32:src/buddyAllocator.cpp ****         addBlocks(buddy, (block*)buddy->startAddr + i, 1);
 925              		.loc 1 32 5 is_stmt 1 discriminator 2
 926 05d0 93841400 		addi	s1,s1,1
 927              	.LVL118:
 928 05d4 6FF0DFFD 		j	.L47
 929              	.L43:
 930              	.LBE50:
  36:src/buddyAllocator.cpp **** 
 931              		.loc 1 36 1 is_stmt 0
 932 05d8 13050900 		mv	a0,s2
 933 05dc 83308102 		ld	ra,40(sp)
 934              		.cfi_restore 1
 935 05e0 03340102 		ld	s0,32(sp)
 936              		.cfi_restore 8
 937              		.cfi_def_cfa 2, 48
 938 05e4 83348101 		ld	s1,24(sp)
 939              		.cfi_restore 9
 940              	.LVL119:
 941 05e8 03390101 		ld	s2,16(sp)
 942              		.cfi_restore 18
 943              	.LVL120:
 944 05ec 83398100 		ld	s3,8(sp)
 945              		.cfi_restore 19
 946              	.LVL121:
 947 05f0 033A0100 		ld	s4,0(sp)
 948              		.cfi_restore 20
 949              	.LVL122:
 950 05f4 13010103 		addi	sp,sp,48
 951              		.cfi_def_cfa_offset 0
 952 05f8 67800000 		jr	ra
 953              		.cfi_endproc
 954              	.LFE5:
 956              		.section	.rodata.str1.8
 957 0089 00000000 		.align	3
GAS LISTING /tmp/ccl6rDaT.s 			page 26


 957      000000
 958              	.LC7:
 959 0090 42756464 		.string	"Buddy free: "
 959      79206672 
 959      65653A20 
 959      00
 960 009d 000000   		.align	3
 961              	.LC8:
 962 00a0 2000     		.string	" "
 963              		.text
 964              		.align	2
 965              		.globl	_Z10buddy_freeP14buddyAllocatorPvm
 967              	_Z10buddy_freeP14buddyAllocatorPvm:
 968              	.LFB8:
  86:src/buddyAllocator.cpp ****     KConsole::trapPrintString("Buddy free: ");
 969              		.loc 1 86 1 is_stmt 1
 970              		.cfi_startproc
 971              	.LVL123:
 972 05fc 130101FD 		addi	sp,sp,-48
 973              		.cfi_def_cfa_offset 48
 974 0600 23341102 		sd	ra,40(sp)
 975 0604 23308102 		sd	s0,32(sp)
 976 0608 233C9100 		sd	s1,24(sp)
 977 060c 23382101 		sd	s2,16(sp)
 978 0610 23343101 		sd	s3,8(sp)
 979              		.cfi_offset 1, -8
 980              		.cfi_offset 8, -16
 981              		.cfi_offset 9, -24
 982              		.cfi_offset 18, -32
 983              		.cfi_offset 19, -40
 984 0614 13040103 		addi	s0,sp,48
 985              		.cfi_def_cfa 8, 0
 986 0618 93090500 		mv	s3,a0
 987 061c 93840500 		mv	s1,a1
 988 0620 13090600 		mv	s2,a2
  87:src/buddyAllocator.cpp ****     KConsole::trapPrintInt((size_t)addr,16); KConsole::trapPrintString(" ");
 989              		.loc 1 87 5
  87:src/buddyAllocator.cpp ****     KConsole::trapPrintInt((size_t)addr,16); KConsole::trapPrintString(" ");
 990              		.loc 1 87 30 is_stmt 0
 991 0624 17050000 		lla	a0,.LC7
 991      13050500 
 992              	.LVL124:
 993 062c 97000000 		call	_ZN8KConsole15trapPrintStringEPKc@plt
 993      E7800000 
 994              	.LVL125:
  88:src/buddyAllocator.cpp ****     KConsole::trapPrintInt(numOfBlocks); KConsole::trapPrintString("\n");
 995              		.loc 1 88 5 is_stmt 1
  88:src/buddyAllocator.cpp ****     KConsole::trapPrintInt(numOfBlocks); KConsole::trapPrintString("\n");
 996              		.loc 1 88 27 is_stmt 0
 997 0634 13060000 		li	a2,0
 998 0638 93050001 		li	a1,16
 999 063c 13850400 		mv	a0,s1
 1000 0640 97000000 		call	_ZN8KConsole12trapPrintIntEmii@plt
 1000      E7800000 
 1001              	.LVL126:
  88:src/buddyAllocator.cpp ****     KConsole::trapPrintInt(numOfBlocks); KConsole::trapPrintString("\n");
 1002              		.loc 1 88 46 is_stmt 1
GAS LISTING /tmp/ccl6rDaT.s 			page 27


  88:src/buddyAllocator.cpp ****     KConsole::trapPrintInt(numOfBlocks); KConsole::trapPrintString("\n");
 1003              		.loc 1 88 71 is_stmt 0
 1004 0648 17050000 		lla	a0,.LC8
 1004      13050500 
 1005 0650 97000000 		call	_ZN8KConsole15trapPrintStringEPKc@plt
 1005      E7800000 
 1006              	.LVL127:
  89:src/buddyAllocator.cpp ****     addBlocks(buddy, addr, numOfBlocks); //adds free blocks
 1007              		.loc 1 89 5 is_stmt 1
  89:src/buddyAllocator.cpp ****     addBlocks(buddy, addr, numOfBlocks); //adds free blocks
 1008              		.loc 1 89 27 is_stmt 0
 1009 0658 13060000 		li	a2,0
 1010 065c 9305A000 		li	a1,10
 1011 0660 13050900 		mv	a0,s2
 1012 0664 97000000 		call	_ZN8KConsole12trapPrintIntEmii@plt
 1012      E7800000 
 1013              	.LVL128:
  89:src/buddyAllocator.cpp ****     addBlocks(buddy, addr, numOfBlocks); //adds free blocks
 1014              		.loc 1 89 42 is_stmt 1
  89:src/buddyAllocator.cpp ****     addBlocks(buddy, addr, numOfBlocks); //adds free blocks
 1015              		.loc 1 89 67 is_stmt 0
 1016 066c 17050000 		lla	a0,.LC1
 1016      13050500 
 1017 0674 97000000 		call	_ZN8KConsole15trapPrintStringEPKc@plt
 1017      E7800000 
 1018              	.LVL129:
  90:src/buddyAllocator.cpp **** }
 1019              		.loc 1 90 5 is_stmt 1
  90:src/buddyAllocator.cpp **** }
 1020              		.loc 1 90 14 is_stmt 0
 1021 067c 13060900 		mv	a2,s2
 1022 0680 93850400 		mv	a1,s1
 1023 0684 13850900 		mv	a0,s3
 1024 0688 97000000 		call	_Z9addBlocksP14buddyAllocatorPvm
 1024      E7800000 
 1025              	.LVL130:
  91:src/buddyAllocator.cpp **** 
 1026              		.loc 1 91 1
 1027 0690 83308102 		ld	ra,40(sp)
 1028              		.cfi_restore 1
 1029 0694 03340102 		ld	s0,32(sp)
 1030              		.cfi_restore 8
 1031              		.cfi_def_cfa 2, 48
 1032 0698 83348101 		ld	s1,24(sp)
 1033              		.cfi_restore 9
 1034              	.LVL131:
 1035 069c 03390101 		ld	s2,16(sp)
 1036              		.cfi_restore 18
 1037              	.LVL132:
 1038 06a0 83398100 		ld	s3,8(sp)
 1039              		.cfi_restore 19
 1040              	.LVL133:
 1041 06a4 13010103 		addi	sp,sp,48
 1042              		.cfi_def_cfa_offset 0
 1043 06a8 67800000 		jr	ra
 1044              		.cfi_endproc
 1045              	.LFE8:
GAS LISTING /tmp/ccl6rDaT.s 			page 28


 1047              		.section	.rodata.str1.8
 1048 00a2 00000000 		.align	3
 1048      0000
 1049              	.LC9:
 1050 00a8 42756464 		.string	"Buddy info-------------------------------------------\n"
 1050      7920696E 
 1050      666F2D2D 
 1050      2D2D2D2D 
 1050      2D2D2D2D 
 1051 00df 00       		.align	3
 1052              	.LC10:
 1053 00e0 42756464 		.string	"Buddy starting address "
 1053      79207374 
 1053      61727469 
 1053      6E672061 
 1053      64647265 
 1054              		.align	3
 1055              	.LC11:
 1056 00f8 42756464 		.string	"Buddy number of blocks "
 1056      79206E75 
 1056      6D626572 
 1056      206F6620 
 1056      626C6F63 
 1057              		.align	3
 1058              	.LC12:
 1059 0110 42756464 		.string	"Buddy number of free blocks "
 1059      79206E75 
 1059      6D626572 
 1059      206F6620 
 1059      66726565 
 1060 012d 000000   		.align	3
 1061              	.LC13:
 1062 0130 4C657665 		.string	"Level "
 1062      6C2000
 1063 0137 00       		.align	3
 1064              	.LC14:
 1065 0138 46726565 		.string	"Free blocks on this level\n"
 1065      20626C6F 
 1065      636B7320 
 1065      6F6E2074 
 1065      68697320 
 1066 0153 00000000 		.align	3
 1066      00
 1067              	.LC15:
 1068 0158 456E6420 		.string	"End of buddy info-------------------------------------------\n"
 1068      6F662062 
 1068      75646479 
 1068      20696E66 
 1068      6F2D2D2D 
 1069              		.text
 1070              		.align	2
 1071              		.globl	_Z14printBuddyInfoP14buddyAllocator
 1073              	_Z14printBuddyInfoP14buddyAllocator:
 1074              	.LFB16:
 198:src/buddyAllocator.cpp **** 
 199:src/buddyAllocator.cpp **** void printBuddyInfo(buddyAllocator* buddy)
 200:src/buddyAllocator.cpp **** {
GAS LISTING /tmp/ccl6rDaT.s 			page 29


 1075              		.loc 1 200 1 is_stmt 1
 1076              		.cfi_startproc
 1077              	.LVL134:
 1078 06ac 130101FD 		addi	sp,sp,-48
 1079              		.cfi_def_cfa_offset 48
 1080 06b0 23341102 		sd	ra,40(sp)
 1081 06b4 23308102 		sd	s0,32(sp)
 1082 06b8 233C9100 		sd	s1,24(sp)
 1083 06bc 23382101 		sd	s2,16(sp)
 1084 06c0 23343101 		sd	s3,8(sp)
 1085              		.cfi_offset 1, -8
 1086              		.cfi_offset 8, -16
 1087              		.cfi_offset 9, -24
 1088              		.cfi_offset 18, -32
 1089              		.cfi_offset 19, -40
 1090 06c4 13040103 		addi	s0,sp,48
 1091              		.cfi_def_cfa 8, 0
 1092 06c8 93090500 		mv	s3,a0
 201:src/buddyAllocator.cpp ****     KConsole::trapPrintString("Buddy info-------------------------------------------\n");
 1093              		.loc 1 201 5
 1094              		.loc 1 201 30 is_stmt 0
 1095 06cc 17050000 		lla	a0,.LC9
 1095      13050500 
 1096              	.LVL135:
 1097 06d4 97000000 		call	_ZN8KConsole15trapPrintStringEPKc@plt
 1097      E7800000 
 1098              	.LVL136:
 202:src/buddyAllocator.cpp ****     KConsole::trapPrintString("Buddy starting address ");
 1099              		.loc 1 202 5 is_stmt 1
 1100              		.loc 1 202 30 is_stmt 0
 1101 06dc 17050000 		lla	a0,.LC10
 1101      13050500 
 1102 06e4 97000000 		call	_ZN8KConsole15trapPrintStringEPKc@plt
 1102      E7800000 
 1103              	.LVL137:
 203:src/buddyAllocator.cpp ****     KConsole::trapPrintInt((size_t)buddy->startAddr, 16);KConsole::trapPrintString("\n");
 1104              		.loc 1 203 5 is_stmt 1
 1105              		.loc 1 203 27 is_stmt 0
 1106 06ec 13060000 		li	a2,0
 1107 06f0 93050001 		li	a1,16
 1108 06f4 03B58900 		ld	a0,8(s3)
 1109 06f8 97000000 		call	_ZN8KConsole12trapPrintIntEmii@plt
 1109      E7800000 
 1110              	.LVL138:
 1111              		.loc 1 203 58 is_stmt 1
 1112              		.loc 1 203 83 is_stmt 0
 1113 0700 17050000 		lla	a0,.LC1
 1113      13050500 
 1114 0708 97000000 		call	_ZN8KConsole15trapPrintStringEPKc@plt
 1114      E7800000 
 1115              	.LVL139:
 204:src/buddyAllocator.cpp ****     KConsole::trapPrintString("Buddy number of blocks ");
 1116              		.loc 1 204 5 is_stmt 1
 1117              		.loc 1 204 30 is_stmt 0
 1118 0710 17050000 		lla	a0,.LC11
 1118      13050500 
 1119 0718 97000000 		call	_ZN8KConsole15trapPrintStringEPKc@plt
GAS LISTING /tmp/ccl6rDaT.s 			page 30


 1119      E7800000 
 1120              	.LVL140:
 205:src/buddyAllocator.cpp ****     KConsole::trapPrintInt(buddy->numOfBlocks);KConsole::trapPrintString("\n");
 1121              		.loc 1 205 5 is_stmt 1
 1122              		.loc 1 205 27 is_stmt 0
 1123 0720 13060000 		li	a2,0
 1124 0724 9305A000 		li	a1,10
 1125 0728 03B50900 		ld	a0,0(s3)
 1126 072c 97000000 		call	_ZN8KConsole12trapPrintIntEmii@plt
 1126      E7800000 
 1127              	.LVL141:
 1128              		.loc 1 205 48 is_stmt 1
 1129              		.loc 1 205 73 is_stmt 0
 1130 0734 17050000 		lla	a0,.LC1
 1130      13050500 
 1131 073c 97000000 		call	_ZN8KConsole15trapPrintStringEPKc@plt
 1131      E7800000 
 1132              	.LVL142:
 206:src/buddyAllocator.cpp ****     KConsole::trapPrintString("Buddy number of free blocks ");
 1133              		.loc 1 206 5 is_stmt 1
 1134              		.loc 1 206 30 is_stmt 0
 1135 0744 17050000 		lla	a0,.LC12
 1135      13050500 
 1136 074c 97000000 		call	_ZN8KConsole15trapPrintStringEPKc@plt
 1136      E7800000 
 1137              	.LVL143:
 207:src/buddyAllocator.cpp ****     KConsole::trapPrintInt(buddy->numOfFreeBlocks); KConsole::trapPrintString("\n");
 1138              		.loc 1 207 5 is_stmt 1
 1139              		.loc 1 207 27 is_stmt 0
 1140 0754 13060000 		li	a2,0
 1141 0758 9305A000 		li	a1,10
 1142 075c 03B50901 		ld	a0,16(s3)
 1143 0760 97000000 		call	_ZN8KConsole12trapPrintIntEmii@plt
 1143      E7800000 
 1144              	.LVL144:
 1145              		.loc 1 207 53 is_stmt 1
 1146              		.loc 1 207 78 is_stmt 0
 1147 0768 17050000 		lla	a0,.LC1
 1147      13050500 
 1148 0770 97000000 		call	_ZN8KConsole15trapPrintStringEPKc@plt
 1148      E7800000 
 1149              	.LVL145:
 208:src/buddyAllocator.cpp ****     for(int i = buddy->maxLevel;i>=0;i--)
 1150              		.loc 1 208 5 is_stmt 1
 1151              	.LBB51:
 1152              		.loc 1 208 13 is_stmt 0
 1153 0778 03A98901 		lw	s2,24(s3)
 1154              	.LVL146:
 1155 077c 6F008000 		j	.L58
 1156              	.LVL147:
 1157              	.L56:
 1158              		.loc 1 208 5 is_stmt 1 discriminator 2
 1159 0780 1B09F9FF 		addiw	s2,s2,-1
 1160              	.LVL148:
 1161              	.L58:
 1162              		.loc 1 208 34 discriminator 1
 1163 0784 63440908 		bltz	s2,.L55
GAS LISTING /tmp/ccl6rDaT.s 			page 31


 1164              	.LBB52:
 209:src/buddyAllocator.cpp ****     {
 210:src/buddyAllocator.cpp ****         KConsole::trapPrintString("Level ");
 1165              		.loc 1 210 9
 1166              		.loc 1 210 34 is_stmt 0
 1167 0788 17050000 		lla	a0,.LC13
 1167      13050500 
 1168 0790 97000000 		call	_ZN8KConsole15trapPrintStringEPKc@plt
 1168      E7800000 
 1169              	.LVL149:
 211:src/buddyAllocator.cpp ****         KConsole::trapPrintInt(i);KConsole::trapPrintString("\n");
 1170              		.loc 1 211 9 is_stmt 1
 1171              		.loc 1 211 31 is_stmt 0
 1172 0798 13060000 		li	a2,0
 1173 079c 9305A000 		li	a1,10
 1174 07a0 13050900 		mv	a0,s2
 1175 07a4 97000000 		call	_ZN8KConsole12trapPrintIntEmii@plt
 1175      E7800000 
 1176              	.LVL150:
 1177              		.loc 1 211 35 is_stmt 1
 1178              		.loc 1 211 60 is_stmt 0
 1179 07ac 17050000 		lla	a0,.LC1
 1179      13050500 
 1180 07b4 97000000 		call	_ZN8KConsole15trapPrintStringEPKc@plt
 1180      E7800000 
 1181              	.LVL151:
 212:src/buddyAllocator.cpp ****         KConsole::trapPrintString("Free blocks on this level\n");
 1182              		.loc 1 212 9 is_stmt 1
 1183              		.loc 1 212 34 is_stmt 0
 1184 07bc 17050000 		lla	a0,.LC14
 1184      13050500 
 1185 07c4 97000000 		call	_ZN8KConsole15trapPrintStringEPKc@plt
 1185      E7800000 
 1186              	.LVL152:
 213:src/buddyAllocator.cpp ****         buddyBlock* curr = buddy->bucket[i].first;
 1187              		.loc 1 213 9 is_stmt 1
 1188              		.loc 1 213 21 is_stmt 0
 1189 07cc 93072900 		addi	a5,s2,2
 1190 07d0 93974700 		slli	a5,a5,4
 1191 07d4 B387F900 		add	a5,s3,a5
 1192 07d8 83B40700 		ld	s1,0(a5)
 1193              	.LVL153:
 1194              	.L57:
 214:src/buddyAllocator.cpp ****         while(curr != 0)
 1195              		.loc 1 214 9 is_stmt 1
 1196              		.loc 1 214 20
 1197 07dc E38204FA 		beqz	s1,.L56
 215:src/buddyAllocator.cpp ****         {
 216:src/buddyAllocator.cpp ****             KConsole::trapPrintInt((size_t)curr, 16);
 1198              		.loc 1 216 13
 1199              		.loc 1 216 35 is_stmt 0
 1200 07e0 13060000 		li	a2,0
 1201 07e4 93050001 		li	a1,16
 1202 07e8 13850400 		mv	a0,s1
 1203 07ec 97000000 		call	_ZN8KConsole12trapPrintIntEmii@plt
 1203      E7800000 
 1204              	.LVL154:
GAS LISTING /tmp/ccl6rDaT.s 			page 32


 217:src/buddyAllocator.cpp ****             KConsole::trapPrintString("\n");
 1205              		.loc 1 217 13 is_stmt 1
 1206              		.loc 1 217 38 is_stmt 0
 1207 07f4 17050000 		lla	a0,.LC1
 1207      13050500 
 1208 07fc 97000000 		call	_ZN8KConsole15trapPrintStringEPKc@plt
 1208      E7800000 
 1209              	.LVL155:
 218:src/buddyAllocator.cpp ****             curr = curr->next;
 1210              		.loc 1 218 13 is_stmt 1
 1211              		.loc 1 218 18 is_stmt 0
 1212 0804 83B40400 		ld	s1,0(s1)
 1213              	.LVL156:
 214:src/buddyAllocator.cpp ****         {
 1214              		.loc 1 214 9
 1215 0808 6FF05FFD 		j	.L57
 1216              	.LVL157:
 1217              	.L55:
 1218              	.LBE52:
 1219              	.LBE51:
 219:src/buddyAllocator.cpp ****         }
 220:src/buddyAllocator.cpp ****     }
 221:src/buddyAllocator.cpp ****     KConsole::trapPrintString("End of buddy info-------------------------------------------\n");
 1220              		.loc 1 221 5 is_stmt 1
 1221              		.loc 1 221 30 is_stmt 0
 1222 080c 17050000 		lla	a0,.LC15
 1222      13050500 
 1223 0814 97000000 		call	_ZN8KConsole15trapPrintStringEPKc@plt
 1223      E7800000 
 1224              	.LVL158:
 222:src/buddyAllocator.cpp **** }...
 1225              		.loc 1 222 1
 1226 081c 83308102 		ld	ra,40(sp)
 1227              		.cfi_restore 1
 1228 0820 03340102 		ld	s0,32(sp)
 1229              		.cfi_restore 8
 1230              		.cfi_def_cfa 2, 48
 1231 0824 83348101 		ld	s1,24(sp)
 1232              		.cfi_restore 9
 1233 0828 03390101 		ld	s2,16(sp)
 1234              		.cfi_restore 18
 1235              	.LVL159:
 1236 082c 83398100 		ld	s3,8(sp)
 1237              		.cfi_restore 19
 1238              	.LVL160:
 1239 0830 13010103 		addi	sp,sp,48
 1240              		.cfi_def_cfa_offset 0
 1241 0834 67800000 		jr	ra
 1242              		.cfi_endproc
 1243              	.LFE16:
 1245              	.Letext0:
 1246              		.file 2 "src/../h/../lib/hw.h"
 1247              		.file 3 "src/../h/buddyAllocator.hpp"
 1248              		.file 4 "src/../h/PCB.hpp"
 1249              		.file 5 "src/../h/KSemaphore.hpp"
 1250              		.file 6 "src/../h/KConsole.hpp"
GAS LISTING /tmp/ccl6rDaT.s 			page 33


DEFINED SYMBOLS
                            *ABS*:0000000000000000 buddyAllocator.cpp
     /tmp/ccl6rDaT.s:9      .text:0000000000000000 _Z15addBlockToLevelP14buddyAllocatorPvm
     /tmp/ccl6rDaT.s:13     .text:0000000000000000 .L0 
     /tmp/ccl6rDaT.s:15     .text:0000000000000000 .L0 
     /tmp/ccl6rDaT.s:16     .text:0000000000000004 .L0 
     /tmp/ccl6rDaT.s:18     .text:0000000000000008 .L0 
     /tmp/ccl6rDaT.s:20     .text:000000000000000c .L0 
     /tmp/ccl6rDaT.s:23     .text:000000000000000c .L0 
     /tmp/ccl6rDaT.s:24     .text:000000000000000c .L0 
     /tmp/ccl6rDaT.s:25     .text:000000000000000c .L0 
     /tmp/ccl6rDaT.s:27     .text:0000000000000010 .L0 
     /tmp/ccl6rDaT.s:28     .text:0000000000000010 .L0 
     /tmp/ccl6rDaT.s:33     .text:0000000000000020 .L0 
     /tmp/ccl6rDaT.s:35     .text:0000000000000024 .L0 
     /tmp/ccl6rDaT.s:36     .text:0000000000000024 .L0 
     /tmp/ccl6rDaT.s:43     .text:0000000000000034 .L0 
     /tmp/ccl6rDaT.s:45     .text:0000000000000038 .L0 
     /tmp/ccl6rDaT.s:46     .text:0000000000000038 .L0 
     /tmp/ccl6rDaT.s:49     .text:000000000000003c .L0 
     /tmp/ccl6rDaT.s:50     .text:0000000000000040 .L0 
     /tmp/ccl6rDaT.s:51     .text:0000000000000040 .L0 
     /tmp/ccl6rDaT.s:52     .text:0000000000000040 .L0 
     /tmp/ccl6rDaT.s:54     .text:0000000000000044 .L0 
     /tmp/ccl6rDaT.s:58     .text:0000000000000048 .L0 
     /tmp/ccl6rDaT.s:60     .text:0000000000000048 .L0 
     /tmp/ccl6rDaT.s:61     .text:0000000000000048 .L0 
     /tmp/ccl6rDaT.s:68     .text:0000000000000058 .L0 
     /tmp/ccl6rDaT.s:70     .text:0000000000000060 .L0 
     /tmp/ccl6rDaT.s:76     .text:0000000000000060 _Z17getBuddyBlockAddrP14buddyAllocatorPvm
     /tmp/ccl6rDaT.s:79     .text:0000000000000060 .L0 
     /tmp/ccl6rDaT.s:81     .text:0000000000000060 .L0 
     /tmp/ccl6rDaT.s:82     .text:0000000000000064 .L0 
     /tmp/ccl6rDaT.s:84     .text:0000000000000068 .L0 
     /tmp/ccl6rDaT.s:86     .text:000000000000006c .L0 
     /tmp/ccl6rDaT.s:88     .text:000000000000006c .L0 
     /tmp/ccl6rDaT.s:89     .text:000000000000006c .L0 
     /tmp/ccl6rDaT.s:93     .text:0000000000000074 .L0 
     /tmp/ccl6rDaT.s:94     .text:0000000000000074 .L0 
     /tmp/ccl6rDaT.s:96     .text:0000000000000078 .L0 
     /tmp/ccl6rDaT.s:99     .text:000000000000007c .L0 
     /tmp/ccl6rDaT.s:100    .text:000000000000007c .L0 
     /tmp/ccl6rDaT.s:103    .text:0000000000000080 .L0 
     /tmp/ccl6rDaT.s:105    .text:0000000000000084 .L0 
     /tmp/ccl6rDaT.s:106    .text:0000000000000084 .L0 
     /tmp/ccl6rDaT.s:110    .text:0000000000000088 .L0 
     /tmp/ccl6rDaT.s:111    .text:000000000000008c .L0 
     /tmp/ccl6rDaT.s:112    .text:000000000000008c .L0 
     /tmp/ccl6rDaT.s:113    .text:000000000000008c .L0 
     /tmp/ccl6rDaT.s:115    .text:0000000000000090 .L0 
     /tmp/ccl6rDaT.s:119    .text:0000000000000094 .L0 
     /tmp/ccl6rDaT.s:121    .text:0000000000000094 .L0 
     /tmp/ccl6rDaT.s:122    .text:0000000000000094 .L0 
     /tmp/ccl6rDaT.s:125    .text:000000000000009c .L0 
     /tmp/ccl6rDaT.s:131    .text:000000000000009c _Z5splitP14buddyAllocatorPvmmb
     /tmp/ccl6rDaT.s:134    .text:000000000000009c .L0 
     /tmp/ccl6rDaT.s:136    .text:000000000000009c .L0 
GAS LISTING /tmp/ccl6rDaT.s 			page 34


     /tmp/ccl6rDaT.s:137    .text:00000000000000a0 .L0 
     /tmp/ccl6rDaT.s:144    .text:00000000000000b8 .L0 
     /tmp/ccl6rDaT.s:145    .text:00000000000000b8 .L0 
     /tmp/ccl6rDaT.s:146    .text:00000000000000b8 .L0 
     /tmp/ccl6rDaT.s:147    .text:00000000000000b8 .L0 
     /tmp/ccl6rDaT.s:148    .text:00000000000000b8 .L0 
     /tmp/ccl6rDaT.s:149    .text:00000000000000b8 .L0 
     /tmp/ccl6rDaT.s:151    .text:00000000000000bc .L0 
     /tmp/ccl6rDaT.s:156    .text:00000000000000c4 .L0 
     /tmp/ccl6rDaT.s:160    .text:00000000000000cc .L0 
     /tmp/ccl6rDaT.s:162    .text:00000000000000d0 .L0 
     /tmp/ccl6rDaT.s:163    .text:00000000000000d0 .L0 
     /tmp/ccl6rDaT.s:171    .text:00000000000000e4 .L0 
     /tmp/ccl6rDaT.s:172    .text:00000000000000e4 .L0 
     /tmp/ccl6rDaT.s:180    .text:00000000000000fc .L0 
     /tmp/ccl6rDaT.s:181    .text:00000000000000fc .L0 
     /tmp/ccl6rDaT.s:192    .text:0000000000000118 .L0 
     /tmp/ccl6rDaT.s:193    .text:000000000000011c .L0 
     /tmp/ccl6rDaT.s:194    .text:000000000000011c .L0 
     /tmp/ccl6rDaT.s:196    .text:0000000000000120 .L0 
     /tmp/ccl6rDaT.s:197    .text:0000000000000120 .L0 
     /tmp/ccl6rDaT.s:199    .text:0000000000000124 .L0 
     /tmp/ccl6rDaT.s:201    .text:0000000000000128 .L0 
     /tmp/ccl6rDaT.s:204    .text:000000000000012c .L0 
     /tmp/ccl6rDaT.s:206    .text:0000000000000130 .L0 
     /tmp/ccl6rDaT.s:209    .text:0000000000000134 .L0 
     /tmp/ccl6rDaT.s:213    .text:0000000000000138 .L0 
     /tmp/ccl6rDaT.s:216    .text:0000000000000138 .L0 
     /tmp/ccl6rDaT.s:217    .text:0000000000000138 .L0 
     /tmp/ccl6rDaT.s:223    .text:0000000000000148 .L0 
     /tmp/ccl6rDaT.s:243    .text:0000000000000148 _Z11buddy_allocP14buddyAllocatorm
     /tmp/ccl6rDaT.s:246    .text:0000000000000148 .L0 
     /tmp/ccl6rDaT.s:248    .text:0000000000000148 .L0 
     /tmp/ccl6rDaT.s:249    .text:000000000000014c .L0 
     /tmp/ccl6rDaT.s:256    .text:0000000000000164 .L0 
     /tmp/ccl6rDaT.s:257    .text:0000000000000164 .L0 
     /tmp/ccl6rDaT.s:258    .text:0000000000000164 .L0 
     /tmp/ccl6rDaT.s:259    .text:0000000000000164 .L0 
     /tmp/ccl6rDaT.s:260    .text:0000000000000164 .L0 
     /tmp/ccl6rDaT.s:261    .text:0000000000000164 .L0 
     /tmp/ccl6rDaT.s:263    .text:0000000000000168 .L0 
     /tmp/ccl6rDaT.s:267    .text:0000000000000170 .L0 
     /tmp/ccl6rDaT.s:268    .text:0000000000000170 .L0 
     /tmp/ccl6rDaT.s:273    .text:0000000000000180 .L0 
     /tmp/ccl6rDaT.s:274    .text:0000000000000180 .L0 
     /tmp/ccl6rDaT.s:280    .text:0000000000000194 .L0 
     /tmp/ccl6rDaT.s:281    .text:0000000000000194 .L0 
     /tmp/ccl6rDaT.s:287    .text:00000000000001a4 .L0 
     /tmp/ccl6rDaT.s:288    .text:00000000000001a4 .L0 
     /tmp/ccl6rDaT.s:289    .text:00000000000001a4 .L0 
     /tmp/ccl6rDaT.s:290    .text:00000000000001a4 .L0 
     /tmp/ccl6rDaT.s:292    .text:00000000000001a8 .L0 
     /tmp/ccl6rDaT.s:296    .text:00000000000001ac .L0 
     /tmp/ccl6rDaT.s:297    .text:00000000000001ac .L0 
     /tmp/ccl6rDaT.s:299    .text:00000000000001b0 .L0 
     /tmp/ccl6rDaT.s:300    .text:00000000000001b0 .L0 
     /tmp/ccl6rDaT.s:303    .text:00000000000001b4 .L0 
GAS LISTING /tmp/ccl6rDaT.s 			page 35


     /tmp/ccl6rDaT.s:304    .text:00000000000001b4 .L0 
     /tmp/ccl6rDaT.s:307    .text:00000000000001b8 .L0 
     /tmp/ccl6rDaT.s:313    .text:00000000000001bc .L0 
     /tmp/ccl6rDaT.s:314    .text:00000000000001bc .L0 
     /tmp/ccl6rDaT.s:315    .text:00000000000001bc .L0 
     /tmp/ccl6rDaT.s:319    .text:00000000000001cc .L0 
     /tmp/ccl6rDaT.s:320    .text:00000000000001cc .L0 
     /tmp/ccl6rDaT.s:326    .text:00000000000001e0 .L0 
     /tmp/ccl6rDaT.s:327    .text:00000000000001e0 .L0 
     /tmp/ccl6rDaT.s:332    .text:00000000000001f0 .L0 
     /tmp/ccl6rDaT.s:333    .text:00000000000001f0 .L0 
     /tmp/ccl6rDaT.s:337    .text:00000000000001f4 .L0 
     /tmp/ccl6rDaT.s:338    .text:00000000000001f4 .L0 
     /tmp/ccl6rDaT.s:340    .text:00000000000001f8 .L0 
     /tmp/ccl6rDaT.s:345    .text:00000000000001fc .L0 
     /tmp/ccl6rDaT.s:346    .text:00000000000001fc .L0 
     /tmp/ccl6rDaT.s:351    .text:000000000000020c .L0 
     /tmp/ccl6rDaT.s:354    .text:0000000000000210 .L0 
     /tmp/ccl6rDaT.s:362    .text:0000000000000218 .L0 
     /tmp/ccl6rDaT.s:363    .text:0000000000000218 .L0 
     /tmp/ccl6rDaT.s:364    .text:0000000000000218 .L0 
     /tmp/ccl6rDaT.s:368    .text:0000000000000228 .L0 
     /tmp/ccl6rDaT.s:369    .text:0000000000000228 .L0 
     /tmp/ccl6rDaT.s:375    .text:000000000000023c .L0 
     /tmp/ccl6rDaT.s:376    .text:000000000000023c .L0 
     /tmp/ccl6rDaT.s:380    .text:000000000000024c .L0 
     /tmp/ccl6rDaT.s:381    .text:000000000000024c .L0 
     /tmp/ccl6rDaT.s:383    .text:0000000000000250 .L0 
     /tmp/ccl6rDaT.s:388    .text:0000000000000260 .L0 
     /tmp/ccl6rDaT.s:391    .text:0000000000000264 .L0 
     /tmp/ccl6rDaT.s:392    .text:0000000000000264 .L0 
     /tmp/ccl6rDaT.s:400    .text:0000000000000280 .L0 
     /tmp/ccl6rDaT.s:401    .text:0000000000000280 .L0 
     /tmp/ccl6rDaT.s:404    .text:0000000000000284 .L0 
     /tmp/ccl6rDaT.s:405    .text:0000000000000284 .L0 
     /tmp/ccl6rDaT.s:416    .text:0000000000000298 .L0 
     /tmp/ccl6rDaT.s:419    .text:000000000000029c .L0 
     /tmp/ccl6rDaT.s:421    .text:00000000000002a4 .L0 
     /tmp/ccl6rDaT.s:423    .text:00000000000002a8 .L0 
     /tmp/ccl6rDaT.s:424    .text:00000000000002a8 .L0 
     /tmp/ccl6rDaT.s:426    .text:00000000000002ac .L0 
     /tmp/ccl6rDaT.s:429    .text:00000000000002b0 .L0 
     /tmp/ccl6rDaT.s:432    .text:00000000000002b4 .L0 
     /tmp/ccl6rDaT.s:434    .text:00000000000002b8 .L0 
     /tmp/ccl6rDaT.s:437    .text:00000000000002bc .L0 
     /tmp/ccl6rDaT.s:439    .text:00000000000002c0 .L0 
     /tmp/ccl6rDaT.s:450    .text:00000000000002c0 _Z9addBlocksP14buddyAllocatorPvm
     /tmp/ccl6rDaT.s:453    .text:00000000000002c0 .L0 
     /tmp/ccl6rDaT.s:455    .text:00000000000002c0 .L0 
     /tmp/ccl6rDaT.s:456    .text:00000000000002c4 .L0 
     /tmp/ccl6rDaT.s:463    .text:00000000000002dc .L0 
     /tmp/ccl6rDaT.s:464    .text:00000000000002dc .L0 
     /tmp/ccl6rDaT.s:465    .text:00000000000002dc .L0 
     /tmp/ccl6rDaT.s:466    .text:00000000000002dc .L0 
     /tmp/ccl6rDaT.s:467    .text:00000000000002dc .L0 
     /tmp/ccl6rDaT.s:468    .text:00000000000002dc .L0 
     /tmp/ccl6rDaT.s:470    .text:00000000000002e0 .L0 
GAS LISTING /tmp/ccl6rDaT.s 			page 36


     /tmp/ccl6rDaT.s:477    .text:00000000000002e8 .L0 
     /tmp/ccl6rDaT.s:478    .text:00000000000002e8 .L0 
     /tmp/ccl6rDaT.s:479    .text:00000000000002e8 .L0 
     /tmp/ccl6rDaT.s:480    .text:00000000000002e8 .L0 
     /tmp/ccl6rDaT.s:482    .text:00000000000002ec .L0 
     /tmp/ccl6rDaT.s:486    .text:00000000000002f0 .L0 
     /tmp/ccl6rDaT.s:487    .text:00000000000002f0 .L0 
     /tmp/ccl6rDaT.s:489    .text:00000000000002f4 .L0 
     /tmp/ccl6rDaT.s:490    .text:00000000000002f4 .L0 
     /tmp/ccl6rDaT.s:493    .text:00000000000002f8 .L0 
     /tmp/ccl6rDaT.s:494    .text:00000000000002f8 .L0 
     /tmp/ccl6rDaT.s:497    .text:00000000000002fc .L0 
     /tmp/ccl6rDaT.s:503    .text:0000000000000300 .L0 
     /tmp/ccl6rDaT.s:504    .text:0000000000000300 .L0 
     /tmp/ccl6rDaT.s:505    .text:0000000000000300 .L0 
     /tmp/ccl6rDaT.s:507    .text:0000000000000304 .L0 
     /tmp/ccl6rDaT.s:509    .text:0000000000000308 .L0 
     /tmp/ccl6rDaT.s:510    .text:0000000000000308 .L0 
     /tmp/ccl6rDaT.s:521    .text:0000000000000320 .L0 
     /tmp/ccl6rDaT.s:522    .text:0000000000000320 .L0 
     /tmp/ccl6rDaT.s:527    .text:0000000000000330 .L0 
     /tmp/ccl6rDaT.s:528    .text:0000000000000330 .L0 
     /tmp/ccl6rDaT.s:534    .text:0000000000000344 .L0 
     /tmp/ccl6rDaT.s:535    .text:0000000000000344 .L0 
     /tmp/ccl6rDaT.s:539    .text:0000000000000354 .L0 
     /tmp/ccl6rDaT.s:540    .text:0000000000000354 .L0 
     /tmp/ccl6rDaT.s:546    .text:0000000000000364 .L0 
     /tmp/ccl6rDaT.s:547    .text:0000000000000364 .L0 
     /tmp/ccl6rDaT.s:552    .text:000000000000036c .L0 
     /tmp/ccl6rDaT.s:553    .text:000000000000036c .L0 
     /tmp/ccl6rDaT.s:562    .text:0000000000000380 .L0 
     /tmp/ccl6rDaT.s:566    .text:0000000000000384 .L0 
     /tmp/ccl6rDaT.s:567    .text:0000000000000384 .L0 
     /tmp/ccl6rDaT.s:576    .text:0000000000000398 .L0 
     /tmp/ccl6rDaT.s:577    .text:0000000000000398 .L0 
     /tmp/ccl6rDaT.s:580    .text:000000000000039c .L0 
     /tmp/ccl6rDaT.s:582    .text:00000000000003a0 .L0 
     /tmp/ccl6rDaT.s:583    .text:00000000000003a0 .L0 
     /tmp/ccl6rDaT.s:592    .text:00000000000003b4 .L0 
     /tmp/ccl6rDaT.s:593    .text:00000000000003b4 .L0 
     /tmp/ccl6rDaT.s:599    .text:00000000000003c4 .L0 
     /tmp/ccl6rDaT.s:603    .text:00000000000003cc .L0 
     /tmp/ccl6rDaT.s:604    .text:00000000000003cc .L0 
     /tmp/ccl6rDaT.s:607    .text:00000000000003d0 .L0 
     /tmp/ccl6rDaT.s:614    .text:00000000000003e8 .L0 
     /tmp/ccl6rDaT.s:618    .text:00000000000003ec .L0 
     /tmp/ccl6rDaT.s:619    .text:00000000000003ec .L0 
     /tmp/ccl6rDaT.s:620    .text:00000000000003ec .L0 
     /tmp/ccl6rDaT.s:622    .text:00000000000003f0 .L0 
     /tmp/ccl6rDaT.s:626    .text:00000000000003f4 .L0 
     /tmp/ccl6rDaT.s:627    .text:00000000000003f4 .L0 
     /tmp/ccl6rDaT.s:629    .text:00000000000003f8 .L0 
     /tmp/ccl6rDaT.s:631    .text:00000000000003fc .L0 
     /tmp/ccl6rDaT.s:633    .text:0000000000000400 .L0 
     /tmp/ccl6rDaT.s:634    .text:0000000000000400 .L0 
     /tmp/ccl6rDaT.s:636    .text:0000000000000404 .L0 
     /tmp/ccl6rDaT.s:638    .text:0000000000000408 .L0 
GAS LISTING /tmp/ccl6rDaT.s 			page 37


     /tmp/ccl6rDaT.s:639    .text:0000000000000408 .L0 
     /tmp/ccl6rDaT.s:644    .text:0000000000000418 .L0 
     /tmp/ccl6rDaT.s:648    .text:000000000000041c .L0 
     /tmp/ccl6rDaT.s:650    .text:0000000000000420 .L0 
     /tmp/ccl6rDaT.s:651    .text:0000000000000420 .L0 
     /tmp/ccl6rDaT.s:654    .text:0000000000000424 .L0 
     /tmp/ccl6rDaT.s:664    .text:0000000000000440 .L0 
     /tmp/ccl6rDaT.s:665    .text:0000000000000440 .L0 
     /tmp/ccl6rDaT.s:672    .text:0000000000000454 .L0 
     /tmp/ccl6rDaT.s:673    .text:0000000000000458 .L0 
     /tmp/ccl6rDaT.s:675    .text:000000000000045c .L0 
     /tmp/ccl6rDaT.s:676    .text:000000000000045c .L0 
     /tmp/ccl6rDaT.s:678    .text:0000000000000460 .L0 
     /tmp/ccl6rDaT.s:680    .text:0000000000000464 .L0 
     /tmp/ccl6rDaT.s:682    .text:0000000000000468 .L0 
     /tmp/ccl6rDaT.s:685    .text:000000000000046c .L0 
     /tmp/ccl6rDaT.s:688    .text:0000000000000470 .L0 
     /tmp/ccl6rDaT.s:690    .text:0000000000000474 .L0 
     /tmp/ccl6rDaT.s:704    .text:0000000000000474 _Z10buddy_initPvm
     /tmp/ccl6rDaT.s:707    .text:0000000000000474 .L0 
     /tmp/ccl6rDaT.s:709    .text:0000000000000474 .L0 
     /tmp/ccl6rDaT.s:710    .text:0000000000000478 .L0 
     /tmp/ccl6rDaT.s:717    .text:0000000000000490 .L0 
     /tmp/ccl6rDaT.s:718    .text:0000000000000490 .L0 
     /tmp/ccl6rDaT.s:719    .text:0000000000000490 .L0 
     /tmp/ccl6rDaT.s:720    .text:0000000000000490 .L0 
     /tmp/ccl6rDaT.s:721    .text:0000000000000490 .L0 
     /tmp/ccl6rDaT.s:722    .text:0000000000000490 .L0 
     /tmp/ccl6rDaT.s:724    .text:0000000000000494 .L0 
     /tmp/ccl6rDaT.s:728    .text:000000000000049c .L0 
     /tmp/ccl6rDaT.s:729    .text:000000000000049c .L0 
     /tmp/ccl6rDaT.s:734    .text:00000000000004ac .L0 
     /tmp/ccl6rDaT.s:735    .text:00000000000004ac .L0 
     /tmp/ccl6rDaT.s:740    .text:00000000000004b0 .L0 
     /tmp/ccl6rDaT.s:741    .text:00000000000004b0 .L0 
     /tmp/ccl6rDaT.s:742    .text:00000000000004b0 .L0 
     /tmp/ccl6rDaT.s:748    .text:00000000000004b8 .L0 
     /tmp/ccl6rDaT.s:749    .text:00000000000004b8 .L0 
     /tmp/ccl6rDaT.s:750    .text:00000000000004b8 .L0 
     /tmp/ccl6rDaT.s:756    .text:00000000000004cc .L0 
     /tmp/ccl6rDaT.s:757    .text:00000000000004cc .L0 
     /tmp/ccl6rDaT.s:761    .text:00000000000004dc .L0 
     /tmp/ccl6rDaT.s:762    .text:00000000000004dc .L0 
     /tmp/ccl6rDaT.s:768    .text:00000000000004f0 .L0 
     /tmp/ccl6rDaT.s:769    .text:00000000000004f0 .L0 
     /tmp/ccl6rDaT.s:773    .text:0000000000000500 .L0 
     /tmp/ccl6rDaT.s:778    .text:0000000000000504 .L0 
     /tmp/ccl6rDaT.s:781    .text:0000000000000504 .L0 
     /tmp/ccl6rDaT.s:782    .text:0000000000000504 .L0 
     /tmp/ccl6rDaT.s:785    .text:0000000000000504 .L0 
     /tmp/ccl6rDaT.s:786    .text:0000000000000504 .L0 
     /tmp/ccl6rDaT.s:787    .text:0000000000000504 .L0 
     /tmp/ccl6rDaT.s:793    .text:000000000000050c .L0 
     /tmp/ccl6rDaT.s:794    .text:000000000000050c .L0 
     /tmp/ccl6rDaT.s:798    .text:0000000000000510 .L0 
     /tmp/ccl6rDaT.s:799    .text:0000000000000510 .L0 
     /tmp/ccl6rDaT.s:803    .text:0000000000000520 .L0 
GAS LISTING /tmp/ccl6rDaT.s 			page 38


     /tmp/ccl6rDaT.s:804    .text:0000000000000520 .L0 
     /tmp/ccl6rDaT.s:810    .text:0000000000000534 .L0 
     /tmp/ccl6rDaT.s:811    .text:0000000000000534 .L0 
     /tmp/ccl6rDaT.s:815    .text:0000000000000544 .L0 
     /tmp/ccl6rDaT.s:816    .text:0000000000000544 .L0 
     /tmp/ccl6rDaT.s:819    .text:0000000000000548 .L0 
     /tmp/ccl6rDaT.s:820    .text:0000000000000548 .L0 
     /tmp/ccl6rDaT.s:825    .text:000000000000054c .L0 
     /tmp/ccl6rDaT.s:828    .text:000000000000054c .L0 
     /tmp/ccl6rDaT.s:829    .text:000000000000054c .L0 
     /tmp/ccl6rDaT.s:830    .text:000000000000054c .L0 
     /tmp/ccl6rDaT.s:831    .text:000000000000054c .L0 
     /tmp/ccl6rDaT.s:837    .text:0000000000000554 .L0 
     /tmp/ccl6rDaT.s:838    .text:0000000000000554 .L0 
     /tmp/ccl6rDaT.s:844    .text:000000000000055c .L0 
     /tmp/ccl6rDaT.s:846    .text:0000000000000560 .L0 
     /tmp/ccl6rDaT.s:847    .text:0000000000000560 .L0 
     /tmp/ccl6rDaT.s:849    .text:0000000000000564 .L0 
     /tmp/ccl6rDaT.s:850    .text:0000000000000564 .L0 
     /tmp/ccl6rDaT.s:855    .text:0000000000000568 .L0 
     /tmp/ccl6rDaT.s:856    .text:0000000000000568 .L0 
     /tmp/ccl6rDaT.s:859    .text:000000000000056c .L0 
     /tmp/ccl6rDaT.s:863    .text:0000000000000570 .L0 
     /tmp/ccl6rDaT.s:864    .text:0000000000000570 .L0 
     /tmp/ccl6rDaT.s:866    .text:0000000000000574 .L0 
     /tmp/ccl6rDaT.s:867    .text:0000000000000574 .L0 
     /tmp/ccl6rDaT.s:870    .text:0000000000000578 .L0 
     /tmp/ccl6rDaT.s:871    .text:0000000000000578 .L0 
     /tmp/ccl6rDaT.s:874    .text:000000000000057c .L0 
     /tmp/ccl6rDaT.s:877    .text:0000000000000580 .L0 
     /tmp/ccl6rDaT.s:878    .text:0000000000000580 .L0 
     /tmp/ccl6rDaT.s:883    .text:0000000000000584 .L0 
     /tmp/ccl6rDaT.s:887    .text:0000000000000588 .L0 
     /tmp/ccl6rDaT.s:888    .text:0000000000000588 .L0 
     /tmp/ccl6rDaT.s:892    .text:000000000000058c .L0 
     /tmp/ccl6rDaT.s:894    .text:0000000000000590 .L0 
     /tmp/ccl6rDaT.s:895    .text:0000000000000590 .L0 
     /tmp/ccl6rDaT.s:900    .text:00000000000005a0 .L0 
     /tmp/ccl6rDaT.s:902    .text:00000000000005a4 .L0 
     /tmp/ccl6rDaT.s:909    .text:00000000000005ac .L0 
     /tmp/ccl6rDaT.s:913    .text:00000000000005b0 .L0 
     /tmp/ccl6rDaT.s:915    .text:00000000000005b4 .L0 
     /tmp/ccl6rDaT.s:916    .text:00000000000005b4 .L0 
     /tmp/ccl6rDaT.s:918    .text:00000000000005b8 .L0 
     /tmp/ccl6rDaT.s:920    .text:00000000000005bc .L0 
     /tmp/ccl6rDaT.s:926    .text:00000000000005d0 .L0 
     /tmp/ccl6rDaT.s:932    .text:00000000000005d8 .L0 
     /tmp/ccl6rDaT.s:934    .text:00000000000005e0 .L0 
     /tmp/ccl6rDaT.s:936    .text:00000000000005e4 .L0 
     /tmp/ccl6rDaT.s:937    .text:00000000000005e4 .L0 
     /tmp/ccl6rDaT.s:939    .text:00000000000005e8 .L0 
     /tmp/ccl6rDaT.s:942    .text:00000000000005ec .L0 
     /tmp/ccl6rDaT.s:945    .text:00000000000005f0 .L0 
     /tmp/ccl6rDaT.s:948    .text:00000000000005f4 .L0 
     /tmp/ccl6rDaT.s:951    .text:00000000000005f8 .L0 
     /tmp/ccl6rDaT.s:953    .text:00000000000005fc .L0 
     /tmp/ccl6rDaT.s:967    .text:00000000000005fc _Z10buddy_freeP14buddyAllocatorPvm
GAS LISTING /tmp/ccl6rDaT.s 			page 39


     /tmp/ccl6rDaT.s:970    .text:00000000000005fc .L0 
     /tmp/ccl6rDaT.s:972    .text:00000000000005fc .L0 
     /tmp/ccl6rDaT.s:973    .text:0000000000000600 .L0 
     /tmp/ccl6rDaT.s:979    .text:0000000000000614 .L0 
     /tmp/ccl6rDaT.s:980    .text:0000000000000614 .L0 
     /tmp/ccl6rDaT.s:981    .text:0000000000000614 .L0 
     /tmp/ccl6rDaT.s:982    .text:0000000000000614 .L0 
     /tmp/ccl6rDaT.s:983    .text:0000000000000614 .L0 
     /tmp/ccl6rDaT.s:985    .text:0000000000000618 .L0 
     /tmp/ccl6rDaT.s:990    .text:0000000000000624 .L0 
     /tmp/ccl6rDaT.s:991    .text:0000000000000624 .L0 
     /tmp/ccl6rDaT.s:996    .text:0000000000000634 .L0 
     /tmp/ccl6rDaT.s:997    .text:0000000000000634 .L0 
     /tmp/ccl6rDaT.s:1003   .text:0000000000000648 .L0 
     /tmp/ccl6rDaT.s:1004   .text:0000000000000648 .L0 
     /tmp/ccl6rDaT.s:1008   .text:0000000000000658 .L0 
     /tmp/ccl6rDaT.s:1009   .text:0000000000000658 .L0 
     /tmp/ccl6rDaT.s:1015   .text:000000000000066c .L0 
     /tmp/ccl6rDaT.s:1016   .text:000000000000066c .L0 
     /tmp/ccl6rDaT.s:1020   .text:000000000000067c .L0 
     /tmp/ccl6rDaT.s:1021   .text:000000000000067c .L0 
     /tmp/ccl6rDaT.s:1027   .text:0000000000000690 .L0 
     /tmp/ccl6rDaT.s:1028   .text:0000000000000694 .L0 
     /tmp/ccl6rDaT.s:1030   .text:0000000000000698 .L0 
     /tmp/ccl6rDaT.s:1031   .text:0000000000000698 .L0 
     /tmp/ccl6rDaT.s:1033   .text:000000000000069c .L0 
     /tmp/ccl6rDaT.s:1036   .text:00000000000006a0 .L0 
     /tmp/ccl6rDaT.s:1039   .text:00000000000006a4 .L0 
     /tmp/ccl6rDaT.s:1042   .text:00000000000006a8 .L0 
     /tmp/ccl6rDaT.s:1044   .text:00000000000006ac .L0 
     /tmp/ccl6rDaT.s:1073   .text:00000000000006ac _Z14printBuddyInfoP14buddyAllocator
     /tmp/ccl6rDaT.s:1076   .text:00000000000006ac .L0 
     /tmp/ccl6rDaT.s:1078   .text:00000000000006ac .L0 
     /tmp/ccl6rDaT.s:1079   .text:00000000000006b0 .L0 
     /tmp/ccl6rDaT.s:1085   .text:00000000000006c4 .L0 
     /tmp/ccl6rDaT.s:1086   .text:00000000000006c4 .L0 
     /tmp/ccl6rDaT.s:1087   .text:00000000000006c4 .L0 
     /tmp/ccl6rDaT.s:1088   .text:00000000000006c4 .L0 
     /tmp/ccl6rDaT.s:1089   .text:00000000000006c4 .L0 
     /tmp/ccl6rDaT.s:1091   .text:00000000000006c8 .L0 
     /tmp/ccl6rDaT.s:1094   .text:00000000000006cc .L0 
     /tmp/ccl6rDaT.s:1095   .text:00000000000006cc .L0 
     /tmp/ccl6rDaT.s:1100   .text:00000000000006dc .L0 
     /tmp/ccl6rDaT.s:1101   .text:00000000000006dc .L0 
     /tmp/ccl6rDaT.s:1105   .text:00000000000006ec .L0 
     /tmp/ccl6rDaT.s:1106   .text:00000000000006ec .L0 
     /tmp/ccl6rDaT.s:1112   .text:0000000000000700 .L0 
     /tmp/ccl6rDaT.s:1113   .text:0000000000000700 .L0 
     /tmp/ccl6rDaT.s:1117   .text:0000000000000710 .L0 
     /tmp/ccl6rDaT.s:1118   .text:0000000000000710 .L0 
     /tmp/ccl6rDaT.s:1122   .text:0000000000000720 .L0 
     /tmp/ccl6rDaT.s:1123   .text:0000000000000720 .L0 
     /tmp/ccl6rDaT.s:1129   .text:0000000000000734 .L0 
     /tmp/ccl6rDaT.s:1130   .text:0000000000000734 .L0 
     /tmp/ccl6rDaT.s:1134   .text:0000000000000744 .L0 
     /tmp/ccl6rDaT.s:1135   .text:0000000000000744 .L0 
     /tmp/ccl6rDaT.s:1139   .text:0000000000000754 .L0 
GAS LISTING /tmp/ccl6rDaT.s 			page 40


     /tmp/ccl6rDaT.s:1140   .text:0000000000000754 .L0 
     /tmp/ccl6rDaT.s:1146   .text:0000000000000768 .L0 
     /tmp/ccl6rDaT.s:1147   .text:0000000000000768 .L0 
     /tmp/ccl6rDaT.s:1152   .text:0000000000000778 .L0 
     /tmp/ccl6rDaT.s:1153   .text:0000000000000778 .L0 
     /tmp/ccl6rDaT.s:1159   .text:0000000000000780 .L0 
     /tmp/ccl6rDaT.s:1163   .text:0000000000000784 .L0 
     /tmp/ccl6rDaT.s:1166   .text:0000000000000788 .L0 
     /tmp/ccl6rDaT.s:1167   .text:0000000000000788 .L0 
     /tmp/ccl6rDaT.s:1171   .text:0000000000000798 .L0 
     /tmp/ccl6rDaT.s:1172   .text:0000000000000798 .L0 
     /tmp/ccl6rDaT.s:1178   .text:00000000000007ac .L0 
     /tmp/ccl6rDaT.s:1179   .text:00000000000007ac .L0 
     /tmp/ccl6rDaT.s:1183   .text:00000000000007bc .L0 
     /tmp/ccl6rDaT.s:1184   .text:00000000000007bc .L0 
     /tmp/ccl6rDaT.s:1188   .text:00000000000007cc .L0 
     /tmp/ccl6rDaT.s:1189   .text:00000000000007cc .L0 
     /tmp/ccl6rDaT.s:1196   .text:00000000000007dc .L0 
     /tmp/ccl6rDaT.s:1197   .text:00000000000007dc .L0 
     /tmp/ccl6rDaT.s:1199   .text:00000000000007e0 .L0 
     /tmp/ccl6rDaT.s:1200   .text:00000000000007e0 .L0 
     /tmp/ccl6rDaT.s:1206   .text:00000000000007f4 .L0 
     /tmp/ccl6rDaT.s:1207   .text:00000000000007f4 .L0 
     /tmp/ccl6rDaT.s:1211   .text:0000000000000804 .L0 
     /tmp/ccl6rDaT.s:1212   .text:0000000000000804 .L0 
     /tmp/ccl6rDaT.s:1215   .text:0000000000000808 .L0 
     /tmp/ccl6rDaT.s:1221   .text:000000000000080c .L0 
     /tmp/ccl6rDaT.s:1222   .text:000000000000080c .L0 
     /tmp/ccl6rDaT.s:1226   .text:000000000000081c .L0 
     /tmp/ccl6rDaT.s:1227   .text:0000000000000820 .L0 
     /tmp/ccl6rDaT.s:1229   .text:0000000000000824 .L0 
     /tmp/ccl6rDaT.s:1230   .text:0000000000000824 .L0 
     /tmp/ccl6rDaT.s:1232   .text:0000000000000828 .L0 
     /tmp/ccl6rDaT.s:1234   .text:000000000000082c .L0 
     /tmp/ccl6rDaT.s:1237   .text:0000000000000830 .L0 
     /tmp/ccl6rDaT.s:1240   .text:0000000000000834 .L0 
     /tmp/ccl6rDaT.s:1242   .text:0000000000000838 .L0 
     /tmp/ccl6rDaT.s:1251   .text:0000000000000838 .L0 
     /tmp/ccl6rDaT.s:228    .rodata.str1.8:0000000000000000 .LC0
     /tmp/ccl6rDaT.s:268    .text:0000000000000170 .L0 
     /tmp/ccl6rDaT.s:231    .rodata.str1.8:0000000000000018 .LC1
     /tmp/ccl6rDaT.s:281    .text:0000000000000194 .L0 
     /tmp/ccl6rDaT.s:234    .rodata.str1.8:0000000000000020 .LC2
     /tmp/ccl6rDaT.s:315    .text:00000000000001bc .L0 
     /tmp/ccl6rDaT.s:327    .text:00000000000001e0 .L0 
     /tmp/ccl6rDaT.s:237    .rodata.str1.8:0000000000000028 .LC3
     /tmp/ccl6rDaT.s:364    .text:0000000000000218 .L0 
     /tmp/ccl6rDaT.s:376    .text:000000000000023c .L0 
     /tmp/ccl6rDaT.s:444    .rodata.str1.8:0000000000000040 .LC4
     /tmp/ccl6rDaT.s:522    .text:0000000000000320 .L0 
     /tmp/ccl6rDaT.s:535    .text:0000000000000344 .L0 
     /tmp/ccl6rDaT.s:695    .rodata.str1.8:0000000000000058 .LC5
     /tmp/ccl6rDaT.s:729    .text:000000000000049c .L0 
     /tmp/ccl6rDaT.s:757    .text:00000000000004cc .L0 
     /tmp/ccl6rDaT.s:769    .text:00000000000004f0 .L0 
     /tmp/ccl6rDaT.s:698    .rodata.str1.8:0000000000000070 .LC6
     /tmp/ccl6rDaT.s:799    .text:0000000000000510 .L0 
GAS LISTING /tmp/ccl6rDaT.s 			page 41


     /tmp/ccl6rDaT.s:811    .text:0000000000000534 .L0 
     /tmp/ccl6rDaT.s:958    .rodata.str1.8:0000000000000090 .LC7
     /tmp/ccl6rDaT.s:991    .text:0000000000000624 .L0 
     /tmp/ccl6rDaT.s:961    .rodata.str1.8:00000000000000a0 .LC8
     /tmp/ccl6rDaT.s:1004   .text:0000000000000648 .L0 
     /tmp/ccl6rDaT.s:1016   .text:000000000000066c .L0 
     /tmp/ccl6rDaT.s:1049   .rodata.str1.8:00000000000000a8 .LC9
     /tmp/ccl6rDaT.s:1095   .text:00000000000006cc .L0 
     /tmp/ccl6rDaT.s:1052   .rodata.str1.8:00000000000000e0 .LC10
     /tmp/ccl6rDaT.s:1101   .text:00000000000006dc .L0 
     /tmp/ccl6rDaT.s:1113   .text:0000000000000700 .L0 
     /tmp/ccl6rDaT.s:1055   .rodata.str1.8:00000000000000f8 .LC11
     /tmp/ccl6rDaT.s:1118   .text:0000000000000710 .L0 
     /tmp/ccl6rDaT.s:1130   .text:0000000000000734 .L0 
     /tmp/ccl6rDaT.s:1058   .rodata.str1.8:0000000000000110 .LC12
     /tmp/ccl6rDaT.s:1135   .text:0000000000000744 .L0 
     /tmp/ccl6rDaT.s:1147   .text:0000000000000768 .L0 
     /tmp/ccl6rDaT.s:1061   .rodata.str1.8:0000000000000130 .LC13
     /tmp/ccl6rDaT.s:1167   .text:0000000000000788 .L0 
     /tmp/ccl6rDaT.s:1179   .text:00000000000007ac .L0 
     /tmp/ccl6rDaT.s:1064   .rodata.str1.8:0000000000000138 .LC14
     /tmp/ccl6rDaT.s:1184   .text:00000000000007bc .L0 
     /tmp/ccl6rDaT.s:1207   .text:00000000000007f4 .L0 
     /tmp/ccl6rDaT.s:1067   .rodata.str1.8:0000000000000158 .LC15
     /tmp/ccl6rDaT.s:1222   .text:000000000000080c .L0 
     /tmp/ccl6rDaT.s:57     .text:0000000000000048 .L5
     /tmp/ccl6rDaT.s:47     .text:000000000000003c .L1
     /tmp/ccl6rDaT.s:118    .text:0000000000000094 .L7
     /tmp/ccl6rDaT.s:108    .text:0000000000000088 .L6
     /tmp/ccl6rDaT.s:212    .text:0000000000000138 .L14
     /tmp/ccl6rDaT.s:188    .text:0000000000000118 .L10
     /tmp/ccl6rDaT.s:308    .text:00000000000001bc .L16
     /tmp/ccl6rDaT.s:294    .text:00000000000001ac .L17
     /tmp/ccl6rDaT.s:411    .text:0000000000000298 .L22
     /tmp/ccl6rDaT.s:357    .text:0000000000000218 .L24
     /tmp/ccl6rDaT.s:335    .text:00000000000001f4 .L21
     /tmp/ccl6rDaT.s:402    .text:0000000000000284 .L25
     /tmp/ccl6rDaT.s:417    .text:000000000000029c .L15
     /tmp/ccl6rDaT.s:389    .text:0000000000000264 .L20
     /tmp/ccl6rDaT.s:498    .text:0000000000000300 .L27
     /tmp/ccl6rDaT.s:484    .text:00000000000002f0 .L28
     /tmp/ccl6rDaT.s:550    .text:000000000000036c .L40
     /tmp/ccl6rDaT.s:624    .text:00000000000003f4 .L38
     /tmp/ccl6rDaT.s:670    .text:0000000000000454 .L26
     /tmp/ccl6rDaT.s:646    .text:000000000000041c .L34
     /tmp/ccl6rDaT.s:590    .text:00000000000003b4 .L41
     /tmp/ccl6rDaT.s:662    .text:0000000000000440 .L31
     /tmp/ccl6rDaT.s:616    .text:00000000000003ec .L32
     /tmp/ccl6rDaT.s:574    .text:0000000000000398 .L33
     /tmp/ccl6rDaT.s:564    .text:0000000000000384 .L42
     /tmp/ccl6rDaT.s:601    .text:00000000000003cc .L36
     /tmp/ccl6rDaT.s:796    .text:0000000000000510 .L44
     /tmp/ccl6rDaT.s:875    .text:0000000000000580 .L45
     /tmp/ccl6rDaT.s:860    .text:0000000000000570 .L46
     /tmp/ccl6rDaT.s:905    .text:00000000000005ac .L50
     /tmp/ccl6rDaT.s:890    .text:000000000000058c .L48
     /tmp/ccl6rDaT.s:929    .text:00000000000005d8 .L43
GAS LISTING /tmp/ccl6rDaT.s 			page 42


     /tmp/ccl6rDaT.s:911    .text:00000000000005b0 .L47
     /tmp/ccl6rDaT.s:1161   .text:0000000000000784 .L58
     /tmp/ccl6rDaT.s:1217   .text:000000000000080c .L55
     /tmp/ccl6rDaT.s:1157   .text:0000000000000780 .L56
     /tmp/ccl6rDaT.s:1194   .text:00000000000007dc .L57
     /tmp/ccl6rDaT.s:3929   .debug_abbrev:0000000000000000 .Ldebug_abbrev0
     /tmp/ccl6rDaT.s:6169   .debug_str:0000000000000c32 .LASF221
     /tmp/ccl6rDaT.s:6195   .debug_str:0000000000000db9 .LASF222
     /tmp/ccl6rDaT.s:5923   .debug_str:00000000000003db .LASF223
     /tmp/ccl6rDaT.s:5      .text:0000000000000000 .Ltext0
     /tmp/ccl6rDaT.s:1245   .text:0000000000000838 .Letext0
     /tmp/ccl6rDaT.s:5803   .debug_line:0000000000000000 .Ldebug_line0
     /tmp/ccl6rDaT.s:5945   .debug_str:00000000000004ab .LASF0
     /tmp/ccl6rDaT.s:5971   .debug_str:00000000000005b7 .LASF1
     /tmp/ccl6rDaT.s:6089   .debug_str:00000000000009b4 .LASF2
     /tmp/ccl6rDaT.s:6103   .debug_str:0000000000000a27 .LASF4
     /tmp/ccl6rDaT.s:5957   .debug_str:0000000000000520 .LASF3
     /tmp/ccl6rDaT.s:5819   .debug_str:0000000000000071 .LASF5
     /tmp/ccl6rDaT.s:6053   .debug_str:0000000000000877 .LASF6
     /tmp/ccl6rDaT.s:5963   .debug_str:0000000000000568 .LASF7
     /tmp/ccl6rDaT.s:5921   .debug_str:00000000000003cb .LASF8
     /tmp/ccl6rDaT.s:5929   .debug_str:000000000000042f .LASF9
     /tmp/ccl6rDaT.s:5859   .debug_str:0000000000000201 .LASF10
     /tmp/ccl6rDaT.s:5913   .debug_str:0000000000000393 .LASF11
     /tmp/ccl6rDaT.s:5871   .debug_str:000000000000023b .LASF12
     /tmp/ccl6rDaT.s:5857   .debug_str:00000000000001f1 .LASF13
     /tmp/ccl6rDaT.s:6147   .debug_str:0000000000000bd0 .LASF14
     /tmp/ccl6rDaT.s:5897   .debug_str:00000000000002f2 .LASF15
     /tmp/ccl6rDaT.s:6133   .debug_str:0000000000000b27 .LASF16
     /tmp/ccl6rDaT.s:5943   .debug_str:00000000000004a5 .LASF17
     /tmp/ccl6rDaT.s:6159   .debug_str:0000000000000c0a .LASF18
     /tmp/ccl6rDaT.s:6057   .debug_str:0000000000000892 .LASF19
     /tmp/ccl6rDaT.s:5861   .debug_str:0000000000000210 .LASF21
     /tmp/ccl6rDaT.s:6083   .debug_str:0000000000000987 .LASF20
     /tmp/ccl6rDaT.s:6155   .debug_str:0000000000000bfe .LASF22
     /tmp/ccl6rDaT.s:5981   .debug_str:0000000000000603 .LASF23
     /tmp/ccl6rDaT.s:5993   .debug_str:000000000000066b .LASF24
     /tmp/ccl6rDaT.s:6001   .debug_str:000000000000069d .LASF25
     /tmp/ccl6rDaT.s:6167   .debug_str:0000000000000c28 .LASF26
     /tmp/ccl6rDaT.s:6193   .debug_str:0000000000000da9 .LASF27
     /tmp/ccl6rDaT.s:5975   .debug_str:00000000000005d5 .LASF28
     /tmp/ccl6rDaT.s:5905   .debug_str:000000000000033e .LASF29
     /tmp/ccl6rDaT.s:6163   .debug_str:0000000000000c1a .LASF224
     /tmp/ccl6rDaT.s:6157   .debug_str:0000000000000c04 .LASF30
     /tmp/ccl6rDaT.s:6121   .debug_str:0000000000000abb .LASF31
     /tmp/ccl6rDaT.s:5867   .debug_str:0000000000000227 .LASF32
     /tmp/ccl6rDaT.s:5843   .debug_str:0000000000000155 .LASF33
     /tmp/ccl6rDaT.s:6055   .debug_str:000000000000088a .LASF34
     /tmp/ccl6rDaT.s:5865   .debug_str:000000000000021e .LASF35
     /tmp/ccl6rDaT.s:6153   .debug_str:0000000000000bf6 .LASF36
     /tmp/ccl6rDaT.s:5939   .debug_str:000000000000048f .LASF37
     /tmp/ccl6rDaT.s:5821   .debug_str:0000000000000078 .LASF43
     /tmp/ccl6rDaT.s:6183   .debug_str:0000000000000d4e .LASF225
     /tmp/ccl6rDaT.s:6043   .debug_str:0000000000000827 .LASF38
     /tmp/ccl6rDaT.s:5969   .debug_str:00000000000005b2 .LASF39
     /tmp/ccl6rDaT.s:6239   .debug_str:0000000000000efc .LASF41
     /tmp/ccl6rDaT.s:6235   .debug_str:0000000000000ee0 .LASF40
GAS LISTING /tmp/ccl6rDaT.s 			page 43


     /tmp/ccl6rDaT.s:6171   .debug_str:0000000000000cf6 .LASF42
     /tmp/ccl6rDaT.s:5885   .debug_str:00000000000002bc .LASF66
     /tmp/ccl6rDaT.s:5827   .debug_str:00000000000000b1 .LASF68
     /tmp/ccl6rDaT.s:6165   .debug_str:0000000000000c20 .LASF44
     /tmp/ccl6rDaT.s:6111   .debug_str:0000000000000a66 .LASF45
     /tmp/ccl6rDaT.s:5977   .debug_str:00000000000005de .LASF48
     /tmp/ccl6rDaT.s:5985   .debug_str:0000000000000624 .LASF50
     /tmp/ccl6rDaT.s:6247   .debug_str:0000000000000f4a .LASF46
     /tmp/ccl6rDaT.s:5901   .debug_str:000000000000032c .LASF47
     /tmp/ccl6rDaT.s:5815   .debug_str:0000000000000059 .LASF92
     /tmp/ccl6rDaT.s:5953   .debug_str:00000000000004e9 .LASF94
     /tmp/ccl6rDaT.s:6113   .debug_str:0000000000000a77 .LASF49
     /tmp/ccl6rDaT.s:6019   .debug_str:000000000000072c .LASF51
     /tmp/ccl6rDaT.s:6097   .debug_str:00000000000009ed .LASF52
     /tmp/ccl6rDaT.s:6141   .debug_str:0000000000000b71 .LASF53
     /tmp/ccl6rDaT.s:6021   .debug_str:000000000000073f .LASF54
     /tmp/ccl6rDaT.s:5809   .debug_str:000000000000001b .LASF55
     /tmp/ccl6rDaT.s:6223   .debug_str:0000000000000e8d .LASF56
     /tmp/ccl6rDaT.s:6051   .debug_str:000000000000085d .LASF57
     /tmp/ccl6rDaT.s:6131   .debug_str:0000000000000b19 .LASF58
     /tmp/ccl6rDaT.s:6067   .debug_str:00000000000008e8 .LASF59
     /tmp/ccl6rDaT.s:5881   .debug_str:00000000000002a2 .LASF60
     /tmp/ccl6rDaT.s:5915   .debug_str:00000000000003a2 .LASF61
     /tmp/ccl6rDaT.s:6085   .debug_str:0000000000000992 .LASF62
     /tmp/ccl6rDaT.s:6225   .debug_str:0000000000000e9c .LASF63
     /tmp/ccl6rDaT.s:6227   .debug_str:0000000000000eab .LASF64
     /tmp/ccl6rDaT.s:5959   .debug_str:0000000000000532 .LASF65
     /tmp/ccl6rDaT.s:6127   .debug_str:0000000000000afc .LASF67
     /tmp/ccl6rDaT.s:6237   .debug_str:0000000000000ee6 .LASF69
     /tmp/ccl6rDaT.s:5931   .debug_str:000000000000043d .LASF70
     /tmp/ccl6rDaT.s:5877   .debug_str:0000000000000281 .LASF71
     /tmp/ccl6rDaT.s:6109   .debug_str:0000000000000a5e .LASF72
     /tmp/ccl6rDaT.s:5947   .debug_str:00000000000004b8 .LASF73
     /tmp/ccl6rDaT.s:6031   .debug_str:0000000000000783 .LASF74
     /tmp/ccl6rDaT.s:5875   .debug_str:000000000000026f .LASF75
     /tmp/ccl6rDaT.s:6075   .debug_str:000000000000093a .LASF76
     /tmp/ccl6rDaT.s:6255   .debug_str:0000000000000f81 .LASF77
     /tmp/ccl6rDaT.s:6033   .debug_str:00000000000007a2 .LASF78
     /tmp/ccl6rDaT.s:6095   .debug_str:00000000000009da .LASF79
     /tmp/ccl6rDaT.s:6115   .debug_str:0000000000000a80 .LASF80
     /tmp/ccl6rDaT.s:6201   .debug_str:0000000000000de1 .LASF81
     /tmp/ccl6rDaT.s:6005   .debug_str:00000000000006bd .LASF82
     /tmp/ccl6rDaT.s:6185   .debug_str:0000000000000d66 .LASF83
     /tmp/ccl6rDaT.s:6139   .debug_str:0000000000000b51 .LASF84
     /tmp/ccl6rDaT.s:6047   .debug_str:0000000000000836 .LASF85
     /tmp/ccl6rDaT.s:6035   .debug_str:00000000000007c3 .LASF86
     /tmp/ccl6rDaT.s:5891   .debug_str:00000000000002d0 .LASF87
     /tmp/ccl6rDaT.s:5951   .debug_str:00000000000004de .LASF88
     /tmp/ccl6rDaT.s:6009   .debug_str:00000000000006fa .LASF89
     /tmp/ccl6rDaT.s:6173   .debug_str:0000000000000d06 .LASF90
     /tmp/ccl6rDaT.s:5917   .debug_str:00000000000003b2 .LASF91
     /tmp/ccl6rDaT.s:6233   .debug_str:0000000000000ed2 .LASF93
     /tmp/ccl6rDaT.s:5835   .debug_str:0000000000000100 .LASF95
     /tmp/ccl6rDaT.s:5907   .debug_str:0000000000000345 .LASF96
     /tmp/ccl6rDaT.s:5853   .debug_str:00000000000001ba .LASF97
     /tmp/ccl6rDaT.s:6221   .debug_str:0000000000000e86 .LASF98
     /tmp/ccl6rDaT.s:5851   .debug_str:00000000000001a9 .LASF99
GAS LISTING /tmp/ccl6rDaT.s 			page 44


     /tmp/ccl6rDaT.s:5813   .debug_str:0000000000000054 .LASF100
     /tmp/ccl6rDaT.s:6197   .debug_str:0000000000000dd0 .LASF101
     /tmp/ccl6rDaT.s:5989   .debug_str:0000000000000656 .LASF102
     /tmp/ccl6rDaT.s:5889   .debug_str:00000000000002ca .LASF103
     /tmp/ccl6rDaT.s:6181   .debug_str:0000000000000d46 .LASF104
     /tmp/ccl6rDaT.s:5841   .debug_str:0000000000000144 .LASF105
     /tmp/ccl6rDaT.s:5999   .debug_str:0000000000000698 .LASF106
     /tmp/ccl6rDaT.s:6081   .debug_str:000000000000097c .LASF107
     /tmp/ccl6rDaT.s:5927   .debug_str:000000000000041b .LASF108
     /tmp/ccl6rDaT.s:6091   .debug_str:00000000000009c2 .LASF109
     /tmp/ccl6rDaT.s:6079   .debug_str:0000000000000968 .LASF110
     /tmp/ccl6rDaT.s:5887   .debug_str:00000000000002c5 .LASF111
     /tmp/ccl6rDaT.s:6125   .debug_str:0000000000000ae5 .LASF112
     /tmp/ccl6rDaT.s:6151   .debug_str:0000000000000bef .LASF113
     /tmp/ccl6rDaT.s:6025   .debug_str:0000000000000757 .LASF114
     /tmp/ccl6rDaT.s:5807   .debug_str:000000000000000f .LASF115
     /tmp/ccl6rDaT.s:6093   .debug_str:00000000000009ce .LASF116
     /tmp/ccl6rDaT.s:6003   .debug_str:00000000000006a9 .LASF117
     /tmp/ccl6rDaT.s:6087   .debug_str:000000000000099f .LASF118
     /tmp/ccl6rDaT.s:5863   .debug_str:0000000000000215 .LASF119
     /tmp/ccl6rDaT.s:5869   .debug_str:0000000000000231 .LASF120
     /tmp/ccl6rDaT.s:6023   .debug_str:000000000000074e .LASF121
     /tmp/ccl6rDaT.s:6101   .debug_str:0000000000000a1c .LASF122
     /tmp/ccl6rDaT.s:5805   .debug_str:0000000000000000 .LASF123
     /tmp/ccl6rDaT.s:5935   .debug_str:0000000000000459 .LASF124
     /tmp/ccl6rDaT.s:6179   .debug_str:0000000000000d37 .LASF125
     /tmp/ccl6rDaT.s:6145   .debug_str:0000000000000bae .LASF126
     /tmp/ccl6rDaT.s:6117   .debug_str:0000000000000a9e .LASF127
     /tmp/ccl6rDaT.s:5873   .debug_str:000000000000024b .LASF128
     /tmp/ccl6rDaT.s:6041   .debug_str:0000000000000817 .LASF129
     /tmp/ccl6rDaT.s:6071   .debug_str:0000000000000906 .LASF130
     /tmp/ccl6rDaT.s:6249   .debug_str:0000000000000f57 .LASF131
     /tmp/ccl6rDaT.s:5817   .debug_str:0000000000000069 .LASF132
     /tmp/ccl6rDaT.s:5987   .debug_str:000000000000063c .LASF133
     /tmp/ccl6rDaT.s:6245   .debug_str:0000000000000f3a .LASF134
     /tmp/ccl6rDaT.s:6105   .debug_str:0000000000000a2e .LASF135
     /tmp/ccl6rDaT.s:6149   .debug_str:0000000000000bdc .LASF136
     /tmp/ccl6rDaT.s:6099   .debug_str:00000000000009f6 .LASF137
     /tmp/ccl6rDaT.s:6251   .debug_str:0000000000000f6f .LASF138
     /tmp/ccl6rDaT.s:5967   .debug_str:000000000000058e .LASF139
     /tmp/ccl6rDaT.s:6027   .debug_str:0000000000000770 .LASF140
     /tmp/ccl6rDaT.s:5839   .debug_str:0000000000000134 .LASF141
     /tmp/ccl6rDaT.s:6175   .debug_str:0000000000000d10 .LASF142
     /tmp/ccl6rDaT.s:6107   .debug_str:0000000000000a51 .LASF143
     /tmp/ccl6rDaT.s:5811   .debug_str:0000000000000035 .LASF144
     /tmp/ccl6rDaT.s:6049   .debug_str:000000000000084a .LASF145
     /tmp/ccl6rDaT.s:5937   .debug_str:000000000000047b .LASF146
     /tmp/ccl6rDaT.s:6045   .debug_str:000000000000082c .LASF147
     /tmp/ccl6rDaT.s:5973   .debug_str:00000000000005ca .LASF148
     /tmp/ccl6rDaT.s:6065   .debug_str:00000000000008de .LASF149
     /tmp/ccl6rDaT.s:6203   .debug_str:0000000000000df4 .LASF150
     /tmp/ccl6rDaT.s:6161   .debug_str:0000000000000c0f .LASF151
     /tmp/ccl6rDaT.s:6199   .debug_str:0000000000000dd5 .LASF152
     /tmp/ccl6rDaT.s:6211   .debug_str:0000000000000e1d .LASF153
     /tmp/ccl6rDaT.s:6011   .debug_str:0000000000000702 .LASF154
     /tmp/ccl6rDaT.s:6063   .debug_str:00000000000008d2 .LASF155
     /tmp/ccl6rDaT.s:6129   .debug_str:0000000000000b07 .LASF158
GAS LISTING /tmp/ccl6rDaT.s 			page 45


     /tmp/ccl6rDaT.s:6123   .debug_str:0000000000000ac3 .LASF160
     /tmp/ccl6rDaT.s:6191   .debug_str:0000000000000d97 .LASF156
     /tmp/ccl6rDaT.s:6219   .debug_str:0000000000000e64 .LASF157
     /tmp/ccl6rDaT.s:6189   .debug_str:0000000000000d85 .LASF159
     /tmp/ccl6rDaT.s:5823   .debug_str:0000000000000083 .LASF161
     /tmp/ccl6rDaT.s:5965   .debug_str:000000000000057b .LASF162
     /tmp/ccl6rDaT.s:5849   .debug_str:0000000000000186 .LASF163
     /tmp/ccl6rDaT.s:5895   .debug_str:00000000000002df .LASF164
     /tmp/ccl6rDaT.s:5845   .debug_str:000000000000015e .LASF165
     /tmp/ccl6rDaT.s:5829   .debug_str:00000000000000c4 .LASF166
     /tmp/ccl6rDaT.s:6209   .debug_str:0000000000000e0e .LASF167
     /tmp/ccl6rDaT.s:6007   .debug_str:00000000000006db .LASF168
     /tmp/ccl6rDaT.s:6217   .debug_str:0000000000000e4b .LASF169
     /tmp/ccl6rDaT.s:5961   .debug_str:000000000000053f .LASF170
     /tmp/ccl6rDaT.s:5979   .debug_str:00000000000005eb .LASF171
     /tmp/ccl6rDaT.s:6241   .debug_str:0000000000000f08 .LASF172
     /tmp/ccl6rDaT.s:5911   .debug_str:0000000000000382 .LASF173
     /tmp/ccl6rDaT.s:6215   .debug_str:0000000000000e39 .LASF174
     /tmp/ccl6rDaT.s:5919   .debug_str:00000000000003be .LASF175
     /tmp/ccl6rDaT.s:6229   .debug_str:0000000000000eb6 .LASF176
     /tmp/ccl6rDaT.s:5933   .debug_str:0000000000000448 .LASF177
     /tmp/ccl6rDaT.s:5825   .debug_str:00000000000000a5 .LASF178
     /tmp/ccl6rDaT.s:5983   .debug_str:0000000000000608 .LASF179
     /tmp/ccl6rDaT.s:5997   .debug_str:000000000000068c .LASF180
     /tmp/ccl6rDaT.s:5831   .debug_str:00000000000000df .LASF181
     /tmp/ccl6rDaT.s:6231   .debug_str:0000000000000ec3 .LASF187
     /tmp/ccl6rDaT.s:5899   .debug_str:0000000000000308 .LASF189
     /tmp/ccl6rDaT.s:1074   .text:00000000000006ac .LFB16
     /tmp/ccl6rDaT.s:1243   .text:0000000000000838 .LFE16
     /tmp/ccl6rDaT.s:6015   .debug_str:000000000000071b .LASF183
     /tmp/ccl6rDaT.s:4918   .debug_loc:0000000000000000 .LLST47
     /tmp/ccl6rDaT.s:1151   .text:0000000000000778 .LBB51
     /tmp/ccl6rDaT.s:1219   .text:000000000000080c .LBE51
     /tmp/ccl6rDaT.s:4936   .debug_loc:000000000000004c .LLST48
     /tmp/ccl6rDaT.s:1164   .text:0000000000000788 .LBB52
     /tmp/ccl6rDaT.s:1218   .text:000000000000080c .LBE52
     /tmp/ccl6rDaT.s:6253   .debug_str:0000000000000f7c .LASF182
     /tmp/ccl6rDaT.s:4943   .debug_loc:000000000000006f .LLST49
     /tmp/ccl6rDaT.s:1169   .text:0000000000000798 .LVL149
     /tmp/ccl6rDaT.s:1176   .text:00000000000007ac .LVL150
     /tmp/ccl6rDaT.s:1181   .text:00000000000007bc .LVL151
     /tmp/ccl6rDaT.s:1186   .text:00000000000007cc .LVL152
     /tmp/ccl6rDaT.s:1204   .text:00000000000007f4 .LVL154
     /tmp/ccl6rDaT.s:1209   .text:0000000000000804 .LVL155
     /tmp/ccl6rDaT.s:1098   .text:00000000000006dc .LVL136
     /tmp/ccl6rDaT.s:1103   .text:00000000000006ec .LVL137
     /tmp/ccl6rDaT.s:1110   .text:0000000000000700 .LVL138
     /tmp/ccl6rDaT.s:1115   .text:0000000000000710 .LVL139
     /tmp/ccl6rDaT.s:1120   .text:0000000000000720 .LVL140
     /tmp/ccl6rDaT.s:1127   .text:0000000000000734 .LVL141
     /tmp/ccl6rDaT.s:1132   .text:0000000000000744 .LVL142
     /tmp/ccl6rDaT.s:1137   .text:0000000000000754 .LVL143
     /tmp/ccl6rDaT.s:1144   .text:0000000000000768 .LVL144
     /tmp/ccl6rDaT.s:1149   .text:0000000000000778 .LVL145
     /tmp/ccl6rDaT.s:1224   .text:000000000000081c .LVL158
     /tmp/ccl6rDaT.s:6069   .debug_str:00000000000008f4 .LASF213
     /tmp/ccl6rDaT.s:5955   .debug_str:00000000000004f6 .LASF215
GAS LISTING /tmp/ccl6rDaT.s 			page 46


     /tmp/ccl6rDaT.s:77     .text:0000000000000060 .LFB15
     /tmp/ccl6rDaT.s:126    .text:000000000000009c .LFE15
     /tmp/ccl6rDaT.s:4954   .debug_loc:00000000000000a5 .LLST1
     /tmp/ccl6rDaT.s:5847   .debug_str:0000000000000181 .LASF184
     /tmp/ccl6rDaT.s:5893   .debug_str:00000000000002d9 .LASF185
     /tmp/ccl6rDaT.s:4979   .debug_loc:0000000000000107 .LLST2
     /tmp/ccl6rDaT.s:6177   .debug_str:0000000000000d32 .LASF186
     /tmp/ccl6rDaT.s:4993   .debug_loc:0000000000000140 .LLST3
     /tmp/ccl6rDaT.s:5941   .debug_str:0000000000000495 .LASF188
     /tmp/ccl6rDaT.s:5909   .debug_str:000000000000035a .LASF190
     /tmp/ccl6rDaT.s:10     .text:0000000000000000 .LFB14
     /tmp/ccl6rDaT.s:71     .text:0000000000000060 .LFE14
     /tmp/ccl6rDaT.s:5046   .debug_loc:00000000000001cd .LLST0
     /tmp/ccl6rDaT.s:6243   .debug_str:0000000000000f31 .LASF191
     /tmp/ccl6rDaT.s:6029   .debug_str:0000000000000779 .LASF192
     /tmp/ccl6rDaT.s:6143   .debug_str:0000000000000b8d .LASF193
     /tmp/ccl6rDaT.s:451    .text:00000000000002c0 .LFB13
     /tmp/ccl6rDaT.s:691    .text:0000000000000474 .LFE13
     /tmp/ccl6rDaT.s:5083   .debug_loc:0000000000000259 .LLST18
     /tmp/ccl6rDaT.s:5109   .debug_loc:00000000000002cb .LLST19
     /tmp/ccl6rDaT.s:5135   .debug_loc:000000000000033d .LLST20
     /tmp/ccl6rDaT.s:5160   .debug_loc:000000000000039f .LLST21
     /tmp/ccl6rDaT.s:6213   .debug_str:0000000000000e2a .LASF194
     /tmp/ccl6rDaT.s:5175   .debug_loc:00000000000003e8 .LLST22
     /tmp/ccl6rDaT.s:5190   .debug_loc:0000000000000431 .LLST23
     /tmp/ccl6rDaT.s:5833   .debug_str:00000000000000fb .LASF195
     /tmp/ccl6rDaT.s:5222   .debug_loc:00000000000004c7 .LLST24
     /tmp/ccl6rDaT.s:475    .text:00000000000002e8 .LBB35
     /tmp/ccl6rDaT.s:502    .text:0000000000000300 .LBE35
     /tmp/ccl6rDaT.s:5246   .debug_loc:0000000000000537 .LLST25
     /tmp/ccl6rDaT.s:5253   .debug_loc:000000000000055a .LLST26
     /tmp/ccl6rDaT.s:5265   .debug_loc:0000000000000591 .LLST27
     /tmp/ccl6rDaT.s:517    .text:000000000000031c .LVL58
     /tmp/ccl6rDaT.s:525    .text:0000000000000330 .LVL61
     /tmp/ccl6rDaT.s:532    .text:0000000000000344 .LVL62
     /tmp/ccl6rDaT.s:537    .text:0000000000000354 .LVL63
     /tmp/ccl6rDaT.s:560    .text:0000000000000380 .LVL69
     /tmp/ccl6rDaT.s:612    .text:00000000000003e8 .LVL78
     /tmp/ccl6rDaT.s:659    .text:000000000000043c .LVL83
     /tmp/ccl6rDaT.s:669    .text:0000000000000454 .LVL85
     /tmp/ccl6rDaT.s:5837   .debug_str:0000000000000128 .LASF196
     /tmp/ccl6rDaT.s:6073   .debug_str:0000000000000929 .LASF197
     /tmp/ccl6rDaT.s:5991   .debug_str:000000000000065e .LASF198
     /tmp/ccl6rDaT.s:6061   .debug_str:00000000000008c0 .LASF199
     /tmp/ccl6rDaT.s:6077   .debug_str:0000000000000957 .LASF200
     /tmp/ccl6rDaT.s:6037   .debug_str:00000000000007e2 .LASF201
     /tmp/ccl6rDaT.s:5883   .debug_str:00000000000002b2 .LASF202
     /tmp/ccl6rDaT.s:6013   .debug_str:000000000000070e .LASF203
     /tmp/ccl6rDaT.s:5949   .debug_str:00000000000004cc .LASF204
     /tmp/ccl6rDaT.s:6207   .debug_str:0000000000000e09 .LASF205
     /tmp/ccl6rDaT.s:5879   .debug_str:0000000000000297 .LASF206
     /tmp/ccl6rDaT.s:6059   .debug_str:000000000000089d .LASF207
     /tmp/ccl6rDaT.s:968    .text:00000000000005fc .LFB8
     /tmp/ccl6rDaT.s:1045   .text:00000000000006ac .LFE8
     /tmp/ccl6rDaT.s:5277   .debug_loc:00000000000005c8 .LLST44
     /tmp/ccl6rDaT.s:5295   .debug_loc:0000000000000614 .LLST45
     /tmp/ccl6rDaT.s:5313   .debug_loc:0000000000000660 .LLST46
GAS LISTING /tmp/ccl6rDaT.s 			page 47


     /tmp/ccl6rDaT.s:994    .text:0000000000000634 .LVL125
     /tmp/ccl6rDaT.s:1001   .text:0000000000000648 .LVL126
     /tmp/ccl6rDaT.s:1006   .text:0000000000000658 .LVL127
     /tmp/ccl6rDaT.s:1013   .text:000000000000066c .LVL128
     /tmp/ccl6rDaT.s:1018   .text:000000000000067c .LVL129
     /tmp/ccl6rDaT.s:1025   .text:0000000000000690 .LVL130
     /tmp/ccl6rDaT.s:5903   .debug_str:0000000000000338 .LASF208
     /tmp/ccl6rDaT.s:6039   .debug_str:00000000000007f8 .LASF209
     /tmp/ccl6rDaT.s:132    .text:000000000000009c .LFB7
     /tmp/ccl6rDaT.s:224    .text:0000000000000148 .LFE7
     /tmp/ccl6rDaT.s:5331   .debug_loc:00000000000006ac .LLST4
     /tmp/ccl6rDaT.s:5357   .debug_loc:000000000000071e .LLST5
     /tmp/ccl6rDaT.s:6017   .debug_str:0000000000000721 .LASF210
     /tmp/ccl6rDaT.s:5383   .debug_loc:0000000000000790 .LLST6
     /tmp/ccl6rDaT.s:6137   .debug_str:0000000000000b47 .LASF211
     /tmp/ccl6rDaT.s:5412   .debug_loc:0000000000000805 .LLST7
     /tmp/ccl6rDaT.s:6187   .debug_str:0000000000000d7b .LASF212
     /tmp/ccl6rDaT.s:5443   .debug_loc:000000000000087c .LLST8
     /tmp/ccl6rDaT.s:158    .text:00000000000000cc .LBB26
     /tmp/ccl6rDaT.s:189    .text:0000000000000118 .LBE26
     /tmp/ccl6rDaT.s:5468   .debug_loc:00000000000008de .LLST9
     /tmp/ccl6rDaT.s:167    .text:00000000000000e0 .LVL16
     /tmp/ccl6rDaT.s:178    .text:00000000000000fc .LVL19
     /tmp/ccl6rDaT.s:187    .text:0000000000000118 .LVL20
     /tmp/ccl6rDaT.s:220    .text:0000000000000144 .LVL25
     /tmp/ccl6rDaT.s:6119   .debug_str:0000000000000aaf .LASF214
     /tmp/ccl6rDaT.s:5925   .debug_str:00000000000003f9 .LASF216
     /tmp/ccl6rDaT.s:244    .text:0000000000000148 .LFB6
     /tmp/ccl6rDaT.s:440    .text:00000000000002c0 .LFE6
     /tmp/ccl6rDaT.s:5479   .debug_loc:0000000000000914 .LLST10
     /tmp/ccl6rDaT.s:5497   .debug_loc:0000000000000960 .LLST11
     /tmp/ccl6rDaT.s:5515   .debug_loc:00000000000009ac .LLST12
     /tmp/ccl6rDaT.s:5789   .debug_ranges:0000000000000000 .Ldebug_ranges0
     /tmp/ccl6rDaT.s:5522   .debug_loc:00000000000009cf .LLST16
     /tmp/ccl6rDaT.s:359    .text:0000000000000218 .LBB32
     /tmp/ccl6rDaT.s:412    .text:0000000000000298 .LBE32
     /tmp/ccl6rDaT.s:5533   .debug_loc:0000000000000a05 .LLST17
     /tmp/ccl6rDaT.s:366    .text:0000000000000228 .LVL41
     /tmp/ccl6rDaT.s:373    .text:000000000000023c .LVL42
     /tmp/ccl6rDaT.s:378    .text:000000000000024c .LVL43
     /tmp/ccl6rDaT.s:398    .text:0000000000000280 .LVL44
     /tmp/ccl6rDaT.s:285    .text:00000000000001a4 .LBB28
     /tmp/ccl6rDaT.s:312    .text:00000000000001bc .LBE28
     /tmp/ccl6rDaT.s:5540   .debug_loc:0000000000000a28 .LLST13
     /tmp/ccl6rDaT.s:5547   .debug_loc:0000000000000a4b .LLST14
     /tmp/ccl6rDaT.s:5559   .debug_loc:0000000000000a82 .LLST15
     /tmp/ccl6rDaT.s:271    .text:0000000000000180 .LVL28
     /tmp/ccl6rDaT.s:278    .text:0000000000000194 .LVL29
     /tmp/ccl6rDaT.s:283    .text:00000000000001a4 .LVL30
     /tmp/ccl6rDaT.s:317    .text:00000000000001cc .LVL35
     /tmp/ccl6rDaT.s:324    .text:00000000000001e0 .LVL36
     /tmp/ccl6rDaT.s:329    .text:00000000000001f0 .LVL37
     /tmp/ccl6rDaT.s:5855   .debug_str:00000000000001e6 .LASF217
     /tmp/ccl6rDaT.s:5995   .debug_str:000000000000067a .LASF218
     /tmp/ccl6rDaT.s:705    .text:0000000000000474 .LFB5
     /tmp/ccl6rDaT.s:954    .text:00000000000005fc .LFE5
     /tmp/ccl6rDaT.s:5571   .debug_loc:0000000000000ab9 .LLST28
GAS LISTING /tmp/ccl6rDaT.s 			page 48


     /tmp/ccl6rDaT.s:5589   .debug_loc:0000000000000b05 .LLST29
     /tmp/ccl6rDaT.s:6205   .debug_str:0000000000000dff .LASF219
     /tmp/ccl6rDaT.s:5600   .debug_loc:0000000000000b3b .LLST30
     /tmp/ccl6rDaT.s:6135   .debug_str:0000000000000b3d .LASF220
     /tmp/ccl6rDaT.s:5617   .debug_loc:0000000000000b78 .LLST31
     /tmp/ccl6rDaT.s:5636   .debug_loc:0000000000000bd4 .LLST32
     /tmp/ccl6rDaT.s:886    .text:0000000000000588 .LBB49
     /tmp/ccl6rDaT.s:906    .text:00000000000005ac .LBE49
     /tmp/ccl6rDaT.s:5651   .debug_loc:0000000000000c1d .LLST42
     /tmp/ccl6rDaT.s:907    .text:00000000000005ac .LBB50
     /tmp/ccl6rDaT.s:930    .text:00000000000005d8 .LBE50
     /tmp/ccl6rDaT.s:5663   .debug_loc:0000000000000c54 .LLST43
     /tmp/ccl6rDaT.s:924    .text:00000000000005d0 .LVL117
     /tmp/ccl6rDaT.s:737    .text:00000000000004b0 .LBB37
     /tmp/ccl6rDaT.s:746    .text:00000000000004b8 .LBE37
     /tmp/ccl6rDaT.s:5670   .debug_loc:0000000000000c77 .LLST33
     /tmp/ccl6rDaT.s:776    .text:0000000000000504 .LBB39
     /tmp/ccl6rDaT.s:5677   .debug_loc:0000000000000c9a .LLST34
     /tmp/ccl6rDaT.s:5684   .debug_loc:0000000000000cbd .LLST35
     /tmp/ccl6rDaT.s:823    .text:000000000000054c .LBB43
     /tmp/ccl6rDaT.s:842    .text:000000000000055c .LBE43
     /tmp/ccl6rDaT.s:5691   .debug_loc:0000000000000ce0 .LLST36
     /tmp/ccl6rDaT.s:5698   .debug_loc:0000000000000d03 .LLST37
     /tmp/ccl6rDaT.s:826    .text:000000000000054c .LBB45
     /tmp/ccl6rDaT.s:835    .text:0000000000000554 .LBE45
     /tmp/ccl6rDaT.s:5748   .debug_loc:0000000000000da1 .LLST38
     /tmp/ccl6rDaT.s:853    .text:0000000000000568 .LBB47
     /tmp/ccl6rDaT.s:881    .text:0000000000000584 .LBE47
     /tmp/ccl6rDaT.s:5755   .debug_loc:0000000000000dc4 .LLST39
     /tmp/ccl6rDaT.s:5762   .debug_loc:0000000000000de7 .LLST40
     /tmp/ccl6rDaT.s:5769   .debug_loc:0000000000000e0a .LLST41
     /tmp/ccl6rDaT.s:732    .text:00000000000004ac .LVL90
     /tmp/ccl6rDaT.s:754    .text:00000000000004cc .LVL93
     /tmp/ccl6rDaT.s:759    .text:00000000000004dc .LVL94
     /tmp/ccl6rDaT.s:766    .text:00000000000004f0 .LVL95
     /tmp/ccl6rDaT.s:771    .text:0000000000000500 .LVL96
     /tmp/ccl6rDaT.s:801    .text:0000000000000520 .LVL100
     /tmp/ccl6rDaT.s:808    .text:0000000000000534 .LVL101
     /tmp/ccl6rDaT.s:813    .text:0000000000000544 .LVL102
     /tmp/ccl6rDaT.s:1077   .text:00000000000006ac .LVL134
     /tmp/ccl6rDaT.s:1096   .text:00000000000006d4 .LVL135
     /tmp/ccl6rDaT.s:1238   .text:0000000000000830 .LVL160
     /tmp/ccl6rDaT.s:1154   .text:000000000000077c .LVL146
     /tmp/ccl6rDaT.s:1235   .text:000000000000082c .LVL159
     /tmp/ccl6rDaT.s:1156   .text:0000000000000780 .LVL147
     /tmp/ccl6rDaT.s:1160   .text:0000000000000784 .LVL148
     /tmp/ccl6rDaT.s:1193   .text:00000000000007dc .LVL153
     /tmp/ccl6rDaT.s:1216   .text:000000000000080c .LVL157
     /tmp/ccl6rDaT.s:80     .text:0000000000000060 .LVL7
     /tmp/ccl6rDaT.s:107    .text:0000000000000088 .LVL11
     /tmp/ccl6rDaT.s:117    .text:0000000000000094 .LVL12
     /tmp/ccl6rDaT.s:123    .text:0000000000000098 .LVL13
     /tmp/ccl6rDaT.s:91     .text:0000000000000074 .LVL8
     /tmp/ccl6rDaT.s:97     .text:000000000000007c .LVL9
     /tmp/ccl6rDaT.s:101    .text:0000000000000080 .LVL10
     /tmp/ccl6rDaT.s:14     .text:0000000000000000 .LVL0
     /tmp/ccl6rDaT.s:37     .text:0000000000000028 .LVL2
GAS LISTING /tmp/ccl6rDaT.s 			page 49


     /tmp/ccl6rDaT.s:39     .text:000000000000002c .LVL3
     /tmp/ccl6rDaT.s:56     .text:0000000000000048 .LVL4
     /tmp/ccl6rDaT.s:62     .text:000000000000004c .LVL5
     /tmp/ccl6rDaT.s:64     .text:0000000000000050 .LVL6
     /tmp/ccl6rDaT.s:454    .text:00000000000002c0 .LVL49
     /tmp/ccl6rDaT.s:515    .text:0000000000000314 .LVL57
     /tmp/ccl6rDaT.s:549    .text:000000000000036c .LVL65
     /tmp/ccl6rDaT.s:558    .text:0000000000000378 .LVL68
     /tmp/ccl6rDaT.s:683    .text:0000000000000468 .LVL86
     /tmp/ccl6rDaT.s:513    .text:0000000000000310 .LVL56
     /tmp/ccl6rDaT.s:556    .text:0000000000000374 .LVL67
     /tmp/ccl6rDaT.s:686    .text:000000000000046c .LVL87
     /tmp/ccl6rDaT.s:511    .text:000000000000030c .LVL55
     /tmp/ccl6rDaT.s:554    .text:0000000000000370 .LVL66
     /tmp/ccl6rDaT.s:500    .text:0000000000000300 .LVL54
     /tmp/ccl6rDaT.s:605    .text:00000000000003d0 .LVL77
     /tmp/ccl6rDaT.s:615    .text:00000000000003ec .LVL79
     /tmp/ccl6rDaT.s:652    .text:0000000000000424 .LVL82
     /tmp/ccl6rDaT.s:661    .text:0000000000000440 .LVL84
     /tmp/ccl6rDaT.s:519    .text:0000000000000320 .LVL59
     /tmp/ccl6rDaT.s:523    .text:0000000000000328 .LVL60
     /tmp/ccl6rDaT.s:563    .text:0000000000000384 .LVL70
     /tmp/ccl6rDaT.s:544    .text:0000000000000364 .LVL64
     /tmp/ccl6rDaT.s:568    .text:0000000000000388 .LVL71
     /tmp/ccl6rDaT.s:573    .text:0000000000000398 .LVL72
     /tmp/ccl6rDaT.s:584    .text:00000000000003a4 .LVL74
     /tmp/ccl6rDaT.s:589    .text:00000000000003b4 .LVL75
     /tmp/ccl6rDaT.s:594    .text:00000000000003b8 .LVL76
     /tmp/ccl6rDaT.s:623    .text:00000000000003f4 .LVL80
     /tmp/ccl6rDaT.s:645    .text:000000000000041c .LVL81
     /tmp/ccl6rDaT.s:578    .text:000000000000039c .LVL73
     /tmp/ccl6rDaT.s:474    .text:00000000000002e8 .LVL50
     /tmp/ccl6rDaT.s:483    .text:00000000000002f0 .LVL51
     /tmp/ccl6rDaT.s:971    .text:00000000000005fc .LVL123
     /tmp/ccl6rDaT.s:992    .text:000000000000062c .LVL124
     /tmp/ccl6rDaT.s:1040   .text:00000000000006a4 .LVL133
     /tmp/ccl6rDaT.s:1034   .text:000000000000069c .LVL131
     /tmp/ccl6rDaT.s:1037   .text:00000000000006a0 .LVL132
     /tmp/ccl6rDaT.s:135    .text:000000000000009c .LVL14
     /tmp/ccl6rDaT.s:202    .text:0000000000000128 .LVL21
     /tmp/ccl6rDaT.s:211    .text:0000000000000138 .LVL23
     /tmp/ccl6rDaT.s:207    .text:0000000000000130 .LVL22
     /tmp/ccl6rDaT.s:165    .text:00000000000000d8 .LVL15
     /tmp/ccl6rDaT.s:218    .text:000000000000013c .LVL24
     /tmp/ccl6rDaT.s:169    .text:00000000000000e4 .LVL17
     /tmp/ccl6rDaT.s:176    .text:00000000000000f4 .LVL18
     /tmp/ccl6rDaT.s:247    .text:0000000000000148 .LVL26
     /tmp/ccl6rDaT.s:269    .text:0000000000000178 .LVL27
     /tmp/ccl6rDaT.s:430    .text:00000000000002b0 .LVL47
     /tmp/ccl6rDaT.s:334    .text:00000000000001f4 .LVL38
     /tmp/ccl6rDaT.s:310    .text:00000000000001bc .LVL34
     /tmp/ccl6rDaT.s:435    .text:00000000000002b8 .LVL48
     /tmp/ccl6rDaT.s:427    .text:00000000000002ac .LVL46
     /tmp/ccl6rDaT.s:361    .text:0000000000000218 .LVL40
     /tmp/ccl6rDaT.s:410    .text:0000000000000298 .LVL45
     /tmp/ccl6rDaT.s:293    .text:00000000000001ac .LVL31
     /tmp/ccl6rDaT.s:708    .text:0000000000000474 .LVL88
GAS LISTING /tmp/ccl6rDaT.s 			page 50


     /tmp/ccl6rDaT.s:730    .text:00000000000004a4 .LVL89
     /tmp/ccl6rDaT.s:821    .text:000000000000054c .LVL104
     /tmp/ccl6rDaT.s:946    .text:00000000000005f0 .LVL121
     /tmp/ccl6rDaT.s:744    .text:00000000000004b8 .LVL92
     /tmp/ccl6rDaT.s:949    .text:00000000000005f4 .LVL122
     /tmp/ccl6rDaT.s:789    .text:000000000000050c .LVL98
     /tmp/ccl6rDaT.s:910    .text:00000000000005b0 .LVL116
     /tmp/ccl6rDaT.s:943    .text:00000000000005ec .LVL120
     /tmp/ccl6rDaT.s:885    .text:0000000000000588 .LVL113
     /tmp/ccl6rDaT.s:889    .text:000000000000058c .LVL114
     /tmp/ccl6rDaT.s:940    .text:00000000000005e8 .LVL119
     /tmp/ccl6rDaT.s:736    .text:00000000000004b0 .LVL91
     /tmp/ccl6rDaT.s:775    .text:0000000000000504 .LVL97
     /tmp/ccl6rDaT.s:795    .text:0000000000000510 .LVL99
     /tmp/ccl6rDaT.s:840    .text:000000000000055c .LVL106
     /tmp/ccl6rDaT.s:833    .text:0000000000000554 .LVL105
     /tmp/ccl6rDaT.s:857    .text:000000000000056c .LVL108
     /tmp/ccl6rDaT.s:852    .text:0000000000000568 .LVL107
     /tmp/ccl6rDaT.s:879    .text:0000000000000584 .LVL112
     /tmp/ccl6rDaT.s:861    .text:0000000000000570 .LVL109
     /tmp/ccl6rDaT.s:1252   .debug_info:0000000000000000 .Ldebug_info0
     /tmp/ccl6rDaT.s:331    .text:00000000000001f0 .LBB30
     /tmp/ccl6rDaT.s:341    .text:00000000000001fc .LBE30
     /tmp/ccl6rDaT.s:343    .text:00000000000001fc .LBB34
     /tmp/ccl6rDaT.s:414    .text:0000000000000298 .LBE34
     /tmp/ccl6rDaT.s:780    .text:0000000000000504 .LBE39
     /tmp/ccl6rDaT.s:783    .text:0000000000000504 .LBB42
     /tmp/ccl6rDaT.s:791    .text:000000000000050c .LBE42

UNDEFINED SYMBOLS
_ZN8KConsole15trapPrintStringEPKc
_ZN8KConsole12trapPrintIntEmii
