GAS LISTING /tmp/ccw50fL6.s 			page 1


   1              		.file	"KConsole.cpp"
   2              		.option pic
   3              		.option norelax
   4              		.text
   5              	.Ltext0:
   6              		.align	2
   7              		.globl	_ZN8KConsole10initializeEv
   9              	_ZN8KConsole10initializeEv:
  10              	.LFB25:
  11              		.file 1 "src/KConsole.cpp"
   1:src/KConsole.cpp **** //
   2:src/KConsole.cpp **** // Created by os on 5/19/22.
   3:src/KConsole.cpp **** //
   4:src/KConsole.cpp **** #include "../h/KConsole.hpp"
   5:src/KConsole.cpp **** #include "../test/printing.hpp"
   6:src/KConsole.cpp **** #include "../h/Riscv.hpp"
   7:src/KConsole.cpp **** 
   8:src/KConsole.cpp **** uint64 KConsole::inputHead = 0;
   9:src/KConsole.cpp **** uint64 KConsole::inputTail = 0;
  10:src/KConsole.cpp **** uint64 KConsole::outputHead = 0;
  11:src/KConsole.cpp **** uint64 KConsole::outputTail = 0;
  12:src/KConsole.cpp **** KSemaphore* KConsole::hasCharactersOutput = nullptr;
  13:src/KConsole.cpp **** KSemaphore* KConsole::hasCharactersInput = nullptr;
  14:src/KConsole.cpp **** uint64 KConsole::pendingGetc = 0;
  15:src/KConsole.cpp **** char KConsole::inputBuffer[bufferSize];
  16:src/KConsole.cpp **** char KConsole::outputBuffer[bufferSize];
  17:src/KConsole.cpp **** uint64 KConsole::pendingPutc = 0;
  18:src/KConsole.cpp **** 
  19:src/KConsole.cpp **** void KConsole::initialize()
  20:src/KConsole.cpp **** {
  12              		.loc 1 20 1
  13              		.cfi_startproc
  14              		.cfi_personality 0x9b,DW.ref.__gxx_personality_v0
  15              		.cfi_lsda 0x1b,.LLSDA25
  16 0000 130101FE 		addi	sp,sp,-32
  17              		.cfi_def_cfa_offset 32
  18 0004 233C1100 		sd	ra,24(sp)
  19 0008 23388100 		sd	s0,16(sp)
  20 000c 23349100 		sd	s1,8(sp)
  21 0010 23302101 		sd	s2,0(sp)
  22              		.cfi_offset 1, -8
  23              		.cfi_offset 8, -16
  24              		.cfi_offset 9, -24
  25              		.cfi_offset 18, -32
  26 0014 13040102 		addi	s0,sp,32
  27              		.cfi_def_cfa 8, 0
  21:src/KConsole.cpp ****     hasCharactersInput = new KSemaphore(0);
  28              		.loc 1 21 5
  29              		.loc 1 21 42 is_stmt 0
  30 0018 13058001 		li	a0,24
  31              	.LEHB0:
  32 001c 97000000 		call	_ZN10KSemaphorenwEm@plt
  32      E7800000 
  33              	.LVL0:
  34              	.LEHE0:
  35 0024 93040500 		mv	s1,a0
  36 0028 63080500 		beqz	a0,.L2
GAS LISTING /tmp/ccw50fL6.s 			page 2


  37              		.loc 1 21 42 discriminator 1
  38 002c 93050000 		li	a1,0
  39              	.LEHB1:
  40 0030 97000000 		call	_ZN10KSemaphoreC1Ei@plt
  40      E7800000 
  41              	.LVL1:
  42              	.LEHE1:
  43              	.L2:
  44              		.loc 1 21 24 discriminator 6
  45 0038 97070000 		sd	s1,.LANCHOR0,a5
  45      23B09700 
  22:src/KConsole.cpp ****     hasCharactersOutput = new KSemaphore(0);
  46              		.loc 1 22 5 is_stmt 1 discriminator 6
  47              		.loc 1 22 43 is_stmt 0 discriminator 6
  48 0040 13058001 		li	a0,24
  49              	.LEHB2:
  50 0044 97000000 		call	_ZN10KSemaphorenwEm@plt
  50      E7800000 
  51              	.LVL2:
  52              	.LEHE2:
  53 004c 93040500 		mv	s1,a0
  54 0050 63080500 		beqz	a0,.L3
  55              		.loc 1 22 43 discriminator 1
  56 0054 93050000 		li	a1,0
  57              	.LEHB3:
  58 0058 97000000 		call	_ZN10KSemaphoreC1Ei@plt
  58      E7800000 
  59              	.LVL3:
  60              	.LEHE3:
  61              	.L3:
  62              		.loc 1 22 25 discriminator 6
  63 0060 97070000 		sd	s1,.LANCHOR0+8,a5
  63      23B09700 
  23:src/KConsole.cpp **** }
  64              		.loc 1 23 1 discriminator 6
  65 0068 83308101 		ld	ra,24(sp)
  66              		.cfi_remember_state
  67              		.cfi_restore 1
  68 006c 03340101 		ld	s0,16(sp)
  69              		.cfi_restore 8
  70              		.cfi_def_cfa 2, 32
  71 0070 83348100 		ld	s1,8(sp)
  72              		.cfi_restore 9
  73 0074 03390100 		ld	s2,0(sp)
  74              		.cfi_restore 18
  75 0078 13010102 		addi	sp,sp,32
  76              		.cfi_def_cfa_offset 0
  77 007c 67800000 		jr	ra
  78              	.L6:
  79              		.cfi_restore_state
  80 0080 13090500 		mv	s2,a0
  21:src/KConsole.cpp ****     hasCharactersInput = new KSemaphore(0);
  81              		.loc 1 21 42
  82 0084 13850400 		mv	a0,s1
  83 0088 97000000 		call	_ZN10KSemaphoredlEPv@plt
  83      E7800000 
  84              	.LVL4:
GAS LISTING /tmp/ccw50fL6.s 			page 3


  85 0090 13050900 		mv	a0,s2
  86              	.LEHB4:
  87 0094 97000000 		call	_Unwind_Resume@plt
  87      E7800000 
  88              	.LVL5:
  89              	.LEHE4:
  90              	.L7:
  91 009c 13090500 		mv	s2,a0
  22:src/KConsole.cpp ****     hasCharactersOutput = new KSemaphore(0);
  92              		.loc 1 22 43
  93 00a0 13850400 		mv	a0,s1
  94 00a4 97000000 		call	_ZN10KSemaphoredlEPv@plt
  94      E7800000 
  95              	.LVL6:
  96 00ac 13050900 		mv	a0,s2
  97              	.LEHB5:
  98 00b0 97000000 		call	_Unwind_Resume@plt
  98      E7800000 
  99              	.LVL7:
 100              	.LEHE5:
 101              		.cfi_endproc
 102              	.LFE25:
 103              		.globl	__gxx_personality_v0
 104              		.section	.gcc_except_table,"a",@progbits
 105              	.LLSDA25:
 106 0000 FF       		.byte	0xff
 107 0001 FF       		.byte	0xff
 108 0002 03       		.byte	0x3
 109 0003 4E       		.byte	0x4e
 110 0004 00000000 		.4byte	.LEHB0-.LFB25
 111 0008 00000000 		.4byte	.LEHE0-.LEHB0
 112 000c 00000000 		.4byte	0
 113 0010 00       		.byte	0
 114 0011 00000000 		.4byte	.LEHB1-.LFB25
 115 0015 00000000 		.4byte	.LEHE1-.LEHB1
 116 0019 00000000 		.4byte	.L6-.LFB25
 117 001d 00       		.byte	0
 118 001e 00000000 		.4byte	.LEHB2-.LFB25
 119 0022 00000000 		.4byte	.LEHE2-.LEHB2
 120 0026 00000000 		.4byte	0
 121 002a 00       		.byte	0
 122 002b 00000000 		.4byte	.LEHB3-.LFB25
 123 002f 00000000 		.4byte	.LEHE3-.LEHB3
 124 0033 00000000 		.4byte	.L7-.LFB25
 125 0037 00       		.byte	0
 126 0038 00000000 		.4byte	.LEHB4-.LFB25
 127 003c 00000000 		.4byte	.LEHE4-.LEHB4
 128 0040 00000000 		.4byte	0
 129 0044 00       		.byte	0
 130 0045 00000000 		.4byte	.LEHB5-.LFB25
 131 0049 00000000 		.4byte	.LEHE5-.LEHB5
 132 004d 00000000 		.4byte	0
 133 0051 00       		.byte	0
 134              		.text
 136              		.align	2
 137              		.globl	_ZN8KConsole17putCharacterInputEc
 139              	_ZN8KConsole17putCharacterInputEc:
GAS LISTING /tmp/ccw50fL6.s 			page 4


 140              	.LFB28:
  24:src/KConsole.cpp **** 
  25:src/KConsole.cpp **** //extern const uint64 CONSOLE_STATUS;
  26:src/KConsole.cpp **** //extern const uint64 CONSOLE_TX_DATA;
  27:src/KConsole.cpp **** //extern const uint64 CONSOLE_RX_DATA;
  28:src/KConsole.cpp **** void KConsole::getCharactersFromConsole()
  29:src/KConsole.cpp **** {
  30:src/KConsole.cpp ****     uint64 operation = *(uint8*)CONSOLE_STATUS;
  31:src/KConsole.cpp ****     if(operation & KConsole::STATUS_READ_MASK)
  32:src/KConsole.cpp ****     {
  33:src/KConsole.cpp ****         char c = *(uint8*)CONSOLE_TX_DATA;
  34:src/KConsole.cpp ****         if(KConsole::pendingGetc > 0)
  35:src/KConsole.cpp ****         {
  36:src/KConsole.cpp ****             KConsole::pendingGetc--;
  37:src/KConsole.cpp ****             KConsole::putCharacterInput(c);
  38:src/KConsole.cpp ****             //KConsole::putCharacterOutput(c);
  39:src/KConsole.cpp ****         }
  40:src/KConsole.cpp ****     }
  41:src/KConsole.cpp **** }
  42:src/KConsole.cpp **** 
  43:src/KConsole.cpp **** void KConsole::sendCharactersToConsole(void* p)
  44:src/KConsole.cpp **** {
  45:src/KConsole.cpp ****     while(true)
  46:src/KConsole.cpp ****     {
  47:src/KConsole.cpp ****             if(Riscv::finishSystem && KConsole::outputBufferEmpty() && pendingGetc == 0)
  48:src/KConsole.cpp ****                 thread_exit();
  49:src/KConsole.cpp **** 
  50:src/KConsole.cpp ****             uint64 operation = *(uint8*)CONSOLE_STATUS;
  51:src/KConsole.cpp ****             if ((operation & STATUS_WRITE_MASK) && pendingPutc > 0)
  52:src/KConsole.cpp ****             {
  53:src/KConsole.cpp ****                 char volatile c = sysCallGetCharOutput();
  54:src/KConsole.cpp ****                 pendingPutc--;
  55:src/KConsole.cpp ****                 *(uint8*)CONSOLE_RX_DATA = c;
  56:src/KConsole.cpp ****             }
  57:src/KConsole.cpp ****             else
  58:src/KConsole.cpp ****             {
  59:src/KConsole.cpp ****                 thread_dispatch();
  60:src/KConsole.cpp ****             }
  61:src/KConsole.cpp ****     }
  62:src/KConsole.cpp **** }
  63:src/KConsole.cpp **** 
  64:src/KConsole.cpp **** void KConsole::putCharacterInput(char c)
  65:src/KConsole.cpp **** {
 141              		.loc 1 65 1 is_stmt 1
 142              		.cfi_startproc
 143              	.LVL8:
  66:src/KConsole.cpp ****     if((inputTail+1)%bufferSize == inputHead)
 144              		.loc 1 66 5
 145              		.loc 1 66 18 is_stmt 0
 146 00b8 97060000 		lla	a3,.LANCHOR0
 146      93860600 
 147 00c0 03B60601 		ld	a2,16(a3)
 148 00c4 93071600 		addi	a5,a2,1
 149              		.loc 1 66 21
 150 00c8 37470000 		li	a4,16384
 151 00cc 1307F7FF 		addi	a4,a4,-1
 152 00d0 B3F7E700 		and	a5,a5,a4
GAS LISTING /tmp/ccw50fL6.s 			page 5


 153              		.loc 1 66 33
 154 00d4 03B78601 		ld	a4,24(a3)
 155              		.loc 1 66 5
 156 00d8 6382E704 		beq	a5,a4,.L13
  65:src/KConsole.cpp ****     if((inputTail+1)%bufferSize == inputHead)
 157              		.loc 1 65 1
 158 00dc 130101FF 		addi	sp,sp,-16
 159              		.cfi_def_cfa_offset 16
 160 00e0 23341100 		sd	ra,8(sp)
 161 00e4 23308100 		sd	s0,0(sp)
 162              		.cfi_offset 1, -8
 163              		.cfi_offset 8, -16
 164 00e8 13040101 		addi	s0,sp,16
 165              		.cfi_def_cfa 8, 0
  67:src/KConsole.cpp ****         return;
  68:src/KConsole.cpp ****     inputBuffer[inputTail] = c;
 166              		.loc 1 68 5 is_stmt 1
 167              		.loc 1 68 28 is_stmt 0
 168 00ec 17070000 		lla	a4,_ZN8KConsole11inputBufferE
 168      13070700 
 169 00f4 3306C700 		add	a2,a4,a2
 170 00f8 2300A600 		sb	a0,0(a2)
  69:src/KConsole.cpp ****     inputTail = (inputTail+1)%bufferSize;
 171              		.loc 1 69 5 is_stmt 1
 172              		.loc 1 69 15 is_stmt 0
 173 00fc 23B8F600 		sd	a5,16(a3)
  70:src/KConsole.cpp ****     hasCharactersInput->signal();
 174              		.loc 1 70 5 is_stmt 1
 175              		.loc 1 70 31 is_stmt 0
 176 0100 03B50600 		ld	a0,0(a3)
 177              	.LVL9:
 178 0104 97000000 		call	_ZN10KSemaphore6signalEv@plt
 178      E7800000 
 179              	.LVL10:
  71:src/KConsole.cpp **** }
 180              		.loc 1 71 1
 181 010c 83308100 		ld	ra,8(sp)
 182              		.cfi_restore 1
 183 0110 03340100 		ld	s0,0(sp)
 184              		.cfi_restore 8
 185              		.cfi_def_cfa 2, 16
 186 0114 13010101 		addi	sp,sp,16
 187              		.cfi_def_cfa_offset 0
 188 0118 67800000 		jr	ra
 189              	.LVL11:
 190              	.L13:
 191 011c 67800000 		ret
 192              		.cfi_endproc
 193              	.LFE28:
 195              		.align	2
 196              		.globl	_ZN8KConsole24getCharactersFromConsoleEv
 198              	_ZN8KConsole24getCharactersFromConsoleEv:
 199              	.LFB26:
  29:src/KConsole.cpp ****     uint64 operation = *(uint8*)CONSOLE_STATUS;
 200              		.loc 1 29 1 is_stmt 1
 201              		.cfi_startproc
  30:src/KConsole.cpp ****     if(operation & KConsole::STATUS_READ_MASK)
GAS LISTING /tmp/ccw50fL6.s 			page 6


 202              		.loc 1 30 5
  30:src/KConsole.cpp ****     if(operation & KConsole::STATUS_READ_MASK)
 203              		.loc 1 30 24 is_stmt 0
 204 0120 97070000 		la	a5,CONSOLE_STATUS
 204      83B70700 
 205 0128 83B70700 		ld	a5,0(a5)
 206 012c 83C70700 		lbu	a5,0(a5)
 207              	.LVL12:
  31:src/KConsole.cpp ****     {
 208              		.loc 1 31 5 is_stmt 1
 209              	.LBB2:
 210 0130 93F71700 		andi	a5,a5,1
 211              	.LVL13:
 212 0134 63800702 		beqz	a5,.L19
 213              	.LBB3:
  33:src/KConsole.cpp ****         if(KConsole::pendingGetc > 0)
 214              		.loc 1 33 9
  33:src/KConsole.cpp ****         if(KConsole::pendingGetc > 0)
 215              		.loc 1 33 18 is_stmt 0
 216 0138 97070000 		la	a5,CONSOLE_TX_DATA
 216      83B70700 
 217 0140 83B70700 		ld	a5,0(a5)
  33:src/KConsole.cpp ****         if(KConsole::pendingGetc > 0)
 218              		.loc 1 33 14
 219 0144 03C50700 		lbu	a0,0(a5)
 220              	.LVL14:
  34:src/KConsole.cpp ****         {
 221              		.loc 1 34 9 is_stmt 1
  34:src/KConsole.cpp ****         {
 222              		.loc 1 34 34 is_stmt 0
 223 0148 97070000 		ld	a5,.LANCHOR0+32
 223      83B70700 
  34:src/KConsole.cpp ****         {
 224              		.loc 1 34 9
 225 0150 63940700 		bnez	a5,.L22
 226              	.LVL15:
 227              	.L19:
 228 0154 67800000 		ret
 229              	.LVL16:
 230              	.L22:
 231              	.LBE3:
 232              	.LBE2:
  29:src/KConsole.cpp ****     uint64 operation = *(uint8*)CONSOLE_STATUS;
 233              		.loc 1 29 1
 234 0158 130101FF 		addi	sp,sp,-16
 235              		.cfi_def_cfa_offset 16
 236 015c 23341100 		sd	ra,8(sp)
 237              	.LVL17:
 238 0160 23308100 		sd	s0,0(sp)
 239              		.cfi_offset 1, -8
 240              		.cfi_offset 8, -16
 241 0164 13040101 		addi	s0,sp,16
 242              		.cfi_def_cfa 8, 0
 243              	.LBB5:
 244              	.LBB4:
  36:src/KConsole.cpp ****             KConsole::putCharacterInput(c);
 245              		.loc 1 36 13 is_stmt 1
GAS LISTING /tmp/ccw50fL6.s 			page 7


  36:src/KConsole.cpp ****             KConsole::putCharacterInput(c);
 246              		.loc 1 36 34 is_stmt 0
 247 0168 9387F7FF 		addi	a5,a5,-1
 248 016c 17070000 		sd	a5,.LANCHOR0+32,a4
 248      2330F700 
  37:src/KConsole.cpp ****             //KConsole::putCharacterOutput(c);
 249              		.loc 1 37 13 is_stmt 1
  37:src/KConsole.cpp ****             //KConsole::putCharacterOutput(c);
 250              		.loc 1 37 40 is_stmt 0
 251 0174 97000000 		call	_ZN8KConsole17putCharacterInputEc
 251      E7800000 
 252              	.LVL18:
 253              	.LBE4:
 254              	.LBE5:
  41:src/KConsole.cpp **** 
 255              		.loc 1 41 1
 256 017c 83308100 		ld	ra,8(sp)
 257              		.cfi_restore 1
 258 0180 03340100 		ld	s0,0(sp)
 259              		.cfi_restore 8
 260              		.cfi_def_cfa 2, 16
 261 0184 13010101 		addi	sp,sp,16
 262              		.cfi_def_cfa_offset 0
 263 0188 67800000 		jr	ra
 264              		.cfi_endproc
 265              	.LFE26:
 267              		.align	2
 268              		.globl	_ZN8KConsole17getCharacterInputEv
 270              	_ZN8KConsole17getCharacterInputEv:
 271              	.LFB29:
  72:src/KConsole.cpp **** 
  73:src/KConsole.cpp **** char KConsole::getCharacterInput()
  74:src/KConsole.cpp **** {
 272              		.loc 1 74 1 is_stmt 1
 273              		.cfi_startproc
 274 018c 130101FE 		addi	sp,sp,-32
 275              		.cfi_def_cfa_offset 32
 276 0190 233C1100 		sd	ra,24(sp)
 277 0194 23388100 		sd	s0,16(sp)
 278 0198 23349100 		sd	s1,8(sp)
 279              		.cfi_offset 1, -8
 280              		.cfi_offset 8, -16
 281              		.cfi_offset 9, -24
 282 019c 13040102 		addi	s0,sp,32
 283              		.cfi_def_cfa 8, 0
  75:src/KConsole.cpp ****     hasCharactersInput->wait();
 284              		.loc 1 75 5
 285              		.loc 1 75 29 is_stmt 0
 286 01a0 97040000 		lla	s1,.LANCHOR0
 286      93840400 
 287 01a8 03B50400 		ld	a0,0(s1)
 288 01ac 97000000 		call	_ZN10KSemaphore4waitEv@plt
 288      E7800000 
 289              	.LVL19:
  76:src/KConsole.cpp ****     if(inputHead == inputTail)
 290              		.loc 1 76 5 is_stmt 1
 291              		.loc 1 76 18 is_stmt 0
GAS LISTING /tmp/ccw50fL6.s 			page 8


 292 01b4 83B78401 		ld	a5,24(s1)
 293 01b8 03B70401 		ld	a4,16(s1)
 294              		.loc 1 76 5
 295 01bc 6380E704 		beq	a5,a4,.L25
  77:src/KConsole.cpp ****         return -1;
  78:src/KConsole.cpp ****     char c = inputBuffer[inputHead];
 296              		.loc 1 78 5 is_stmt 1
 297              		.loc 1 78 10 is_stmt 0
 298 01c0 17070000 		lla	a4,_ZN8KConsole11inputBufferE
 298      13070700 
 299 01c8 3307F700 		add	a4,a4,a5
 300 01cc 03450700 		lbu	a0,0(a4)
 301              	.LVL20:
  79:src/KConsole.cpp ****     inputHead = (inputHead+1)%bufferSize;
 302              		.loc 1 79 5 is_stmt 1
 303              		.loc 1 79 27 is_stmt 0
 304 01d0 93871700 		addi	a5,a5,1
 305              		.loc 1 79 30
 306 01d4 37470000 		li	a4,16384
 307 01d8 1307F7FF 		addi	a4,a4,-1
 308 01dc B3F7E700 		and	a5,a5,a4
 309              		.loc 1 79 15
 310 01e0 17070000 		sd	a5,.LANCHOR0+24,a4
 310      2330F700 
  80:src/KConsole.cpp ****     return c;
 311              		.loc 1 80 5 is_stmt 1
 312              	.LVL21:
 313              	.L24:
  81:src/KConsole.cpp **** }
 314              		.loc 1 81 1 is_stmt 0
 315 01e8 83308101 		ld	ra,24(sp)
 316              		.cfi_remember_state
 317              		.cfi_restore 1
 318 01ec 03340101 		ld	s0,16(sp)
 319              		.cfi_restore 8
 320              		.cfi_def_cfa 2, 32
 321 01f0 83348100 		ld	s1,8(sp)
 322              		.cfi_restore 9
 323 01f4 13010102 		addi	sp,sp,32
 324              		.cfi_def_cfa_offset 0
 325 01f8 67800000 		jr	ra
 326              	.L25:
 327              		.cfi_restore_state
  77:src/KConsole.cpp ****     char c = inputBuffer[inputHead];
 328              		.loc 1 77 17
 329 01fc 1305F00F 		li	a0,255
 330 0200 6FF09FFE 		j	.L24
 331              		.cfi_endproc
 332              	.LFE29:
 334              		.align	2
 335              		.globl	_ZN8KConsole18putCharacterOutputEc
 337              	_ZN8KConsole18putCharacterOutputEc:
 338              	.LFB30:
  82:src/KConsole.cpp **** 
  83:src/KConsole.cpp **** void KConsole::putCharacterOutput(char c)
  84:src/KConsole.cpp **** {
 339              		.loc 1 84 1 is_stmt 1
GAS LISTING /tmp/ccw50fL6.s 			page 9


 340              		.cfi_startproc
 341              	.LVL22:
  85:src/KConsole.cpp ****     if((outputTail+1)%bufferSize == outputHead)
 342              		.loc 1 85 5
 343              		.loc 1 85 19 is_stmt 0
 344 0204 97060000 		lla	a3,.LANCHOR0
 344      93860600 
 345 020c 03B68602 		ld	a2,40(a3)
 346 0210 93071600 		addi	a5,a2,1
 347              		.loc 1 85 22
 348 0214 37470000 		li	a4,16384
 349 0218 1307F7FF 		addi	a4,a4,-1
 350 021c B3F7E700 		and	a5,a5,a4
 351              		.loc 1 85 34
 352 0220 03B70603 		ld	a4,48(a3)
 353              		.loc 1 85 5
 354 0224 638AE704 		beq	a5,a4,.L30
  84:src/KConsole.cpp ****     if((outputTail+1)%bufferSize == outputHead)
 355              		.loc 1 84 1
 356 0228 130101FF 		addi	sp,sp,-16
 357              		.cfi_def_cfa_offset 16
 358 022c 23341100 		sd	ra,8(sp)
 359 0230 23308100 		sd	s0,0(sp)
 360              		.cfi_offset 1, -8
 361              		.cfi_offset 8, -16
 362 0234 13040101 		addi	s0,sp,16
 363              		.cfi_def_cfa 8, 0
  86:src/KConsole.cpp ****         return;
  87:src/KConsole.cpp ****     pendingPutc++;
 364              		.loc 1 87 5 is_stmt 1
 365              		.loc 1 87 16 is_stmt 0
 366 0238 13870600 		mv	a4,a3
 367 023c 83B68603 		ld	a3,56(a3)
 368 0240 93861600 		addi	a3,a3,1
 369 0244 233CD702 		sd	a3,56(a4)
  88:src/KConsole.cpp ****     outputBuffer[outputTail] = c;
 370              		.loc 1 88 5 is_stmt 1
 371              		.loc 1 88 30 is_stmt 0
 372 0248 97060000 		lla	a3,_ZN8KConsole12outputBufferE
 372      93860600 
 373 0250 3386C600 		add	a2,a3,a2
 374 0254 2300A600 		sb	a0,0(a2)
  89:src/KConsole.cpp ****     outputTail = (outputTail+1)%bufferSize;
 375              		.loc 1 89 5 is_stmt 1
 376              		.loc 1 89 16 is_stmt 0
 377 0258 2334F702 		sd	a5,40(a4)
  90:src/KConsole.cpp ****     hasCharactersOutput->signal();
 378              		.loc 1 90 5 is_stmt 1
 379              		.loc 1 90 32 is_stmt 0
 380 025c 03358700 		ld	a0,8(a4)
 381              	.LVL23:
 382 0260 97000000 		call	_ZN10KSemaphore6signalEv@plt
 382      E7800000 
 383              	.LVL24:
  91:src/KConsole.cpp **** }
 384              		.loc 1 91 1
 385 0268 83308100 		ld	ra,8(sp)
GAS LISTING /tmp/ccw50fL6.s 			page 10


 386              		.cfi_restore 1
 387 026c 03340100 		ld	s0,0(sp)
 388              		.cfi_restore 8
 389              		.cfi_def_cfa 2, 16
 390 0270 13010101 		addi	sp,sp,16
 391              		.cfi_def_cfa_offset 0
 392 0274 67800000 		jr	ra
 393              	.LVL25:
 394              	.L30:
 395 0278 67800000 		ret
 396              		.cfi_endproc
 397              	.LFE30:
 399              		.align	2
 400              		.globl	_ZN8KConsole18getCharacterOutputEv
 402              	_ZN8KConsole18getCharacterOutputEv:
 403              	.LFB31:
  92:src/KConsole.cpp **** 
  93:src/KConsole.cpp **** char KConsole::getCharacterOutput()
  94:src/KConsole.cpp **** {
 404              		.loc 1 94 1 is_stmt 1
 405              		.cfi_startproc
 406 027c 130101FE 		addi	sp,sp,-32
 407              		.cfi_def_cfa_offset 32
 408 0280 233C1100 		sd	ra,24(sp)
 409 0284 23388100 		sd	s0,16(sp)
 410 0288 23349100 		sd	s1,8(sp)
 411              		.cfi_offset 1, -8
 412              		.cfi_offset 8, -16
 413              		.cfi_offset 9, -24
 414 028c 13040102 		addi	s0,sp,32
 415              		.cfi_def_cfa 8, 0
  95:src/KConsole.cpp ****     hasCharactersOutput->wait();
 416              		.loc 1 95 5
 417              		.loc 1 95 30 is_stmt 0
 418 0290 97040000 		lla	s1,.LANCHOR0
 418      93840400 
 419 0298 03B58400 		ld	a0,8(s1)
 420 029c 97000000 		call	_ZN10KSemaphore4waitEv@plt
 420      E7800000 
 421              	.LVL26:
  96:src/KConsole.cpp ****     if(outputHead == outputTail)
 422              		.loc 1 96 5 is_stmt 1
 423              		.loc 1 96 19 is_stmt 0
 424 02a4 83B70403 		ld	a5,48(s1)
 425 02a8 03B78402 		ld	a4,40(s1)
 426              		.loc 1 96 5
 427 02ac 6380E704 		beq	a5,a4,.L35
  97:src/KConsole.cpp ****         return -1;
  98:src/KConsole.cpp ****     char c = outputBuffer[outputHead];
 428              		.loc 1 98 5 is_stmt 1
 429              		.loc 1 98 10 is_stmt 0
 430 02b0 17070000 		lla	a4,_ZN8KConsole12outputBufferE
 430      13070700 
 431 02b8 3307F700 		add	a4,a4,a5
 432 02bc 03450700 		lbu	a0,0(a4)
 433              	.LVL27:
  99:src/KConsole.cpp ****     outputHead = (outputHead+1)%bufferSize;
GAS LISTING /tmp/ccw50fL6.s 			page 11


 434              		.loc 1 99 5 is_stmt 1
 435              		.loc 1 99 29 is_stmt 0
 436 02c0 93871700 		addi	a5,a5,1
 437              		.loc 1 99 32
 438 02c4 37470000 		li	a4,16384
 439 02c8 1307F7FF 		addi	a4,a4,-1
 440 02cc B3F7E700 		and	a5,a5,a4
 441              		.loc 1 99 16
 442 02d0 17070000 		sd	a5,.LANCHOR0+48,a4
 442      2330F700 
 100:src/KConsole.cpp ****     return c;
 443              		.loc 1 100 5 is_stmt 1
 444              	.LVL28:
 445              	.L34:
 101:src/KConsole.cpp **** }
 446              		.loc 1 101 1 is_stmt 0
 447 02d8 83308101 		ld	ra,24(sp)
 448              		.cfi_remember_state
 449              		.cfi_restore 1
 450 02dc 03340101 		ld	s0,16(sp)
 451              		.cfi_restore 8
 452              		.cfi_def_cfa 2, 32
 453 02e0 83348100 		ld	s1,8(sp)
 454              		.cfi_restore 9
 455 02e4 13010102 		addi	sp,sp,32
 456              		.cfi_def_cfa_offset 0
 457 02e8 67800000 		jr	ra
 458              	.L35:
 459              		.cfi_restore_state
  97:src/KConsole.cpp ****     char c = outputBuffer[outputHead];
 460              		.loc 1 97 17
 461 02ec 1305F00F 		li	a0,255
 462 02f0 6FF09FFE 		j	.L34
 463              		.cfi_endproc
 464              	.LFE31:
 466              		.align	2
 467              		.globl	_ZN8KConsole11putcHandlerEv
 469              	_ZN8KConsole11putcHandlerEv:
 470              	.LFB32:
 102:src/KConsole.cpp **** 
 103:src/KConsole.cpp **** void KConsole::putcHandler()
 104:src/KConsole.cpp **** {
 471              		.loc 1 104 1 is_stmt 1
 472              		.cfi_startproc
 473 02f4 130101FF 		addi	sp,sp,-16
 474              		.cfi_def_cfa_offset 16
 475 02f8 23341100 		sd	ra,8(sp)
 476 02fc 23308100 		sd	s0,0(sp)
 477              		.cfi_offset 1, -8
 478              		.cfi_offset 8, -16
 479 0300 13040101 		addi	s0,sp,16
 480              		.cfi_def_cfa 8, 0
 105:src/KConsole.cpp ****     uint64 ch;
 481              		.loc 1 105 5
 106:src/KConsole.cpp ****     __asm__ volatile("mv %0, a1" : "=r"(ch));
 482              		.loc 1 106 5
 483              		.loc 1 106 45 is_stmt 0
GAS LISTING /tmp/ccw50fL6.s 			page 12


 484              	#APP
 485              	# 106 "src/KConsole.cpp" 1
 107              	    putCharacterOutput((char)ch);
 486              		mv a0, a1
 487              	# 0 "" 2
 488              	.LVL29:
 489              		.loc 1 107 5 is_stmt 1
 490              		.loc 1 107 23 is_stmt 0
 491              	#NO_APP
 492 0308 1375F50F 		andi	a0,a0,0xff
 493              	.LVL30:
 494 030c 97000000 		call	_ZN8KConsole18putCharacterOutputEc
 494      E7800000 
 495              	.LVL31:
 108:src/KConsole.cpp **** }
 496              		.loc 1 108 1
 497 0314 83308100 		ld	ra,8(sp)
 498              		.cfi_restore 1
 499 0318 03340100 		ld	s0,0(sp)
 500              		.cfi_restore 8
 501              		.cfi_def_cfa 2, 16
 502 031c 13010101 		addi	sp,sp,16
 503              		.cfi_def_cfa_offset 0
 504 0320 67800000 		jr	ra
 505              		.cfi_endproc
 506              	.LFE32:
 508              		.align	2
 509              		.globl	_ZN8KConsole11getcHandlerEv
 511              	_ZN8KConsole11getcHandlerEv:
 512              	.LFB33:
 109:src/KConsole.cpp **** 
 110:src/KConsole.cpp **** void KConsole::getcHandler()
 111:src/KConsole.cpp **** {
 513              		.loc 1 111 1 is_stmt 1
 514              		.cfi_startproc
 515 0324 130101FE 		addi	sp,sp,-32
 516              		.cfi_def_cfa_offset 32
 517 0328 233C1100 		sd	ra,24(sp)
 518 032c 23388100 		sd	s0,16(sp)
 519 0330 23349100 		sd	s1,8(sp)
 520              		.cfi_offset 1, -8
 521              		.cfi_offset 8, -16
 522              		.cfi_offset 9, -24
 523 0334 13040102 		addi	s0,sp,32
 524              		.cfi_def_cfa 8, 0
 112:src/KConsole.cpp ****     pendingGetc++;
 525              		.loc 1 112 5
 526              		.loc 1 112 16 is_stmt 0
 527 0338 17070000 		lla	a4,.LANCHOR0
 527      13070700 
 528 0340 83370702 		ld	a5,32(a4)
 529 0344 93871700 		addi	a5,a5,1
 530 0348 2330F702 		sd	a5,32(a4)
 113:src/KConsole.cpp ****     char ch;
 531              		.loc 1 113 5 is_stmt 1
 114:src/KConsole.cpp ****     ch = getCharacterInput();
 532              		.loc 1 114 5
GAS LISTING /tmp/ccw50fL6.s 			page 13


 533              		.loc 1 114 27 is_stmt 0
 534 034c 97000000 		call	_ZN8KConsole17getCharacterInputEv
 534      E7800000 
 535              	.LVL32:
 536 0354 93040500 		mv	s1,a0
 537              	.LVL33:
 115:src/KConsole.cpp ****     if(ch!=0x01b)
 538              		.loc 1 115 5 is_stmt 1
 539 0358 9307B001 		li	a5,27
 540 035c 6316F502 		bne	a0,a5,.L43
 541              	.LVL34:
 542              	.L40:
 116:src/KConsole.cpp ****         putCharacterOutput(ch);
 117:src/KConsole.cpp **** 
 118:src/KConsole.cpp ****     if(ch==13)
 543              		.loc 1 118 5
 544 0360 9307D000 		li	a5,13
 545 0364 6388F402 		beq	s1,a5,.L44
 546              	.L41:
 119:src/KConsole.cpp ****     {
 120:src/KConsole.cpp ****         putCharacterOutput(13);
 121:src/KConsole.cpp ****         putCharacterOutput(10);
 122:src/KConsole.cpp ****     }
 123:src/KConsole.cpp **** 
 124:src/KConsole.cpp ****     __asm__ volatile("mv a0, %0" : :"r"((uint64)ch));
 547              		.loc 1 124 5
 548              		.loc 1 124 53 is_stmt 0
 549              	#APP
 550              	# 124 "src/KConsole.cpp" 1
 125              	    Riscv::w_a0_sscratch();
 551              		mv a0, s1
 552              	# 0 "" 2
 553              		.loc 1 125 5 is_stmt 1
 554              		.loc 1 125 25 is_stmt 0
 555              	#NO_APP
 556 036c 97000000 		call	_ZN5Riscv13w_a0_sscratchEv@plt
 556      E7800000 
 557              	.LVL35:
 126:src/KConsole.cpp **** }
 558              		.loc 1 126 1
 559 0374 83308101 		ld	ra,24(sp)
 560              		.cfi_remember_state
 561              		.cfi_restore 1
 562 0378 03340101 		ld	s0,16(sp)
 563              		.cfi_restore 8
 564              		.cfi_def_cfa 2, 32
 565 037c 83348100 		ld	s1,8(sp)
 566              		.cfi_restore 9
 567 0380 13010102 		addi	sp,sp,32
 568              		.cfi_def_cfa_offset 0
 569 0384 67800000 		jr	ra
 570              	.LVL36:
 571              	.L43:
 572              		.cfi_restore_state
 116:src/KConsole.cpp ****         putCharacterOutput(ch);
 573              		.loc 1 116 9 is_stmt 1
 116:src/KConsole.cpp ****         putCharacterOutput(ch);
GAS LISTING /tmp/ccw50fL6.s 			page 14


 574              		.loc 1 116 27 is_stmt 0
 575 0388 97000000 		call	_ZN8KConsole18putCharacterOutputEc
 575      E7800000 
 576              	.LVL37:
 577 0390 6FF01FFD 		j	.L40
 578              	.L44:
 120:src/KConsole.cpp ****         putCharacterOutput(10);
 579              		.loc 1 120 9 is_stmt 1
 120:src/KConsole.cpp ****         putCharacterOutput(10);
 580              		.loc 1 120 27 is_stmt 0
 581 0394 1305D000 		li	a0,13
 582 0398 97000000 		call	_ZN8KConsole18putCharacterOutputEc
 582      E7800000 
 583              	.LVL38:
 121:src/KConsole.cpp ****     }
 584              		.loc 1 121 9 is_stmt 1
 121:src/KConsole.cpp ****     }
 585              		.loc 1 121 27 is_stmt 0
 586 03a0 1305A000 		li	a0,10
 587 03a4 97000000 		call	_ZN8KConsole18putCharacterOutputEc
 587      E7800000 
 588              	.LVL39:
 589 03ac 6FF0DFFB 		j	.L41
 590              		.cfi_endproc
 591              	.LFE33:
 593              		.align	2
 594              		.globl	_ZN8KConsole17outputBufferEmptyEv
 596              	_ZN8KConsole17outputBufferEmptyEv:
 597              	.LFB34:
 127:src/KConsole.cpp **** 
 128:src/KConsole.cpp **** bool KConsole::outputBufferEmpty()
 129:src/KConsole.cpp **** {
 598              		.loc 1 129 1 is_stmt 1
 599              		.cfi_startproc
 600 03b0 130101FF 		addi	sp,sp,-16
 601              		.cfi_def_cfa_offset 16
 602 03b4 23348100 		sd	s0,8(sp)
 603              		.cfi_offset 8, -8
 604 03b8 13040101 		addi	s0,sp,16
 605              		.cfi_def_cfa 8, 0
 130:src/KConsole.cpp ****     return pendingPutc == 0;
 606              		.loc 1 130 5
 131:src/KConsole.cpp **** }
 607              		.loc 1 131 1 is_stmt 0
 608 03bc 17050000 		ld	a0,.LANCHOR0+56
 608      03350500 
 609 03c4 13351500 		seqz	a0,a0
 610 03c8 03348100 		ld	s0,8(sp)
 611              		.cfi_restore 8
 612              		.cfi_def_cfa 2, 16
 613 03cc 13010101 		addi	sp,sp,16
 614              		.cfi_def_cfa_offset 0
 615 03d0 67800000 		jr	ra
 616              		.cfi_endproc
 617              	.LFE34:
 619              		.align	2
 620              		.globl	_ZN8KConsole23sendCharactersToConsoleEPv
GAS LISTING /tmp/ccw50fL6.s 			page 15


 622              	_ZN8KConsole23sendCharactersToConsoleEPv:
 623              	.LFB27:
  44:src/KConsole.cpp ****     while(true)
 624              		.loc 1 44 1 is_stmt 1
 625              		.cfi_startproc
 626              	.LVL40:
 627 03d4 130101FE 		addi	sp,sp,-32
 628              		.cfi_def_cfa_offset 32
 629 03d8 233C1100 		sd	ra,24(sp)
 630 03dc 23388100 		sd	s0,16(sp)
 631              		.cfi_offset 1, -8
 632              		.cfi_offset 8, -16
 633 03e0 13040102 		addi	s0,sp,32
 634              		.cfi_def_cfa 8, 0
 635 03e4 6F008001 		j	.L48
 636              	.LVL41:
 637              	.L53:
 638              	.LBB6:
  48:src/KConsole.cpp **** 
 639              		.loc 1 48 17
  48:src/KConsole.cpp **** 
 640              		.loc 1 48 28 is_stmt 0
 641 03e8 97000000 		call	_Z11thread_exitv@plt
 641      E7800000 
 642              	.LVL42:
 643 03f0 6F004003 		j	.L49
 644              	.LVL43:
 645              	.L50:
 646              	.LBB7:
  59:src/KConsole.cpp ****             }
 647              		.loc 1 59 17 is_stmt 1
  59:src/KConsole.cpp ****             }
 648              		.loc 1 59 32 is_stmt 0
 649 03f4 97000000 		call	_Z15thread_dispatchv@plt
 649      E7800000 
 650              	.LVL44:
 651              	.L48:
 652              	.LBE7:
 653              	.LBE6:
  45:src/KConsole.cpp ****     {
 654              		.loc 1 45 5 is_stmt 1
 655              	.LBB10:
  47:src/KConsole.cpp ****                 thread_exit();
 656              		.loc 1 47 13
  47:src/KConsole.cpp ****                 thread_exit();
 657              		.loc 1 47 69 is_stmt 0
 658 03fc 97070000 		la	a5,_ZN5Riscv12finishSystemE
 658      83B70700 
 659 0404 83C70700 		lbu	a5,0(a5)
 660 0408 638E0700 		beqz	a5,.L49
  47:src/KConsole.cpp ****                 thread_exit();
 661              		.loc 1 47 66 discriminator 1
 662 040c 97000000 		call	_ZN8KConsole17outputBufferEmptyEv
 662      E7800000 
 663              	.LVL45:
  47:src/KConsole.cpp ****                 thread_exit();
 664              		.loc 1 47 36 discriminator 1
GAS LISTING /tmp/ccw50fL6.s 			page 16


 665 0414 63080500 		beqz	a0,.L49
  47:src/KConsole.cpp ****                 thread_exit();
 666              		.loc 1 47 84 discriminator 3
 667 0418 97070000 		ld	a5,.LANCHOR0+32
 667      83B70700 
  47:src/KConsole.cpp ****                 thread_exit();
 668              		.loc 1 47 69 discriminator 3
 669 0420 E38407FC 		beqz	a5,.L53
 670              	.L49:
  50:src/KConsole.cpp ****             if ((operation & STATUS_WRITE_MASK) && pendingPutc > 0)
 671              		.loc 1 50 13 is_stmt 1
  50:src/KConsole.cpp ****             if ((operation & STATUS_WRITE_MASK) && pendingPutc > 0)
 672              		.loc 1 50 32 is_stmt 0
 673 0424 97070000 		la	a5,CONSOLE_STATUS
 673      83B70700 
 674 042c 83B70700 		ld	a5,0(a5)
 675 0430 83C70700 		lbu	a5,0(a5)
 676              	.LVL46:
  51:src/KConsole.cpp ****             {
 677              		.loc 1 51 13 is_stmt 1
 678              	.LBB9:
 679 0434 93F70702 		andi	a5,a5,32
 680              	.LVL47:
 681 0438 E38E07FA 		beqz	a5,.L50
  51:src/KConsole.cpp ****             {
 682              		.loc 1 51 64 is_stmt 0 discriminator 1
 683 043c 97070000 		ld	a5,.LANCHOR0+56
 683      83B70700 
  51:src/KConsole.cpp ****             {
 684              		.loc 1 51 49 discriminator 1
 685 0444 E38807FA 		beqz	a5,.L50
 686              	.LBB8:
  53:src/KConsole.cpp ****                 pendingPutc--;
 687              		.loc 1 53 17 is_stmt 1
  53:src/KConsole.cpp ****                 pendingPutc--;
 688              		.loc 1 53 55 is_stmt 0
 689 0448 97000000 		call	_Z20sysCallGetCharOutputv@plt
 689      E7800000 
 690              	.LVL48:
  53:src/KConsole.cpp ****                 pendingPutc--;
 691              		.loc 1 53 56
 692 0450 A307A4FE 		sb	a0,-17(s0)
  54:src/KConsole.cpp ****                 *(uint8*)CONSOLE_RX_DATA = c;
 693              		.loc 1 54 17 is_stmt 1
  54:src/KConsole.cpp ****                 *(uint8*)CONSOLE_RX_DATA = c;
 694              		.loc 1 54 28 is_stmt 0
 695 0454 17070000 		lla	a4,.LANCHOR0
 695      13070700 
 696 045c 83378703 		ld	a5,56(a4)
 697 0460 9387F7FF 		addi	a5,a5,-1
 698 0464 233CF702 		sd	a5,56(a4)
  55:src/KConsole.cpp ****             }
 699              		.loc 1 55 17 is_stmt 1
 700 0468 97070000 		la	a5,CONSOLE_RX_DATA
 700      83B70700 
 701 0470 83B70700 		ld	a5,0(a5)
  55:src/KConsole.cpp ****             }
GAS LISTING /tmp/ccw50fL6.s 			page 17


 702              		.loc 1 55 42 is_stmt 0
 703 0474 0347F4FE 		lbu	a4,-17(s0)
 704 0478 2380E700 		sb	a4,0(a5)
 705              	.LBE8:
  55:src/KConsole.cpp ****             }
 706              		.loc 1 55 45
 707 047c 6FF01FF8 		j	.L48
 708              	.LBE9:
 709              	.LBE10:
 710              		.cfi_endproc
 711              	.LFE27:
 713              		.align	2
 714              		.globl	_ZN8KConsole14getCharHandlerEv
 716              	_ZN8KConsole14getCharHandlerEv:
 717              	.LFB35:
 132:src/KConsole.cpp **** 
 133:src/KConsole.cpp **** void KConsole::getCharHandler()
 134:src/KConsole.cpp **** {
 718              		.loc 1 134 1 is_stmt 1
 719              		.cfi_startproc
 720 0480 130101FF 		addi	sp,sp,-16
 721              		.cfi_def_cfa_offset 16
 722 0484 23341100 		sd	ra,8(sp)
 723 0488 23308100 		sd	s0,0(sp)
 724              		.cfi_offset 1, -8
 725              		.cfi_offset 8, -16
 726 048c 13040101 		addi	s0,sp,16
 727              		.cfi_def_cfa 8, 0
 135:src/KConsole.cpp ****     char ch;
 728              		.loc 1 135 5
 136:src/KConsole.cpp ****     ch = getCharacterOutput();
 729              		.loc 1 136 5
 730              		.loc 1 136 28 is_stmt 0
 731 0490 97000000 		call	_ZN8KConsole18getCharacterOutputEv
 731      E7800000 
 732              	.LVL49:
 137:src/KConsole.cpp ****     __asm__ volatile("mv a0, %0" : :"r"((uint64)ch));
 733              		.loc 1 137 5 is_stmt 1
 734              		.loc 1 137 53 is_stmt 0
 735              	#APP
 736              	# 137 "src/KConsole.cpp" 1
 138              	    Riscv::w_a0_sscratch();
 737              		mv a0, a0
 738              	# 0 "" 2
 739              		.loc 1 138 5 is_stmt 1
 740              		.loc 1 138 25 is_stmt 0
 741              	#NO_APP
 742 049c 97000000 		call	_ZN5Riscv13w_a0_sscratchEv@plt
 742      E7800000 
 743              	.LVL50:
 139:src/KConsole.cpp **** }
 744              		.loc 1 139 1
 745 04a4 83308100 		ld	ra,8(sp)
 746              		.cfi_restore 1
 747 04a8 03340100 		ld	s0,0(sp)
 748              		.cfi_restore 8
 749              		.cfi_def_cfa 2, 16
GAS LISTING /tmp/ccw50fL6.s 			page 18


 750 04ac 13010101 		addi	sp,sp,16
 751              		.cfi_def_cfa_offset 0
 752 04b0 67800000 		jr	ra
 753              		.cfi_endproc
 754              	.LFE35:
 756              		.align	2
 757              		.globl	_ZN8KConsole15trapPrintStringEPKc
 759              	_ZN8KConsole15trapPrintStringEPKc:
 760              	.LFB36:
 140:src/KConsole.cpp **** 
 141:src/KConsole.cpp **** void KConsole::trapPrintString(const char *string)
 142:src/KConsole.cpp **** {
 761              		.loc 1 142 1 is_stmt 1
 762              		.cfi_startproc
 763              	.LVL51:
 764 04b4 130101FE 		addi	sp,sp,-32
 765              		.cfi_def_cfa_offset 32
 766 04b8 233C1100 		sd	ra,24(sp)
 767 04bc 23388100 		sd	s0,16(sp)
 768 04c0 23349100 		sd	s1,8(sp)
 769              		.cfi_offset 1, -8
 770              		.cfi_offset 8, -16
 771              		.cfi_offset 9, -24
 772 04c4 13040102 		addi	s0,sp,32
 773              		.cfi_def_cfa 8, 0
 774 04c8 93040500 		mv	s1,a0
 775              	.LVL52:
 776              	.L58:
 143:src/KConsole.cpp ****     while (*string != '\0')
 777              		.loc 1 143 5
 778              		.loc 1 143 20
 779              		.loc 1 143 12 is_stmt 0
 780 04cc 03C50400 		lbu	a0,0(s1)
 781              		.loc 1 143 20
 782 04d0 630A0500 		beqz	a0,.L56
 144:src/KConsole.cpp ****     {
 145:src/KConsole.cpp ****         KConsole::putCharacterOutput(*string);
 783              		.loc 1 145 9 is_stmt 1
 784              		.loc 1 145 37 is_stmt 0
 785 04d4 97000000 		call	_ZN8KConsole18putCharacterOutputEc
 785      E7800000 
 786              	.LVL53:
 146:src/KConsole.cpp ****         string++;
 787              		.loc 1 146 9 is_stmt 1
 788              		.loc 1 146 15 is_stmt 0
 789 04dc 93841400 		addi	s1,s1,1
 790              	.LVL54:
 143:src/KConsole.cpp ****     while (*string != '\0')
 791              		.loc 1 143 5
 792 04e0 6FF0DFFE 		j	.L58
 793              	.L56:
 147:src/KConsole.cpp ****     }
 148:src/KConsole.cpp **** }
 794              		.loc 1 148 1
 795 04e4 83308101 		ld	ra,24(sp)
 796              		.cfi_restore 1
 797 04e8 03340101 		ld	s0,16(sp)
GAS LISTING /tmp/ccw50fL6.s 			page 19


 798              		.cfi_restore 8
 799              		.cfi_def_cfa 2, 32
 800 04ec 83348100 		ld	s1,8(sp)
 801              		.cfi_restore 9
 802              	.LVL55:
 803 04f0 13010102 		addi	sp,sp,32
 804              		.cfi_def_cfa_offset 0
 805 04f4 67800000 		jr	ra
 806              		.cfi_endproc
 807              	.LFE36:
 809              		.section	.rodata.str1.8,"aMS",@progbits,1
 810              		.align	3
 811              	.LC0:
 812 0000 30313233 		.string	"0123456789ABCDEF"
 812      34353637 
 812      38394142 
 812      43444546 
 812      00
 813              		.text
 814              		.align	2
 815              		.globl	_ZN8KConsole12trapPrintIntEmii
 817              	_ZN8KConsole12trapPrintIntEmii:
 818              	.LFB37:
 149:src/KConsole.cpp **** 
 150:src/KConsole.cpp **** void KConsole::trapPrintInt(size_t xx, int base, int sgn)
 151:src/KConsole.cpp **** {
 819              		.loc 1 151 1 is_stmt 1
 820              		.cfi_startproc
 821              	.LVL56:
 822 04f8 130101FB 		addi	sp,sp,-80
 823              		.cfi_def_cfa_offset 80
 824 04fc 23341104 		sd	ra,72(sp)
 825 0500 23308104 		sd	s0,64(sp)
 826 0504 233C9102 		sd	s1,56(sp)
 827              		.cfi_offset 1, -8
 828              		.cfi_offset 8, -16
 829              		.cfi_offset 9, -24
 830 0508 13040105 		addi	s0,sp,80
 831              		.cfi_def_cfa 8, 0
 152:src/KConsole.cpp ****     char digits[] = "0123456789ABCDEF";
 832              		.loc 1 152 5
 833              		.loc 1 152 10 is_stmt 0
 834 050c 97070000 		lla	a5,.LC0
 834      93870700 
 835 0514 03B70700 		ld	a4,0(a5)
 836 0518 2334E4FC 		sd	a4,-56(s0)
 837 051c 03B78700 		ld	a4,8(a5)
 838 0520 2338E4FC 		sd	a4,-48(s0)
 839 0524 83C70701 		lbu	a5,16(a5)
 840 0528 230CF4FC 		sb	a5,-40(s0)
 153:src/KConsole.cpp ****     char buf[16];
 841              		.loc 1 153 5 is_stmt 1
 154:src/KConsole.cpp ****     int i, neg;
 842              		.loc 1 154 5
 155:src/KConsole.cpp ****     size_t x;
 843              		.loc 1 155 5
 156:src/KConsole.cpp **** 
GAS LISTING /tmp/ccw50fL6.s 			page 20


 157:src/KConsole.cpp ****     neg = 0;
 844              		.loc 1 157 5
 845              	.LVL57:
 158:src/KConsole.cpp ****     if(sgn && xx < 0) {
 846              		.loc 1 158 5
 159:src/KConsole.cpp ****         neg = 1;
 160:src/KConsole.cpp ****         x = -xx;
 161:src/KConsole.cpp ****     } else {
 162:src/KConsole.cpp ****         x = xx;
 847              		.loc 1 162 9
 163:src/KConsole.cpp ****     }
 164:src/KConsole.cpp **** 
 165:src/KConsole.cpp ****     i = 0;
 848              		.loc 1 165 5
 849              		.loc 1 165 7 is_stmt 0
 850 052c 93040000 		li	s1,0
 851              	.LVL58:
 852              	.L61:
 166:src/KConsole.cpp ****     do {
 853              		.loc 1 166 5 is_stmt 1
 167:src/KConsole.cpp ****         buf[i++] = digits[x % base];
 854              		.loc 1 167 9
 855              		.loc 1 167 29 is_stmt 0
 856 0530 3377B502 		remu	a4,a0,a1
 857              	.LVL59:
 858              		.loc 1 167 35
 859 0534 930604FE 		addi	a3,s0,-32
 860 0538 3387E600 		add	a4,a3,a4
 861 053c 034787FE 		lbu	a4,-24(a4)
 862              		.loc 1 167 18
 863 0540 B3879600 		add	a5,a3,s1
 864 0544 9B841400 		addiw	s1,s1,1
 865              	.LVL60:
 866 0548 238CE7FC 		sb	a4,-40(a5)
 168:src/KConsole.cpp ****     }while((x /= base) != 0);
 867              		.loc 1 168 24 is_stmt 1
 868 054c 93070500 		mv	a5,a0
 869              		.loc 1 168 15 is_stmt 0
 870 0550 3355B502 		divu	a0,a0,a1
 871              	.LVL61:
 872              		.loc 1 168 24
 873 0554 E3FEB7FC 		bleu	a1,a5,.L61
 874              	.LVL62:
 875              	.L63:
 169:src/KConsole.cpp ****     if(neg)
 170:src/KConsole.cpp ****         buf[i++] = '-';
 171:src/KConsole.cpp **** 
 172:src/KConsole.cpp ****     while(--i >= 0)
 876              		.loc 1 172 5 is_stmt 1
 877              		.loc 1 172 15
 878 0558 9B84F4FF 		addiw	s1,s1,-1
 879              	.LVL63:
 880 055c 63CE0400 		bltz	s1,.L60
 173:src/KConsole.cpp ****         KConsole::putCharacterOutput(buf[i]);
 881              		.loc 1 173 9
 882              		.loc 1 173 37 is_stmt 0
 883 0560 930704FE 		addi	a5,s0,-32
GAS LISTING /tmp/ccw50fL6.s 			page 21


 884 0564 B3879700 		add	a5,a5,s1
 885 0568 03C587FD 		lbu	a0,-40(a5)
 886 056c 97000000 		call	_ZN8KConsole18putCharacterOutputEc
 886      E7800000 
 887              	.LVL64:
 888 0574 6FF05FFE 		j	.L63
 889              	.L60:
 174:src/KConsole.cpp **** }
 890              		.loc 1 174 1
 891 0578 83308104 		ld	ra,72(sp)
 892              		.cfi_restore 1
 893 057c 03340104 		ld	s0,64(sp)
 894              		.cfi_restore 8
 895              		.cfi_def_cfa 2, 80
 896 0580 83348103 		ld	s1,56(sp)
 897              		.cfi_restore 9
 898 0584 13010105 		addi	sp,sp,80
 899              		.cfi_def_cfa_offset 0
 900 0588 67800000 		jr	ra
 901              		.cfi_endproc
 902              	.LFE37:
 904              		.section	.rodata.str1.8
 905 0011 00000000 		.align	3
 905      000000
 906              	.LC1:
 907 0018 0A00     		.string	"\n"
 908              		.text
 909              		.align	2
 910              		.globl	_ZN8KConsole18trapPrintStringIntEPKcmi
 912              	_ZN8KConsole18trapPrintStringIntEPKcmi:
 913              	.LFB38:
 175:src/KConsole.cpp **** 
 176:src/KConsole.cpp **** void KConsole::trapPrintStringInt(const char *string, size_t xx, int base)
 177:src/KConsole.cpp **** {
 914              		.loc 1 177 1 is_stmt 1
 915              		.cfi_startproc
 916              	.LVL65:
 917 058c 130101FE 		addi	sp,sp,-32
 918              		.cfi_def_cfa_offset 32
 919 0590 233C1100 		sd	ra,24(sp)
 920 0594 23388100 		sd	s0,16(sp)
 921 0598 23349100 		sd	s1,8(sp)
 922 059c 23302101 		sd	s2,0(sp)
 923              		.cfi_offset 1, -8
 924              		.cfi_offset 8, -16
 925              		.cfi_offset 9, -24
 926              		.cfi_offset 18, -32
 927 05a0 13040102 		addi	s0,sp,32
 928              		.cfi_def_cfa 8, 0
 929 05a4 93840500 		mv	s1,a1
 930 05a8 13090600 		mv	s2,a2
 178:src/KConsole.cpp ****     trapPrintString(string);
 931              		.loc 1 178 5
 932              		.loc 1 178 20 is_stmt 0
 933 05ac 97000000 		call	_ZN8KConsole15trapPrintStringEPKc
 933      E7800000 
 934              	.LVL66:
GAS LISTING /tmp/ccw50fL6.s 			page 22


 179:src/KConsole.cpp ****     trapPrintInt(xx,base);
 935              		.loc 1 179 5 is_stmt 1
 936              		.loc 1 179 17 is_stmt 0
 937 05b4 13060000 		li	a2,0
 938 05b8 93050900 		mv	a1,s2
 939 05bc 13850400 		mv	a0,s1
 940 05c0 97000000 		call	_ZN8KConsole12trapPrintIntEmii
 940      E7800000 
 941              	.LVL67:
 180:src/KConsole.cpp ****     trapPrintString("\n");
 942              		.loc 1 180 5 is_stmt 1
 943              		.loc 1 180 20 is_stmt 0
 944 05c8 17050000 		lla	a0,.LC1
 944      13050500 
 945 05d0 97000000 		call	_ZN8KConsole15trapPrintStringEPKc
 945      E7800000 
 946              	.LVL68:
 181:src/KConsole.cpp **** }
 947              		.loc 1 181 1
 948 05d8 83308101 		ld	ra,24(sp)
 949              		.cfi_restore 1
 950 05dc 03340101 		ld	s0,16(sp)
 951              		.cfi_restore 8
 952              		.cfi_def_cfa 2, 32
 953 05e0 83348100 		ld	s1,8(sp)
 954              		.cfi_restore 9
 955              	.LVL69:
 956 05e4 03390100 		ld	s2,0(sp)
 957              		.cfi_restore 18
 958 05e8 13010102 		addi	sp,sp,32
 959              		.cfi_def_cfa_offset 0
 960 05ec 67800000 		jr	ra
 961              		.cfi_endproc
 962              	.LFE38:
 964              		.globl	_ZN8KConsole11pendingPutcE
 965              		.globl	_ZN8KConsole12outputBufferE
 966              		.globl	_ZN8KConsole11inputBufferE
 967              		.globl	_ZN8KConsole11pendingGetcE
 968              		.globl	_ZN8KConsole18hasCharactersInputE
 969              		.globl	_ZN8KConsole19hasCharactersOutputE
 970              		.globl	_ZN8KConsole10outputTailE
 971              		.globl	_ZN8KConsole10outputHeadE
 972              		.globl	_ZN8KConsole9inputTailE
 973              		.globl	_ZN8KConsole9inputHeadE
 974              		.bss
 975              		.align	3
 976              		.set	.LANCHOR0,. + 0
 979              	_ZN8KConsole18hasCharactersInputE:
 980 0000 00000000 		.zero	8
 980      00000000 
 983              	_ZN8KConsole19hasCharactersOutputE:
 984 0008 00000000 		.zero	8
 984      00000000 
 987              	_ZN8KConsole9inputTailE:
 988 0010 00000000 		.zero	8
 988      00000000 
 991              	_ZN8KConsole9inputHeadE:
GAS LISTING /tmp/ccw50fL6.s 			page 23


 992 0018 00000000 		.zero	8
 992      00000000 
 995              	_ZN8KConsole11pendingGetcE:
 996 0020 00000000 		.zero	8
 996      00000000 
 999              	_ZN8KConsole10outputTailE:
 1000 0028 00000000 		.zero	8
 1000      00000000 
 1003              	_ZN8KConsole10outputHeadE:
 1004 0030 00000000 		.zero	8
 1004      00000000 
 1007              	_ZN8KConsole11pendingPutcE:
 1008 0038 00000000 		.zero	8
 1008      00000000 
 1011              	_ZN8KConsole12outputBufferE:
 1012 0040 00000000 		.zero	16384
 1012      00000000 
 1012      00000000 
 1012      00000000 
 1012      00000000 
 1015              	_ZN8KConsole11inputBufferE:
 1016 4040 00000000 		.zero	16384
 1016      00000000 
 1016      00000000 
 1016      00000000 
 1016      00000000 
 1017              		.text
 1018              	.Letext0:
 1019              		.file 2 "src/../h/../lib/hw.h"
 1020              		.file 3 "src/../h/PCB.hpp"
 1021              		.file 4 "src/../h/KSemaphore.hpp"
 1022              		.file 5 "src/../h/KConsole.hpp"
 1023              		.file 6 "src/../h/slabAllocator.hpp"
 1024              		.file 7 "src/../h/Riscv.hpp"
 1025              		.file 8 "src/../test/../h/syscall_c.hpp"
 4963              		.align	3
 4966              	DW.ref.__gxx_personality_v0:
 4967 0000 00000000 		.dword	__gxx_personality_v0
 4967      00000000 
 4968              		.ident	"GCC: (Ubuntu 9.4.0-1ubuntu1~20.04) 9.4.0"
 4969              		.section	.note.GNU-stack,"",@progbits
GAS LISTING /tmp/ccw50fL6.s 			page 24

