GAS LISTING /tmp/cc7zL69r.s 			page 1


   1              		.file	"KConsole.cpp"
   2              		.option pic
   3              		.option norelax
   4              		.text
   5              	.Ltext0:
   6              		.align	2
   7              		.globl	_ZN8KConsole10initializeEv
   9              	_ZN8KConsole10initializeEv:
  10              	.LFB25:
  11              		.file 1 "src/KConsole.cpp"
   1:src/KConsole.cpp **** //
   2:src/KConsole.cpp **** // Created by os on 5/19/22.
   3:src/KConsole.cpp **** //
   4:src/KConsole.cpp **** #include "../h/KConsole.hpp"
   5:src/KConsole.cpp **** #include "../test/printing.hpp"
   6:src/KConsole.cpp **** #include "../h/Riscv.hpp"
   7:src/KConsole.cpp **** 
   8:src/KConsole.cpp **** uint64 KConsole::inputHead = 0;
   9:src/KConsole.cpp **** uint64 KConsole::inputTail = 0;
  10:src/KConsole.cpp **** uint64 KConsole::outputHead = 0;
  11:src/KConsole.cpp **** uint64 KConsole::outputTail = 0;
  12:src/KConsole.cpp **** KSemaphore* KConsole::hasCharactersOutput = 0;
  13:src/KConsole.cpp **** KSemaphore* KConsole::hasCharactersInput = 0;
  14:src/KConsole.cpp **** uint64 KConsole::pendingGetc = 0;
  15:src/KConsole.cpp **** char KConsole::inputBuffer[bufferSize];
  16:src/KConsole.cpp **** char KConsole::outputBuffer[bufferSize];
  17:src/KConsole.cpp **** uint64 KConsole::pendingPutc = 0;
  18:src/KConsole.cpp **** 
  19:src/KConsole.cpp **** void KConsole::initialize()
  20:src/KConsole.cpp **** {
  12              		.loc 1 20 1
  13              		.cfi_startproc
  14              		.cfi_personality 0x9b,DW.ref.__gxx_personality_v0
  15              		.cfi_lsda 0x1b,.LLSDA25
  16 0000 130101FE 		addi	sp,sp,-32
  17              		.cfi_def_cfa_offset 32
  18 0004 233C1100 		sd	ra,24(sp)
  19 0008 23388100 		sd	s0,16(sp)
  20 000c 23349100 		sd	s1,8(sp)
  21 0010 23302101 		sd	s2,0(sp)
  22              		.cfi_offset 1, -8
  23              		.cfi_offset 8, -16
  24              		.cfi_offset 9, -24
  25              		.cfi_offset 18, -32
  26 0014 13040102 		addi	s0,sp,32
  27              		.cfi_def_cfa 8, 0
  21:src/KConsole.cpp ****     hasCharactersInput = new KSemaphore(0);
  28              		.loc 1 21 5
  29              		.loc 1 21 42 is_stmt 0
  30 0018 13058001 		li	a0,24
  31              	.LEHB0:
  32 001c 97000000 		call	_ZN10KSemaphorenwEm@plt
  32      E7800000 
  33              	.LVL0:
  34              	.LEHE0:
  35 0024 93040500 		mv	s1,a0
  36 0028 93050000 		li	a1,0
GAS LISTING /tmp/cc7zL69r.s 			page 2


  37              	.LEHB1:
  38 002c 97000000 		call	_ZN10KSemaphoreC1Ei@plt
  38      E7800000 
  39              	.LVL1:
  40              	.LEHE1:
  41              		.loc 1 21 24 discriminator 2
  42 0034 97070000 		sd	s1,.LANCHOR0,a5
  42      23B09700 
  22:src/KConsole.cpp ****     hasCharactersOutput = new KSemaphore(0);
  43              		.loc 1 22 5 is_stmt 1 discriminator 2
  44              		.loc 1 22 43 is_stmt 0 discriminator 2
  45 003c 13058001 		li	a0,24
  46              	.LEHB2:
  47 0040 97000000 		call	_ZN10KSemaphorenwEm@plt
  47      E7800000 
  48              	.LVL2:
  49              	.LEHE2:
  50 0048 93040500 		mv	s1,a0
  51 004c 93050000 		li	a1,0
  52              	.LEHB3:
  53 0050 97000000 		call	_ZN10KSemaphoreC1Ei@plt
  53      E7800000 
  54              	.LVL3:
  55              	.LEHE3:
  56              		.loc 1 22 25 discriminator 2
  57 0058 97070000 		sd	s1,.LANCHOR0+8,a5
  57      23B09700 
  23:src/KConsole.cpp **** }
  58              		.loc 1 23 1 discriminator 2
  59 0060 83308101 		ld	ra,24(sp)
  60              		.cfi_remember_state
  61              		.cfi_restore 1
  62 0064 03340101 		ld	s0,16(sp)
  63              		.cfi_restore 8
  64              		.cfi_def_cfa 2, 32
  65 0068 83348100 		ld	s1,8(sp)
  66              		.cfi_restore 9
  67 006c 03390100 		ld	s2,0(sp)
  68              		.cfi_restore 18
  69 0070 13010102 		addi	sp,sp,32
  70              		.cfi_def_cfa_offset 0
  71 0074 67800000 		jr	ra
  72              	.L4:
  73              		.cfi_restore_state
  74 0078 13090500 		mv	s2,a0
  21:src/KConsole.cpp ****     hasCharactersInput = new KSemaphore(0);
  75              		.loc 1 21 42
  76 007c 13850400 		mv	a0,s1
  77 0080 97000000 		call	_ZN10KSemaphoredlEPv@plt
  77      E7800000 
  78              	.LVL4:
  79 0088 13050900 		mv	a0,s2
  80              	.LEHB4:
  81 008c 97000000 		call	_Unwind_Resume@plt
  81      E7800000 
  82              	.LVL5:
  83              	.LEHE4:
GAS LISTING /tmp/cc7zL69r.s 			page 3


  84              	.L5:
  85 0094 13090500 		mv	s2,a0
  22:src/KConsole.cpp ****     hasCharactersOutput = new KSemaphore(0);
  86              		.loc 1 22 43
  87 0098 13850400 		mv	a0,s1
  88 009c 97000000 		call	_ZN10KSemaphoredlEPv@plt
  88      E7800000 
  89              	.LVL6:
  90 00a4 13050900 		mv	a0,s2
  91              	.LEHB5:
  92 00a8 97000000 		call	_Unwind_Resume@plt
  92      E7800000 
  93              	.LVL7:
  94              	.LEHE5:
  95              		.cfi_endproc
  96              	.LFE25:
  97              		.globl	__gxx_personality_v0
  98              		.section	.gcc_except_table,"a",@progbits
  99              	.LLSDA25:
 100 0000 FF       		.byte	0xff
 101 0001 FF       		.byte	0xff
 102 0002 03       		.byte	0x3
 103 0003 4E       		.byte	0x4e
 104 0004 00000000 		.4byte	.LEHB0-.LFB25
 105 0008 00000000 		.4byte	.LEHE0-.LEHB0
 106 000c 00000000 		.4byte	0
 107 0010 00       		.byte	0
 108 0011 00000000 		.4byte	.LEHB1-.LFB25
 109 0015 00000000 		.4byte	.LEHE1-.LEHB1
 110 0019 00000000 		.4byte	.L4-.LFB25
 111 001d 00       		.byte	0
 112 001e 00000000 		.4byte	.LEHB2-.LFB25
 113 0022 00000000 		.4byte	.LEHE2-.LEHB2
 114 0026 00000000 		.4byte	0
 115 002a 00       		.byte	0
 116 002b 00000000 		.4byte	.LEHB3-.LFB25
 117 002f 00000000 		.4byte	.LEHE3-.LEHB3
 118 0033 00000000 		.4byte	.L5-.LFB25
 119 0037 00       		.byte	0
 120 0038 00000000 		.4byte	.LEHB4-.LFB25
 121 003c 00000000 		.4byte	.LEHE4-.LEHB4
 122 0040 00000000 		.4byte	0
 123 0044 00       		.byte	0
 124 0045 00000000 		.4byte	.LEHB5-.LFB25
 125 0049 00000000 		.4byte	.LEHE5-.LEHB5
 126 004d 00000000 		.4byte	0
 127 0051 00       		.byte	0
 128              		.text
 130              		.align	2
 131              		.globl	_ZN8KConsole17putCharacterInputEc
 133              	_ZN8KConsole17putCharacterInputEc:
 134              	.LFB28:
  24:src/KConsole.cpp **** 
  25:src/KConsole.cpp **** //extern const uint64 CONSOLE_STATUS;
  26:src/KConsole.cpp **** //extern const uint64 CONSOLE_TX_DATA;
  27:src/KConsole.cpp **** //extern const uint64 CONSOLE_RX_DATA;
  28:src/KConsole.cpp **** void KConsole::getCharactersFromConsole()
GAS LISTING /tmp/cc7zL69r.s 			page 4


  29:src/KConsole.cpp **** {
  30:src/KConsole.cpp ****     uint64 operation = *(uint8*)CONSOLE_STATUS;
  31:src/KConsole.cpp ****     if(operation & KConsole::STATUS_READ_MASK)
  32:src/KConsole.cpp ****     {
  33:src/KConsole.cpp ****         char c = *(uint8*)CONSOLE_TX_DATA;
  34:src/KConsole.cpp ****         if(KConsole::pendingGetc > 0)
  35:src/KConsole.cpp ****         {
  36:src/KConsole.cpp ****             KConsole::pendingGetc--;
  37:src/KConsole.cpp ****             KConsole::putCharacterInput(c);
  38:src/KConsole.cpp ****             //KConsole::putCharacterOutput(c);
  39:src/KConsole.cpp ****         }
  40:src/KConsole.cpp ****     }
  41:src/KConsole.cpp **** }
  42:src/KConsole.cpp **** 
  43:src/KConsole.cpp **** void KConsole::sendCharactersToConsole(void* p)
  44:src/KConsole.cpp **** {
  45:src/KConsole.cpp ****     while(true)
  46:src/KConsole.cpp ****     {
  47:src/KConsole.cpp ****             if(Riscv::finishSystem && KConsole::outputBufferEmpty() && pendingGetc == 0)
  48:src/KConsole.cpp ****                 thread_exit();
  49:src/KConsole.cpp **** 
  50:src/KConsole.cpp ****             uint64 operation = *(uint8*)CONSOLE_STATUS;
  51:src/KConsole.cpp ****             if ((operation & STATUS_WRITE_MASK) && pendingPutc > 0)
  52:src/KConsole.cpp ****             {
  53:src/KConsole.cpp ****                 char volatile c = sysCallGetCharOutput();
  54:src/KConsole.cpp ****                 pendingPutc--;
  55:src/KConsole.cpp ****                 *(uint8*)CONSOLE_RX_DATA = c;
  56:src/KConsole.cpp ****             }
  57:src/KConsole.cpp ****             else
  58:src/KConsole.cpp ****             {
  59:src/KConsole.cpp ****                 thread_dispatch();
  60:src/KConsole.cpp ****             }
  61:src/KConsole.cpp ****     }
  62:src/KConsole.cpp **** }
  63:src/KConsole.cpp **** 
  64:src/KConsole.cpp **** void KConsole::putCharacterInput(char c)
  65:src/KConsole.cpp **** {
 135              		.loc 1 65 1 is_stmt 1
 136              		.cfi_startproc
 137              	.LVL8:
  66:src/KConsole.cpp ****     if((inputTail+1)%bufferSize == inputHead)
 138              		.loc 1 66 5
 139              		.loc 1 66 18 is_stmt 0
 140 00b0 97060000 		lla	a3,.LANCHOR0
 140      93860600 
 141 00b8 03B60601 		ld	a2,16(a3)
 142 00bc 93071600 		addi	a5,a2,1
 143              		.loc 1 66 21
 144 00c0 37270000 		li	a4,8192
 145 00c4 1307F7FF 		addi	a4,a4,-1
 146 00c8 B3F7E700 		and	a5,a5,a4
 147              		.loc 1 66 33
 148 00cc 03B78601 		ld	a4,24(a3)
 149              		.loc 1 66 5
 150 00d0 6382E704 		beq	a5,a4,.L11
  65:src/KConsole.cpp ****     if((inputTail+1)%bufferSize == inputHead)
 151              		.loc 1 65 1
GAS LISTING /tmp/cc7zL69r.s 			page 5


 152 00d4 130101FF 		addi	sp,sp,-16
 153              		.cfi_def_cfa_offset 16
 154 00d8 23341100 		sd	ra,8(sp)
 155 00dc 23308100 		sd	s0,0(sp)
 156              		.cfi_offset 1, -8
 157              		.cfi_offset 8, -16
 158 00e0 13040101 		addi	s0,sp,16
 159              		.cfi_def_cfa 8, 0
  67:src/KConsole.cpp ****         return;
  68:src/KConsole.cpp ****     inputBuffer[inputTail] = c;
 160              		.loc 1 68 5 is_stmt 1
 161              		.loc 1 68 28 is_stmt 0
 162 00e4 17070000 		lla	a4,_ZN8KConsole11inputBufferE
 162      13070700 
 163 00ec 3306C700 		add	a2,a4,a2
 164 00f0 2300A600 		sb	a0,0(a2)
  69:src/KConsole.cpp ****     inputTail = (inputTail+1)%bufferSize;
 165              		.loc 1 69 5 is_stmt 1
 166              		.loc 1 69 15 is_stmt 0
 167 00f4 23B8F600 		sd	a5,16(a3)
  70:src/KConsole.cpp ****     hasCharactersInput->signal();
 168              		.loc 1 70 5 is_stmt 1
 169              		.loc 1 70 31 is_stmt 0
 170 00f8 03B50600 		ld	a0,0(a3)
 171              	.LVL9:
 172 00fc 97000000 		call	_ZN10KSemaphore6signalEv@plt
 172      E7800000 
 173              	.LVL10:
  71:src/KConsole.cpp **** }
 174              		.loc 1 71 1
 175 0104 83308100 		ld	ra,8(sp)
 176              		.cfi_restore 1
 177 0108 03340100 		ld	s0,0(sp)
 178              		.cfi_restore 8
 179              		.cfi_def_cfa 2, 16
 180 010c 13010101 		addi	sp,sp,16
 181              		.cfi_def_cfa_offset 0
 182 0110 67800000 		jr	ra
 183              	.LVL11:
 184              	.L11:
 185 0114 67800000 		ret
 186              		.cfi_endproc
 187              	.LFE28:
 189              		.align	2
 190              		.globl	_ZN8KConsole24getCharactersFromConsoleEv
 192              	_ZN8KConsole24getCharactersFromConsoleEv:
 193              	.LFB26:
  29:src/KConsole.cpp ****     uint64 operation = *(uint8*)CONSOLE_STATUS;
 194              		.loc 1 29 1 is_stmt 1
 195              		.cfi_startproc
  30:src/KConsole.cpp ****     if(operation & KConsole::STATUS_READ_MASK)
 196              		.loc 1 30 5
  30:src/KConsole.cpp ****     if(operation & KConsole::STATUS_READ_MASK)
 197              		.loc 1 30 24 is_stmt 0
 198 0118 97070000 		la	a5,CONSOLE_STATUS
 198      83B70700 
 199 0120 83B70700 		ld	a5,0(a5)
GAS LISTING /tmp/cc7zL69r.s 			page 6


 200 0124 83C70700 		lbu	a5,0(a5)
 201              	.LVL12:
  31:src/KConsole.cpp ****     {
 202              		.loc 1 31 5 is_stmt 1
 203              	.LBB2:
 204 0128 93F71700 		andi	a5,a5,1
 205              	.LVL13:
 206 012c 63800702 		beqz	a5,.L17
 207              	.LBB3:
  33:src/KConsole.cpp ****         if(KConsole::pendingGetc > 0)
 208              		.loc 1 33 9
  33:src/KConsole.cpp ****         if(KConsole::pendingGetc > 0)
 209              		.loc 1 33 18 is_stmt 0
 210 0130 97070000 		la	a5,CONSOLE_TX_DATA
 210      83B70700 
 211 0138 83B70700 		ld	a5,0(a5)
  33:src/KConsole.cpp ****         if(KConsole::pendingGetc > 0)
 212              		.loc 1 33 14
 213 013c 03C50700 		lbu	a0,0(a5)
 214              	.LVL14:
  34:src/KConsole.cpp ****         {
 215              		.loc 1 34 9 is_stmt 1
  34:src/KConsole.cpp ****         {
 216              		.loc 1 34 34 is_stmt 0
 217 0140 97070000 		ld	a5,.LANCHOR0+32
 217      83B70700 
  34:src/KConsole.cpp ****         {
 218              		.loc 1 34 9
 219 0148 63940700 		bnez	a5,.L20
 220              	.LVL15:
 221              	.L17:
 222 014c 67800000 		ret
 223              	.LVL16:
 224              	.L20:
 225              	.LBE3:
 226              	.LBE2:
  29:src/KConsole.cpp ****     uint64 operation = *(uint8*)CONSOLE_STATUS;
 227              		.loc 1 29 1
 228 0150 130101FF 		addi	sp,sp,-16
 229              		.cfi_def_cfa_offset 16
 230 0154 23341100 		sd	ra,8(sp)
 231              	.LVL17:
 232 0158 23308100 		sd	s0,0(sp)
 233              		.cfi_offset 1, -8
 234              		.cfi_offset 8, -16
 235 015c 13040101 		addi	s0,sp,16
 236              		.cfi_def_cfa 8, 0
 237              	.LBB5:
 238              	.LBB4:
  36:src/KConsole.cpp ****             KConsole::putCharacterInput(c);
 239              		.loc 1 36 13 is_stmt 1
  36:src/KConsole.cpp ****             KConsole::putCharacterInput(c);
 240              		.loc 1 36 34 is_stmt 0
 241 0160 9387F7FF 		addi	a5,a5,-1
 242 0164 17070000 		sd	a5,.LANCHOR0+32,a4
 242      2330F700 
  37:src/KConsole.cpp ****             //KConsole::putCharacterOutput(c);
GAS LISTING /tmp/cc7zL69r.s 			page 7


 243              		.loc 1 37 13 is_stmt 1
  37:src/KConsole.cpp ****             //KConsole::putCharacterOutput(c);
 244              		.loc 1 37 40 is_stmt 0
 245 016c 97000000 		call	_ZN8KConsole17putCharacterInputEc
 245      E7800000 
 246              	.LVL18:
 247              	.LBE4:
 248              	.LBE5:
  41:src/KConsole.cpp **** 
 249              		.loc 1 41 1
 250 0174 83308100 		ld	ra,8(sp)
 251              		.cfi_restore 1
 252 0178 03340100 		ld	s0,0(sp)
 253              		.cfi_restore 8
 254              		.cfi_def_cfa 2, 16
 255 017c 13010101 		addi	sp,sp,16
 256              		.cfi_def_cfa_offset 0
 257 0180 67800000 		jr	ra
 258              		.cfi_endproc
 259              	.LFE26:
 261              		.align	2
 262              		.globl	_ZN8KConsole17getCharacterInputEv
 264              	_ZN8KConsole17getCharacterInputEv:
 265              	.LFB29:
  72:src/KConsole.cpp **** 
  73:src/KConsole.cpp **** char KConsole::getCharacterInput()
  74:src/KConsole.cpp **** {
 266              		.loc 1 74 1 is_stmt 1
 267              		.cfi_startproc
 268 0184 130101FE 		addi	sp,sp,-32
 269              		.cfi_def_cfa_offset 32
 270 0188 233C1100 		sd	ra,24(sp)
 271 018c 23388100 		sd	s0,16(sp)
 272 0190 23349100 		sd	s1,8(sp)
 273              		.cfi_offset 1, -8
 274              		.cfi_offset 8, -16
 275              		.cfi_offset 9, -24
 276 0194 13040102 		addi	s0,sp,32
 277              		.cfi_def_cfa 8, 0
  75:src/KConsole.cpp ****     hasCharactersInput->wait();
 278              		.loc 1 75 5
 279              		.loc 1 75 29 is_stmt 0
 280 0198 97040000 		lla	s1,.LANCHOR0
 280      93840400 
 281 01a0 03B50400 		ld	a0,0(s1)
 282 01a4 97000000 		call	_ZN10KSemaphore4waitEv@plt
 282      E7800000 
 283              	.LVL19:
  76:src/KConsole.cpp ****     if(inputHead == inputTail)
 284              		.loc 1 76 5 is_stmt 1
 285              		.loc 1 76 18 is_stmt 0
 286 01ac 83B78401 		ld	a5,24(s1)
 287 01b0 03B70401 		ld	a4,16(s1)
 288              		.loc 1 76 5
 289 01b4 6380E704 		beq	a5,a4,.L23
  77:src/KConsole.cpp ****         return -1;
  78:src/KConsole.cpp ****     char c = inputBuffer[inputHead];
GAS LISTING /tmp/cc7zL69r.s 			page 8


 290              		.loc 1 78 5 is_stmt 1
 291              		.loc 1 78 10 is_stmt 0
 292 01b8 17070000 		lla	a4,_ZN8KConsole11inputBufferE
 292      13070700 
 293 01c0 3307F700 		add	a4,a4,a5
 294 01c4 03450700 		lbu	a0,0(a4)
 295              	.LVL20:
  79:src/KConsole.cpp ****     inputHead = (inputHead+1)%bufferSize;
 296              		.loc 1 79 5 is_stmt 1
 297              		.loc 1 79 27 is_stmt 0
 298 01c8 93871700 		addi	a5,a5,1
 299              		.loc 1 79 30
 300 01cc 37270000 		li	a4,8192
 301 01d0 1307F7FF 		addi	a4,a4,-1
 302 01d4 B3F7E700 		and	a5,a5,a4
 303              		.loc 1 79 15
 304 01d8 17070000 		sd	a5,.LANCHOR0+24,a4
 304      2330F700 
  80:src/KConsole.cpp ****     return c;
 305              		.loc 1 80 5 is_stmt 1
 306              	.LVL21:
 307              	.L22:
  81:src/KConsole.cpp **** }
 308              		.loc 1 81 1 is_stmt 0
 309 01e0 83308101 		ld	ra,24(sp)
 310              		.cfi_remember_state
 311              		.cfi_restore 1
 312 01e4 03340101 		ld	s0,16(sp)
 313              		.cfi_restore 8
 314              		.cfi_def_cfa 2, 32
 315 01e8 83348100 		ld	s1,8(sp)
 316              		.cfi_restore 9
 317 01ec 13010102 		addi	sp,sp,32
 318              		.cfi_def_cfa_offset 0
 319 01f0 67800000 		jr	ra
 320              	.L23:
 321              		.cfi_restore_state
  77:src/KConsole.cpp ****     char c = inputBuffer[inputHead];
 322              		.loc 1 77 17
 323 01f4 1305F00F 		li	a0,255
 324 01f8 6FF09FFE 		j	.L22
 325              		.cfi_endproc
 326              	.LFE29:
 328              		.align	2
 329              		.globl	_ZN8KConsole18putCharacterOutputEc
 331              	_ZN8KConsole18putCharacterOutputEc:
 332              	.LFB30:
  82:src/KConsole.cpp **** 
  83:src/KConsole.cpp **** void KConsole::putCharacterOutput(char c)
  84:src/KConsole.cpp **** {
 333              		.loc 1 84 1 is_stmt 1
 334              		.cfi_startproc
 335              	.LVL22:
  85:src/KConsole.cpp ****     if((outputTail+1)%bufferSize == outputHead)
 336              		.loc 1 85 5
 337              		.loc 1 85 19 is_stmt 0
 338 01fc 97060000 		lla	a3,.LANCHOR0
GAS LISTING /tmp/cc7zL69r.s 			page 9


 338      93860600 
 339 0204 03B68602 		ld	a2,40(a3)
 340 0208 93071600 		addi	a5,a2,1
 341              		.loc 1 85 22
 342 020c 37270000 		li	a4,8192
 343 0210 1307F7FF 		addi	a4,a4,-1
 344 0214 B3F7E700 		and	a5,a5,a4
 345              		.loc 1 85 34
 346 0218 03B70603 		ld	a4,48(a3)
 347              		.loc 1 85 5
 348 021c 638AE704 		beq	a5,a4,.L28
  84:src/KConsole.cpp ****     if((outputTail+1)%bufferSize == outputHead)
 349              		.loc 1 84 1
 350 0220 130101FF 		addi	sp,sp,-16
 351              		.cfi_def_cfa_offset 16
 352 0224 23341100 		sd	ra,8(sp)
 353 0228 23308100 		sd	s0,0(sp)
 354              		.cfi_offset 1, -8
 355              		.cfi_offset 8, -16
 356 022c 13040101 		addi	s0,sp,16
 357              		.cfi_def_cfa 8, 0
  86:src/KConsole.cpp ****         return;
  87:src/KConsole.cpp ****     pendingPutc++;
 358              		.loc 1 87 5 is_stmt 1
 359              		.loc 1 87 16 is_stmt 0
 360 0230 13870600 		mv	a4,a3
 361 0234 83B68603 		ld	a3,56(a3)
 362 0238 93861600 		addi	a3,a3,1
 363 023c 233CD702 		sd	a3,56(a4)
  88:src/KConsole.cpp ****     outputBuffer[outputTail] = c;
 364              		.loc 1 88 5 is_stmt 1
 365              		.loc 1 88 30 is_stmt 0
 366 0240 97060000 		lla	a3,_ZN8KConsole12outputBufferE
 366      93860600 
 367 0248 3386C600 		add	a2,a3,a2
 368 024c 2300A600 		sb	a0,0(a2)
  89:src/KConsole.cpp ****     outputTail = (outputTail+1)%bufferSize;
 369              		.loc 1 89 5 is_stmt 1
 370              		.loc 1 89 16 is_stmt 0
 371 0250 2334F702 		sd	a5,40(a4)
  90:src/KConsole.cpp ****     hasCharactersOutput->signal();
 372              		.loc 1 90 5 is_stmt 1
 373              		.loc 1 90 32 is_stmt 0
 374 0254 03358700 		ld	a0,8(a4)
 375              	.LVL23:
 376 0258 97000000 		call	_ZN10KSemaphore6signalEv@plt
 376      E7800000 
 377              	.LVL24:
  91:src/KConsole.cpp **** }
 378              		.loc 1 91 1
 379 0260 83308100 		ld	ra,8(sp)
 380              		.cfi_restore 1
 381 0264 03340100 		ld	s0,0(sp)
 382              		.cfi_restore 8
 383              		.cfi_def_cfa 2, 16
 384 0268 13010101 		addi	sp,sp,16
 385              		.cfi_def_cfa_offset 0
GAS LISTING /tmp/cc7zL69r.s 			page 10


 386 026c 67800000 		jr	ra
 387              	.LVL25:
 388              	.L28:
 389 0270 67800000 		ret
 390              		.cfi_endproc
 391              	.LFE30:
 393              		.align	2
 394              		.globl	_ZN8KConsole18getCharacterOutputEv
 396              	_ZN8KConsole18getCharacterOutputEv:
 397              	.LFB31:
  92:src/KConsole.cpp **** 
  93:src/KConsole.cpp **** char KConsole::getCharacterOutput()
  94:src/KConsole.cpp **** {
 398              		.loc 1 94 1 is_stmt 1
 399              		.cfi_startproc
 400 0274 130101FE 		addi	sp,sp,-32
 401              		.cfi_def_cfa_offset 32
 402 0278 233C1100 		sd	ra,24(sp)
 403 027c 23388100 		sd	s0,16(sp)
 404 0280 23349100 		sd	s1,8(sp)
 405              		.cfi_offset 1, -8
 406              		.cfi_offset 8, -16
 407              		.cfi_offset 9, -24
 408 0284 13040102 		addi	s0,sp,32
 409              		.cfi_def_cfa 8, 0
  95:src/KConsole.cpp ****     hasCharactersOutput->wait();
 410              		.loc 1 95 5
 411              		.loc 1 95 30 is_stmt 0
 412 0288 97040000 		lla	s1,.LANCHOR0
 412      93840400 
 413 0290 03B58400 		ld	a0,8(s1)
 414 0294 97000000 		call	_ZN10KSemaphore4waitEv@plt
 414      E7800000 
 415              	.LVL26:
  96:src/KConsole.cpp ****     if(outputHead == outputTail)
 416              		.loc 1 96 5 is_stmt 1
 417              		.loc 1 96 19 is_stmt 0
 418 029c 83B70403 		ld	a5,48(s1)
 419 02a0 03B78402 		ld	a4,40(s1)
 420              		.loc 1 96 5
 421 02a4 6380E704 		beq	a5,a4,.L33
  97:src/KConsole.cpp ****         return -1;
  98:src/KConsole.cpp ****     char c = outputBuffer[outputHead];
 422              		.loc 1 98 5 is_stmt 1
 423              		.loc 1 98 10 is_stmt 0
 424 02a8 17070000 		lla	a4,_ZN8KConsole12outputBufferE
 424      13070700 
 425 02b0 3307F700 		add	a4,a4,a5
 426 02b4 03450700 		lbu	a0,0(a4)
 427              	.LVL27:
  99:src/KConsole.cpp ****     outputHead = (outputHead+1)%bufferSize;
 428              		.loc 1 99 5 is_stmt 1
 429              		.loc 1 99 29 is_stmt 0
 430 02b8 93871700 		addi	a5,a5,1
 431              		.loc 1 99 32
 432 02bc 37270000 		li	a4,8192
 433 02c0 1307F7FF 		addi	a4,a4,-1
GAS LISTING /tmp/cc7zL69r.s 			page 11


 434 02c4 B3F7E700 		and	a5,a5,a4
 435              		.loc 1 99 16
 436 02c8 17070000 		sd	a5,.LANCHOR0+48,a4
 436      2330F700 
 100:src/KConsole.cpp ****     return c;
 437              		.loc 1 100 5 is_stmt 1
 438              	.LVL28:
 439              	.L32:
 101:src/KConsole.cpp **** }
 440              		.loc 1 101 1 is_stmt 0
 441 02d0 83308101 		ld	ra,24(sp)
 442              		.cfi_remember_state
 443              		.cfi_restore 1
 444 02d4 03340101 		ld	s0,16(sp)
 445              		.cfi_restore 8
 446              		.cfi_def_cfa 2, 32
 447 02d8 83348100 		ld	s1,8(sp)
 448              		.cfi_restore 9
 449 02dc 13010102 		addi	sp,sp,32
 450              		.cfi_def_cfa_offset 0
 451 02e0 67800000 		jr	ra
 452              	.L33:
 453              		.cfi_restore_state
  97:src/KConsole.cpp ****     char c = outputBuffer[outputHead];
 454              		.loc 1 97 17
 455 02e4 1305F00F 		li	a0,255
 456 02e8 6FF09FFE 		j	.L32
 457              		.cfi_endproc
 458              	.LFE31:
 460              		.align	2
 461              		.globl	_ZN8KConsole11putcHandlerEv
 463              	_ZN8KConsole11putcHandlerEv:
 464              	.LFB32:
 102:src/KConsole.cpp **** 
 103:src/KConsole.cpp **** void KConsole::putcHandler()
 104:src/KConsole.cpp **** {
 465              		.loc 1 104 1 is_stmt 1
 466              		.cfi_startproc
 467 02ec 130101FF 		addi	sp,sp,-16
 468              		.cfi_def_cfa_offset 16
 469 02f0 23341100 		sd	ra,8(sp)
 470 02f4 23308100 		sd	s0,0(sp)
 471              		.cfi_offset 1, -8
 472              		.cfi_offset 8, -16
 473 02f8 13040101 		addi	s0,sp,16
 474              		.cfi_def_cfa 8, 0
 105:src/KConsole.cpp ****     uint64 ch;
 475              		.loc 1 105 5
 106:src/KConsole.cpp ****     __asm__ volatile("mv %0, a1" : "=r"(ch));
 476              		.loc 1 106 5
 477              		.loc 1 106 45 is_stmt 0
 478              	#APP
 479              	# 106 "src/KConsole.cpp" 1
 107              	    putCharacterOutput((char)ch);
 480              		mv a0, a1
 481              	# 0 "" 2
 482              	.LVL29:
GAS LISTING /tmp/cc7zL69r.s 			page 12


 483              		.loc 1 107 5 is_stmt 1
 484              		.loc 1 107 23 is_stmt 0
 485              	#NO_APP
 486 0300 1375F50F 		andi	a0,a0,0xff
 487              	.LVL30:
 488 0304 97000000 		call	_ZN8KConsole18putCharacterOutputEc
 488      E7800000 
 489              	.LVL31:
 108:src/KConsole.cpp **** }
 490              		.loc 1 108 1
 491 030c 83308100 		ld	ra,8(sp)
 492              		.cfi_restore 1
 493 0310 03340100 		ld	s0,0(sp)
 494              		.cfi_restore 8
 495              		.cfi_def_cfa 2, 16
 496 0314 13010101 		addi	sp,sp,16
 497              		.cfi_def_cfa_offset 0
 498 0318 67800000 		jr	ra
 499              		.cfi_endproc
 500              	.LFE32:
 502              		.align	2
 503              		.globl	_ZN8KConsole11getcHandlerEv
 505              	_ZN8KConsole11getcHandlerEv:
 506              	.LFB33:
 109:src/KConsole.cpp **** 
 110:src/KConsole.cpp **** void KConsole::getcHandler()
 111:src/KConsole.cpp **** {
 507              		.loc 1 111 1 is_stmt 1
 508              		.cfi_startproc
 509 031c 130101FE 		addi	sp,sp,-32
 510              		.cfi_def_cfa_offset 32
 511 0320 233C1100 		sd	ra,24(sp)
 512 0324 23388100 		sd	s0,16(sp)
 513 0328 23349100 		sd	s1,8(sp)
 514              		.cfi_offset 1, -8
 515              		.cfi_offset 8, -16
 516              		.cfi_offset 9, -24
 517 032c 13040102 		addi	s0,sp,32
 518              		.cfi_def_cfa 8, 0
 112:src/KConsole.cpp ****     pendingGetc++;
 519              		.loc 1 112 5
 520              		.loc 1 112 16 is_stmt 0
 521 0330 17070000 		lla	a4,.LANCHOR0
 521      13070700 
 522 0338 83370702 		ld	a5,32(a4)
 523 033c 93871700 		addi	a5,a5,1
 524 0340 2330F702 		sd	a5,32(a4)
 113:src/KConsole.cpp ****     char ch;
 525              		.loc 1 113 5 is_stmt 1
 114:src/KConsole.cpp ****     ch = getCharacterInput();
 526              		.loc 1 114 5
 527              		.loc 1 114 27 is_stmt 0
 528 0344 97000000 		call	_ZN8KConsole17getCharacterInputEv
 528      E7800000 
 529              	.LVL32:
 530 034c 93040500 		mv	s1,a0
 531              	.LVL33:
GAS LISTING /tmp/cc7zL69r.s 			page 13


 115:src/KConsole.cpp ****     if(ch!=0x01b)
 532              		.loc 1 115 5 is_stmt 1
 533 0350 9307B001 		li	a5,27
 534 0354 6316F502 		bne	a0,a5,.L41
 535              	.LVL34:
 536              	.L38:
 116:src/KConsole.cpp ****         putCharacterOutput(ch);
 117:src/KConsole.cpp **** 
 118:src/KConsole.cpp ****     if(ch==13)
 537              		.loc 1 118 5
 538 0358 9307D000 		li	a5,13
 539 035c 6388F402 		beq	s1,a5,.L42
 540              	.L39:
 119:src/KConsole.cpp ****     {
 120:src/KConsole.cpp ****         putCharacterOutput(13);
 121:src/KConsole.cpp ****         putCharacterOutput(10);
 122:src/KConsole.cpp ****     }
 123:src/KConsole.cpp **** 
 124:src/KConsole.cpp ****     __asm__ volatile("mv a0, %0" : :"r"((uint64)ch));
 541              		.loc 1 124 5
 542              		.loc 1 124 53 is_stmt 0
 543              	#APP
 544              	# 124 "src/KConsole.cpp" 1
 125              	    Riscv::w_a0_sscratch();
 545              		mv a0, s1
 546              	# 0 "" 2
 547              		.loc 1 125 5 is_stmt 1
 548              		.loc 1 125 25 is_stmt 0
 549              	#NO_APP
 550 0364 97000000 		call	_ZN5Riscv13w_a0_sscratchEv@plt
 550      E7800000 
 551              	.LVL35:
 126:src/KConsole.cpp **** }
 552              		.loc 1 126 1
 553 036c 83308101 		ld	ra,24(sp)
 554              		.cfi_remember_state
 555              		.cfi_restore 1
 556 0370 03340101 		ld	s0,16(sp)
 557              		.cfi_restore 8
 558              		.cfi_def_cfa 2, 32
 559 0374 83348100 		ld	s1,8(sp)
 560              		.cfi_restore 9
 561 0378 13010102 		addi	sp,sp,32
 562              		.cfi_def_cfa_offset 0
 563 037c 67800000 		jr	ra
 564              	.LVL36:
 565              	.L41:
 566              		.cfi_restore_state
 116:src/KConsole.cpp ****         putCharacterOutput(ch);
 567              		.loc 1 116 9 is_stmt 1
 116:src/KConsole.cpp ****         putCharacterOutput(ch);
 568              		.loc 1 116 27 is_stmt 0
 569 0380 97000000 		call	_ZN8KConsole18putCharacterOutputEc
 569      E7800000 
 570              	.LVL37:
 571 0388 6FF01FFD 		j	.L38
 572              	.L42:
GAS LISTING /tmp/cc7zL69r.s 			page 14


 120:src/KConsole.cpp ****         putCharacterOutput(10);
 573              		.loc 1 120 9 is_stmt 1
 120:src/KConsole.cpp ****         putCharacterOutput(10);
 574              		.loc 1 120 27 is_stmt 0
 575 038c 1305D000 		li	a0,13
 576 0390 97000000 		call	_ZN8KConsole18putCharacterOutputEc
 576      E7800000 
 577              	.LVL38:
 121:src/KConsole.cpp ****     }
 578              		.loc 1 121 9 is_stmt 1
 121:src/KConsole.cpp ****     }
 579              		.loc 1 121 27 is_stmt 0
 580 0398 1305A000 		li	a0,10
 581 039c 97000000 		call	_ZN8KConsole18putCharacterOutputEc
 581      E7800000 
 582              	.LVL39:
 583 03a4 6FF0DFFB 		j	.L39
 584              		.cfi_endproc
 585              	.LFE33:
 587              		.align	2
 588              		.globl	_ZN8KConsole17outputBufferEmptyEv
 590              	_ZN8KConsole17outputBufferEmptyEv:
 591              	.LFB34:
 127:src/KConsole.cpp **** 
 128:src/KConsole.cpp **** bool KConsole::outputBufferEmpty()
 129:src/KConsole.cpp **** {
 592              		.loc 1 129 1 is_stmt 1
 593              		.cfi_startproc
 594 03a8 130101FF 		addi	sp,sp,-16
 595              		.cfi_def_cfa_offset 16
 596 03ac 23348100 		sd	s0,8(sp)
 597              		.cfi_offset 8, -8
 598 03b0 13040101 		addi	s0,sp,16
 599              		.cfi_def_cfa 8, 0
 130:src/KConsole.cpp ****     return pendingPutc == 0;
 600              		.loc 1 130 5
 131:src/KConsole.cpp **** }
 601              		.loc 1 131 1 is_stmt 0
 602 03b4 17050000 		ld	a0,.LANCHOR0+56
 602      03350500 
 603 03bc 13351500 		seqz	a0,a0
 604 03c0 03348100 		ld	s0,8(sp)
 605              		.cfi_restore 8
 606              		.cfi_def_cfa 2, 16
 607 03c4 13010101 		addi	sp,sp,16
 608              		.cfi_def_cfa_offset 0
 609 03c8 67800000 		jr	ra
 610              		.cfi_endproc
 611              	.LFE34:
 613              		.align	2
 614              		.globl	_ZN8KConsole23sendCharactersToConsoleEPv
 616              	_ZN8KConsole23sendCharactersToConsoleEPv:
 617              	.LFB27:
  44:src/KConsole.cpp ****     while(true)
 618              		.loc 1 44 1 is_stmt 1
 619              		.cfi_startproc
 620              	.LVL40:
GAS LISTING /tmp/cc7zL69r.s 			page 15


 621 03cc 130101FE 		addi	sp,sp,-32
 622              		.cfi_def_cfa_offset 32
 623 03d0 233C1100 		sd	ra,24(sp)
 624 03d4 23388100 		sd	s0,16(sp)
 625              		.cfi_offset 1, -8
 626              		.cfi_offset 8, -16
 627 03d8 13040102 		addi	s0,sp,32
 628              		.cfi_def_cfa 8, 0
 629 03dc 6F008001 		j	.L46
 630              	.LVL41:
 631              	.L51:
 632              	.LBB6:
  48:src/KConsole.cpp **** 
 633              		.loc 1 48 17
  48:src/KConsole.cpp **** 
 634              		.loc 1 48 28 is_stmt 0
 635 03e0 97000000 		call	_Z11thread_exitv@plt
 635      E7800000 
 636              	.LVL42:
 637 03e8 6F004003 		j	.L47
 638              	.LVL43:
 639              	.L48:
 640              	.LBB7:
  59:src/KConsole.cpp ****             }
 641              		.loc 1 59 17 is_stmt 1
  59:src/KConsole.cpp ****             }
 642              		.loc 1 59 32 is_stmt 0
 643 03ec 97000000 		call	_Z15thread_dispatchv@plt
 643      E7800000 
 644              	.LVL44:
 645              	.L46:
 646              	.LBE7:
 647              	.LBE6:
  45:src/KConsole.cpp ****     {
 648              		.loc 1 45 5 is_stmt 1
 649              	.LBB10:
  47:src/KConsole.cpp ****                 thread_exit();
 650              		.loc 1 47 13
  47:src/KConsole.cpp ****                 thread_exit();
 651              		.loc 1 47 69 is_stmt 0
 652 03f4 97070000 		la	a5,_ZN5Riscv12finishSystemE
 652      83B70700 
 653 03fc 83C70700 		lbu	a5,0(a5)
 654 0400 638E0700 		beqz	a5,.L47
  47:src/KConsole.cpp ****                 thread_exit();
 655              		.loc 1 47 66 discriminator 1
 656 0404 97000000 		call	_ZN8KConsole17outputBufferEmptyEv
 656      E7800000 
 657              	.LVL45:
  47:src/KConsole.cpp ****                 thread_exit();
 658              		.loc 1 47 36 discriminator 1
 659 040c 63080500 		beqz	a0,.L47
  47:src/KConsole.cpp ****                 thread_exit();
 660              		.loc 1 47 84 discriminator 3
 661 0410 97070000 		ld	a5,.LANCHOR0+32
 661      83B70700 
  47:src/KConsole.cpp ****                 thread_exit();
GAS LISTING /tmp/cc7zL69r.s 			page 16


 662              		.loc 1 47 69 discriminator 3
 663 0418 E38407FC 		beqz	a5,.L51
 664              	.L47:
  50:src/KConsole.cpp ****             if ((operation & STATUS_WRITE_MASK) && pendingPutc > 0)
 665              		.loc 1 50 13 is_stmt 1
  50:src/KConsole.cpp ****             if ((operation & STATUS_WRITE_MASK) && pendingPutc > 0)
 666              		.loc 1 50 32 is_stmt 0
 667 041c 97070000 		la	a5,CONSOLE_STATUS
 667      83B70700 
 668 0424 83B70700 		ld	a5,0(a5)
 669 0428 83C70700 		lbu	a5,0(a5)
 670              	.LVL46:
  51:src/KConsole.cpp ****             {
 671              		.loc 1 51 13 is_stmt 1
 672              	.LBB9:
 673 042c 93F70702 		andi	a5,a5,32
 674              	.LVL47:
 675 0430 E38E07FA 		beqz	a5,.L48
  51:src/KConsole.cpp ****             {
 676              		.loc 1 51 64 is_stmt 0 discriminator 1
 677 0434 97070000 		ld	a5,.LANCHOR0+56
 677      83B70700 
  51:src/KConsole.cpp ****             {
 678              		.loc 1 51 49 discriminator 1
 679 043c E38807FA 		beqz	a5,.L48
 680              	.LBB8:
  53:src/KConsole.cpp ****                 pendingPutc--;
 681              		.loc 1 53 17 is_stmt 1
  53:src/KConsole.cpp ****                 pendingPutc--;
 682              		.loc 1 53 55 is_stmt 0
 683 0440 97000000 		call	_Z20sysCallGetCharOutputv@plt
 683      E7800000 
 684              	.LVL48:
  53:src/KConsole.cpp ****                 pendingPutc--;
 685              		.loc 1 53 56
 686 0448 A307A4FE 		sb	a0,-17(s0)
  54:src/KConsole.cpp ****                 *(uint8*)CONSOLE_RX_DATA = c;
 687              		.loc 1 54 17 is_stmt 1
  54:src/KConsole.cpp ****                 *(uint8*)CONSOLE_RX_DATA = c;
 688              		.loc 1 54 28 is_stmt 0
 689 044c 17070000 		lla	a4,.LANCHOR0
 689      13070700 
 690 0454 83378703 		ld	a5,56(a4)
 691 0458 9387F7FF 		addi	a5,a5,-1
 692 045c 233CF702 		sd	a5,56(a4)
  55:src/KConsole.cpp ****             }
 693              		.loc 1 55 17 is_stmt 1
 694 0460 97070000 		la	a5,CONSOLE_RX_DATA
 694      83B70700 
 695 0468 83B70700 		ld	a5,0(a5)
  55:src/KConsole.cpp ****             }
 696              		.loc 1 55 42 is_stmt 0
 697 046c 0347F4FE 		lbu	a4,-17(s0)
 698 0470 2380E700 		sb	a4,0(a5)
 699              	.LBE8:
  55:src/KConsole.cpp ****             }
 700              		.loc 1 55 45
GAS LISTING /tmp/cc7zL69r.s 			page 17


 701 0474 6FF01FF8 		j	.L46
 702              	.LBE9:
 703              	.LBE10:
 704              		.cfi_endproc
 705              	.LFE27:
 707              		.align	2
 708              		.globl	_ZN8KConsole14getCharHandlerEv
 710              	_ZN8KConsole14getCharHandlerEv:
 711              	.LFB35:
 132:src/KConsole.cpp **** 
 133:src/KConsole.cpp **** void KConsole::getCharHandler()
 134:src/KConsole.cpp **** {
 712              		.loc 1 134 1 is_stmt 1
 713              		.cfi_startproc
 714 0478 130101FF 		addi	sp,sp,-16
 715              		.cfi_def_cfa_offset 16
 716 047c 23341100 		sd	ra,8(sp)
 717 0480 23308100 		sd	s0,0(sp)
 718              		.cfi_offset 1, -8
 719              		.cfi_offset 8, -16
 720 0484 13040101 		addi	s0,sp,16
 721              		.cfi_def_cfa 8, 0
 135:src/KConsole.cpp ****     char ch;
 722              		.loc 1 135 5
 136:src/KConsole.cpp ****     ch = getCharacterOutput();
 723              		.loc 1 136 5
 724              		.loc 1 136 28 is_stmt 0
 725 0488 97000000 		call	_ZN8KConsole18getCharacterOutputEv
 725      E7800000 
 726              	.LVL49:
 137:src/KConsole.cpp ****     __asm__ volatile("mv a0, %0" : :"r"((uint64)ch));
 727              		.loc 1 137 5 is_stmt 1
 728              		.loc 1 137 53 is_stmt 0
 729              	#APP
 730              	# 137 "src/KConsole.cpp" 1
 138              	    Riscv::w_a0_sscratch();
 731              		mv a0, a0
 732              	# 0 "" 2
 733              		.loc 1 138 5 is_stmt 1
 734              		.loc 1 138 25 is_stmt 0
 735              	#NO_APP
 736 0494 97000000 		call	_ZN5Riscv13w_a0_sscratchEv@plt
 736      E7800000 
 737              	.LVL50:
 139:src/KConsole.cpp **** }
 738              		.loc 1 139 1
 739 049c 83308100 		ld	ra,8(sp)
 740              		.cfi_restore 1
 741 04a0 03340100 		ld	s0,0(sp)
 742              		.cfi_restore 8
 743              		.cfi_def_cfa 2, 16
 744 04a4 13010101 		addi	sp,sp,16
 745              		.cfi_def_cfa_offset 0
 746 04a8 67800000 		jr	ra
 747              		.cfi_endproc
 748              	.LFE35:
 750              		.align	2
GAS LISTING /tmp/cc7zL69r.s 			page 18


 751              		.globl	_ZN8KConsole15trapPrintStringEPKc
 753              	_ZN8KConsole15trapPrintStringEPKc:
 754              	.LFB36:
 140:src/KConsole.cpp **** 
 141:src/KConsole.cpp **** void KConsole::trapPrintString(const char *string)
 142:src/KConsole.cpp **** {
 755              		.loc 1 142 1 is_stmt 1
 756              		.cfi_startproc
 757              	.LVL51:
 758 04ac 130101FE 		addi	sp,sp,-32
 759              		.cfi_def_cfa_offset 32
 760 04b0 233C1100 		sd	ra,24(sp)
 761 04b4 23388100 		sd	s0,16(sp)
 762 04b8 23349100 		sd	s1,8(sp)
 763              		.cfi_offset 1, -8
 764              		.cfi_offset 8, -16
 765              		.cfi_offset 9, -24
 766 04bc 13040102 		addi	s0,sp,32
 767              		.cfi_def_cfa 8, 0
 768 04c0 93040500 		mv	s1,a0
 769              	.LVL52:
 770              	.L56:
 143:src/KConsole.cpp ****     while (*string != '\0')
 771              		.loc 1 143 5
 772              		.loc 1 143 20
 773              		.loc 1 143 12 is_stmt 0
 774 04c4 03C50400 		lbu	a0,0(s1)
 775              		.loc 1 143 20
 776 04c8 630A0500 		beqz	a0,.L54
 144:src/KConsole.cpp ****     {
 145:src/KConsole.cpp ****         KConsole::putCharacterOutput(*string);
 777              		.loc 1 145 9 is_stmt 1
 778              		.loc 1 145 37 is_stmt 0
 779 04cc 97000000 		call	_ZN8KConsole18putCharacterOutputEc
 779      E7800000 
 780              	.LVL53:
 146:src/KConsole.cpp ****         string++;
 781              		.loc 1 146 9 is_stmt 1
 782              		.loc 1 146 15 is_stmt 0
 783 04d4 93841400 		addi	s1,s1,1
 784              	.LVL54:
 143:src/KConsole.cpp ****     while (*string != '\0')
 785              		.loc 1 143 5
 786 04d8 6FF0DFFE 		j	.L56
 787              	.L54:
 147:src/KConsole.cpp ****     }
 148:src/KConsole.cpp **** }
 788              		.loc 1 148 1
 789 04dc 83308101 		ld	ra,24(sp)
 790              		.cfi_restore 1
 791 04e0 03340101 		ld	s0,16(sp)
 792              		.cfi_restore 8
 793              		.cfi_def_cfa 2, 32
 794 04e4 83348100 		ld	s1,8(sp)
 795              		.cfi_restore 9
 796              	.LVL55:
 797 04e8 13010102 		addi	sp,sp,32
GAS LISTING /tmp/cc7zL69r.s 			page 19


 798              		.cfi_def_cfa_offset 0
 799 04ec 67800000 		jr	ra
 800              		.cfi_endproc
 801              	.LFE36:
 803              		.section	.rodata.str1.8,"aMS",@progbits,1
 804              		.align	3
 805              	.LC0:
 806 0000 30313233 		.string	"0123456789ABCDEF"
 806      34353637 
 806      38394142 
 806      43444546 
 806      00
 807              		.text
 808              		.align	2
 809              		.globl	_ZN8KConsole12trapPrintIntEmii
 811              	_ZN8KConsole12trapPrintIntEmii:
 812              	.LFB37:
 149:src/KConsole.cpp **** 
 150:src/KConsole.cpp **** void KConsole::trapPrintInt(size_t xx, int base, int sgn)
 151:src/KConsole.cpp **** {
 813              		.loc 1 151 1 is_stmt 1
 814              		.cfi_startproc
 815              	.LVL56:
 816 04f0 130101FB 		addi	sp,sp,-80
 817              		.cfi_def_cfa_offset 80
 818 04f4 23341104 		sd	ra,72(sp)
 819 04f8 23308104 		sd	s0,64(sp)
 820 04fc 233C9102 		sd	s1,56(sp)
 821              		.cfi_offset 1, -8
 822              		.cfi_offset 8, -16
 823              		.cfi_offset 9, -24
 824 0500 13040105 		addi	s0,sp,80
 825              		.cfi_def_cfa 8, 0
 152:src/KConsole.cpp ****     char digits[] = "0123456789ABCDEF";
 826              		.loc 1 152 5
 827              		.loc 1 152 10 is_stmt 0
 828 0504 97070000 		lla	a5,.LC0
 828      93870700 
 829 050c 03B70700 		ld	a4,0(a5)
 830 0510 2334E4FC 		sd	a4,-56(s0)
 831 0514 03B78700 		ld	a4,8(a5)
 832 0518 2338E4FC 		sd	a4,-48(s0)
 833 051c 83C70701 		lbu	a5,16(a5)
 834 0520 230CF4FC 		sb	a5,-40(s0)
 153:src/KConsole.cpp ****     char buf[16];
 835              		.loc 1 153 5 is_stmt 1
 154:src/KConsole.cpp ****     int i, neg;
 836              		.loc 1 154 5
 155:src/KConsole.cpp ****     size_t x;
 837              		.loc 1 155 5
 156:src/KConsole.cpp **** 
 157:src/KConsole.cpp ****     neg = 0;
 838              		.loc 1 157 5
 839              	.LVL57:
 158:src/KConsole.cpp ****     if(sgn && xx < 0) {
 840              		.loc 1 158 5
 159:src/KConsole.cpp ****         neg = 1;
GAS LISTING /tmp/cc7zL69r.s 			page 20


 160:src/KConsole.cpp ****         x = -xx;
 161:src/KConsole.cpp ****     } else {
 162:src/KConsole.cpp ****         x = xx;
 841              		.loc 1 162 9
 163:src/KConsole.cpp ****     }
 164:src/KConsole.cpp **** 
 165:src/KConsole.cpp ****     i = 0;
 842              		.loc 1 165 5
 843              		.loc 1 165 7 is_stmt 0
 844 0524 93040000 		li	s1,0
 845              	.LVL58:
 846              	.L59:
 166:src/KConsole.cpp ****     do {
 847              		.loc 1 166 5 is_stmt 1
 167:src/KConsole.cpp ****         buf[i++] = digits[x % base];
 848              		.loc 1 167 9
 849              		.loc 1 167 29 is_stmt 0
 850 0528 3377B502 		remu	a4,a0,a1
 851              	.LVL59:
 852              		.loc 1 167 35
 853 052c 930604FE 		addi	a3,s0,-32
 854 0530 3387E600 		add	a4,a3,a4
 855 0534 034787FE 		lbu	a4,-24(a4)
 856              		.loc 1 167 18
 857 0538 B3879600 		add	a5,a3,s1
 858 053c 9B841400 		addiw	s1,s1,1
 859              	.LVL60:
 860 0540 238CE7FC 		sb	a4,-40(a5)
 168:src/KConsole.cpp ****     }while((x /= base) != 0);
 861              		.loc 1 168 24 is_stmt 1
 862 0544 93070500 		mv	a5,a0
 863              		.loc 1 168 15 is_stmt 0
 864 0548 3355B502 		divu	a0,a0,a1
 865              	.LVL61:
 866              		.loc 1 168 24
 867 054c E3FEB7FC 		bleu	a1,a5,.L59
 868              	.LVL62:
 869              	.L61:
 169:src/KConsole.cpp ****     if(neg)
 170:src/KConsole.cpp ****         buf[i++] = '-';
 171:src/KConsole.cpp **** 
 172:src/KConsole.cpp ****     while(--i >= 0)
 870              		.loc 1 172 5 is_stmt 1
 871              		.loc 1 172 15
 872 0550 9B84F4FF 		addiw	s1,s1,-1
 873              	.LVL63:
 874 0554 63CE0400 		bltz	s1,.L58
 173:src/KConsole.cpp ****         KConsole::putCharacterOutput(buf[i]);
 875              		.loc 1 173 9
 876              		.loc 1 173 37 is_stmt 0
 877 0558 930704FE 		addi	a5,s0,-32
 878 055c B3879700 		add	a5,a5,s1
 879 0560 03C587FD 		lbu	a0,-40(a5)
 880 0564 97000000 		call	_ZN8KConsole18putCharacterOutputEc
 880      E7800000 
 881              	.LVL64:
 882 056c 6FF05FFE 		j	.L61
GAS LISTING /tmp/cc7zL69r.s 			page 21


 883              	.L58:
 174:src/KConsole.cpp **** }
 884              		.loc 1 174 1
 885 0570 83308104 		ld	ra,72(sp)
 886              		.cfi_restore 1
 887 0574 03340104 		ld	s0,64(sp)
 888              		.cfi_restore 8
 889              		.cfi_def_cfa 2, 80
 890 0578 83348103 		ld	s1,56(sp)
 891              		.cfi_restore 9
 892 057c 13010105 		addi	sp,sp,80
 893              		.cfi_def_cfa_offset 0
 894 0580 67800000 		jr	ra
 895              		.cfi_endproc
 896              	.LFE37:
 898              		.globl	_ZN8KConsole11pendingPutcE
 899              		.globl	_ZN8KConsole12outputBufferE
 900              		.globl	_ZN8KConsole11inputBufferE
 901              		.globl	_ZN8KConsole11pendingGetcE
 902              		.globl	_ZN8KConsole18hasCharactersInputE
 903              		.globl	_ZN8KConsole19hasCharactersOutputE
 904              		.globl	_ZN8KConsole10outputTailE
 905              		.globl	_ZN8KConsole10outputHeadE
 906              		.globl	_ZN8KConsole9inputTailE
 907              		.globl	_ZN8KConsole9inputHeadE
 908              		.bss
 909              		.align	3
 910              		.set	.LANCHOR0,. + 0
 913              	_ZN8KConsole18hasCharactersInputE:
 914 0000 00000000 		.zero	8
 914      00000000 
 917              	_ZN8KConsole19hasCharactersOutputE:
 918 0008 00000000 		.zero	8
 918      00000000 
 921              	_ZN8KConsole9inputTailE:
 922 0010 00000000 		.zero	8
 922      00000000 
 925              	_ZN8KConsole9inputHeadE:
 926 0018 00000000 		.zero	8
 926      00000000 
 929              	_ZN8KConsole11pendingGetcE:
 930 0020 00000000 		.zero	8
 930      00000000 
 933              	_ZN8KConsole10outputTailE:
 934 0028 00000000 		.zero	8
 934      00000000 
 937              	_ZN8KConsole10outputHeadE:
 938 0030 00000000 		.zero	8
 938      00000000 
 941              	_ZN8KConsole11pendingPutcE:
 942 0038 00000000 		.zero	8
 942      00000000 
 945              	_ZN8KConsole12outputBufferE:
 946 0040 00000000 		.zero	8192
 946      00000000 
 946      00000000 
 946      00000000 
GAS LISTING /tmp/cc7zL69r.s 			page 22


 946      00000000 
 949              	_ZN8KConsole11inputBufferE:
 950 2040 00000000 		.zero	8192
 950      00000000 
 950      00000000 
 950      00000000 
 950      00000000 
 951              		.text
 952              	.Letext0:
 953              		.file 2 "src/../h/../lib/hw.h"
 954              		.file 3 "src/../h/PCB.hpp"
 955              		.file 4 "src/../h/KSemaphore.hpp"
 956              		.file 5 "src/../h/KConsole.hpp"
 957              		.file 6 "src/../h/Riscv.hpp"
 958              		.file 7 "src/../test/../h/syscall_c.hpp"
 4696              		.align	3
 4699              	DW.ref.__gxx_personality_v0:
 4700 0000 00000000 		.dword	__gxx_personality_v0
 4700      00000000 
 4701              		.ident	"GCC: (Ubuntu 9.4.0-1ubuntu1~20.04) 9.4.0"
 4702              		.section	.note.GNU-stack,"",@progbits
GAS LISTING /tmp/cc7zL69r.s 			page 23


DEFINED SYMBOLS
                            *ABS*:0000000000000000 KConsole.cpp
     /tmp/cc7zL69r.s:9      .text:0000000000000000 _ZN8KConsole10initializeEv
     /tmp/cc7zL69r.s:13     .text:0000000000000000 .L0 
     /tmp/cc7zL69r.s:4699   .data.rel.local.DW.ref.__gxx_personality_v0:0000000000000000 DW.ref.__gxx_personality_v0
     /tmp/cc7zL69r.s:16     .text:0000000000000000 .L0 
     /tmp/cc7zL69r.s:17     .text:0000000000000004 .L0 
     /tmp/cc7zL69r.s:22     .text:0000000000000014 .L0 
     /tmp/cc7zL69r.s:23     .text:0000000000000014 .L0 
     /tmp/cc7zL69r.s:24     .text:0000000000000014 .L0 
     /tmp/cc7zL69r.s:25     .text:0000000000000014 .L0 
     /tmp/cc7zL69r.s:27     .text:0000000000000018 .L0 
     /tmp/cc7zL69r.s:29     .text:0000000000000018 .L0 
     /tmp/cc7zL69r.s:30     .text:0000000000000018 .L0 
     /tmp/cc7zL69r.s:42     .text:0000000000000034 .L0 
     /tmp/cc7zL69r.s:44     .text:000000000000003c .L0 
     /tmp/cc7zL69r.s:45     .text:000000000000003c .L0 
     /tmp/cc7zL69r.s:57     .text:0000000000000058 .L0 
     /tmp/cc7zL69r.s:59     .text:0000000000000060 .L0 
     /tmp/cc7zL69r.s:60     .text:0000000000000064 .L0 
     /tmp/cc7zL69r.s:61     .text:0000000000000064 .L0 
     /tmp/cc7zL69r.s:63     .text:0000000000000068 .L0 
     /tmp/cc7zL69r.s:64     .text:0000000000000068 .L0 
     /tmp/cc7zL69r.s:66     .text:000000000000006c .L0 
     /tmp/cc7zL69r.s:68     .text:0000000000000070 .L0 
     /tmp/cc7zL69r.s:70     .text:0000000000000074 .L0 
     /tmp/cc7zL69r.s:73     .text:0000000000000078 .L0 
     /tmp/cc7zL69r.s:76     .text:000000000000007c .L0 
     /tmp/cc7zL69r.s:87     .text:0000000000000098 .L0 
     /tmp/cc7zL69r.s:95     .text:00000000000000b0 .L0 
     /tmp/cc7zL69r.s:133    .text:00000000000000b0 _ZN8KConsole17putCharacterInputEc
     /tmp/cc7zL69r.s:136    .text:00000000000000b0 .L0 
     /tmp/cc7zL69r.s:138    .text:00000000000000b0 .L0 
     /tmp/cc7zL69r.s:139    .text:00000000000000b0 .L0 
     /tmp/cc7zL69r.s:140    .text:00000000000000b0 .L0 
     /tmp/cc7zL69r.s:144    .text:00000000000000c0 .L0 
     /tmp/cc7zL69r.s:148    .text:00000000000000cc .L0 
     /tmp/cc7zL69r.s:150    .text:00000000000000d0 .L0 
     /tmp/cc7zL69r.s:152    .text:00000000000000d4 .L0 
     /tmp/cc7zL69r.s:153    .text:00000000000000d8 .L0 
     /tmp/cc7zL69r.s:156    .text:00000000000000e0 .L0 
     /tmp/cc7zL69r.s:157    .text:00000000000000e0 .L0 
     /tmp/cc7zL69r.s:159    .text:00000000000000e4 .L0 
     /tmp/cc7zL69r.s:161    .text:00000000000000e4 .L0 
     /tmp/cc7zL69r.s:949    .bss:0000000000002040 _ZN8KConsole11inputBufferE
     /tmp/cc7zL69r.s:162    .text:00000000000000e4 .L0 
     /tmp/cc7zL69r.s:166    .text:00000000000000f4 .L0 
     /tmp/cc7zL69r.s:167    .text:00000000000000f4 .L0 
     /tmp/cc7zL69r.s:169    .text:00000000000000f8 .L0 
     /tmp/cc7zL69r.s:170    .text:00000000000000f8 .L0 
     /tmp/cc7zL69r.s:175    .text:0000000000000104 .L0 
     /tmp/cc7zL69r.s:176    .text:0000000000000108 .L0 
     /tmp/cc7zL69r.s:178    .text:000000000000010c .L0 
     /tmp/cc7zL69r.s:179    .text:000000000000010c .L0 
     /tmp/cc7zL69r.s:181    .text:0000000000000110 .L0 
     /tmp/cc7zL69r.s:186    .text:0000000000000118 .L0 
     /tmp/cc7zL69r.s:192    .text:0000000000000118 _ZN8KConsole24getCharactersFromConsoleEv
GAS LISTING /tmp/cc7zL69r.s 			page 24


     /tmp/cc7zL69r.s:195    .text:0000000000000118 .L0 
     /tmp/cc7zL69r.s:196    .text:0000000000000118 .L0 
     /tmp/cc7zL69r.s:197    .text:0000000000000118 .L0 
     /tmp/cc7zL69r.s:198    .text:0000000000000118 .L0 
     /tmp/cc7zL69r.s:204    .text:0000000000000128 .L0 
     /tmp/cc7zL69r.s:209    .text:0000000000000130 .L0 
     /tmp/cc7zL69r.s:210    .text:0000000000000130 .L0 
     /tmp/cc7zL69r.s:213    .text:000000000000013c .L0 
     /tmp/cc7zL69r.s:216    .text:0000000000000140 .L0 
     /tmp/cc7zL69r.s:217    .text:0000000000000140 .L0 
     /tmp/cc7zL69r.s:219    .text:0000000000000148 .L0 
     /tmp/cc7zL69r.s:228    .text:0000000000000150 .L0 
     /tmp/cc7zL69r.s:229    .text:0000000000000154 .L0 
     /tmp/cc7zL69r.s:233    .text:000000000000015c .L0 
     /tmp/cc7zL69r.s:234    .text:000000000000015c .L0 
     /tmp/cc7zL69r.s:236    .text:0000000000000160 .L0 
     /tmp/cc7zL69r.s:240    .text:0000000000000160 .L0 
     /tmp/cc7zL69r.s:241    .text:0000000000000160 .L0 
     /tmp/cc7zL69r.s:244    .text:000000000000016c .L0 
     /tmp/cc7zL69r.s:245    .text:000000000000016c .L0 
     /tmp/cc7zL69r.s:250    .text:0000000000000174 .L0 
     /tmp/cc7zL69r.s:251    .text:0000000000000178 .L0 
     /tmp/cc7zL69r.s:253    .text:000000000000017c .L0 
     /tmp/cc7zL69r.s:254    .text:000000000000017c .L0 
     /tmp/cc7zL69r.s:256    .text:0000000000000180 .L0 
     /tmp/cc7zL69r.s:258    .text:0000000000000184 .L0 
     /tmp/cc7zL69r.s:264    .text:0000000000000184 _ZN8KConsole17getCharacterInputEv
     /tmp/cc7zL69r.s:267    .text:0000000000000184 .L0 
     /tmp/cc7zL69r.s:268    .text:0000000000000184 .L0 
     /tmp/cc7zL69r.s:269    .text:0000000000000188 .L0 
     /tmp/cc7zL69r.s:273    .text:0000000000000194 .L0 
     /tmp/cc7zL69r.s:274    .text:0000000000000194 .L0 
     /tmp/cc7zL69r.s:275    .text:0000000000000194 .L0 
     /tmp/cc7zL69r.s:277    .text:0000000000000198 .L0 
     /tmp/cc7zL69r.s:279    .text:0000000000000198 .L0 
     /tmp/cc7zL69r.s:280    .text:0000000000000198 .L0 
     /tmp/cc7zL69r.s:285    .text:00000000000001ac .L0 
     /tmp/cc7zL69r.s:286    .text:00000000000001ac .L0 
     /tmp/cc7zL69r.s:289    .text:00000000000001b4 .L0 
     /tmp/cc7zL69r.s:291    .text:00000000000001b8 .L0 
     /tmp/cc7zL69r.s:292    .text:00000000000001b8 .L0 
     /tmp/cc7zL69r.s:297    .text:00000000000001c8 .L0 
     /tmp/cc7zL69r.s:298    .text:00000000000001c8 .L0 
     /tmp/cc7zL69r.s:300    .text:00000000000001cc .L0 
     /tmp/cc7zL69r.s:304    .text:00000000000001d8 .L0 
     /tmp/cc7zL69r.s:308    .text:00000000000001e0 .L0 
     /tmp/cc7zL69r.s:309    .text:00000000000001e0 .L0 
     /tmp/cc7zL69r.s:310    .text:00000000000001e4 .L0 
     /tmp/cc7zL69r.s:311    .text:00000000000001e4 .L0 
     /tmp/cc7zL69r.s:313    .text:00000000000001e8 .L0 
     /tmp/cc7zL69r.s:314    .text:00000000000001e8 .L0 
     /tmp/cc7zL69r.s:316    .text:00000000000001ec .L0 
     /tmp/cc7zL69r.s:318    .text:00000000000001f0 .L0 
     /tmp/cc7zL69r.s:321    .text:00000000000001f4 .L0 
     /tmp/cc7zL69r.s:323    .text:00000000000001f4 .L0 
     /tmp/cc7zL69r.s:325    .text:00000000000001fc .L0 
     /tmp/cc7zL69r.s:331    .text:00000000000001fc _ZN8KConsole18putCharacterOutputEc
GAS LISTING /tmp/cc7zL69r.s 			page 25


     /tmp/cc7zL69r.s:334    .text:00000000000001fc .L0 
     /tmp/cc7zL69r.s:336    .text:00000000000001fc .L0 
     /tmp/cc7zL69r.s:337    .text:00000000000001fc .L0 
     /tmp/cc7zL69r.s:338    .text:00000000000001fc .L0 
     /tmp/cc7zL69r.s:342    .text:000000000000020c .L0 
     /tmp/cc7zL69r.s:346    .text:0000000000000218 .L0 
     /tmp/cc7zL69r.s:348    .text:000000000000021c .L0 
     /tmp/cc7zL69r.s:350    .text:0000000000000220 .L0 
     /tmp/cc7zL69r.s:351    .text:0000000000000224 .L0 
     /tmp/cc7zL69r.s:354    .text:000000000000022c .L0 
     /tmp/cc7zL69r.s:355    .text:000000000000022c .L0 
     /tmp/cc7zL69r.s:357    .text:0000000000000230 .L0 
     /tmp/cc7zL69r.s:359    .text:0000000000000230 .L0 
     /tmp/cc7zL69r.s:360    .text:0000000000000230 .L0 
     /tmp/cc7zL69r.s:365    .text:0000000000000240 .L0 
     /tmp/cc7zL69r.s:945    .bss:0000000000000040 _ZN8KConsole12outputBufferE
     /tmp/cc7zL69r.s:366    .text:0000000000000240 .L0 
     /tmp/cc7zL69r.s:370    .text:0000000000000250 .L0 
     /tmp/cc7zL69r.s:371    .text:0000000000000250 .L0 
     /tmp/cc7zL69r.s:373    .text:0000000000000254 .L0 
     /tmp/cc7zL69r.s:374    .text:0000000000000254 .L0 
     /tmp/cc7zL69r.s:379    .text:0000000000000260 .L0 
     /tmp/cc7zL69r.s:380    .text:0000000000000264 .L0 
     /tmp/cc7zL69r.s:382    .text:0000000000000268 .L0 
     /tmp/cc7zL69r.s:383    .text:0000000000000268 .L0 
     /tmp/cc7zL69r.s:385    .text:000000000000026c .L0 
     /tmp/cc7zL69r.s:390    .text:0000000000000274 .L0 
     /tmp/cc7zL69r.s:396    .text:0000000000000274 _ZN8KConsole18getCharacterOutputEv
     /tmp/cc7zL69r.s:399    .text:0000000000000274 .L0 
     /tmp/cc7zL69r.s:400    .text:0000000000000274 .L0 
     /tmp/cc7zL69r.s:401    .text:0000000000000278 .L0 
     /tmp/cc7zL69r.s:405    .text:0000000000000284 .L0 
     /tmp/cc7zL69r.s:406    .text:0000000000000284 .L0 
     /tmp/cc7zL69r.s:407    .text:0000000000000284 .L0 
     /tmp/cc7zL69r.s:409    .text:0000000000000288 .L0 
     /tmp/cc7zL69r.s:411    .text:0000000000000288 .L0 
     /tmp/cc7zL69r.s:412    .text:0000000000000288 .L0 
     /tmp/cc7zL69r.s:417    .text:000000000000029c .L0 
     /tmp/cc7zL69r.s:418    .text:000000000000029c .L0 
     /tmp/cc7zL69r.s:421    .text:00000000000002a4 .L0 
     /tmp/cc7zL69r.s:423    .text:00000000000002a8 .L0 
     /tmp/cc7zL69r.s:424    .text:00000000000002a8 .L0 
     /tmp/cc7zL69r.s:429    .text:00000000000002b8 .L0 
     /tmp/cc7zL69r.s:430    .text:00000000000002b8 .L0 
     /tmp/cc7zL69r.s:432    .text:00000000000002bc .L0 
     /tmp/cc7zL69r.s:436    .text:00000000000002c8 .L0 
     /tmp/cc7zL69r.s:440    .text:00000000000002d0 .L0 
     /tmp/cc7zL69r.s:441    .text:00000000000002d0 .L0 
     /tmp/cc7zL69r.s:442    .text:00000000000002d4 .L0 
     /tmp/cc7zL69r.s:443    .text:00000000000002d4 .L0 
     /tmp/cc7zL69r.s:445    .text:00000000000002d8 .L0 
     /tmp/cc7zL69r.s:446    .text:00000000000002d8 .L0 
     /tmp/cc7zL69r.s:448    .text:00000000000002dc .L0 
     /tmp/cc7zL69r.s:450    .text:00000000000002e0 .L0 
     /tmp/cc7zL69r.s:453    .text:00000000000002e4 .L0 
     /tmp/cc7zL69r.s:455    .text:00000000000002e4 .L0 
     /tmp/cc7zL69r.s:457    .text:00000000000002ec .L0 
GAS LISTING /tmp/cc7zL69r.s 			page 26


     /tmp/cc7zL69r.s:463    .text:00000000000002ec _ZN8KConsole11putcHandlerEv
     /tmp/cc7zL69r.s:466    .text:00000000000002ec .L0 
     /tmp/cc7zL69r.s:467    .text:00000000000002ec .L0 
     /tmp/cc7zL69r.s:468    .text:00000000000002f0 .L0 
     /tmp/cc7zL69r.s:471    .text:00000000000002f8 .L0 
     /tmp/cc7zL69r.s:472    .text:00000000000002f8 .L0 
     /tmp/cc7zL69r.s:474    .text:00000000000002fc .L0 
     /tmp/cc7zL69r.s:476    .text:00000000000002fc .L0 
     /tmp/cc7zL69r.s:477    .text:00000000000002fc .L0 
    src/KConsole.cpp:106    .text:00000000000002fc .L0 
     /tmp/cc7zL69r.s:484    .text:0000000000000300 .L0 
     /tmp/cc7zL69r.s:486    .text:0000000000000300 .L0 
     /tmp/cc7zL69r.s:491    .text:000000000000030c .L0 
     /tmp/cc7zL69r.s:492    .text:0000000000000310 .L0 
     /tmp/cc7zL69r.s:494    .text:0000000000000314 .L0 
     /tmp/cc7zL69r.s:495    .text:0000000000000314 .L0 
     /tmp/cc7zL69r.s:497    .text:0000000000000318 .L0 
     /tmp/cc7zL69r.s:499    .text:000000000000031c .L0 
     /tmp/cc7zL69r.s:505    .text:000000000000031c _ZN8KConsole11getcHandlerEv
     /tmp/cc7zL69r.s:508    .text:000000000000031c .L0 
     /tmp/cc7zL69r.s:509    .text:000000000000031c .L0 
     /tmp/cc7zL69r.s:510    .text:0000000000000320 .L0 
     /tmp/cc7zL69r.s:514    .text:000000000000032c .L0 
     /tmp/cc7zL69r.s:515    .text:000000000000032c .L0 
     /tmp/cc7zL69r.s:516    .text:000000000000032c .L0 
     /tmp/cc7zL69r.s:518    .text:0000000000000330 .L0 
     /tmp/cc7zL69r.s:520    .text:0000000000000330 .L0 
     /tmp/cc7zL69r.s:521    .text:0000000000000330 .L0 
     /tmp/cc7zL69r.s:526    .text:0000000000000344 .L0 
     /tmp/cc7zL69r.s:527    .text:0000000000000344 .L0 
     /tmp/cc7zL69r.s:528    .text:0000000000000344 .L0 
     /tmp/cc7zL69r.s:533    .text:0000000000000350 .L0 
     /tmp/cc7zL69r.s:538    .text:0000000000000358 .L0 
     /tmp/cc7zL69r.s:542    .text:0000000000000360 .L0 
    src/KConsole.cpp:124    .text:0000000000000360 .L0 
     /tmp/cc7zL69r.s:548    .text:0000000000000364 .L0 
     /tmp/cc7zL69r.s:550    .text:0000000000000364 .L0 
     /tmp/cc7zL69r.s:553    .text:000000000000036c .L0 
     /tmp/cc7zL69r.s:554    .text:0000000000000370 .L0 
     /tmp/cc7zL69r.s:555    .text:0000000000000370 .L0 
     /tmp/cc7zL69r.s:557    .text:0000000000000374 .L0 
     /tmp/cc7zL69r.s:558    .text:0000000000000374 .L0 
     /tmp/cc7zL69r.s:560    .text:0000000000000378 .L0 
     /tmp/cc7zL69r.s:562    .text:000000000000037c .L0 
     /tmp/cc7zL69r.s:566    .text:0000000000000380 .L0 
     /tmp/cc7zL69r.s:568    .text:0000000000000380 .L0 
     /tmp/cc7zL69r.s:569    .text:0000000000000380 .L0 
     /tmp/cc7zL69r.s:574    .text:000000000000038c .L0 
     /tmp/cc7zL69r.s:575    .text:000000000000038c .L0 
     /tmp/cc7zL69r.s:579    .text:0000000000000398 .L0 
     /tmp/cc7zL69r.s:580    .text:0000000000000398 .L0 
     /tmp/cc7zL69r.s:584    .text:00000000000003a8 .L0 
     /tmp/cc7zL69r.s:590    .text:00000000000003a8 _ZN8KConsole17outputBufferEmptyEv
     /tmp/cc7zL69r.s:593    .text:00000000000003a8 .L0 
     /tmp/cc7zL69r.s:594    .text:00000000000003a8 .L0 
     /tmp/cc7zL69r.s:595    .text:00000000000003ac .L0 
     /tmp/cc7zL69r.s:597    .text:00000000000003b0 .L0 
GAS LISTING /tmp/cc7zL69r.s 			page 27


     /tmp/cc7zL69r.s:599    .text:00000000000003b4 .L0 
     /tmp/cc7zL69r.s:601    .text:00000000000003b4 .L0 
     /tmp/cc7zL69r.s:602    .text:00000000000003b4 .L0 
     /tmp/cc7zL69r.s:605    .text:00000000000003c4 .L0 
     /tmp/cc7zL69r.s:606    .text:00000000000003c4 .L0 
     /tmp/cc7zL69r.s:608    .text:00000000000003c8 .L0 
     /tmp/cc7zL69r.s:610    .text:00000000000003cc .L0 
     /tmp/cc7zL69r.s:616    .text:00000000000003cc _ZN8KConsole23sendCharactersToConsoleEPv
     /tmp/cc7zL69r.s:619    .text:00000000000003cc .L0 
     /tmp/cc7zL69r.s:621    .text:00000000000003cc .L0 
     /tmp/cc7zL69r.s:622    .text:00000000000003d0 .L0 
     /tmp/cc7zL69r.s:625    .text:00000000000003d8 .L0 
     /tmp/cc7zL69r.s:626    .text:00000000000003d8 .L0 
     /tmp/cc7zL69r.s:628    .text:00000000000003dc .L0 
     /tmp/cc7zL69r.s:634    .text:00000000000003e0 .L0 
     /tmp/cc7zL69r.s:635    .text:00000000000003e0 .L0 
     /tmp/cc7zL69r.s:642    .text:00000000000003ec .L0 
     /tmp/cc7zL69r.s:643    .text:00000000000003ec .L0 
     /tmp/cc7zL69r.s:650    .text:00000000000003f4 .L0 
     /tmp/cc7zL69r.s:651    .text:00000000000003f4 .L0 
     /tmp/cc7zL69r.s:652    .text:00000000000003f4 .L0 
     /tmp/cc7zL69r.s:656    .text:0000000000000404 .L0 
     /tmp/cc7zL69r.s:659    .text:000000000000040c .L0 
     /tmp/cc7zL69r.s:661    .text:0000000000000410 .L0 
     /tmp/cc7zL69r.s:663    .text:0000000000000418 .L0 
     /tmp/cc7zL69r.s:666    .text:000000000000041c .L0 
     /tmp/cc7zL69r.s:667    .text:000000000000041c .L0 
     /tmp/cc7zL69r.s:673    .text:000000000000042c .L0 
     /tmp/cc7zL69r.s:677    .text:0000000000000434 .L0 
     /tmp/cc7zL69r.s:679    .text:000000000000043c .L0 
     /tmp/cc7zL69r.s:682    .text:0000000000000440 .L0 
     /tmp/cc7zL69r.s:683    .text:0000000000000440 .L0 
     /tmp/cc7zL69r.s:686    .text:0000000000000448 .L0 
     /tmp/cc7zL69r.s:688    .text:000000000000044c .L0 
     /tmp/cc7zL69r.s:689    .text:000000000000044c .L0 
     /tmp/cc7zL69r.s:694    .text:0000000000000460 .L0 
     /tmp/cc7zL69r.s:697    .text:000000000000046c .L0 
     /tmp/cc7zL69r.s:701    .text:0000000000000474 .L0 
     /tmp/cc7zL69r.s:704    .text:0000000000000478 .L0 
     /tmp/cc7zL69r.s:710    .text:0000000000000478 _ZN8KConsole14getCharHandlerEv
     /tmp/cc7zL69r.s:713    .text:0000000000000478 .L0 
     /tmp/cc7zL69r.s:714    .text:0000000000000478 .L0 
     /tmp/cc7zL69r.s:715    .text:000000000000047c .L0 
     /tmp/cc7zL69r.s:718    .text:0000000000000484 .L0 
     /tmp/cc7zL69r.s:719    .text:0000000000000484 .L0 
     /tmp/cc7zL69r.s:721    .text:0000000000000488 .L0 
     /tmp/cc7zL69r.s:723    .text:0000000000000488 .L0 
     /tmp/cc7zL69r.s:724    .text:0000000000000488 .L0 
     /tmp/cc7zL69r.s:725    .text:0000000000000488 .L0 
     /tmp/cc7zL69r.s:728    .text:0000000000000490 .L0 
    src/KConsole.cpp:137    .text:0000000000000490 .L0 
     /tmp/cc7zL69r.s:734    .text:0000000000000494 .L0 
     /tmp/cc7zL69r.s:736    .text:0000000000000494 .L0 
     /tmp/cc7zL69r.s:739    .text:000000000000049c .L0 
     /tmp/cc7zL69r.s:740    .text:00000000000004a0 .L0 
     /tmp/cc7zL69r.s:742    .text:00000000000004a4 .L0 
     /tmp/cc7zL69r.s:743    .text:00000000000004a4 .L0 
GAS LISTING /tmp/cc7zL69r.s 			page 28


     /tmp/cc7zL69r.s:745    .text:00000000000004a8 .L0 
     /tmp/cc7zL69r.s:747    .text:00000000000004ac .L0 
     /tmp/cc7zL69r.s:753    .text:00000000000004ac _ZN8KConsole15trapPrintStringEPKc
     /tmp/cc7zL69r.s:756    .text:00000000000004ac .L0 
     /tmp/cc7zL69r.s:758    .text:00000000000004ac .L0 
     /tmp/cc7zL69r.s:759    .text:00000000000004b0 .L0 
     /tmp/cc7zL69r.s:763    .text:00000000000004bc .L0 
     /tmp/cc7zL69r.s:764    .text:00000000000004bc .L0 
     /tmp/cc7zL69r.s:765    .text:00000000000004bc .L0 
     /tmp/cc7zL69r.s:767    .text:00000000000004c0 .L0 
     /tmp/cc7zL69r.s:772    .text:00000000000004c4 .L0 
     /tmp/cc7zL69r.s:773    .text:00000000000004c4 .L0 
     /tmp/cc7zL69r.s:774    .text:00000000000004c4 .L0 
     /tmp/cc7zL69r.s:776    .text:00000000000004c8 .L0 
     /tmp/cc7zL69r.s:778    .text:00000000000004cc .L0 
     /tmp/cc7zL69r.s:779    .text:00000000000004cc .L0 
     /tmp/cc7zL69r.s:782    .text:00000000000004d4 .L0 
     /tmp/cc7zL69r.s:783    .text:00000000000004d4 .L0 
     /tmp/cc7zL69r.s:786    .text:00000000000004d8 .L0 
     /tmp/cc7zL69r.s:789    .text:00000000000004dc .L0 
     /tmp/cc7zL69r.s:790    .text:00000000000004e0 .L0 
     /tmp/cc7zL69r.s:792    .text:00000000000004e4 .L0 
     /tmp/cc7zL69r.s:793    .text:00000000000004e4 .L0 
     /tmp/cc7zL69r.s:795    .text:00000000000004e8 .L0 
     /tmp/cc7zL69r.s:798    .text:00000000000004ec .L0 
     /tmp/cc7zL69r.s:800    .text:00000000000004f0 .L0 
     /tmp/cc7zL69r.s:811    .text:00000000000004f0 _ZN8KConsole12trapPrintIntEmii
     /tmp/cc7zL69r.s:814    .text:00000000000004f0 .L0 
     /tmp/cc7zL69r.s:816    .text:00000000000004f0 .L0 
     /tmp/cc7zL69r.s:817    .text:00000000000004f4 .L0 
     /tmp/cc7zL69r.s:821    .text:0000000000000500 .L0 
     /tmp/cc7zL69r.s:822    .text:0000000000000500 .L0 
     /tmp/cc7zL69r.s:823    .text:0000000000000500 .L0 
     /tmp/cc7zL69r.s:825    .text:0000000000000504 .L0 
     /tmp/cc7zL69r.s:827    .text:0000000000000504 .L0 
     /tmp/cc7zL69r.s:828    .text:0000000000000504 .L0 
     /tmp/cc7zL69r.s:836    .text:0000000000000524 .L0 
     /tmp/cc7zL69r.s:837    .text:0000000000000524 .L0 
     /tmp/cc7zL69r.s:838    .text:0000000000000524 .L0 
     /tmp/cc7zL69r.s:840    .text:0000000000000524 .L0 
     /tmp/cc7zL69r.s:841    .text:0000000000000524 .L0 
     /tmp/cc7zL69r.s:842    .text:0000000000000524 .L0 
     /tmp/cc7zL69r.s:843    .text:0000000000000524 .L0 
     /tmp/cc7zL69r.s:844    .text:0000000000000524 .L0 
     /tmp/cc7zL69r.s:848    .text:0000000000000528 .L0 
     /tmp/cc7zL69r.s:849    .text:0000000000000528 .L0 
     /tmp/cc7zL69r.s:850    .text:0000000000000528 .L0 
     /tmp/cc7zL69r.s:853    .text:000000000000052c .L0 
     /tmp/cc7zL69r.s:857    .text:0000000000000538 .L0 
     /tmp/cc7zL69r.s:862    .text:0000000000000544 .L0 
     /tmp/cc7zL69r.s:864    .text:0000000000000548 .L0 
     /tmp/cc7zL69r.s:867    .text:000000000000054c .L0 
     /tmp/cc7zL69r.s:871    .text:0000000000000550 .L0 
     /tmp/cc7zL69r.s:872    .text:0000000000000550 .L0 
     /tmp/cc7zL69r.s:876    .text:0000000000000558 .L0 
     /tmp/cc7zL69r.s:877    .text:0000000000000558 .L0 
     /tmp/cc7zL69r.s:885    .text:0000000000000570 .L0 
GAS LISTING /tmp/cc7zL69r.s 			page 29


     /tmp/cc7zL69r.s:886    .text:0000000000000574 .L0 
     /tmp/cc7zL69r.s:888    .text:0000000000000578 .L0 
     /tmp/cc7zL69r.s:889    .text:0000000000000578 .L0 
     /tmp/cc7zL69r.s:891    .text:000000000000057c .L0 
     /tmp/cc7zL69r.s:893    .text:0000000000000580 .L0 
     /tmp/cc7zL69r.s:895    .text:0000000000000584 .L0 
     /tmp/cc7zL69r.s:941    .bss:0000000000000038 _ZN8KConsole11pendingPutcE
     /tmp/cc7zL69r.s:929    .bss:0000000000000020 _ZN8KConsole11pendingGetcE
     /tmp/cc7zL69r.s:913    .bss:0000000000000000 _ZN8KConsole18hasCharactersInputE
     /tmp/cc7zL69r.s:917    .bss:0000000000000008 _ZN8KConsole19hasCharactersOutputE
     /tmp/cc7zL69r.s:933    .bss:0000000000000028 _ZN8KConsole10outputTailE
     /tmp/cc7zL69r.s:937    .bss:0000000000000030 _ZN8KConsole10outputHeadE
     /tmp/cc7zL69r.s:921    .bss:0000000000000010 _ZN8KConsole9inputTailE
     /tmp/cc7zL69r.s:925    .bss:0000000000000018 _ZN8KConsole9inputHeadE
     /tmp/cc7zL69r.s:910    .bss:0000000000000000 .LANCHOR0
     /tmp/cc7zL69r.s:959    .text:0000000000000584 .L0 
     /tmp/cc7zL69r.s:42     .text:0000000000000034 .L0 
     /tmp/cc7zL69r.s:57     .text:0000000000000058 .L0 
     /tmp/cc7zL69r.s:140    .text:00000000000000b0 .L0 
     /tmp/cc7zL69r.s:162    .text:00000000000000e4 .L0 
     /tmp/cc7zL69r.s:198    .text:0000000000000118 .L0 
     /tmp/cc7zL69r.s:210    .text:0000000000000130 .L0 
     /tmp/cc7zL69r.s:217    .text:0000000000000140 .L0 
     /tmp/cc7zL69r.s:242    .text:0000000000000164 .L0 
     /tmp/cc7zL69r.s:280    .text:0000000000000198 .L0 
     /tmp/cc7zL69r.s:292    .text:00000000000001b8 .L0 
     /tmp/cc7zL69r.s:304    .text:00000000000001d8 .L0 
     /tmp/cc7zL69r.s:338    .text:00000000000001fc .L0 
     /tmp/cc7zL69r.s:366    .text:0000000000000240 .L0 
     /tmp/cc7zL69r.s:412    .text:0000000000000288 .L0 
     /tmp/cc7zL69r.s:424    .text:00000000000002a8 .L0 
     /tmp/cc7zL69r.s:436    .text:00000000000002c8 .L0 
     /tmp/cc7zL69r.s:521    .text:0000000000000330 .L0 
     /tmp/cc7zL69r.s:602    .text:00000000000003b4 .L0 
     /tmp/cc7zL69r.s:652    .text:00000000000003f4 .L0 
     /tmp/cc7zL69r.s:661    .text:0000000000000410 .L0 
     /tmp/cc7zL69r.s:667    .text:000000000000041c .L0 
     /tmp/cc7zL69r.s:677    .text:0000000000000434 .L0 
     /tmp/cc7zL69r.s:689    .text:000000000000044c .L0 
     /tmp/cc7zL69r.s:694    .text:0000000000000460 .L0 
     /tmp/cc7zL69r.s:805    .rodata.str1.8:0000000000000000 .LC0
     /tmp/cc7zL69r.s:828    .text:0000000000000504 .L0 
     /tmp/cc7zL69r.s:184    .text:0000000000000114 .L11
     /tmp/cc7zL69r.s:221    .text:000000000000014c .L17
     /tmp/cc7zL69r.s:224    .text:0000000000000150 .L20
     /tmp/cc7zL69r.s:320    .text:00000000000001f4 .L23
     /tmp/cc7zL69r.s:307    .text:00000000000001e0 .L22
     /tmp/cc7zL69r.s:388    .text:0000000000000270 .L28
     /tmp/cc7zL69r.s:452    .text:00000000000002e4 .L33
     /tmp/cc7zL69r.s:439    .text:00000000000002d0 .L32
     /tmp/cc7zL69r.s:565    .text:0000000000000380 .L41
     /tmp/cc7zL69r.s:572    .text:000000000000038c .L42
     /tmp/cc7zL69r.s:536    .text:0000000000000358 .L38
     /tmp/cc7zL69r.s:540    .text:0000000000000360 .L39
     /tmp/cc7zL69r.s:645    .text:00000000000003f4 .L46
     /tmp/cc7zL69r.s:664    .text:000000000000041c .L47
     /tmp/cc7zL69r.s:631    .text:00000000000003e0 .L51
GAS LISTING /tmp/cc7zL69r.s 			page 30


     /tmp/cc7zL69r.s:639    .text:00000000000003ec .L48
     /tmp/cc7zL69r.s:787    .text:00000000000004dc .L54
     /tmp/cc7zL69r.s:770    .text:00000000000004c4 .L56
     /tmp/cc7zL69r.s:846    .text:0000000000000528 .L59
     /tmp/cc7zL69r.s:883    .text:0000000000000570 .L58
     /tmp/cc7zL69r.s:869    .text:0000000000000550 .L61
     /tmp/cc7zL69r.s:31     .text:000000000000001c .LEHB0
     /tmp/cc7zL69r.s:10     .text:0000000000000000 .LFB25
     /tmp/cc7zL69r.s:34     .text:0000000000000024 .LEHE0
     /tmp/cc7zL69r.s:37     .text:000000000000002c .LEHB1
     /tmp/cc7zL69r.s:40     .text:0000000000000034 .LEHE1
     /tmp/cc7zL69r.s:72     .text:0000000000000078 .L4
     /tmp/cc7zL69r.s:46     .text:0000000000000040 .LEHB2
     /tmp/cc7zL69r.s:49     .text:0000000000000048 .LEHE2
     /tmp/cc7zL69r.s:52     .text:0000000000000050 .LEHB3
     /tmp/cc7zL69r.s:55     .text:0000000000000058 .LEHE3
     /tmp/cc7zL69r.s:84     .text:0000000000000094 .L5
     /tmp/cc7zL69r.s:80     .text:000000000000008c .LEHB4
     /tmp/cc7zL69r.s:83     .text:0000000000000094 .LEHE4
     /tmp/cc7zL69r.s:91     .text:00000000000000a8 .LEHB5
     /tmp/cc7zL69r.s:94     .text:00000000000000b0 .LEHE5
     /tmp/cc7zL69r.s:2971   .debug_abbrev:0000000000000000 .Ldebug_abbrev0
     /tmp/cc7zL69r.s:4587   .debug_str:0000000000000f69 .LASF273
     /tmp/cc7zL69r.s:4595   .debug_str:000000000000105b .LASF274
     /tmp/cc7zL69r.s:4277   .debug_str:00000000000004e9 .LASF275
     /tmp/cc7zL69r.s:5      .text:0000000000000000 .Ltext0
     /tmp/cc7zL69r.s:952    .text:0000000000000584 .Letext0
     /tmp/cc7zL69r.s:4131   .debug_line:0000000000000000 .Ldebug_line0
     /tmp/cc7zL69r.s:4315   .debug_str:0000000000000637 .LASF0
     /tmp/cc7zL69r.s:4357   .debug_str:00000000000007c4 .LASF1
     /tmp/cc7zL69r.s:4489   .debug_str:0000000000000c53 .LASF2
     /tmp/cc7zL69r.s:4261   .debug_str:0000000000000475 .LASF3
     /tmp/cc7zL69r.s:4503   .debug_str:0000000000000cce .LASF4
     /tmp/cc7zL69r.s:4333   .debug_str:00000000000006bb .LASF5
     /tmp/cc7zL69r.s:4151   .debug_str:000000000000008e .LASF6
     /tmp/cc7zL69r.s:4447   .debug_str:0000000000000af6 .LASF7
     /tmp/cc7zL69r.s:4343   .debug_str:000000000000072d .LASF8
     /tmp/cc7zL69r.s:4275   .debug_str:00000000000004d9 .LASF9
     /tmp/cc7zL69r.s:4285   .debug_str:0000000000000543 .LASF10
     /tmp/cc7zL69r.s:4207   .debug_str:00000000000002ca .LASF11
     /tmp/cc7zL69r.s:4267   .debug_str:00000000000004a1 .LASF12
     /tmp/cc7zL69r.s:4221   .debug_str:000000000000030f .LASF13
     /tmp/cc7zL69r.s:4205   .debug_str:00000000000002ba .LASF14
     /tmp/cc7zL69r.s:4559   .debug_str:0000000000000ed6 .LASF15
     /tmp/cc7zL69r.s:4255   .debug_str:0000000000000431 .LASF16
     /tmp/cc7zL69r.s:4541   .debug_str:0000000000000e09 .LASF17
     /tmp/cc7zL69r.s:4579   .debug_str:0000000000000f42 .LASF276
     /tmp/cc7zL69r.s:4569   .debug_str:0000000000000f0f .LASF18
     /tmp/cc7zL69r.s:4527   .debug_str:0000000000000d96 .LASF19
     /tmp/cc7zL69r.s:4215   .debug_str:00000000000002f5 .LASF20
     /tmp/cc7zL69r.s:4187   .debug_str:00000000000001e8 .LASF21
     /tmp/cc7zL69r.s:4451   .debug_str:0000000000000b1f .LASF22
     /tmp/cc7zL69r.s:4213   .debug_str:00000000000002ec .LASF23
     /tmp/cc7zL69r.s:4565   .debug_str:0000000000000efc .LASF91
     /tmp/cc7zL69r.s:4301   .debug_str:00000000000005ea .LASF24
     /tmp/cc7zL69r.s:4155   .debug_str:00000000000000a0 .LASF30
     /tmp/cc7zL69r.s:4605   .debug_str:00000000000010ac .LASF277
GAS LISTING /tmp/cc7zL69r.s 			page 31


     /tmp/cc7zL69r.s:4437   .debug_str:0000000000000aa6 .LASF25
     /tmp/cc7zL69r.s:4355   .debug_str:00000000000007bf .LASF26
     /tmp/cc7zL69r.s:4677   .debug_str:0000000000001323 .LASF28
     /tmp/cc7zL69r.s:4671   .debug_str:00000000000012f6 .LASF27
     /tmp/cc7zL69r.s:4589   .debug_str:000000000000102d .LASF29
     /tmp/cc7zL69r.s:4239   .debug_str:00000000000003cd .LASF53
     /tmp/cc7zL69r.s:4163   .debug_str:00000000000000ef .LASF55
     /tmp/cc7zL69r.s:4585   .debug_str:0000000000000f61 .LASF31
     /tmp/cc7zL69r.s:4517   .debug_str:0000000000000d35 .LASF32
     /tmp/cc7zL69r.s:4365   .debug_str:0000000000000806 .LASF35
     /tmp/cc7zL69r.s:4373   .debug_str:0000000000000865 .LASF37
     /tmp/cc7zL69r.s:4685   .debug_str:0000000000001380 .LASF33
     /tmp/cc7zL69r.s:4259   .debug_str:0000000000000469 .LASF34
     /tmp/cc7zL69r.s:4143   .debug_str:0000000000000059 .LASF79
     /tmp/cc7zL69r.s:4327   .debug_str:000000000000068f .LASF81
     /tmp/cc7zL69r.s:4519   .debug_str:0000000000000d46 .LASF36
     /tmp/cc7zL69r.s:4411   .debug_str:00000000000009ad .LASF38
     /tmp/cc7zL69r.s:4499   .debug_str:0000000000000c9f .LASF39
     /tmp/cc7zL69r.s:4553   .debug_str:0000000000000e91 .LASF40
     /tmp/cc7zL69r.s:4413   .debug_str:00000000000009c0 .LASF41
     /tmp/cc7zL69r.s:4137   .debug_str:000000000000001b .LASF42
     /tmp/cc7zL69r.s:4657   .debug_str:0000000000001278 .LASF43
     /tmp/cc7zL69r.s:4445   .debug_str:0000000000000adc .LASF44
     /tmp/cc7zL69r.s:4539   .debug_str:0000000000000dfb .LASF45
     /tmp/cc7zL69r.s:4459   .debug_str:0000000000000b52 .LASF46
     /tmp/cc7zL69r.s:4235   .debug_str:00000000000003ab .LASF47
     /tmp/cc7zL69r.s:4269   .debug_str:00000000000004b0 .LASF48
     /tmp/cc7zL69r.s:4479   .debug_str:0000000000000bfc .LASF49
     /tmp/cc7zL69r.s:4383   .debug_str:00000000000008cc .LASF50
     /tmp/cc7zL69r.s:4663   .debug_str:00000000000012ac .LASF51
     /tmp/cc7zL69r.s:4335   .debug_str:00000000000006cd .LASF52
     /tmp/cc7zL69r.s:4533   .debug_str:0000000000000dd7 .LASF54
     /tmp/cc7zL69r.s:4675   .debug_str:000000000000130d .LASF56
     /tmp/cc7zL69r.s:4567   .debug_str:0000000000000f04 .LASF57
     /tmp/cc7zL69r.s:4231   .debug_str:000000000000038f .LASF58
     /tmp/cc7zL69r.s:4513   .debug_str:0000000000000d1f .LASF59
     /tmp/cc7zL69r.s:4317   .debug_str:0000000000000644 .LASF60
     /tmp/cc7zL69r.s:4423   .debug_str:0000000000000a07 .LASF61
     /tmp/cc7zL69r.s:4227   .debug_str:000000000000035e .LASF62
     /tmp/cc7zL69r.s:4465   .debug_str:0000000000000b88 .LASF63
     /tmp/cc7zL69r.s:4691   .debug_str:00000000000013b2 .LASF64
     /tmp/cc7zL69r.s:4427   .debug_str:0000000000000a2d .LASF65
     /tmp/cc7zL69r.s:4497   .debug_str:0000000000000c8c .LASF66
     /tmp/cc7zL69r.s:4521   .debug_str:0000000000000d4f .LASF67
     /tmp/cc7zL69r.s:4621   .debug_str:0000000000001130 .LASF68
     /tmp/cc7zL69r.s:4395   .debug_str:0000000000000928 .LASF69
     /tmp/cc7zL69r.s:4607   .debug_str:00000000000010c4 .LASF70
     /tmp/cc7zL69r.s:4551   .debug_str:0000000000000e71 .LASF71
     /tmp/cc7zL69r.s:4441   .debug_str:0000000000000ab5 .LASF72
     /tmp/cc7zL69r.s:4429   .debug_str:0000000000000a4e .LASF73
     /tmp/cc7zL69r.s:4245   .debug_str:00000000000003e1 .LASF74
     /tmp/cc7zL69r.s:4319   .debug_str:0000000000000658 .LASF75
     /tmp/cc7zL69r.s:4399   .debug_str:0000000000000965 .LASF76
     /tmp/cc7zL69r.s:4593   .debug_str:0000000000001051 .LASF77
     /tmp/cc7zL69r.s:4271   .debug_str:00000000000004c0 .LASF78
     /tmp/cc7zL69r.s:4669   .debug_str:00000000000012e8 .LASF80
     /tmp/cc7zL69r.s:4169   .debug_str:0000000000000139 .LASF82
GAS LISTING /tmp/cc7zL69r.s 			page 32


     /tmp/cc7zL69r.s:4263   .debug_str:000000000000047b .LASF83
     /tmp/cc7zL69r.s:4197   .debug_str:0000000000000256 .LASF84
     /tmp/cc7zL69r.s:4655   .debug_str:0000000000001271 .LASF85
     /tmp/cc7zL69r.s:4193   .debug_str:0000000000000237 .LASF86
     /tmp/cc7zL69r.s:4141   .debug_str:0000000000000054 .LASF87
     /tmp/cc7zL69r.s:4617   .debug_str:000000000000111f .LASF88
     /tmp/cc7zL69r.s:4381   .debug_str:00000000000008c4 .LASF89
     /tmp/cc7zL69r.s:4243   .debug_str:00000000000003db .LASF90
     /tmp/cc7zL69r.s:4603   .debug_str:00000000000010a4 .LASF92
     /tmp/cc7zL69r.s:4179   .debug_str:00000000000001ae .LASF93
     /tmp/cc7zL69r.s:4387   .debug_str:00000000000008e7 .LASF94
     /tmp/cc7zL69r.s:4473   .debug_str:0000000000000be0 .LASF95
     /tmp/cc7zL69r.s:4281   .debug_str:0000000000000513 .LASF96
     /tmp/cc7zL69r.s:4491   .debug_str:0000000000000c61 .LASF97
     /tmp/cc7zL69r.s:4471   .debug_str:0000000000000bcc .LASF98
     /tmp/cc7zL69r.s:4241   .debug_str:00000000000003d6 .LASF99
     /tmp/cc7zL69r.s:4531   .debug_str:0000000000000dc0 .LASF100
     /tmp/cc7zL69r.s:4563   .debug_str:0000000000000ef5 .LASF101
     /tmp/cc7zL69r.s:4419   .debug_str:00000000000009e5 .LASF102
     /tmp/cc7zL69r.s:4135   .debug_str:000000000000000f .LASF103
     /tmp/cc7zL69r.s:4495   .debug_str:0000000000000c80 .LASF104
     /tmp/cc7zL69r.s:4389   .debug_str:00000000000008ec .LASF105
     /tmp/cc7zL69r.s:4483   .debug_str:0000000000000c1b .LASF106
     /tmp/cc7zL69r.s:4209   .debug_str:00000000000002d9 .LASF107
     /tmp/cc7zL69r.s:4217   .debug_str:00000000000002ff .LASF108
     /tmp/cc7zL69r.s:4417   .debug_str:00000000000009dc .LASF109
     /tmp/cc7zL69r.s:4573   .debug_str:0000000000000f1a .LASF110
     /tmp/cc7zL69r.s:4133   .debug_str:0000000000000000 .LASF111
     /tmp/cc7zL69r.s:4295   .debug_str:000000000000059f .LASF112
     /tmp/cc7zL69r.s:4601   .debug_str:0000000000001095 .LASF113
     /tmp/cc7zL69r.s:4557   .debug_str:0000000000000eb4 .LASF114
     /tmp/cc7zL69r.s:4523   .debug_str:0000000000000d6d .LASF115
     /tmp/cc7zL69r.s:4225   .debug_str:000000000000033a .LASF116
     /tmp/cc7zL69r.s:4435   .debug_str:0000000000000a96 .LASF117
     /tmp/cc7zL69r.s:4463   .debug_str:0000000000000b65 .LASF118
     /tmp/cc7zL69r.s:4313   .debug_str:0000000000000631 .LASF119
     /tmp/cc7zL69r.s:4687   .debug_str:000000000000138d .LASF120
     /tmp/cc7zL69r.s:4145   .debug_str:0000000000000069 .LASF121
     /tmp/cc7zL69r.s:4379   .debug_str:00000000000008aa .LASF122
     /tmp/cc7zL69r.s:4683   .debug_str:0000000000001370 .LASF123
     /tmp/cc7zL69r.s:4505   .debug_str:0000000000000cd5 .LASF124
     /tmp/cc7zL69r.s:4561   .debug_str:0000000000000ee2 .LASF125
     /tmp/cc7zL69r.s:4501   .debug_str:0000000000000ca8 .LASF126
     /tmp/cc7zL69r.s:4689   .debug_str:00000000000013a5 .LASF127
     /tmp/cc7zL69r.s:4353   .debug_str:000000000000079b .LASF128
     /tmp/cc7zL69r.s:4421   .debug_str:00000000000009fe .LASF129
     /tmp/cc7zL69r.s:4177   .debug_str:000000000000019e .LASF130
     /tmp/cc7zL69r.s:4597   .debug_str:000000000000106c .LASF131
     /tmp/cc7zL69r.s:4507   .debug_str:0000000000000cf8 .LASF132
     /tmp/cc7zL69r.s:4139   .debug_str:0000000000000035 .LASF133
     /tmp/cc7zL69r.s:4443   .debug_str:0000000000000ac9 .LASF134
     /tmp/cc7zL69r.s:4299   .debug_str:00000000000005d6 .LASF135
     /tmp/cc7zL69r.s:4439   .debug_str:0000000000000aab .LASF136
     /tmp/cc7zL69r.s:4359   .debug_str:00000000000007d7 .LASF137
     /tmp/cc7zL69r.s:4457   .debug_str:0000000000000b48 .LASF138
     /tmp/cc7zL69r.s:4623   .debug_str:0000000000001143 .LASF139
     /tmp/cc7zL69r.s:4577   .debug_str:0000000000000f37 .LASF140
GAS LISTING /tmp/cc7zL69r.s 			page 33


     /tmp/cc7zL69r.s:4619   .debug_str:0000000000001124 .LASF141
     /tmp/cc7zL69r.s:4635   .debug_str:00000000000011b8 .LASF142
     /tmp/cc7zL69r.s:4401   .debug_str:000000000000096d .LASF143
     /tmp/cc7zL69r.s:4455   .debug_str:0000000000000b3c .LASF144
     /tmp/cc7zL69r.s:4535   .debug_str:0000000000000de2 .LASF147
     /tmp/cc7zL69r.s:4529   .debug_str:0000000000000d9e .LASF149
     /tmp/cc7zL69r.s:4613   .debug_str:00000000000010fa .LASF145
     /tmp/cc7zL69r.s:4653   .debug_str:000000000000124f .LASF146
     /tmp/cc7zL69r.s:4611   .debug_str:00000000000010e8 .LASF148
     /tmp/cc7zL69r.s:4157   .debug_str:00000000000000ab .LASF150
     /tmp/cc7zL69r.s:4615   .debug_str:000000000000110c .LASF151
     /tmp/cc7zL69r.s:4191   .debug_str:0000000000000214 .LASF152
     /tmp/cc7zL69r.s:4253   .debug_str:000000000000041e .LASF153
     /tmp/cc7zL69r.s:4189   .debug_str:00000000000001f1 .LASF154
     /tmp/cc7zL69r.s:4165   .debug_str:0000000000000102 .LASF155
     /tmp/cc7zL69r.s:4631   .debug_str:000000000000118b .LASF156
     /tmp/cc7zL69r.s:4397   .debug_str:0000000000000946 .LASF157
     /tmp/cc7zL69r.s:4651   .debug_str:0000000000001236 .LASF158
     /tmp/cc7zL69r.s:4337   .debug_str:00000000000006da .LASF159
     /tmp/cc7zL69r.s:4367   .debug_str:0000000000000813 .LASF160
     /tmp/cc7zL69r.s:4679   .debug_str:000000000000132f .LASF161
     /tmp/cc7zL69r.s:4265   .debug_str:0000000000000490 .LASF162
     /tmp/cc7zL69r.s:4643   .debug_str:00000000000011e7 .LASF163
     /tmp/cc7zL69r.s:4273   .debug_str:00000000000004cc .LASF164
     /tmp/cc7zL69r.s:4665   .debug_str:00000000000012b7 .LASF165
     /tmp/cc7zL69r.s:4293   .debug_str:000000000000058e .LASF166
     /tmp/cc7zL69r.s:4161   .debug_str:00000000000000e3 .LASF167
     /tmp/cc7zL69r.s:4369   .debug_str:000000000000082b .LASF168
     /tmp/cc7zL69r.s:4385   .debug_str:00000000000008db .LASF169
     /tmp/cc7zL69r.s:4167   .debug_str:000000000000011d .LASF170
     /tmp/cc7zL69r.s:4571   .debug_str:0000000000000f15 .LASF171
     /tmp/cc7zL69r.s:4639   .debug_str:00000000000011d7 .LASF172
     /tmp/cc7zL69r.s:4309   .debug_str:000000000000060e .LASF173
     /tmp/cc7zL69r.s:4549   .debug_str:0000000000000e59 .LASF174
     /tmp/cc7zL69r.s:4625   .debug_str:000000000000114e .LASF175
     /tmp/cc7zL69r.s:4661   .debug_str:000000000000129d .LASF176
     /tmp/cc7zL69r.s:4629   .debug_str:000000000000116f .LASF177
     /tmp/cc7zL69r.s:4175   .debug_str:0000000000000193 .LASF178
     /tmp/cc7zL69r.s:4391   .debug_str:0000000000000900 .LASF179
     /tmp/cc7zL69r.s:4251   .debug_str:0000000000000414 .LASF180
     /tmp/cc7zL69r.s:4449   .debug_str:0000000000000b09 .LASF181
     /tmp/cc7zL69r.s:4393   .debug_str:0000000000000918 .LASF182
     /tmp/cc7zL69r.s:4633   .debug_str:000000000000119a .LASF183
     /tmp/cc7zL69r.s:4201   .debug_str:0000000000000296 .LASF184
     /tmp/cc7zL69r.s:4371   .debug_str:0000000000000847 .LASF185
     /tmp/cc7zL69r.s:4247   .debug_str:00000000000003ea .LASF186
     /tmp/cc7zL69r.s:4667   .debug_str:00000000000012c4 .LASF187
     /tmp/cc7zL69r.s:4325   .debug_str:000000000000067d .LASF188
     /tmp/cc7zL69r.s:4229   .debug_str:0000000000000370 .LASF189
     /tmp/cc7zL69r.s:4515   .debug_str:0000000000000d27 .LASF190
     /tmp/cc7zL69r.s:4223   .debug_str:000000000000031f .LASF191
     /tmp/cc7zL69r.s:4415   .debug_str:00000000000009cf .LASF192
     /tmp/cc7zL69r.s:4645   .debug_str:00000000000011f9 .LASF193
     /tmp/cc7zL69r.s:4361   .debug_str:00000000000007e2 .LASF194
     /tmp/cc7zL69r.s:4149   .debug_str:0000000000000079 .LASF195
     /tmp/cc7zL69r.s:4347   .debug_str:000000000000075c .LASF196
     /tmp/cc7zL69r.s:4433   .debug_str:0000000000000a81 .LASF197
GAS LISTING /tmp/cc7zL69r.s 			page 34


     /tmp/cc7zL69r.s:4461   .debug_str:0000000000000b5e .LASF198
     /tmp/cc7zL69r.s:4467   .debug_str:0000000000000ba5 .LASF199
     /tmp/cc7zL69r.s:4425   .debug_str:0000000000000a26 .LASF200
     /tmp/cc7zL69r.s:4493   .debug_str:0000000000000c6d .LASF201
     /tmp/cc7zL69r.s:4647   .debug_str:0000000000001213 .LASF202
     /tmp/cc7zL69r.s:4591   .debug_str:000000000000103d .LASF203
     /tmp/cc7zL69r.s:4341   .debug_str:0000000000000725 .LASF204
     /tmp/cc7zL69r.s:4431   .debug_str:0000000000000a6d .LASF205
     /tmp/cc7zL69r.s:4405   .debug_str:000000000000098e .LASF206
     /tmp/cc7zL69r.s:4469   .debug_str:0000000000000bb8 .LASF207
     /tmp/cc7zL69r.s:4545   .debug_str:0000000000000e37 .LASF208
     /tmp/cc7zL69r.s:4323   .debug_str:0000000000000669 .LASF209
     /tmp/cc7zL69r.s:4305   .debug_str:00000000000005fb .LASF210
     /tmp/cc7zL69r.s:4555   .debug_str:0000000000000ead .LASF211
     /tmp/cc7zL69r.s:4509   .debug_str:0000000000000d05 .LASF212
     /tmp/cc7zL69r.s:4511   .debug_str:0000000000000d18 .LASF213
     /tmp/cc7zL69r.s:4249   .debug_str:0000000000000401 .LASF214
     /tmp/cc7zL69r.s:4219   .debug_str:0000000000000309 .LASF215
     /tmp/cc7zL69r.s:4575   .debug_str:0000000000000f25 .LASF216
     /tmp/cc7zL69r.s:4321   .debug_str:0000000000000663 .LASF217
     /tmp/cc7zL69r.s:4237   .debug_str:00000000000003bb .LASF218
     /tmp/cc7zL69r.s:4195   .debug_str:0000000000000248 .LASF219
     /tmp/cc7zL69r.s:4649   .debug_str:000000000000121b .LASF220
     /tmp/cc7zL69r.s:4153   .debug_str:0000000000000095 .LASF221
     /tmp/cc7zL69r.s:4543   .debug_str:0000000000000e1f .LASF222
     /tmp/cc7zL69r.s:4487   .debug_str:0000000000000c48 .LASF223
     /tmp/cc7zL69r.s:4681   .debug_str:0000000000001358 .LASF224
     /tmp/cc7zL69r.s:4289   .debug_str:0000000000000564 .LASF225
     /tmp/cc7zL69r.s:4203   .debug_str:00000000000002a7 .LASF226
     /tmp/cc7zL69r.s:4537   .debug_str:0000000000000df4 .LASF227
     /tmp/cc7zL69r.s:4375   .debug_str:000000000000087d .LASF228
     /tmp/cc7zL69r.s:4641   .debug_str:00000000000011dd .LASF229
     /tmp/cc7zL69r.s:4659   .debug_str:0000000000001287 .LASF230
     /tmp/cc7zL69r.s:4211   .debug_str:00000000000002e2 .LASF231
     /tmp/cc7zL69r.s:4159   .debug_str:00000000000000cd .LASF232
     /tmp/cc7zL69r.s:4233   .debug_str:00000000000003a5 .LASF233
     /tmp/cc7zL69r.s:4481   .debug_str:0000000000000c09 .LASF234
     /tmp/cc7zL69r.s:4307   .debug_str:0000000000000608 .LASF235
     /tmp/cc7zL69r.s:4637   .debug_str:00000000000011c5 .LASF236
     /tmp/cc7zL69r.s:4303   .debug_str:00000000000005f0 .LASF237
     /tmp/cc7zL69r.s:4311   .debug_str:0000000000000619 .LASF238
     /tmp/cc7zL69r.s:4609   .debug_str:00000000000010d9 .LASF239
     /tmp/cc7zL69r.s:4283   .debug_str:0000000000000527 .LASF240
     /tmp/cc7zL69r.s:4453   .debug_str:0000000000000b27 .LASF241
     /tmp/cc7zL69r.s:4339   .debug_str:0000000000000703 .LASF242
     /tmp/cc7zL69r.s:4475   .debug_str:0000000000000beb .LASF243
     /tmp/cc7zL69r.s:4147   .debug_str:0000000000000071 .LASF244
     /tmp/cc7zL69r.s:4181   .debug_str:00000000000001bf .LASF245
     /tmp/cc7zL69r.s:4279   .debug_str:0000000000000507 .LASF246
     /tmp/cc7zL69r.s:4183   .debug_str:00000000000001ce .LASF247
     /tmp/cc7zL69r.s:4409   .debug_str:000000000000099b .LASF248
     /tmp/cc7zL69r.s:4287   .debug_str:0000000000000551 .LASF249
     /tmp/cc7zL69r.s:4331   .debug_str:00000000000006a8 .LASF250
     /tmp/cc7zL69r.s:4199   .debug_str:0000000000000282 .LASF251
     /tmp/cc7zL69r.s:4583   .debug_str:0000000000000f57 .LASF252
     /tmp/cc7zL69r.s:4525   .debug_str:0000000000000d7e .LASF253
     /tmp/cc7zL69r.s:4485   .debug_str:0000000000000c30 .LASF254
GAS LISTING /tmp/cc7zL69r.s 			page 35


     /tmp/cc7zL69r.s:4173   .debug_str:0000000000000179 .LASF255
     /tmp/cc7zL69r.s:4547   .debug_str:0000000000000e3f .LASF256
     /tmp/cc7zL69r.s:4291   .debug_str:000000000000056b .LASF257
     /tmp/cc7zL69r.s:4257   .debug_str:0000000000000447 .LASF258
     /tmp/cc7zL69r.s:4349   .debug_str:0000000000000765 .LASF259
     /tmp/cc7zL69r.s:4351   .debug_str:0000000000000780 .LASF260
     /tmp/cc7zL69r.s:4345   .debug_str:0000000000000740 .LASF261
     /tmp/cc7zL69r.s:4363   .debug_str:00000000000007eb .LASF262
     /tmp/cc7zL69r.s:812    .text:00000000000004f0 .LFB37
     /tmp/cc7zL69r.s:896    .text:0000000000000584 .LFE37
     /tmp/cc7zL69r.s:3888   .debug_loc:0000000000000000 .LLST12
     /tmp/cc7zL69r.s:4407   .debug_str:0000000000000996 .LASF263
     /tmp/cc7zL69r.s:3902   .debug_loc:0000000000000039 .LLST13
     /tmp/cc7zL69r.s:3916   .debug_loc:0000000000000072 .LLST14
     /tmp/cc7zL69r.s:4599   .debug_str:000000000000108e .LASF264
     /tmp/cc7zL69r.s:3930   .debug_loc:00000000000000ab .LLST15
     /tmp/cc7zL69r.s:3952   .debug_loc:000000000000010a .LLST16
     /tmp/cc7zL69r.s:881    .text:000000000000056c .LVL64
     /tmp/cc7zL69r.s:754    .text:00000000000004ac .LFB36
     /tmp/cc7zL69r.s:801    .text:00000000000004f0 .LFE36
     /tmp/cc7zL69r.s:4185   .debug_str:00000000000001e1 .LASF265
     /tmp/cc7zL69r.s:3959   .debug_loc:000000000000012d .LLST11
     /tmp/cc7zL69r.s:780    .text:00000000000004d4 .LVL53
     /tmp/cc7zL69r.s:711    .text:0000000000000478 .LFB35
     /tmp/cc7zL69r.s:748    .text:00000000000004ac .LFE35
     /tmp/cc7zL69r.s:3970   .debug_loc:0000000000000163 .LLST10
     /tmp/cc7zL69r.s:726    .text:0000000000000490 .LVL49
     /tmp/cc7zL69r.s:737    .text:000000000000049c .LVL50
     /tmp/cc7zL69r.s:591    .text:00000000000003a8 .LFB34
     /tmp/cc7zL69r.s:611    .text:00000000000003cc .LFE34
     /tmp/cc7zL69r.s:506    .text:000000000000031c .LFB33
     /tmp/cc7zL69r.s:585    .text:00000000000003a8 .LFE33
     /tmp/cc7zL69r.s:3977   .debug_loc:0000000000000186 .LLST7
     /tmp/cc7zL69r.s:529    .text:000000000000034c .LVL32
     /tmp/cc7zL69r.s:551    .text:000000000000036c .LVL35
     /tmp/cc7zL69r.s:570    .text:0000000000000388 .LVL37
     /tmp/cc7zL69r.s:577    .text:0000000000000398 .LVL38
     /tmp/cc7zL69r.s:582    .text:00000000000003a4 .LVL39
     /tmp/cc7zL69r.s:464    .text:00000000000002ec .LFB32
     /tmp/cc7zL69r.s:500    .text:000000000000031c .LFE32
     /tmp/cc7zL69r.s:3988   .debug_loc:00000000000001bc .LLST6
     /tmp/cc7zL69r.s:489    .text:000000000000030c .LVL31
     /tmp/cc7zL69r.s:397    .text:0000000000000274 .LFB31
     /tmp/cc7zL69r.s:458    .text:00000000000002ec .LFE31
     /tmp/cc7zL69r.s:3995   .debug_loc:00000000000001df .LLST5
     /tmp/cc7zL69r.s:415    .text:000000000000029c .LVL26
     /tmp/cc7zL69r.s:332    .text:00000000000001fc .LFB30
     /tmp/cc7zL69r.s:391    .text:0000000000000274 .LFE30
     /tmp/cc7zL69r.s:4002   .debug_loc:0000000000000202 .LLST4
     /tmp/cc7zL69r.s:377    .text:0000000000000260 .LVL24
     /tmp/cc7zL69r.s:265    .text:0000000000000184 .LFB29
     /tmp/cc7zL69r.s:326    .text:00000000000001fc .LFE29
     /tmp/cc7zL69r.s:4025   .debug_loc:0000000000000262 .LLST3
     /tmp/cc7zL69r.s:283    .text:00000000000001ac .LVL19
     /tmp/cc7zL69r.s:134    .text:00000000000000b0 .LFB28
     /tmp/cc7zL69r.s:187    .text:0000000000000118 .LFE28
     /tmp/cc7zL69r.s:4032   .debug_loc:0000000000000285 .LLST0
GAS LISTING /tmp/cc7zL69r.s 			page 36


     /tmp/cc7zL69r.s:173    .text:0000000000000104 .LVL10
     /tmp/cc7zL69r.s:617    .text:00000000000003cc .LFB27
     /tmp/cc7zL69r.s:705    .text:0000000000000478 .LFE27
     /tmp/cc7zL69r.s:4055   .debug_loc:00000000000002e5 .LLST8
     /tmp/cc7zL69r.s:4117   .debug_ranges:0000000000000000 .Ldebug_ranges0
     /tmp/cc7zL69r.s:4477   .debug_str:0000000000000bf2 .LASF266
     /tmp/cc7zL69r.s:4069   .debug_loc:000000000000031e .LLST9
     /tmp/cc7zL69r.s:680    .text:0000000000000440 .LBB8
     /tmp/cc7zL69r.s:699    .text:0000000000000474 .LBE8
     /tmp/cc7zL69r.s:684    .text:0000000000000448 .LVL48
     /tmp/cc7zL69r.s:636    .text:00000000000003e8 .LVL42
     /tmp/cc7zL69r.s:644    .text:00000000000003f4 .LVL44
     /tmp/cc7zL69r.s:657    .text:000000000000040c .LVL45
     /tmp/cc7zL69r.s:193    .text:0000000000000118 .LFB26
     /tmp/cc7zL69r.s:259    .text:0000000000000184 .LFE26
     /tmp/cc7zL69r.s:4081   .debug_loc:0000000000000346 .LLST1
     /tmp/cc7zL69r.s:4093   .debug_loc:000000000000036e .LLST2
     /tmp/cc7zL69r.s:246    .text:0000000000000174 .LVL18
     /tmp/cc7zL69r.s:96     .text:00000000000000b0 .LFE25
     /tmp/cc7zL69r.s:33     .text:0000000000000024 .LVL0
     /tmp/cc7zL69r.s:39     .text:0000000000000034 .LVL1
     /tmp/cc7zL69r.s:48     .text:0000000000000048 .LVL2
     /tmp/cc7zL69r.s:54     .text:0000000000000058 .LVL3
     /tmp/cc7zL69r.s:78     .text:0000000000000088 .LVL4
     /tmp/cc7zL69r.s:82     .text:0000000000000094 .LVL5
     /tmp/cc7zL69r.s:89     .text:00000000000000a4 .LVL6
     /tmp/cc7zL69r.s:93     .text:00000000000000b0 .LVL7
     /tmp/cc7zL69r.s:4377   .debug_str:0000000000000890 .LASF267
     /tmp/cc7zL69r.s:4297   .debug_str:00000000000005c1 .LASF269
     /tmp/cc7zL69r.s:4673   .debug_str:00000000000012fc .LASF268
     /tmp/cc7zL69r.s:4329   .debug_str:000000000000069c .LASF270
     /tmp/cc7zL69r.s:4403   .debug_str:0000000000000979 .LASF271
     /tmp/cc7zL69r.s:4627   .debug_str:000000000000115f .LASF272
     /tmp/cc7zL69r.s:4581   .debug_str:0000000000000f48 .LASF278
     /tmp/cc7zL69r.s:4171   .debug_str:0000000000000161 .LASF279
     /tmp/cc7zL69r.s:815    .text:00000000000004f0 .LVL56
     /tmp/cc7zL69r.s:845    .text:0000000000000528 .LVL58
     /tmp/cc7zL69r.s:868    .text:0000000000000550 .LVL62
     /tmp/cc7zL69r.s:839    .text:0000000000000524 .LVL57
     /tmp/cc7zL69r.s:851    .text:000000000000052c .LVL59
     /tmp/cc7zL69r.s:859    .text:0000000000000540 .LVL60
     /tmp/cc7zL69r.s:873    .text:0000000000000554 .LVL63
     /tmp/cc7zL69r.s:757    .text:00000000000004ac .LVL51
     /tmp/cc7zL69r.s:769    .text:00000000000004c4 .LVL52
     /tmp/cc7zL69r.s:796    .text:00000000000004e8 .LVL55
     /tmp/cc7zL69r.s:531    .text:0000000000000350 .LVL33
     /tmp/cc7zL69r.s:535    .text:0000000000000358 .LVL34
     /tmp/cc7zL69r.s:564    .text:0000000000000380 .LVL36
     /tmp/cc7zL69r.s:482    .text:0000000000000300 .LVL29
     /tmp/cc7zL69r.s:487    .text:0000000000000304 .LVL30
     /tmp/cc7zL69r.s:427    .text:00000000000002b8 .LVL27
     /tmp/cc7zL69r.s:438    .text:00000000000002d0 .LVL28
     /tmp/cc7zL69r.s:335    .text:00000000000001fc .LVL22
     /tmp/cc7zL69r.s:375    .text:0000000000000258 .LVL23
     /tmp/cc7zL69r.s:387    .text:0000000000000270 .LVL25
     /tmp/cc7zL69r.s:295    .text:00000000000001c8 .LVL20
     /tmp/cc7zL69r.s:306    .text:00000000000001e0 .LVL21
GAS LISTING /tmp/cc7zL69r.s 			page 37


     /tmp/cc7zL69r.s:137    .text:00000000000000b0 .LVL8
     /tmp/cc7zL69r.s:171    .text:00000000000000fc .LVL9
     /tmp/cc7zL69r.s:183    .text:0000000000000114 .LVL11
     /tmp/cc7zL69r.s:620    .text:00000000000003cc .LVL40
     /tmp/cc7zL69r.s:630    .text:00000000000003e0 .LVL41
     /tmp/cc7zL69r.s:670    .text:000000000000042c .LVL46
     /tmp/cc7zL69r.s:674    .text:0000000000000430 .LVL47
     /tmp/cc7zL69r.s:201    .text:0000000000000128 .LVL12
     /tmp/cc7zL69r.s:205    .text:000000000000012c .LVL13
     /tmp/cc7zL69r.s:214    .text:0000000000000140 .LVL14
     /tmp/cc7zL69r.s:220    .text:000000000000014c .LVL15
     /tmp/cc7zL69r.s:223    .text:0000000000000150 .LVL16
     /tmp/cc7zL69r.s:960    .debug_info:0000000000000000 .Ldebug_info0
     /tmp/cc7zL69r.s:207    .text:0000000000000130 .LBB3
     /tmp/cc7zL69r.s:225    .text:0000000000000150 .LBE3
     /tmp/cc7zL69r.s:238    .text:0000000000000160 .LBB4
     /tmp/cc7zL69r.s:247    .text:0000000000000174 .LBE4
     /tmp/cc7zL69r.s:632    .text:00000000000003e0 .LBB6
     /tmp/cc7zL69r.s:647    .text:00000000000003f4 .LBE6
     /tmp/cc7zL69r.s:649    .text:00000000000003f4 .LBB10
     /tmp/cc7zL69r.s:703    .text:0000000000000478 .LBE10
     /tmp/cc7zL69r.s:99     .gcc_except_table:0000000000000000 .LLSDA25

UNDEFINED SYMBOLS
_ZN10KSemaphorenwEm
_ZN10KSemaphoreC1Ei
_ZN10KSemaphoredlEPv
_Unwind_Resume
__gxx_personality_v0
_ZN10KSemaphore6signalEv
CONSOLE_STATUS
CONSOLE_TX_DATA
_ZN10KSemaphore4waitEv
_ZN5Riscv13w_a0_sscratchEv
_Z11thread_exitv
_Z15thread_dispatchv
_ZN5Riscv12finishSystemE
_Z20sysCallGetCharOutputv
CONSOLE_RX_DATA
