GAS LISTING /tmp/ccw50fL6.s 			page 1


   1              		.file	"KConsole.cpp"
   2              		.option pic
   3              		.option norelax
   4              		.text
   5              	.Ltext0:
   6              		.align	2
   7              		.globl	_ZN8KConsole10initializeEv
   9              	_ZN8KConsole10initializeEv:
  10              	.LFB25:
  11              		.file 1 "src/KConsole.cpp"
   1:src/KConsole.cpp **** //
   2:src/KConsole.cpp **** // Created by os on 5/19/22.
   3:src/KConsole.cpp **** //
   4:src/KConsole.cpp **** #include "../h/KConsole.hpp"
   5:src/KConsole.cpp **** #include "../test/printing.hpp"
   6:src/KConsole.cpp **** #include "../h/Riscv.hpp"
   7:src/KConsole.cpp **** 
   8:src/KConsole.cpp **** uint64 KConsole::inputHead = 0;
   9:src/KConsole.cpp **** uint64 KConsole::inputTail = 0;
  10:src/KConsole.cpp **** uint64 KConsole::outputHead = 0;
  11:src/KConsole.cpp **** uint64 KConsole::outputTail = 0;
  12:src/KConsole.cpp **** KSemaphore* KConsole::hasCharactersOutput = nullptr;
  13:src/KConsole.cpp **** KSemaphore* KConsole::hasCharactersInput = nullptr;
  14:src/KConsole.cpp **** uint64 KConsole::pendingGetc = 0;
  15:src/KConsole.cpp **** char KConsole::inputBuffer[bufferSize];
  16:src/KConsole.cpp **** char KConsole::outputBuffer[bufferSize];
  17:src/KConsole.cpp **** uint64 KConsole::pendingPutc = 0;
  18:src/KConsole.cpp **** 
  19:src/KConsole.cpp **** void KConsole::initialize()
  20:src/KConsole.cpp **** {
  12              		.loc 1 20 1
  13              		.cfi_startproc
  14              		.cfi_personality 0x9b,DW.ref.__gxx_personality_v0
  15              		.cfi_lsda 0x1b,.LLSDA25
  16 0000 130101FE 		addi	sp,sp,-32
  17              		.cfi_def_cfa_offset 32
  18 0004 233C1100 		sd	ra,24(sp)
  19 0008 23388100 		sd	s0,16(sp)
  20 000c 23349100 		sd	s1,8(sp)
  21 0010 23302101 		sd	s2,0(sp)
  22              		.cfi_offset 1, -8
  23              		.cfi_offset 8, -16
  24              		.cfi_offset 9, -24
  25              		.cfi_offset 18, -32
  26 0014 13040102 		addi	s0,sp,32
  27              		.cfi_def_cfa 8, 0
  21:src/KConsole.cpp ****     hasCharactersInput = new KSemaphore(0);
  28              		.loc 1 21 5
  29              		.loc 1 21 42 is_stmt 0
  30 0018 13058001 		li	a0,24
  31              	.LEHB0:
  32 001c 97000000 		call	_ZN10KSemaphorenwEm@plt
  32      E7800000 
  33              	.LVL0:
  34              	.LEHE0:
  35 0024 93040500 		mv	s1,a0
  36 0028 63080500 		beqz	a0,.L2
GAS LISTING /tmp/ccw50fL6.s 			page 2


  37              		.loc 1 21 42 discriminator 1
  38 002c 93050000 		li	a1,0
  39              	.LEHB1:
  40 0030 97000000 		call	_ZN10KSemaphoreC1Ei@plt
  40      E7800000 
  41              	.LVL1:
  42              	.LEHE1:
  43              	.L2:
  44              		.loc 1 21 24 discriminator 6
  45 0038 97070000 		sd	s1,.LANCHOR0,a5
  45      23B09700 
  22:src/KConsole.cpp ****     hasCharactersOutput = new KSemaphore(0);
  46              		.loc 1 22 5 is_stmt 1 discriminator 6
  47              		.loc 1 22 43 is_stmt 0 discriminator 6
  48 0040 13058001 		li	a0,24
  49              	.LEHB2:
  50 0044 97000000 		call	_ZN10KSemaphorenwEm@plt
  50      E7800000 
  51              	.LVL2:
  52              	.LEHE2:
  53 004c 93040500 		mv	s1,a0
  54 0050 63080500 		beqz	a0,.L3
  55              		.loc 1 22 43 discriminator 1
  56 0054 93050000 		li	a1,0
  57              	.LEHB3:
  58 0058 97000000 		call	_ZN10KSemaphoreC1Ei@plt
  58      E7800000 
  59              	.LVL3:
  60              	.LEHE3:
  61              	.L3:
  62              		.loc 1 22 25 discriminator 6
  63 0060 97070000 		sd	s1,.LANCHOR0+8,a5
  63      23B09700 
  23:src/KConsole.cpp **** }
  64              		.loc 1 23 1 discriminator 6
  65 0068 83308101 		ld	ra,24(sp)
  66              		.cfi_remember_state
  67              		.cfi_restore 1
  68 006c 03340101 		ld	s0,16(sp)
  69              		.cfi_restore 8
  70              		.cfi_def_cfa 2, 32
  71 0070 83348100 		ld	s1,8(sp)
  72              		.cfi_restore 9
  73 0074 03390100 		ld	s2,0(sp)
  74              		.cfi_restore 18
  75 0078 13010102 		addi	sp,sp,32
  76              		.cfi_def_cfa_offset 0
  77 007c 67800000 		jr	ra
  78              	.L6:
  79              		.cfi_restore_state
  80 0080 13090500 		mv	s2,a0
  21:src/KConsole.cpp ****     hasCharactersInput = new KSemaphore(0);
  81              		.loc 1 21 42
  82 0084 13850400 		mv	a0,s1
  83 0088 97000000 		call	_ZN10KSemaphoredlEPv@plt
  83      E7800000 
  84              	.LVL4:
GAS LISTING /tmp/ccw50fL6.s 			page 3


  85 0090 13050900 		mv	a0,s2
  86              	.LEHB4:
  87 0094 97000000 		call	_Unwind_Resume@plt
  87      E7800000 
  88              	.LVL5:
  89              	.LEHE4:
  90              	.L7:
  91 009c 13090500 		mv	s2,a0
  22:src/KConsole.cpp ****     hasCharactersOutput = new KSemaphore(0);
  92              		.loc 1 22 43
  93 00a0 13850400 		mv	a0,s1
  94 00a4 97000000 		call	_ZN10KSemaphoredlEPv@plt
  94      E7800000 
  95              	.LVL6:
  96 00ac 13050900 		mv	a0,s2
  97              	.LEHB5:
  98 00b0 97000000 		call	_Unwind_Resume@plt
  98      E7800000 
  99              	.LVL7:
 100              	.LEHE5:
 101              		.cfi_endproc
 102              	.LFE25:
 103              		.globl	__gxx_personality_v0
 104              		.section	.gcc_except_table,"a",@progbits
 105              	.LLSDA25:
 106 0000 FF       		.byte	0xff
 107 0001 FF       		.byte	0xff
 108 0002 03       		.byte	0x3
 109 0003 4E       		.byte	0x4e
 110 0004 00000000 		.4byte	.LEHB0-.LFB25
 111 0008 00000000 		.4byte	.LEHE0-.LEHB0
 112 000c 00000000 		.4byte	0
 113 0010 00       		.byte	0
 114 0011 00000000 		.4byte	.LEHB1-.LFB25
 115 0015 00000000 		.4byte	.LEHE1-.LEHB1
 116 0019 00000000 		.4byte	.L6-.LFB25
 117 001d 00       		.byte	0
 118 001e 00000000 		.4byte	.LEHB2-.LFB25
 119 0022 00000000 		.4byte	.LEHE2-.LEHB2
 120 0026 00000000 		.4byte	0
 121 002a 00       		.byte	0
 122 002b 00000000 		.4byte	.LEHB3-.LFB25
 123 002f 00000000 		.4byte	.LEHE3-.LEHB3
 124 0033 00000000 		.4byte	.L7-.LFB25
 125 0037 00       		.byte	0
 126 0038 00000000 		.4byte	.LEHB4-.LFB25
 127 003c 00000000 		.4byte	.LEHE4-.LEHB4
 128 0040 00000000 		.4byte	0
 129 0044 00       		.byte	0
 130 0045 00000000 		.4byte	.LEHB5-.LFB25
 131 0049 00000000 		.4byte	.LEHE5-.LEHB5
 132 004d 00000000 		.4byte	0
 133 0051 00       		.byte	0
 134              		.text
 136              		.align	2
 137              		.globl	_ZN8KConsole17putCharacterInputEc
 139              	_ZN8KConsole17putCharacterInputEc:
GAS LISTING /tmp/ccw50fL6.s 			page 4


 140              	.LFB28:
  24:src/KConsole.cpp **** 
  25:src/KConsole.cpp **** //extern const uint64 CONSOLE_STATUS;
  26:src/KConsole.cpp **** //extern const uint64 CONSOLE_TX_DATA;
  27:src/KConsole.cpp **** //extern const uint64 CONSOLE_RX_DATA;
  28:src/KConsole.cpp **** void KConsole::getCharactersFromConsole()
  29:src/KConsole.cpp **** {
  30:src/KConsole.cpp ****     uint64 operation = *(uint8*)CONSOLE_STATUS;
  31:src/KConsole.cpp ****     if(operation & KConsole::STATUS_READ_MASK)
  32:src/KConsole.cpp ****     {
  33:src/KConsole.cpp ****         char c = *(uint8*)CONSOLE_TX_DATA;
  34:src/KConsole.cpp ****         if(KConsole::pendingGetc > 0)
  35:src/KConsole.cpp ****         {
  36:src/KConsole.cpp ****             KConsole::pendingGetc--;
  37:src/KConsole.cpp ****             KConsole::putCharacterInput(c);
  38:src/KConsole.cpp ****             //KConsole::putCharacterOutput(c);
  39:src/KConsole.cpp ****         }
  40:src/KConsole.cpp ****     }
  41:src/KConsole.cpp **** }
  42:src/KConsole.cpp **** 
  43:src/KConsole.cpp **** void KConsole::sendCharactersToConsole(void* p)
  44:src/KConsole.cpp **** {
  45:src/KConsole.cpp ****     while(true)
  46:src/KConsole.cpp ****     {
  47:src/KConsole.cpp ****             if(Riscv::finishSystem && KConsole::outputBufferEmpty() && pendingGetc == 0)
  48:src/KConsole.cpp ****                 thread_exit();
  49:src/KConsole.cpp **** 
  50:src/KConsole.cpp ****             uint64 operation = *(uint8*)CONSOLE_STATUS;
  51:src/KConsole.cpp ****             if ((operation & STATUS_WRITE_MASK) && pendingPutc > 0)
  52:src/KConsole.cpp ****             {
  53:src/KConsole.cpp ****                 char volatile c = sysCallGetCharOutput();
  54:src/KConsole.cpp ****                 pendingPutc--;
  55:src/KConsole.cpp ****                 *(uint8*)CONSOLE_RX_DATA = c;
  56:src/KConsole.cpp ****             }
  57:src/KConsole.cpp ****             else
  58:src/KConsole.cpp ****             {
  59:src/KConsole.cpp ****                 thread_dispatch();
  60:src/KConsole.cpp ****             }
  61:src/KConsole.cpp ****     }
  62:src/KConsole.cpp **** }
  63:src/KConsole.cpp **** 
  64:src/KConsole.cpp **** void KConsole::putCharacterInput(char c)
  65:src/KConsole.cpp **** {
 141              		.loc 1 65 1 is_stmt 1
 142              		.cfi_startproc
 143              	.LVL8:
  66:src/KConsole.cpp ****     if((inputTail+1)%bufferSize == inputHead)
 144              		.loc 1 66 5
 145              		.loc 1 66 18 is_stmt 0
 146 00b8 97060000 		lla	a3,.LANCHOR0
 146      93860600 
 147 00c0 03B60601 		ld	a2,16(a3)
 148 00c4 93071600 		addi	a5,a2,1
 149              		.loc 1 66 21
 150 00c8 37470000 		li	a4,16384
 151 00cc 1307F7FF 		addi	a4,a4,-1
 152 00d0 B3F7E700 		and	a5,a5,a4
GAS LISTING /tmp/ccw50fL6.s 			page 5


 153              		.loc 1 66 33
 154 00d4 03B78601 		ld	a4,24(a3)
 155              		.loc 1 66 5
 156 00d8 6382E704 		beq	a5,a4,.L13
  65:src/KConsole.cpp ****     if((inputTail+1)%bufferSize == inputHead)
 157              		.loc 1 65 1
 158 00dc 130101FF 		addi	sp,sp,-16
 159              		.cfi_def_cfa_offset 16
 160 00e0 23341100 		sd	ra,8(sp)
 161 00e4 23308100 		sd	s0,0(sp)
 162              		.cfi_offset 1, -8
 163              		.cfi_offset 8, -16
 164 00e8 13040101 		addi	s0,sp,16
 165              		.cfi_def_cfa 8, 0
  67:src/KConsole.cpp ****         return;
  68:src/KConsole.cpp ****     inputBuffer[inputTail] = c;
 166              		.loc 1 68 5 is_stmt 1
 167              		.loc 1 68 28 is_stmt 0
 168 00ec 17070000 		lla	a4,_ZN8KConsole11inputBufferE
 168      13070700 
 169 00f4 3306C700 		add	a2,a4,a2
 170 00f8 2300A600 		sb	a0,0(a2)
  69:src/KConsole.cpp ****     inputTail = (inputTail+1)%bufferSize;
 171              		.loc 1 69 5 is_stmt 1
 172              		.loc 1 69 15 is_stmt 0
 173 00fc 23B8F600 		sd	a5,16(a3)
  70:src/KConsole.cpp ****     hasCharactersInput->signal();
 174              		.loc 1 70 5 is_stmt 1
 175              		.loc 1 70 31 is_stmt 0
 176 0100 03B50600 		ld	a0,0(a3)
 177              	.LVL9:
 178 0104 97000000 		call	_ZN10KSemaphore6signalEv@plt
 178      E7800000 
 179              	.LVL10:
  71:src/KConsole.cpp **** }
 180              		.loc 1 71 1
 181 010c 83308100 		ld	ra,8(sp)
 182              		.cfi_restore 1
 183 0110 03340100 		ld	s0,0(sp)
 184              		.cfi_restore 8
 185              		.cfi_def_cfa 2, 16
 186 0114 13010101 		addi	sp,sp,16
 187              		.cfi_def_cfa_offset 0
 188 0118 67800000 		jr	ra
 189              	.LVL11:
 190              	.L13:
 191 011c 67800000 		ret
 192              		.cfi_endproc
 193              	.LFE28:
 195              		.align	2
 196              		.globl	_ZN8KConsole24getCharactersFromConsoleEv
 198              	_ZN8KConsole24getCharactersFromConsoleEv:
 199              	.LFB26:
  29:src/KConsole.cpp ****     uint64 operation = *(uint8*)CONSOLE_STATUS;
 200              		.loc 1 29 1 is_stmt 1
 201              		.cfi_startproc
  30:src/KConsole.cpp ****     if(operation & KConsole::STATUS_READ_MASK)
GAS LISTING /tmp/ccw50fL6.s 			page 6


 202              		.loc 1 30 5
  30:src/KConsole.cpp ****     if(operation & KConsole::STATUS_READ_MASK)
 203              		.loc 1 30 24 is_stmt 0
 204 0120 97070000 		la	a5,CONSOLE_STATUS
 204      83B70700 
 205 0128 83B70700 		ld	a5,0(a5)
 206 012c 83C70700 		lbu	a5,0(a5)
 207              	.LVL12:
  31:src/KConsole.cpp ****     {
 208              		.loc 1 31 5 is_stmt 1
 209              	.LBB2:
 210 0130 93F71700 		andi	a5,a5,1
 211              	.LVL13:
 212 0134 63800702 		beqz	a5,.L19
 213              	.LBB3:
  33:src/KConsole.cpp ****         if(KConsole::pendingGetc > 0)
 214              		.loc 1 33 9
  33:src/KConsole.cpp ****         if(KConsole::pendingGetc > 0)
 215              		.loc 1 33 18 is_stmt 0
 216 0138 97070000 		la	a5,CONSOLE_TX_DATA
 216      83B70700 
 217 0140 83B70700 		ld	a5,0(a5)
  33:src/KConsole.cpp ****         if(KConsole::pendingGetc > 0)
 218              		.loc 1 33 14
 219 0144 03C50700 		lbu	a0,0(a5)
 220              	.LVL14:
  34:src/KConsole.cpp ****         {
 221              		.loc 1 34 9 is_stmt 1
  34:src/KConsole.cpp ****         {
 222              		.loc 1 34 34 is_stmt 0
 223 0148 97070000 		ld	a5,.LANCHOR0+32
 223      83B70700 
  34:src/KConsole.cpp ****         {
 224              		.loc 1 34 9
 225 0150 63940700 		bnez	a5,.L22
 226              	.LVL15:
 227              	.L19:
 228 0154 67800000 		ret
 229              	.LVL16:
 230              	.L22:
 231              	.LBE3:
 232              	.LBE2:
  29:src/KConsole.cpp ****     uint64 operation = *(uint8*)CONSOLE_STATUS;
 233              		.loc 1 29 1
 234 0158 130101FF 		addi	sp,sp,-16
 235              		.cfi_def_cfa_offset 16
 236 015c 23341100 		sd	ra,8(sp)
 237              	.LVL17:
 238 0160 23308100 		sd	s0,0(sp)
 239              		.cfi_offset 1, -8
 240              		.cfi_offset 8, -16
 241 0164 13040101 		addi	s0,sp,16
 242              		.cfi_def_cfa 8, 0
 243              	.LBB5:
 244              	.LBB4:
  36:src/KConsole.cpp ****             KConsole::putCharacterInput(c);
 245              		.loc 1 36 13 is_stmt 1
GAS LISTING /tmp/ccw50fL6.s 			page 7


  36:src/KConsole.cpp ****             KConsole::putCharacterInput(c);
 246              		.loc 1 36 34 is_stmt 0
 247 0168 9387F7FF 		addi	a5,a5,-1
 248 016c 17070000 		sd	a5,.LANCHOR0+32,a4
 248      2330F700 
  37:src/KConsole.cpp ****             //KConsole::putCharacterOutput(c);
 249              		.loc 1 37 13 is_stmt 1
  37:src/KConsole.cpp ****             //KConsole::putCharacterOutput(c);
 250              		.loc 1 37 40 is_stmt 0
 251 0174 97000000 		call	_ZN8KConsole17putCharacterInputEc
 251      E7800000 
 252              	.LVL18:
 253              	.LBE4:
 254              	.LBE5:
  41:src/KConsole.cpp **** 
 255              		.loc 1 41 1
 256 017c 83308100 		ld	ra,8(sp)
 257              		.cfi_restore 1
 258 0180 03340100 		ld	s0,0(sp)
 259              		.cfi_restore 8
 260              		.cfi_def_cfa 2, 16
 261 0184 13010101 		addi	sp,sp,16
 262              		.cfi_def_cfa_offset 0
 263 0188 67800000 		jr	ra
 264              		.cfi_endproc
 265              	.LFE26:
 267              		.align	2
 268              		.globl	_ZN8KConsole17getCharacterInputEv
 270              	_ZN8KConsole17getCharacterInputEv:
 271              	.LFB29:
  72:src/KConsole.cpp **** 
  73:src/KConsole.cpp **** char KConsole::getCharacterInput()
  74:src/KConsole.cpp **** {
 272              		.loc 1 74 1 is_stmt 1
 273              		.cfi_startproc
 274 018c 130101FE 		addi	sp,sp,-32
 275              		.cfi_def_cfa_offset 32
 276 0190 233C1100 		sd	ra,24(sp)
 277 0194 23388100 		sd	s0,16(sp)
 278 0198 23349100 		sd	s1,8(sp)
 279              		.cfi_offset 1, -8
 280              		.cfi_offset 8, -16
 281              		.cfi_offset 9, -24
 282 019c 13040102 		addi	s0,sp,32
 283              		.cfi_def_cfa 8, 0
  75:src/KConsole.cpp ****     hasCharactersInput->wait();
 284              		.loc 1 75 5
 285              		.loc 1 75 29 is_stmt 0
 286 01a0 97040000 		lla	s1,.LANCHOR0
 286      93840400 
 287 01a8 03B50400 		ld	a0,0(s1)
 288 01ac 97000000 		call	_ZN10KSemaphore4waitEv@plt
 288      E7800000 
 289              	.LVL19:
  76:src/KConsole.cpp ****     if(inputHead == inputTail)
 290              		.loc 1 76 5 is_stmt 1
 291              		.loc 1 76 18 is_stmt 0
GAS LISTING /tmp/ccw50fL6.s 			page 8


 292 01b4 83B78401 		ld	a5,24(s1)
 293 01b8 03B70401 		ld	a4,16(s1)
 294              		.loc 1 76 5
 295 01bc 6380E704 		beq	a5,a4,.L25
  77:src/KConsole.cpp ****         return -1;
  78:src/KConsole.cpp ****     char c = inputBuffer[inputHead];
 296              		.loc 1 78 5 is_stmt 1
 297              		.loc 1 78 10 is_stmt 0
 298 01c0 17070000 		lla	a4,_ZN8KConsole11inputBufferE
 298      13070700 
 299 01c8 3307F700 		add	a4,a4,a5
 300 01cc 03450700 		lbu	a0,0(a4)
 301              	.LVL20:
  79:src/KConsole.cpp ****     inputHead = (inputHead+1)%bufferSize;
 302              		.loc 1 79 5 is_stmt 1
 303              		.loc 1 79 27 is_stmt 0
 304 01d0 93871700 		addi	a5,a5,1
 305              		.loc 1 79 30
 306 01d4 37470000 		li	a4,16384
 307 01d8 1307F7FF 		addi	a4,a4,-1
 308 01dc B3F7E700 		and	a5,a5,a4
 309              		.loc 1 79 15
 310 01e0 17070000 		sd	a5,.LANCHOR0+24,a4
 310      2330F700 
  80:src/KConsole.cpp ****     return c;
 311              		.loc 1 80 5 is_stmt 1
 312              	.LVL21:
 313              	.L24:
  81:src/KConsole.cpp **** }
 314              		.loc 1 81 1 is_stmt 0
 315 01e8 83308101 		ld	ra,24(sp)
 316              		.cfi_remember_state
 317              		.cfi_restore 1
 318 01ec 03340101 		ld	s0,16(sp)
 319              		.cfi_restore 8
 320              		.cfi_def_cfa 2, 32
 321 01f0 83348100 		ld	s1,8(sp)
 322              		.cfi_restore 9
 323 01f4 13010102 		addi	sp,sp,32
 324              		.cfi_def_cfa_offset 0
 325 01f8 67800000 		jr	ra
 326              	.L25:
 327              		.cfi_restore_state
  77:src/KConsole.cpp ****     char c = inputBuffer[inputHead];
 328              		.loc 1 77 17
 329 01fc 1305F00F 		li	a0,255
 330 0200 6FF09FFE 		j	.L24
 331              		.cfi_endproc
 332              	.LFE29:
 334              		.align	2
 335              		.globl	_ZN8KConsole18putCharacterOutputEc
 337              	_ZN8KConsole18putCharacterOutputEc:
 338              	.LFB30:
  82:src/KConsole.cpp **** 
  83:src/KConsole.cpp **** void KConsole::putCharacterOutput(char c)
  84:src/KConsole.cpp **** {
 339              		.loc 1 84 1 is_stmt 1
GAS LISTING /tmp/ccw50fL6.s 			page 9


 340              		.cfi_startproc
 341              	.LVL22:
  85:src/KConsole.cpp ****     if((outputTail+1)%bufferSize == outputHead)
 342              		.loc 1 85 5
 343              		.loc 1 85 19 is_stmt 0
 344 0204 97060000 		lla	a3,.LANCHOR0
 344      93860600 
 345 020c 03B68602 		ld	a2,40(a3)
 346 0210 93071600 		addi	a5,a2,1
 347              		.loc 1 85 22
 348 0214 37470000 		li	a4,16384
 349 0218 1307F7FF 		addi	a4,a4,-1
 350 021c B3F7E700 		and	a5,a5,a4
 351              		.loc 1 85 34
 352 0220 03B70603 		ld	a4,48(a3)
 353              		.loc 1 85 5
 354 0224 638AE704 		beq	a5,a4,.L30
  84:src/KConsole.cpp ****     if((outputTail+1)%bufferSize == outputHead)
 355              		.loc 1 84 1
 356 0228 130101FF 		addi	sp,sp,-16
 357              		.cfi_def_cfa_offset 16
 358 022c 23341100 		sd	ra,8(sp)
 359 0230 23308100 		sd	s0,0(sp)
 360              		.cfi_offset 1, -8
 361              		.cfi_offset 8, -16
 362 0234 13040101 		addi	s0,sp,16
 363              		.cfi_def_cfa 8, 0
  86:src/KConsole.cpp ****         return;
  87:src/KConsole.cpp ****     pendingPutc++;
 364              		.loc 1 87 5 is_stmt 1
 365              		.loc 1 87 16 is_stmt 0
 366 0238 13870600 		mv	a4,a3
 367 023c 83B68603 		ld	a3,56(a3)
 368 0240 93861600 		addi	a3,a3,1
 369 0244 233CD702 		sd	a3,56(a4)
  88:src/KConsole.cpp ****     outputBuffer[outputTail] = c;
 370              		.loc 1 88 5 is_stmt 1
 371              		.loc 1 88 30 is_stmt 0
 372 0248 97060000 		lla	a3,_ZN8KConsole12outputBufferE
 372      93860600 
 373 0250 3386C600 		add	a2,a3,a2
 374 0254 2300A600 		sb	a0,0(a2)
  89:src/KConsole.cpp ****     outputTail = (outputTail+1)%bufferSize;
 375              		.loc 1 89 5 is_stmt 1
 376              		.loc 1 89 16 is_stmt 0
 377 0258 2334F702 		sd	a5,40(a4)
  90:src/KConsole.cpp ****     hasCharactersOutput->signal();
 378              		.loc 1 90 5 is_stmt 1
 379              		.loc 1 90 32 is_stmt 0
 380 025c 03358700 		ld	a0,8(a4)
 381              	.LVL23:
 382 0260 97000000 		call	_ZN10KSemaphore6signalEv@plt
 382      E7800000 
 383              	.LVL24:
  91:src/KConsole.cpp **** }
 384              		.loc 1 91 1
 385 0268 83308100 		ld	ra,8(sp)
GAS LISTING /tmp/ccw50fL6.s 			page 10


 386              		.cfi_restore 1
 387 026c 03340100 		ld	s0,0(sp)
 388              		.cfi_restore 8
 389              		.cfi_def_cfa 2, 16
 390 0270 13010101 		addi	sp,sp,16
 391              		.cfi_def_cfa_offset 0
 392 0274 67800000 		jr	ra
 393              	.LVL25:
 394              	.L30:
 395 0278 67800000 		ret
 396              		.cfi_endproc
 397              	.LFE30:
 399              		.align	2
 400              		.globl	_ZN8KConsole18getCharacterOutputEv
 402              	_ZN8KConsole18getCharacterOutputEv:
 403              	.LFB31:
  92:src/KConsole.cpp **** 
  93:src/KConsole.cpp **** char KConsole::getCharacterOutput()
  94:src/KConsole.cpp **** {
 404              		.loc 1 94 1 is_stmt 1
 405              		.cfi_startproc
 406 027c 130101FE 		addi	sp,sp,-32
 407              		.cfi_def_cfa_offset 32
 408 0280 233C1100 		sd	ra,24(sp)
 409 0284 23388100 		sd	s0,16(sp)
 410 0288 23349100 		sd	s1,8(sp)
 411              		.cfi_offset 1, -8
 412              		.cfi_offset 8, -16
 413              		.cfi_offset 9, -24
 414 028c 13040102 		addi	s0,sp,32
 415              		.cfi_def_cfa 8, 0
  95:src/KConsole.cpp ****     hasCharactersOutput->wait();
 416              		.loc 1 95 5
 417              		.loc 1 95 30 is_stmt 0
 418 0290 97040000 		lla	s1,.LANCHOR0
 418      93840400 
 419 0298 03B58400 		ld	a0,8(s1)
 420 029c 97000000 		call	_ZN10KSemaphore4waitEv@plt
 420      E7800000 
 421              	.LVL26:
  96:src/KConsole.cpp ****     if(outputHead == outputTail)
 422              		.loc 1 96 5 is_stmt 1
 423              		.loc 1 96 19 is_stmt 0
 424 02a4 83B70403 		ld	a5,48(s1)
 425 02a8 03B78402 		ld	a4,40(s1)
 426              		.loc 1 96 5
 427 02ac 6380E704 		beq	a5,a4,.L35
  97:src/KConsole.cpp ****         return -1;
  98:src/KConsole.cpp ****     char c = outputBuffer[outputHead];
 428              		.loc 1 98 5 is_stmt 1
 429              		.loc 1 98 10 is_stmt 0
 430 02b0 17070000 		lla	a4,_ZN8KConsole12outputBufferE
 430      13070700 
 431 02b8 3307F700 		add	a4,a4,a5
 432 02bc 03450700 		lbu	a0,0(a4)
 433              	.LVL27:
  99:src/KConsole.cpp ****     outputHead = (outputHead+1)%bufferSize;
GAS LISTING /tmp/ccw50fL6.s 			page 11


 434              		.loc 1 99 5 is_stmt 1
 435              		.loc 1 99 29 is_stmt 0
 436 02c0 93871700 		addi	a5,a5,1
 437              		.loc 1 99 32
 438 02c4 37470000 		li	a4,16384
 439 02c8 1307F7FF 		addi	a4,a4,-1
 440 02cc B3F7E700 		and	a5,a5,a4
 441              		.loc 1 99 16
 442 02d0 17070000 		sd	a5,.LANCHOR0+48,a4
 442      2330F700 
 100:src/KConsole.cpp ****     return c;
 443              		.loc 1 100 5 is_stmt 1
 444              	.LVL28:
 445              	.L34:
 101:src/KConsole.cpp **** }
 446              		.loc 1 101 1 is_stmt 0
 447 02d8 83308101 		ld	ra,24(sp)
 448              		.cfi_remember_state
 449              		.cfi_restore 1
 450 02dc 03340101 		ld	s0,16(sp)
 451              		.cfi_restore 8
 452              		.cfi_def_cfa 2, 32
 453 02e0 83348100 		ld	s1,8(sp)
 454              		.cfi_restore 9
 455 02e4 13010102 		addi	sp,sp,32
 456              		.cfi_def_cfa_offset 0
 457 02e8 67800000 		jr	ra
 458              	.L35:
 459              		.cfi_restore_state
  97:src/KConsole.cpp ****     char c = outputBuffer[outputHead];
 460              		.loc 1 97 17
 461 02ec 1305F00F 		li	a0,255
 462 02f0 6FF09FFE 		j	.L34
 463              		.cfi_endproc
 464              	.LFE31:
 466              		.align	2
 467              		.globl	_ZN8KConsole11putcHandlerEv
 469              	_ZN8KConsole11putcHandlerEv:
 470              	.LFB32:
 102:src/KConsole.cpp **** 
 103:src/KConsole.cpp **** void KConsole::putcHandler()
 104:src/KConsole.cpp **** {
 471              		.loc 1 104 1 is_stmt 1
 472              		.cfi_startproc
 473 02f4 130101FF 		addi	sp,sp,-16
 474              		.cfi_def_cfa_offset 16
 475 02f8 23341100 		sd	ra,8(sp)
 476 02fc 23308100 		sd	s0,0(sp)
 477              		.cfi_offset 1, -8
 478              		.cfi_offset 8, -16
 479 0300 13040101 		addi	s0,sp,16
 480              		.cfi_def_cfa 8, 0
 105:src/KConsole.cpp ****     uint64 ch;
 481              		.loc 1 105 5
 106:src/KConsole.cpp ****     __asm__ volatile("mv %0, a1" : "=r"(ch));
 482              		.loc 1 106 5
 483              		.loc 1 106 45 is_stmt 0
GAS LISTING /tmp/ccw50fL6.s 			page 12


 484              	#APP
 485              	# 106 "src/KConsole.cpp" 1
 107              	    putCharacterOutput((char)ch);
 486              		mv a0, a1
 487              	# 0 "" 2
 488              	.LVL29:
 489              		.loc 1 107 5 is_stmt 1
 490              		.loc 1 107 23 is_stmt 0
 491              	#NO_APP
 492 0308 1375F50F 		andi	a0,a0,0xff
 493              	.LVL30:
 494 030c 97000000 		call	_ZN8KConsole18putCharacterOutputEc
 494      E7800000 
 495              	.LVL31:
 108:src/KConsole.cpp **** }
 496              		.loc 1 108 1
 497 0314 83308100 		ld	ra,8(sp)
 498              		.cfi_restore 1
 499 0318 03340100 		ld	s0,0(sp)
 500              		.cfi_restore 8
 501              		.cfi_def_cfa 2, 16
 502 031c 13010101 		addi	sp,sp,16
 503              		.cfi_def_cfa_offset 0
 504 0320 67800000 		jr	ra
 505              		.cfi_endproc
 506              	.LFE32:
 508              		.align	2
 509              		.globl	_ZN8KConsole11getcHandlerEv
 511              	_ZN8KConsole11getcHandlerEv:
 512              	.LFB33:
 109:src/KConsole.cpp **** 
 110:src/KConsole.cpp **** void KConsole::getcHandler()
 111:src/KConsole.cpp **** {
 513              		.loc 1 111 1 is_stmt 1
 514              		.cfi_startproc
 515 0324 130101FE 		addi	sp,sp,-32
 516              		.cfi_def_cfa_offset 32
 517 0328 233C1100 		sd	ra,24(sp)
 518 032c 23388100 		sd	s0,16(sp)
 519 0330 23349100 		sd	s1,8(sp)
 520              		.cfi_offset 1, -8
 521              		.cfi_offset 8, -16
 522              		.cfi_offset 9, -24
 523 0334 13040102 		addi	s0,sp,32
 524              		.cfi_def_cfa 8, 0
 112:src/KConsole.cpp ****     pendingGetc++;
 525              		.loc 1 112 5
 526              		.loc 1 112 16 is_stmt 0
 527 0338 17070000 		lla	a4,.LANCHOR0
 527      13070700 
 528 0340 83370702 		ld	a5,32(a4)
 529 0344 93871700 		addi	a5,a5,1
 530 0348 2330F702 		sd	a5,32(a4)
 113:src/KConsole.cpp ****     char ch;
 531              		.loc 1 113 5 is_stmt 1
 114:src/KConsole.cpp ****     ch = getCharacterInput();
 532              		.loc 1 114 5
GAS LISTING /tmp/ccw50fL6.s 			page 13


 533              		.loc 1 114 27 is_stmt 0
 534 034c 97000000 		call	_ZN8KConsole17getCharacterInputEv
 534      E7800000 
 535              	.LVL32:
 536 0354 93040500 		mv	s1,a0
 537              	.LVL33:
 115:src/KConsole.cpp ****     if(ch!=0x01b)
 538              		.loc 1 115 5 is_stmt 1
 539 0358 9307B001 		li	a5,27
 540 035c 6316F502 		bne	a0,a5,.L43
 541              	.LVL34:
 542              	.L40:
 116:src/KConsole.cpp ****         putCharacterOutput(ch);
 117:src/KConsole.cpp **** 
 118:src/KConsole.cpp ****     if(ch==13)
 543              		.loc 1 118 5
 544 0360 9307D000 		li	a5,13
 545 0364 6388F402 		beq	s1,a5,.L44
 546              	.L41:
 119:src/KConsole.cpp ****     {
 120:src/KConsole.cpp ****         putCharacterOutput(13);
 121:src/KConsole.cpp ****         putCharacterOutput(10);
 122:src/KConsole.cpp ****     }
 123:src/KConsole.cpp **** 
 124:src/KConsole.cpp ****     __asm__ volatile("mv a0, %0" : :"r"((uint64)ch));
 547              		.loc 1 124 5
 548              		.loc 1 124 53 is_stmt 0
 549              	#APP
 550              	# 124 "src/KConsole.cpp" 1
 125              	    Riscv::w_a0_sscratch();
 551              		mv a0, s1
 552              	# 0 "" 2
 553              		.loc 1 125 5 is_stmt 1
 554              		.loc 1 125 25 is_stmt 0
 555              	#NO_APP
 556 036c 97000000 		call	_ZN5Riscv13w_a0_sscratchEv@plt
 556      E7800000 
 557              	.LVL35:
 126:src/KConsole.cpp **** }
 558              		.loc 1 126 1
 559 0374 83308101 		ld	ra,24(sp)
 560              		.cfi_remember_state
 561              		.cfi_restore 1
 562 0378 03340101 		ld	s0,16(sp)
 563              		.cfi_restore 8
 564              		.cfi_def_cfa 2, 32
 565 037c 83348100 		ld	s1,8(sp)
 566              		.cfi_restore 9
 567 0380 13010102 		addi	sp,sp,32
 568              		.cfi_def_cfa_offset 0
 569 0384 67800000 		jr	ra
 570              	.LVL36:
 571              	.L43:
 572              		.cfi_restore_state
 116:src/KConsole.cpp ****         putCharacterOutput(ch);
 573              		.loc 1 116 9 is_stmt 1
 116:src/KConsole.cpp ****         putCharacterOutput(ch);
GAS LISTING /tmp/ccw50fL6.s 			page 14


 574              		.loc 1 116 27 is_stmt 0
 575 0388 97000000 		call	_ZN8KConsole18putCharacterOutputEc
 575      E7800000 
 576              	.LVL37:
 577 0390 6FF01FFD 		j	.L40
 578              	.L44:
 120:src/KConsole.cpp ****         putCharacterOutput(10);
 579              		.loc 1 120 9 is_stmt 1
 120:src/KConsole.cpp ****         putCharacterOutput(10);
 580              		.loc 1 120 27 is_stmt 0
 581 0394 1305D000 		li	a0,13
 582 0398 97000000 		call	_ZN8KConsole18putCharacterOutputEc
 582      E7800000 
 583              	.LVL38:
 121:src/KConsole.cpp ****     }
 584              		.loc 1 121 9 is_stmt 1
 121:src/KConsole.cpp ****     }
 585              		.loc 1 121 27 is_stmt 0
 586 03a0 1305A000 		li	a0,10
 587 03a4 97000000 		call	_ZN8KConsole18putCharacterOutputEc
 587      E7800000 
 588              	.LVL39:
 589 03ac 6FF0DFFB 		j	.L41
 590              		.cfi_endproc
 591              	.LFE33:
 593              		.align	2
 594              		.globl	_ZN8KConsole17outputBufferEmptyEv
 596              	_ZN8KConsole17outputBufferEmptyEv:
 597              	.LFB34:
 127:src/KConsole.cpp **** 
 128:src/KConsole.cpp **** bool KConsole::outputBufferEmpty()
 129:src/KConsole.cpp **** {
 598              		.loc 1 129 1 is_stmt 1
 599              		.cfi_startproc
 600 03b0 130101FF 		addi	sp,sp,-16
 601              		.cfi_def_cfa_offset 16
 602 03b4 23348100 		sd	s0,8(sp)
 603              		.cfi_offset 8, -8
 604 03b8 13040101 		addi	s0,sp,16
 605              		.cfi_def_cfa 8, 0
 130:src/KConsole.cpp ****     return pendingPutc == 0;
 606              		.loc 1 130 5
 131:src/KConsole.cpp **** }
 607              		.loc 1 131 1 is_stmt 0
 608 03bc 17050000 		ld	a0,.LANCHOR0+56
 608      03350500 
 609 03c4 13351500 		seqz	a0,a0
 610 03c8 03348100 		ld	s0,8(sp)
 611              		.cfi_restore 8
 612              		.cfi_def_cfa 2, 16
 613 03cc 13010101 		addi	sp,sp,16
 614              		.cfi_def_cfa_offset 0
 615 03d0 67800000 		jr	ra
 616              		.cfi_endproc
 617              	.LFE34:
 619              		.align	2
 620              		.globl	_ZN8KConsole23sendCharactersToConsoleEPv
GAS LISTING /tmp/ccw50fL6.s 			page 15


 622              	_ZN8KConsole23sendCharactersToConsoleEPv:
 623              	.LFB27:
  44:src/KConsole.cpp ****     while(true)
 624              		.loc 1 44 1 is_stmt 1
 625              		.cfi_startproc
 626              	.LVL40:
 627 03d4 130101FE 		addi	sp,sp,-32
 628              		.cfi_def_cfa_offset 32
 629 03d8 233C1100 		sd	ra,24(sp)
 630 03dc 23388100 		sd	s0,16(sp)
 631              		.cfi_offset 1, -8
 632              		.cfi_offset 8, -16
 633 03e0 13040102 		addi	s0,sp,32
 634              		.cfi_def_cfa 8, 0
 635 03e4 6F008001 		j	.L48
 636              	.LVL41:
 637              	.L53:
 638              	.LBB6:
  48:src/KConsole.cpp **** 
 639              		.loc 1 48 17
  48:src/KConsole.cpp **** 
 640              		.loc 1 48 28 is_stmt 0
 641 03e8 97000000 		call	_Z11thread_exitv@plt
 641      E7800000 
 642              	.LVL42:
 643 03f0 6F004003 		j	.L49
 644              	.LVL43:
 645              	.L50:
 646              	.LBB7:
  59:src/KConsole.cpp ****             }
 647              		.loc 1 59 17 is_stmt 1
  59:src/KConsole.cpp ****             }
 648              		.loc 1 59 32 is_stmt 0
 649 03f4 97000000 		call	_Z15thread_dispatchv@plt
 649      E7800000 
 650              	.LVL44:
 651              	.L48:
 652              	.LBE7:
 653              	.LBE6:
  45:src/KConsole.cpp ****     {
 654              		.loc 1 45 5 is_stmt 1
 655              	.LBB10:
  47:src/KConsole.cpp ****                 thread_exit();
 656              		.loc 1 47 13
  47:src/KConsole.cpp ****                 thread_exit();
 657              		.loc 1 47 69 is_stmt 0
 658 03fc 97070000 		la	a5,_ZN5Riscv12finishSystemE
 658      83B70700 
 659 0404 83C70700 		lbu	a5,0(a5)
 660 0408 638E0700 		beqz	a5,.L49
  47:src/KConsole.cpp ****                 thread_exit();
 661              		.loc 1 47 66 discriminator 1
 662 040c 97000000 		call	_ZN8KConsole17outputBufferEmptyEv
 662      E7800000 
 663              	.LVL45:
  47:src/KConsole.cpp ****                 thread_exit();
 664              		.loc 1 47 36 discriminator 1
GAS LISTING /tmp/ccw50fL6.s 			page 16


 665 0414 63080500 		beqz	a0,.L49
  47:src/KConsole.cpp ****                 thread_exit();
 666              		.loc 1 47 84 discriminator 3
 667 0418 97070000 		ld	a5,.LANCHOR0+32
 667      83B70700 
  47:src/KConsole.cpp ****                 thread_exit();
 668              		.loc 1 47 69 discriminator 3
 669 0420 E38407FC 		beqz	a5,.L53
 670              	.L49:
  50:src/KConsole.cpp ****             if ((operation & STATUS_WRITE_MASK) && pendingPutc > 0)
 671              		.loc 1 50 13 is_stmt 1
  50:src/KConsole.cpp ****             if ((operation & STATUS_WRITE_MASK) && pendingPutc > 0)
 672              		.loc 1 50 32 is_stmt 0
 673 0424 97070000 		la	a5,CONSOLE_STATUS
 673      83B70700 
 674 042c 83B70700 		ld	a5,0(a5)
 675 0430 83C70700 		lbu	a5,0(a5)
 676              	.LVL46:
  51:src/KConsole.cpp ****             {
 677              		.loc 1 51 13 is_stmt 1
 678              	.LBB9:
 679 0434 93F70702 		andi	a5,a5,32
 680              	.LVL47:
 681 0438 E38E07FA 		beqz	a5,.L50
  51:src/KConsole.cpp ****             {
 682              		.loc 1 51 64 is_stmt 0 discriminator 1
 683 043c 97070000 		ld	a5,.LANCHOR0+56
 683      83B70700 
  51:src/KConsole.cpp ****             {
 684              		.loc 1 51 49 discriminator 1
 685 0444 E38807FA 		beqz	a5,.L50
 686              	.LBB8:
  53:src/KConsole.cpp ****                 pendingPutc--;
 687              		.loc 1 53 17 is_stmt 1
  53:src/KConsole.cpp ****                 pendingPutc--;
 688              		.loc 1 53 55 is_stmt 0
 689 0448 97000000 		call	_Z20sysCallGetCharOutputv@plt
 689      E7800000 
 690              	.LVL48:
  53:src/KConsole.cpp ****                 pendingPutc--;
 691              		.loc 1 53 56
 692 0450 A307A4FE 		sb	a0,-17(s0)
  54:src/KConsole.cpp ****                 *(uint8*)CONSOLE_RX_DATA = c;
 693              		.loc 1 54 17 is_stmt 1
  54:src/KConsole.cpp ****                 *(uint8*)CONSOLE_RX_DATA = c;
 694              		.loc 1 54 28 is_stmt 0
 695 0454 17070000 		lla	a4,.LANCHOR0
 695      13070700 
 696 045c 83378703 		ld	a5,56(a4)
 697 0460 9387F7FF 		addi	a5,a5,-1
 698 0464 233CF702 		sd	a5,56(a4)
  55:src/KConsole.cpp ****             }
 699              		.loc 1 55 17 is_stmt 1
 700 0468 97070000 		la	a5,CONSOLE_RX_DATA
 700      83B70700 
 701 0470 83B70700 		ld	a5,0(a5)
  55:src/KConsole.cpp ****             }
GAS LISTING /tmp/ccw50fL6.s 			page 17


 702              		.loc 1 55 42 is_stmt 0
 703 0474 0347F4FE 		lbu	a4,-17(s0)
 704 0478 2380E700 		sb	a4,0(a5)
 705              	.LBE8:
  55:src/KConsole.cpp ****             }
 706              		.loc 1 55 45
 707 047c 6FF01FF8 		j	.L48
 708              	.LBE9:
 709              	.LBE10:
 710              		.cfi_endproc
 711              	.LFE27:
 713              		.align	2
 714              		.globl	_ZN8KConsole14getCharHandlerEv
 716              	_ZN8KConsole14getCharHandlerEv:
 717              	.LFB35:
 132:src/KConsole.cpp **** 
 133:src/KConsole.cpp **** void KConsole::getCharHandler()
 134:src/KConsole.cpp **** {
 718              		.loc 1 134 1 is_stmt 1
 719              		.cfi_startproc
 720 0480 130101FF 		addi	sp,sp,-16
 721              		.cfi_def_cfa_offset 16
 722 0484 23341100 		sd	ra,8(sp)
 723 0488 23308100 		sd	s0,0(sp)
 724              		.cfi_offset 1, -8
 725              		.cfi_offset 8, -16
 726 048c 13040101 		addi	s0,sp,16
 727              		.cfi_def_cfa 8, 0
 135:src/KConsole.cpp ****     char ch;
 728              		.loc 1 135 5
 136:src/KConsole.cpp ****     ch = getCharacterOutput();
 729              		.loc 1 136 5
 730              		.loc 1 136 28 is_stmt 0
 731 0490 97000000 		call	_ZN8KConsole18getCharacterOutputEv
 731      E7800000 
 732              	.LVL49:
 137:src/KConsole.cpp ****     __asm__ volatile("mv a0, %0" : :"r"((uint64)ch));
 733              		.loc 1 137 5 is_stmt 1
 734              		.loc 1 137 53 is_stmt 0
 735              	#APP
 736              	# 137 "src/KConsole.cpp" 1
 138              	    Riscv::w_a0_sscratch();
 737              		mv a0, a0
 738              	# 0 "" 2
 739              		.loc 1 138 5 is_stmt 1
 740              		.loc 1 138 25 is_stmt 0
 741              	#NO_APP
 742 049c 97000000 		call	_ZN5Riscv13w_a0_sscratchEv@plt
 742      E7800000 
 743              	.LVL50:
 139:src/KConsole.cpp **** }
 744              		.loc 1 139 1
 745 04a4 83308100 		ld	ra,8(sp)
 746              		.cfi_restore 1
 747 04a8 03340100 		ld	s0,0(sp)
 748              		.cfi_restore 8
 749              		.cfi_def_cfa 2, 16
GAS LISTING /tmp/ccw50fL6.s 			page 18


 750 04ac 13010101 		addi	sp,sp,16
 751              		.cfi_def_cfa_offset 0
 752 04b0 67800000 		jr	ra
 753              		.cfi_endproc
 754              	.LFE35:
 756              		.align	2
 757              		.globl	_ZN8KConsole15trapPrintStringEPKc
 759              	_ZN8KConsole15trapPrintStringEPKc:
 760              	.LFB36:
 140:src/KConsole.cpp **** 
 141:src/KConsole.cpp **** void KConsole::trapPrintString(const char *string)
 142:src/KConsole.cpp **** {
 761              		.loc 1 142 1 is_stmt 1
 762              		.cfi_startproc
 763              	.LVL51:
 764 04b4 130101FE 		addi	sp,sp,-32
 765              		.cfi_def_cfa_offset 32
 766 04b8 233C1100 		sd	ra,24(sp)
 767 04bc 23388100 		sd	s0,16(sp)
 768 04c0 23349100 		sd	s1,8(sp)
 769              		.cfi_offset 1, -8
 770              		.cfi_offset 8, -16
 771              		.cfi_offset 9, -24
 772 04c4 13040102 		addi	s0,sp,32
 773              		.cfi_def_cfa 8, 0
 774 04c8 93040500 		mv	s1,a0
 775              	.LVL52:
 776              	.L58:
 143:src/KConsole.cpp ****     while (*string != '\0')
 777              		.loc 1 143 5
 778              		.loc 1 143 20
 779              		.loc 1 143 12 is_stmt 0
 780 04cc 03C50400 		lbu	a0,0(s1)
 781              		.loc 1 143 20
 782 04d0 630A0500 		beqz	a0,.L56
 144:src/KConsole.cpp ****     {
 145:src/KConsole.cpp ****         KConsole::putCharacterOutput(*string);
 783              		.loc 1 145 9 is_stmt 1
 784              		.loc 1 145 37 is_stmt 0
 785 04d4 97000000 		call	_ZN8KConsole18putCharacterOutputEc
 785      E7800000 
 786              	.LVL53:
 146:src/KConsole.cpp ****         string++;
 787              		.loc 1 146 9 is_stmt 1
 788              		.loc 1 146 15 is_stmt 0
 789 04dc 93841400 		addi	s1,s1,1
 790              	.LVL54:
 143:src/KConsole.cpp ****     while (*string != '\0')
 791              		.loc 1 143 5
 792 04e0 6FF0DFFE 		j	.L58
 793              	.L56:
 147:src/KConsole.cpp ****     }
 148:src/KConsole.cpp **** }
 794              		.loc 1 148 1
 795 04e4 83308101 		ld	ra,24(sp)
 796              		.cfi_restore 1
 797 04e8 03340101 		ld	s0,16(sp)
GAS LISTING /tmp/ccw50fL6.s 			page 19


 798              		.cfi_restore 8
 799              		.cfi_def_cfa 2, 32
 800 04ec 83348100 		ld	s1,8(sp)
 801              		.cfi_restore 9
 802              	.LVL55:
 803 04f0 13010102 		addi	sp,sp,32
 804              		.cfi_def_cfa_offset 0
 805 04f4 67800000 		jr	ra
 806              		.cfi_endproc
 807              	.LFE36:
 809              		.section	.rodata.str1.8,"aMS",@progbits,1
 810              		.align	3
 811              	.LC0:
 812 0000 30313233 		.string	"0123456789ABCDEF"
 812      34353637 
 812      38394142 
 812      43444546 
 812      00
 813              		.text
 814              		.align	2
 815              		.globl	_ZN8KConsole12trapPrintIntEmii
 817              	_ZN8KConsole12trapPrintIntEmii:
 818              	.LFB37:
 149:src/KConsole.cpp **** 
 150:src/KConsole.cpp **** void KConsole::trapPrintInt(size_t xx, int base, int sgn)
 151:src/KConsole.cpp **** {
 819              		.loc 1 151 1 is_stmt 1
 820              		.cfi_startproc
 821              	.LVL56:
 822 04f8 130101FB 		addi	sp,sp,-80
 823              		.cfi_def_cfa_offset 80
 824 04fc 23341104 		sd	ra,72(sp)
 825 0500 23308104 		sd	s0,64(sp)
 826 0504 233C9102 		sd	s1,56(sp)
 827              		.cfi_offset 1, -8
 828              		.cfi_offset 8, -16
 829              		.cfi_offset 9, -24
 830 0508 13040105 		addi	s0,sp,80
 831              		.cfi_def_cfa 8, 0
 152:src/KConsole.cpp ****     char digits[] = "0123456789ABCDEF";
 832              		.loc 1 152 5
 833              		.loc 1 152 10 is_stmt 0
 834 050c 97070000 		lla	a5,.LC0
 834      93870700 
 835 0514 03B70700 		ld	a4,0(a5)
 836 0518 2334E4FC 		sd	a4,-56(s0)
 837 051c 03B78700 		ld	a4,8(a5)
 838 0520 2338E4FC 		sd	a4,-48(s0)
 839 0524 83C70701 		lbu	a5,16(a5)
 840 0528 230CF4FC 		sb	a5,-40(s0)
 153:src/KConsole.cpp ****     char buf[16];
 841              		.loc 1 153 5 is_stmt 1
 154:src/KConsole.cpp ****     int i, neg;
 842              		.loc 1 154 5
 155:src/KConsole.cpp ****     size_t x;
 843              		.loc 1 155 5
 156:src/KConsole.cpp **** 
GAS LISTING /tmp/ccw50fL6.s 			page 20


 157:src/KConsole.cpp ****     neg = 0;
 844              		.loc 1 157 5
 845              	.LVL57:
 158:src/KConsole.cpp ****     if(sgn && xx < 0) {
 846              		.loc 1 158 5
 159:src/KConsole.cpp ****         neg = 1;
 160:src/KConsole.cpp ****         x = -xx;
 161:src/KConsole.cpp ****     } else {
 162:src/KConsole.cpp ****         x = xx;
 847              		.loc 1 162 9
 163:src/KConsole.cpp ****     }
 164:src/KConsole.cpp **** 
 165:src/KConsole.cpp ****     i = 0;
 848              		.loc 1 165 5
 849              		.loc 1 165 7 is_stmt 0
 850 052c 93040000 		li	s1,0
 851              	.LVL58:
 852              	.L61:
 166:src/KConsole.cpp ****     do {
 853              		.loc 1 166 5 is_stmt 1
 167:src/KConsole.cpp ****         buf[i++] = digits[x % base];
 854              		.loc 1 167 9
 855              		.loc 1 167 29 is_stmt 0
 856 0530 3377B502 		remu	a4,a0,a1
 857              	.LVL59:
 858              		.loc 1 167 35
 859 0534 930604FE 		addi	a3,s0,-32
 860 0538 3387E600 		add	a4,a3,a4
 861 053c 034787FE 		lbu	a4,-24(a4)
 862              		.loc 1 167 18
 863 0540 B3879600 		add	a5,a3,s1
 864 0544 9B841400 		addiw	s1,s1,1
 865              	.LVL60:
 866 0548 238CE7FC 		sb	a4,-40(a5)
 168:src/KConsole.cpp ****     }while((x /= base) != 0);
 867              		.loc 1 168 24 is_stmt 1
 868 054c 93070500 		mv	a5,a0
 869              		.loc 1 168 15 is_stmt 0
 870 0550 3355B502 		divu	a0,a0,a1
 871              	.LVL61:
 872              		.loc 1 168 24
 873 0554 E3FEB7FC 		bleu	a1,a5,.L61
 874              	.LVL62:
 875              	.L63:
 169:src/KConsole.cpp ****     if(neg)
 170:src/KConsole.cpp ****         buf[i++] = '-';
 171:src/KConsole.cpp **** 
 172:src/KConsole.cpp ****     while(--i >= 0)
 876              		.loc 1 172 5 is_stmt 1
 877              		.loc 1 172 15
 878 0558 9B84F4FF 		addiw	s1,s1,-1
 879              	.LVL63:
 880 055c 63CE0400 		bltz	s1,.L60
 173:src/KConsole.cpp ****         KConsole::putCharacterOutput(buf[i]);
 881              		.loc 1 173 9
 882              		.loc 1 173 37 is_stmt 0
 883 0560 930704FE 		addi	a5,s0,-32
GAS LISTING /tmp/ccw50fL6.s 			page 21


 884 0564 B3879700 		add	a5,a5,s1
 885 0568 03C587FD 		lbu	a0,-40(a5)
 886 056c 97000000 		call	_ZN8KConsole18putCharacterOutputEc
 886      E7800000 
 887              	.LVL64:
 888 0574 6FF05FFE 		j	.L63
 889              	.L60:
 174:src/KConsole.cpp **** }
 890              		.loc 1 174 1
 891 0578 83308104 		ld	ra,72(sp)
 892              		.cfi_restore 1
 893 057c 03340104 		ld	s0,64(sp)
 894              		.cfi_restore 8
 895              		.cfi_def_cfa 2, 80
 896 0580 83348103 		ld	s1,56(sp)
 897              		.cfi_restore 9
 898 0584 13010105 		addi	sp,sp,80
 899              		.cfi_def_cfa_offset 0
 900 0588 67800000 		jr	ra
 901              		.cfi_endproc
 902              	.LFE37:
 904              		.section	.rodata.str1.8
 905 0011 00000000 		.align	3
 905      000000
 906              	.LC1:
 907 0018 0A00     		.string	"\n"
 908              		.text
 909              		.align	2
 910              		.globl	_ZN8KConsole18trapPrintStringIntEPKcmi
 912              	_ZN8KConsole18trapPrintStringIntEPKcmi:
 913              	.LFB38:
 175:src/KConsole.cpp **** 
 176:src/KConsole.cpp **** void KConsole::trapPrintStringInt(const char *string, size_t xx, int base)
 177:src/KConsole.cpp **** {
 914              		.loc 1 177 1 is_stmt 1
 915              		.cfi_startproc
 916              	.LVL65:
 917 058c 130101FE 		addi	sp,sp,-32
 918              		.cfi_def_cfa_offset 32
 919 0590 233C1100 		sd	ra,24(sp)
 920 0594 23388100 		sd	s0,16(sp)
 921 0598 23349100 		sd	s1,8(sp)
 922 059c 23302101 		sd	s2,0(sp)
 923              		.cfi_offset 1, -8
 924              		.cfi_offset 8, -16
 925              		.cfi_offset 9, -24
 926              		.cfi_offset 18, -32
 927 05a0 13040102 		addi	s0,sp,32
 928              		.cfi_def_cfa 8, 0
 929 05a4 93840500 		mv	s1,a1
 930 05a8 13090600 		mv	s2,a2
 178:src/KConsole.cpp ****     trapPrintString(string);
 931              		.loc 1 178 5
 932              		.loc 1 178 20 is_stmt 0
 933 05ac 97000000 		call	_ZN8KConsole15trapPrintStringEPKc
 933      E7800000 
 934              	.LVL66:
GAS LISTING /tmp/ccw50fL6.s 			page 22


 179:src/KConsole.cpp ****     trapPrintInt(xx,base);
 935              		.loc 1 179 5 is_stmt 1
 936              		.loc 1 179 17 is_stmt 0
 937 05b4 13060000 		li	a2,0
 938 05b8 93050900 		mv	a1,s2
 939 05bc 13850400 		mv	a0,s1
 940 05c0 97000000 		call	_ZN8KConsole12trapPrintIntEmii
 940      E7800000 
 941              	.LVL67:
 180:src/KConsole.cpp ****     trapPrintString("\n");
 942              		.loc 1 180 5 is_stmt 1
 943              		.loc 1 180 20 is_stmt 0
 944 05c8 17050000 		lla	a0,.LC1
 944      13050500 
 945 05d0 97000000 		call	_ZN8KConsole15trapPrintStringEPKc
 945      E7800000 
 946              	.LVL68:
 181:src/KConsole.cpp **** }
 947              		.loc 1 181 1
 948 05d8 83308101 		ld	ra,24(sp)
 949              		.cfi_restore 1
 950 05dc 03340101 		ld	s0,16(sp)
 951              		.cfi_restore 8
 952              		.cfi_def_cfa 2, 32
 953 05e0 83348100 		ld	s1,8(sp)
 954              		.cfi_restore 9
 955              	.LVL69:
 956 05e4 03390100 		ld	s2,0(sp)
 957              		.cfi_restore 18
 958 05e8 13010102 		addi	sp,sp,32
 959              		.cfi_def_cfa_offset 0
 960 05ec 67800000 		jr	ra
 961              		.cfi_endproc
 962              	.LFE38:
 964              		.globl	_ZN8KConsole11pendingPutcE
 965              		.globl	_ZN8KConsole12outputBufferE
 966              		.globl	_ZN8KConsole11inputBufferE
 967              		.globl	_ZN8KConsole11pendingGetcE
 968              		.globl	_ZN8KConsole18hasCharactersInputE
 969              		.globl	_ZN8KConsole19hasCharactersOutputE
 970              		.globl	_ZN8KConsole10outputTailE
 971              		.globl	_ZN8KConsole10outputHeadE
 972              		.globl	_ZN8KConsole9inputTailE
 973              		.globl	_ZN8KConsole9inputHeadE
 974              		.bss
 975              		.align	3
 976              		.set	.LANCHOR0,. + 0
 979              	_ZN8KConsole18hasCharactersInputE:
 980 0000 00000000 		.zero	8
 980      00000000 
 983              	_ZN8KConsole19hasCharactersOutputE:
 984 0008 00000000 		.zero	8
 984      00000000 
 987              	_ZN8KConsole9inputTailE:
 988 0010 00000000 		.zero	8
 988      00000000 
 991              	_ZN8KConsole9inputHeadE:
GAS LISTING /tmp/ccw50fL6.s 			page 23


 992 0018 00000000 		.zero	8
 992      00000000 
 995              	_ZN8KConsole11pendingGetcE:
 996 0020 00000000 		.zero	8
 996      00000000 
 999              	_ZN8KConsole10outputTailE:
 1000 0028 00000000 		.zero	8
 1000      00000000 
 1003              	_ZN8KConsole10outputHeadE:
 1004 0030 00000000 		.zero	8
 1004      00000000 
 1007              	_ZN8KConsole11pendingPutcE:
 1008 0038 00000000 		.zero	8
 1008      00000000 
 1011              	_ZN8KConsole12outputBufferE:
 1012 0040 00000000 		.zero	16384
 1012      00000000 
 1012      00000000 
 1012      00000000 
 1012      00000000 
 1015              	_ZN8KConsole11inputBufferE:
 1016 4040 00000000 		.zero	16384
 1016      00000000 
 1016      00000000 
 1016      00000000 
 1016      00000000 
 1017              		.text
 1018              	.Letext0:
 1019              		.file 2 "src/../h/../lib/hw.h"
 1020              		.file 3 "src/../h/PCB.hpp"
 1021              		.file 4 "src/../h/KSemaphore.hpp"
 1022              		.file 5 "src/../h/KConsole.hpp"
 1023              		.file 6 "src/../h/slabAllocator.hpp"
 1024              		.file 7 "src/../h/Riscv.hpp"
 1025              		.file 8 "src/../test/../h/syscall_c.hpp"
 4963              		.align	3
 4966              	DW.ref.__gxx_personality_v0:
 4967 0000 00000000 		.dword	__gxx_personality_v0
 4967      00000000 
 4968              		.ident	"GCC: (Ubuntu 9.4.0-1ubuntu1~20.04) 9.4.0"
 4969              		.section	.note.GNU-stack,"",@progbits
GAS LISTING /tmp/ccw50fL6.s 			page 24


DEFINED SYMBOLS
                            *ABS*:0000000000000000 KConsole.cpp
     /tmp/ccw50fL6.s:9      .text:0000000000000000 _ZN8KConsole10initializeEv
     /tmp/ccw50fL6.s:13     .text:0000000000000000 .L0 
     /tmp/ccw50fL6.s:4966   .data.rel.local.DW.ref.__gxx_personality_v0:0000000000000000 DW.ref.__gxx_personality_v0
     /tmp/ccw50fL6.s:16     .text:0000000000000000 .L0 
     /tmp/ccw50fL6.s:17     .text:0000000000000004 .L0 
     /tmp/ccw50fL6.s:22     .text:0000000000000014 .L0 
     /tmp/ccw50fL6.s:23     .text:0000000000000014 .L0 
     /tmp/ccw50fL6.s:24     .text:0000000000000014 .L0 
     /tmp/ccw50fL6.s:25     .text:0000000000000014 .L0 
     /tmp/ccw50fL6.s:27     .text:0000000000000018 .L0 
     /tmp/ccw50fL6.s:29     .text:0000000000000018 .L0 
     /tmp/ccw50fL6.s:30     .text:0000000000000018 .L0 
     /tmp/ccw50fL6.s:38     .text:000000000000002c .L0 
     /tmp/ccw50fL6.s:45     .text:0000000000000038 .L0 
     /tmp/ccw50fL6.s:47     .text:0000000000000040 .L0 
     /tmp/ccw50fL6.s:48     .text:0000000000000040 .L0 
     /tmp/ccw50fL6.s:56     .text:0000000000000054 .L0 
     /tmp/ccw50fL6.s:63     .text:0000000000000060 .L0 
     /tmp/ccw50fL6.s:65     .text:0000000000000068 .L0 
     /tmp/ccw50fL6.s:66     .text:000000000000006c .L0 
     /tmp/ccw50fL6.s:67     .text:000000000000006c .L0 
     /tmp/ccw50fL6.s:69     .text:0000000000000070 .L0 
     /tmp/ccw50fL6.s:70     .text:0000000000000070 .L0 
     /tmp/ccw50fL6.s:72     .text:0000000000000074 .L0 
     /tmp/ccw50fL6.s:74     .text:0000000000000078 .L0 
     /tmp/ccw50fL6.s:76     .text:000000000000007c .L0 
     /tmp/ccw50fL6.s:79     .text:0000000000000080 .L0 
     /tmp/ccw50fL6.s:82     .text:0000000000000084 .L0 
     /tmp/ccw50fL6.s:93     .text:00000000000000a0 .L0 
     /tmp/ccw50fL6.s:101    .text:00000000000000b8 .L0 
     /tmp/ccw50fL6.s:139    .text:00000000000000b8 _ZN8KConsole17putCharacterInputEc
     /tmp/ccw50fL6.s:142    .text:00000000000000b8 .L0 
     /tmp/ccw50fL6.s:144    .text:00000000000000b8 .L0 
     /tmp/ccw50fL6.s:145    .text:00000000000000b8 .L0 
     /tmp/ccw50fL6.s:146    .text:00000000000000b8 .L0 
     /tmp/ccw50fL6.s:150    .text:00000000000000c8 .L0 
     /tmp/ccw50fL6.s:154    .text:00000000000000d4 .L0 
     /tmp/ccw50fL6.s:156    .text:00000000000000d8 .L0 
     /tmp/ccw50fL6.s:158    .text:00000000000000dc .L0 
     /tmp/ccw50fL6.s:159    .text:00000000000000e0 .L0 
     /tmp/ccw50fL6.s:162    .text:00000000000000e8 .L0 
     /tmp/ccw50fL6.s:163    .text:00000000000000e8 .L0 
     /tmp/ccw50fL6.s:165    .text:00000000000000ec .L0 
     /tmp/ccw50fL6.s:167    .text:00000000000000ec .L0 
     /tmp/ccw50fL6.s:1015   .bss:0000000000004040 _ZN8KConsole11inputBufferE
     /tmp/ccw50fL6.s:168    .text:00000000000000ec .L0 
     /tmp/ccw50fL6.s:172    .text:00000000000000fc .L0 
     /tmp/ccw50fL6.s:173    .text:00000000000000fc .L0 
     /tmp/ccw50fL6.s:175    .text:0000000000000100 .L0 
     /tmp/ccw50fL6.s:176    .text:0000000000000100 .L0 
     /tmp/ccw50fL6.s:181    .text:000000000000010c .L0 
     /tmp/ccw50fL6.s:182    .text:0000000000000110 .L0 
     /tmp/ccw50fL6.s:184    .text:0000000000000114 .L0 
     /tmp/ccw50fL6.s:185    .text:0000000000000114 .L0 
     /tmp/ccw50fL6.s:187    .text:0000000000000118 .L0 
GAS LISTING /tmp/ccw50fL6.s 			page 25


     /tmp/ccw50fL6.s:192    .text:0000000000000120 .L0 
     /tmp/ccw50fL6.s:198    .text:0000000000000120 _ZN8KConsole24getCharactersFromConsoleEv
     /tmp/ccw50fL6.s:201    .text:0000000000000120 .L0 
     /tmp/ccw50fL6.s:202    .text:0000000000000120 .L0 
     /tmp/ccw50fL6.s:203    .text:0000000000000120 .L0 
     /tmp/ccw50fL6.s:204    .text:0000000000000120 .L0 
     /tmp/ccw50fL6.s:210    .text:0000000000000130 .L0 
     /tmp/ccw50fL6.s:215    .text:0000000000000138 .L0 
     /tmp/ccw50fL6.s:216    .text:0000000000000138 .L0 
     /tmp/ccw50fL6.s:219    .text:0000000000000144 .L0 
     /tmp/ccw50fL6.s:222    .text:0000000000000148 .L0 
     /tmp/ccw50fL6.s:223    .text:0000000000000148 .L0 
     /tmp/ccw50fL6.s:225    .text:0000000000000150 .L0 
     /tmp/ccw50fL6.s:234    .text:0000000000000158 .L0 
     /tmp/ccw50fL6.s:235    .text:000000000000015c .L0 
     /tmp/ccw50fL6.s:239    .text:0000000000000164 .L0 
     /tmp/ccw50fL6.s:240    .text:0000000000000164 .L0 
     /tmp/ccw50fL6.s:242    .text:0000000000000168 .L0 
     /tmp/ccw50fL6.s:246    .text:0000000000000168 .L0 
     /tmp/ccw50fL6.s:247    .text:0000000000000168 .L0 
     /tmp/ccw50fL6.s:250    .text:0000000000000174 .L0 
     /tmp/ccw50fL6.s:251    .text:0000000000000174 .L0 
     /tmp/ccw50fL6.s:256    .text:000000000000017c .L0 
     /tmp/ccw50fL6.s:257    .text:0000000000000180 .L0 
     /tmp/ccw50fL6.s:259    .text:0000000000000184 .L0 
     /tmp/ccw50fL6.s:260    .text:0000000000000184 .L0 
     /tmp/ccw50fL6.s:262    .text:0000000000000188 .L0 
     /tmp/ccw50fL6.s:264    .text:000000000000018c .L0 
     /tmp/ccw50fL6.s:270    .text:000000000000018c _ZN8KConsole17getCharacterInputEv
     /tmp/ccw50fL6.s:273    .text:000000000000018c .L0 
     /tmp/ccw50fL6.s:274    .text:000000000000018c .L0 
     /tmp/ccw50fL6.s:275    .text:0000000000000190 .L0 
     /tmp/ccw50fL6.s:279    .text:000000000000019c .L0 
     /tmp/ccw50fL6.s:280    .text:000000000000019c .L0 
     /tmp/ccw50fL6.s:281    .text:000000000000019c .L0 
     /tmp/ccw50fL6.s:283    .text:00000000000001a0 .L0 
     /tmp/ccw50fL6.s:285    .text:00000000000001a0 .L0 
     /tmp/ccw50fL6.s:286    .text:00000000000001a0 .L0 
     /tmp/ccw50fL6.s:291    .text:00000000000001b4 .L0 
     /tmp/ccw50fL6.s:292    .text:00000000000001b4 .L0 
     /tmp/ccw50fL6.s:295    .text:00000000000001bc .L0 
     /tmp/ccw50fL6.s:297    .text:00000000000001c0 .L0 
     /tmp/ccw50fL6.s:298    .text:00000000000001c0 .L0 
     /tmp/ccw50fL6.s:303    .text:00000000000001d0 .L0 
     /tmp/ccw50fL6.s:304    .text:00000000000001d0 .L0 
     /tmp/ccw50fL6.s:306    .text:00000000000001d4 .L0 
     /tmp/ccw50fL6.s:310    .text:00000000000001e0 .L0 
     /tmp/ccw50fL6.s:314    .text:00000000000001e8 .L0 
     /tmp/ccw50fL6.s:315    .text:00000000000001e8 .L0 
     /tmp/ccw50fL6.s:316    .text:00000000000001ec .L0 
     /tmp/ccw50fL6.s:317    .text:00000000000001ec .L0 
     /tmp/ccw50fL6.s:319    .text:00000000000001f0 .L0 
     /tmp/ccw50fL6.s:320    .text:00000000000001f0 .L0 
     /tmp/ccw50fL6.s:322    .text:00000000000001f4 .L0 
     /tmp/ccw50fL6.s:324    .text:00000000000001f8 .L0 
     /tmp/ccw50fL6.s:327    .text:00000000000001fc .L0 
     /tmp/ccw50fL6.s:329    .text:00000000000001fc .L0 
GAS LISTING /tmp/ccw50fL6.s 			page 26


     /tmp/ccw50fL6.s:331    .text:0000000000000204 .L0 
     /tmp/ccw50fL6.s:337    .text:0000000000000204 _ZN8KConsole18putCharacterOutputEc
     /tmp/ccw50fL6.s:340    .text:0000000000000204 .L0 
     /tmp/ccw50fL6.s:342    .text:0000000000000204 .L0 
     /tmp/ccw50fL6.s:343    .text:0000000000000204 .L0 
     /tmp/ccw50fL6.s:344    .text:0000000000000204 .L0 
     /tmp/ccw50fL6.s:348    .text:0000000000000214 .L0 
     /tmp/ccw50fL6.s:352    .text:0000000000000220 .L0 
     /tmp/ccw50fL6.s:354    .text:0000000000000224 .L0 
     /tmp/ccw50fL6.s:356    .text:0000000000000228 .L0 
     /tmp/ccw50fL6.s:357    .text:000000000000022c .L0 
     /tmp/ccw50fL6.s:360    .text:0000000000000234 .L0 
     /tmp/ccw50fL6.s:361    .text:0000000000000234 .L0 
     /tmp/ccw50fL6.s:363    .text:0000000000000238 .L0 
     /tmp/ccw50fL6.s:365    .text:0000000000000238 .L0 
     /tmp/ccw50fL6.s:366    .text:0000000000000238 .L0 
     /tmp/ccw50fL6.s:371    .text:0000000000000248 .L0 
     /tmp/ccw50fL6.s:1011   .bss:0000000000000040 _ZN8KConsole12outputBufferE
     /tmp/ccw50fL6.s:372    .text:0000000000000248 .L0 
     /tmp/ccw50fL6.s:376    .text:0000000000000258 .L0 
     /tmp/ccw50fL6.s:377    .text:0000000000000258 .L0 
     /tmp/ccw50fL6.s:379    .text:000000000000025c .L0 
     /tmp/ccw50fL6.s:380    .text:000000000000025c .L0 
     /tmp/ccw50fL6.s:385    .text:0000000000000268 .L0 
     /tmp/ccw50fL6.s:386    .text:000000000000026c .L0 
     /tmp/ccw50fL6.s:388    .text:0000000000000270 .L0 
     /tmp/ccw50fL6.s:389    .text:0000000000000270 .L0 
     /tmp/ccw50fL6.s:391    .text:0000000000000274 .L0 
     /tmp/ccw50fL6.s:396    .text:000000000000027c .L0 
     /tmp/ccw50fL6.s:402    .text:000000000000027c _ZN8KConsole18getCharacterOutputEv
     /tmp/ccw50fL6.s:405    .text:000000000000027c .L0 
     /tmp/ccw50fL6.s:406    .text:000000000000027c .L0 
     /tmp/ccw50fL6.s:407    .text:0000000000000280 .L0 
     /tmp/ccw50fL6.s:411    .text:000000000000028c .L0 
     /tmp/ccw50fL6.s:412    .text:000000000000028c .L0 
     /tmp/ccw50fL6.s:413    .text:000000000000028c .L0 
     /tmp/ccw50fL6.s:415    .text:0000000000000290 .L0 
     /tmp/ccw50fL6.s:417    .text:0000000000000290 .L0 
     /tmp/ccw50fL6.s:418    .text:0000000000000290 .L0 
     /tmp/ccw50fL6.s:423    .text:00000000000002a4 .L0 
     /tmp/ccw50fL6.s:424    .text:00000000000002a4 .L0 
     /tmp/ccw50fL6.s:427    .text:00000000000002ac .L0 
     /tmp/ccw50fL6.s:429    .text:00000000000002b0 .L0 
     /tmp/ccw50fL6.s:430    .text:00000000000002b0 .L0 
     /tmp/ccw50fL6.s:435    .text:00000000000002c0 .L0 
     /tmp/ccw50fL6.s:436    .text:00000000000002c0 .L0 
     /tmp/ccw50fL6.s:438    .text:00000000000002c4 .L0 
     /tmp/ccw50fL6.s:442    .text:00000000000002d0 .L0 
     /tmp/ccw50fL6.s:446    .text:00000000000002d8 .L0 
     /tmp/ccw50fL6.s:447    .text:00000000000002d8 .L0 
     /tmp/ccw50fL6.s:448    .text:00000000000002dc .L0 
     /tmp/ccw50fL6.s:449    .text:00000000000002dc .L0 
     /tmp/ccw50fL6.s:451    .text:00000000000002e0 .L0 
     /tmp/ccw50fL6.s:452    .text:00000000000002e0 .L0 
     /tmp/ccw50fL6.s:454    .text:00000000000002e4 .L0 
     /tmp/ccw50fL6.s:456    .text:00000000000002e8 .L0 
     /tmp/ccw50fL6.s:459    .text:00000000000002ec .L0 
GAS LISTING /tmp/ccw50fL6.s 			page 27


     /tmp/ccw50fL6.s:461    .text:00000000000002ec .L0 
     /tmp/ccw50fL6.s:463    .text:00000000000002f4 .L0 
     /tmp/ccw50fL6.s:469    .text:00000000000002f4 _ZN8KConsole11putcHandlerEv
     /tmp/ccw50fL6.s:472    .text:00000000000002f4 .L0 
     /tmp/ccw50fL6.s:473    .text:00000000000002f4 .L0 
     /tmp/ccw50fL6.s:474    .text:00000000000002f8 .L0 
     /tmp/ccw50fL6.s:477    .text:0000000000000300 .L0 
     /tmp/ccw50fL6.s:478    .text:0000000000000300 .L0 
     /tmp/ccw50fL6.s:480    .text:0000000000000304 .L0 
     /tmp/ccw50fL6.s:482    .text:0000000000000304 .L0 
     /tmp/ccw50fL6.s:483    .text:0000000000000304 .L0 
    src/KConsole.cpp:106    .text:0000000000000304 .L0 
     /tmp/ccw50fL6.s:490    .text:0000000000000308 .L0 
     /tmp/ccw50fL6.s:492    .text:0000000000000308 .L0 
     /tmp/ccw50fL6.s:497    .text:0000000000000314 .L0 
     /tmp/ccw50fL6.s:498    .text:0000000000000318 .L0 
     /tmp/ccw50fL6.s:500    .text:000000000000031c .L0 
     /tmp/ccw50fL6.s:501    .text:000000000000031c .L0 
     /tmp/ccw50fL6.s:503    .text:0000000000000320 .L0 
     /tmp/ccw50fL6.s:505    .text:0000000000000324 .L0 
     /tmp/ccw50fL6.s:511    .text:0000000000000324 _ZN8KConsole11getcHandlerEv
     /tmp/ccw50fL6.s:514    .text:0000000000000324 .L0 
     /tmp/ccw50fL6.s:515    .text:0000000000000324 .L0 
     /tmp/ccw50fL6.s:516    .text:0000000000000328 .L0 
     /tmp/ccw50fL6.s:520    .text:0000000000000334 .L0 
     /tmp/ccw50fL6.s:521    .text:0000000000000334 .L0 
     /tmp/ccw50fL6.s:522    .text:0000000000000334 .L0 
     /tmp/ccw50fL6.s:524    .text:0000000000000338 .L0 
     /tmp/ccw50fL6.s:526    .text:0000000000000338 .L0 
     /tmp/ccw50fL6.s:527    .text:0000000000000338 .L0 
     /tmp/ccw50fL6.s:532    .text:000000000000034c .L0 
     /tmp/ccw50fL6.s:533    .text:000000000000034c .L0 
     /tmp/ccw50fL6.s:534    .text:000000000000034c .L0 
     /tmp/ccw50fL6.s:539    .text:0000000000000358 .L0 
     /tmp/ccw50fL6.s:544    .text:0000000000000360 .L0 
     /tmp/ccw50fL6.s:548    .text:0000000000000368 .L0 
    src/KConsole.cpp:124    .text:0000000000000368 .L0 
     /tmp/ccw50fL6.s:554    .text:000000000000036c .L0 
     /tmp/ccw50fL6.s:556    .text:000000000000036c .L0 
     /tmp/ccw50fL6.s:559    .text:0000000000000374 .L0 
     /tmp/ccw50fL6.s:560    .text:0000000000000378 .L0 
     /tmp/ccw50fL6.s:561    .text:0000000000000378 .L0 
     /tmp/ccw50fL6.s:563    .text:000000000000037c .L0 
     /tmp/ccw50fL6.s:564    .text:000000000000037c .L0 
     /tmp/ccw50fL6.s:566    .text:0000000000000380 .L0 
     /tmp/ccw50fL6.s:568    .text:0000000000000384 .L0 
     /tmp/ccw50fL6.s:572    .text:0000000000000388 .L0 
     /tmp/ccw50fL6.s:574    .text:0000000000000388 .L0 
     /tmp/ccw50fL6.s:575    .text:0000000000000388 .L0 
     /tmp/ccw50fL6.s:580    .text:0000000000000394 .L0 
     /tmp/ccw50fL6.s:581    .text:0000000000000394 .L0 
     /tmp/ccw50fL6.s:585    .text:00000000000003a0 .L0 
     /tmp/ccw50fL6.s:586    .text:00000000000003a0 .L0 
     /tmp/ccw50fL6.s:590    .text:00000000000003b0 .L0 
     /tmp/ccw50fL6.s:596    .text:00000000000003b0 _ZN8KConsole17outputBufferEmptyEv
     /tmp/ccw50fL6.s:599    .text:00000000000003b0 .L0 
     /tmp/ccw50fL6.s:600    .text:00000000000003b0 .L0 
GAS LISTING /tmp/ccw50fL6.s 			page 28


     /tmp/ccw50fL6.s:601    .text:00000000000003b4 .L0 
     /tmp/ccw50fL6.s:603    .text:00000000000003b8 .L0 
     /tmp/ccw50fL6.s:605    .text:00000000000003bc .L0 
     /tmp/ccw50fL6.s:607    .text:00000000000003bc .L0 
     /tmp/ccw50fL6.s:608    .text:00000000000003bc .L0 
     /tmp/ccw50fL6.s:611    .text:00000000000003cc .L0 
     /tmp/ccw50fL6.s:612    .text:00000000000003cc .L0 
     /tmp/ccw50fL6.s:614    .text:00000000000003d0 .L0 
     /tmp/ccw50fL6.s:616    .text:00000000000003d4 .L0 
     /tmp/ccw50fL6.s:622    .text:00000000000003d4 _ZN8KConsole23sendCharactersToConsoleEPv
     /tmp/ccw50fL6.s:625    .text:00000000000003d4 .L0 
     /tmp/ccw50fL6.s:627    .text:00000000000003d4 .L0 
     /tmp/ccw50fL6.s:628    .text:00000000000003d8 .L0 
     /tmp/ccw50fL6.s:631    .text:00000000000003e0 .L0 
     /tmp/ccw50fL6.s:632    .text:00000000000003e0 .L0 
     /tmp/ccw50fL6.s:634    .text:00000000000003e4 .L0 
     /tmp/ccw50fL6.s:640    .text:00000000000003e8 .L0 
     /tmp/ccw50fL6.s:641    .text:00000000000003e8 .L0 
     /tmp/ccw50fL6.s:648    .text:00000000000003f4 .L0 
     /tmp/ccw50fL6.s:649    .text:00000000000003f4 .L0 
     /tmp/ccw50fL6.s:656    .text:00000000000003fc .L0 
     /tmp/ccw50fL6.s:657    .text:00000000000003fc .L0 
     /tmp/ccw50fL6.s:658    .text:00000000000003fc .L0 
     /tmp/ccw50fL6.s:662    .text:000000000000040c .L0 
     /tmp/ccw50fL6.s:665    .text:0000000000000414 .L0 
     /tmp/ccw50fL6.s:667    .text:0000000000000418 .L0 
     /tmp/ccw50fL6.s:669    .text:0000000000000420 .L0 
     /tmp/ccw50fL6.s:672    .text:0000000000000424 .L0 
     /tmp/ccw50fL6.s:673    .text:0000000000000424 .L0 
     /tmp/ccw50fL6.s:679    .text:0000000000000434 .L0 
     /tmp/ccw50fL6.s:683    .text:000000000000043c .L0 
     /tmp/ccw50fL6.s:685    .text:0000000000000444 .L0 
     /tmp/ccw50fL6.s:688    .text:0000000000000448 .L0 
     /tmp/ccw50fL6.s:689    .text:0000000000000448 .L0 
     /tmp/ccw50fL6.s:692    .text:0000000000000450 .L0 
     /tmp/ccw50fL6.s:694    .text:0000000000000454 .L0 
     /tmp/ccw50fL6.s:695    .text:0000000000000454 .L0 
     /tmp/ccw50fL6.s:700    .text:0000000000000468 .L0 
     /tmp/ccw50fL6.s:703    .text:0000000000000474 .L0 
     /tmp/ccw50fL6.s:707    .text:000000000000047c .L0 
     /tmp/ccw50fL6.s:710    .text:0000000000000480 .L0 
     /tmp/ccw50fL6.s:716    .text:0000000000000480 _ZN8KConsole14getCharHandlerEv
     /tmp/ccw50fL6.s:719    .text:0000000000000480 .L0 
     /tmp/ccw50fL6.s:720    .text:0000000000000480 .L0 
     /tmp/ccw50fL6.s:721    .text:0000000000000484 .L0 
     /tmp/ccw50fL6.s:724    .text:000000000000048c .L0 
     /tmp/ccw50fL6.s:725    .text:000000000000048c .L0 
     /tmp/ccw50fL6.s:727    .text:0000000000000490 .L0 
     /tmp/ccw50fL6.s:729    .text:0000000000000490 .L0 
     /tmp/ccw50fL6.s:730    .text:0000000000000490 .L0 
     /tmp/ccw50fL6.s:731    .text:0000000000000490 .L0 
     /tmp/ccw50fL6.s:734    .text:0000000000000498 .L0 
    src/KConsole.cpp:137    .text:0000000000000498 .L0 
     /tmp/ccw50fL6.s:740    .text:000000000000049c .L0 
     /tmp/ccw50fL6.s:742    .text:000000000000049c .L0 
     /tmp/ccw50fL6.s:745    .text:00000000000004a4 .L0 
     /tmp/ccw50fL6.s:746    .text:00000000000004a8 .L0 
GAS LISTING /tmp/ccw50fL6.s 			page 29


     /tmp/ccw50fL6.s:748    .text:00000000000004ac .L0 
     /tmp/ccw50fL6.s:749    .text:00000000000004ac .L0 
     /tmp/ccw50fL6.s:751    .text:00000000000004b0 .L0 
     /tmp/ccw50fL6.s:753    .text:00000000000004b4 .L0 
     /tmp/ccw50fL6.s:759    .text:00000000000004b4 _ZN8KConsole15trapPrintStringEPKc
     /tmp/ccw50fL6.s:762    .text:00000000000004b4 .L0 
     /tmp/ccw50fL6.s:764    .text:00000000000004b4 .L0 
     /tmp/ccw50fL6.s:765    .text:00000000000004b8 .L0 
     /tmp/ccw50fL6.s:769    .text:00000000000004c4 .L0 
     /tmp/ccw50fL6.s:770    .text:00000000000004c4 .L0 
     /tmp/ccw50fL6.s:771    .text:00000000000004c4 .L0 
     /tmp/ccw50fL6.s:773    .text:00000000000004c8 .L0 
     /tmp/ccw50fL6.s:778    .text:00000000000004cc .L0 
     /tmp/ccw50fL6.s:779    .text:00000000000004cc .L0 
     /tmp/ccw50fL6.s:780    .text:00000000000004cc .L0 
     /tmp/ccw50fL6.s:782    .text:00000000000004d0 .L0 
     /tmp/ccw50fL6.s:784    .text:00000000000004d4 .L0 
     /tmp/ccw50fL6.s:785    .text:00000000000004d4 .L0 
     /tmp/ccw50fL6.s:788    .text:00000000000004dc .L0 
     /tmp/ccw50fL6.s:789    .text:00000000000004dc .L0 
     /tmp/ccw50fL6.s:792    .text:00000000000004e0 .L0 
     /tmp/ccw50fL6.s:795    .text:00000000000004e4 .L0 
     /tmp/ccw50fL6.s:796    .text:00000000000004e8 .L0 
     /tmp/ccw50fL6.s:798    .text:00000000000004ec .L0 
     /tmp/ccw50fL6.s:799    .text:00000000000004ec .L0 
     /tmp/ccw50fL6.s:801    .text:00000000000004f0 .L0 
     /tmp/ccw50fL6.s:804    .text:00000000000004f4 .L0 
     /tmp/ccw50fL6.s:806    .text:00000000000004f8 .L0 
     /tmp/ccw50fL6.s:817    .text:00000000000004f8 _ZN8KConsole12trapPrintIntEmii
     /tmp/ccw50fL6.s:820    .text:00000000000004f8 .L0 
     /tmp/ccw50fL6.s:822    .text:00000000000004f8 .L0 
     /tmp/ccw50fL6.s:823    .text:00000000000004fc .L0 
     /tmp/ccw50fL6.s:827    .text:0000000000000508 .L0 
     /tmp/ccw50fL6.s:828    .text:0000000000000508 .L0 
     /tmp/ccw50fL6.s:829    .text:0000000000000508 .L0 
     /tmp/ccw50fL6.s:831    .text:000000000000050c .L0 
     /tmp/ccw50fL6.s:833    .text:000000000000050c .L0 
     /tmp/ccw50fL6.s:834    .text:000000000000050c .L0 
     /tmp/ccw50fL6.s:842    .text:000000000000052c .L0 
     /tmp/ccw50fL6.s:843    .text:000000000000052c .L0 
     /tmp/ccw50fL6.s:844    .text:000000000000052c .L0 
     /tmp/ccw50fL6.s:846    .text:000000000000052c .L0 
     /tmp/ccw50fL6.s:847    .text:000000000000052c .L0 
     /tmp/ccw50fL6.s:848    .text:000000000000052c .L0 
     /tmp/ccw50fL6.s:849    .text:000000000000052c .L0 
     /tmp/ccw50fL6.s:850    .text:000000000000052c .L0 
     /tmp/ccw50fL6.s:854    .text:0000000000000530 .L0 
     /tmp/ccw50fL6.s:855    .text:0000000000000530 .L0 
     /tmp/ccw50fL6.s:856    .text:0000000000000530 .L0 
     /tmp/ccw50fL6.s:859    .text:0000000000000534 .L0 
     /tmp/ccw50fL6.s:863    .text:0000000000000540 .L0 
     /tmp/ccw50fL6.s:868    .text:000000000000054c .L0 
     /tmp/ccw50fL6.s:870    .text:0000000000000550 .L0 
     /tmp/ccw50fL6.s:873    .text:0000000000000554 .L0 
     /tmp/ccw50fL6.s:877    .text:0000000000000558 .L0 
     /tmp/ccw50fL6.s:878    .text:0000000000000558 .L0 
     /tmp/ccw50fL6.s:882    .text:0000000000000560 .L0 
GAS LISTING /tmp/ccw50fL6.s 			page 30


     /tmp/ccw50fL6.s:883    .text:0000000000000560 .L0 
     /tmp/ccw50fL6.s:891    .text:0000000000000578 .L0 
     /tmp/ccw50fL6.s:892    .text:000000000000057c .L0 
     /tmp/ccw50fL6.s:894    .text:0000000000000580 .L0 
     /tmp/ccw50fL6.s:895    .text:0000000000000580 .L0 
     /tmp/ccw50fL6.s:897    .text:0000000000000584 .L0 
     /tmp/ccw50fL6.s:899    .text:0000000000000588 .L0 
     /tmp/ccw50fL6.s:901    .text:000000000000058c .L0 
     /tmp/ccw50fL6.s:912    .text:000000000000058c _ZN8KConsole18trapPrintStringIntEPKcmi
     /tmp/ccw50fL6.s:915    .text:000000000000058c .L0 
     /tmp/ccw50fL6.s:917    .text:000000000000058c .L0 
     /tmp/ccw50fL6.s:918    .text:0000000000000590 .L0 
     /tmp/ccw50fL6.s:923    .text:00000000000005a0 .L0 
     /tmp/ccw50fL6.s:924    .text:00000000000005a0 .L0 
     /tmp/ccw50fL6.s:925    .text:00000000000005a0 .L0 
     /tmp/ccw50fL6.s:926    .text:00000000000005a0 .L0 
     /tmp/ccw50fL6.s:928    .text:00000000000005a4 .L0 
     /tmp/ccw50fL6.s:932    .text:00000000000005ac .L0 
     /tmp/ccw50fL6.s:933    .text:00000000000005ac .L0 
     /tmp/ccw50fL6.s:936    .text:00000000000005b4 .L0 
     /tmp/ccw50fL6.s:937    .text:00000000000005b4 .L0 
     /tmp/ccw50fL6.s:943    .text:00000000000005c8 .L0 
     /tmp/ccw50fL6.s:944    .text:00000000000005c8 .L0 
     /tmp/ccw50fL6.s:948    .text:00000000000005d8 .L0 
     /tmp/ccw50fL6.s:949    .text:00000000000005dc .L0 
     /tmp/ccw50fL6.s:951    .text:00000000000005e0 .L0 
     /tmp/ccw50fL6.s:952    .text:00000000000005e0 .L0 
     /tmp/ccw50fL6.s:954    .text:00000000000005e4 .L0 
     /tmp/ccw50fL6.s:957    .text:00000000000005e8 .L0 
     /tmp/ccw50fL6.s:959    .text:00000000000005ec .L0 
     /tmp/ccw50fL6.s:961    .text:00000000000005f0 .L0 
     /tmp/ccw50fL6.s:1007   .bss:0000000000000038 _ZN8KConsole11pendingPutcE
     /tmp/ccw50fL6.s:995    .bss:0000000000000020 _ZN8KConsole11pendingGetcE
     /tmp/ccw50fL6.s:979    .bss:0000000000000000 _ZN8KConsole18hasCharactersInputE
     /tmp/ccw50fL6.s:983    .bss:0000000000000008 _ZN8KConsole19hasCharactersOutputE
     /tmp/ccw50fL6.s:999    .bss:0000000000000028 _ZN8KConsole10outputTailE
     /tmp/ccw50fL6.s:1003   .bss:0000000000000030 _ZN8KConsole10outputHeadE
     /tmp/ccw50fL6.s:987    .bss:0000000000000010 _ZN8KConsole9inputTailE
     /tmp/ccw50fL6.s:991    .bss:0000000000000018 _ZN8KConsole9inputHeadE
     /tmp/ccw50fL6.s:976    .bss:0000000000000000 .LANCHOR0
     /tmp/ccw50fL6.s:1026   .text:00000000000005f0 .L0 
     /tmp/ccw50fL6.s:45     .text:0000000000000038 .L0 
     /tmp/ccw50fL6.s:63     .text:0000000000000060 .L0 
     /tmp/ccw50fL6.s:146    .text:00000000000000b8 .L0 
     /tmp/ccw50fL6.s:168    .text:00000000000000ec .L0 
     /tmp/ccw50fL6.s:204    .text:0000000000000120 .L0 
     /tmp/ccw50fL6.s:216    .text:0000000000000138 .L0 
     /tmp/ccw50fL6.s:223    .text:0000000000000148 .L0 
     /tmp/ccw50fL6.s:248    .text:000000000000016c .L0 
     /tmp/ccw50fL6.s:286    .text:00000000000001a0 .L0 
     /tmp/ccw50fL6.s:298    .text:00000000000001c0 .L0 
     /tmp/ccw50fL6.s:310    .text:00000000000001e0 .L0 
     /tmp/ccw50fL6.s:344    .text:0000000000000204 .L0 
     /tmp/ccw50fL6.s:372    .text:0000000000000248 .L0 
     /tmp/ccw50fL6.s:418    .text:0000000000000290 .L0 
     /tmp/ccw50fL6.s:430    .text:00000000000002b0 .L0 
     /tmp/ccw50fL6.s:442    .text:00000000000002d0 .L0 
GAS LISTING /tmp/ccw50fL6.s 			page 31


     /tmp/ccw50fL6.s:527    .text:0000000000000338 .L0 
     /tmp/ccw50fL6.s:608    .text:00000000000003bc .L0 
     /tmp/ccw50fL6.s:658    .text:00000000000003fc .L0 
     /tmp/ccw50fL6.s:667    .text:0000000000000418 .L0 
     /tmp/ccw50fL6.s:673    .text:0000000000000424 .L0 
     /tmp/ccw50fL6.s:683    .text:000000000000043c .L0 
     /tmp/ccw50fL6.s:695    .text:0000000000000454 .L0 
     /tmp/ccw50fL6.s:700    .text:0000000000000468 .L0 
     /tmp/ccw50fL6.s:811    .rodata.str1.8:0000000000000000 .LC0
     /tmp/ccw50fL6.s:834    .text:000000000000050c .L0 
     /tmp/ccw50fL6.s:906    .rodata.str1.8:0000000000000018 .LC1
     /tmp/ccw50fL6.s:944    .text:00000000000005c8 .L0 
     /tmp/ccw50fL6.s:43     .text:0000000000000038 .L2
     /tmp/ccw50fL6.s:61     .text:0000000000000060 .L3
     /tmp/ccw50fL6.s:190    .text:000000000000011c .L13
     /tmp/ccw50fL6.s:227    .text:0000000000000154 .L19
     /tmp/ccw50fL6.s:230    .text:0000000000000158 .L22
     /tmp/ccw50fL6.s:326    .text:00000000000001fc .L25
     /tmp/ccw50fL6.s:313    .text:00000000000001e8 .L24
     /tmp/ccw50fL6.s:394    .text:0000000000000278 .L30
     /tmp/ccw50fL6.s:458    .text:00000000000002ec .L35
     /tmp/ccw50fL6.s:445    .text:00000000000002d8 .L34
     /tmp/ccw50fL6.s:571    .text:0000000000000388 .L43
     /tmp/ccw50fL6.s:578    .text:0000000000000394 .L44
     /tmp/ccw50fL6.s:542    .text:0000000000000360 .L40
     /tmp/ccw50fL6.s:546    .text:0000000000000368 .L41
     /tmp/ccw50fL6.s:651    .text:00000000000003fc .L48
     /tmp/ccw50fL6.s:670    .text:0000000000000424 .L49
     /tmp/ccw50fL6.s:637    .text:00000000000003e8 .L53
     /tmp/ccw50fL6.s:645    .text:00000000000003f4 .L50
     /tmp/ccw50fL6.s:793    .text:00000000000004e4 .L56
     /tmp/ccw50fL6.s:776    .text:00000000000004cc .L58
     /tmp/ccw50fL6.s:852    .text:0000000000000530 .L61
     /tmp/ccw50fL6.s:889    .text:0000000000000578 .L60
     /tmp/ccw50fL6.s:875    .text:0000000000000558 .L63
     /tmp/ccw50fL6.s:31     .text:000000000000001c .LEHB0
     /tmp/ccw50fL6.s:10     .text:0000000000000000 .LFB25
     /tmp/ccw50fL6.s:34     .text:0000000000000024 .LEHE0
     /tmp/ccw50fL6.s:39     .text:0000000000000030 .LEHB1
     /tmp/ccw50fL6.s:42     .text:0000000000000038 .LEHE1
     /tmp/ccw50fL6.s:78     .text:0000000000000080 .L6
     /tmp/ccw50fL6.s:49     .text:0000000000000044 .LEHB2
     /tmp/ccw50fL6.s:52     .text:000000000000004c .LEHE2
     /tmp/ccw50fL6.s:57     .text:0000000000000058 .LEHB3
     /tmp/ccw50fL6.s:60     .text:0000000000000060 .LEHE3
     /tmp/ccw50fL6.s:90     .text:000000000000009c .L7
     /tmp/ccw50fL6.s:86     .text:0000000000000094 .LEHB4
     /tmp/ccw50fL6.s:89     .text:000000000000009c .LEHE4
     /tmp/ccw50fL6.s:97     .text:00000000000000b0 .LEHB5
     /tmp/ccw50fL6.s:100    .text:00000000000000b8 .LEHE5
     /tmp/ccw50fL6.s:3165   .debug_abbrev:0000000000000000 .Ldebug_abbrev0
     /tmp/ccw50fL6.s:4536   .debug_str:000000000000054f .LASF281
     /tmp/ccw50fL6.s:4860   .debug_str:00000000000010f1 .LASF282
     /tmp/ccw50fL6.s:4512   .debug_str:00000000000004a0 .LASF283
     /tmp/ccw50fL6.s:5      .text:0000000000000000 .Ltext0
     /tmp/ccw50fL6.s:1018   .text:00000000000005f0 .Letext0
     /tmp/ccw50fL6.s:4380   .debug_line:0000000000000000 .Ldebug_line0
GAS LISTING /tmp/ccw50fL6.s 			page 32


     /tmp/ccw50fL6.s:4574   .debug_str:000000000000073b .LASF0
     /tmp/ccw50fL6.s:4616   .debug_str:00000000000008c8 .LASF1
     /tmp/ccw50fL6.s:4754   .debug_str:0000000000000d9a .LASF2
     /tmp/ccw50fL6.s:4516   .debug_str:00000000000004c1 .LASF3
     /tmp/ccw50fL6.s:4768   .debug_str:0000000000000e15 .LASF4
     /tmp/ccw50fL6.s:4592   .debug_str:00000000000007bf .LASF5
     /tmp/ccw50fL6.s:4400   .debug_str:000000000000008e .LASF6
     /tmp/ccw50fL6.s:4706   .debug_str:0000000000000bfa .LASF7
     /tmp/ccw50fL6.s:4602   .debug_str:0000000000000831 .LASF8
     /tmp/ccw50fL6.s:4534   .debug_str:000000000000053f .LASF9
     /tmp/ccw50fL6.s:4544   .debug_str:000000000000065b .LASF10
     /tmp/ccw50fL6.s:4458   .debug_str:00000000000002df .LASF11
     /tmp/ccw50fL6.s:4820   .debug_str:0000000000000ff4 .LASF12
     /tmp/ccw50fL6.s:4526   .debug_str:0000000000000507 .LASF13
     /tmp/ccw50fL6.s:4472   .debug_str:0000000000000324 .LASF14
     /tmp/ccw50fL6.s:4456   .debug_str:00000000000002cf .LASF15
     /tmp/ccw50fL6.s:4826   .debug_str:0000000000001030 .LASF16
     /tmp/ccw50fL6.s:4508   .debug_str:0000000000000468 .LASF17
     /tmp/ccw50fL6.s:4806   .debug_str:0000000000000f50 .LASF18
     /tmp/ccw50fL6.s:4846   .debug_str:000000000000109c .LASF284
     /tmp/ccw50fL6.s:4836   .debug_str:0000000000001069 .LASF19
     /tmp/ccw50fL6.s:4792   .debug_str:0000000000000edd .LASF20
     /tmp/ccw50fL6.s:4466   .debug_str:000000000000030a .LASF21
     /tmp/ccw50fL6.s:4438   .debug_str:00000000000001fd .LASF22
     /tmp/ccw50fL6.s:4710   .debug_str:0000000000000c23 .LASF23
     /tmp/ccw50fL6.s:4464   .debug_str:0000000000000301 .LASF24
     /tmp/ccw50fL6.s:4832   .debug_str:0000000000001056 .LASF92
     /tmp/ccw50fL6.s:4560   .debug_str:00000000000006ee .LASF25
     /tmp/ccw50fL6.s:4404   .debug_str:00000000000000a0 .LASF31
     /tmp/ccw50fL6.s:4872   .debug_str:0000000000001165 .LASF285
     /tmp/ccw50fL6.s:4696   .debug_str:0000000000000baa .LASF26
     /tmp/ccw50fL6.s:4614   .debug_str:00000000000008c3 .LASF27
     /tmp/ccw50fL6.s:4944   .debug_str:00000000000013dc .LASF29
     /tmp/ccw50fL6.s:4938   .debug_str:00000000000013af .LASF28
     /tmp/ccw50fL6.s:4854   .debug_str:00000000000010c3 .LASF30
     /tmp/ccw50fL6.s:4492   .debug_str:0000000000000404 .LASF54
     /tmp/ccw50fL6.s:4412   .debug_str:00000000000000ef .LASF56
     /tmp/ccw50fL6.s:4852   .debug_str:00000000000010bb .LASF32
     /tmp/ccw50fL6.s:4782   .debug_str:0000000000000e7c .LASF33
     /tmp/ccw50fL6.s:4624   .debug_str:000000000000090a .LASF36
     /tmp/ccw50fL6.s:4632   .debug_str:0000000000000969 .LASF38
     /tmp/ccw50fL6.s:4952   .debug_str:0000000000001439 .LASF34
     /tmp/ccw50fL6.s:4514   .debug_str:00000000000004b5 .LASF35
     /tmp/ccw50fL6.s:4392   .debug_str:0000000000000059 .LASF80
     /tmp/ccw50fL6.s:4586   .debug_str:0000000000000793 .LASF82
     /tmp/ccw50fL6.s:4784   .debug_str:0000000000000e8d .LASF37
     /tmp/ccw50fL6.s:4670   .debug_str:0000000000000ab1 .LASF39
     /tmp/ccw50fL6.s:4764   .debug_str:0000000000000de6 .LASF40
     /tmp/ccw50fL6.s:4818   .debug_str:0000000000000fd8 .LASF41
     /tmp/ccw50fL6.s:4672   .debug_str:0000000000000ac4 .LASF42
     /tmp/ccw50fL6.s:4386   .debug_str:000000000000001b .LASF43
     /tmp/ccw50fL6.s:4924   .debug_str:0000000000001331 .LASF44
     /tmp/ccw50fL6.s:4704   .debug_str:0000000000000be0 .LASF45
     /tmp/ccw50fL6.s:4804   .debug_str:0000000000000f42 .LASF46
     /tmp/ccw50fL6.s:4720   .debug_str:0000000000000c69 .LASF47
     /tmp/ccw50fL6.s:4488   .debug_str:00000000000003e2 .LASF48
     /tmp/ccw50fL6.s:4528   .debug_str:0000000000000516 .LASF49
GAS LISTING /tmp/ccw50fL6.s 			page 33


     /tmp/ccw50fL6.s:4744   .debug_str:0000000000000d43 .LASF50
     /tmp/ccw50fL6.s:4642   .debug_str:00000000000009d0 .LASF51
     /tmp/ccw50fL6.s:4930   .debug_str:0000000000001365 .LASF52
     /tmp/ccw50fL6.s:4594   .debug_str:00000000000007d1 .LASF53
     /tmp/ccw50fL6.s:4798   .debug_str:0000000000000f1e .LASF55
     /tmp/ccw50fL6.s:4942   .debug_str:00000000000013c6 .LASF57
     /tmp/ccw50fL6.s:4834   .debug_str:000000000000105e .LASF58
     /tmp/ccw50fL6.s:4482   .debug_str:00000000000003a4 .LASF59
     /tmp/ccw50fL6.s:4778   .debug_str:0000000000000e66 .LASF60
     /tmp/ccw50fL6.s:4576   .debug_str:0000000000000748 .LASF61
     /tmp/ccw50fL6.s:4682   .debug_str:0000000000000b0b .LASF62
     /tmp/ccw50fL6.s:4478   .debug_str:0000000000000373 .LASF63
     /tmp/ccw50fL6.s:4726   .debug_str:0000000000000c9f .LASF64
     /tmp/ccw50fL6.s:4958   .debug_str:000000000000146b .LASF65
     /tmp/ccw50fL6.s:4686   .debug_str:0000000000000b31 .LASF66
     /tmp/ccw50fL6.s:4762   .debug_str:0000000000000dd3 .LASF67
     /tmp/ccw50fL6.s:4786   .debug_str:0000000000000e96 .LASF68
     /tmp/ccw50fL6.s:4888   .debug_str:00000000000011e9 .LASF69
     /tmp/ccw50fL6.s:4654   .debug_str:0000000000000a2c .LASF70
     /tmp/ccw50fL6.s:4874   .debug_str:000000000000117d .LASF71
     /tmp/ccw50fL6.s:4816   .debug_str:0000000000000fb8 .LASF72
     /tmp/ccw50fL6.s:4700   .debug_str:0000000000000bb9 .LASF73
     /tmp/ccw50fL6.s:4688   .debug_str:0000000000000b52 .LASF74
     /tmp/ccw50fL6.s:4498   .debug_str:0000000000000418 .LASF75
     /tmp/ccw50fL6.s:4578   .debug_str:000000000000075c .LASF76
     /tmp/ccw50fL6.s:4658   .debug_str:0000000000000a69 .LASF77
     /tmp/ccw50fL6.s:4858   .debug_str:00000000000010e7 .LASF78
     /tmp/ccw50fL6.s:4530   .debug_str:0000000000000526 .LASF79
     /tmp/ccw50fL6.s:4936   .debug_str:00000000000013a1 .LASF81
     /tmp/ccw50fL6.s:4420   .debug_str:000000000000014c .LASF83
     /tmp/ccw50fL6.s:4518   .debug_str:00000000000004c7 .LASF84
     /tmp/ccw50fL6.s:4448   .debug_str:000000000000026b .LASF85
     /tmp/ccw50fL6.s:4922   .debug_str:000000000000132a .LASF86
     /tmp/ccw50fL6.s:4444   .debug_str:000000000000024c .LASF87
     /tmp/ccw50fL6.s:4390   .debug_str:0000000000000054 .LASF88
     /tmp/ccw50fL6.s:4884   .debug_str:00000000000011d8 .LASF89
     /tmp/ccw50fL6.s:4640   .debug_str:00000000000009c8 .LASF90
     /tmp/ccw50fL6.s:4496   .debug_str:0000000000000412 .LASF91
     /tmp/ccw50fL6.s:4870   .debug_str:000000000000115d .LASF93
     /tmp/ccw50fL6.s:4430   .debug_str:00000000000001c1 .LASF94
     /tmp/ccw50fL6.s:4646   .debug_str:00000000000009eb .LASF95
     /tmp/ccw50fL6.s:4734   .debug_str:0000000000000cf7 .LASF96
     /tmp/ccw50fL6.s:4540   .debug_str:000000000000062b .LASF97
     /tmp/ccw50fL6.s:4756   .debug_str:0000000000000da8 .LASF98
     /tmp/ccw50fL6.s:4732   .debug_str:0000000000000ce3 .LASF99
     /tmp/ccw50fL6.s:4494   .debug_str:000000000000040d .LASF100
     /tmp/ccw50fL6.s:4796   .debug_str:0000000000000f07 .LASF101
     /tmp/ccw50fL6.s:4830   .debug_str:000000000000104f .LASF102
     /tmp/ccw50fL6.s:4678   .debug_str:0000000000000ae9 .LASF103
     /tmp/ccw50fL6.s:4384   .debug_str:000000000000000f .LASF104
     /tmp/ccw50fL6.s:4760   .debug_str:0000000000000dc7 .LASF105
     /tmp/ccw50fL6.s:4648   .debug_str:00000000000009f0 .LASF106
     /tmp/ccw50fL6.s:4748   .debug_str:0000000000000d62 .LASF107
     /tmp/ccw50fL6.s:4460   .debug_str:00000000000002ee .LASF108
     /tmp/ccw50fL6.s:4468   .debug_str:0000000000000314 .LASF109
     /tmp/ccw50fL6.s:4676   .debug_str:0000000000000ae0 .LASF110
     /tmp/ccw50fL6.s:4840   .debug_str:0000000000001074 .LASF111
GAS LISTING /tmp/ccw50fL6.s 			page 34


     /tmp/ccw50fL6.s:4382   .debug_str:0000000000000000 .LASF112
     /tmp/ccw50fL6.s:4554   .debug_str:00000000000006a3 .LASF113
     /tmp/ccw50fL6.s:4866   .debug_str:000000000000112b .LASF114
     /tmp/ccw50fL6.s:4824   .debug_str:000000000000100e .LASF115
     /tmp/ccw50fL6.s:4788   .debug_str:0000000000000eb4 .LASF116
     /tmp/ccw50fL6.s:4476   .debug_str:000000000000034f .LASF117
     /tmp/ccw50fL6.s:4694   .debug_str:0000000000000b9a .LASF118
     /tmp/ccw50fL6.s:4724   .debug_str:0000000000000c7c .LASF119
     /tmp/ccw50fL6.s:4572   .debug_str:0000000000000735 .LASF120
     /tmp/ccw50fL6.s:4954   .debug_str:0000000000001446 .LASF121
     /tmp/ccw50fL6.s:4394   .debug_str:0000000000000069 .LASF122
     /tmp/ccw50fL6.s:4638   .debug_str:00000000000009ae .LASF123
     /tmp/ccw50fL6.s:4950   .debug_str:0000000000001429 .LASF124
     /tmp/ccw50fL6.s:4770   .debug_str:0000000000000e1c .LASF125
     /tmp/ccw50fL6.s:4828   .debug_str:000000000000103c .LASF126
     /tmp/ccw50fL6.s:4766   .debug_str:0000000000000def .LASF127
     /tmp/ccw50fL6.s:4956   .debug_str:000000000000145e .LASF128
     /tmp/ccw50fL6.s:4612   .debug_str:000000000000089f .LASF129
     /tmp/ccw50fL6.s:4680   .debug_str:0000000000000b02 .LASF130
     /tmp/ccw50fL6.s:4428   .debug_str:00000000000001b1 .LASF131
     /tmp/ccw50fL6.s:4862   .debug_str:0000000000001102 .LASF132
     /tmp/ccw50fL6.s:4772   .debug_str:0000000000000e3f .LASF133
     /tmp/ccw50fL6.s:4388   .debug_str:0000000000000035 .LASF134
     /tmp/ccw50fL6.s:4418   .debug_str:0000000000000139 .LASF135
     /tmp/ccw50fL6.s:4738   .debug_str:0000000000000d0b .LASF136
     /tmp/ccw50fL6.s:4702   .debug_str:0000000000000bcd .LASF137
     /tmp/ccw50fL6.s:4558   .debug_str:00000000000006da .LASF138
     /tmp/ccw50fL6.s:4698   .debug_str:0000000000000baf .LASF139
     /tmp/ccw50fL6.s:4618   .debug_str:00000000000008db .LASF140
     /tmp/ccw50fL6.s:4718   .debug_str:0000000000000c5f .LASF141
     /tmp/ccw50fL6.s:4890   .debug_str:00000000000011fc .LASF142
     /tmp/ccw50fL6.s:4844   .debug_str:0000000000001091 .LASF143
     /tmp/ccw50fL6.s:4886   .debug_str:00000000000011dd .LASF144
     /tmp/ccw50fL6.s:4902   .debug_str:0000000000001271 .LASF145
     /tmp/ccw50fL6.s:4660   .debug_str:0000000000000a71 .LASF146
     /tmp/ccw50fL6.s:4716   .debug_str:0000000000000c53 .LASF147
     /tmp/ccw50fL6.s:4800   .debug_str:0000000000000f29 .LASF150
     /tmp/ccw50fL6.s:4794   .debug_str:0000000000000ee5 .LASF152
     /tmp/ccw50fL6.s:4880   .debug_str:00000000000011b3 .LASF148
     /tmp/ccw50fL6.s:4920   .debug_str:0000000000001308 .LASF149
     /tmp/ccw50fL6.s:4878   .debug_str:00000000000011a1 .LASF151
     /tmp/ccw50fL6.s:4406   .debug_str:00000000000000ab .LASF153
     /tmp/ccw50fL6.s:4882   .debug_str:00000000000011c5 .LASF154
     /tmp/ccw50fL6.s:4442   .debug_str:0000000000000229 .LASF155
     /tmp/ccw50fL6.s:4506   .debug_str:0000000000000455 .LASF156
     /tmp/ccw50fL6.s:4440   .debug_str:0000000000000206 .LASF157
     /tmp/ccw50fL6.s:4414   .debug_str:0000000000000102 .LASF158
     /tmp/ccw50fL6.s:4898   .debug_str:0000000000001244 .LASF159
     /tmp/ccw50fL6.s:4656   .debug_str:0000000000000a4a .LASF160
     /tmp/ccw50fL6.s:4918   .debug_str:00000000000012ef .LASF161
     /tmp/ccw50fL6.s:4596   .debug_str:00000000000007de .LASF162
     /tmp/ccw50fL6.s:4626   .debug_str:0000000000000917 .LASF163
     /tmp/ccw50fL6.s:4946   .debug_str:00000000000013e8 .LASF164
     /tmp/ccw50fL6.s:4524   .debug_str:00000000000004f6 .LASF165
     /tmp/ccw50fL6.s:4910   .debug_str:00000000000012a0 .LASF166
     /tmp/ccw50fL6.s:4532   .debug_str:0000000000000532 .LASF167
     /tmp/ccw50fL6.s:4932   .debug_str:0000000000001370 .LASF168
GAS LISTING /tmp/ccw50fL6.s 			page 35


     /tmp/ccw50fL6.s:4552   .debug_str:0000000000000692 .LASF169
     /tmp/ccw50fL6.s:4410   .debug_str:00000000000000e3 .LASF170
     /tmp/ccw50fL6.s:4628   .debug_str:000000000000092f .LASF171
     /tmp/ccw50fL6.s:4644   .debug_str:00000000000009df .LASF172
     /tmp/ccw50fL6.s:4416   .debug_str:000000000000011d .LASF173
     /tmp/ccw50fL6.s:4838   .debug_str:000000000000106f .LASF174
     /tmp/ccw50fL6.s:4522   .debug_str:00000000000004e9 .LASF175
     /tmp/ccw50fL6.s:4520   .debug_str:00000000000004dc .LASF286
     /tmp/ccw50fL6.s:4906   .debug_str:0000000000001290 .LASF176
     /tmp/ccw50fL6.s:4568   .debug_str:0000000000000712 .LASF177
     /tmp/ccw50fL6.s:4814   .debug_str:0000000000000fa0 .LASF178
     /tmp/ccw50fL6.s:4892   .debug_str:0000000000001207 .LASF179
     /tmp/ccw50fL6.s:4928   .debug_str:0000000000001356 .LASF180
     /tmp/ccw50fL6.s:4896   .debug_str:0000000000001228 .LASF181
     /tmp/ccw50fL6.s:4426   .debug_str:00000000000001a6 .LASF182
     /tmp/ccw50fL6.s:4650   .debug_str:0000000000000a04 .LASF183
     /tmp/ccw50fL6.s:4504   .debug_str:000000000000044b .LASF184
     /tmp/ccw50fL6.s:4708   .debug_str:0000000000000c0d .LASF185
     /tmp/ccw50fL6.s:4434   .debug_str:00000000000001e1 .LASF186
     /tmp/ccw50fL6.s:4484   .debug_str:00000000000003ba .LASF187
     /tmp/ccw50fL6.s:4652   .debug_str:0000000000000a1c .LASF188
     /tmp/ccw50fL6.s:4900   .debug_str:0000000000001253 .LASF189
     /tmp/ccw50fL6.s:4452   .debug_str:00000000000002ab .LASF190
     /tmp/ccw50fL6.s:4630   .debug_str:000000000000094b .LASF191
     /tmp/ccw50fL6.s:4500   .debug_str:0000000000000421 .LASF192
     /tmp/ccw50fL6.s:4934   .debug_str:000000000000137d .LASF193
     /tmp/ccw50fL6.s:4584   .debug_str:0000000000000781 .LASF194
     /tmp/ccw50fL6.s:4480   .debug_str:0000000000000385 .LASF195
     /tmp/ccw50fL6.s:4780   .debug_str:0000000000000e6e .LASF196
     /tmp/ccw50fL6.s:4474   .debug_str:0000000000000334 .LASF197
     /tmp/ccw50fL6.s:4674   .debug_str:0000000000000ad3 .LASF198
     /tmp/ccw50fL6.s:4912   .debug_str:00000000000012b2 .LASF199
     /tmp/ccw50fL6.s:4620   .debug_str:00000000000008e6 .LASF200
     /tmp/ccw50fL6.s:4398   .debug_str:0000000000000079 .LASF201
     /tmp/ccw50fL6.s:4606   .debug_str:0000000000000860 .LASF202
     /tmp/ccw50fL6.s:4692   .debug_str:0000000000000b85 .LASF203
     /tmp/ccw50fL6.s:4722   .debug_str:0000000000000c75 .LASF204
     /tmp/ccw50fL6.s:4728   .debug_str:0000000000000cbc .LASF205
     /tmp/ccw50fL6.s:4684   .debug_str:0000000000000b2a .LASF206
     /tmp/ccw50fL6.s:4758   .debug_str:0000000000000db4 .LASF207
     /tmp/ccw50fL6.s:4914   .debug_str:00000000000012cc .LASF208
     /tmp/ccw50fL6.s:4856   .debug_str:00000000000010d3 .LASF209
     /tmp/ccw50fL6.s:4600   .debug_str:0000000000000829 .LASF210
     /tmp/ccw50fL6.s:4690   .debug_str:0000000000000b71 .LASF211
     /tmp/ccw50fL6.s:4664   .debug_str:0000000000000a92 .LASF212
     /tmp/ccw50fL6.s:4730   .debug_str:0000000000000ccf .LASF213
     /tmp/ccw50fL6.s:4810   .debug_str:0000000000000f7e .LASF214
     /tmp/ccw50fL6.s:4582   .debug_str:000000000000076d .LASF215
     /tmp/ccw50fL6.s:4564   .debug_str:00000000000006ff .LASF216
     /tmp/ccw50fL6.s:4822   .debug_str:0000000000001007 .LASF217
     /tmp/ccw50fL6.s:4774   .debug_str:0000000000000e4c .LASF218
     /tmp/ccw50fL6.s:4776   .debug_str:0000000000000e5f .LASF219
     /tmp/ccw50fL6.s:4502   .debug_str:0000000000000438 .LASF220
     /tmp/ccw50fL6.s:4470   .debug_str:000000000000031e .LASF221
     /tmp/ccw50fL6.s:4842   .debug_str:000000000000107f .LASF222
     /tmp/ccw50fL6.s:4580   .debug_str:0000000000000767 .LASF223
     /tmp/ccw50fL6.s:4490   .debug_str:00000000000003f2 .LASF224
GAS LISTING /tmp/ccw50fL6.s 			page 36


     /tmp/ccw50fL6.s:4446   .debug_str:000000000000025d .LASF225
     /tmp/ccw50fL6.s:4916   .debug_str:00000000000012d4 .LASF226
     /tmp/ccw50fL6.s:4402   .debug_str:0000000000000095 .LASF227
     /tmp/ccw50fL6.s:4808   .debug_str:0000000000000f66 .LASF228
     /tmp/ccw50fL6.s:4752   .debug_str:0000000000000d8f .LASF229
     /tmp/ccw50fL6.s:4948   .debug_str:0000000000001411 .LASF230
     /tmp/ccw50fL6.s:4548   .debug_str:000000000000067c .LASF231
     /tmp/ccw50fL6.s:4454   .debug_str:00000000000002bc .LASF232
     /tmp/ccw50fL6.s:4802   .debug_str:0000000000000f3b .LASF233
     /tmp/ccw50fL6.s:4634   .debug_str:0000000000000981 .LASF234
     /tmp/ccw50fL6.s:4908   .debug_str:0000000000001296 .LASF235
     /tmp/ccw50fL6.s:4926   .debug_str:0000000000001340 .LASF236
     /tmp/ccw50fL6.s:4462   .debug_str:00000000000002f7 .LASF237
     /tmp/ccw50fL6.s:4408   .debug_str:00000000000000cd .LASF238
     /tmp/ccw50fL6.s:4486   .debug_str:00000000000003dc .LASF239
     /tmp/ccw50fL6.s:4746   .debug_str:0000000000000d50 .LASF240
     /tmp/ccw50fL6.s:4566   .debug_str:000000000000070c .LASF241
     /tmp/ccw50fL6.s:4904   .debug_str:000000000000127e .LASF242
     /tmp/ccw50fL6.s:4562   .debug_str:00000000000006f4 .LASF243
     /tmp/ccw50fL6.s:4570   .debug_str:000000000000071d .LASF244
     /tmp/ccw50fL6.s:4876   .debug_str:0000000000001192 .LASF245
     /tmp/ccw50fL6.s:4542   .debug_str:000000000000063f .LASF246
     /tmp/ccw50fL6.s:4712   .debug_str:0000000000000c2b .LASF247
     /tmp/ccw50fL6.s:4598   .debug_str:0000000000000807 .LASF248
     /tmp/ccw50fL6.s:4740   .debug_str:0000000000000d32 .LASF249
     /tmp/ccw50fL6.s:4396   .debug_str:0000000000000071 .LASF250
     /tmp/ccw50fL6.s:4432   .debug_str:00000000000001d2 .LASF251
     /tmp/ccw50fL6.s:4538   .debug_str:000000000000061f .LASF252
     /tmp/ccw50fL6.s:4714   .debug_str:0000000000000c40 .LASF253
     /tmp/ccw50fL6.s:4668   .debug_str:0000000000000a9f .LASF254
     /tmp/ccw50fL6.s:4546   .debug_str:0000000000000669 .LASF255
     /tmp/ccw50fL6.s:4590   .debug_str:00000000000007ac .LASF256
     /tmp/ccw50fL6.s:4450   .debug_str:0000000000000297 .LASF257
     /tmp/ccw50fL6.s:4850   .debug_str:00000000000010b1 .LASF258
     /tmp/ccw50fL6.s:4736   .debug_str:0000000000000d02 .LASF259
     /tmp/ccw50fL6.s:4550   .debug_str:0000000000000683 .LASF260
     /tmp/ccw50fL6.s:4790   .debug_str:0000000000000ec5 .LASF261
     /tmp/ccw50fL6.s:4750   .debug_str:0000000000000d77 .LASF262
     /tmp/ccw50fL6.s:4424   .debug_str:000000000000018c .LASF263
     /tmp/ccw50fL6.s:4812   .debug_str:0000000000000f86 .LASF264
     /tmp/ccw50fL6.s:4868   .debug_str:000000000000113a .LASF265
     /tmp/ccw50fL6.s:4510   .debug_str:000000000000047e .LASF266
     /tmp/ccw50fL6.s:4608   .debug_str:0000000000000869 .LASF267
     /tmp/ccw50fL6.s:4610   .debug_str:0000000000000884 .LASF268
     /tmp/ccw50fL6.s:4604   .debug_str:0000000000000844 .LASF269
     /tmp/ccw50fL6.s:4622   .debug_str:00000000000008ef .LASF270
     /tmp/ccw50fL6.s:913    .text:000000000000058c .LFB38
     /tmp/ccw50fL6.s:962    .text:00000000000005f0 .LFE38
     /tmp/ccw50fL6.s:4436   .debug_str:00000000000001f6 .LASF271
     /tmp/ccw50fL6.s:4091   .debug_loc:0000000000000000 .LLST17
     /tmp/ccw50fL6.s:4105   .debug_loc:0000000000000039 .LLST18
     /tmp/ccw50fL6.s:4666   .debug_str:0000000000000a9a .LASF272
     /tmp/ccw50fL6.s:4123   .debug_loc:0000000000000085 .LLST19
     /tmp/ccw50fL6.s:934    .text:00000000000005b4 .LVL66
     /tmp/ccw50fL6.s:941    .text:00000000000005c8 .LVL67
     /tmp/ccw50fL6.s:946    .text:00000000000005d8 .LVL68
     /tmp/ccw50fL6.s:818    .text:00000000000004f8 .LFB37
GAS LISTING /tmp/ccw50fL6.s 			page 37


     /tmp/ccw50fL6.s:902    .text:000000000000058c .LFE37
     /tmp/ccw50fL6.s:4137   .debug_loc:00000000000000be .LLST12
     /tmp/ccw50fL6.s:4151   .debug_loc:00000000000000f7 .LLST13
     /tmp/ccw50fL6.s:4165   .debug_loc:0000000000000130 .LLST14
     /tmp/ccw50fL6.s:4864   .debug_str:0000000000001124 .LASF273
     /tmp/ccw50fL6.s:4179   .debug_loc:0000000000000169 .LLST15
     /tmp/ccw50fL6.s:4201   .debug_loc:00000000000001c8 .LLST16
     /tmp/ccw50fL6.s:887    .text:0000000000000574 .LVL64
     /tmp/ccw50fL6.s:760    .text:00000000000004b4 .LFB36
     /tmp/ccw50fL6.s:807    .text:00000000000004f8 .LFE36
     /tmp/ccw50fL6.s:4208   .debug_loc:00000000000001eb .LLST11
     /tmp/ccw50fL6.s:786    .text:00000000000004dc .LVL53
     /tmp/ccw50fL6.s:717    .text:0000000000000480 .LFB35
     /tmp/ccw50fL6.s:754    .text:00000000000004b4 .LFE35
     /tmp/ccw50fL6.s:4219   .debug_loc:0000000000000221 .LLST10
     /tmp/ccw50fL6.s:732    .text:0000000000000498 .LVL49
     /tmp/ccw50fL6.s:743    .text:00000000000004a4 .LVL50
     /tmp/ccw50fL6.s:597    .text:00000000000003b0 .LFB34
     /tmp/ccw50fL6.s:617    .text:00000000000003d4 .LFE34
     /tmp/ccw50fL6.s:512    .text:0000000000000324 .LFB33
     /tmp/ccw50fL6.s:591    .text:00000000000003b0 .LFE33
     /tmp/ccw50fL6.s:4226   .debug_loc:0000000000000244 .LLST7
     /tmp/ccw50fL6.s:535    .text:0000000000000354 .LVL32
     /tmp/ccw50fL6.s:557    .text:0000000000000374 .LVL35
     /tmp/ccw50fL6.s:576    .text:0000000000000390 .LVL37
     /tmp/ccw50fL6.s:583    .text:00000000000003a0 .LVL38
     /tmp/ccw50fL6.s:588    .text:00000000000003ac .LVL39
     /tmp/ccw50fL6.s:470    .text:00000000000002f4 .LFB32
     /tmp/ccw50fL6.s:506    .text:0000000000000324 .LFE32
     /tmp/ccw50fL6.s:4237   .debug_loc:000000000000027a .LLST6
     /tmp/ccw50fL6.s:495    .text:0000000000000314 .LVL31
     /tmp/ccw50fL6.s:403    .text:000000000000027c .LFB31
     /tmp/ccw50fL6.s:464    .text:00000000000002f4 .LFE31
     /tmp/ccw50fL6.s:4244   .debug_loc:000000000000029d .LLST5
     /tmp/ccw50fL6.s:421    .text:00000000000002a4 .LVL26
     /tmp/ccw50fL6.s:338    .text:0000000000000204 .LFB30
     /tmp/ccw50fL6.s:397    .text:000000000000027c .LFE30
     /tmp/ccw50fL6.s:4251   .debug_loc:00000000000002c0 .LLST4
     /tmp/ccw50fL6.s:383    .text:0000000000000268 .LVL24
     /tmp/ccw50fL6.s:271    .text:000000000000018c .LFB29
     /tmp/ccw50fL6.s:332    .text:0000000000000204 .LFE29
     /tmp/ccw50fL6.s:4274   .debug_loc:0000000000000320 .LLST3
     /tmp/ccw50fL6.s:289    .text:00000000000001b4 .LVL19
     /tmp/ccw50fL6.s:140    .text:00000000000000b8 .LFB28
     /tmp/ccw50fL6.s:193    .text:0000000000000120 .LFE28
     /tmp/ccw50fL6.s:4281   .debug_loc:0000000000000343 .LLST0
     /tmp/ccw50fL6.s:179    .text:000000000000010c .LVL10
     /tmp/ccw50fL6.s:623    .text:00000000000003d4 .LFB27
     /tmp/ccw50fL6.s:711    .text:0000000000000480 .LFE27
     /tmp/ccw50fL6.s:4304   .debug_loc:00000000000003a3 .LLST8
     /tmp/ccw50fL6.s:4366   .debug_ranges:0000000000000000 .Ldebug_ranges0
     /tmp/ccw50fL6.s:4742   .debug_str:0000000000000d39 .LASF274
     /tmp/ccw50fL6.s:4318   .debug_loc:00000000000003dc .LLST9
     /tmp/ccw50fL6.s:686    .text:0000000000000448 .LBB8
     /tmp/ccw50fL6.s:705    .text:000000000000047c .LBE8
     /tmp/ccw50fL6.s:690    .text:0000000000000450 .LVL48
     /tmp/ccw50fL6.s:642    .text:00000000000003f0 .LVL42
GAS LISTING /tmp/ccw50fL6.s 			page 38


     /tmp/ccw50fL6.s:650    .text:00000000000003fc .LVL44
     /tmp/ccw50fL6.s:663    .text:0000000000000414 .LVL45
     /tmp/ccw50fL6.s:199    .text:0000000000000120 .LFB26
     /tmp/ccw50fL6.s:265    .text:000000000000018c .LFE26
     /tmp/ccw50fL6.s:4330   .debug_loc:0000000000000404 .LLST1
     /tmp/ccw50fL6.s:4342   .debug_loc:000000000000042c .LLST2
     /tmp/ccw50fL6.s:252    .text:000000000000017c .LVL18
     /tmp/ccw50fL6.s:102    .text:00000000000000b8 .LFE25
     /tmp/ccw50fL6.s:33     .text:0000000000000024 .LVL0
     /tmp/ccw50fL6.s:41     .text:0000000000000038 .LVL1
     /tmp/ccw50fL6.s:51     .text:000000000000004c .LVL2
     /tmp/ccw50fL6.s:59     .text:0000000000000060 .LVL3
     /tmp/ccw50fL6.s:84     .text:0000000000000090 .LVL4
     /tmp/ccw50fL6.s:88     .text:000000000000009c .LVL5
     /tmp/ccw50fL6.s:95     .text:00000000000000ac .LVL6
     /tmp/ccw50fL6.s:99     .text:00000000000000b8 .LVL7
     /tmp/ccw50fL6.s:4636   .debug_str:0000000000000994 .LASF275
     /tmp/ccw50fL6.s:4556   .debug_str:00000000000006c5 .LASF277
     /tmp/ccw50fL6.s:4940   .debug_str:00000000000013b5 .LASF276
     /tmp/ccw50fL6.s:4588   .debug_str:00000000000007a0 .LASF278
     /tmp/ccw50fL6.s:4662   .debug_str:0000000000000a7d .LASF279
     /tmp/ccw50fL6.s:4894   .debug_str:0000000000001218 .LASF280
     /tmp/ccw50fL6.s:4848   .debug_str:00000000000010a2 .LASF287
     /tmp/ccw50fL6.s:4422   .debug_str:0000000000000174 .LASF288
     /tmp/ccw50fL6.s:916    .text:000000000000058c .LVL65
     /tmp/ccw50fL6.s:955    .text:00000000000005e4 .LVL69
     /tmp/ccw50fL6.s:821    .text:00000000000004f8 .LVL56
     /tmp/ccw50fL6.s:851    .text:0000000000000530 .LVL58
     /tmp/ccw50fL6.s:874    .text:0000000000000558 .LVL62
     /tmp/ccw50fL6.s:845    .text:000000000000052c .LVL57
     /tmp/ccw50fL6.s:857    .text:0000000000000534 .LVL59
     /tmp/ccw50fL6.s:865    .text:0000000000000548 .LVL60
     /tmp/ccw50fL6.s:879    .text:000000000000055c .LVL63
     /tmp/ccw50fL6.s:763    .text:00000000000004b4 .LVL51
     /tmp/ccw50fL6.s:775    .text:00000000000004cc .LVL52
     /tmp/ccw50fL6.s:802    .text:00000000000004f0 .LVL55
     /tmp/ccw50fL6.s:537    .text:0000000000000358 .LVL33
     /tmp/ccw50fL6.s:541    .text:0000000000000360 .LVL34
     /tmp/ccw50fL6.s:570    .text:0000000000000388 .LVL36
     /tmp/ccw50fL6.s:488    .text:0000000000000308 .LVL29
     /tmp/ccw50fL6.s:493    .text:000000000000030c .LVL30
     /tmp/ccw50fL6.s:433    .text:00000000000002c0 .LVL27
     /tmp/ccw50fL6.s:444    .text:00000000000002d8 .LVL28
     /tmp/ccw50fL6.s:341    .text:0000000000000204 .LVL22
     /tmp/ccw50fL6.s:381    .text:0000000000000260 .LVL23
     /tmp/ccw50fL6.s:393    .text:0000000000000278 .LVL25
     /tmp/ccw50fL6.s:301    .text:00000000000001d0 .LVL20
     /tmp/ccw50fL6.s:312    .text:00000000000001e8 .LVL21
     /tmp/ccw50fL6.s:143    .text:00000000000000b8 .LVL8
     /tmp/ccw50fL6.s:177    .text:0000000000000104 .LVL9
     /tmp/ccw50fL6.s:189    .text:000000000000011c .LVL11
     /tmp/ccw50fL6.s:626    .text:00000000000003d4 .LVL40
     /tmp/ccw50fL6.s:636    .text:00000000000003e8 .LVL41
     /tmp/ccw50fL6.s:676    .text:0000000000000434 .LVL46
     /tmp/ccw50fL6.s:680    .text:0000000000000438 .LVL47
     /tmp/ccw50fL6.s:207    .text:0000000000000130 .LVL12
     /tmp/ccw50fL6.s:211    .text:0000000000000134 .LVL13
GAS LISTING /tmp/ccw50fL6.s 			page 39


     /tmp/ccw50fL6.s:220    .text:0000000000000148 .LVL14
     /tmp/ccw50fL6.s:226    .text:0000000000000154 .LVL15
     /tmp/ccw50fL6.s:229    .text:0000000000000158 .LVL16
     /tmp/ccw50fL6.s:1027   .debug_info:0000000000000000 .Ldebug_info0
     /tmp/ccw50fL6.s:213    .text:0000000000000138 .LBB3
     /tmp/ccw50fL6.s:231    .text:0000000000000158 .LBE3
     /tmp/ccw50fL6.s:244    .text:0000000000000168 .LBB4
     /tmp/ccw50fL6.s:253    .text:000000000000017c .LBE4
     /tmp/ccw50fL6.s:638    .text:00000000000003e8 .LBB6
     /tmp/ccw50fL6.s:653    .text:00000000000003fc .LBE6
     /tmp/ccw50fL6.s:655    .text:00000000000003fc .LBB10
     /tmp/ccw50fL6.s:709    .text:0000000000000480 .LBE10
     /tmp/ccw50fL6.s:105    .gcc_except_table:0000000000000000 .LLSDA25

UNDEFINED SYMBOLS
_ZN10KSemaphorenwEm
_ZN10KSemaphoreC1Ei
_ZN10KSemaphoredlEPv
_Unwind_Resume
__gxx_personality_v0
_ZN10KSemaphore6signalEv
CONSOLE_STATUS
CONSOLE_TX_DATA
_ZN10KSemaphore4waitEv
_ZN5Riscv13w_a0_sscratchEv
_Z11thread_exitv
_Z15thread_dispatchv
_ZN5Riscv12finishSystemE
_Z20sysCallGetCharOutputv
CONSOLE_RX_DATA
