GAS LISTING /tmp/cc4ZsWke.s 			page 1


   1              		.file	"KSemaphore.cpp"
   2              		.option pic
   3              		.option norelax
   4              		.text
   5              	.Ltext0:
   6              		.align	2
   7              		.globl	_ZN10KSemaphoreC2Ei
   9              	_ZN10KSemaphoreC2Ei:
  10              	.LFB26:
  11              		.file 1 "src/KSemaphore.cpp"
   1:src/KSemaphore.cpp **** //
   2:src/KSemaphore.cpp **** // Created by os on 5/2/22.
   3:src/KSemaphore.cpp **** //
   4:src/KSemaphore.cpp **** 
   5:src/KSemaphore.cpp **** #include "../h/KSemaphore.hpp"
   6:src/KSemaphore.cpp **** #include "../h/MemoryAllocator.hpp"
   7:src/KSemaphore.cpp **** #include "../h/Riscv.hpp"
   8:src/KSemaphore.cpp **** #include "../h/Scheduler.hpp"
   9:src/KSemaphore.cpp **** 
  10:src/KSemaphore.cpp **** KSemaphore::KSemaphore(int val)
  12              		.loc 1 10 1
  13              		.cfi_startproc
  14              	.LVL0:
  15 0000 130101FF 		addi	sp,sp,-16
  16              		.cfi_def_cfa_offset 16
  17 0004 23348100 		sd	s0,8(sp)
  18              		.cfi_offset 8, -8
  19 0008 13040101 		addi	s0,sp,16
  20              		.cfi_def_cfa 8, 0
  21              	.LBB4:
  11:src/KSemaphore.cpp **** {
  12:src/KSemaphore.cpp ****     this->val = val;
  22              		.loc 1 12 5
  23              		.loc 1 12 15 is_stmt 0
  24 000c 2328B500 		sw	a1,16(a0)
  13:src/KSemaphore.cpp ****     headBlocked = tailBlocked = 0;
  25              		.loc 1 13 5 is_stmt 1
  26              		.loc 1 13 31 is_stmt 0
  27 0010 23340500 		sd	zero,8(a0)
  28              		.loc 1 13 17
  29 0014 23300500 		sd	zero,0(a0)
  30              	.LBE4:
  14:src/KSemaphore.cpp **** }
  31              		.loc 1 14 1
  32 0018 03348100 		ld	s0,8(sp)
  33              		.cfi_restore 8
  34              		.cfi_def_cfa 2, 16
  35 001c 13010101 		addi	sp,sp,16
  36              		.cfi_def_cfa_offset 0
  37 0020 67800000 		jr	ra
  38              		.cfi_endproc
  39              	.LFE26:
  41              		.globl	_ZN10KSemaphoreC1Ei
  42              		.set	_ZN10KSemaphoreC1Ei,_ZN10KSemaphoreC2Ei
  43              		.align	2
  44              		.globl	_ZN10KSemaphore12addToBlockedEP3PCB
  46              	_ZN10KSemaphore12addToBlockedEP3PCB:
GAS LISTING /tmp/cc4ZsWke.s 			page 2


  47              	.LFB34:
  15:src/KSemaphore.cpp **** 
  16:src/KSemaphore.cpp **** uint64 KSemaphore::wait()
  17:src/KSemaphore.cpp **** {
  18:src/KSemaphore.cpp ****     PCB::running->retFromClosedSem = false;
  19:src/KSemaphore.cpp ****     if(--val < 0)
  20:src/KSemaphore.cpp ****         block();
  21:src/KSemaphore.cpp **** 
  22:src/KSemaphore.cpp ****     return 0;
  23:src/KSemaphore.cpp **** }
  24:src/KSemaphore.cpp **** 
  25:src/KSemaphore.cpp **** uint64 KSemaphore::signal() {
  26:src/KSemaphore.cpp ****     if(++val <= 0)
  27:src/KSemaphore.cpp ****         unblock();
  28:src/KSemaphore.cpp **** 
  29:src/KSemaphore.cpp ****     return 0;
  30:src/KSemaphore.cpp **** }
  31:src/KSemaphore.cpp **** 
  32:src/KSemaphore.cpp **** void KSemaphore::semOpenHandler()
  33:src/KSemaphore.cpp **** {
  34:src/KSemaphore.cpp ****     uint64 val;
  35:src/KSemaphore.cpp ****     KSemaphore** semaphoreHandle;
  36:src/KSemaphore.cpp ****     __asm__ volatile("mv %0, a1" : "=r"(semaphoreHandle));
  37:src/KSemaphore.cpp ****     __asm__ volatile("mv %0, a2" : "=r"(val));
  38:src/KSemaphore.cpp **** 
  39:src/KSemaphore.cpp ****     KSemaphore* newSem = new KSemaphore(val);
  40:src/KSemaphore.cpp **** 
  41:src/KSemaphore.cpp ****     (*semaphoreHandle) = newSem;
  42:src/KSemaphore.cpp **** 
  43:src/KSemaphore.cpp ****     if(newSem == 0)
  44:src/KSemaphore.cpp ****             __asm__ volatile("li a0, 0xffffffffffffffff");
  45:src/KSemaphore.cpp ****     else
  46:src/KSemaphore.cpp ****             __asm__ volatile("li a0, 0");
  47:src/KSemaphore.cpp ****     Riscv::w_a0_sscratch();
  48:src/KSemaphore.cpp **** }
  49:src/KSemaphore.cpp **** 
  50:src/KSemaphore.cpp **** KSemaphore::~KSemaphore()
  51:src/KSemaphore.cpp **** {
  52:src/KSemaphore.cpp ****     while(getFirstBlocked() != 0)
  53:src/KSemaphore.cpp ****     {
  54:src/KSemaphore.cpp ****         PCB* pcb = getFirstBlocked();
  55:src/KSemaphore.cpp ****         removeFirstBlocked();
  56:src/KSemaphore.cpp ****         pcb->retFromClosedSem = true;
  57:src/KSemaphore.cpp ****         Scheduler::put(pcb);
  58:src/KSemaphore.cpp ****     }
  59:src/KSemaphore.cpp **** }
  60:src/KSemaphore.cpp **** 
  61:src/KSemaphore.cpp **** void KSemaphore::addToBlocked(PCB* pcb)
  62:src/KSemaphore.cpp **** {
  48              		.loc 1 62 1 is_stmt 1
  49              		.cfi_startproc
  50              	.LVL1:
  51 0024 130101FF 		addi	sp,sp,-16
  52              		.cfi_def_cfa_offset 16
  53 0028 23348100 		sd	s0,8(sp)
  54              		.cfi_offset 8, -8
  55 002c 13040101 		addi	s0,sp,16
GAS LISTING /tmp/cc4ZsWke.s 			page 3


  56              		.cfi_def_cfa 8, 0
  63:src/KSemaphore.cpp ****     pcb->nextPCB = 0;
  57              		.loc 1 63 5
  58              		.loc 1 63 18 is_stmt 0
  59 0030 23B40500 		sd	zero,8(a1)
  64:src/KSemaphore.cpp ****     if(headBlocked == 0)
  60              		.loc 1 64 5 is_stmt 1
  61              		.loc 1 64 8 is_stmt 0
  62 0034 83370500 		ld	a5,0(a0)
  63              		.loc 1 64 5
  64 0038 638E0700 		beqz	a5,.L7
  65:src/KSemaphore.cpp ****     {
  66:src/KSemaphore.cpp ****         headBlocked = tailBlocked = pcb;
  67:src/KSemaphore.cpp ****     }
  68:src/KSemaphore.cpp ****     else
  69:src/KSemaphore.cpp ****     {
  70:src/KSemaphore.cpp ****         tailBlocked->nextPCB = pcb;
  65              		.loc 1 70 9 is_stmt 1
  66 003c 83378500 		ld	a5,8(a0)
  67              		.loc 1 70 30 is_stmt 0
  68 0040 23B4B700 		sd	a1,8(a5)
  71:src/KSemaphore.cpp ****         tailBlocked = pcb;
  69              		.loc 1 71 9 is_stmt 1
  70              		.loc 1 71 21 is_stmt 0
  71 0044 2334B500 		sd	a1,8(a0)
  72              	.L3:
  72:src/KSemaphore.cpp ****     }
  73:src/KSemaphore.cpp **** }
  73              		.loc 1 73 1
  74 0048 03348100 		ld	s0,8(sp)
  75              		.cfi_remember_state
  76              		.cfi_restore 8
  77              		.cfi_def_cfa 2, 16
  78 004c 13010101 		addi	sp,sp,16
  79              		.cfi_def_cfa_offset 0
  80 0050 67800000 		jr	ra
  81              	.L7:
  82              		.cfi_restore_state
  66:src/KSemaphore.cpp ****     }
  83              		.loc 1 66 9 is_stmt 1
  66:src/KSemaphore.cpp ****     }
  84              		.loc 1 66 35 is_stmt 0
  85 0054 2334B500 		sd	a1,8(a0)
  66:src/KSemaphore.cpp ****     }
  86              		.loc 1 66 21
  87 0058 2330B500 		sd	a1,0(a0)
  88 005c 6FF0DFFE 		j	.L3
  89              		.cfi_endproc
  90              	.LFE34:
  92              		.align	2
  93              		.globl	_ZN10KSemaphore5blockEv
  95              	_ZN10KSemaphore5blockEv:
  96              	.LFB35:
  74:src/KSemaphore.cpp **** 
  75:src/KSemaphore.cpp **** void KSemaphore::block()
  76:src/KSemaphore.cpp **** {
  97              		.loc 1 76 1 is_stmt 1
GAS LISTING /tmp/cc4ZsWke.s 			page 4


  98              		.cfi_startproc
  99              	.LVL2:
 100 0060 130101FF 		addi	sp,sp,-16
 101              		.cfi_def_cfa_offset 16
 102 0064 23341100 		sd	ra,8(sp)
 103 0068 23308100 		sd	s0,0(sp)
 104              		.cfi_offset 1, -8
 105              		.cfi_offset 8, -16
 106 006c 13040101 		addi	s0,sp,16
 107              		.cfi_def_cfa 8, 0
  77:src/KSemaphore.cpp ****     PCB::running->setState(PCB::SUSPENDED);
 108              		.loc 1 77 5
 109              		.loc 1 77 27 is_stmt 0
 110 0070 97070000 		la	a5,_ZN3PCB7runningE
 110      83B70700 
 111 0078 83B50700 		ld	a1,0(a5)
 112              	.LVL3:
 113              	.LBB5:
 114              	.LBB6:
 115              		.file 2 "src/../h/PCB.hpp"
   1:src/../h/PCB.hpp **** //
   2:src/../h/PCB.hpp **** // Created by os on 4/27/22.
   3:src/../h/PCB.hpp **** //
   4:src/../h/PCB.hpp **** 
   5:src/../h/PCB.hpp **** #ifndef PROJECT_BASE_V1_0_PCB_HPP
   6:src/../h/PCB.hpp **** #define PROJECT_BASE_V1_0_PCB_HPP
   7:src/../h/PCB.hpp **** 
   8:src/../h/PCB.hpp **** #include "../lib/hw.h"
   9:src/../h/PCB.hpp **** 
  10:src/../h/PCB.hpp **** class PCB
  11:src/../h/PCB.hpp **** {
  12:src/../h/PCB.hpp **** private:
  13:src/../h/PCB.hpp ****     static uint64 savedRegA4;
  14:src/../h/PCB.hpp **** 
  15:src/../h/PCB.hpp ****     using Body = void (*)(void*);
  16:src/../h/PCB.hpp **** 
  17:src/../h/PCB.hpp ****     PCB(Body body,  void* args, void* stack_space, uint64 timeSlice);
  18:src/../h/PCB.hpp ****     ~PCB();
  19:src/../h/PCB.hpp **** 
  20:src/../h/PCB.hpp ****     void start();
  21:src/../h/PCB.hpp ****     static void dispatch();
  22:src/../h/PCB.hpp **** 
  23:src/../h/PCB.hpp ****     static PCB* running;
  24:src/../h/PCB.hpp **** 
  25:src/../h/PCB.hpp ****     static uint64 timeSliceCounter;
  26:src/../h/PCB.hpp ****     uint64 getTimeSlice() { return timeSlice;}
  27:src/../h/PCB.hpp **** 
  28:src/../h/PCB.hpp ****     void* operator new(size_t size);
  29:src/../h/PCB.hpp ****     void operator delete(void *p);
  30:src/../h/PCB.hpp **** 
  31:src/../h/PCB.hpp ****     enum State{READY, RUNNING, SUSPENDED, FINISHED, EXITING, SLEEPING};
  32:src/../h/PCB.hpp ****     State getState() {return state;}
  33:src/../h/PCB.hpp ****     void setState(State s) {state = s;}
 116              		.loc 2 33 29 is_stmt 1
 117              		.loc 2 33 35 is_stmt 0
 118 007c 93072000 		li	a5,2
 119 0080 23A0F504 		sw	a5,64(a1)
GAS LISTING /tmp/cc4ZsWke.s 			page 5


 120              	.LVL4:
 121              	.LBE6:
 122              	.LBE5:
  78:src/KSemaphore.cpp ****     addToBlocked(PCB::running);
 123              		.loc 1 78 5 is_stmt 1
 124              		.loc 1 78 17 is_stmt 0
 125 0084 97000000 		call	_ZN10KSemaphore12addToBlockedEP3PCB
 125      E7800000 
 126              	.LVL5:
  79:src/KSemaphore.cpp ****     PCB::dispatch();
 127              		.loc 1 79 5 is_stmt 1
 128              		.loc 1 79 18 is_stmt 0
 129 008c 97000000 		call	_ZN3PCB8dispatchEv@plt
 129      E7800000 
 130              	.LVL6:
  80:src/KSemaphore.cpp **** }
 131              		.loc 1 80 1
 132 0094 83308100 		ld	ra,8(sp)
 133              		.cfi_restore 1
 134 0098 03340100 		ld	s0,0(sp)
 135              		.cfi_restore 8
 136              		.cfi_def_cfa 2, 16
 137 009c 13010101 		addi	sp,sp,16
 138              		.cfi_def_cfa_offset 0
 139 00a0 67800000 		jr	ra
 140              		.cfi_endproc
 141              	.LFE35:
 143              		.align	2
 144              		.globl	_ZN10KSemaphore4waitEv
 146              	_ZN10KSemaphore4waitEv:
 147              	.LFB28:
  17:src/KSemaphore.cpp ****     PCB::running->retFromClosedSem = false;
 148              		.loc 1 17 1 is_stmt 1
 149              		.cfi_startproc
 150              	.LVL7:
  18:src/KSemaphore.cpp ****     if(--val < 0)
 151              		.loc 1 18 5
  18:src/KSemaphore.cpp ****     if(--val < 0)
 152              		.loc 1 18 19 is_stmt 0
 153 00a4 97070000 		la	a5,_ZN3PCB7runningE
 153      83B70700 
 154 00ac 83B70700 		ld	a5,0(a5)
  18:src/KSemaphore.cpp ****     if(--val < 0)
 155              		.loc 1 18 36
 156 00b0 238C0704 		sb	zero,88(a5)
  19:src/KSemaphore.cpp ****         block();
 157              		.loc 1 19 5 is_stmt 1
  19:src/KSemaphore.cpp ****         block();
 158              		.loc 1 19 10 is_stmt 0
 159 00b4 83270501 		lw	a5,16(a0)
  19:src/KSemaphore.cpp ****         block();
 160              		.loc 1 19 8
 161 00b8 9B87F7FF 		addiw	a5,a5,-1
  19:src/KSemaphore.cpp ****         block();
 162              		.loc 1 19 14
 163 00bc 2328F500 		sw	a5,16(a0)
  19:src/KSemaphore.cpp ****         block();
GAS LISTING /tmp/cc4ZsWke.s 			page 6


 164              		.loc 1 19 5
 165 00c0 13970702 		slli	a4,a5,32
 166 00c4 63460700 		bltz	a4,.L16
  22:src/KSemaphore.cpp **** }
 167              		.loc 1 22 5 is_stmt 1
  23:src/KSemaphore.cpp **** 
 168              		.loc 1 23 1 is_stmt 0
 169 00c8 13050000 		li	a0,0
 170              	.LVL8:
 171 00cc 67800000 		ret
 172              	.LVL9:
 173              	.L16:
  17:src/KSemaphore.cpp ****     PCB::running->retFromClosedSem = false;
 174              		.loc 1 17 1
 175 00d0 130101FF 		addi	sp,sp,-16
 176              		.cfi_def_cfa_offset 16
 177 00d4 23341100 		sd	ra,8(sp)
 178 00d8 23308100 		sd	s0,0(sp)
 179              		.cfi_offset 1, -8
 180              		.cfi_offset 8, -16
 181 00dc 13040101 		addi	s0,sp,16
 182              		.cfi_def_cfa 8, 0
  20:src/KSemaphore.cpp **** 
 183              		.loc 1 20 9 is_stmt 1
  20:src/KSemaphore.cpp **** 
 184              		.loc 1 20 14 is_stmt 0
 185 00e0 97000000 		call	_ZN10KSemaphore5blockEv
 185      E7800000 
 186              	.LVL10:
  22:src/KSemaphore.cpp **** }
 187              		.loc 1 22 5 is_stmt 1
  23:src/KSemaphore.cpp **** 
 188              		.loc 1 23 1 is_stmt 0
 189 00e8 13050000 		li	a0,0
 190 00ec 83308100 		ld	ra,8(sp)
 191              		.cfi_restore 1
 192 00f0 03340100 		ld	s0,0(sp)
 193              		.cfi_restore 8
 194              		.cfi_def_cfa 2, 16
 195 00f4 13010101 		addi	sp,sp,16
 196              		.cfi_def_cfa_offset 0
 197 00f8 67800000 		jr	ra
 198              		.cfi_endproc
 199              	.LFE28:
 201              		.align	2
 202              		.globl	_ZN10KSemaphore15getFirstBlockedEv
 204              	_ZN10KSemaphore15getFirstBlockedEv:
 205              	.LFB36:
  81:src/KSemaphore.cpp **** 
  82:src/KSemaphore.cpp **** PCB* KSemaphore::getFirstBlocked()
  83:src/KSemaphore.cpp **** {
 206              		.loc 1 83 1 is_stmt 1
 207              		.cfi_startproc
 208              	.LVL11:
 209 00fc 130101FF 		addi	sp,sp,-16
 210              		.cfi_def_cfa_offset 16
 211 0100 23348100 		sd	s0,8(sp)
GAS LISTING /tmp/cc4ZsWke.s 			page 7


 212              		.cfi_offset 8, -8
 213 0104 13040101 		addi	s0,sp,16
 214              		.cfi_def_cfa 8, 0
  84:src/KSemaphore.cpp ****    return headBlocked;
 215              		.loc 1 84 4
  85:src/KSemaphore.cpp **** }
 216              		.loc 1 85 1 is_stmt 0
 217 0108 03350500 		ld	a0,0(a0)
 218              	.LVL12:
 219 010c 03348100 		ld	s0,8(sp)
 220              		.cfi_restore 8
 221              		.cfi_def_cfa 2, 16
 222 0110 13010101 		addi	sp,sp,16
 223              		.cfi_def_cfa_offset 0
 224 0114 67800000 		jr	ra
 225              		.cfi_endproc
 226              	.LFE36:
 228              		.align	2
 229              		.globl	_ZN10KSemaphore18removeFirstBlockedEv
 231              	_ZN10KSemaphore18removeFirstBlockedEv:
 232              	.LFB37:
  86:src/KSemaphore.cpp **** 
  87:src/KSemaphore.cpp **** void KSemaphore::removeFirstBlocked()
  88:src/KSemaphore.cpp **** {
 233              		.loc 1 88 1 is_stmt 1
 234              		.cfi_startproc
 235              	.LVL13:
 236 0118 130101FF 		addi	sp,sp,-16
 237              		.cfi_def_cfa_offset 16
 238 011c 23348100 		sd	s0,8(sp)
 239              		.cfi_offset 8, -8
 240 0120 13040101 		addi	s0,sp,16
 241              		.cfi_def_cfa 8, 0
  89:src/KSemaphore.cpp ****     if(headBlocked == 0)
 242              		.loc 1 89 5
 243              		.loc 1 89 8 is_stmt 0
 244 0124 83370500 		ld	a5,0(a0)
 245              		.loc 1 89 5
 246 0128 638C0700 		beqz	a5,.L19
  90:src/KSemaphore.cpp ****         return;
  91:src/KSemaphore.cpp ****     PCB* first = headBlocked;
 247              		.loc 1 91 5 is_stmt 1
 248              	.LVL14:
  92:src/KSemaphore.cpp ****     headBlocked = headBlocked->nextPCB;
 249              		.loc 1 92 5
 250              		.loc 1 92 32 is_stmt 0
 251 012c 03B78700 		ld	a4,8(a5)
 252              		.loc 1 92 17
 253 0130 2330E500 		sd	a4,0(a0)
  93:src/KSemaphore.cpp ****     first->nextPCB = 0;
 254              		.loc 1 93 5 is_stmt 1
 255              		.loc 1 93 20 is_stmt 0
 256 0134 23B40700 		sd	zero,8(a5)
  94:src/KSemaphore.cpp ****     if(headBlocked == 0)
 257              		.loc 1 94 5 is_stmt 1
 258              		.loc 1 94 8 is_stmt 0
 259 0138 83370500 		ld	a5,0(a0)
GAS LISTING /tmp/cc4ZsWke.s 			page 8


 260              	.LVL15:
 261              		.loc 1 94 5
 262 013c 63880700 		beqz	a5,.L22
 263              	.L19:
  95:src/KSemaphore.cpp ****         tailBlocked =0;
  96:src/KSemaphore.cpp **** }
 264              		.loc 1 96 1
 265 0140 03348100 		ld	s0,8(sp)
 266              		.cfi_remember_state
 267              		.cfi_restore 8
 268              		.cfi_def_cfa 2, 16
 269 0144 13010101 		addi	sp,sp,16
 270              		.cfi_def_cfa_offset 0
 271 0148 67800000 		jr	ra
 272              	.L22:
 273              		.cfi_restore_state
  95:src/KSemaphore.cpp ****         tailBlocked =0;
 274              		.loc 1 95 9 is_stmt 1
  95:src/KSemaphore.cpp ****         tailBlocked =0;
 275              		.loc 1 95 21 is_stmt 0
 276 014c 23340500 		sd	zero,8(a0)
 277 0150 6FF01FFF 		j	.L19
 278              		.cfi_endproc
 279              	.LFE37:
 281              		.align	2
 282              		.globl	_ZN10KSemaphoreD2Ev
 284              	_ZN10KSemaphoreD2Ev:
 285              	.LFB32:
  50:src/KSemaphore.cpp **** {
 286              		.loc 1 50 1 is_stmt 1
 287              		.cfi_startproc
 288              		.cfi_personality 0x9b,DW.ref.__gxx_personality_v0
 289              		.cfi_lsda 0x1b,.LLSDA32
 290              	.LVL16:
 291 0154 130101FE 		addi	sp,sp,-32
 292              		.cfi_def_cfa_offset 32
 293 0158 233C1100 		sd	ra,24(sp)
 294 015c 23388100 		sd	s0,16(sp)
 295 0160 23349100 		sd	s1,8(sp)
 296 0164 23302101 		sd	s2,0(sp)
 297              		.cfi_offset 1, -8
 298              		.cfi_offset 8, -16
 299              		.cfi_offset 9, -24
 300              		.cfi_offset 18, -32
 301 0168 13040102 		addi	s0,sp,32
 302              		.cfi_def_cfa 8, 0
 303 016c 13090500 		mv	s2,a0
 304              	.LVL17:
 305              	.L25:
 306              	.LBB7:
  52:src/KSemaphore.cpp ****     {
 307              		.loc 1 52 5
  52:src/KSemaphore.cpp ****     {
 308              		.loc 1 52 29
  52:src/KSemaphore.cpp ****     {
 309              		.loc 1 52 26 is_stmt 0
 310 0170 13050900 		mv	a0,s2
GAS LISTING /tmp/cc4ZsWke.s 			page 9


 311 0174 97000000 		call	_ZN10KSemaphore15getFirstBlockedEv
 311      E7800000 
 312              	.LVL18:
 313 017c 93040500 		mv	s1,a0
  52:src/KSemaphore.cpp ****     {
 314              		.loc 1 52 29
 315 0180 63040502 		beqz	a0,.L23
 316              	.LBB8:
  54:src/KSemaphore.cpp ****         removeFirstBlocked();
 317              		.loc 1 54 9 is_stmt 1
 318              	.LVL19:
  55:src/KSemaphore.cpp ****         pcb->retFromClosedSem = true;
 319              		.loc 1 55 9
  55:src/KSemaphore.cpp ****         pcb->retFromClosedSem = true;
 320              		.loc 1 55 27 is_stmt 0
 321 0184 13050900 		mv	a0,s2
 322 0188 97000000 		call	_ZN10KSemaphore18removeFirstBlockedEv
 322      E7800000 
 323              	.LVL20:
  56:src/KSemaphore.cpp ****         Scheduler::put(pcb);
 324              		.loc 1 56 9 is_stmt 1
  56:src/KSemaphore.cpp ****         Scheduler::put(pcb);
 325              		.loc 1 56 31 is_stmt 0
 326 0190 93071000 		li	a5,1
 327 0194 238CF404 		sb	a5,88(s1)
  57:src/KSemaphore.cpp ****     }
 328              		.loc 1 57 9 is_stmt 1
  57:src/KSemaphore.cpp ****     }
 329              		.loc 1 57 23 is_stmt 0
 330 0198 13850400 		mv	a0,s1
 331 019c 97000000 		call	_ZN9Scheduler3putEP3PCB@plt
 331      E7800000 
 332              	.LVL21:
 333              	.LBE8:
  52:src/KSemaphore.cpp ****     {
 334              		.loc 1 52 5
 335 01a4 6FF0DFFC 		j	.L25
 336              	.LVL22:
 337              	.L23:
 338              	.LBE7:
  59:src/KSemaphore.cpp **** 
 339              		.loc 1 59 1
 340 01a8 83308101 		ld	ra,24(sp)
 341              		.cfi_restore 1
 342 01ac 03340101 		ld	s0,16(sp)
 343              		.cfi_restore 8
 344              		.cfi_def_cfa 2, 32
 345 01b0 83348100 		ld	s1,8(sp)
 346              		.cfi_restore 9
 347 01b4 03390100 		ld	s2,0(sp)
 348              		.cfi_restore 18
 349              	.LVL23:
 350 01b8 13010102 		addi	sp,sp,32
 351              		.cfi_def_cfa_offset 0
 352 01bc 67800000 		jr	ra
 353              		.cfi_endproc
 354              	.LFE32:
GAS LISTING /tmp/cc4ZsWke.s 			page 10


 355              		.globl	__gxx_personality_v0
 356              		.section	.gcc_except_table,"a",@progbits
 357              	.LLSDA32:
 358 0000 FF       		.byte	0xff
 359 0001 FF       		.byte	0xff
 360 0002 03       		.byte	0x3
 361 0003 00       		.byte	0
 362              		.text
 364              		.globl	_ZN10KSemaphoreD1Ev
 365              		.set	_ZN10KSemaphoreD1Ev,_ZN10KSemaphoreD2Ev
 366              		.align	2
 367              		.globl	_ZN10KSemaphore7unblockEv
 369              	_ZN10KSemaphore7unblockEv:
 370              	.LFB38:
  97:src/KSemaphore.cpp **** 
  98:src/KSemaphore.cpp **** void KSemaphore::unblock() {
 371              		.loc 1 98 28 is_stmt 1
 372              		.cfi_startproc
 373              	.LVL24:
 374 01c0 130101FE 		addi	sp,sp,-32
 375              		.cfi_def_cfa_offset 32
 376 01c4 233C1100 		sd	ra,24(sp)
 377 01c8 23388100 		sd	s0,16(sp)
 378 01cc 23349100 		sd	s1,8(sp)
 379 01d0 23302101 		sd	s2,0(sp)
 380              		.cfi_offset 1, -8
 381              		.cfi_offset 8, -16
 382              		.cfi_offset 9, -24
 383              		.cfi_offset 18, -32
 384 01d4 13040102 		addi	s0,sp,32
 385              		.cfi_def_cfa 8, 0
 386 01d8 13090500 		mv	s2,a0
  99:src/KSemaphore.cpp ****     PCB* fr = getFirstBlocked();
 387              		.loc 1 99 5
 388              		.loc 1 99 30 is_stmt 0
 389 01dc 97000000 		call	_ZN10KSemaphore15getFirstBlockedEv
 389      E7800000 
 390              	.LVL25:
 391 01e4 93040500 		mv	s1,a0
 392              	.LVL26:
 100:src/KSemaphore.cpp ****     removeFirstBlocked();
 393              		.loc 1 100 5 is_stmt 1
 394              		.loc 1 100 23 is_stmt 0
 395 01e8 13050900 		mv	a0,s2
 396 01ec 97000000 		call	_ZN10KSemaphore18removeFirstBlockedEv
 396      E7800000 
 397              	.LVL27:
 101:src/KSemaphore.cpp ****     if(fr != 0)
 398              		.loc 1 101 5 is_stmt 1
 399 01f4 63880400 		beqz	s1,.L27
 102:src/KSemaphore.cpp ****     {
 103:src/KSemaphore.cpp ****         Scheduler::put(fr);
 400              		.loc 1 103 9
 401              		.loc 1 103 23 is_stmt 0
 402 01f8 13850400 		mv	a0,s1
 403 01fc 97000000 		call	_ZN9Scheduler3putEP3PCB@plt
 403      E7800000 
GAS LISTING /tmp/cc4ZsWke.s 			page 11


 404              	.LVL28:
 405              	.L27:
 104:src/KSemaphore.cpp ****     }
 105:src/KSemaphore.cpp **** }
 406              		.loc 1 105 1
 407 0204 83308101 		ld	ra,24(sp)
 408              		.cfi_restore 1
 409 0208 03340101 		ld	s0,16(sp)
 410              		.cfi_restore 8
 411              		.cfi_def_cfa 2, 32
 412 020c 83348100 		ld	s1,8(sp)
 413              		.cfi_restore 9
 414              	.LVL29:
 415 0210 03390100 		ld	s2,0(sp)
 416              		.cfi_restore 18
 417              	.LVL30:
 418 0214 13010102 		addi	sp,sp,32
 419              		.cfi_def_cfa_offset 0
 420 0218 67800000 		jr	ra
 421              		.cfi_endproc
 422              	.LFE38:
 424              		.align	2
 425              		.globl	_ZN10KSemaphore6signalEv
 427              	_ZN10KSemaphore6signalEv:
 428              	.LFB29:
  25:src/KSemaphore.cpp ****     if(++val <= 0)
 429              		.loc 1 25 29 is_stmt 1
 430              		.cfi_startproc
 431              	.LVL31:
  26:src/KSemaphore.cpp ****         unblock();
 432              		.loc 1 26 5
  26:src/KSemaphore.cpp ****         unblock();
 433              		.loc 1 26 10 is_stmt 0
 434 021c 83270501 		lw	a5,16(a0)
  26:src/KSemaphore.cpp ****         unblock();
 435              		.loc 1 26 8
 436 0220 9B871700 		addiw	a5,a5,1
 437 0224 1B870700 		sext.w	a4,a5
  26:src/KSemaphore.cpp ****         unblock();
 438              		.loc 1 26 14
 439 0228 2328F500 		sw	a5,16(a0)
  26:src/KSemaphore.cpp ****         unblock();
 440              		.loc 1 26 5
 441 022c 6356E000 		blez	a4,.L36
  29:src/KSemaphore.cpp **** }
 442              		.loc 1 29 5 is_stmt 1
  30:src/KSemaphore.cpp **** 
 443              		.loc 1 30 1 is_stmt 0
 444 0230 13050000 		li	a0,0
 445              	.LVL32:
 446 0234 67800000 		ret
 447              	.LVL33:
 448              	.L36:
  25:src/KSemaphore.cpp ****     if(++val <= 0)
 449              		.loc 1 25 29
 450 0238 130101FF 		addi	sp,sp,-16
 451              		.cfi_def_cfa_offset 16
GAS LISTING /tmp/cc4ZsWke.s 			page 12


 452 023c 23341100 		sd	ra,8(sp)
 453 0240 23308100 		sd	s0,0(sp)
 454              		.cfi_offset 1, -8
 455              		.cfi_offset 8, -16
 456 0244 13040101 		addi	s0,sp,16
 457              		.cfi_def_cfa 8, 0
  27:src/KSemaphore.cpp **** 
 458              		.loc 1 27 9 is_stmt 1
  27:src/KSemaphore.cpp **** 
 459              		.loc 1 27 16 is_stmt 0
 460 0248 97000000 		call	_ZN10KSemaphore7unblockEv
 460      E7800000 
 461              	.LVL34:
  29:src/KSemaphore.cpp **** }
 462              		.loc 1 29 5 is_stmt 1
  30:src/KSemaphore.cpp **** 
 463              		.loc 1 30 1 is_stmt 0
 464 0250 13050000 		li	a0,0
 465 0254 83308100 		ld	ra,8(sp)
 466              		.cfi_restore 1
 467 0258 03340100 		ld	s0,0(sp)
 468              		.cfi_restore 8
 469              		.cfi_def_cfa 2, 16
 470 025c 13010101 		addi	sp,sp,16
 471              		.cfi_def_cfa_offset 0
 472 0260 67800000 		jr	ra
 473              		.cfi_endproc
 474              	.LFE29:
 476              		.align	2
 477              		.globl	_ZN10KSemaphorenwEm
 479              	_ZN10KSemaphorenwEm:
 480              	.LFB39:
 106:src/KSemaphore.cpp **** void *KSemaphore::operator new(size_t size) {
 481              		.loc 1 106 45 is_stmt 1
 482              		.cfi_startproc
 483              	.LVL35:
 484 0264 130101FF 		addi	sp,sp,-16
 485              		.cfi_def_cfa_offset 16
 486 0268 23341100 		sd	ra,8(sp)
 487 026c 23308100 		sd	s0,0(sp)
 488              		.cfi_offset 1, -8
 489              		.cfi_offset 8, -16
 490 0270 13040101 		addi	s0,sp,16
 491              		.cfi_def_cfa 8, 0
 107:src/KSemaphore.cpp ****     return kmem_cache_alloc(Riscv::semaphoreCache);
 492              		.loc 1 107 5
 493              		.loc 1 107 28 is_stmt 0
 494 0274 97070000 		la	a5,_ZN5Riscv14semaphoreCacheE
 494      83B70700 
 495 027c 03B50700 		ld	a0,0(a5)
 496              	.LVL36:
 497 0280 97000000 		call	_Z16kmem_cache_allocP12kmem_cache_s@plt
 497      E7800000 
 498              	.LVL37:
 108:src/KSemaphore.cpp ****     //return MemoryAllocator::kmalloc(size);
 109:src/KSemaphore.cpp **** }
 499              		.loc 1 109 1
GAS LISTING /tmp/cc4ZsWke.s 			page 13


 500 0288 83308100 		ld	ra,8(sp)
 501              		.cfi_restore 1
 502 028c 03340100 		ld	s0,0(sp)
 503              		.cfi_restore 8
 504              		.cfi_def_cfa 2, 16
 505 0290 13010101 		addi	sp,sp,16
 506              		.cfi_def_cfa_offset 0
 507 0294 67800000 		jr	ra
 508              		.cfi_endproc
 509              	.LFE39:
 511              		.align	2
 512              		.globl	_ZN10KSemaphore14semOpenHandlerEv
 514              	_ZN10KSemaphore14semOpenHandlerEv:
 515              	.LFB30:
  33:src/KSemaphore.cpp ****     uint64 val;
 516              		.loc 1 33 1 is_stmt 1
 517              		.cfi_startproc
 518 0298 130101FD 		addi	sp,sp,-48
 519              		.cfi_def_cfa_offset 48
 520 029c 23341102 		sd	ra,40(sp)
 521 02a0 23308102 		sd	s0,32(sp)
 522 02a4 233C9100 		sd	s1,24(sp)
 523 02a8 23382101 		sd	s2,16(sp)
 524 02ac 23343101 		sd	s3,8(sp)
 525              		.cfi_offset 1, -8
 526              		.cfi_offset 8, -16
 527              		.cfi_offset 9, -24
 528              		.cfi_offset 18, -32
 529              		.cfi_offset 19, -40
 530 02b0 13040103 		addi	s0,sp,48
 531              		.cfi_def_cfa 8, 0
  34:src/KSemaphore.cpp ****     KSemaphore** semaphoreHandle;
 532              		.loc 1 34 5
  35:src/KSemaphore.cpp ****     __asm__ volatile("mv %0, a1" : "=r"(semaphoreHandle));
 533              		.loc 1 35 5
  36:src/KSemaphore.cpp ****     __asm__ volatile("mv %0, a2" : "=r"(val));
 534              		.loc 1 36 5
  36:src/KSemaphore.cpp ****     __asm__ volatile("mv %0, a2" : "=r"(val));
 535              		.loc 1 36 58 is_stmt 0
 536              	#APP
 537              	# 36 "src/KSemaphore.cpp" 1
 538              		mv s2, a1
 539              	# 0 "" 2
 540              	.LVL38:
  37:src/KSemaphore.cpp **** 
 541              		.loc 1 37 5 is_stmt 1
  37:src/KSemaphore.cpp **** 
 542              		.loc 1 37 46 is_stmt 0
 543              	# 37 "src/KSemaphore.cpp" 1
 544              		mv s3, a2
 545              	# 0 "" 2
 546              	.LVL39:
  39:src/KSemaphore.cpp **** 
 547              		.loc 1 39 5 is_stmt 1
  39:src/KSemaphore.cpp **** 
 548              		.loc 1 39 44 is_stmt 0
 549              	#NO_APP
GAS LISTING /tmp/cc4ZsWke.s 			page 14


 550 02bc 13058001 		li	a0,24
 551 02c0 97000000 		call	_ZN10KSemaphorenwEm
 551      E7800000 
 552              	.LVL40:
 553 02c8 93040500 		mv	s1,a0
 554 02cc 9B850900 		sext.w	a1,s3
 555 02d0 97000000 		call	_ZN10KSemaphoreC1Ei
 555      E7800000 
 556              	.LVL41:
  41:src/KSemaphore.cpp **** 
 557              		.loc 1 41 5 is_stmt 1
  41:src/KSemaphore.cpp **** 
 558              		.loc 1 41 24 is_stmt 0
 559 02d8 23309900 		sd	s1,0(s2)
  43:src/KSemaphore.cpp ****             __asm__ volatile("li a0, 0xffffffffffffffff");
 560              		.loc 1 43 5 is_stmt 1
 561 02dc 63860402 		beqz	s1,.L43
  46:src/KSemaphore.cpp ****     Riscv::w_a0_sscratch();
 562              		.loc 1 46 13
  46:src/KSemaphore.cpp ****     Riscv::w_a0_sscratch();
 563              		.loc 1 46 41 is_stmt 0
 564              	#APP
 565              	# 46 "src/KSemaphore.cpp" 1
 566              		li a0, 0
 567              	# 0 "" 2
 568              	#NO_APP
 569              	.L41:
  47:src/KSemaphore.cpp **** }
 570              		.loc 1 47 5 is_stmt 1
  47:src/KSemaphore.cpp **** }
 571              		.loc 1 47 25 is_stmt 0
 572 02e4 97000000 		call	_ZN5Riscv13w_a0_sscratchEv@plt
 572      E7800000 
 573              	.LVL42:
  48:src/KSemaphore.cpp **** 
 574              		.loc 1 48 1
 575 02ec 83308102 		ld	ra,40(sp)
 576              		.cfi_remember_state
 577              		.cfi_restore 1
 578 02f0 03340102 		ld	s0,32(sp)
 579              		.cfi_restore 8
 580              		.cfi_def_cfa 2, 48
 581 02f4 83348101 		ld	s1,24(sp)
 582              		.cfi_restore 9
 583              	.LVL43:
 584 02f8 03390101 		ld	s2,16(sp)
 585              		.cfi_restore 18
 586              	.LVL44:
 587 02fc 83398100 		ld	s3,8(sp)
 588              		.cfi_restore 19
 589              	.LVL45:
 590 0300 13010103 		addi	sp,sp,48
 591              		.cfi_def_cfa_offset 0
 592 0304 67800000 		jr	ra
 593              	.LVL46:
 594              	.L43:
 595              		.cfi_restore_state
GAS LISTING /tmp/cc4ZsWke.s 			page 15


  44:src/KSemaphore.cpp ****     else
 596              		.loc 1 44 13 is_stmt 1
  44:src/KSemaphore.cpp ****     else
 597              		.loc 1 44 58 is_stmt 0
 598              	#APP
 599              	# 44 "src/KSemaphore.cpp" 1
 600              		li a0, 0xffffffffffffffff
 601              	# 0 "" 2
 602              	#NO_APP
 603 030c 6FF09FFD 		j	.L41
 604              		.cfi_endproc
 605              	.LFE30:
 607              		.align	2
 608              		.globl	_ZN10KSemaphoredlEPv
 610              	_ZN10KSemaphoredlEPv:
 611              	.LFB40:
 110:src/KSemaphore.cpp **** 
 111:src/KSemaphore.cpp **** void KSemaphore::operator delete(void *p)
 112:src/KSemaphore.cpp **** {
 612              		.loc 1 112 1 is_stmt 1
 613              		.cfi_startproc
 614              	.LVL47:
 615 0310 130101FF 		addi	sp,sp,-16
 616              		.cfi_def_cfa_offset 16
 617 0314 23341100 		sd	ra,8(sp)
 618 0318 23308100 		sd	s0,0(sp)
 619              		.cfi_offset 1, -8
 620              		.cfi_offset 8, -16
 621 031c 13040101 		addi	s0,sp,16
 622              		.cfi_def_cfa 8, 0
 623 0320 93050500 		mv	a1,a0
 113:src/KSemaphore.cpp ****     kmem_cache_free(Riscv::semaphoreCache, p);
 624              		.loc 1 113 5
 625              		.loc 1 113 20 is_stmt 0
 626 0324 97070000 		la	a5,_ZN5Riscv14semaphoreCacheE
 626      83B70700 
 627 032c 03B50700 		ld	a0,0(a5)
 628              	.LVL48:
 629 0330 97000000 		call	_Z15kmem_cache_freeP12kmem_cache_sPv@plt
 629      E7800000 
 630              	.LVL49:
 114:src/KSemaphore.cpp ****     //MemoryAllocator::kfree(p);
 115:src/KSemaphore.cpp **** }
 631              		.loc 1 115 1
 632 0338 83308100 		ld	ra,8(sp)
 633              		.cfi_restore 1
 634 033c 03340100 		ld	s0,0(sp)
 635              		.cfi_restore 8
 636              		.cfi_def_cfa 2, 16
 637 0340 13010101 		addi	sp,sp,16
 638              		.cfi_def_cfa_offset 0
 639 0344 67800000 		jr	ra
 640              		.cfi_endproc
 641              	.LFE40:
 643              		.align	2
 644              		.globl	_ZN10KSemaphore14semWaitHandlerEv
 646              	_ZN10KSemaphore14semWaitHandlerEv:
GAS LISTING /tmp/cc4ZsWke.s 			page 16


 647              	.LFB41:
 116:src/KSemaphore.cpp **** 
 117:src/KSemaphore.cpp **** void KSemaphore::semWaitHandler()
 118:src/KSemaphore.cpp **** {
 648              		.loc 1 118 1 is_stmt 1
 649              		.cfi_startproc
 650 0348 130101FF 		addi	sp,sp,-16
 651              		.cfi_def_cfa_offset 16
 652 034c 23341100 		sd	ra,8(sp)
 653 0350 23308100 		sd	s0,0(sp)
 654              		.cfi_offset 1, -8
 655              		.cfi_offset 8, -16
 656 0354 13040101 		addi	s0,sp,16
 657              		.cfi_def_cfa 8, 0
 119:src/KSemaphore.cpp ****     KSemaphore* kSem;
 658              		.loc 1 119 5
 120:src/KSemaphore.cpp ****     __asm__ volatile("mv %0, a1" : "=r"(kSem));
 659              		.loc 1 120 5
 660              		.loc 1 120 47 is_stmt 0
 661              	#APP
 662              	# 120 "src/KSemaphore.cpp" 1
 121              	    kSem->wait();
 663              		mv a0, a1
 664              	# 0 "" 2
 665              	.LVL50:
 666              		.loc 1 121 5 is_stmt 1
 667              		.loc 1 121 15 is_stmt 0
 668              	#NO_APP
 669 035c 97000000 		call	_ZN10KSemaphore4waitEv
 669      E7800000 
 670              	.LVL51:
 122:src/KSemaphore.cpp ****     if(PCB::running->retFromClosedSem)
 671              		.loc 1 122 5 is_stmt 1
 672              		.loc 1 122 22 is_stmt 0
 673 0364 97070000 		la	a5,_ZN3PCB7runningE
 673      83B70700 
 674 036c 83B70700 		ld	a5,0(a5)
 675 0370 83C78705 		lbu	a5,88(a5)
 676              		.loc 1 122 5
 677 0374 63800702 		beqz	a5,.L47
 123:src/KSemaphore.cpp ****         __asm__ volatile("li a0, 0x1");
 678              		.loc 1 123 9 is_stmt 1
 679              		.loc 1 123 39 is_stmt 0
 680              	#APP
 681              	# 123 "src/KSemaphore.cpp" 1
 124              	    else
 682              		li a0, 0x1
 683              	# 0 "" 2
 684              	#NO_APP
 685              	.L48:
 125:src/KSemaphore.cpp ****         __asm__ volatile("li a0, 0x0");
 126:src/KSemaphore.cpp ****     Riscv::w_a0_sscratch();
 686              		.loc 1 126 5 is_stmt 1
 687              		.loc 1 126 25 is_stmt 0
 688 037c 97000000 		call	_ZN5Riscv13w_a0_sscratchEv@plt
 688      E7800000 
 689              	.LVL52:
GAS LISTING /tmp/cc4ZsWke.s 			page 17


 127:src/KSemaphore.cpp **** }
 690              		.loc 1 127 1
 691 0384 83308100 		ld	ra,8(sp)
 692              		.cfi_remember_state
 693              		.cfi_restore 1
 694 0388 03340100 		ld	s0,0(sp)
 695              		.cfi_restore 8
 696              		.cfi_def_cfa 2, 16
 697 038c 13010101 		addi	sp,sp,16
 698              		.cfi_def_cfa_offset 0
 699 0390 67800000 		jr	ra
 700              	.L47:
 701              		.cfi_restore_state
 125:src/KSemaphore.cpp ****         __asm__ volatile("li a0, 0x0");
 702              		.loc 1 125 9 is_stmt 1
 125:src/KSemaphore.cpp ****         __asm__ volatile("li a0, 0x0");
 703              		.loc 1 125 39 is_stmt 0
 704              	#APP
 705              	# 125 "src/KSemaphore.cpp" 1
 706              		li a0, 0x0
 707              	# 0 "" 2
 708              	#NO_APP
 709 0398 6FF05FFE 		j	.L48
 710              		.cfi_endproc
 711              	.LFE41:
 713              		.align	2
 714              		.globl	_ZN10KSemaphore16semSignalHandlerEv
 716              	_ZN10KSemaphore16semSignalHandlerEv:
 717              	.LFB42:
 128:src/KSemaphore.cpp **** 
 129:src/KSemaphore.cpp **** void KSemaphore::semSignalHandler() {
 718              		.loc 1 129 37 is_stmt 1
 719              		.cfi_startproc
 720 039c 130101FF 		addi	sp,sp,-16
 721              		.cfi_def_cfa_offset 16
 722 03a0 23341100 		sd	ra,8(sp)
 723 03a4 23308100 		sd	s0,0(sp)
 724              		.cfi_offset 1, -8
 725              		.cfi_offset 8, -16
 726 03a8 13040101 		addi	s0,sp,16
 727              		.cfi_def_cfa 8, 0
 130:src/KSemaphore.cpp ****     KSemaphore *kSem;
 728              		.loc 1 130 5
 131:src/KSemaphore.cpp ****     __asm__ volatile("mv %0, a1" : "=r"(kSem));
 729              		.loc 1 131 5
 730              		.loc 1 131 47 is_stmt 0
 731              	#APP
 732              	# 131 "src/KSemaphore.cpp" 1
 132              	    if (kSem == 0)
 733              		mv a0, a1
 734              	# 0 "" 2
 735              	.LVL53:
 736              		.loc 1 132 5 is_stmt 1
 737              	#NO_APP
 738 03b0 63040502 		beqz	a0,.L54
 133:src/KSemaphore.cpp ****     {
 134:src/KSemaphore.cpp ****         __asm__ volatile("li a0, 0x1");
GAS LISTING /tmp/cc4ZsWke.s 			page 18


 135:src/KSemaphore.cpp ****     }
 136:src/KSemaphore.cpp ****     else
 137:src/KSemaphore.cpp ****     {
 138:src/KSemaphore.cpp ****         kSem->signal();
 739              		.loc 1 138 9
 740              		.loc 1 138 21 is_stmt 0
 741 03b4 97000000 		call	_ZN10KSemaphore6signalEv
 741      E7800000 
 742              	.LVL54:
 139:src/KSemaphore.cpp ****         __asm__ volatile("li a0, 0x0");
 743              		.loc 1 139 9 is_stmt 1
 744              		.loc 1 139 39 is_stmt 0
 745              	#APP
 746              	# 139 "src/KSemaphore.cpp" 1
 140              	    }
 747              		li a0, 0x0
 748              	# 0 "" 2
 749              	#NO_APP
 750              	.L52:
 141:src/KSemaphore.cpp ****     Riscv::w_a0_sscratch();
 751              		.loc 1 141 5 is_stmt 1
 752              		.loc 1 141 25 is_stmt 0
 753 03c0 97000000 		call	_ZN5Riscv13w_a0_sscratchEv@plt
 753      E7800000 
 754              	.LVL55:
 142:src/KSemaphore.cpp **** }
 755              		.loc 1 142 1
 756 03c8 83308100 		ld	ra,8(sp)
 757              		.cfi_remember_state
 758              		.cfi_restore 1
 759 03cc 03340100 		ld	s0,0(sp)
 760              		.cfi_restore 8
 761              		.cfi_def_cfa 2, 16
 762 03d0 13010101 		addi	sp,sp,16
 763              		.cfi_def_cfa_offset 0
 764 03d4 67800000 		jr	ra
 765              	.LVL56:
 766              	.L54:
 767              		.cfi_restore_state
 134:src/KSemaphore.cpp ****     }
 768              		.loc 1 134 9 is_stmt 1
 134:src/KSemaphore.cpp ****     }
 769              		.loc 1 134 39 is_stmt 0
 770              	#APP
 771              	# 134 "src/KSemaphore.cpp" 1
 772              		li a0, 0x1
 773              	# 0 "" 2
 774              	#NO_APP
 775 03dc 6FF05FFE 		j	.L52
 776              		.cfi_endproc
 777              	.LFE42:
 779              		.align	2
 780              		.globl	_ZN10KSemaphore15semCloseHandlerEv
 782              	_ZN10KSemaphore15semCloseHandlerEv:
 783              	.LFB43:
 143:src/KSemaphore.cpp **** 
 144:src/KSemaphore.cpp **** void KSemaphore::semCloseHandler()
GAS LISTING /tmp/cc4ZsWke.s 			page 19


 145:src/KSemaphore.cpp **** {
 784              		.loc 1 145 1 is_stmt 1
 785              		.cfi_startproc
 786 03e0 130101FE 		addi	sp,sp,-32
 787              		.cfi_def_cfa_offset 32
 788 03e4 233C1100 		sd	ra,24(sp)
 789 03e8 23388100 		sd	s0,16(sp)
 790 03ec 23349100 		sd	s1,8(sp)
 791              		.cfi_offset 1, -8
 792              		.cfi_offset 8, -16
 793              		.cfi_offset 9, -24
 794 03f0 13040102 		addi	s0,sp,32
 795              		.cfi_def_cfa 8, 0
 146:src/KSemaphore.cpp ****     KSemaphore* kSem;
 796              		.loc 1 146 5
 147:src/KSemaphore.cpp ****     __asm__ volatile("mv %0, a1" : "=r"(kSem));
 797              		.loc 1 147 5
 798              		.loc 1 147 47 is_stmt 0
 799              	#APP
 800              	# 147 "src/KSemaphore.cpp" 1
 148              	    delete kSem;
 801              		mv s1, a1
 802              	# 0 "" 2
 803              	.LVL57:
 804              		.loc 1 148 5 is_stmt 1
 805              		.loc 1 148 16 is_stmt 0
 806              	#NO_APP
 807 03f8 638E0400 		beqz	s1,.L56
 808              		.loc 1 148 12 discriminator 1
 809 03fc 13850400 		mv	a0,s1
 810 0400 97000000 		call	_ZN10KSemaphoreD1Ev
 810      E7800000 
 811              	.LVL58:
 812 0408 13850400 		mv	a0,s1
 813 040c 97000000 		call	_ZN10KSemaphoredlEPv
 813      E7800000 
 814              	.LVL59:
 815              	.L56:
 149:src/KSemaphore.cpp ****     __asm__ volatile("li a0, 0");
 816              		.loc 1 149 5 is_stmt 1
 817              		.loc 1 149 33 is_stmt 0
 818              	#APP
 819              	# 149 "src/KSemaphore.cpp" 1
 150              	    Riscv::w_a0_sscratch();
 820              		li a0, 0
 821              	# 0 "" 2
 822              		.loc 1 150 5 is_stmt 1
 823              		.loc 1 150 25 is_stmt 0
 824              	#NO_APP
 825 0418 97000000 		call	_ZN5Riscv13w_a0_sscratchEv@plt
 825      E7800000 
 826              	.LVL60:
 151:src/KSemaphore.cpp **** }
 827              		.loc 1 151 1
 828 0420 83308101 		ld	ra,24(sp)
 829              		.cfi_restore 1
 830 0424 03340101 		ld	s0,16(sp)
GAS LISTING /tmp/cc4ZsWke.s 			page 20


 831              		.cfi_restore 8
 832              		.cfi_def_cfa 2, 32
 833 0428 83348100 		ld	s1,8(sp)
 834              		.cfi_restore 9
 835              	.LVL61:
 836 042c 13010102 		addi	sp,sp,32
 837              		.cfi_def_cfa_offset 0
 838 0430 67800000 		jr	ra
 839              		.cfi_endproc
 840              	.LFE43:
 842              	.Letext0:
 843              		.file 3 "src/../h/../lib/hw.h"
 844              		.file 4 "src/../h/KSemaphore.hpp"
 845              		.file 5 "src/../h/slabAllocator.hpp"
 846              		.file 6 "src/../h/Riscv.hpp"
 847              		.file 7 "src/../h/Scheduler.hpp"
 4485              		.align	3
 4488              	DW.ref.__gxx_personality_v0:
 4489 0000 00000000 		.dword	__gxx_personality_v0
 4489      00000000 
 4490              		.ident	"GCC: (Ubuntu 9.3.0-17ubuntu1~20.04) 9.3.0"
 4491              		.section	.note.GNU-stack,"",@progbits
GAS LISTING /tmp/cc4ZsWke.s 			page 21


DEFINED SYMBOLS
                            *ABS*:0000000000000000 KSemaphore.cpp
     /tmp/cc4ZsWke.s:9      .text:0000000000000000 _ZN10KSemaphoreC2Ei
     /tmp/cc4ZsWke.s:13     .text:0000000000000000 .L0 
     /tmp/cc4ZsWke.s:15     .text:0000000000000000 .L0 
     /tmp/cc4ZsWke.s:16     .text:0000000000000004 .L0 
     /tmp/cc4ZsWke.s:18     .text:0000000000000008 .L0 
     /tmp/cc4ZsWke.s:20     .text:000000000000000c .L0 
     /tmp/cc4ZsWke.s:23     .text:000000000000000c .L0 
     /tmp/cc4ZsWke.s:24     .text:000000000000000c .L0 
     /tmp/cc4ZsWke.s:26     .text:0000000000000010 .L0 
     /tmp/cc4ZsWke.s:27     .text:0000000000000010 .L0 
     /tmp/cc4ZsWke.s:29     .text:0000000000000014 .L0 
     /tmp/cc4ZsWke.s:32     .text:0000000000000018 .L0 
     /tmp/cc4ZsWke.s:33     .text:000000000000001c .L0 
     /tmp/cc4ZsWke.s:34     .text:000000000000001c .L0 
     /tmp/cc4ZsWke.s:36     .text:0000000000000020 .L0 
     /tmp/cc4ZsWke.s:38     .text:0000000000000024 .L0 
     /tmp/cc4ZsWke.s:9      .text:0000000000000000 _ZN10KSemaphoreC1Ei
     /tmp/cc4ZsWke.s:46     .text:0000000000000024 _ZN10KSemaphore12addToBlockedEP3PCB
     /tmp/cc4ZsWke.s:49     .text:0000000000000024 .L0 
     /tmp/cc4ZsWke.s:51     .text:0000000000000024 .L0 
     /tmp/cc4ZsWke.s:52     .text:0000000000000028 .L0 
     /tmp/cc4ZsWke.s:54     .text:000000000000002c .L0 
     /tmp/cc4ZsWke.s:56     .text:0000000000000030 .L0 
     /tmp/cc4ZsWke.s:58     .text:0000000000000030 .L0 
     /tmp/cc4ZsWke.s:59     .text:0000000000000030 .L0 
     /tmp/cc4ZsWke.s:61     .text:0000000000000034 .L0 
     /tmp/cc4ZsWke.s:62     .text:0000000000000034 .L0 
     /tmp/cc4ZsWke.s:64     .text:0000000000000038 .L0 
     /tmp/cc4ZsWke.s:66     .text:000000000000003c .L0 
     /tmp/cc4ZsWke.s:68     .text:0000000000000040 .L0 
     /tmp/cc4ZsWke.s:70     .text:0000000000000044 .L0 
     /tmp/cc4ZsWke.s:71     .text:0000000000000044 .L0 
     /tmp/cc4ZsWke.s:74     .text:0000000000000048 .L0 
     /tmp/cc4ZsWke.s:75     .text:000000000000004c .L0 
     /tmp/cc4ZsWke.s:76     .text:000000000000004c .L0 
     /tmp/cc4ZsWke.s:77     .text:000000000000004c .L0 
     /tmp/cc4ZsWke.s:79     .text:0000000000000050 .L0 
     /tmp/cc4ZsWke.s:82     .text:0000000000000054 .L0 
     /tmp/cc4ZsWke.s:84     .text:0000000000000054 .L0 
     /tmp/cc4ZsWke.s:85     .text:0000000000000054 .L0 
     /tmp/cc4ZsWke.s:87     .text:0000000000000058 .L0 
     /tmp/cc4ZsWke.s:89     .text:0000000000000060 .L0 
     /tmp/cc4ZsWke.s:95     .text:0000000000000060 _ZN10KSemaphore5blockEv
     /tmp/cc4ZsWke.s:98     .text:0000000000000060 .L0 
     /tmp/cc4ZsWke.s:100    .text:0000000000000060 .L0 
     /tmp/cc4ZsWke.s:101    .text:0000000000000064 .L0 
     /tmp/cc4ZsWke.s:104    .text:000000000000006c .L0 
     /tmp/cc4ZsWke.s:105    .text:000000000000006c .L0 
     /tmp/cc4ZsWke.s:107    .text:0000000000000070 .L0 
     /tmp/cc4ZsWke.s:109    .text:0000000000000070 .L0 
     /tmp/cc4ZsWke.s:110    .text:0000000000000070 .L0 
     /tmp/cc4ZsWke.s:117    .text:000000000000007c .L0 
     /tmp/cc4ZsWke.s:118    .text:000000000000007c .L0 
     /tmp/cc4ZsWke.s:124    .text:0000000000000084 .L0 
     /tmp/cc4ZsWke.s:125    .text:0000000000000084 .L0 
GAS LISTING /tmp/cc4ZsWke.s 			page 22


     /tmp/cc4ZsWke.s:128    .text:000000000000008c .L0 
     /tmp/cc4ZsWke.s:129    .text:000000000000008c .L0 
     /tmp/cc4ZsWke.s:132    .text:0000000000000094 .L0 
     /tmp/cc4ZsWke.s:133    .text:0000000000000098 .L0 
     /tmp/cc4ZsWke.s:135    .text:000000000000009c .L0 
     /tmp/cc4ZsWke.s:136    .text:000000000000009c .L0 
     /tmp/cc4ZsWke.s:138    .text:00000000000000a0 .L0 
     /tmp/cc4ZsWke.s:140    .text:00000000000000a4 .L0 
     /tmp/cc4ZsWke.s:146    .text:00000000000000a4 _ZN10KSemaphore4waitEv
     /tmp/cc4ZsWke.s:149    .text:00000000000000a4 .L0 
     /tmp/cc4ZsWke.s:151    .text:00000000000000a4 .L0 
     /tmp/cc4ZsWke.s:152    .text:00000000000000a4 .L0 
     /tmp/cc4ZsWke.s:153    .text:00000000000000a4 .L0 
     /tmp/cc4ZsWke.s:156    .text:00000000000000b0 .L0 
     /tmp/cc4ZsWke.s:158    .text:00000000000000b4 .L0 
     /tmp/cc4ZsWke.s:159    .text:00000000000000b4 .L0 
     /tmp/cc4ZsWke.s:161    .text:00000000000000b8 .L0 
     /tmp/cc4ZsWke.s:163    .text:00000000000000bc .L0 
     /tmp/cc4ZsWke.s:165    .text:00000000000000c0 .L0 
     /tmp/cc4ZsWke.s:168    .text:00000000000000c8 .L0 
     /tmp/cc4ZsWke.s:169    .text:00000000000000c8 .L0 
     /tmp/cc4ZsWke.s:175    .text:00000000000000d0 .L0 
     /tmp/cc4ZsWke.s:176    .text:00000000000000d4 .L0 
     /tmp/cc4ZsWke.s:179    .text:00000000000000dc .L0 
     /tmp/cc4ZsWke.s:180    .text:00000000000000dc .L0 
     /tmp/cc4ZsWke.s:182    .text:00000000000000e0 .L0 
     /tmp/cc4ZsWke.s:184    .text:00000000000000e0 .L0 
     /tmp/cc4ZsWke.s:185    .text:00000000000000e0 .L0 
     /tmp/cc4ZsWke.s:188    .text:00000000000000e8 .L0 
     /tmp/cc4ZsWke.s:189    .text:00000000000000e8 .L0 
     /tmp/cc4ZsWke.s:191    .text:00000000000000f0 .L0 
     /tmp/cc4ZsWke.s:193    .text:00000000000000f4 .L0 
     /tmp/cc4ZsWke.s:194    .text:00000000000000f4 .L0 
     /tmp/cc4ZsWke.s:196    .text:00000000000000f8 .L0 
     /tmp/cc4ZsWke.s:198    .text:00000000000000fc .L0 
     /tmp/cc4ZsWke.s:204    .text:00000000000000fc _ZN10KSemaphore15getFirstBlockedEv
     /tmp/cc4ZsWke.s:207    .text:00000000000000fc .L0 
     /tmp/cc4ZsWke.s:209    .text:00000000000000fc .L0 
     /tmp/cc4ZsWke.s:210    .text:0000000000000100 .L0 
     /tmp/cc4ZsWke.s:212    .text:0000000000000104 .L0 
     /tmp/cc4ZsWke.s:214    .text:0000000000000108 .L0 
     /tmp/cc4ZsWke.s:216    .text:0000000000000108 .L0 
     /tmp/cc4ZsWke.s:217    .text:0000000000000108 .L0 
     /tmp/cc4ZsWke.s:220    .text:0000000000000110 .L0 
     /tmp/cc4ZsWke.s:221    .text:0000000000000110 .L0 
     /tmp/cc4ZsWke.s:223    .text:0000000000000114 .L0 
     /tmp/cc4ZsWke.s:225    .text:0000000000000118 .L0 
     /tmp/cc4ZsWke.s:231    .text:0000000000000118 _ZN10KSemaphore18removeFirstBlockedEv
     /tmp/cc4ZsWke.s:234    .text:0000000000000118 .L0 
     /tmp/cc4ZsWke.s:236    .text:0000000000000118 .L0 
     /tmp/cc4ZsWke.s:237    .text:000000000000011c .L0 
     /tmp/cc4ZsWke.s:239    .text:0000000000000120 .L0 
     /tmp/cc4ZsWke.s:241    .text:0000000000000124 .L0 
     /tmp/cc4ZsWke.s:243    .text:0000000000000124 .L0 
     /tmp/cc4ZsWke.s:244    .text:0000000000000124 .L0 
     /tmp/cc4ZsWke.s:246    .text:0000000000000128 .L0 
     /tmp/cc4ZsWke.s:249    .text:000000000000012c .L0 
GAS LISTING /tmp/cc4ZsWke.s 			page 23


     /tmp/cc4ZsWke.s:250    .text:000000000000012c .L0 
     /tmp/cc4ZsWke.s:251    .text:000000000000012c .L0 
     /tmp/cc4ZsWke.s:253    .text:0000000000000130 .L0 
     /tmp/cc4ZsWke.s:255    .text:0000000000000134 .L0 
     /tmp/cc4ZsWke.s:256    .text:0000000000000134 .L0 
     /tmp/cc4ZsWke.s:258    .text:0000000000000138 .L0 
     /tmp/cc4ZsWke.s:259    .text:0000000000000138 .L0 
     /tmp/cc4ZsWke.s:262    .text:000000000000013c .L0 
     /tmp/cc4ZsWke.s:265    .text:0000000000000140 .L0 
     /tmp/cc4ZsWke.s:266    .text:0000000000000144 .L0 
     /tmp/cc4ZsWke.s:267    .text:0000000000000144 .L0 
     /tmp/cc4ZsWke.s:268    .text:0000000000000144 .L0 
     /tmp/cc4ZsWke.s:270    .text:0000000000000148 .L0 
     /tmp/cc4ZsWke.s:273    .text:000000000000014c .L0 
     /tmp/cc4ZsWke.s:275    .text:000000000000014c .L0 
     /tmp/cc4ZsWke.s:276    .text:000000000000014c .L0 
     /tmp/cc4ZsWke.s:278    .text:0000000000000154 .L0 
     /tmp/cc4ZsWke.s:284    .text:0000000000000154 _ZN10KSemaphoreD2Ev
     /tmp/cc4ZsWke.s:287    .text:0000000000000154 .L0 
     /tmp/cc4ZsWke.s:4488   .data.rel.local.DW.ref.__gxx_personality_v0:0000000000000000 DW.ref.__gxx_personality_v0
     /tmp/cc4ZsWke.s:291    .text:0000000000000154 .L0 
     /tmp/cc4ZsWke.s:292    .text:0000000000000158 .L0 
     /tmp/cc4ZsWke.s:297    .text:0000000000000168 .L0 
     /tmp/cc4ZsWke.s:298    .text:0000000000000168 .L0 
     /tmp/cc4ZsWke.s:299    .text:0000000000000168 .L0 
     /tmp/cc4ZsWke.s:300    .text:0000000000000168 .L0 
     /tmp/cc4ZsWke.s:302    .text:000000000000016c .L0 
     /tmp/cc4ZsWke.s:308    .text:0000000000000170 .L0 
     /tmp/cc4ZsWke.s:309    .text:0000000000000170 .L0 
     /tmp/cc4ZsWke.s:310    .text:0000000000000170 .L0 
     /tmp/cc4ZsWke.s:315    .text:0000000000000180 .L0 
     /tmp/cc4ZsWke.s:319    .text:0000000000000184 .L0 
     /tmp/cc4ZsWke.s:320    .text:0000000000000184 .L0 
     /tmp/cc4ZsWke.s:321    .text:0000000000000184 .L0 
     /tmp/cc4ZsWke.s:325    .text:0000000000000190 .L0 
     /tmp/cc4ZsWke.s:326    .text:0000000000000190 .L0 
     /tmp/cc4ZsWke.s:329    .text:0000000000000198 .L0 
     /tmp/cc4ZsWke.s:330    .text:0000000000000198 .L0 
     /tmp/cc4ZsWke.s:335    .text:00000000000001a4 .L0 
     /tmp/cc4ZsWke.s:340    .text:00000000000001a8 .L0 
     /tmp/cc4ZsWke.s:341    .text:00000000000001ac .L0 
     /tmp/cc4ZsWke.s:343    .text:00000000000001b0 .L0 
     /tmp/cc4ZsWke.s:344    .text:00000000000001b0 .L0 
     /tmp/cc4ZsWke.s:346    .text:00000000000001b4 .L0 
     /tmp/cc4ZsWke.s:348    .text:00000000000001b8 .L0 
     /tmp/cc4ZsWke.s:351    .text:00000000000001bc .L0 
     /tmp/cc4ZsWke.s:353    .text:00000000000001c0 .L0 
     /tmp/cc4ZsWke.s:284    .text:0000000000000154 _ZN10KSemaphoreD1Ev
     /tmp/cc4ZsWke.s:369    .text:00000000000001c0 _ZN10KSemaphore7unblockEv
     /tmp/cc4ZsWke.s:372    .text:00000000000001c0 .L0 
     /tmp/cc4ZsWke.s:374    .text:00000000000001c0 .L0 
     /tmp/cc4ZsWke.s:375    .text:00000000000001c4 .L0 
     /tmp/cc4ZsWke.s:380    .text:00000000000001d4 .L0 
     /tmp/cc4ZsWke.s:381    .text:00000000000001d4 .L0 
     /tmp/cc4ZsWke.s:382    .text:00000000000001d4 .L0 
     /tmp/cc4ZsWke.s:383    .text:00000000000001d4 .L0 
     /tmp/cc4ZsWke.s:385    .text:00000000000001d8 .L0 
GAS LISTING /tmp/cc4ZsWke.s 			page 24


     /tmp/cc4ZsWke.s:388    .text:00000000000001dc .L0 
     /tmp/cc4ZsWke.s:389    .text:00000000000001dc .L0 
     /tmp/cc4ZsWke.s:394    .text:00000000000001e8 .L0 
     /tmp/cc4ZsWke.s:395    .text:00000000000001e8 .L0 
     /tmp/cc4ZsWke.s:399    .text:00000000000001f4 .L0 
     /tmp/cc4ZsWke.s:401    .text:00000000000001f8 .L0 
     /tmp/cc4ZsWke.s:402    .text:00000000000001f8 .L0 
     /tmp/cc4ZsWke.s:407    .text:0000000000000204 .L0 
     /tmp/cc4ZsWke.s:408    .text:0000000000000208 .L0 
     /tmp/cc4ZsWke.s:410    .text:000000000000020c .L0 
     /tmp/cc4ZsWke.s:411    .text:000000000000020c .L0 
     /tmp/cc4ZsWke.s:413    .text:0000000000000210 .L0 
     /tmp/cc4ZsWke.s:416    .text:0000000000000214 .L0 
     /tmp/cc4ZsWke.s:419    .text:0000000000000218 .L0 
     /tmp/cc4ZsWke.s:421    .text:000000000000021c .L0 
     /tmp/cc4ZsWke.s:427    .text:000000000000021c _ZN10KSemaphore6signalEv
     /tmp/cc4ZsWke.s:430    .text:000000000000021c .L0 
     /tmp/cc4ZsWke.s:432    .text:000000000000021c .L0 
     /tmp/cc4ZsWke.s:433    .text:000000000000021c .L0 
     /tmp/cc4ZsWke.s:434    .text:000000000000021c .L0 
     /tmp/cc4ZsWke.s:436    .text:0000000000000220 .L0 
     /tmp/cc4ZsWke.s:439    .text:0000000000000228 .L0 
     /tmp/cc4ZsWke.s:441    .text:000000000000022c .L0 
     /tmp/cc4ZsWke.s:443    .text:0000000000000230 .L0 
     /tmp/cc4ZsWke.s:444    .text:0000000000000230 .L0 
     /tmp/cc4ZsWke.s:450    .text:0000000000000238 .L0 
     /tmp/cc4ZsWke.s:451    .text:000000000000023c .L0 
     /tmp/cc4ZsWke.s:454    .text:0000000000000244 .L0 
     /tmp/cc4ZsWke.s:455    .text:0000000000000244 .L0 
     /tmp/cc4ZsWke.s:457    .text:0000000000000248 .L0 
     /tmp/cc4ZsWke.s:459    .text:0000000000000248 .L0 
     /tmp/cc4ZsWke.s:460    .text:0000000000000248 .L0 
     /tmp/cc4ZsWke.s:463    .text:0000000000000250 .L0 
     /tmp/cc4ZsWke.s:464    .text:0000000000000250 .L0 
     /tmp/cc4ZsWke.s:466    .text:0000000000000258 .L0 
     /tmp/cc4ZsWke.s:468    .text:000000000000025c .L0 
     /tmp/cc4ZsWke.s:469    .text:000000000000025c .L0 
     /tmp/cc4ZsWke.s:471    .text:0000000000000260 .L0 
     /tmp/cc4ZsWke.s:473    .text:0000000000000264 .L0 
     /tmp/cc4ZsWke.s:479    .text:0000000000000264 _ZN10KSemaphorenwEm
     /tmp/cc4ZsWke.s:482    .text:0000000000000264 .L0 
     /tmp/cc4ZsWke.s:484    .text:0000000000000264 .L0 
     /tmp/cc4ZsWke.s:485    .text:0000000000000268 .L0 
     /tmp/cc4ZsWke.s:488    .text:0000000000000270 .L0 
     /tmp/cc4ZsWke.s:489    .text:0000000000000270 .L0 
     /tmp/cc4ZsWke.s:491    .text:0000000000000274 .L0 
     /tmp/cc4ZsWke.s:493    .text:0000000000000274 .L0 
     /tmp/cc4ZsWke.s:494    .text:0000000000000274 .L0 
     /tmp/cc4ZsWke.s:500    .text:0000000000000288 .L0 
     /tmp/cc4ZsWke.s:501    .text:000000000000028c .L0 
     /tmp/cc4ZsWke.s:503    .text:0000000000000290 .L0 
     /tmp/cc4ZsWke.s:504    .text:0000000000000290 .L0 
     /tmp/cc4ZsWke.s:506    .text:0000000000000294 .L0 
     /tmp/cc4ZsWke.s:508    .text:0000000000000298 .L0 
     /tmp/cc4ZsWke.s:514    .text:0000000000000298 _ZN10KSemaphore14semOpenHandlerEv
     /tmp/cc4ZsWke.s:517    .text:0000000000000298 .L0 
     /tmp/cc4ZsWke.s:518    .text:0000000000000298 .L0 
GAS LISTING /tmp/cc4ZsWke.s 			page 25


     /tmp/cc4ZsWke.s:519    .text:000000000000029c .L0 
     /tmp/cc4ZsWke.s:525    .text:00000000000002b0 .L0 
     /tmp/cc4ZsWke.s:526    .text:00000000000002b0 .L0 
     /tmp/cc4ZsWke.s:527    .text:00000000000002b0 .L0 
     /tmp/cc4ZsWke.s:528    .text:00000000000002b0 .L0 
     /tmp/cc4ZsWke.s:529    .text:00000000000002b0 .L0 
     /tmp/cc4ZsWke.s:531    .text:00000000000002b4 .L0 
     /tmp/cc4ZsWke.s:533    .text:00000000000002b4 .L0 
     /tmp/cc4ZsWke.s:534    .text:00000000000002b4 .L0 
     /tmp/cc4ZsWke.s:535    .text:00000000000002b4 .L0 
  src/KSemaphore.cpp:36     .text:00000000000002b4 .L0 
     /tmp/cc4ZsWke.s:542    .text:00000000000002b8 .L0 
  src/KSemaphore.cpp:37     .text:00000000000002b8 .L0 
     /tmp/cc4ZsWke.s:548    .text:00000000000002bc .L0 
     /tmp/cc4ZsWke.s:550    .text:00000000000002bc .L0 
     /tmp/cc4ZsWke.s:558    .text:00000000000002d8 .L0 
     /tmp/cc4ZsWke.s:559    .text:00000000000002d8 .L0 
     /tmp/cc4ZsWke.s:561    .text:00000000000002dc .L0 
     /tmp/cc4ZsWke.s:563    .text:00000000000002e0 .L0 
  src/KSemaphore.cpp:46     .text:00000000000002e0 .L0 
     /tmp/cc4ZsWke.s:571    .text:00000000000002e4 .L0 
     /tmp/cc4ZsWke.s:572    .text:00000000000002e4 .L0 
     /tmp/cc4ZsWke.s:575    .text:00000000000002ec .L0 
     /tmp/cc4ZsWke.s:576    .text:00000000000002f0 .L0 
     /tmp/cc4ZsWke.s:577    .text:00000000000002f0 .L0 
     /tmp/cc4ZsWke.s:579    .text:00000000000002f4 .L0 
     /tmp/cc4ZsWke.s:580    .text:00000000000002f4 .L0 
     /tmp/cc4ZsWke.s:582    .text:00000000000002f8 .L0 
     /tmp/cc4ZsWke.s:585    .text:00000000000002fc .L0 
     /tmp/cc4ZsWke.s:588    .text:0000000000000300 .L0 
     /tmp/cc4ZsWke.s:591    .text:0000000000000304 .L0 
     /tmp/cc4ZsWke.s:595    .text:0000000000000308 .L0 
     /tmp/cc4ZsWke.s:597    .text:0000000000000308 .L0 
  src/KSemaphore.cpp:44     .text:0000000000000308 .L0 
     /tmp/cc4ZsWke.s:604    .text:0000000000000310 .L0 
     /tmp/cc4ZsWke.s:610    .text:0000000000000310 _ZN10KSemaphoredlEPv
     /tmp/cc4ZsWke.s:613    .text:0000000000000310 .L0 
     /tmp/cc4ZsWke.s:615    .text:0000000000000310 .L0 
     /tmp/cc4ZsWke.s:616    .text:0000000000000314 .L0 
     /tmp/cc4ZsWke.s:619    .text:000000000000031c .L0 
     /tmp/cc4ZsWke.s:620    .text:000000000000031c .L0 
     /tmp/cc4ZsWke.s:622    .text:0000000000000320 .L0 
     /tmp/cc4ZsWke.s:625    .text:0000000000000324 .L0 
     /tmp/cc4ZsWke.s:626    .text:0000000000000324 .L0 
     /tmp/cc4ZsWke.s:632    .text:0000000000000338 .L0 
     /tmp/cc4ZsWke.s:633    .text:000000000000033c .L0 
     /tmp/cc4ZsWke.s:635    .text:0000000000000340 .L0 
     /tmp/cc4ZsWke.s:636    .text:0000000000000340 .L0 
     /tmp/cc4ZsWke.s:638    .text:0000000000000344 .L0 
     /tmp/cc4ZsWke.s:640    .text:0000000000000348 .L0 
     /tmp/cc4ZsWke.s:646    .text:0000000000000348 _ZN10KSemaphore14semWaitHandlerEv
     /tmp/cc4ZsWke.s:649    .text:0000000000000348 .L0 
     /tmp/cc4ZsWke.s:650    .text:0000000000000348 .L0 
     /tmp/cc4ZsWke.s:651    .text:000000000000034c .L0 
     /tmp/cc4ZsWke.s:654    .text:0000000000000354 .L0 
     /tmp/cc4ZsWke.s:655    .text:0000000000000354 .L0 
     /tmp/cc4ZsWke.s:657    .text:0000000000000358 .L0 
GAS LISTING /tmp/cc4ZsWke.s 			page 26


     /tmp/cc4ZsWke.s:659    .text:0000000000000358 .L0 
     /tmp/cc4ZsWke.s:660    .text:0000000000000358 .L0 
  src/KSemaphore.cpp:120    .text:0000000000000358 .L0 
     /tmp/cc4ZsWke.s:667    .text:000000000000035c .L0 
     /tmp/cc4ZsWke.s:669    .text:000000000000035c .L0 
     /tmp/cc4ZsWke.s:672    .text:0000000000000364 .L0 
     /tmp/cc4ZsWke.s:673    .text:0000000000000364 .L0 
     /tmp/cc4ZsWke.s:677    .text:0000000000000374 .L0 
     /tmp/cc4ZsWke.s:679    .text:0000000000000378 .L0 
  src/KSemaphore.cpp:123    .text:0000000000000378 .L0 
     /tmp/cc4ZsWke.s:687    .text:000000000000037c .L0 
     /tmp/cc4ZsWke.s:688    .text:000000000000037c .L0 
     /tmp/cc4ZsWke.s:691    .text:0000000000000384 .L0 
     /tmp/cc4ZsWke.s:692    .text:0000000000000388 .L0 
     /tmp/cc4ZsWke.s:693    .text:0000000000000388 .L0 
     /tmp/cc4ZsWke.s:695    .text:000000000000038c .L0 
     /tmp/cc4ZsWke.s:696    .text:000000000000038c .L0 
     /tmp/cc4ZsWke.s:698    .text:0000000000000390 .L0 
     /tmp/cc4ZsWke.s:701    .text:0000000000000394 .L0 
     /tmp/cc4ZsWke.s:703    .text:0000000000000394 .L0 
  src/KSemaphore.cpp:125    .text:0000000000000394 .L0 
     /tmp/cc4ZsWke.s:710    .text:000000000000039c .L0 
     /tmp/cc4ZsWke.s:716    .text:000000000000039c _ZN10KSemaphore16semSignalHandlerEv
     /tmp/cc4ZsWke.s:719    .text:000000000000039c .L0 
     /tmp/cc4ZsWke.s:720    .text:000000000000039c .L0 
     /tmp/cc4ZsWke.s:721    .text:00000000000003a0 .L0 
     /tmp/cc4ZsWke.s:724    .text:00000000000003a8 .L0 
     /tmp/cc4ZsWke.s:725    .text:00000000000003a8 .L0 
     /tmp/cc4ZsWke.s:727    .text:00000000000003ac .L0 
     /tmp/cc4ZsWke.s:729    .text:00000000000003ac .L0 
     /tmp/cc4ZsWke.s:730    .text:00000000000003ac .L0 
  src/KSemaphore.cpp:131    .text:00000000000003ac .L0 
     /tmp/cc4ZsWke.s:738    .text:00000000000003b0 .L0 
     /tmp/cc4ZsWke.s:740    .text:00000000000003b4 .L0 
     /tmp/cc4ZsWke.s:741    .text:00000000000003b4 .L0 
     /tmp/cc4ZsWke.s:744    .text:00000000000003bc .L0 
  src/KSemaphore.cpp:139    .text:00000000000003bc .L0 
     /tmp/cc4ZsWke.s:752    .text:00000000000003c0 .L0 
     /tmp/cc4ZsWke.s:753    .text:00000000000003c0 .L0 
     /tmp/cc4ZsWke.s:756    .text:00000000000003c8 .L0 
     /tmp/cc4ZsWke.s:757    .text:00000000000003cc .L0 
     /tmp/cc4ZsWke.s:758    .text:00000000000003cc .L0 
     /tmp/cc4ZsWke.s:760    .text:00000000000003d0 .L0 
     /tmp/cc4ZsWke.s:761    .text:00000000000003d0 .L0 
     /tmp/cc4ZsWke.s:763    .text:00000000000003d4 .L0 
     /tmp/cc4ZsWke.s:767    .text:00000000000003d8 .L0 
     /tmp/cc4ZsWke.s:769    .text:00000000000003d8 .L0 
  src/KSemaphore.cpp:134    .text:00000000000003d8 .L0 
     /tmp/cc4ZsWke.s:776    .text:00000000000003e0 .L0 
     /tmp/cc4ZsWke.s:782    .text:00000000000003e0 _ZN10KSemaphore15semCloseHandlerEv
     /tmp/cc4ZsWke.s:785    .text:00000000000003e0 .L0 
     /tmp/cc4ZsWke.s:786    .text:00000000000003e0 .L0 
     /tmp/cc4ZsWke.s:787    .text:00000000000003e4 .L0 
     /tmp/cc4ZsWke.s:791    .text:00000000000003f0 .L0 
     /tmp/cc4ZsWke.s:792    .text:00000000000003f0 .L0 
     /tmp/cc4ZsWke.s:793    .text:00000000000003f0 .L0 
     /tmp/cc4ZsWke.s:795    .text:00000000000003f4 .L0 
GAS LISTING /tmp/cc4ZsWke.s 			page 27


     /tmp/cc4ZsWke.s:797    .text:00000000000003f4 .L0 
     /tmp/cc4ZsWke.s:798    .text:00000000000003f4 .L0 
  src/KSemaphore.cpp:147    .text:00000000000003f4 .L0 
     /tmp/cc4ZsWke.s:805    .text:00000000000003f8 .L0 
     /tmp/cc4ZsWke.s:807    .text:00000000000003f8 .L0 
     /tmp/cc4ZsWke.s:809    .text:00000000000003fc .L0 
     /tmp/cc4ZsWke.s:817    .text:0000000000000414 .L0 
  src/KSemaphore.cpp:149    .text:0000000000000414 .L0 
     /tmp/cc4ZsWke.s:823    .text:0000000000000418 .L0 
     /tmp/cc4ZsWke.s:825    .text:0000000000000418 .L0 
     /tmp/cc4ZsWke.s:828    .text:0000000000000420 .L0 
     /tmp/cc4ZsWke.s:829    .text:0000000000000424 .L0 
     /tmp/cc4ZsWke.s:831    .text:0000000000000428 .L0 
     /tmp/cc4ZsWke.s:832    .text:0000000000000428 .L0 
     /tmp/cc4ZsWke.s:834    .text:000000000000042c .L0 
     /tmp/cc4ZsWke.s:837    .text:0000000000000430 .L0 
     /tmp/cc4ZsWke.s:839    .text:0000000000000434 .L0 
     /tmp/cc4ZsWke.s:848    .text:0000000000000434 .L0 
     /tmp/cc4ZsWke.s:110    .text:0000000000000070 .L0 
     /tmp/cc4ZsWke.s:153    .text:00000000000000a4 .L0 
     /tmp/cc4ZsWke.s:494    .text:0000000000000274 .L0 
     /tmp/cc4ZsWke.s:626    .text:0000000000000324 .L0 
     /tmp/cc4ZsWke.s:673    .text:0000000000000364 .L0 
     /tmp/cc4ZsWke.s:81     .text:0000000000000054 .L7
     /tmp/cc4ZsWke.s:72     .text:0000000000000048 .L3
     /tmp/cc4ZsWke.s:173    .text:00000000000000d0 .L16
     /tmp/cc4ZsWke.s:263    .text:0000000000000140 .L19
     /tmp/cc4ZsWke.s:272    .text:000000000000014c .L22
     /tmp/cc4ZsWke.s:337    .text:00000000000001a8 .L23
     /tmp/cc4ZsWke.s:305    .text:0000000000000170 .L25
     /tmp/cc4ZsWke.s:405    .text:0000000000000204 .L27
     /tmp/cc4ZsWke.s:448    .text:0000000000000238 .L36
     /tmp/cc4ZsWke.s:594    .text:0000000000000308 .L43
     /tmp/cc4ZsWke.s:569    .text:00000000000002e4 .L41
     /tmp/cc4ZsWke.s:700    .text:0000000000000394 .L47
     /tmp/cc4ZsWke.s:685    .text:000000000000037c .L48
     /tmp/cc4ZsWke.s:766    .text:00000000000003d8 .L54
     /tmp/cc4ZsWke.s:750    .text:00000000000003c0 .L52
     /tmp/cc4ZsWke.s:815    .text:0000000000000414 .L56
     /tmp/cc4ZsWke.s:2677   .debug_abbrev:0000000000000000 .Ldebug_abbrev0
     /tmp/cc4ZsWke.s:4374   .debug_str:0000000000000c7a .LASF237
     /tmp/cc4ZsWke.s:4174   .debug_str:00000000000005bd .LASF238
     /tmp/cc4ZsWke.s:4110   .debug_str:00000000000003c0 .LASF239
     /tmp/cc4ZsWke.s:5      .text:0000000000000000 .Ltext0
     /tmp/cc4ZsWke.s:842    .text:0000000000000434 .Letext0
     /tmp/cc4ZsWke.s:3990   .debug_line:0000000000000000 .Ldebug_line0
     /tmp/cc4ZsWke.s:4164   .debug_str:0000000000000577 .LASF0
     /tmp/cc4ZsWke.s:4200   .debug_str:00000000000006a0 .LASF1
     /tmp/cc4ZsWke.s:4314   .debug_str:0000000000000a7c .LASF2
     /tmp/cc4ZsWke.s:4328   .debug_str:0000000000000af7 .LASF4
     /tmp/cc4ZsWke.s:4182   .debug_str:0000000000000602 .LASF3
     /tmp/cc4ZsWke.s:4012   .debug_str:0000000000000091 .LASF5
     /tmp/cc4ZsWke.s:4274   .debug_str:000000000000092a .LASF6
     /tmp/cc4ZsWke.s:4192   .debug_str:000000000000065b .LASF7
     /tmp/cc4ZsWke.s:4132   .debug_str:0000000000000470 .LASF8
     /tmp/cc4ZsWke.s:4140   .debug_str:00000000000004c4 .LASF9
     /tmp/cc4ZsWke.s:4056   .debug_str:0000000000000223 .LASF10
GAS LISTING /tmp/cc4ZsWke.s 			page 28


     /tmp/cc4ZsWke.s:4030   .debug_str:000000000000013a .LASF11
     /tmp/cc4ZsWke.s:4120   .debug_str:0000000000000410 .LASF12
     /tmp/cc4ZsWke.s:4066   .debug_str:0000000000000258 .LASF13
     /tmp/cc4ZsWke.s:4054   .debug_str:0000000000000213 .LASF14
     /tmp/cc4ZsWke.s:4380   .debug_str:0000000000000d67 .LASF15
     /tmp/cc4ZsWke.s:4108   .debug_str:00000000000003aa .LASF16
     /tmp/cc4ZsWke.s:4362   .debug_str:0000000000000bf0 .LASF17
     /tmp/cc4ZsWke.s:4394   .debug_str:0000000000000db1 .LASF240
     /tmp/cc4ZsWke.s:4390   .debug_str:0000000000000da0 .LASF18
     /tmp/cc4ZsWke.s:4352   .debug_str:0000000000000bb1 .LASF19
     /tmp/cc4ZsWke.s:4062   .debug_str:0000000000000244 .LASF20
     /tmp/cc4ZsWke.s:4036   .debug_str:0000000000000171 .LASF21
     /tmp/cc4ZsWke.s:4278   .debug_str:0000000000000953 .LASF22
     /tmp/cc4ZsWke.s:4060   .debug_str:000000000000023b .LASF23
     /tmp/cc4ZsWke.s:4386   .debug_str:0000000000000d8d .LASF91
     /tmp/cc4ZsWke.s:4150   .debug_str:000000000000052a .LASF24
     /tmp/cc4ZsWke.s:4016   .debug_str:00000000000000a3 .LASF30
     /tmp/cc4ZsWke.s:4414   .debug_str:0000000000000e3b .LASF241
     /tmp/cc4ZsWke.s:4262   .debug_str:00000000000008d4 .LASF25
     /tmp/cc4ZsWke.s:4198   .debug_str:000000000000069b .LASF26
     /tmp/cc4ZsWke.s:4468   .debug_str:0000000000001006 .LASF28
     /tmp/cc4ZsWke.s:4462   .debug_str:0000000000000fd6 .LASF27
     /tmp/cc4ZsWke.s:4402   .debug_str:0000000000000dd1 .LASF29
     /tmp/cc4ZsWke.s:4090   .debug_str:0000000000000342 .LASF53
     /tmp/cc4ZsWke.s:4026   .debug_str:00000000000000ff .LASF55
     /tmp/cc4ZsWke.s:4398   .debug_str:0000000000000dc1 .LASF31
     /tmp/cc4ZsWke.s:4342   .debug_str:0000000000000b57 .LASF32
     /tmp/cc4ZsWke.s:4204   .debug_str:00000000000006ba .LASF35
     /tmp/cc4ZsWke.s:4210   .debug_str:00000000000006f1 .LASF37
     /tmp/cc4ZsWke.s:4474   .debug_str:000000000000103a .LASF33
     /tmp/cc4ZsWke.s:4112   .debug_str:00000000000003d5 .LASF34
     /tmp/cc4ZsWke.s:4002   .debug_str:0000000000000052 .LASF79
     /tmp/cc4ZsWke.s:4178   .debug_str:00000000000005e2 .LASF81
     /tmp/cc4ZsWke.s:4346   .debug_str:0000000000000b79 .LASF36
     /tmp/cc4ZsWke.s:4236   .debug_str:00000000000007ce .LASF38
     /tmp/cc4ZsWke.s:4324   .debug_str:0000000000000ac8 .LASF39
     /tmp/cc4ZsWke.s:4372   .debug_str:0000000000000c5e .LASF40
     /tmp/cc4ZsWke.s:4238   .debug_str:00000000000007e1 .LASF41
     /tmp/cc4ZsWke.s:3996   .debug_str:000000000000001b .LASF42
     /tmp/cc4ZsWke.s:4450   .debug_str:0000000000000f65 .LASF43
     /tmp/cc4ZsWke.s:4272   .debug_str:0000000000000910 .LASF44
     /tmp/cc4ZsWke.s:4360   .debug_str:0000000000000be2 .LASF45
     /tmp/cc4ZsWke.s:4286   .debug_str:0000000000000997 .LASF46
     /tmp/cc4ZsWke.s:4086   .debug_str:0000000000000320 .LASF47
     /tmp/cc4ZsWke.s:4122   .debug_str:000000000000041f .LASF48
     /tmp/cc4ZsWke.s:4306   .debug_str:0000000000000a40 .LASF49
     /tmp/cc4ZsWke.s:4218   .debug_str:000000000000073e .LASF50
     /tmp/cc4ZsWke.s:4456   .debug_str:0000000000000f99 .LASF51
     /tmp/cc4ZsWke.s:4184   .debug_str:0000000000000614 .LASF52
     /tmp/cc4ZsWke.s:4356   .debug_str:0000000000000bd0 .LASF54
     /tmp/cc4ZsWke.s:4466   .debug_str:0000000000000ff0 .LASF56
     /tmp/cc4ZsWke.s:4388   .debug_str:0000000000000d95 .LASF57
     /tmp/cc4ZsWke.s:4078   .debug_str:00000000000002dd .LASF58
     /tmp/cc4ZsWke.s:4338   .debug_str:0000000000000b41 .LASF59
     /tmp/cc4ZsWke.s:4166   .debug_str:0000000000000584 .LASF60
     /tmp/cc4ZsWke.s:4248   .debug_str:0000000000000835 .LASF61
     /tmp/cc4ZsWke.s:4072   .debug_str:00000000000002a7 .LASF62
GAS LISTING /tmp/cc4ZsWke.s 			page 29


     /tmp/cc4ZsWke.s:4292   .debug_str:00000000000009cd .LASF63
     /tmp/cc4ZsWke.s:4480   .debug_str:000000000000106c .LASF64
     /tmp/cc4ZsWke.s:4252   .debug_str:000000000000085b .LASF65
     /tmp/cc4ZsWke.s:4322   .debug_str:0000000000000ab5 .LASF66
     /tmp/cc4ZsWke.s:4348   .debug_str:0000000000000b82 .LASF67
     /tmp/cc4ZsWke.s:4428   .debug_str:0000000000000eb2 .LASF68
     /tmp/cc4ZsWke.s:4228   .debug_str:000000000000078e .LASF69
     /tmp/cc4ZsWke.s:4418   .debug_str:0000000000000e65 .LASF70
     /tmp/cc4ZsWke.s:4370   .debug_str:0000000000000c3e .LASF71
     /tmp/cc4ZsWke.s:4268   .debug_str:00000000000008f1 .LASF72
     /tmp/cc4ZsWke.s:4254   .debug_str:000000000000087c .LASF73
     /tmp/cc4ZsWke.s:4100   .debug_str:000000000000036d .LASF74
     /tmp/cc4ZsWke.s:4168   .debug_str:0000000000000598 .LASF75
     /tmp/cc4ZsWke.s:4230   .debug_str:00000000000007ac .LASF76
     /tmp/cc4ZsWke.s:4406   .debug_str:0000000000000df5 .LASF77
     /tmp/cc4ZsWke.s:4124   .debug_str:000000000000042f .LASF78
     /tmp/cc4ZsWke.s:4460   .debug_str:0000000000000fc8 .LASF80
     /tmp/cc4ZsWke.s:4028   .debug_str:0000000000000112 .LASF82
     /tmp/cc4ZsWke.s:4114   .debug_str:00000000000003e1 .LASF83
     /tmp/cc4ZsWke.s:4046   .debug_str:00000000000001af .LASF84
     /tmp/cc4ZsWke.s:4448   .debug_str:0000000000000f5e .LASF85
     /tmp/cc4ZsWke.s:4042   .debug_str:0000000000000190 .LASF86
     /tmp/cc4ZsWke.s:4000   .debug_str:000000000000004d .LASF87
     /tmp/cc4ZsWke.s:4426   .debug_str:0000000000000ead .LASF88
     /tmp/cc4ZsWke.s:4216   .debug_str:0000000000000736 .LASF89
     /tmp/cc4ZsWke.s:4098   .debug_str:0000000000000367 .LASF90
     /tmp/cc4ZsWke.s:4412   .debug_str:0000000000000e33 .LASF92
     /tmp/cc4ZsWke.s:4142   .debug_str:00000000000004d2 .LASF93
     /tmp/cc4ZsWke.s:4220   .debug_str:000000000000074d .LASF94
     /tmp/cc4ZsWke.s:4300   .debug_str:0000000000000a25 .LASF95
     /tmp/cc4ZsWke.s:4136   .debug_str:0000000000000494 .LASF96
     /tmp/cc4ZsWke.s:4316   .debug_str:0000000000000a8a .LASF97
     /tmp/cc4ZsWke.s:4298   .debug_str:0000000000000a11 .LASF98
     /tmp/cc4ZsWke.s:4092   .debug_str:000000000000034b .LASF99
     /tmp/cc4ZsWke.s:4354   .debug_str:0000000000000bb9 .LASF100
     /tmp/cc4ZsWke.s:4384   .debug_str:0000000000000d86 .LASF101
     /tmp/cc4ZsWke.s:4244   .debug_str:0000000000000806 .LASF102
     /tmp/cc4ZsWke.s:3994   .debug_str:000000000000000f .LASF103
     /tmp/cc4ZsWke.s:4320   .debug_str:0000000000000aa9 .LASF104
     /tmp/cc4ZsWke.s:4222   .debug_str:0000000000000752 .LASF105
     /tmp/cc4ZsWke.s:4310   .debug_str:0000000000000a5c .LASF106
     /tmp/cc4ZsWke.s:4058   .debug_str:0000000000000232 .LASF107
     /tmp/cc4ZsWke.s:4064   .debug_str:000000000000024e .LASF108
     /tmp/cc4ZsWke.s:4242   .debug_str:00000000000007fd .LASF109
     /tmp/cc4ZsWke.s:4392   .debug_str:0000000000000da6 .LASF110
     /tmp/cc4ZsWke.s:3992   .debug_str:0000000000000000 .LASF111
     /tmp/cc4ZsWke.s:4146   .debug_str:00000000000004f6 .LASF112
     /tmp/cc4ZsWke.s:4410   .debug_str:0000000000000e24 .LASF113
     /tmp/cc4ZsWke.s:4378   .debug_str:0000000000000d45 .LASF114
     /tmp/cc4ZsWke.s:4350   .debug_str:0000000000000ba0 .LASF115
     /tmp/cc4ZsWke.s:4070   .debug_str:0000000000000283 .LASF116
     /tmp/cc4ZsWke.s:4260   .debug_str:00000000000008c4 .LASF117
     /tmp/cc4ZsWke.s:4290   .debug_str:00000000000009aa .LASF118
     /tmp/cc4ZsWke.s:4162   .debug_str:0000000000000571 .LASF119
     /tmp/cc4ZsWke.s:4476   .debug_str:0000000000001047 .LASF120
     /tmp/cc4ZsWke.s:4004   .debug_str:0000000000000062 .LASF121
     /tmp/cc4ZsWke.s:4214   .debug_str:000000000000071c .LASF122
GAS LISTING /tmp/cc4ZsWke.s 			page 30


     /tmp/cc4ZsWke.s:4472   .debug_str:000000000000102a .LASF123
     /tmp/cc4ZsWke.s:4330   .debug_str:0000000000000afe .LASF124
     /tmp/cc4ZsWke.s:4382   .debug_str:0000000000000d73 .LASF125
     /tmp/cc4ZsWke.s:4326   .debug_str:0000000000000ad1 .LASF126
     /tmp/cc4ZsWke.s:4478   .debug_str:000000000000105f .LASF127
     /tmp/cc4ZsWke.s:4196   .debug_str:0000000000000677 .LASF128
     /tmp/cc4ZsWke.s:4118   .debug_str:0000000000000403 .LASF129
     /tmp/cc4ZsWke.s:4116   .debug_str:00000000000003f6 .LASF242
     /tmp/cc4ZsWke.s:4440   .debug_str:0000000000000f2c .LASF130
     /tmp/cc4ZsWke.s:4158   .debug_str:000000000000054e .LASF152
     /tmp/cc4ZsWke.s:4368   .debug_str:0000000000000c26 .LASF154
     /tmp/cc4ZsWke.s:4430   .debug_str:0000000000000ec5 .LASF131
     /tmp/cc4ZsWke.s:4454   .debug_str:0000000000000f8a .LASF132
     /tmp/cc4ZsWke.s:4432   .debug_str:0000000000000ed6 .LASF133
     /tmp/cc4ZsWke.s:4270   .debug_str:0000000000000905 .LASF134
     /tmp/cc4ZsWke.s:4224   .debug_str:0000000000000766 .LASF135
     /tmp/cc4ZsWke.s:4106   .debug_str:00000000000003a0 .LASF136
     /tmp/cc4ZsWke.s:4276   .debug_str:000000000000093d .LASF137
     /tmp/cc4ZsWke.s:4034   .debug_str:000000000000015c .LASF138
     /tmp/cc4ZsWke.s:4080   .debug_str:00000000000002f3 .LASF139
     /tmp/cc4ZsWke.s:4226   .debug_str:000000000000077e .LASF140
     /tmp/cc4ZsWke.s:4434   .debug_str:0000000000000ef2 .LASF141
     /tmp/cc4ZsWke.s:4050   .debug_str:00000000000001ef .LASF142
     /tmp/cc4ZsWke.s:4208   .debug_str:00000000000006d3 .LASF143
     /tmp/cc4ZsWke.s:4102   .debug_str:0000000000000376 .LASF144
     /tmp/cc4ZsWke.s:4458   .debug_str:0000000000000fa4 .LASF145
     /tmp/cc4ZsWke.s:4176   .debug_str:00000000000005d0 .LASF146
     /tmp/cc4ZsWke.s:4074   .debug_str:00000000000002b9 .LASF147
     /tmp/cc4ZsWke.s:4340   .debug_str:0000000000000b49 .LASF148
     /tmp/cc4ZsWke.s:4068   .debug_str:0000000000000268 .LASF149
     /tmp/cc4ZsWke.s:4240   .debug_str:00000000000007f0 .LASF150
     /tmp/cc4ZsWke.s:4444   .debug_str:0000000000000f3c .LASF151
     /tmp/cc4ZsWke.s:4424   .debug_str:0000000000000ea4 .LASF153
     /tmp/cc4ZsWke.s:4008   .debug_str:0000000000000072 .LASF155
     /tmp/cc4ZsWke.s:4194   .debug_str:000000000000066e .LASF156
     /tmp/cc4ZsWke.s:4258   .debug_str:00000000000008af .LASF157
     /tmp/cc4ZsWke.s:4288   .debug_str:00000000000009a3 .LASF158
     /tmp/cc4ZsWke.s:4294   .debug_str:00000000000009ea .LASF159
     /tmp/cc4ZsWke.s:4250   .debug_str:0000000000000854 .LASF160
     /tmp/cc4ZsWke.s:4318   .debug_str:0000000000000a96 .LASF161
     /tmp/cc4ZsWke.s:4446   .debug_str:0000000000000f56 .LASF162
     /tmp/cc4ZsWke.s:4404   .debug_str:0000000000000de1 .LASF163
     /tmp/cc4ZsWke.s:4190   .debug_str:0000000000000653 .LASF164
     /tmp/cc4ZsWke.s:4256   .debug_str:000000000000089b .LASF165
     /tmp/cc4ZsWke.s:4232   .debug_str:00000000000007b4 .LASF166
     /tmp/cc4ZsWke.s:4296   .debug_str:00000000000009fd .LASF167
     /tmp/cc4ZsWke.s:4366   .debug_str:0000000000000c1e .LASF168
     /tmp/cc4ZsWke.s:4172   .debug_str:00000000000005a9 .LASF169
     /tmp/cc4ZsWke.s:4154   .debug_str:000000000000053b .LASF170
     /tmp/cc4ZsWke.s:4376   .debug_str:0000000000000d3e .LASF171
     /tmp/cc4ZsWke.s:4334   .debug_str:0000000000000b27 .LASF172
     /tmp/cc4ZsWke.s:4336   .debug_str:0000000000000b3a .LASF173
     /tmp/cc4ZsWke.s:4104   .debug_str:000000000000038d .LASF174
     /tmp/cc4ZsWke.s:4332   .debug_str:0000000000000b21 .LASF175
     /tmp/cc4ZsWke.s:4020   .debug_str:00000000000000c6 .LASF176
     /tmp/cc4ZsWke.s:4170   .debug_str:00000000000005a3 .LASF177
     /tmp/cc4ZsWke.s:4088   .debug_str:0000000000000330 .LASF178
GAS LISTING /tmp/cc4ZsWke.s 			page 31


     /tmp/cc4ZsWke.s:4044   .debug_str:00000000000001a1 .LASF179
     /tmp/cc4ZsWke.s:4422   .debug_str:0000000000000e89 .LASF180
     /tmp/cc4ZsWke.s:4014   .debug_str:0000000000000098 .LASF181
     /tmp/cc4ZsWke.s:4364   .debug_str:0000000000000c06 .LASF182
     /tmp/cc4ZsWke.s:4312   .debug_str:0000000000000a71 .LASF183
     /tmp/cc4ZsWke.s:4470   .debug_str:0000000000001012 .LASF184
     /tmp/cc4ZsWke.s:4128   .debug_str:000000000000045f .LASF185
     /tmp/cc4ZsWke.s:4052   .debug_str:0000000000000200 .LASF186
     /tmp/cc4ZsWke.s:4358   .debug_str:0000000000000bdb .LASF187
     /tmp/cc4ZsWke.s:4212   .debug_str:0000000000000709 .LASF188
     /tmp/cc4ZsWke.s:4442   .debug_str:0000000000000f32 .LASF189
     /tmp/cc4ZsWke.s:4452   .debug_str:0000000000000f74 .LASF190
     /tmp/cc4ZsWke.s:4436   .debug_str:0000000000000f10 .LASF191
     /tmp/cc4ZsWke.s:4022   .debug_str:00000000000000d8 .LASF192
     /tmp/cc4ZsWke.s:4084   .debug_str:000000000000031a .LASF193
     /tmp/cc4ZsWke.s:4148   .debug_str:0000000000000518 .LASF194
     /tmp/cc4ZsWke.s:4156   .debug_str:0000000000000548 .LASF195
     /tmp/cc4ZsWke.s:4438   .debug_str:0000000000000f1a .LASF196
     /tmp/cc4ZsWke.s:4152   .debug_str:0000000000000530 .LASF197
     /tmp/cc4ZsWke.s:4160   .debug_str:0000000000000559 .LASF198
     /tmp/cc4ZsWke.s:4420   .debug_str:0000000000000e7a .LASF199
     /tmp/cc4ZsWke.s:4138   .debug_str:00000000000004a8 .LASF200
     /tmp/cc4ZsWke.s:4280   .debug_str:000000000000095b .LASF201
     /tmp/cc4ZsWke.s:4188   .debug_str:0000000000000631 .LASF202
     /tmp/cc4ZsWke.s:4304   .debug_str:0000000000000a39 .LASF203
     /tmp/cc4ZsWke.s:4006   .debug_str:000000000000006a .LASF204
     /tmp/cc4ZsWke.s:4032   .debug_str:000000000000014d .LASF205
     /tmp/cc4ZsWke.s:4206   .debug_str:00000000000006c7 .LASF206
     /tmp/cc4ZsWke.s:4284   .debug_str:0000000000000984 .LASF207
     /tmp/cc4ZsWke.s:4234   .debug_str:00000000000007bc .LASF208
     /tmp/cc4ZsWke.s:4144   .debug_str:00000000000004e3 .LASF209
     /tmp/cc4ZsWke.s:4180   .debug_str:00000000000005ef .LASF210
     /tmp/cc4ZsWke.s:4048   .debug_str:00000000000001db .LASF211
     /tmp/cc4ZsWke.s:4396   .debug_str:0000000000000db7 .LASF212
     /tmp/cc4ZsWke.s:4302   .debug_str:0000000000000a30 .LASF213
     /tmp/cc4ZsWke.s:4308   .debug_str:0000000000000a4d .LASF214
     /tmp/cc4ZsWke.s:4130   .debug_str:0000000000000466 .LASF215
     /tmp/cc4ZsWke.s:4018   .debug_str:00000000000000ae .LASF243
     /tmp/cc4ZsWke.s:4464   .debug_str:0000000000000fdc .LASF244
     /tmp/cc4ZsWke.s:4416   .debug_str:0000000000000e53 .LASF216
     /tmp/cc4ZsWke.s:4264   .debug_str:00000000000008d9 .LASF217
     /tmp/cc4ZsWke.s:4400   .debug_str:0000000000000dc9 .LASF218
     /tmp/cc4ZsWke.s:3998   .debug_str:0000000000000035 .LASF219
     /tmp/cc4ZsWke.s:4040   .debug_str:000000000000018a .LASF220
     /tmp/cc4ZsWke.s:4246   .debug_str:000000000000081f .LASF221
     /tmp/cc4ZsWke.s:4344   .debug_str:0000000000000b68 .LASF222
     /tmp/cc4ZsWke.s:4024   .debug_str:00000000000000ee .LASF223
     /tmp/cc4ZsWke.s:783    .text:00000000000003e0 .LFB43
     /tmp/cc4ZsWke.s:840    .text:0000000000000434 .LFE43
     /tmp/cc4ZsWke.s:4266   .debug_str:00000000000008ec .LASF224
     /tmp/cc4ZsWke.s:3737   .debug_loc:0000000000000000 .LLST18
     /tmp/cc4ZsWke.s:811    .text:0000000000000408 .LVL58
     /tmp/cc4ZsWke.s:814    .text:0000000000000414 .LVL59
     /tmp/cc4ZsWke.s:826    .text:0000000000000420 .LVL60
     /tmp/cc4ZsWke.s:717    .text:000000000000039c .LFB42
     /tmp/cc4ZsWke.s:777    .text:00000000000003e0 .LFE42
     /tmp/cc4ZsWke.s:3744   .debug_loc:0000000000000023 .LLST17
GAS LISTING /tmp/cc4ZsWke.s 			page 32


     /tmp/cc4ZsWke.s:742    .text:00000000000003bc .LVL54
     /tmp/cc4ZsWke.s:754    .text:00000000000003c8 .LVL55
     /tmp/cc4ZsWke.s:647    .text:0000000000000348 .LFB41
     /tmp/cc4ZsWke.s:711    .text:000000000000039c .LFE41
     /tmp/cc4ZsWke.s:3755   .debug_loc:0000000000000059 .LLST16
     /tmp/cc4ZsWke.s:670    .text:0000000000000364 .LVL51
     /tmp/cc4ZsWke.s:689    .text:0000000000000384 .LVL52
     /tmp/cc4ZsWke.s:611    .text:0000000000000310 .LFB40
     /tmp/cc4ZsWke.s:641    .text:0000000000000348 .LFE40
     /tmp/cc4ZsWke.s:3762   .debug_loc:000000000000007c .LLST15
     /tmp/cc4ZsWke.s:630    .text:0000000000000338 .LVL49
     /tmp/cc4ZsWke.s:480    .text:0000000000000264 .LFB39
     /tmp/cc4ZsWke.s:509    .text:0000000000000298 .LFE39
     /tmp/cc4ZsWke.s:4076   .debug_str:00000000000002d8 .LASF225
     /tmp/cc4ZsWke.s:3780   .debug_loc:00000000000000c8 .LLST11
     /tmp/cc4ZsWke.s:498    .text:0000000000000288 .LVL37
     /tmp/cc4ZsWke.s:370    .text:00000000000001c0 .LFB38
     /tmp/cc4ZsWke.s:422    .text:000000000000021c .LFE38
     /tmp/cc4ZsWke.s:4082   .debug_str:0000000000000315 .LASF226
     /tmp/cc4ZsWke.s:3794   .debug_loc:0000000000000101 .LLST8
     /tmp/cc4ZsWke.s:3812   .debug_loc:000000000000014d .LLST9
     /tmp/cc4ZsWke.s:390    .text:00000000000001e4 .LVL25
     /tmp/cc4ZsWke.s:397    .text:00000000000001f4 .LVL27
     /tmp/cc4ZsWke.s:404    .text:0000000000000204 .LVL28
     /tmp/cc4ZsWke.s:232    .text:0000000000000118 .LFB37
     /tmp/cc4ZsWke.s:279    .text:0000000000000154 .LFE37
     /tmp/cc4ZsWke.s:4096   .debug_str:0000000000000361 .LASF227
     /tmp/cc4ZsWke.s:3819   .debug_loc:0000000000000170 .LLST5
     /tmp/cc4ZsWke.s:205    .text:00000000000000fc .LFB36
     /tmp/cc4ZsWke.s:226    .text:0000000000000118 .LFE36
     /tmp/cc4ZsWke.s:3826   .debug_loc:0000000000000193 .LLST4
     /tmp/cc4ZsWke.s:96     .text:0000000000000060 .LFB35
     /tmp/cc4ZsWke.s:141    .text:00000000000000a4 .LFE35
     /tmp/cc4ZsWke.s:3840   .debug_loc:00000000000001cc .LLST0
     /tmp/cc4ZsWke.s:113    .text:000000000000007c .LBB5
     /tmp/cc4ZsWke.s:122    .text:0000000000000084 .LBE5
     /tmp/cc4ZsWke.s:3854   .debug_loc:0000000000000205 .LLST1
     /tmp/cc4ZsWke.s:3862   .debug_loc:0000000000000229 .LLST2
     /tmp/cc4ZsWke.s:126    .text:000000000000008c .LVL5
     /tmp/cc4ZsWke.s:130    .text:0000000000000094 .LVL6
     /tmp/cc4ZsWke.s:47     .text:0000000000000024 .LFB34
     /tmp/cc4ZsWke.s:90     .text:0000000000000060 .LFE34
     /tmp/cc4ZsWke.s:4010   .debug_str:0000000000000087 .LASF228
     /tmp/cc4ZsWke.s:4134   .debug_str:0000000000000480 .LASF231
     /tmp/cc4ZsWke.s:285    .text:0000000000000154 .LFB32
     /tmp/cc4ZsWke.s:354    .text:00000000000001c0 .LFE32
     /tmp/cc4ZsWke.s:3869   .debug_loc:000000000000024c .LLST6
     /tmp/cc4ZsWke.s:323    .text:0000000000000190 .LVL20
     /tmp/cc4ZsWke.s:332    .text:00000000000001a4 .LVL21
     /tmp/cc4ZsWke.s:316    .text:0000000000000184 .LBB8
     /tmp/cc4ZsWke.s:333    .text:00000000000001a4 .LBE8
     /tmp/cc4ZsWke.s:3887   .debug_loc:0000000000000298 .LLST7
     /tmp/cc4ZsWke.s:312    .text:000000000000017c .LVL18
     /tmp/cc4ZsWke.s:515    .text:0000000000000298 .LFB30
     /tmp/cc4ZsWke.s:605    .text:0000000000000310 .LFE30
     /tmp/cc4ZsWke.s:3894   .debug_loc:00000000000002bb .LLST12
     /tmp/cc4ZsWke.s:4186   .debug_str:0000000000000621 .LASF229
GAS LISTING /tmp/cc4ZsWke.s 			page 33


     /tmp/cc4ZsWke.s:3905   .debug_loc:00000000000002f1 .LLST13
     /tmp/cc4ZsWke.s:4202   .debug_str:00000000000006b3 .LASF230
     /tmp/cc4ZsWke.s:3916   .debug_loc:0000000000000327 .LLST14
     /tmp/cc4ZsWke.s:552    .text:00000000000002c8 .LVL40
     /tmp/cc4ZsWke.s:556    .text:00000000000002d8 .LVL41
     /tmp/cc4ZsWke.s:573    .text:00000000000002ec .LVL42
     /tmp/cc4ZsWke.s:428    .text:000000000000021c .LFB29
     /tmp/cc4ZsWke.s:474    .text:0000000000000264 .LFE29
     /tmp/cc4ZsWke.s:3927   .debug_loc:000000000000035d .LLST10
     /tmp/cc4ZsWke.s:461    .text:0000000000000250 .LVL34
     /tmp/cc4ZsWke.s:147    .text:00000000000000a4 .LFB28
     /tmp/cc4ZsWke.s:199    .text:00000000000000fc .LFE28
     /tmp/cc4ZsWke.s:3952   .debug_loc:00000000000003bf .LLST3
     /tmp/cc4ZsWke.s:186    .text:00000000000000e8 .LVL10
     /tmp/cc4ZsWke.s:4282   .debug_str:0000000000000970 .LASF232
     /tmp/cc4ZsWke.s:10     .text:0000000000000000 .LFB26
     /tmp/cc4ZsWke.s:39     .text:0000000000000024 .LFE26
     /tmp/cc4ZsWke.s:4408   .debug_str:0000000000000dff .LASF233
     /tmp/cc4ZsWke.s:4038   .debug_str:000000000000017a .LASF235
     /tmp/cc4ZsWke.s:4126   .debug_str:000000000000043b .LASF234
     /tmp/cc4ZsWke.s:4094   .debug_str:0000000000000350 .LASF236
     /tmp/cc4ZsWke.s:803    .text:00000000000003f8 .LVL57
     /tmp/cc4ZsWke.s:835    .text:000000000000042c .LVL61
     /tmp/cc4ZsWke.s:735    .text:00000000000003b0 .LVL53
     /tmp/cc4ZsWke.s:765    .text:00000000000003d8 .LVL56
     /tmp/cc4ZsWke.s:665    .text:000000000000035c .LVL50
     /tmp/cc4ZsWke.s:614    .text:0000000000000310 .LVL47
     /tmp/cc4ZsWke.s:628    .text:0000000000000330 .LVL48
     /tmp/cc4ZsWke.s:483    .text:0000000000000264 .LVL35
     /tmp/cc4ZsWke.s:496    .text:0000000000000280 .LVL36
     /tmp/cc4ZsWke.s:373    .text:00000000000001c0 .LVL24
     /tmp/cc4ZsWke.s:417    .text:0000000000000214 .LVL30
     /tmp/cc4ZsWke.s:392    .text:00000000000001e8 .LVL26
     /tmp/cc4ZsWke.s:414    .text:0000000000000210 .LVL29
     /tmp/cc4ZsWke.s:248    .text:000000000000012c .LVL14
     /tmp/cc4ZsWke.s:260    .text:000000000000013c .LVL15
     /tmp/cc4ZsWke.s:208    .text:00000000000000fc .LVL11
     /tmp/cc4ZsWke.s:218    .text:000000000000010c .LVL12
     /tmp/cc4ZsWke.s:99     .text:0000000000000060 .LVL2
     /tmp/cc4ZsWke.s:112    .text:000000000000007c .LVL3
     /tmp/cc4ZsWke.s:120    .text:0000000000000084 .LVL4
     /tmp/cc4ZsWke.s:290    .text:0000000000000154 .LVL16
     /tmp/cc4ZsWke.s:304    .text:0000000000000170 .LVL17
     /tmp/cc4ZsWke.s:349    .text:00000000000001b8 .LVL23
     /tmp/cc4ZsWke.s:318    .text:0000000000000184 .LVL19
     /tmp/cc4ZsWke.s:336    .text:00000000000001a8 .LVL22
     /tmp/cc4ZsWke.s:546    .text:00000000000002bc .LVL39
     /tmp/cc4ZsWke.s:589    .text:0000000000000300 .LVL45
     /tmp/cc4ZsWke.s:593    .text:0000000000000308 .LVL46
     /tmp/cc4ZsWke.s:540    .text:00000000000002b8 .LVL38
     /tmp/cc4ZsWke.s:586    .text:00000000000002fc .LVL44
     /tmp/cc4ZsWke.s:583    .text:00000000000002f8 .LVL43
     /tmp/cc4ZsWke.s:431    .text:000000000000021c .LVL31
     /tmp/cc4ZsWke.s:445    .text:0000000000000234 .LVL32
     /tmp/cc4ZsWke.s:447    .text:0000000000000238 .LVL33
     /tmp/cc4ZsWke.s:150    .text:00000000000000a4 .LVL7
     /tmp/cc4ZsWke.s:170    .text:00000000000000cc .LVL8
GAS LISTING /tmp/cc4ZsWke.s 			page 34


     /tmp/cc4ZsWke.s:172    .text:00000000000000d0 .LVL9
     /tmp/cc4ZsWke.s:849    .debug_info:0000000000000000 .Ldebug_info0
     /tmp/cc4ZsWke.s:357    .gcc_except_table:0000000000000000 .LLSDA32

UNDEFINED SYMBOLS
_ZN3PCB7runningE
_ZN3PCB8dispatchEv
_ZN9Scheduler3putEP3PCB
__gxx_personality_v0
_ZN5Riscv14semaphoreCacheE
_Z16kmem_cache_allocP12kmem_cache_s
_ZN5Riscv13w_a0_sscratchEv
_Z15kmem_cache_freeP12kmem_cache_sPv
