GAS LISTING /tmp/cc3F21sq.s 			page 1


   1              		.file	"KSemaphore.cpp"
   2              		.option pic
   3              		.option norelax
   4              		.text
   5              	.Ltext0:
   6              		.align	2
   7              		.globl	_ZN10KSemaphoreC2Ei
   9              	_ZN10KSemaphoreC2Ei:
  10              	.LFB26:
  11              		.file 1 "src/KSemaphore.cpp"
   1:src/KSemaphore.cpp **** //
   2:src/KSemaphore.cpp **** // Created by os on 5/2/22.
   3:src/KSemaphore.cpp **** //
   4:src/KSemaphore.cpp **** 
   5:src/KSemaphore.cpp **** #include "../h/KSemaphore.hpp"
   6:src/KSemaphore.cpp **** #include "../h/MemoryAllocator.hpp"
   7:src/KSemaphore.cpp **** #include "../h/Riscv.hpp"
   8:src/KSemaphore.cpp **** #include "../h/Scheduler.hpp"
   9:src/KSemaphore.cpp **** 
  10:src/KSemaphore.cpp **** KSemaphore::KSemaphore(int val)
  12              		.loc 1 10 1
  13              		.cfi_startproc
  14              	.LVL0:
  15 0000 130101FF 		addi	sp,sp,-16
  16              		.cfi_def_cfa_offset 16
  17 0004 23348100 		sd	s0,8(sp)
  18              		.cfi_offset 8, -8
  19 0008 13040101 		addi	s0,sp,16
  20              		.cfi_def_cfa 8, 0
  21              	.LBB4:
  11:src/KSemaphore.cpp **** {
  12:src/KSemaphore.cpp ****     this->val = this->beginVal = val;
  22              		.loc 1 12 5
  23              		.loc 1 12 32 is_stmt 0
  24 000c 232AB500 		sw	a1,20(a0)
  25              		.loc 1 12 15
  26 0010 2328B500 		sw	a1,16(a0)
  13:src/KSemaphore.cpp ****     headBlocked = tailBlocked = 0;
  27              		.loc 1 13 5 is_stmt 1
  28              		.loc 1 13 31 is_stmt 0
  29 0014 23340500 		sd	zero,8(a0)
  30              		.loc 1 13 17
  31 0018 23300500 		sd	zero,0(a0)
  32              	.LBE4:
  14:src/KSemaphore.cpp **** }
  33              		.loc 1 14 1
  34 001c 03348100 		ld	s0,8(sp)
  35              		.cfi_restore 8
  36              		.cfi_def_cfa 2, 16
  37 0020 13010101 		addi	sp,sp,16
  38              		.cfi_def_cfa_offset 0
  39 0024 67800000 		jr	ra
  40              		.cfi_endproc
  41              	.LFE26:
  43              		.globl	_ZN10KSemaphoreC1Ei
  44              		.set	_ZN10KSemaphoreC1Ei,_ZN10KSemaphoreC2Ei
  45              		.align	2
GAS LISTING /tmp/cc3F21sq.s 			page 2


  46              		.globl	_ZN10KSemaphore12addToBlockedEP3PCB
  48              	_ZN10KSemaphore12addToBlockedEP3PCB:
  49              	.LFB34:
  15:src/KSemaphore.cpp **** 
  16:src/KSemaphore.cpp **** uint64 KSemaphore::wait()
  17:src/KSemaphore.cpp **** {
  18:src/KSemaphore.cpp ****     PCB::running->retFromClosedSem = false;
  19:src/KSemaphore.cpp ****     if(--val < 0)
  20:src/KSemaphore.cpp ****         block();
  21:src/KSemaphore.cpp **** 
  22:src/KSemaphore.cpp ****     return 0;
  23:src/KSemaphore.cpp **** }
  24:src/KSemaphore.cpp **** 
  25:src/KSemaphore.cpp **** uint64 KSemaphore::signal() {
  26:src/KSemaphore.cpp ****     if(++val <= 0)
  27:src/KSemaphore.cpp ****         unblock();
  28:src/KSemaphore.cpp **** 
  29:src/KSemaphore.cpp ****     return 0;
  30:src/KSemaphore.cpp **** }
  31:src/KSemaphore.cpp **** 
  32:src/KSemaphore.cpp **** void KSemaphore::semOpenHandler()
  33:src/KSemaphore.cpp **** {
  34:src/KSemaphore.cpp ****     uint64 val;
  35:src/KSemaphore.cpp ****     KSemaphore** semaphoreHandle;
  36:src/KSemaphore.cpp ****     __asm__ volatile("mv %0, a1" : "=r"(semaphoreHandle));
  37:src/KSemaphore.cpp ****     __asm__ volatile("mv %0, a2" : "=r"(val));
  38:src/KSemaphore.cpp **** 
  39:src/KSemaphore.cpp ****     KSemaphore* newSem = new KSemaphore(val);
  40:src/KSemaphore.cpp **** 
  41:src/KSemaphore.cpp ****     (*semaphoreHandle) = newSem;
  42:src/KSemaphore.cpp **** 
  43:src/KSemaphore.cpp ****     if(newSem == 0)
  44:src/KSemaphore.cpp ****             __asm__ volatile("li a0, 0xffffffffffffffff");
  45:src/KSemaphore.cpp ****     else
  46:src/KSemaphore.cpp ****             __asm__ volatile("li a0, 0");
  47:src/KSemaphore.cpp ****     Riscv::w_a0_sscratch();
  48:src/KSemaphore.cpp **** }
  49:src/KSemaphore.cpp **** 
  50:src/KSemaphore.cpp **** KSemaphore::~KSemaphore()
  51:src/KSemaphore.cpp **** {
  52:src/KSemaphore.cpp ****     while(getFirstBlocked() != 0)
  53:src/KSemaphore.cpp ****     {
  54:src/KSemaphore.cpp ****         PCB* pcb = getFirstBlocked();
  55:src/KSemaphore.cpp ****         removeFirstBlocked();
  56:src/KSemaphore.cpp ****         pcb->retFromClosedSem = true;
  57:src/KSemaphore.cpp ****         Scheduler::put(pcb);
  58:src/KSemaphore.cpp ****     }
  59:src/KSemaphore.cpp **** }
  60:src/KSemaphore.cpp **** 
  61:src/KSemaphore.cpp **** void KSemaphore::addToBlocked(PCB* pcb)
  62:src/KSemaphore.cpp **** {
  50              		.loc 1 62 1 is_stmt 1
  51              		.cfi_startproc
  52              	.LVL1:
  53 0028 130101FF 		addi	sp,sp,-16
  54              		.cfi_def_cfa_offset 16
  55 002c 23348100 		sd	s0,8(sp)
GAS LISTING /tmp/cc3F21sq.s 			page 3


  56              		.cfi_offset 8, -8
  57 0030 13040101 		addi	s0,sp,16
  58              		.cfi_def_cfa 8, 0
  63:src/KSemaphore.cpp ****     pcb->nextPCB = 0;
  59              		.loc 1 63 5
  60              		.loc 1 63 18 is_stmt 0
  61 0034 23B40500 		sd	zero,8(a1)
  64:src/KSemaphore.cpp ****     if(headBlocked == 0)
  62              		.loc 1 64 5 is_stmt 1
  63              		.loc 1 64 8 is_stmt 0
  64 0038 83370500 		ld	a5,0(a0)
  65              		.loc 1 64 5
  66 003c 638E0700 		beqz	a5,.L7
  65:src/KSemaphore.cpp ****     {
  66:src/KSemaphore.cpp ****         headBlocked = tailBlocked = pcb;
  67:src/KSemaphore.cpp ****     }
  68:src/KSemaphore.cpp ****     else
  69:src/KSemaphore.cpp ****     {
  70:src/KSemaphore.cpp ****         tailBlocked->nextPCB = pcb;
  67              		.loc 1 70 9 is_stmt 1
  68 0040 83378500 		ld	a5,8(a0)
  69              		.loc 1 70 30 is_stmt 0
  70 0044 23B4B700 		sd	a1,8(a5)
  71:src/KSemaphore.cpp ****         tailBlocked = pcb;
  71              		.loc 1 71 9 is_stmt 1
  72              		.loc 1 71 21 is_stmt 0
  73 0048 2334B500 		sd	a1,8(a0)
  74              	.L3:
  72:src/KSemaphore.cpp ****     }
  73:src/KSemaphore.cpp **** }
  75              		.loc 1 73 1
  76 004c 03348100 		ld	s0,8(sp)
  77              		.cfi_remember_state
  78              		.cfi_restore 8
  79              		.cfi_def_cfa 2, 16
  80 0050 13010101 		addi	sp,sp,16
  81              		.cfi_def_cfa_offset 0
  82 0054 67800000 		jr	ra
  83              	.L7:
  84              		.cfi_restore_state
  66:src/KSemaphore.cpp ****     }
  85              		.loc 1 66 9 is_stmt 1
  66:src/KSemaphore.cpp ****     }
  86              		.loc 1 66 35 is_stmt 0
  87 0058 2334B500 		sd	a1,8(a0)
  66:src/KSemaphore.cpp ****     }
  88              		.loc 1 66 21
  89 005c 2330B500 		sd	a1,0(a0)
  90 0060 6FF0DFFE 		j	.L3
  91              		.cfi_endproc
  92              	.LFE34:
  94              		.align	2
  95              		.globl	_ZN10KSemaphore5blockEv
  97              	_ZN10KSemaphore5blockEv:
  98              	.LFB35:
  74:src/KSemaphore.cpp **** 
  75:src/KSemaphore.cpp **** void KSemaphore::block()
GAS LISTING /tmp/cc3F21sq.s 			page 4


  76:src/KSemaphore.cpp **** {
  99              		.loc 1 76 1 is_stmt 1
 100              		.cfi_startproc
 101              	.LVL2:
 102 0064 130101FF 		addi	sp,sp,-16
 103              		.cfi_def_cfa_offset 16
 104 0068 23341100 		sd	ra,8(sp)
 105 006c 23308100 		sd	s0,0(sp)
 106              		.cfi_offset 1, -8
 107              		.cfi_offset 8, -16
 108 0070 13040101 		addi	s0,sp,16
 109              		.cfi_def_cfa 8, 0
  77:src/KSemaphore.cpp ****     PCB::running->setState(PCB::SUSPENDED);
 110              		.loc 1 77 5
 111              		.loc 1 77 27 is_stmt 0
 112 0074 97070000 		la	a5,_ZN3PCB7runningE
 112      83B70700 
 113 007c 83B50700 		ld	a1,0(a5)
 114              	.LVL3:
 115              	.LBB5:
 116              	.LBB6:
 117              		.file 2 "src/../h/PCB.hpp"
   1:src/../h/PCB.hpp **** //
   2:src/../h/PCB.hpp **** // Created by os on 4/27/22.
   3:src/../h/PCB.hpp **** //
   4:src/../h/PCB.hpp **** 
   5:src/../h/PCB.hpp **** #ifndef PROJECT_BASE_V1_0_PCB_HPP
   6:src/../h/PCB.hpp **** #define PROJECT_BASE_V1_0_PCB_HPP
   7:src/../h/PCB.hpp **** 
   8:src/../h/PCB.hpp **** #include "../lib/hw.h"
   9:src/../h/PCB.hpp **** 
  10:src/../h/PCB.hpp **** class PCB
  11:src/../h/PCB.hpp **** {
  12:src/../h/PCB.hpp **** private:
  13:src/../h/PCB.hpp ****     static uint64 savedRegA4;
  14:src/../h/PCB.hpp **** 
  15:src/../h/PCB.hpp ****     using Body = void (*)(void*);
  16:src/../h/PCB.hpp **** 
  17:src/../h/PCB.hpp ****     PCB(Body body,  void* args, void* stack_space, uint64 timeSlice);
  18:src/../h/PCB.hpp ****     ~PCB();
  19:src/../h/PCB.hpp **** 
  20:src/../h/PCB.hpp ****     void start();
  21:src/../h/PCB.hpp ****     static void dispatch();
  22:src/../h/PCB.hpp ****     static void sleep(time_t);
  23:src/../h/PCB.hpp **** 
  24:src/../h/PCB.hpp ****     static PCB* running;
  25:src/../h/PCB.hpp **** 
  26:src/../h/PCB.hpp ****     static uint64 timeSliceCounter;
  27:src/../h/PCB.hpp ****     uint64 getTimeSlice() { return timeSlice;}
  28:src/../h/PCB.hpp **** 
  29:src/../h/PCB.hpp ****     void* operator new(size_t size);
  30:src/../h/PCB.hpp ****     void operator delete(void *p);
  31:src/../h/PCB.hpp **** 
  32:src/../h/PCB.hpp ****     enum State{READY, RUNNING, SUSPENDED, FINISHED, EXITING, SLEEPING};
  33:src/../h/PCB.hpp ****     State getState() {return state;}
  34:src/../h/PCB.hpp ****     void setState(State s) {state = s;}
 118              		.loc 2 34 29 is_stmt 1
GAS LISTING /tmp/cc3F21sq.s 			page 5


 119              		.loc 2 34 35 is_stmt 0
 120 0080 93072000 		li	a5,2
 121 0084 23A0F504 		sw	a5,64(a1)
 122              	.LVL4:
 123              	.LBE6:
 124              	.LBE5:
  78:src/KSemaphore.cpp ****     addToBlocked(PCB::running);
 125              		.loc 1 78 5 is_stmt 1
 126              		.loc 1 78 17 is_stmt 0
 127 0088 97000000 		call	_ZN10KSemaphore12addToBlockedEP3PCB
 127      E7800000 
 128              	.LVL5:
  79:src/KSemaphore.cpp ****     PCB::dispatch();
 129              		.loc 1 79 5 is_stmt 1
 130              		.loc 1 79 18 is_stmt 0
 131 0090 97000000 		call	_ZN3PCB8dispatchEv@plt
 131      E7800000 
 132              	.LVL6:
  80:src/KSemaphore.cpp **** }
 133              		.loc 1 80 1
 134 0098 83308100 		ld	ra,8(sp)
 135              		.cfi_restore 1
 136 009c 03340100 		ld	s0,0(sp)
 137              		.cfi_restore 8
 138              		.cfi_def_cfa 2, 16
 139 00a0 13010101 		addi	sp,sp,16
 140              		.cfi_def_cfa_offset 0
 141 00a4 67800000 		jr	ra
 142              		.cfi_endproc
 143              	.LFE35:
 145              		.align	2
 146              		.globl	_ZN10KSemaphore4waitEv
 148              	_ZN10KSemaphore4waitEv:
 149              	.LFB28:
  17:src/KSemaphore.cpp ****     PCB::running->retFromClosedSem = false;
 150              		.loc 1 17 1 is_stmt 1
 151              		.cfi_startproc
 152              	.LVL7:
  18:src/KSemaphore.cpp ****     if(--val < 0)
 153              		.loc 1 18 5
  18:src/KSemaphore.cpp ****     if(--val < 0)
 154              		.loc 1 18 19 is_stmt 0
 155 00a8 97070000 		la	a5,_ZN3PCB7runningE
 155      83B70700 
 156 00b0 83B70700 		ld	a5,0(a5)
  18:src/KSemaphore.cpp ****     if(--val < 0)
 157              		.loc 1 18 36
 158 00b4 238C0704 		sb	zero,88(a5)
  19:src/KSemaphore.cpp ****         block();
 159              		.loc 1 19 5 is_stmt 1
  19:src/KSemaphore.cpp ****         block();
 160              		.loc 1 19 10 is_stmt 0
 161 00b8 83270501 		lw	a5,16(a0)
  19:src/KSemaphore.cpp ****         block();
 162              		.loc 1 19 8
 163 00bc 9B87F7FF 		addiw	a5,a5,-1
  19:src/KSemaphore.cpp ****         block();
GAS LISTING /tmp/cc3F21sq.s 			page 6


 164              		.loc 1 19 14
 165 00c0 2328F500 		sw	a5,16(a0)
  19:src/KSemaphore.cpp ****         block();
 166              		.loc 1 19 5
 167 00c4 13970702 		slli	a4,a5,32
 168 00c8 63460700 		bltz	a4,.L16
  22:src/KSemaphore.cpp **** }
 169              		.loc 1 22 5 is_stmt 1
  23:src/KSemaphore.cpp **** 
 170              		.loc 1 23 1 is_stmt 0
 171 00cc 13050000 		li	a0,0
 172              	.LVL8:
 173 00d0 67800000 		ret
 174              	.LVL9:
 175              	.L16:
  17:src/KSemaphore.cpp ****     PCB::running->retFromClosedSem = false;
 176              		.loc 1 17 1
 177 00d4 130101FF 		addi	sp,sp,-16
 178              		.cfi_def_cfa_offset 16
 179 00d8 23341100 		sd	ra,8(sp)
 180 00dc 23308100 		sd	s0,0(sp)
 181              		.cfi_offset 1, -8
 182              		.cfi_offset 8, -16
 183 00e0 13040101 		addi	s0,sp,16
 184              		.cfi_def_cfa 8, 0
  20:src/KSemaphore.cpp **** 
 185              		.loc 1 20 9 is_stmt 1
  20:src/KSemaphore.cpp **** 
 186              		.loc 1 20 14 is_stmt 0
 187 00e4 97000000 		call	_ZN10KSemaphore5blockEv
 187      E7800000 
 188              	.LVL10:
  22:src/KSemaphore.cpp **** }
 189              		.loc 1 22 5 is_stmt 1
  23:src/KSemaphore.cpp **** 
 190              		.loc 1 23 1 is_stmt 0
 191 00ec 13050000 		li	a0,0
 192 00f0 83308100 		ld	ra,8(sp)
 193              		.cfi_restore 1
 194 00f4 03340100 		ld	s0,0(sp)
 195              		.cfi_restore 8
 196              		.cfi_def_cfa 2, 16
 197 00f8 13010101 		addi	sp,sp,16
 198              		.cfi_def_cfa_offset 0
 199 00fc 67800000 		jr	ra
 200              		.cfi_endproc
 201              	.LFE28:
 203              		.align	2
 204              		.globl	_ZN10KSemaphore15getFirstBlockedEv
 206              	_ZN10KSemaphore15getFirstBlockedEv:
 207              	.LFB36:
  81:src/KSemaphore.cpp **** 
  82:src/KSemaphore.cpp **** PCB* KSemaphore::getFirstBlocked()
  83:src/KSemaphore.cpp **** {
 208              		.loc 1 83 1 is_stmt 1
 209              		.cfi_startproc
 210              	.LVL11:
GAS LISTING /tmp/cc3F21sq.s 			page 7


 211 0100 130101FF 		addi	sp,sp,-16
 212              		.cfi_def_cfa_offset 16
 213 0104 23348100 		sd	s0,8(sp)
 214              		.cfi_offset 8, -8
 215 0108 13040101 		addi	s0,sp,16
 216              		.cfi_def_cfa 8, 0
  84:src/KSemaphore.cpp ****    return headBlocked;
 217              		.loc 1 84 4
  85:src/KSemaphore.cpp **** }
 218              		.loc 1 85 1 is_stmt 0
 219 010c 03350500 		ld	a0,0(a0)
 220              	.LVL12:
 221 0110 03348100 		ld	s0,8(sp)
 222              		.cfi_restore 8
 223              		.cfi_def_cfa 2, 16
 224 0114 13010101 		addi	sp,sp,16
 225              		.cfi_def_cfa_offset 0
 226 0118 67800000 		jr	ra
 227              		.cfi_endproc
 228              	.LFE36:
 230              		.align	2
 231              		.globl	_ZN10KSemaphore18removeFirstBlockedEv
 233              	_ZN10KSemaphore18removeFirstBlockedEv:
 234              	.LFB37:
  86:src/KSemaphore.cpp **** 
  87:src/KSemaphore.cpp **** void KSemaphore::removeFirstBlocked()
  88:src/KSemaphore.cpp **** {
 235              		.loc 1 88 1 is_stmt 1
 236              		.cfi_startproc
 237              	.LVL13:
 238 011c 130101FF 		addi	sp,sp,-16
 239              		.cfi_def_cfa_offset 16
 240 0120 23348100 		sd	s0,8(sp)
 241              		.cfi_offset 8, -8
 242 0124 13040101 		addi	s0,sp,16
 243              		.cfi_def_cfa 8, 0
  89:src/KSemaphore.cpp ****     if(headBlocked == 0)
 244              		.loc 1 89 5
 245              		.loc 1 89 8 is_stmt 0
 246 0128 83370500 		ld	a5,0(a0)
 247              		.loc 1 89 5
 248 012c 638C0700 		beqz	a5,.L19
  90:src/KSemaphore.cpp ****         return;
  91:src/KSemaphore.cpp ****     PCB* first = headBlocked;
 249              		.loc 1 91 5 is_stmt 1
 250              	.LVL14:
  92:src/KSemaphore.cpp ****     headBlocked = headBlocked->nextPCB;
 251              		.loc 1 92 5
 252              		.loc 1 92 32 is_stmt 0
 253 0130 03B78700 		ld	a4,8(a5)
 254              		.loc 1 92 17
 255 0134 2330E500 		sd	a4,0(a0)
  93:src/KSemaphore.cpp ****     first->nextPCB = 0;
 256              		.loc 1 93 5 is_stmt 1
 257              		.loc 1 93 20 is_stmt 0
 258 0138 23B40700 		sd	zero,8(a5)
  94:src/KSemaphore.cpp ****     if(headBlocked == 0)
GAS LISTING /tmp/cc3F21sq.s 			page 8


 259              		.loc 1 94 5 is_stmt 1
 260              		.loc 1 94 8 is_stmt 0
 261 013c 83370500 		ld	a5,0(a0)
 262              	.LVL15:
 263              		.loc 1 94 5
 264 0140 63880700 		beqz	a5,.L22
 265              	.L19:
  95:src/KSemaphore.cpp ****         tailBlocked =0;
  96:src/KSemaphore.cpp **** }
 266              		.loc 1 96 1
 267 0144 03348100 		ld	s0,8(sp)
 268              		.cfi_remember_state
 269              		.cfi_restore 8
 270              		.cfi_def_cfa 2, 16
 271 0148 13010101 		addi	sp,sp,16
 272              		.cfi_def_cfa_offset 0
 273 014c 67800000 		jr	ra
 274              	.L22:
 275              		.cfi_restore_state
  95:src/KSemaphore.cpp ****         tailBlocked =0;
 276              		.loc 1 95 9 is_stmt 1
  95:src/KSemaphore.cpp ****         tailBlocked =0;
 277              		.loc 1 95 21 is_stmt 0
 278 0150 23340500 		sd	zero,8(a0)
 279 0154 6FF01FFF 		j	.L19
 280              		.cfi_endproc
 281              	.LFE37:
 283              		.align	2
 284              		.globl	_ZN10KSemaphoreD2Ev
 286              	_ZN10KSemaphoreD2Ev:
 287              	.LFB32:
  50:src/KSemaphore.cpp **** {
 288              		.loc 1 50 1 is_stmt 1
 289              		.cfi_startproc
 290              		.cfi_personality 0x9b,DW.ref.__gxx_personality_v0
 291              		.cfi_lsda 0x1b,.LLSDA32
 292              	.LVL16:
 293 0158 130101FE 		addi	sp,sp,-32
 294              		.cfi_def_cfa_offset 32
 295 015c 233C1100 		sd	ra,24(sp)
 296 0160 23388100 		sd	s0,16(sp)
 297 0164 23349100 		sd	s1,8(sp)
 298 0168 23302101 		sd	s2,0(sp)
 299              		.cfi_offset 1, -8
 300              		.cfi_offset 8, -16
 301              		.cfi_offset 9, -24
 302              		.cfi_offset 18, -32
 303 016c 13040102 		addi	s0,sp,32
 304              		.cfi_def_cfa 8, 0
 305 0170 13090500 		mv	s2,a0
 306              	.LVL17:
 307              	.L25:
 308              	.LBB7:
  52:src/KSemaphore.cpp ****     {
 309              		.loc 1 52 5
  52:src/KSemaphore.cpp ****     {
 310              		.loc 1 52 29
GAS LISTING /tmp/cc3F21sq.s 			page 9


  52:src/KSemaphore.cpp ****     {
 311              		.loc 1 52 26 is_stmt 0
 312 0174 13050900 		mv	a0,s2
 313 0178 97000000 		call	_ZN10KSemaphore15getFirstBlockedEv
 313      E7800000 
 314              	.LVL18:
 315 0180 93040500 		mv	s1,a0
  52:src/KSemaphore.cpp ****     {
 316              		.loc 1 52 29
 317 0184 63040502 		beqz	a0,.L23
 318              	.LBB8:
  54:src/KSemaphore.cpp ****         removeFirstBlocked();
 319              		.loc 1 54 9 is_stmt 1
 320              	.LVL19:
  55:src/KSemaphore.cpp ****         pcb->retFromClosedSem = true;
 321              		.loc 1 55 9
  55:src/KSemaphore.cpp ****         pcb->retFromClosedSem = true;
 322              		.loc 1 55 27 is_stmt 0
 323 0188 13050900 		mv	a0,s2
 324 018c 97000000 		call	_ZN10KSemaphore18removeFirstBlockedEv
 324      E7800000 
 325              	.LVL20:
  56:src/KSemaphore.cpp ****         Scheduler::put(pcb);
 326              		.loc 1 56 9 is_stmt 1
  56:src/KSemaphore.cpp ****         Scheduler::put(pcb);
 327              		.loc 1 56 31 is_stmt 0
 328 0194 93071000 		li	a5,1
 329 0198 238CF404 		sb	a5,88(s1)
  57:src/KSemaphore.cpp ****     }
 330              		.loc 1 57 9 is_stmt 1
  57:src/KSemaphore.cpp ****     }
 331              		.loc 1 57 23 is_stmt 0
 332 019c 13850400 		mv	a0,s1
 333 01a0 97000000 		call	_ZN9Scheduler3putEP3PCB@plt
 333      E7800000 
 334              	.LVL21:
 335              	.LBE8:
  52:src/KSemaphore.cpp ****     {
 336              		.loc 1 52 5
 337 01a8 6FF0DFFC 		j	.L25
 338              	.LVL22:
 339              	.L23:
 340              	.LBE7:
  59:src/KSemaphore.cpp **** 
 341              		.loc 1 59 1
 342 01ac 83308101 		ld	ra,24(sp)
 343              		.cfi_restore 1
 344 01b0 03340101 		ld	s0,16(sp)
 345              		.cfi_restore 8
 346              		.cfi_def_cfa 2, 32
 347 01b4 83348100 		ld	s1,8(sp)
 348              		.cfi_restore 9
 349 01b8 03390100 		ld	s2,0(sp)
 350              		.cfi_restore 18
 351              	.LVL23:
 352 01bc 13010102 		addi	sp,sp,32
 353              		.cfi_def_cfa_offset 0
GAS LISTING /tmp/cc3F21sq.s 			page 10


 354 01c0 67800000 		jr	ra
 355              		.cfi_endproc
 356              	.LFE32:
 357              		.globl	__gxx_personality_v0
 358              		.section	.gcc_except_table,"a",@progbits
 359              	.LLSDA32:
 360 0000 FF       		.byte	0xff
 361 0001 FF       		.byte	0xff
 362 0002 03       		.byte	0x3
 363 0003 00       		.byte	0
 364              		.text
 366              		.globl	_ZN10KSemaphoreD1Ev
 367              		.set	_ZN10KSemaphoreD1Ev,_ZN10KSemaphoreD2Ev
 368              		.align	2
 369              		.globl	_ZN10KSemaphore7unblockEv
 371              	_ZN10KSemaphore7unblockEv:
 372              	.LFB38:
  97:src/KSemaphore.cpp **** 
  98:src/KSemaphore.cpp **** void KSemaphore::unblock() {
 373              		.loc 1 98 28 is_stmt 1
 374              		.cfi_startproc
 375              	.LVL24:
 376 01c4 130101FE 		addi	sp,sp,-32
 377              		.cfi_def_cfa_offset 32
 378 01c8 233C1100 		sd	ra,24(sp)
 379 01cc 23388100 		sd	s0,16(sp)
 380 01d0 23349100 		sd	s1,8(sp)
 381 01d4 23302101 		sd	s2,0(sp)
 382              		.cfi_offset 1, -8
 383              		.cfi_offset 8, -16
 384              		.cfi_offset 9, -24
 385              		.cfi_offset 18, -32
 386 01d8 13040102 		addi	s0,sp,32
 387              		.cfi_def_cfa 8, 0
 388 01dc 13090500 		mv	s2,a0
  99:src/KSemaphore.cpp ****     PCB* fr = getFirstBlocked();
 389              		.loc 1 99 5
 390              		.loc 1 99 30 is_stmt 0
 391 01e0 97000000 		call	_ZN10KSemaphore15getFirstBlockedEv
 391      E7800000 
 392              	.LVL25:
 393 01e8 93040500 		mv	s1,a0
 394              	.LVL26:
 100:src/KSemaphore.cpp ****     removeFirstBlocked();
 395              		.loc 1 100 5 is_stmt 1
 396              		.loc 1 100 23 is_stmt 0
 397 01ec 13050900 		mv	a0,s2
 398 01f0 97000000 		call	_ZN10KSemaphore18removeFirstBlockedEv
 398      E7800000 
 399              	.LVL27:
 101:src/KSemaphore.cpp ****     if(fr != 0)
 400              		.loc 1 101 5 is_stmt 1
 401 01f8 63880400 		beqz	s1,.L27
 102:src/KSemaphore.cpp ****     {
 103:src/KSemaphore.cpp ****         Scheduler::put(fr);
 402              		.loc 1 103 9
 403              		.loc 1 103 23 is_stmt 0
GAS LISTING /tmp/cc3F21sq.s 			page 11


 404 01fc 13850400 		mv	a0,s1
 405 0200 97000000 		call	_ZN9Scheduler3putEP3PCB@plt
 405      E7800000 
 406              	.LVL28:
 407              	.L27:
 104:src/KSemaphore.cpp ****     }
 105:src/KSemaphore.cpp **** }
 408              		.loc 1 105 1
 409 0208 83308101 		ld	ra,24(sp)
 410              		.cfi_restore 1
 411 020c 03340101 		ld	s0,16(sp)
 412              		.cfi_restore 8
 413              		.cfi_def_cfa 2, 32
 414 0210 83348100 		ld	s1,8(sp)
 415              		.cfi_restore 9
 416              	.LVL29:
 417 0214 03390100 		ld	s2,0(sp)
 418              		.cfi_restore 18
 419              	.LVL30:
 420 0218 13010102 		addi	sp,sp,32
 421              		.cfi_def_cfa_offset 0
 422 021c 67800000 		jr	ra
 423              		.cfi_endproc
 424              	.LFE38:
 426              		.align	2
 427              		.globl	_ZN10KSemaphore6signalEv
 429              	_ZN10KSemaphore6signalEv:
 430              	.LFB29:
  25:src/KSemaphore.cpp ****     if(++val <= 0)
 431              		.loc 1 25 29 is_stmt 1
 432              		.cfi_startproc
 433              	.LVL31:
  26:src/KSemaphore.cpp ****         unblock();
 434              		.loc 1 26 5
  26:src/KSemaphore.cpp ****         unblock();
 435              		.loc 1 26 10 is_stmt 0
 436 0220 83270501 		lw	a5,16(a0)
  26:src/KSemaphore.cpp ****         unblock();
 437              		.loc 1 26 8
 438 0224 9B871700 		addiw	a5,a5,1
 439 0228 1B870700 		sext.w	a4,a5
  26:src/KSemaphore.cpp ****         unblock();
 440              		.loc 1 26 14
 441 022c 2328F500 		sw	a5,16(a0)
  26:src/KSemaphore.cpp ****         unblock();
 442              		.loc 1 26 5
 443 0230 6356E000 		blez	a4,.L36
  29:src/KSemaphore.cpp **** }
 444              		.loc 1 29 5 is_stmt 1
  30:src/KSemaphore.cpp **** 
 445              		.loc 1 30 1 is_stmt 0
 446 0234 13050000 		li	a0,0
 447              	.LVL32:
 448 0238 67800000 		ret
 449              	.LVL33:
 450              	.L36:
  25:src/KSemaphore.cpp ****     if(++val <= 0)
GAS LISTING /tmp/cc3F21sq.s 			page 12


 451              		.loc 1 25 29
 452 023c 130101FF 		addi	sp,sp,-16
 453              		.cfi_def_cfa_offset 16
 454 0240 23341100 		sd	ra,8(sp)
 455 0244 23308100 		sd	s0,0(sp)
 456              		.cfi_offset 1, -8
 457              		.cfi_offset 8, -16
 458 0248 13040101 		addi	s0,sp,16
 459              		.cfi_def_cfa 8, 0
  27:src/KSemaphore.cpp **** 
 460              		.loc 1 27 9 is_stmt 1
  27:src/KSemaphore.cpp **** 
 461              		.loc 1 27 16 is_stmt 0
 462 024c 97000000 		call	_ZN10KSemaphore7unblockEv
 462      E7800000 
 463              	.LVL34:
  29:src/KSemaphore.cpp **** }
 464              		.loc 1 29 5 is_stmt 1
  30:src/KSemaphore.cpp **** 
 465              		.loc 1 30 1 is_stmt 0
 466 0254 13050000 		li	a0,0
 467 0258 83308100 		ld	ra,8(sp)
 468              		.cfi_restore 1
 469 025c 03340100 		ld	s0,0(sp)
 470              		.cfi_restore 8
 471              		.cfi_def_cfa 2, 16
 472 0260 13010101 		addi	sp,sp,16
 473              		.cfi_def_cfa_offset 0
 474 0264 67800000 		jr	ra
 475              		.cfi_endproc
 476              	.LFE29:
 478              		.align	2
 479              		.globl	_ZN10KSemaphorenwEm
 481              	_ZN10KSemaphorenwEm:
 482              	.LFB39:
 106:src/KSemaphore.cpp **** void *KSemaphore::operator new(size_t size) {
 483              		.loc 1 106 45 is_stmt 1
 484              		.cfi_startproc
 485              	.LVL35:
 486 0268 130101FF 		addi	sp,sp,-16
 487              		.cfi_def_cfa_offset 16
 488 026c 23341100 		sd	ra,8(sp)
 489 0270 23308100 		sd	s0,0(sp)
 490              		.cfi_offset 1, -8
 491              		.cfi_offset 8, -16
 492 0274 13040101 		addi	s0,sp,16
 493              		.cfi_def_cfa 8, 0
 107:src/KSemaphore.cpp ****     return MemoryAllocator::kmalloc(size);
 494              		.loc 1 107 5
 495              		.loc 1 107 36 is_stmt 0
 496 0278 97000000 		call	_ZN15MemoryAllocator7kmallocEm@plt
 496      E7800000 
 497              	.LVL36:
 108:src/KSemaphore.cpp **** }
 498              		.loc 1 108 1
 499 0280 83308100 		ld	ra,8(sp)
 500              		.cfi_restore 1
GAS LISTING /tmp/cc3F21sq.s 			page 13


 501 0284 03340100 		ld	s0,0(sp)
 502              		.cfi_restore 8
 503              		.cfi_def_cfa 2, 16
 504 0288 13010101 		addi	sp,sp,16
 505              		.cfi_def_cfa_offset 0
 506 028c 67800000 		jr	ra
 507              		.cfi_endproc
 508              	.LFE39:
 510              		.align	2
 511              		.globl	_ZN10KSemaphore14semOpenHandlerEv
 513              	_ZN10KSemaphore14semOpenHandlerEv:
 514              	.LFB30:
  33:src/KSemaphore.cpp ****     uint64 val;
 515              		.loc 1 33 1 is_stmt 1
 516              		.cfi_startproc
 517 0290 130101FD 		addi	sp,sp,-48
 518              		.cfi_def_cfa_offset 48
 519 0294 23341102 		sd	ra,40(sp)
 520 0298 23308102 		sd	s0,32(sp)
 521 029c 233C9100 		sd	s1,24(sp)
 522 02a0 23382101 		sd	s2,16(sp)
 523 02a4 23343101 		sd	s3,8(sp)
 524              		.cfi_offset 1, -8
 525              		.cfi_offset 8, -16
 526              		.cfi_offset 9, -24
 527              		.cfi_offset 18, -32
 528              		.cfi_offset 19, -40
 529 02a8 13040103 		addi	s0,sp,48
 530              		.cfi_def_cfa 8, 0
  34:src/KSemaphore.cpp ****     KSemaphore** semaphoreHandle;
 531              		.loc 1 34 5
  35:src/KSemaphore.cpp ****     __asm__ volatile("mv %0, a1" : "=r"(semaphoreHandle));
 532              		.loc 1 35 5
  36:src/KSemaphore.cpp ****     __asm__ volatile("mv %0, a2" : "=r"(val));
 533              		.loc 1 36 5
  36:src/KSemaphore.cpp ****     __asm__ volatile("mv %0, a2" : "=r"(val));
 534              		.loc 1 36 58 is_stmt 0
 535              	#APP
 536              	# 36 "src/KSemaphore.cpp" 1
 537              		mv s2, a1
 538              	# 0 "" 2
 539              	.LVL37:
  37:src/KSemaphore.cpp **** 
 540              		.loc 1 37 5 is_stmt 1
  37:src/KSemaphore.cpp **** 
 541              		.loc 1 37 46 is_stmt 0
 542              	# 37 "src/KSemaphore.cpp" 1
 543              		mv s3, a2
 544              	# 0 "" 2
 545              	.LVL38:
  39:src/KSemaphore.cpp **** 
 546              		.loc 1 39 5 is_stmt 1
  39:src/KSemaphore.cpp **** 
 547              		.loc 1 39 44 is_stmt 0
 548              	#NO_APP
 549 02b4 13058001 		li	a0,24
 550 02b8 97000000 		call	_ZN10KSemaphorenwEm
GAS LISTING /tmp/cc3F21sq.s 			page 14


 550      E7800000 
 551              	.LVL39:
 552 02c0 93040500 		mv	s1,a0
 553 02c4 9B850900 		sext.w	a1,s3
 554 02c8 97000000 		call	_ZN10KSemaphoreC1Ei
 554      E7800000 
 555              	.LVL40:
  41:src/KSemaphore.cpp **** 
 556              		.loc 1 41 5 is_stmt 1
  41:src/KSemaphore.cpp **** 
 557              		.loc 1 41 24 is_stmt 0
 558 02d0 23309900 		sd	s1,0(s2)
  43:src/KSemaphore.cpp ****             __asm__ volatile("li a0, 0xffffffffffffffff");
 559              		.loc 1 43 5 is_stmt 1
 560 02d4 63860402 		beqz	s1,.L43
  46:src/KSemaphore.cpp ****     Riscv::w_a0_sscratch();
 561              		.loc 1 46 13
  46:src/KSemaphore.cpp ****     Riscv::w_a0_sscratch();
 562              		.loc 1 46 41 is_stmt 0
 563              	#APP
 564              	# 46 "src/KSemaphore.cpp" 1
 565              		li a0, 0
 566              	# 0 "" 2
 567              	#NO_APP
 568              	.L41:
  47:src/KSemaphore.cpp **** }
 569              		.loc 1 47 5 is_stmt 1
  47:src/KSemaphore.cpp **** }
 570              		.loc 1 47 25 is_stmt 0
 571 02dc 97000000 		call	_ZN5Riscv13w_a0_sscratchEv@plt
 571      E7800000 
 572              	.LVL41:
  48:src/KSemaphore.cpp **** 
 573              		.loc 1 48 1
 574 02e4 83308102 		ld	ra,40(sp)
 575              		.cfi_remember_state
 576              		.cfi_restore 1
 577 02e8 03340102 		ld	s0,32(sp)
 578              		.cfi_restore 8
 579              		.cfi_def_cfa 2, 48
 580 02ec 83348101 		ld	s1,24(sp)
 581              		.cfi_restore 9
 582              	.LVL42:
 583 02f0 03390101 		ld	s2,16(sp)
 584              		.cfi_restore 18
 585              	.LVL43:
 586 02f4 83398100 		ld	s3,8(sp)
 587              		.cfi_restore 19
 588              	.LVL44:
 589 02f8 13010103 		addi	sp,sp,48
 590              		.cfi_def_cfa_offset 0
 591 02fc 67800000 		jr	ra
 592              	.LVL45:
 593              	.L43:
 594              		.cfi_restore_state
  44:src/KSemaphore.cpp ****     else
 595              		.loc 1 44 13 is_stmt 1
GAS LISTING /tmp/cc3F21sq.s 			page 15


  44:src/KSemaphore.cpp ****     else
 596              		.loc 1 44 58 is_stmt 0
 597              	#APP
 598              	# 44 "src/KSemaphore.cpp" 1
 599              		li a0, 0xffffffffffffffff
 600              	# 0 "" 2
 601              	#NO_APP
 602 0304 6FF09FFD 		j	.L41
 603              		.cfi_endproc
 604              	.LFE30:
 606              		.align	2
 607              		.globl	_ZN10KSemaphoredlEPv
 609              	_ZN10KSemaphoredlEPv:
 610              	.LFB40:
 109:src/KSemaphore.cpp **** 
 110:src/KSemaphore.cpp **** void KSemaphore::operator delete(void *p)
 111:src/KSemaphore.cpp **** {
 611              		.loc 1 111 1 is_stmt 1
 612              		.cfi_startproc
 613              	.LVL46:
 614 0308 130101FF 		addi	sp,sp,-16
 615              		.cfi_def_cfa_offset 16
 616 030c 23341100 		sd	ra,8(sp)
 617 0310 23308100 		sd	s0,0(sp)
 618              		.cfi_offset 1, -8
 619              		.cfi_offset 8, -16
 620 0314 13040101 		addi	s0,sp,16
 621              		.cfi_def_cfa 8, 0
 112:src/KSemaphore.cpp ****     MemoryAllocator::kfree(p);
 622              		.loc 1 112 5
 623              		.loc 1 112 27 is_stmt 0
 624 0318 97000000 		call	_ZN15MemoryAllocator5kfreeEPv@plt
 624      E7800000 
 625              	.LVL47:
 113:src/KSemaphore.cpp **** }
 626              		.loc 1 113 1
 627 0320 83308100 		ld	ra,8(sp)
 628              		.cfi_restore 1
 629 0324 03340100 		ld	s0,0(sp)
 630              		.cfi_restore 8
 631              		.cfi_def_cfa 2, 16
 632 0328 13010101 		addi	sp,sp,16
 633              		.cfi_def_cfa_offset 0
 634 032c 67800000 		jr	ra
 635              		.cfi_endproc
 636              	.LFE40:
 638              		.align	2
 639              		.globl	_ZN10KSemaphore14semWaitHandlerEv
 641              	_ZN10KSemaphore14semWaitHandlerEv:
 642              	.LFB41:
 114:src/KSemaphore.cpp **** 
 115:src/KSemaphore.cpp **** void KSemaphore::semWaitHandler()
 116:src/KSemaphore.cpp **** {
 643              		.loc 1 116 1 is_stmt 1
 644              		.cfi_startproc
 645 0330 130101FF 		addi	sp,sp,-16
 646              		.cfi_def_cfa_offset 16
GAS LISTING /tmp/cc3F21sq.s 			page 16


 647 0334 23341100 		sd	ra,8(sp)
 648 0338 23308100 		sd	s0,0(sp)
 649              		.cfi_offset 1, -8
 650              		.cfi_offset 8, -16
 651 033c 13040101 		addi	s0,sp,16
 652              		.cfi_def_cfa 8, 0
 117:src/KSemaphore.cpp ****     KSemaphore* kSem;
 653              		.loc 1 117 5
 118:src/KSemaphore.cpp ****     __asm__ volatile("mv %0, a1" : "=r"(kSem));
 654              		.loc 1 118 5
 655              		.loc 1 118 47 is_stmt 0
 656              	#APP
 657              	# 118 "src/KSemaphore.cpp" 1
 119              	    kSem->wait();
 658              		mv a0, a1
 659              	# 0 "" 2
 660              	.LVL48:
 661              		.loc 1 119 5 is_stmt 1
 662              		.loc 1 119 15 is_stmt 0
 663              	#NO_APP
 664 0344 97000000 		call	_ZN10KSemaphore4waitEv
 664      E7800000 
 665              	.LVL49:
 120:src/KSemaphore.cpp ****     if(PCB::running->retFromClosedSem)
 666              		.loc 1 120 5 is_stmt 1
 667              		.loc 1 120 22 is_stmt 0
 668 034c 97070000 		la	a5,_ZN3PCB7runningE
 668      83B70700 
 669 0354 83B70700 		ld	a5,0(a5)
 670 0358 83C78705 		lbu	a5,88(a5)
 671              		.loc 1 120 5
 672 035c 63800702 		beqz	a5,.L47
 121:src/KSemaphore.cpp ****         __asm__ volatile("li a0, 0x1");
 673              		.loc 1 121 9 is_stmt 1
 674              		.loc 1 121 39 is_stmt 0
 675              	#APP
 676              	# 121 "src/KSemaphore.cpp" 1
 122              	    else
 677              		li a0, 0x1
 678              	# 0 "" 2
 679              	#NO_APP
 680              	.L48:
 123:src/KSemaphore.cpp ****         __asm__ volatile("li a0, 0x0");
 124:src/KSemaphore.cpp ****     Riscv::w_a0_sscratch();
 681              		.loc 1 124 5 is_stmt 1
 682              		.loc 1 124 25 is_stmt 0
 683 0364 97000000 		call	_ZN5Riscv13w_a0_sscratchEv@plt
 683      E7800000 
 684              	.LVL50:
 125:src/KSemaphore.cpp **** }
 685              		.loc 1 125 1
 686 036c 83308100 		ld	ra,8(sp)
 687              		.cfi_remember_state
 688              		.cfi_restore 1
 689 0370 03340100 		ld	s0,0(sp)
 690              		.cfi_restore 8
 691              		.cfi_def_cfa 2, 16
GAS LISTING /tmp/cc3F21sq.s 			page 17


 692 0374 13010101 		addi	sp,sp,16
 693              		.cfi_def_cfa_offset 0
 694 0378 67800000 		jr	ra
 695              	.L47:
 696              		.cfi_restore_state
 123:src/KSemaphore.cpp ****         __asm__ volatile("li a0, 0x0");
 697              		.loc 1 123 9 is_stmt 1
 123:src/KSemaphore.cpp ****         __asm__ volatile("li a0, 0x0");
 698              		.loc 1 123 39 is_stmt 0
 699              	#APP
 700              	# 123 "src/KSemaphore.cpp" 1
 701              		li a0, 0x0
 702              	# 0 "" 2
 703              	#NO_APP
 704 0380 6FF05FFE 		j	.L48
 705              		.cfi_endproc
 706              	.LFE41:
 708              		.align	2
 709              		.globl	_ZN10KSemaphore16semSignalHandlerEv
 711              	_ZN10KSemaphore16semSignalHandlerEv:
 712              	.LFB42:
 126:src/KSemaphore.cpp **** 
 127:src/KSemaphore.cpp **** void KSemaphore::semSignalHandler() {
 713              		.loc 1 127 37 is_stmt 1
 714              		.cfi_startproc
 715 0384 130101FF 		addi	sp,sp,-16
 716              		.cfi_def_cfa_offset 16
 717 0388 23341100 		sd	ra,8(sp)
 718 038c 23308100 		sd	s0,0(sp)
 719              		.cfi_offset 1, -8
 720              		.cfi_offset 8, -16
 721 0390 13040101 		addi	s0,sp,16
 722              		.cfi_def_cfa 8, 0
 128:src/KSemaphore.cpp ****     KSemaphore *kSem;
 723              		.loc 1 128 5
 129:src/KSemaphore.cpp ****     __asm__ volatile("mv %0, a1" : "=r"(kSem));
 724              		.loc 1 129 5
 725              		.loc 1 129 47 is_stmt 0
 726              	#APP
 727              	# 129 "src/KSemaphore.cpp" 1
 130              	    if (kSem == 0)
 728              		mv a0, a1
 729              	# 0 "" 2
 730              	.LVL51:
 731              		.loc 1 130 5 is_stmt 1
 732              	#NO_APP
 733 0398 63040502 		beqz	a0,.L54
 131:src/KSemaphore.cpp ****     {
 132:src/KSemaphore.cpp ****         __asm__ volatile("li a0, 0x1");
 133:src/KSemaphore.cpp ****     }
 134:src/KSemaphore.cpp ****     else
 135:src/KSemaphore.cpp ****     {
 136:src/KSemaphore.cpp ****         kSem->signal();
 734              		.loc 1 136 9
 735              		.loc 1 136 21 is_stmt 0
 736 039c 97000000 		call	_ZN10KSemaphore6signalEv
 736      E7800000 
GAS LISTING /tmp/cc3F21sq.s 			page 18


 737              	.LVL52:
 137:src/KSemaphore.cpp ****         __asm__ volatile("li a0, 0x0");
 738              		.loc 1 137 9 is_stmt 1
 739              		.loc 1 137 39 is_stmt 0
 740              	#APP
 741              	# 137 "src/KSemaphore.cpp" 1
 138              	    }
 742              		li a0, 0x0
 743              	# 0 "" 2
 744              	#NO_APP
 745              	.L52:
 139:src/KSemaphore.cpp ****     Riscv::w_a0_sscratch();
 746              		.loc 1 139 5 is_stmt 1
 747              		.loc 1 139 25 is_stmt 0
 748 03a8 97000000 		call	_ZN5Riscv13w_a0_sscratchEv@plt
 748      E7800000 
 749              	.LVL53:
 140:src/KSemaphore.cpp **** }
 750              		.loc 1 140 1
 751 03b0 83308100 		ld	ra,8(sp)
 752              		.cfi_remember_state
 753              		.cfi_restore 1
 754 03b4 03340100 		ld	s0,0(sp)
 755              		.cfi_restore 8
 756              		.cfi_def_cfa 2, 16
 757 03b8 13010101 		addi	sp,sp,16
 758              		.cfi_def_cfa_offset 0
 759 03bc 67800000 		jr	ra
 760              	.LVL54:
 761              	.L54:
 762              		.cfi_restore_state
 132:src/KSemaphore.cpp ****     }
 763              		.loc 1 132 9 is_stmt 1
 132:src/KSemaphore.cpp ****     }
 764              		.loc 1 132 39 is_stmt 0
 765              	#APP
 766              	# 132 "src/KSemaphore.cpp" 1
 767              		li a0, 0x1
 768              	# 0 "" 2
 769              	#NO_APP
 770 03c4 6FF05FFE 		j	.L52
 771              		.cfi_endproc
 772              	.LFE42:
 774              		.align	2
 775              		.globl	_ZN10KSemaphore15semCloseHandlerEv
 777              	_ZN10KSemaphore15semCloseHandlerEv:
 778              	.LFB43:
 141:src/KSemaphore.cpp **** 
 142:src/KSemaphore.cpp **** void KSemaphore::semCloseHandler()
 143:src/KSemaphore.cpp **** {
 779              		.loc 1 143 1 is_stmt 1
 780              		.cfi_startproc
 781 03c8 130101FE 		addi	sp,sp,-32
 782              		.cfi_def_cfa_offset 32
 783 03cc 233C1100 		sd	ra,24(sp)
 784 03d0 23388100 		sd	s0,16(sp)
 785 03d4 23349100 		sd	s1,8(sp)
GAS LISTING /tmp/cc3F21sq.s 			page 19


 786              		.cfi_offset 1, -8
 787              		.cfi_offset 8, -16
 788              		.cfi_offset 9, -24
 789 03d8 13040102 		addi	s0,sp,32
 790              		.cfi_def_cfa 8, 0
 144:src/KSemaphore.cpp ****     KSemaphore* kSem;
 791              		.loc 1 144 5
 145:src/KSemaphore.cpp ****     __asm__ volatile("mv %0, a1" : "=r"(kSem));
 792              		.loc 1 145 5
 793              		.loc 1 145 47 is_stmt 0
 794              	#APP
 795              	# 145 "src/KSemaphore.cpp" 1
 146              	    delete kSem;
 796              		mv s1, a1
 797              	# 0 "" 2
 798              	.LVL55:
 799              		.loc 1 146 5 is_stmt 1
 800              		.loc 1 146 16 is_stmt 0
 801              	#NO_APP
 802 03e0 638E0400 		beqz	s1,.L56
 803              		.loc 1 146 12 discriminator 1
 804 03e4 13850400 		mv	a0,s1
 805 03e8 97000000 		call	_ZN10KSemaphoreD1Ev
 805      E7800000 
 806              	.LVL56:
 807 03f0 13850400 		mv	a0,s1
 808 03f4 97000000 		call	_ZN10KSemaphoredlEPv
 808      E7800000 
 809              	.LVL57:
 810              	.L56:
 147:src/KSemaphore.cpp ****     __asm__ volatile("li a0, 0");
 811              		.loc 1 147 5 is_stmt 1
 812              		.loc 1 147 33 is_stmt 0
 813              	#APP
 814              	# 147 "src/KSemaphore.cpp" 1
 148              	    Riscv::w_a0_sscratch();
 815              		li a0, 0
 816              	# 0 "" 2
 817              		.loc 1 148 5 is_stmt 1
 818              		.loc 1 148 25 is_stmt 0
 819              	#NO_APP
 820 0400 97000000 		call	_ZN5Riscv13w_a0_sscratchEv@plt
 820      E7800000 
 821              	.LVL58:
 149:src/KSemaphore.cpp **** }
 822              		.loc 1 149 1
 823 0408 83308101 		ld	ra,24(sp)
 824              		.cfi_restore 1
 825 040c 03340101 		ld	s0,16(sp)
 826              		.cfi_restore 8
 827              		.cfi_def_cfa 2, 32
 828 0410 83348100 		ld	s1,8(sp)
 829              		.cfi_restore 9
 830              	.LVL59:
 831 0414 13010102 		addi	sp,sp,32
 832              		.cfi_def_cfa_offset 0
 833 0418 67800000 		jr	ra
GAS LISTING /tmp/cc3F21sq.s 			page 20


 834              		.cfi_endproc
 835              	.LFE43:
 837              	.Letext0:
 838              		.file 3 "src/../h/../lib/hw.h"
 839              		.file 4 "src/../h/KSemaphore.hpp"
 840              		.file 5 "src/../h/MemoryAllocator.hpp"
 841              		.file 6 "src/../h/Riscv.hpp"
 842              		.file 7 "src/../h/Scheduler.hpp"
 4683              		.align	3
 4686              	DW.ref.__gxx_personality_v0:
 4687 0000 00000000 		.dword	__gxx_personality_v0
 4687      00000000 
 4688              		.ident	"GCC: (Ubuntu 9.3.0-17ubuntu1~20.04) 9.3.0"
 4689              		.section	.note.GNU-stack,"",@progbits
GAS LISTING /tmp/cc3F21sq.s 			page 21

