GAS LISTING /tmp/cc3F21sq.s 			page 1


   1              		.file	"KSemaphore.cpp"
   2              		.option pic
   3              		.option norelax
   4              		.text
   5              	.Ltext0:
   6              		.align	2
   7              		.globl	_ZN10KSemaphoreC2Ei
   9              	_ZN10KSemaphoreC2Ei:
  10              	.LFB26:
  11              		.file 1 "src/KSemaphore.cpp"
   1:src/KSemaphore.cpp **** //
   2:src/KSemaphore.cpp **** // Created by os on 5/2/22.
   3:src/KSemaphore.cpp **** //
   4:src/KSemaphore.cpp **** 
   5:src/KSemaphore.cpp **** #include "../h/KSemaphore.hpp"
   6:src/KSemaphore.cpp **** #include "../h/MemoryAllocator.hpp"
   7:src/KSemaphore.cpp **** #include "../h/Riscv.hpp"
   8:src/KSemaphore.cpp **** #include "../h/Scheduler.hpp"
   9:src/KSemaphore.cpp **** 
  10:src/KSemaphore.cpp **** KSemaphore::KSemaphore(int val)
  12              		.loc 1 10 1
  13              		.cfi_startproc
  14              	.LVL0:
  15 0000 130101FF 		addi	sp,sp,-16
  16              		.cfi_def_cfa_offset 16
  17 0004 23348100 		sd	s0,8(sp)
  18              		.cfi_offset 8, -8
  19 0008 13040101 		addi	s0,sp,16
  20              		.cfi_def_cfa 8, 0
  21              	.LBB4:
  11:src/KSemaphore.cpp **** {
  12:src/KSemaphore.cpp ****     this->val = this->beginVal = val;
  22              		.loc 1 12 5
  23              		.loc 1 12 32 is_stmt 0
  24 000c 232AB500 		sw	a1,20(a0)
  25              		.loc 1 12 15
  26 0010 2328B500 		sw	a1,16(a0)
  13:src/KSemaphore.cpp ****     headBlocked = tailBlocked = 0;
  27              		.loc 1 13 5 is_stmt 1
  28              		.loc 1 13 31 is_stmt 0
  29 0014 23340500 		sd	zero,8(a0)
  30              		.loc 1 13 17
  31 0018 23300500 		sd	zero,0(a0)
  32              	.LBE4:
  14:src/KSemaphore.cpp **** }
  33              		.loc 1 14 1
  34 001c 03348100 		ld	s0,8(sp)
  35              		.cfi_restore 8
  36              		.cfi_def_cfa 2, 16
  37 0020 13010101 		addi	sp,sp,16
  38              		.cfi_def_cfa_offset 0
  39 0024 67800000 		jr	ra
  40              		.cfi_endproc
  41              	.LFE26:
  43              		.globl	_ZN10KSemaphoreC1Ei
  44              		.set	_ZN10KSemaphoreC1Ei,_ZN10KSemaphoreC2Ei
  45              		.align	2
GAS LISTING /tmp/cc3F21sq.s 			page 2


  46              		.globl	_ZN10KSemaphore12addToBlockedEP3PCB
  48              	_ZN10KSemaphore12addToBlockedEP3PCB:
  49              	.LFB34:
  15:src/KSemaphore.cpp **** 
  16:src/KSemaphore.cpp **** uint64 KSemaphore::wait()
  17:src/KSemaphore.cpp **** {
  18:src/KSemaphore.cpp ****     PCB::running->retFromClosedSem = false;
  19:src/KSemaphore.cpp ****     if(--val < 0)
  20:src/KSemaphore.cpp ****         block();
  21:src/KSemaphore.cpp **** 
  22:src/KSemaphore.cpp ****     return 0;
  23:src/KSemaphore.cpp **** }
  24:src/KSemaphore.cpp **** 
  25:src/KSemaphore.cpp **** uint64 KSemaphore::signal() {
  26:src/KSemaphore.cpp ****     if(++val <= 0)
  27:src/KSemaphore.cpp ****         unblock();
  28:src/KSemaphore.cpp **** 
  29:src/KSemaphore.cpp ****     return 0;
  30:src/KSemaphore.cpp **** }
  31:src/KSemaphore.cpp **** 
  32:src/KSemaphore.cpp **** void KSemaphore::semOpenHandler()
  33:src/KSemaphore.cpp **** {
  34:src/KSemaphore.cpp ****     uint64 val;
  35:src/KSemaphore.cpp ****     KSemaphore** semaphoreHandle;
  36:src/KSemaphore.cpp ****     __asm__ volatile("mv %0, a1" : "=r"(semaphoreHandle));
  37:src/KSemaphore.cpp ****     __asm__ volatile("mv %0, a2" : "=r"(val));
  38:src/KSemaphore.cpp **** 
  39:src/KSemaphore.cpp ****     KSemaphore* newSem = new KSemaphore(val);
  40:src/KSemaphore.cpp **** 
  41:src/KSemaphore.cpp ****     (*semaphoreHandle) = newSem;
  42:src/KSemaphore.cpp **** 
  43:src/KSemaphore.cpp ****     if(newSem == 0)
  44:src/KSemaphore.cpp ****             __asm__ volatile("li a0, 0xffffffffffffffff");
  45:src/KSemaphore.cpp ****     else
  46:src/KSemaphore.cpp ****             __asm__ volatile("li a0, 0");
  47:src/KSemaphore.cpp ****     Riscv::w_a0_sscratch();
  48:src/KSemaphore.cpp **** }
  49:src/KSemaphore.cpp **** 
  50:src/KSemaphore.cpp **** KSemaphore::~KSemaphore()
  51:src/KSemaphore.cpp **** {
  52:src/KSemaphore.cpp ****     while(getFirstBlocked() != 0)
  53:src/KSemaphore.cpp ****     {
  54:src/KSemaphore.cpp ****         PCB* pcb = getFirstBlocked();
  55:src/KSemaphore.cpp ****         removeFirstBlocked();
  56:src/KSemaphore.cpp ****         pcb->retFromClosedSem = true;
  57:src/KSemaphore.cpp ****         Scheduler::put(pcb);
  58:src/KSemaphore.cpp ****     }
  59:src/KSemaphore.cpp **** }
  60:src/KSemaphore.cpp **** 
  61:src/KSemaphore.cpp **** void KSemaphore::addToBlocked(PCB* pcb)
  62:src/KSemaphore.cpp **** {
  50              		.loc 1 62 1 is_stmt 1
  51              		.cfi_startproc
  52              	.LVL1:
  53 0028 130101FF 		addi	sp,sp,-16
  54              		.cfi_def_cfa_offset 16
  55 002c 23348100 		sd	s0,8(sp)
GAS LISTING /tmp/cc3F21sq.s 			page 3


  56              		.cfi_offset 8, -8
  57 0030 13040101 		addi	s0,sp,16
  58              		.cfi_def_cfa 8, 0
  63:src/KSemaphore.cpp ****     pcb->nextPCB = 0;
  59              		.loc 1 63 5
  60              		.loc 1 63 18 is_stmt 0
  61 0034 23B40500 		sd	zero,8(a1)
  64:src/KSemaphore.cpp ****     if(headBlocked == 0)
  62              		.loc 1 64 5 is_stmt 1
  63              		.loc 1 64 8 is_stmt 0
  64 0038 83370500 		ld	a5,0(a0)
  65              		.loc 1 64 5
  66 003c 638E0700 		beqz	a5,.L7
  65:src/KSemaphore.cpp ****     {
  66:src/KSemaphore.cpp ****         headBlocked = tailBlocked = pcb;
  67:src/KSemaphore.cpp ****     }
  68:src/KSemaphore.cpp ****     else
  69:src/KSemaphore.cpp ****     {
  70:src/KSemaphore.cpp ****         tailBlocked->nextPCB = pcb;
  67              		.loc 1 70 9 is_stmt 1
  68 0040 83378500 		ld	a5,8(a0)
  69              		.loc 1 70 30 is_stmt 0
  70 0044 23B4B700 		sd	a1,8(a5)
  71:src/KSemaphore.cpp ****         tailBlocked = pcb;
  71              		.loc 1 71 9 is_stmt 1
  72              		.loc 1 71 21 is_stmt 0
  73 0048 2334B500 		sd	a1,8(a0)
  74              	.L3:
  72:src/KSemaphore.cpp ****     }
  73:src/KSemaphore.cpp **** }
  75              		.loc 1 73 1
  76 004c 03348100 		ld	s0,8(sp)
  77              		.cfi_remember_state
  78              		.cfi_restore 8
  79              		.cfi_def_cfa 2, 16
  80 0050 13010101 		addi	sp,sp,16
  81              		.cfi_def_cfa_offset 0
  82 0054 67800000 		jr	ra
  83              	.L7:
  84              		.cfi_restore_state
  66:src/KSemaphore.cpp ****     }
  85              		.loc 1 66 9 is_stmt 1
  66:src/KSemaphore.cpp ****     }
  86              		.loc 1 66 35 is_stmt 0
  87 0058 2334B500 		sd	a1,8(a0)
  66:src/KSemaphore.cpp ****     }
  88              		.loc 1 66 21
  89 005c 2330B500 		sd	a1,0(a0)
  90 0060 6FF0DFFE 		j	.L3
  91              		.cfi_endproc
  92              	.LFE34:
  94              		.align	2
  95              		.globl	_ZN10KSemaphore5blockEv
  97              	_ZN10KSemaphore5blockEv:
  98              	.LFB35:
  74:src/KSemaphore.cpp **** 
  75:src/KSemaphore.cpp **** void KSemaphore::block()
GAS LISTING /tmp/cc3F21sq.s 			page 4


  76:src/KSemaphore.cpp **** {
  99              		.loc 1 76 1 is_stmt 1
 100              		.cfi_startproc
 101              	.LVL2:
 102 0064 130101FF 		addi	sp,sp,-16
 103              		.cfi_def_cfa_offset 16
 104 0068 23341100 		sd	ra,8(sp)
 105 006c 23308100 		sd	s0,0(sp)
 106              		.cfi_offset 1, -8
 107              		.cfi_offset 8, -16
 108 0070 13040101 		addi	s0,sp,16
 109              		.cfi_def_cfa 8, 0
  77:src/KSemaphore.cpp ****     PCB::running->setState(PCB::SUSPENDED);
 110              		.loc 1 77 5
 111              		.loc 1 77 27 is_stmt 0
 112 0074 97070000 		la	a5,_ZN3PCB7runningE
 112      83B70700 
 113 007c 83B50700 		ld	a1,0(a5)
 114              	.LVL3:
 115              	.LBB5:
 116              	.LBB6:
 117              		.file 2 "src/../h/PCB.hpp"
   1:src/../h/PCB.hpp **** //
   2:src/../h/PCB.hpp **** // Created by os on 4/27/22.
   3:src/../h/PCB.hpp **** //
   4:src/../h/PCB.hpp **** 
   5:src/../h/PCB.hpp **** #ifndef PROJECT_BASE_V1_0_PCB_HPP
   6:src/../h/PCB.hpp **** #define PROJECT_BASE_V1_0_PCB_HPP
   7:src/../h/PCB.hpp **** 
   8:src/../h/PCB.hpp **** #include "../lib/hw.h"
   9:src/../h/PCB.hpp **** 
  10:src/../h/PCB.hpp **** class PCB
  11:src/../h/PCB.hpp **** {
  12:src/../h/PCB.hpp **** private:
  13:src/../h/PCB.hpp ****     static uint64 savedRegA4;
  14:src/../h/PCB.hpp **** 
  15:src/../h/PCB.hpp ****     using Body = void (*)(void*);
  16:src/../h/PCB.hpp **** 
  17:src/../h/PCB.hpp ****     PCB(Body body,  void* args, void* stack_space, uint64 timeSlice);
  18:src/../h/PCB.hpp ****     ~PCB();
  19:src/../h/PCB.hpp **** 
  20:src/../h/PCB.hpp ****     void start();
  21:src/../h/PCB.hpp ****     static void dispatch();
  22:src/../h/PCB.hpp ****     static void sleep(time_t);
  23:src/../h/PCB.hpp **** 
  24:src/../h/PCB.hpp ****     static PCB* running;
  25:src/../h/PCB.hpp **** 
  26:src/../h/PCB.hpp ****     static uint64 timeSliceCounter;
  27:src/../h/PCB.hpp ****     uint64 getTimeSlice() { return timeSlice;}
  28:src/../h/PCB.hpp **** 
  29:src/../h/PCB.hpp ****     void* operator new(size_t size);
  30:src/../h/PCB.hpp ****     void operator delete(void *p);
  31:src/../h/PCB.hpp **** 
  32:src/../h/PCB.hpp ****     enum State{READY, RUNNING, SUSPENDED, FINISHED, EXITING, SLEEPING};
  33:src/../h/PCB.hpp ****     State getState() {return state;}
  34:src/../h/PCB.hpp ****     void setState(State s) {state = s;}
 118              		.loc 2 34 29 is_stmt 1
GAS LISTING /tmp/cc3F21sq.s 			page 5


 119              		.loc 2 34 35 is_stmt 0
 120 0080 93072000 		li	a5,2
 121 0084 23A0F504 		sw	a5,64(a1)
 122              	.LVL4:
 123              	.LBE6:
 124              	.LBE5:
  78:src/KSemaphore.cpp ****     addToBlocked(PCB::running);
 125              		.loc 1 78 5 is_stmt 1
 126              		.loc 1 78 17 is_stmt 0
 127 0088 97000000 		call	_ZN10KSemaphore12addToBlockedEP3PCB
 127      E7800000 
 128              	.LVL5:
  79:src/KSemaphore.cpp ****     PCB::dispatch();
 129              		.loc 1 79 5 is_stmt 1
 130              		.loc 1 79 18 is_stmt 0
 131 0090 97000000 		call	_ZN3PCB8dispatchEv@plt
 131      E7800000 
 132              	.LVL6:
  80:src/KSemaphore.cpp **** }
 133              		.loc 1 80 1
 134 0098 83308100 		ld	ra,8(sp)
 135              		.cfi_restore 1
 136 009c 03340100 		ld	s0,0(sp)
 137              		.cfi_restore 8
 138              		.cfi_def_cfa 2, 16
 139 00a0 13010101 		addi	sp,sp,16
 140              		.cfi_def_cfa_offset 0
 141 00a4 67800000 		jr	ra
 142              		.cfi_endproc
 143              	.LFE35:
 145              		.align	2
 146              		.globl	_ZN10KSemaphore4waitEv
 148              	_ZN10KSemaphore4waitEv:
 149              	.LFB28:
  17:src/KSemaphore.cpp ****     PCB::running->retFromClosedSem = false;
 150              		.loc 1 17 1 is_stmt 1
 151              		.cfi_startproc
 152              	.LVL7:
  18:src/KSemaphore.cpp ****     if(--val < 0)
 153              		.loc 1 18 5
  18:src/KSemaphore.cpp ****     if(--val < 0)
 154              		.loc 1 18 19 is_stmt 0
 155 00a8 97070000 		la	a5,_ZN3PCB7runningE
 155      83B70700 
 156 00b0 83B70700 		ld	a5,0(a5)
  18:src/KSemaphore.cpp ****     if(--val < 0)
 157              		.loc 1 18 36
 158 00b4 238C0704 		sb	zero,88(a5)
  19:src/KSemaphore.cpp ****         block();
 159              		.loc 1 19 5 is_stmt 1
  19:src/KSemaphore.cpp ****         block();
 160              		.loc 1 19 10 is_stmt 0
 161 00b8 83270501 		lw	a5,16(a0)
  19:src/KSemaphore.cpp ****         block();
 162              		.loc 1 19 8
 163 00bc 9B87F7FF 		addiw	a5,a5,-1
  19:src/KSemaphore.cpp ****         block();
GAS LISTING /tmp/cc3F21sq.s 			page 6


 164              		.loc 1 19 14
 165 00c0 2328F500 		sw	a5,16(a0)
  19:src/KSemaphore.cpp ****         block();
 166              		.loc 1 19 5
 167 00c4 13970702 		slli	a4,a5,32
 168 00c8 63460700 		bltz	a4,.L16
  22:src/KSemaphore.cpp **** }
 169              		.loc 1 22 5 is_stmt 1
  23:src/KSemaphore.cpp **** 
 170              		.loc 1 23 1 is_stmt 0
 171 00cc 13050000 		li	a0,0
 172              	.LVL8:
 173 00d0 67800000 		ret
 174              	.LVL9:
 175              	.L16:
  17:src/KSemaphore.cpp ****     PCB::running->retFromClosedSem = false;
 176              		.loc 1 17 1
 177 00d4 130101FF 		addi	sp,sp,-16
 178              		.cfi_def_cfa_offset 16
 179 00d8 23341100 		sd	ra,8(sp)
 180 00dc 23308100 		sd	s0,0(sp)
 181              		.cfi_offset 1, -8
 182              		.cfi_offset 8, -16
 183 00e0 13040101 		addi	s0,sp,16
 184              		.cfi_def_cfa 8, 0
  20:src/KSemaphore.cpp **** 
 185              		.loc 1 20 9 is_stmt 1
  20:src/KSemaphore.cpp **** 
 186              		.loc 1 20 14 is_stmt 0
 187 00e4 97000000 		call	_ZN10KSemaphore5blockEv
 187      E7800000 
 188              	.LVL10:
  22:src/KSemaphore.cpp **** }
 189              		.loc 1 22 5 is_stmt 1
  23:src/KSemaphore.cpp **** 
 190              		.loc 1 23 1 is_stmt 0
 191 00ec 13050000 		li	a0,0
 192 00f0 83308100 		ld	ra,8(sp)
 193              		.cfi_restore 1
 194 00f4 03340100 		ld	s0,0(sp)
 195              		.cfi_restore 8
 196              		.cfi_def_cfa 2, 16
 197 00f8 13010101 		addi	sp,sp,16
 198              		.cfi_def_cfa_offset 0
 199 00fc 67800000 		jr	ra
 200              		.cfi_endproc
 201              	.LFE28:
 203              		.align	2
 204              		.globl	_ZN10KSemaphore15getFirstBlockedEv
 206              	_ZN10KSemaphore15getFirstBlockedEv:
 207              	.LFB36:
  81:src/KSemaphore.cpp **** 
  82:src/KSemaphore.cpp **** PCB* KSemaphore::getFirstBlocked()
  83:src/KSemaphore.cpp **** {
 208              		.loc 1 83 1 is_stmt 1
 209              		.cfi_startproc
 210              	.LVL11:
GAS LISTING /tmp/cc3F21sq.s 			page 7


 211 0100 130101FF 		addi	sp,sp,-16
 212              		.cfi_def_cfa_offset 16
 213 0104 23348100 		sd	s0,8(sp)
 214              		.cfi_offset 8, -8
 215 0108 13040101 		addi	s0,sp,16
 216              		.cfi_def_cfa 8, 0
  84:src/KSemaphore.cpp ****    return headBlocked;
 217              		.loc 1 84 4
  85:src/KSemaphore.cpp **** }
 218              		.loc 1 85 1 is_stmt 0
 219 010c 03350500 		ld	a0,0(a0)
 220              	.LVL12:
 221 0110 03348100 		ld	s0,8(sp)
 222              		.cfi_restore 8
 223              		.cfi_def_cfa 2, 16
 224 0114 13010101 		addi	sp,sp,16
 225              		.cfi_def_cfa_offset 0
 226 0118 67800000 		jr	ra
 227              		.cfi_endproc
 228              	.LFE36:
 230              		.align	2
 231              		.globl	_ZN10KSemaphore18removeFirstBlockedEv
 233              	_ZN10KSemaphore18removeFirstBlockedEv:
 234              	.LFB37:
  86:src/KSemaphore.cpp **** 
  87:src/KSemaphore.cpp **** void KSemaphore::removeFirstBlocked()
  88:src/KSemaphore.cpp **** {
 235              		.loc 1 88 1 is_stmt 1
 236              		.cfi_startproc
 237              	.LVL13:
 238 011c 130101FF 		addi	sp,sp,-16
 239              		.cfi_def_cfa_offset 16
 240 0120 23348100 		sd	s0,8(sp)
 241              		.cfi_offset 8, -8
 242 0124 13040101 		addi	s0,sp,16
 243              		.cfi_def_cfa 8, 0
  89:src/KSemaphore.cpp ****     if(headBlocked == 0)
 244              		.loc 1 89 5
 245              		.loc 1 89 8 is_stmt 0
 246 0128 83370500 		ld	a5,0(a0)
 247              		.loc 1 89 5
 248 012c 638C0700 		beqz	a5,.L19
  90:src/KSemaphore.cpp ****         return;
  91:src/KSemaphore.cpp ****     PCB* first = headBlocked;
 249              		.loc 1 91 5 is_stmt 1
 250              	.LVL14:
  92:src/KSemaphore.cpp ****     headBlocked = headBlocked->nextPCB;
 251              		.loc 1 92 5
 252              		.loc 1 92 32 is_stmt 0
 253 0130 03B78700 		ld	a4,8(a5)
 254              		.loc 1 92 17
 255 0134 2330E500 		sd	a4,0(a0)
  93:src/KSemaphore.cpp ****     first->nextPCB = 0;
 256              		.loc 1 93 5 is_stmt 1
 257              		.loc 1 93 20 is_stmt 0
 258 0138 23B40700 		sd	zero,8(a5)
  94:src/KSemaphore.cpp ****     if(headBlocked == 0)
GAS LISTING /tmp/cc3F21sq.s 			page 8


 259              		.loc 1 94 5 is_stmt 1
 260              		.loc 1 94 8 is_stmt 0
 261 013c 83370500 		ld	a5,0(a0)
 262              	.LVL15:
 263              		.loc 1 94 5
 264 0140 63880700 		beqz	a5,.L22
 265              	.L19:
  95:src/KSemaphore.cpp ****         tailBlocked =0;
  96:src/KSemaphore.cpp **** }
 266              		.loc 1 96 1
 267 0144 03348100 		ld	s0,8(sp)
 268              		.cfi_remember_state
 269              		.cfi_restore 8
 270              		.cfi_def_cfa 2, 16
 271 0148 13010101 		addi	sp,sp,16
 272              		.cfi_def_cfa_offset 0
 273 014c 67800000 		jr	ra
 274              	.L22:
 275              		.cfi_restore_state
  95:src/KSemaphore.cpp ****         tailBlocked =0;
 276              		.loc 1 95 9 is_stmt 1
  95:src/KSemaphore.cpp ****         tailBlocked =0;
 277              		.loc 1 95 21 is_stmt 0
 278 0150 23340500 		sd	zero,8(a0)
 279 0154 6FF01FFF 		j	.L19
 280              		.cfi_endproc
 281              	.LFE37:
 283              		.align	2
 284              		.globl	_ZN10KSemaphoreD2Ev
 286              	_ZN10KSemaphoreD2Ev:
 287              	.LFB32:
  50:src/KSemaphore.cpp **** {
 288              		.loc 1 50 1 is_stmt 1
 289              		.cfi_startproc
 290              		.cfi_personality 0x9b,DW.ref.__gxx_personality_v0
 291              		.cfi_lsda 0x1b,.LLSDA32
 292              	.LVL16:
 293 0158 130101FE 		addi	sp,sp,-32
 294              		.cfi_def_cfa_offset 32
 295 015c 233C1100 		sd	ra,24(sp)
 296 0160 23388100 		sd	s0,16(sp)
 297 0164 23349100 		sd	s1,8(sp)
 298 0168 23302101 		sd	s2,0(sp)
 299              		.cfi_offset 1, -8
 300              		.cfi_offset 8, -16
 301              		.cfi_offset 9, -24
 302              		.cfi_offset 18, -32
 303 016c 13040102 		addi	s0,sp,32
 304              		.cfi_def_cfa 8, 0
 305 0170 13090500 		mv	s2,a0
 306              	.LVL17:
 307              	.L25:
 308              	.LBB7:
  52:src/KSemaphore.cpp ****     {
 309              		.loc 1 52 5
  52:src/KSemaphore.cpp ****     {
 310              		.loc 1 52 29
GAS LISTING /tmp/cc3F21sq.s 			page 9


  52:src/KSemaphore.cpp ****     {
 311              		.loc 1 52 26 is_stmt 0
 312 0174 13050900 		mv	a0,s2
 313 0178 97000000 		call	_ZN10KSemaphore15getFirstBlockedEv
 313      E7800000 
 314              	.LVL18:
 315 0180 93040500 		mv	s1,a0
  52:src/KSemaphore.cpp ****     {
 316              		.loc 1 52 29
 317 0184 63040502 		beqz	a0,.L23
 318              	.LBB8:
  54:src/KSemaphore.cpp ****         removeFirstBlocked();
 319              		.loc 1 54 9 is_stmt 1
 320              	.LVL19:
  55:src/KSemaphore.cpp ****         pcb->retFromClosedSem = true;
 321              		.loc 1 55 9
  55:src/KSemaphore.cpp ****         pcb->retFromClosedSem = true;
 322              		.loc 1 55 27 is_stmt 0
 323 0188 13050900 		mv	a0,s2
 324 018c 97000000 		call	_ZN10KSemaphore18removeFirstBlockedEv
 324      E7800000 
 325              	.LVL20:
  56:src/KSemaphore.cpp ****         Scheduler::put(pcb);
 326              		.loc 1 56 9 is_stmt 1
  56:src/KSemaphore.cpp ****         Scheduler::put(pcb);
 327              		.loc 1 56 31 is_stmt 0
 328 0194 93071000 		li	a5,1
 329 0198 238CF404 		sb	a5,88(s1)
  57:src/KSemaphore.cpp ****     }
 330              		.loc 1 57 9 is_stmt 1
  57:src/KSemaphore.cpp ****     }
 331              		.loc 1 57 23 is_stmt 0
 332 019c 13850400 		mv	a0,s1
 333 01a0 97000000 		call	_ZN9Scheduler3putEP3PCB@plt
 333      E7800000 
 334              	.LVL21:
 335              	.LBE8:
  52:src/KSemaphore.cpp ****     {
 336              		.loc 1 52 5
 337 01a8 6FF0DFFC 		j	.L25
 338              	.LVL22:
 339              	.L23:
 340              	.LBE7:
  59:src/KSemaphore.cpp **** 
 341              		.loc 1 59 1
 342 01ac 83308101 		ld	ra,24(sp)
 343              		.cfi_restore 1
 344 01b0 03340101 		ld	s0,16(sp)
 345              		.cfi_restore 8
 346              		.cfi_def_cfa 2, 32
 347 01b4 83348100 		ld	s1,8(sp)
 348              		.cfi_restore 9
 349 01b8 03390100 		ld	s2,0(sp)
 350              		.cfi_restore 18
 351              	.LVL23:
 352 01bc 13010102 		addi	sp,sp,32
 353              		.cfi_def_cfa_offset 0
GAS LISTING /tmp/cc3F21sq.s 			page 10


 354 01c0 67800000 		jr	ra
 355              		.cfi_endproc
 356              	.LFE32:
 357              		.globl	__gxx_personality_v0
 358              		.section	.gcc_except_table,"a",@progbits
 359              	.LLSDA32:
 360 0000 FF       		.byte	0xff
 361 0001 FF       		.byte	0xff
 362 0002 03       		.byte	0x3
 363 0003 00       		.byte	0
 364              		.text
 366              		.globl	_ZN10KSemaphoreD1Ev
 367              		.set	_ZN10KSemaphoreD1Ev,_ZN10KSemaphoreD2Ev
 368              		.align	2
 369              		.globl	_ZN10KSemaphore7unblockEv
 371              	_ZN10KSemaphore7unblockEv:
 372              	.LFB38:
  97:src/KSemaphore.cpp **** 
  98:src/KSemaphore.cpp **** void KSemaphore::unblock() {
 373              		.loc 1 98 28 is_stmt 1
 374              		.cfi_startproc
 375              	.LVL24:
 376 01c4 130101FE 		addi	sp,sp,-32
 377              		.cfi_def_cfa_offset 32
 378 01c8 233C1100 		sd	ra,24(sp)
 379 01cc 23388100 		sd	s0,16(sp)
 380 01d0 23349100 		sd	s1,8(sp)
 381 01d4 23302101 		sd	s2,0(sp)
 382              		.cfi_offset 1, -8
 383              		.cfi_offset 8, -16
 384              		.cfi_offset 9, -24
 385              		.cfi_offset 18, -32
 386 01d8 13040102 		addi	s0,sp,32
 387              		.cfi_def_cfa 8, 0
 388 01dc 13090500 		mv	s2,a0
  99:src/KSemaphore.cpp ****     PCB* fr = getFirstBlocked();
 389              		.loc 1 99 5
 390              		.loc 1 99 30 is_stmt 0
 391 01e0 97000000 		call	_ZN10KSemaphore15getFirstBlockedEv
 391      E7800000 
 392              	.LVL25:
 393 01e8 93040500 		mv	s1,a0
 394              	.LVL26:
 100:src/KSemaphore.cpp ****     removeFirstBlocked();
 395              		.loc 1 100 5 is_stmt 1
 396              		.loc 1 100 23 is_stmt 0
 397 01ec 13050900 		mv	a0,s2
 398 01f0 97000000 		call	_ZN10KSemaphore18removeFirstBlockedEv
 398      E7800000 
 399              	.LVL27:
 101:src/KSemaphore.cpp ****     if(fr != 0)
 400              		.loc 1 101 5 is_stmt 1
 401 01f8 63880400 		beqz	s1,.L27
 102:src/KSemaphore.cpp ****     {
 103:src/KSemaphore.cpp ****         Scheduler::put(fr);
 402              		.loc 1 103 9
 403              		.loc 1 103 23 is_stmt 0
GAS LISTING /tmp/cc3F21sq.s 			page 11


 404 01fc 13850400 		mv	a0,s1
 405 0200 97000000 		call	_ZN9Scheduler3putEP3PCB@plt
 405      E7800000 
 406              	.LVL28:
 407              	.L27:
 104:src/KSemaphore.cpp ****     }
 105:src/KSemaphore.cpp **** }
 408              		.loc 1 105 1
 409 0208 83308101 		ld	ra,24(sp)
 410              		.cfi_restore 1
 411 020c 03340101 		ld	s0,16(sp)
 412              		.cfi_restore 8
 413              		.cfi_def_cfa 2, 32
 414 0210 83348100 		ld	s1,8(sp)
 415              		.cfi_restore 9
 416              	.LVL29:
 417 0214 03390100 		ld	s2,0(sp)
 418              		.cfi_restore 18
 419              	.LVL30:
 420 0218 13010102 		addi	sp,sp,32
 421              		.cfi_def_cfa_offset 0
 422 021c 67800000 		jr	ra
 423              		.cfi_endproc
 424              	.LFE38:
 426              		.align	2
 427              		.globl	_ZN10KSemaphore6signalEv
 429              	_ZN10KSemaphore6signalEv:
 430              	.LFB29:
  25:src/KSemaphore.cpp ****     if(++val <= 0)
 431              		.loc 1 25 29 is_stmt 1
 432              		.cfi_startproc
 433              	.LVL31:
  26:src/KSemaphore.cpp ****         unblock();
 434              		.loc 1 26 5
  26:src/KSemaphore.cpp ****         unblock();
 435              		.loc 1 26 10 is_stmt 0
 436 0220 83270501 		lw	a5,16(a0)
  26:src/KSemaphore.cpp ****         unblock();
 437              		.loc 1 26 8
 438 0224 9B871700 		addiw	a5,a5,1
 439 0228 1B870700 		sext.w	a4,a5
  26:src/KSemaphore.cpp ****         unblock();
 440              		.loc 1 26 14
 441 022c 2328F500 		sw	a5,16(a0)
  26:src/KSemaphore.cpp ****         unblock();
 442              		.loc 1 26 5
 443 0230 6356E000 		blez	a4,.L36
  29:src/KSemaphore.cpp **** }
 444              		.loc 1 29 5 is_stmt 1
  30:src/KSemaphore.cpp **** 
 445              		.loc 1 30 1 is_stmt 0
 446 0234 13050000 		li	a0,0
 447              	.LVL32:
 448 0238 67800000 		ret
 449              	.LVL33:
 450              	.L36:
  25:src/KSemaphore.cpp ****     if(++val <= 0)
GAS LISTING /tmp/cc3F21sq.s 			page 12


 451              		.loc 1 25 29
 452 023c 130101FF 		addi	sp,sp,-16
 453              		.cfi_def_cfa_offset 16
 454 0240 23341100 		sd	ra,8(sp)
 455 0244 23308100 		sd	s0,0(sp)
 456              		.cfi_offset 1, -8
 457              		.cfi_offset 8, -16
 458 0248 13040101 		addi	s0,sp,16
 459              		.cfi_def_cfa 8, 0
  27:src/KSemaphore.cpp **** 
 460              		.loc 1 27 9 is_stmt 1
  27:src/KSemaphore.cpp **** 
 461              		.loc 1 27 16 is_stmt 0
 462 024c 97000000 		call	_ZN10KSemaphore7unblockEv
 462      E7800000 
 463              	.LVL34:
  29:src/KSemaphore.cpp **** }
 464              		.loc 1 29 5 is_stmt 1
  30:src/KSemaphore.cpp **** 
 465              		.loc 1 30 1 is_stmt 0
 466 0254 13050000 		li	a0,0
 467 0258 83308100 		ld	ra,8(sp)
 468              		.cfi_restore 1
 469 025c 03340100 		ld	s0,0(sp)
 470              		.cfi_restore 8
 471              		.cfi_def_cfa 2, 16
 472 0260 13010101 		addi	sp,sp,16
 473              		.cfi_def_cfa_offset 0
 474 0264 67800000 		jr	ra
 475              		.cfi_endproc
 476              	.LFE29:
 478              		.align	2
 479              		.globl	_ZN10KSemaphorenwEm
 481              	_ZN10KSemaphorenwEm:
 482              	.LFB39:
 106:src/KSemaphore.cpp **** void *KSemaphore::operator new(size_t size) {
 483              		.loc 1 106 45 is_stmt 1
 484              		.cfi_startproc
 485              	.LVL35:
 486 0268 130101FF 		addi	sp,sp,-16
 487              		.cfi_def_cfa_offset 16
 488 026c 23341100 		sd	ra,8(sp)
 489 0270 23308100 		sd	s0,0(sp)
 490              		.cfi_offset 1, -8
 491              		.cfi_offset 8, -16
 492 0274 13040101 		addi	s0,sp,16
 493              		.cfi_def_cfa 8, 0
 107:src/KSemaphore.cpp ****     return MemoryAllocator::kmalloc(size);
 494              		.loc 1 107 5
 495              		.loc 1 107 36 is_stmt 0
 496 0278 97000000 		call	_ZN15MemoryAllocator7kmallocEm@plt
 496      E7800000 
 497              	.LVL36:
 108:src/KSemaphore.cpp **** }
 498              		.loc 1 108 1
 499 0280 83308100 		ld	ra,8(sp)
 500              		.cfi_restore 1
GAS LISTING /tmp/cc3F21sq.s 			page 13


 501 0284 03340100 		ld	s0,0(sp)
 502              		.cfi_restore 8
 503              		.cfi_def_cfa 2, 16
 504 0288 13010101 		addi	sp,sp,16
 505              		.cfi_def_cfa_offset 0
 506 028c 67800000 		jr	ra
 507              		.cfi_endproc
 508              	.LFE39:
 510              		.align	2
 511              		.globl	_ZN10KSemaphore14semOpenHandlerEv
 513              	_ZN10KSemaphore14semOpenHandlerEv:
 514              	.LFB30:
  33:src/KSemaphore.cpp ****     uint64 val;
 515              		.loc 1 33 1 is_stmt 1
 516              		.cfi_startproc
 517 0290 130101FD 		addi	sp,sp,-48
 518              		.cfi_def_cfa_offset 48
 519 0294 23341102 		sd	ra,40(sp)
 520 0298 23308102 		sd	s0,32(sp)
 521 029c 233C9100 		sd	s1,24(sp)
 522 02a0 23382101 		sd	s2,16(sp)
 523 02a4 23343101 		sd	s3,8(sp)
 524              		.cfi_offset 1, -8
 525              		.cfi_offset 8, -16
 526              		.cfi_offset 9, -24
 527              		.cfi_offset 18, -32
 528              		.cfi_offset 19, -40
 529 02a8 13040103 		addi	s0,sp,48
 530              		.cfi_def_cfa 8, 0
  34:src/KSemaphore.cpp ****     KSemaphore** semaphoreHandle;
 531              		.loc 1 34 5
  35:src/KSemaphore.cpp ****     __asm__ volatile("mv %0, a1" : "=r"(semaphoreHandle));
 532              		.loc 1 35 5
  36:src/KSemaphore.cpp ****     __asm__ volatile("mv %0, a2" : "=r"(val));
 533              		.loc 1 36 5
  36:src/KSemaphore.cpp ****     __asm__ volatile("mv %0, a2" : "=r"(val));
 534              		.loc 1 36 58 is_stmt 0
 535              	#APP
 536              	# 36 "src/KSemaphore.cpp" 1
 537              		mv s2, a1
 538              	# 0 "" 2
 539              	.LVL37:
  37:src/KSemaphore.cpp **** 
 540              		.loc 1 37 5 is_stmt 1
  37:src/KSemaphore.cpp **** 
 541              		.loc 1 37 46 is_stmt 0
 542              	# 37 "src/KSemaphore.cpp" 1
 543              		mv s3, a2
 544              	# 0 "" 2
 545              	.LVL38:
  39:src/KSemaphore.cpp **** 
 546              		.loc 1 39 5 is_stmt 1
  39:src/KSemaphore.cpp **** 
 547              		.loc 1 39 44 is_stmt 0
 548              	#NO_APP
 549 02b4 13058001 		li	a0,24
 550 02b8 97000000 		call	_ZN10KSemaphorenwEm
GAS LISTING /tmp/cc3F21sq.s 			page 14


 550      E7800000 
 551              	.LVL39:
 552 02c0 93040500 		mv	s1,a0
 553 02c4 9B850900 		sext.w	a1,s3
 554 02c8 97000000 		call	_ZN10KSemaphoreC1Ei
 554      E7800000 
 555              	.LVL40:
  41:src/KSemaphore.cpp **** 
 556              		.loc 1 41 5 is_stmt 1
  41:src/KSemaphore.cpp **** 
 557              		.loc 1 41 24 is_stmt 0
 558 02d0 23309900 		sd	s1,0(s2)
  43:src/KSemaphore.cpp ****             __asm__ volatile("li a0, 0xffffffffffffffff");
 559              		.loc 1 43 5 is_stmt 1
 560 02d4 63860402 		beqz	s1,.L43
  46:src/KSemaphore.cpp ****     Riscv::w_a0_sscratch();
 561              		.loc 1 46 13
  46:src/KSemaphore.cpp ****     Riscv::w_a0_sscratch();
 562              		.loc 1 46 41 is_stmt 0
 563              	#APP
 564              	# 46 "src/KSemaphore.cpp" 1
 565              		li a0, 0
 566              	# 0 "" 2
 567              	#NO_APP
 568              	.L41:
  47:src/KSemaphore.cpp **** }
 569              		.loc 1 47 5 is_stmt 1
  47:src/KSemaphore.cpp **** }
 570              		.loc 1 47 25 is_stmt 0
 571 02dc 97000000 		call	_ZN5Riscv13w_a0_sscratchEv@plt
 571      E7800000 
 572              	.LVL41:
  48:src/KSemaphore.cpp **** 
 573              		.loc 1 48 1
 574 02e4 83308102 		ld	ra,40(sp)
 575              		.cfi_remember_state
 576              		.cfi_restore 1
 577 02e8 03340102 		ld	s0,32(sp)
 578              		.cfi_restore 8
 579              		.cfi_def_cfa 2, 48
 580 02ec 83348101 		ld	s1,24(sp)
 581              		.cfi_restore 9
 582              	.LVL42:
 583 02f0 03390101 		ld	s2,16(sp)
 584              		.cfi_restore 18
 585              	.LVL43:
 586 02f4 83398100 		ld	s3,8(sp)
 587              		.cfi_restore 19
 588              	.LVL44:
 589 02f8 13010103 		addi	sp,sp,48
 590              		.cfi_def_cfa_offset 0
 591 02fc 67800000 		jr	ra
 592              	.LVL45:
 593              	.L43:
 594              		.cfi_restore_state
  44:src/KSemaphore.cpp ****     else
 595              		.loc 1 44 13 is_stmt 1
GAS LISTING /tmp/cc3F21sq.s 			page 15


  44:src/KSemaphore.cpp ****     else
 596              		.loc 1 44 58 is_stmt 0
 597              	#APP
 598              	# 44 "src/KSemaphore.cpp" 1
 599              		li a0, 0xffffffffffffffff
 600              	# 0 "" 2
 601              	#NO_APP
 602 0304 6FF09FFD 		j	.L41
 603              		.cfi_endproc
 604              	.LFE30:
 606              		.align	2
 607              		.globl	_ZN10KSemaphoredlEPv
 609              	_ZN10KSemaphoredlEPv:
 610              	.LFB40:
 109:src/KSemaphore.cpp **** 
 110:src/KSemaphore.cpp **** void KSemaphore::operator delete(void *p)
 111:src/KSemaphore.cpp **** {
 611              		.loc 1 111 1 is_stmt 1
 612              		.cfi_startproc
 613              	.LVL46:
 614 0308 130101FF 		addi	sp,sp,-16
 615              		.cfi_def_cfa_offset 16
 616 030c 23341100 		sd	ra,8(sp)
 617 0310 23308100 		sd	s0,0(sp)
 618              		.cfi_offset 1, -8
 619              		.cfi_offset 8, -16
 620 0314 13040101 		addi	s0,sp,16
 621              		.cfi_def_cfa 8, 0
 112:src/KSemaphore.cpp ****     MemoryAllocator::kfree(p);
 622              		.loc 1 112 5
 623              		.loc 1 112 27 is_stmt 0
 624 0318 97000000 		call	_ZN15MemoryAllocator5kfreeEPv@plt
 624      E7800000 
 625              	.LVL47:
 113:src/KSemaphore.cpp **** }
 626              		.loc 1 113 1
 627 0320 83308100 		ld	ra,8(sp)
 628              		.cfi_restore 1
 629 0324 03340100 		ld	s0,0(sp)
 630              		.cfi_restore 8
 631              		.cfi_def_cfa 2, 16
 632 0328 13010101 		addi	sp,sp,16
 633              		.cfi_def_cfa_offset 0
 634 032c 67800000 		jr	ra
 635              		.cfi_endproc
 636              	.LFE40:
 638              		.align	2
 639              		.globl	_ZN10KSemaphore14semWaitHandlerEv
 641              	_ZN10KSemaphore14semWaitHandlerEv:
 642              	.LFB41:
 114:src/KSemaphore.cpp **** 
 115:src/KSemaphore.cpp **** void KSemaphore::semWaitHandler()
 116:src/KSemaphore.cpp **** {
 643              		.loc 1 116 1 is_stmt 1
 644              		.cfi_startproc
 645 0330 130101FF 		addi	sp,sp,-16
 646              		.cfi_def_cfa_offset 16
GAS LISTING /tmp/cc3F21sq.s 			page 16


 647 0334 23341100 		sd	ra,8(sp)
 648 0338 23308100 		sd	s0,0(sp)
 649              		.cfi_offset 1, -8
 650              		.cfi_offset 8, -16
 651 033c 13040101 		addi	s0,sp,16
 652              		.cfi_def_cfa 8, 0
 117:src/KSemaphore.cpp ****     KSemaphore* kSem;
 653              		.loc 1 117 5
 118:src/KSemaphore.cpp ****     __asm__ volatile("mv %0, a1" : "=r"(kSem));
 654              		.loc 1 118 5
 655              		.loc 1 118 47 is_stmt 0
 656              	#APP
 657              	# 118 "src/KSemaphore.cpp" 1
 119              	    kSem->wait();
 658              		mv a0, a1
 659              	# 0 "" 2
 660              	.LVL48:
 661              		.loc 1 119 5 is_stmt 1
 662              		.loc 1 119 15 is_stmt 0
 663              	#NO_APP
 664 0344 97000000 		call	_ZN10KSemaphore4waitEv
 664      E7800000 
 665              	.LVL49:
 120:src/KSemaphore.cpp ****     if(PCB::running->retFromClosedSem)
 666              		.loc 1 120 5 is_stmt 1
 667              		.loc 1 120 22 is_stmt 0
 668 034c 97070000 		la	a5,_ZN3PCB7runningE
 668      83B70700 
 669 0354 83B70700 		ld	a5,0(a5)
 670 0358 83C78705 		lbu	a5,88(a5)
 671              		.loc 1 120 5
 672 035c 63800702 		beqz	a5,.L47
 121:src/KSemaphore.cpp ****         __asm__ volatile("li a0, 0x1");
 673              		.loc 1 121 9 is_stmt 1
 674              		.loc 1 121 39 is_stmt 0
 675              	#APP
 676              	# 121 "src/KSemaphore.cpp" 1
 122              	    else
 677              		li a0, 0x1
 678              	# 0 "" 2
 679              	#NO_APP
 680              	.L48:
 123:src/KSemaphore.cpp ****         __asm__ volatile("li a0, 0x0");
 124:src/KSemaphore.cpp ****     Riscv::w_a0_sscratch();
 681              		.loc 1 124 5 is_stmt 1
 682              		.loc 1 124 25 is_stmt 0
 683 0364 97000000 		call	_ZN5Riscv13w_a0_sscratchEv@plt
 683      E7800000 
 684              	.LVL50:
 125:src/KSemaphore.cpp **** }
 685              		.loc 1 125 1
 686 036c 83308100 		ld	ra,8(sp)
 687              		.cfi_remember_state
 688              		.cfi_restore 1
 689 0370 03340100 		ld	s0,0(sp)
 690              		.cfi_restore 8
 691              		.cfi_def_cfa 2, 16
GAS LISTING /tmp/cc3F21sq.s 			page 17


 692 0374 13010101 		addi	sp,sp,16
 693              		.cfi_def_cfa_offset 0
 694 0378 67800000 		jr	ra
 695              	.L47:
 696              		.cfi_restore_state
 123:src/KSemaphore.cpp ****         __asm__ volatile("li a0, 0x0");
 697              		.loc 1 123 9 is_stmt 1
 123:src/KSemaphore.cpp ****         __asm__ volatile("li a0, 0x0");
 698              		.loc 1 123 39 is_stmt 0
 699              	#APP
 700              	# 123 "src/KSemaphore.cpp" 1
 701              		li a0, 0x0
 702              	# 0 "" 2
 703              	#NO_APP
 704 0380 6FF05FFE 		j	.L48
 705              		.cfi_endproc
 706              	.LFE41:
 708              		.align	2
 709              		.globl	_ZN10KSemaphore16semSignalHandlerEv
 711              	_ZN10KSemaphore16semSignalHandlerEv:
 712              	.LFB42:
 126:src/KSemaphore.cpp **** 
 127:src/KSemaphore.cpp **** void KSemaphore::semSignalHandler() {
 713              		.loc 1 127 37 is_stmt 1
 714              		.cfi_startproc
 715 0384 130101FF 		addi	sp,sp,-16
 716              		.cfi_def_cfa_offset 16
 717 0388 23341100 		sd	ra,8(sp)
 718 038c 23308100 		sd	s0,0(sp)
 719              		.cfi_offset 1, -8
 720              		.cfi_offset 8, -16
 721 0390 13040101 		addi	s0,sp,16
 722              		.cfi_def_cfa 8, 0
 128:src/KSemaphore.cpp ****     KSemaphore *kSem;
 723              		.loc 1 128 5
 129:src/KSemaphore.cpp ****     __asm__ volatile("mv %0, a1" : "=r"(kSem));
 724              		.loc 1 129 5
 725              		.loc 1 129 47 is_stmt 0
 726              	#APP
 727              	# 129 "src/KSemaphore.cpp" 1
 130              	    if (kSem == 0)
 728              		mv a0, a1
 729              	# 0 "" 2
 730              	.LVL51:
 731              		.loc 1 130 5 is_stmt 1
 732              	#NO_APP
 733 0398 63040502 		beqz	a0,.L54
 131:src/KSemaphore.cpp ****     {
 132:src/KSemaphore.cpp ****         __asm__ volatile("li a0, 0x1");
 133:src/KSemaphore.cpp ****     }
 134:src/KSemaphore.cpp ****     else
 135:src/KSemaphore.cpp ****     {
 136:src/KSemaphore.cpp ****         kSem->signal();
 734              		.loc 1 136 9
 735              		.loc 1 136 21 is_stmt 0
 736 039c 97000000 		call	_ZN10KSemaphore6signalEv
 736      E7800000 
GAS LISTING /tmp/cc3F21sq.s 			page 18


 737              	.LVL52:
 137:src/KSemaphore.cpp ****         __asm__ volatile("li a0, 0x0");
 738              		.loc 1 137 9 is_stmt 1
 739              		.loc 1 137 39 is_stmt 0
 740              	#APP
 741              	# 137 "src/KSemaphore.cpp" 1
 138              	    }
 742              		li a0, 0x0
 743              	# 0 "" 2
 744              	#NO_APP
 745              	.L52:
 139:src/KSemaphore.cpp ****     Riscv::w_a0_sscratch();
 746              		.loc 1 139 5 is_stmt 1
 747              		.loc 1 139 25 is_stmt 0
 748 03a8 97000000 		call	_ZN5Riscv13w_a0_sscratchEv@plt
 748      E7800000 
 749              	.LVL53:
 140:src/KSemaphore.cpp **** }
 750              		.loc 1 140 1
 751 03b0 83308100 		ld	ra,8(sp)
 752              		.cfi_remember_state
 753              		.cfi_restore 1
 754 03b4 03340100 		ld	s0,0(sp)
 755              		.cfi_restore 8
 756              		.cfi_def_cfa 2, 16
 757 03b8 13010101 		addi	sp,sp,16
 758              		.cfi_def_cfa_offset 0
 759 03bc 67800000 		jr	ra
 760              	.LVL54:
 761              	.L54:
 762              		.cfi_restore_state
 132:src/KSemaphore.cpp ****     }
 763              		.loc 1 132 9 is_stmt 1
 132:src/KSemaphore.cpp ****     }
 764              		.loc 1 132 39 is_stmt 0
 765              	#APP
 766              	# 132 "src/KSemaphore.cpp" 1
 767              		li a0, 0x1
 768              	# 0 "" 2
 769              	#NO_APP
 770 03c4 6FF05FFE 		j	.L52
 771              		.cfi_endproc
 772              	.LFE42:
 774              		.align	2
 775              		.globl	_ZN10KSemaphore15semCloseHandlerEv
 777              	_ZN10KSemaphore15semCloseHandlerEv:
 778              	.LFB43:
 141:src/KSemaphore.cpp **** 
 142:src/KSemaphore.cpp **** void KSemaphore::semCloseHandler()
 143:src/KSemaphore.cpp **** {
 779              		.loc 1 143 1 is_stmt 1
 780              		.cfi_startproc
 781 03c8 130101FE 		addi	sp,sp,-32
 782              		.cfi_def_cfa_offset 32
 783 03cc 233C1100 		sd	ra,24(sp)
 784 03d0 23388100 		sd	s0,16(sp)
 785 03d4 23349100 		sd	s1,8(sp)
GAS LISTING /tmp/cc3F21sq.s 			page 19


 786              		.cfi_offset 1, -8
 787              		.cfi_offset 8, -16
 788              		.cfi_offset 9, -24
 789 03d8 13040102 		addi	s0,sp,32
 790              		.cfi_def_cfa 8, 0
 144:src/KSemaphore.cpp ****     KSemaphore* kSem;
 791              		.loc 1 144 5
 145:src/KSemaphore.cpp ****     __asm__ volatile("mv %0, a1" : "=r"(kSem));
 792              		.loc 1 145 5
 793              		.loc 1 145 47 is_stmt 0
 794              	#APP
 795              	# 145 "src/KSemaphore.cpp" 1
 146              	    delete kSem;
 796              		mv s1, a1
 797              	# 0 "" 2
 798              	.LVL55:
 799              		.loc 1 146 5 is_stmt 1
 800              		.loc 1 146 16 is_stmt 0
 801              	#NO_APP
 802 03e0 638E0400 		beqz	s1,.L56
 803              		.loc 1 146 12 discriminator 1
 804 03e4 13850400 		mv	a0,s1
 805 03e8 97000000 		call	_ZN10KSemaphoreD1Ev
 805      E7800000 
 806              	.LVL56:
 807 03f0 13850400 		mv	a0,s1
 808 03f4 97000000 		call	_ZN10KSemaphoredlEPv
 808      E7800000 
 809              	.LVL57:
 810              	.L56:
 147:src/KSemaphore.cpp ****     __asm__ volatile("li a0, 0");
 811              		.loc 1 147 5 is_stmt 1
 812              		.loc 1 147 33 is_stmt 0
 813              	#APP
 814              	# 147 "src/KSemaphore.cpp" 1
 148              	    Riscv::w_a0_sscratch();
 815              		li a0, 0
 816              	# 0 "" 2
 817              		.loc 1 148 5 is_stmt 1
 818              		.loc 1 148 25 is_stmt 0
 819              	#NO_APP
 820 0400 97000000 		call	_ZN5Riscv13w_a0_sscratchEv@plt
 820      E7800000 
 821              	.LVL58:
 149:src/KSemaphore.cpp **** }
 822              		.loc 1 149 1
 823 0408 83308101 		ld	ra,24(sp)
 824              		.cfi_restore 1
 825 040c 03340101 		ld	s0,16(sp)
 826              		.cfi_restore 8
 827              		.cfi_def_cfa 2, 32
 828 0410 83348100 		ld	s1,8(sp)
 829              		.cfi_restore 9
 830              	.LVL59:
 831 0414 13010102 		addi	sp,sp,32
 832              		.cfi_def_cfa_offset 0
 833 0418 67800000 		jr	ra
GAS LISTING /tmp/cc3F21sq.s 			page 20


 834              		.cfi_endproc
 835              	.LFE43:
 837              	.Letext0:
 838              		.file 3 "src/../h/../lib/hw.h"
 839              		.file 4 "src/../h/KSemaphore.hpp"
 840              		.file 5 "src/../h/MemoryAllocator.hpp"
 841              		.file 6 "src/../h/Riscv.hpp"
 842              		.file 7 "src/../h/Scheduler.hpp"
 4683              		.align	3
 4686              	DW.ref.__gxx_personality_v0:
 4687 0000 00000000 		.dword	__gxx_personality_v0
 4687      00000000 
 4688              		.ident	"GCC: (Ubuntu 9.3.0-17ubuntu1~20.04) 9.3.0"
 4689              		.section	.note.GNU-stack,"",@progbits
GAS LISTING /tmp/cc3F21sq.s 			page 21


DEFINED SYMBOLS
                            *ABS*:0000000000000000 KSemaphore.cpp
     /tmp/cc3F21sq.s:9      .text:0000000000000000 _ZN10KSemaphoreC2Ei
     /tmp/cc3F21sq.s:13     .text:0000000000000000 .L0 
     /tmp/cc3F21sq.s:15     .text:0000000000000000 .L0 
     /tmp/cc3F21sq.s:16     .text:0000000000000004 .L0 
     /tmp/cc3F21sq.s:18     .text:0000000000000008 .L0 
     /tmp/cc3F21sq.s:20     .text:000000000000000c .L0 
     /tmp/cc3F21sq.s:23     .text:000000000000000c .L0 
     /tmp/cc3F21sq.s:24     .text:000000000000000c .L0 
     /tmp/cc3F21sq.s:26     .text:0000000000000010 .L0 
     /tmp/cc3F21sq.s:28     .text:0000000000000014 .L0 
     /tmp/cc3F21sq.s:29     .text:0000000000000014 .L0 
     /tmp/cc3F21sq.s:31     .text:0000000000000018 .L0 
     /tmp/cc3F21sq.s:34     .text:000000000000001c .L0 
     /tmp/cc3F21sq.s:35     .text:0000000000000020 .L0 
     /tmp/cc3F21sq.s:36     .text:0000000000000020 .L0 
     /tmp/cc3F21sq.s:38     .text:0000000000000024 .L0 
     /tmp/cc3F21sq.s:40     .text:0000000000000028 .L0 
     /tmp/cc3F21sq.s:9      .text:0000000000000000 _ZN10KSemaphoreC1Ei
     /tmp/cc3F21sq.s:48     .text:0000000000000028 _ZN10KSemaphore12addToBlockedEP3PCB
     /tmp/cc3F21sq.s:51     .text:0000000000000028 .L0 
     /tmp/cc3F21sq.s:53     .text:0000000000000028 .L0 
     /tmp/cc3F21sq.s:54     .text:000000000000002c .L0 
     /tmp/cc3F21sq.s:56     .text:0000000000000030 .L0 
     /tmp/cc3F21sq.s:58     .text:0000000000000034 .L0 
     /tmp/cc3F21sq.s:60     .text:0000000000000034 .L0 
     /tmp/cc3F21sq.s:61     .text:0000000000000034 .L0 
     /tmp/cc3F21sq.s:63     .text:0000000000000038 .L0 
     /tmp/cc3F21sq.s:64     .text:0000000000000038 .L0 
     /tmp/cc3F21sq.s:66     .text:000000000000003c .L0 
     /tmp/cc3F21sq.s:68     .text:0000000000000040 .L0 
     /tmp/cc3F21sq.s:70     .text:0000000000000044 .L0 
     /tmp/cc3F21sq.s:72     .text:0000000000000048 .L0 
     /tmp/cc3F21sq.s:73     .text:0000000000000048 .L0 
     /tmp/cc3F21sq.s:76     .text:000000000000004c .L0 
     /tmp/cc3F21sq.s:77     .text:0000000000000050 .L0 
     /tmp/cc3F21sq.s:78     .text:0000000000000050 .L0 
     /tmp/cc3F21sq.s:79     .text:0000000000000050 .L0 
     /tmp/cc3F21sq.s:81     .text:0000000000000054 .L0 
     /tmp/cc3F21sq.s:84     .text:0000000000000058 .L0 
     /tmp/cc3F21sq.s:86     .text:0000000000000058 .L0 
     /tmp/cc3F21sq.s:87     .text:0000000000000058 .L0 
     /tmp/cc3F21sq.s:89     .text:000000000000005c .L0 
     /tmp/cc3F21sq.s:91     .text:0000000000000064 .L0 
     /tmp/cc3F21sq.s:97     .text:0000000000000064 _ZN10KSemaphore5blockEv
     /tmp/cc3F21sq.s:100    .text:0000000000000064 .L0 
     /tmp/cc3F21sq.s:102    .text:0000000000000064 .L0 
     /tmp/cc3F21sq.s:103    .text:0000000000000068 .L0 
     /tmp/cc3F21sq.s:106    .text:0000000000000070 .L0 
     /tmp/cc3F21sq.s:107    .text:0000000000000070 .L0 
     /tmp/cc3F21sq.s:109    .text:0000000000000074 .L0 
     /tmp/cc3F21sq.s:111    .text:0000000000000074 .L0 
     /tmp/cc3F21sq.s:112    .text:0000000000000074 .L0 
     /tmp/cc3F21sq.s:119    .text:0000000000000080 .L0 
     /tmp/cc3F21sq.s:120    .text:0000000000000080 .L0 
     /tmp/cc3F21sq.s:126    .text:0000000000000088 .L0 
GAS LISTING /tmp/cc3F21sq.s 			page 22


     /tmp/cc3F21sq.s:127    .text:0000000000000088 .L0 
     /tmp/cc3F21sq.s:130    .text:0000000000000090 .L0 
     /tmp/cc3F21sq.s:131    .text:0000000000000090 .L0 
     /tmp/cc3F21sq.s:134    .text:0000000000000098 .L0 
     /tmp/cc3F21sq.s:135    .text:000000000000009c .L0 
     /tmp/cc3F21sq.s:137    .text:00000000000000a0 .L0 
     /tmp/cc3F21sq.s:138    .text:00000000000000a0 .L0 
     /tmp/cc3F21sq.s:140    .text:00000000000000a4 .L0 
     /tmp/cc3F21sq.s:142    .text:00000000000000a8 .L0 
     /tmp/cc3F21sq.s:148    .text:00000000000000a8 _ZN10KSemaphore4waitEv
     /tmp/cc3F21sq.s:151    .text:00000000000000a8 .L0 
     /tmp/cc3F21sq.s:153    .text:00000000000000a8 .L0 
     /tmp/cc3F21sq.s:154    .text:00000000000000a8 .L0 
     /tmp/cc3F21sq.s:155    .text:00000000000000a8 .L0 
     /tmp/cc3F21sq.s:158    .text:00000000000000b4 .L0 
     /tmp/cc3F21sq.s:160    .text:00000000000000b8 .L0 
     /tmp/cc3F21sq.s:161    .text:00000000000000b8 .L0 
     /tmp/cc3F21sq.s:163    .text:00000000000000bc .L0 
     /tmp/cc3F21sq.s:165    .text:00000000000000c0 .L0 
     /tmp/cc3F21sq.s:167    .text:00000000000000c4 .L0 
     /tmp/cc3F21sq.s:170    .text:00000000000000cc .L0 
     /tmp/cc3F21sq.s:171    .text:00000000000000cc .L0 
     /tmp/cc3F21sq.s:177    .text:00000000000000d4 .L0 
     /tmp/cc3F21sq.s:178    .text:00000000000000d8 .L0 
     /tmp/cc3F21sq.s:181    .text:00000000000000e0 .L0 
     /tmp/cc3F21sq.s:182    .text:00000000000000e0 .L0 
     /tmp/cc3F21sq.s:184    .text:00000000000000e4 .L0 
     /tmp/cc3F21sq.s:186    .text:00000000000000e4 .L0 
     /tmp/cc3F21sq.s:187    .text:00000000000000e4 .L0 
     /tmp/cc3F21sq.s:190    .text:00000000000000ec .L0 
     /tmp/cc3F21sq.s:191    .text:00000000000000ec .L0 
     /tmp/cc3F21sq.s:193    .text:00000000000000f4 .L0 
     /tmp/cc3F21sq.s:195    .text:00000000000000f8 .L0 
     /tmp/cc3F21sq.s:196    .text:00000000000000f8 .L0 
     /tmp/cc3F21sq.s:198    .text:00000000000000fc .L0 
     /tmp/cc3F21sq.s:200    .text:0000000000000100 .L0 
     /tmp/cc3F21sq.s:206    .text:0000000000000100 _ZN10KSemaphore15getFirstBlockedEv
     /tmp/cc3F21sq.s:209    .text:0000000000000100 .L0 
     /tmp/cc3F21sq.s:211    .text:0000000000000100 .L0 
     /tmp/cc3F21sq.s:212    .text:0000000000000104 .L0 
     /tmp/cc3F21sq.s:214    .text:0000000000000108 .L0 
     /tmp/cc3F21sq.s:216    .text:000000000000010c .L0 
     /tmp/cc3F21sq.s:218    .text:000000000000010c .L0 
     /tmp/cc3F21sq.s:219    .text:000000000000010c .L0 
     /tmp/cc3F21sq.s:222    .text:0000000000000114 .L0 
     /tmp/cc3F21sq.s:223    .text:0000000000000114 .L0 
     /tmp/cc3F21sq.s:225    .text:0000000000000118 .L0 
     /tmp/cc3F21sq.s:227    .text:000000000000011c .L0 
     /tmp/cc3F21sq.s:233    .text:000000000000011c _ZN10KSemaphore18removeFirstBlockedEv
     /tmp/cc3F21sq.s:236    .text:000000000000011c .L0 
     /tmp/cc3F21sq.s:238    .text:000000000000011c .L0 
     /tmp/cc3F21sq.s:239    .text:0000000000000120 .L0 
     /tmp/cc3F21sq.s:241    .text:0000000000000124 .L0 
     /tmp/cc3F21sq.s:243    .text:0000000000000128 .L0 
     /tmp/cc3F21sq.s:245    .text:0000000000000128 .L0 
     /tmp/cc3F21sq.s:246    .text:0000000000000128 .L0 
     /tmp/cc3F21sq.s:248    .text:000000000000012c .L0 
GAS LISTING /tmp/cc3F21sq.s 			page 23


     /tmp/cc3F21sq.s:251    .text:0000000000000130 .L0 
     /tmp/cc3F21sq.s:252    .text:0000000000000130 .L0 
     /tmp/cc3F21sq.s:253    .text:0000000000000130 .L0 
     /tmp/cc3F21sq.s:255    .text:0000000000000134 .L0 
     /tmp/cc3F21sq.s:257    .text:0000000000000138 .L0 
     /tmp/cc3F21sq.s:258    .text:0000000000000138 .L0 
     /tmp/cc3F21sq.s:260    .text:000000000000013c .L0 
     /tmp/cc3F21sq.s:261    .text:000000000000013c .L0 
     /tmp/cc3F21sq.s:264    .text:0000000000000140 .L0 
     /tmp/cc3F21sq.s:267    .text:0000000000000144 .L0 
     /tmp/cc3F21sq.s:268    .text:0000000000000148 .L0 
     /tmp/cc3F21sq.s:269    .text:0000000000000148 .L0 
     /tmp/cc3F21sq.s:270    .text:0000000000000148 .L0 
     /tmp/cc3F21sq.s:272    .text:000000000000014c .L0 
     /tmp/cc3F21sq.s:275    .text:0000000000000150 .L0 
     /tmp/cc3F21sq.s:277    .text:0000000000000150 .L0 
     /tmp/cc3F21sq.s:278    .text:0000000000000150 .L0 
     /tmp/cc3F21sq.s:280    .text:0000000000000158 .L0 
     /tmp/cc3F21sq.s:286    .text:0000000000000158 _ZN10KSemaphoreD2Ev
     /tmp/cc3F21sq.s:289    .text:0000000000000158 .L0 
     /tmp/cc3F21sq.s:4686   .data.rel.local.DW.ref.__gxx_personality_v0:0000000000000000 DW.ref.__gxx_personality_v0
     /tmp/cc3F21sq.s:293    .text:0000000000000158 .L0 
     /tmp/cc3F21sq.s:294    .text:000000000000015c .L0 
     /tmp/cc3F21sq.s:299    .text:000000000000016c .L0 
     /tmp/cc3F21sq.s:300    .text:000000000000016c .L0 
     /tmp/cc3F21sq.s:301    .text:000000000000016c .L0 
     /tmp/cc3F21sq.s:302    .text:000000000000016c .L0 
     /tmp/cc3F21sq.s:304    .text:0000000000000170 .L0 
     /tmp/cc3F21sq.s:310    .text:0000000000000174 .L0 
     /tmp/cc3F21sq.s:311    .text:0000000000000174 .L0 
     /tmp/cc3F21sq.s:312    .text:0000000000000174 .L0 
     /tmp/cc3F21sq.s:317    .text:0000000000000184 .L0 
     /tmp/cc3F21sq.s:321    .text:0000000000000188 .L0 
     /tmp/cc3F21sq.s:322    .text:0000000000000188 .L0 
     /tmp/cc3F21sq.s:323    .text:0000000000000188 .L0 
     /tmp/cc3F21sq.s:327    .text:0000000000000194 .L0 
     /tmp/cc3F21sq.s:328    .text:0000000000000194 .L0 
     /tmp/cc3F21sq.s:331    .text:000000000000019c .L0 
     /tmp/cc3F21sq.s:332    .text:000000000000019c .L0 
     /tmp/cc3F21sq.s:337    .text:00000000000001a8 .L0 
     /tmp/cc3F21sq.s:342    .text:00000000000001ac .L0 
     /tmp/cc3F21sq.s:343    .text:00000000000001b0 .L0 
     /tmp/cc3F21sq.s:345    .text:00000000000001b4 .L0 
     /tmp/cc3F21sq.s:346    .text:00000000000001b4 .L0 
     /tmp/cc3F21sq.s:348    .text:00000000000001b8 .L0 
     /tmp/cc3F21sq.s:350    .text:00000000000001bc .L0 
     /tmp/cc3F21sq.s:353    .text:00000000000001c0 .L0 
     /tmp/cc3F21sq.s:355    .text:00000000000001c4 .L0 
     /tmp/cc3F21sq.s:286    .text:0000000000000158 _ZN10KSemaphoreD1Ev
     /tmp/cc3F21sq.s:371    .text:00000000000001c4 _ZN10KSemaphore7unblockEv
     /tmp/cc3F21sq.s:374    .text:00000000000001c4 .L0 
     /tmp/cc3F21sq.s:376    .text:00000000000001c4 .L0 
     /tmp/cc3F21sq.s:377    .text:00000000000001c8 .L0 
     /tmp/cc3F21sq.s:382    .text:00000000000001d8 .L0 
     /tmp/cc3F21sq.s:383    .text:00000000000001d8 .L0 
     /tmp/cc3F21sq.s:384    .text:00000000000001d8 .L0 
     /tmp/cc3F21sq.s:385    .text:00000000000001d8 .L0 
GAS LISTING /tmp/cc3F21sq.s 			page 24


     /tmp/cc3F21sq.s:387    .text:00000000000001dc .L0 
     /tmp/cc3F21sq.s:390    .text:00000000000001e0 .L0 
     /tmp/cc3F21sq.s:391    .text:00000000000001e0 .L0 
     /tmp/cc3F21sq.s:396    .text:00000000000001ec .L0 
     /tmp/cc3F21sq.s:397    .text:00000000000001ec .L0 
     /tmp/cc3F21sq.s:401    .text:00000000000001f8 .L0 
     /tmp/cc3F21sq.s:403    .text:00000000000001fc .L0 
     /tmp/cc3F21sq.s:404    .text:00000000000001fc .L0 
     /tmp/cc3F21sq.s:409    .text:0000000000000208 .L0 
     /tmp/cc3F21sq.s:410    .text:000000000000020c .L0 
     /tmp/cc3F21sq.s:412    .text:0000000000000210 .L0 
     /tmp/cc3F21sq.s:413    .text:0000000000000210 .L0 
     /tmp/cc3F21sq.s:415    .text:0000000000000214 .L0 
     /tmp/cc3F21sq.s:418    .text:0000000000000218 .L0 
     /tmp/cc3F21sq.s:421    .text:000000000000021c .L0 
     /tmp/cc3F21sq.s:423    .text:0000000000000220 .L0 
     /tmp/cc3F21sq.s:429    .text:0000000000000220 _ZN10KSemaphore6signalEv
     /tmp/cc3F21sq.s:432    .text:0000000000000220 .L0 
     /tmp/cc3F21sq.s:434    .text:0000000000000220 .L0 
     /tmp/cc3F21sq.s:435    .text:0000000000000220 .L0 
     /tmp/cc3F21sq.s:436    .text:0000000000000220 .L0 
     /tmp/cc3F21sq.s:438    .text:0000000000000224 .L0 
     /tmp/cc3F21sq.s:441    .text:000000000000022c .L0 
     /tmp/cc3F21sq.s:443    .text:0000000000000230 .L0 
     /tmp/cc3F21sq.s:445    .text:0000000000000234 .L0 
     /tmp/cc3F21sq.s:446    .text:0000000000000234 .L0 
     /tmp/cc3F21sq.s:452    .text:000000000000023c .L0 
     /tmp/cc3F21sq.s:453    .text:0000000000000240 .L0 
     /tmp/cc3F21sq.s:456    .text:0000000000000248 .L0 
     /tmp/cc3F21sq.s:457    .text:0000000000000248 .L0 
     /tmp/cc3F21sq.s:459    .text:000000000000024c .L0 
     /tmp/cc3F21sq.s:461    .text:000000000000024c .L0 
     /tmp/cc3F21sq.s:462    .text:000000000000024c .L0 
     /tmp/cc3F21sq.s:465    .text:0000000000000254 .L0 
     /tmp/cc3F21sq.s:466    .text:0000000000000254 .L0 
     /tmp/cc3F21sq.s:468    .text:000000000000025c .L0 
     /tmp/cc3F21sq.s:470    .text:0000000000000260 .L0 
     /tmp/cc3F21sq.s:471    .text:0000000000000260 .L0 
     /tmp/cc3F21sq.s:473    .text:0000000000000264 .L0 
     /tmp/cc3F21sq.s:475    .text:0000000000000268 .L0 
     /tmp/cc3F21sq.s:481    .text:0000000000000268 _ZN10KSemaphorenwEm
     /tmp/cc3F21sq.s:484    .text:0000000000000268 .L0 
     /tmp/cc3F21sq.s:486    .text:0000000000000268 .L0 
     /tmp/cc3F21sq.s:487    .text:000000000000026c .L0 
     /tmp/cc3F21sq.s:490    .text:0000000000000274 .L0 
     /tmp/cc3F21sq.s:491    .text:0000000000000274 .L0 
     /tmp/cc3F21sq.s:493    .text:0000000000000278 .L0 
     /tmp/cc3F21sq.s:495    .text:0000000000000278 .L0 
     /tmp/cc3F21sq.s:496    .text:0000000000000278 .L0 
     /tmp/cc3F21sq.s:499    .text:0000000000000280 .L0 
     /tmp/cc3F21sq.s:500    .text:0000000000000284 .L0 
     /tmp/cc3F21sq.s:502    .text:0000000000000288 .L0 
     /tmp/cc3F21sq.s:503    .text:0000000000000288 .L0 
     /tmp/cc3F21sq.s:505    .text:000000000000028c .L0 
     /tmp/cc3F21sq.s:507    .text:0000000000000290 .L0 
     /tmp/cc3F21sq.s:513    .text:0000000000000290 _ZN10KSemaphore14semOpenHandlerEv
     /tmp/cc3F21sq.s:516    .text:0000000000000290 .L0 
GAS LISTING /tmp/cc3F21sq.s 			page 25


     /tmp/cc3F21sq.s:517    .text:0000000000000290 .L0 
     /tmp/cc3F21sq.s:518    .text:0000000000000294 .L0 
     /tmp/cc3F21sq.s:524    .text:00000000000002a8 .L0 
     /tmp/cc3F21sq.s:525    .text:00000000000002a8 .L0 
     /tmp/cc3F21sq.s:526    .text:00000000000002a8 .L0 
     /tmp/cc3F21sq.s:527    .text:00000000000002a8 .L0 
     /tmp/cc3F21sq.s:528    .text:00000000000002a8 .L0 
     /tmp/cc3F21sq.s:530    .text:00000000000002ac .L0 
     /tmp/cc3F21sq.s:532    .text:00000000000002ac .L0 
     /tmp/cc3F21sq.s:533    .text:00000000000002ac .L0 
     /tmp/cc3F21sq.s:534    .text:00000000000002ac .L0 
  src/KSemaphore.cpp:36     .text:00000000000002ac .L0 
     /tmp/cc3F21sq.s:541    .text:00000000000002b0 .L0 
  src/KSemaphore.cpp:37     .text:00000000000002b0 .L0 
     /tmp/cc3F21sq.s:547    .text:00000000000002b4 .L0 
     /tmp/cc3F21sq.s:549    .text:00000000000002b4 .L0 
     /tmp/cc3F21sq.s:557    .text:00000000000002d0 .L0 
     /tmp/cc3F21sq.s:558    .text:00000000000002d0 .L0 
     /tmp/cc3F21sq.s:560    .text:00000000000002d4 .L0 
     /tmp/cc3F21sq.s:562    .text:00000000000002d8 .L0 
  src/KSemaphore.cpp:46     .text:00000000000002d8 .L0 
     /tmp/cc3F21sq.s:570    .text:00000000000002dc .L0 
     /tmp/cc3F21sq.s:571    .text:00000000000002dc .L0 
     /tmp/cc3F21sq.s:574    .text:00000000000002e4 .L0 
     /tmp/cc3F21sq.s:575    .text:00000000000002e8 .L0 
     /tmp/cc3F21sq.s:576    .text:00000000000002e8 .L0 
     /tmp/cc3F21sq.s:578    .text:00000000000002ec .L0 
     /tmp/cc3F21sq.s:579    .text:00000000000002ec .L0 
     /tmp/cc3F21sq.s:581    .text:00000000000002f0 .L0 
     /tmp/cc3F21sq.s:584    .text:00000000000002f4 .L0 
     /tmp/cc3F21sq.s:587    .text:00000000000002f8 .L0 
     /tmp/cc3F21sq.s:590    .text:00000000000002fc .L0 
     /tmp/cc3F21sq.s:594    .text:0000000000000300 .L0 
     /tmp/cc3F21sq.s:596    .text:0000000000000300 .L0 
  src/KSemaphore.cpp:44     .text:0000000000000300 .L0 
     /tmp/cc3F21sq.s:603    .text:0000000000000308 .L0 
     /tmp/cc3F21sq.s:609    .text:0000000000000308 _ZN10KSemaphoredlEPv
     /tmp/cc3F21sq.s:612    .text:0000000000000308 .L0 
     /tmp/cc3F21sq.s:614    .text:0000000000000308 .L0 
     /tmp/cc3F21sq.s:615    .text:000000000000030c .L0 
     /tmp/cc3F21sq.s:618    .text:0000000000000314 .L0 
     /tmp/cc3F21sq.s:619    .text:0000000000000314 .L0 
     /tmp/cc3F21sq.s:621    .text:0000000000000318 .L0 
     /tmp/cc3F21sq.s:623    .text:0000000000000318 .L0 
     /tmp/cc3F21sq.s:624    .text:0000000000000318 .L0 
     /tmp/cc3F21sq.s:627    .text:0000000000000320 .L0 
     /tmp/cc3F21sq.s:628    .text:0000000000000324 .L0 
     /tmp/cc3F21sq.s:630    .text:0000000000000328 .L0 
     /tmp/cc3F21sq.s:631    .text:0000000000000328 .L0 
     /tmp/cc3F21sq.s:633    .text:000000000000032c .L0 
     /tmp/cc3F21sq.s:635    .text:0000000000000330 .L0 
     /tmp/cc3F21sq.s:641    .text:0000000000000330 _ZN10KSemaphore14semWaitHandlerEv
     /tmp/cc3F21sq.s:644    .text:0000000000000330 .L0 
     /tmp/cc3F21sq.s:645    .text:0000000000000330 .L0 
     /tmp/cc3F21sq.s:646    .text:0000000000000334 .L0 
     /tmp/cc3F21sq.s:649    .text:000000000000033c .L0 
     /tmp/cc3F21sq.s:650    .text:000000000000033c .L0 
GAS LISTING /tmp/cc3F21sq.s 			page 26


     /tmp/cc3F21sq.s:652    .text:0000000000000340 .L0 
     /tmp/cc3F21sq.s:654    .text:0000000000000340 .L0 
     /tmp/cc3F21sq.s:655    .text:0000000000000340 .L0 
  src/KSemaphore.cpp:118    .text:0000000000000340 .L0 
     /tmp/cc3F21sq.s:662    .text:0000000000000344 .L0 
     /tmp/cc3F21sq.s:664    .text:0000000000000344 .L0 
     /tmp/cc3F21sq.s:667    .text:000000000000034c .L0 
     /tmp/cc3F21sq.s:668    .text:000000000000034c .L0 
     /tmp/cc3F21sq.s:672    .text:000000000000035c .L0 
     /tmp/cc3F21sq.s:674    .text:0000000000000360 .L0 
  src/KSemaphore.cpp:121    .text:0000000000000360 .L0 
     /tmp/cc3F21sq.s:682    .text:0000000000000364 .L0 
     /tmp/cc3F21sq.s:683    .text:0000000000000364 .L0 
     /tmp/cc3F21sq.s:686    .text:000000000000036c .L0 
     /tmp/cc3F21sq.s:687    .text:0000000000000370 .L0 
     /tmp/cc3F21sq.s:688    .text:0000000000000370 .L0 
     /tmp/cc3F21sq.s:690    .text:0000000000000374 .L0 
     /tmp/cc3F21sq.s:691    .text:0000000000000374 .L0 
     /tmp/cc3F21sq.s:693    .text:0000000000000378 .L0 
     /tmp/cc3F21sq.s:696    .text:000000000000037c .L0 
     /tmp/cc3F21sq.s:698    .text:000000000000037c .L0 
  src/KSemaphore.cpp:123    .text:000000000000037c .L0 
     /tmp/cc3F21sq.s:705    .text:0000000000000384 .L0 
     /tmp/cc3F21sq.s:711    .text:0000000000000384 _ZN10KSemaphore16semSignalHandlerEv
     /tmp/cc3F21sq.s:714    .text:0000000000000384 .L0 
     /tmp/cc3F21sq.s:715    .text:0000000000000384 .L0 
     /tmp/cc3F21sq.s:716    .text:0000000000000388 .L0 
     /tmp/cc3F21sq.s:719    .text:0000000000000390 .L0 
     /tmp/cc3F21sq.s:720    .text:0000000000000390 .L0 
     /tmp/cc3F21sq.s:722    .text:0000000000000394 .L0 
     /tmp/cc3F21sq.s:724    .text:0000000000000394 .L0 
     /tmp/cc3F21sq.s:725    .text:0000000000000394 .L0 
  src/KSemaphore.cpp:129    .text:0000000000000394 .L0 
     /tmp/cc3F21sq.s:733    .text:0000000000000398 .L0 
     /tmp/cc3F21sq.s:735    .text:000000000000039c .L0 
     /tmp/cc3F21sq.s:736    .text:000000000000039c .L0 
     /tmp/cc3F21sq.s:739    .text:00000000000003a4 .L0 
  src/KSemaphore.cpp:137    .text:00000000000003a4 .L0 
     /tmp/cc3F21sq.s:747    .text:00000000000003a8 .L0 
     /tmp/cc3F21sq.s:748    .text:00000000000003a8 .L0 
     /tmp/cc3F21sq.s:751    .text:00000000000003b0 .L0 
     /tmp/cc3F21sq.s:752    .text:00000000000003b4 .L0 
     /tmp/cc3F21sq.s:753    .text:00000000000003b4 .L0 
     /tmp/cc3F21sq.s:755    .text:00000000000003b8 .L0 
     /tmp/cc3F21sq.s:756    .text:00000000000003b8 .L0 
     /tmp/cc3F21sq.s:758    .text:00000000000003bc .L0 
     /tmp/cc3F21sq.s:762    .text:00000000000003c0 .L0 
     /tmp/cc3F21sq.s:764    .text:00000000000003c0 .L0 
  src/KSemaphore.cpp:132    .text:00000000000003c0 .L0 
     /tmp/cc3F21sq.s:771    .text:00000000000003c8 .L0 
     /tmp/cc3F21sq.s:777    .text:00000000000003c8 _ZN10KSemaphore15semCloseHandlerEv
     /tmp/cc3F21sq.s:780    .text:00000000000003c8 .L0 
     /tmp/cc3F21sq.s:781    .text:00000000000003c8 .L0 
     /tmp/cc3F21sq.s:782    .text:00000000000003cc .L0 
     /tmp/cc3F21sq.s:786    .text:00000000000003d8 .L0 
     /tmp/cc3F21sq.s:787    .text:00000000000003d8 .L0 
     /tmp/cc3F21sq.s:788    .text:00000000000003d8 .L0 
GAS LISTING /tmp/cc3F21sq.s 			page 27


     /tmp/cc3F21sq.s:790    .text:00000000000003dc .L0 
     /tmp/cc3F21sq.s:792    .text:00000000000003dc .L0 
     /tmp/cc3F21sq.s:793    .text:00000000000003dc .L0 
  src/KSemaphore.cpp:145    .text:00000000000003dc .L0 
     /tmp/cc3F21sq.s:800    .text:00000000000003e0 .L0 
     /tmp/cc3F21sq.s:802    .text:00000000000003e0 .L0 
     /tmp/cc3F21sq.s:804    .text:00000000000003e4 .L0 
     /tmp/cc3F21sq.s:812    .text:00000000000003fc .L0 
  src/KSemaphore.cpp:147    .text:00000000000003fc .L0 
     /tmp/cc3F21sq.s:818    .text:0000000000000400 .L0 
     /tmp/cc3F21sq.s:820    .text:0000000000000400 .L0 
     /tmp/cc3F21sq.s:823    .text:0000000000000408 .L0 
     /tmp/cc3F21sq.s:824    .text:000000000000040c .L0 
     /tmp/cc3F21sq.s:826    .text:0000000000000410 .L0 
     /tmp/cc3F21sq.s:827    .text:0000000000000410 .L0 
     /tmp/cc3F21sq.s:829    .text:0000000000000414 .L0 
     /tmp/cc3F21sq.s:832    .text:0000000000000418 .L0 
     /tmp/cc3F21sq.s:834    .text:000000000000041c .L0 
     /tmp/cc3F21sq.s:843    .text:000000000000041c .L0 
     /tmp/cc3F21sq.s:112    .text:0000000000000074 .L0 
     /tmp/cc3F21sq.s:155    .text:00000000000000a8 .L0 
     /tmp/cc3F21sq.s:668    .text:000000000000034c .L0 
     /tmp/cc3F21sq.s:83     .text:0000000000000058 .L7
     /tmp/cc3F21sq.s:74     .text:000000000000004c .L3
     /tmp/cc3F21sq.s:175    .text:00000000000000d4 .L16
     /tmp/cc3F21sq.s:265    .text:0000000000000144 .L19
     /tmp/cc3F21sq.s:274    .text:0000000000000150 .L22
     /tmp/cc3F21sq.s:339    .text:00000000000001ac .L23
     /tmp/cc3F21sq.s:307    .text:0000000000000174 .L25
     /tmp/cc3F21sq.s:407    .text:0000000000000208 .L27
     /tmp/cc3F21sq.s:450    .text:000000000000023c .L36
     /tmp/cc3F21sq.s:593    .text:0000000000000300 .L43
     /tmp/cc3F21sq.s:568    .text:00000000000002dc .L41
     /tmp/cc3F21sq.s:695    .text:000000000000037c .L47
     /tmp/cc3F21sq.s:680    .text:0000000000000364 .L48
     /tmp/cc3F21sq.s:761    .text:00000000000003c0 .L54
     /tmp/cc3F21sq.s:745    .text:00000000000003a8 .L52
     /tmp/cc3F21sq.s:810    .text:00000000000003fc .L56
     /tmp/cc3F21sq.s:2859   .debug_abbrev:0000000000000000 .Ldebug_abbrev0
     /tmp/cc3F21sq.s:4550   .debug_str:0000000000000dfb .LASF265
     /tmp/cc3F21sq.s:4332   .debug_str:0000000000000655 .LASF266
     /tmp/cc3F21sq.s:4290   .debug_str:00000000000004e7 .LASF267
     /tmp/cc3F21sq.s:5      .text:0000000000000000 .Ltext0
     /tmp/cc3F21sq.s:837    .text:000000000000041c .Letext0
     /tmp/cc3F21sq.s:4134   .debug_line:0000000000000000 .Ldebug_line0
     /tmp/cc3F21sq.s:4322   .debug_str:000000000000060f .LASF0
     /tmp/cc3F21sq.s:4358   .debug_str:0000000000000738 .LASF1
     /tmp/cc3F21sq.s:4488   .debug_str:0000000000000bfa .LASF2
     /tmp/cc3F21sq.s:4502   .debug_str:0000000000000c75 .LASF4
     /tmp/cc3F21sq.s:4340   .debug_str:000000000000069a .LASF3
     /tmp/cc3F21sq.s:4160   .debug_str:00000000000000f0 .LASF5
     /tmp/cc3F21sq.s:4456   .debug_str:0000000000000ad6 .LASF6
     /tmp/cc3F21sq.s:4446   .debug_str:0000000000000a7c .LASF7
     /tmp/cc3F21sq.s:4350   .debug_str:00000000000006f3 .LASF8
     /tmp/cc3F21sq.s:4286   .debug_str:00000000000004c0 .LASF9
     /tmp/cc3F21sq.s:4296   .debug_str:0000000000000535 .LASF10
     /tmp/cc3F21sq.s:4208   .debug_str:0000000000000286 .LASF11
GAS LISTING /tmp/cc3F21sq.s 			page 28


     /tmp/cc3F21sq.s:4272   .debug_str:0000000000000472 .LASF12
     /tmp/cc3F21sq.s:4222   .debug_str:00000000000002c6 .LASF13
     /tmp/cc3F21sq.s:4206   .debug_str:0000000000000276 .LASF14
     /tmp/cc3F21sq.s:4556   .debug_str:0000000000000ee8 .LASF15
     /tmp/cc3F21sq.s:4264   .debug_str:000000000000042b .LASF16
     /tmp/cc3F21sq.s:4538   .debug_str:0000000000000d7a .LASF17
     /tmp/cc3F21sq.s:4572   .debug_str:0000000000000f47 .LASF268
     /tmp/cc3F21sq.s:4566   .debug_str:0000000000000f21 .LASF18
     /tmp/cc3F21sq.s:4526   .debug_str:0000000000000d2f .LASF19
     /tmp/cc3F21sq.s:4216   .debug_str:00000000000002ac .LASF20
     /tmp/cc3F21sq.s:4190   .debug_str:00000000000001e4 .LASF21
     /tmp/cc3F21sq.s:4450   .debug_str:0000000000000aa5 .LASF22
     /tmp/cc3F21sq.s:4214   .debug_str:00000000000002a3 .LASF23
     /tmp/cc3F21sq.s:4562   .debug_str:0000000000000f0e .LASF93
     /tmp/cc3F21sq.s:4306   .debug_str:00000000000005b9 .LASF24
     /tmp/cc3F21sq.s:4164   .debug_str:0000000000000102 .LASF30
     /tmp/cc3F21sq.s:4594   .debug_str:0000000000000fcf .LASF269
     /tmp/cc3F21sq.s:4432   .debug_str:0000000000000a0f .LASF25
     /tmp/cc3F21sq.s:4356   .debug_str:0000000000000733 .LASF26
     /tmp/cc3F21sq.s:4662   .debug_str:0000000000001240 .LASF28
     /tmp/cc3F21sq.s:4656   .debug_str:0000000000001210 .LASF27
     /tmp/cc3F21sq.s:4580   .debug_str:0000000000000f75 .LASF29
     /tmp/cc3F21sq.s:4246   .debug_str:00000000000003a1 .LASF57
     /tmp/cc3F21sq.s:4174   .debug_str:000000000000015e .LASF59
     /tmp/cc3F21sq.s:4364   .debug_str:0000000000000762 .LASF35
     /tmp/cc3F21sq.s:4436   .debug_str:0000000000000a27 .LASF37
     /tmp/cc3F21sq.s:4576   .debug_str:0000000000000f65 .LASF31
     /tmp/cc3F21sq.s:4516   .debug_str:0000000000000cd5 .LASF32
     /tmp/cc3F21sq.s:4368   .debug_str:000000000000077b .LASF39
     /tmp/cc3F21sq.s:4374   .debug_str:00000000000007b2 .LASF41
     /tmp/cc3F21sq.s:4668   .debug_str:0000000000001274 .LASF33
     /tmp/cc3F21sq.s:4268   .debug_str:0000000000000451 .LASF34
     /tmp/cc3F21sq.s:4148   .debug_str:0000000000000063 .LASF36
     /tmp/cc3F21sq.s:4336   .debug_str:000000000000067a .LASF38
     /tmp/cc3F21sq.s:4520   .debug_str:0000000000000cf7 .LASF40
     /tmp/cc3F21sq.s:4404   .debug_str:00000000000008df .LASF42
     /tmp/cc3F21sq.s:4498   .debug_str:0000000000000c46 .LASF43
     /tmp/cc3F21sq.s:4548   .debug_str:0000000000000ddf .LASF44
     /tmp/cc3F21sq.s:4406   .debug_str:00000000000008f2 .LASF45
     /tmp/cc3F21sq.s:4142   .debug_str:000000000000002c .LASF46
     /tmp/cc3F21sq.s:4644   .debug_str:000000000000119f .LASF47
     /tmp/cc3F21sq.s:4442   .debug_str:0000000000000a5b .LASF48
     /tmp/cc3F21sq.s:4536   .debug_str:0000000000000d6c .LASF49
     /tmp/cc3F21sq.s:4458   .debug_str:0000000000000add .LASF50
     /tmp/cc3F21sq.s:4240   .debug_str:000000000000036c .LASF51
     /tmp/cc3F21sq.s:4274   .debug_str:0000000000000481 .LASF52
     /tmp/cc3F21sq.s:4482   .debug_str:0000000000000bcd .LASF53
     /tmp/cc3F21sq.s:4382   .debug_str:000000000000080f .LASF54
     /tmp/cc3F21sq.s:4650   .debug_str:00000000000011d3 .LASF55
     /tmp/cc3F21sq.s:4342   .debug_str:00000000000006ac .LASF56
     /tmp/cc3F21sq.s:4532   .debug_str:0000000000000d5a .LASF58
     /tmp/cc3F21sq.s:4660   .debug_str:000000000000122a .LASF60
     /tmp/cc3F21sq.s:4564   .debug_str:0000000000000f16 .LASF61
     /tmp/cc3F21sq.s:4234   .debug_str:000000000000034b .LASF62
     /tmp/cc3F21sq.s:4512   .debug_str:0000000000000cbf .LASF63
     /tmp/cc3F21sq.s:4324   .debug_str:000000000000061c .LASF64
     /tmp/cc3F21sq.s:4416   .debug_str:0000000000000946 .LASF65
GAS LISTING /tmp/cc3F21sq.s 			page 29


     /tmp/cc3F21sq.s:4228   .debug_str:0000000000000315 .LASF66
     /tmp/cc3F21sq.s:4464   .debug_str:0000000000000b27 .LASF67
     /tmp/cc3F21sq.s:4678   .debug_str:00000000000012c4 .LASF68
     /tmp/cc3F21sq.s:4420   .debug_str:000000000000096c .LASF69
     /tmp/cc3F21sq.s:4496   .debug_str:0000000000000c33 .LASF70
     /tmp/cc3F21sq.s:4522   .debug_str:0000000000000d00 .LASF71
     /tmp/cc3F21sq.s:4608   .debug_str:0000000000001046 .LASF72
     /tmp/cc3F21sq.s:4394   .debug_str:000000000000087e .LASF73
     /tmp/cc3F21sq.s:4598   .debug_str:0000000000000ff9 .LASF74
     /tmp/cc3F21sq.s:4546   .debug_str:0000000000000dbf .LASF75
     /tmp/cc3F21sq.s:4438   .debug_str:0000000000000a37 .LASF76
     /tmp/cc3F21sq.s:4422   .debug_str:000000000000098d .LASF77
     /tmp/cc3F21sq.s:4254   .debug_str:00000000000003c7 .LASF78
     /tmp/cc3F21sq.s:4326   .debug_str:0000000000000630 .LASF79
     /tmp/cc3F21sq.s:4396   .debug_str:000000000000089c .LASF80
     /tmp/cc3F21sq.s:4584   .debug_str:0000000000000f99 .LASF81
     /tmp/cc3F21sq.s:4278   .debug_str:000000000000049a .LASF82
     /tmp/cc3F21sq.s:4654   .debug_str:0000000000001202 .LASF83
     /tmp/cc3F21sq.s:4180   .debug_str:000000000000017f .LASF84
     /tmp/cc3F21sq.s:4270   .debug_str:000000000000045d .LASF85
     /tmp/cc3F21sq.s:4198   .debug_str:0000000000000212 .LASF86
     /tmp/cc3F21sq.s:4642   .debug_str:0000000000001198 .LASF87
     /tmp/cc3F21sq.s:4194   .debug_str:00000000000001f3 .LASF88
     /tmp/cc3F21sq.s:4146   .debug_str:000000000000005e .LASF89
     /tmp/cc3F21sq.s:4606   .debug_str:0000000000001041 .LASF90
     /tmp/cc3F21sq.s:4380   .debug_str:0000000000000807 .LASF91
     /tmp/cc3F21sq.s:4252   .debug_str:00000000000003c1 .LASF92
     /tmp/cc3F21sq.s:4592   .debug_str:0000000000000fc7 .LASF94
     /tmp/cc3F21sq.s:4182   .debug_str:00000000000001a7 .LASF95
     /tmp/cc3F21sq.s:4384   .debug_str:000000000000081e .LASF96
     /tmp/cc3F21sq.s:4472   .debug_str:0000000000000b7f .LASF97
     /tmp/cc3F21sq.s:4292   .debug_str:0000000000000505 .LASF98
     /tmp/cc3F21sq.s:4490   .debug_str:0000000000000c08 .LASF99
     /tmp/cc3F21sq.s:4470   .debug_str:0000000000000b6b .LASF100
     /tmp/cc3F21sq.s:4248   .debug_str:00000000000003aa .LASF101
     /tmp/cc3F21sq.s:4530   .debug_str:0000000000000d43 .LASF102
     /tmp/cc3F21sq.s:4560   .debug_str:0000000000000f07 .LASF103
     /tmp/cc3F21sq.s:4412   .debug_str:0000000000000917 .LASF104
     /tmp/cc3F21sq.s:4138   .debug_str:000000000000000f .LASF105
     /tmp/cc3F21sq.s:4494   .debug_str:0000000000000c27 .LASF106
     /tmp/cc3F21sq.s:4386   .debug_str:0000000000000823 .LASF107
     /tmp/cc3F21sq.s:4484   .debug_str:0000000000000bda .LASF108
     /tmp/cc3F21sq.s:4212   .debug_str:000000000000029a .LASF109
     /tmp/cc3F21sq.s:4218   .debug_str:00000000000002b6 .LASF110
     /tmp/cc3F21sq.s:4410   .debug_str:000000000000090e .LASF111
     /tmp/cc3F21sq.s:4570   .debug_str:0000000000000f3c .LASF112
     /tmp/cc3F21sq.s:4136   .debug_str:0000000000000000 .LASF113
     /tmp/cc3F21sq.s:4300   .debug_str:0000000000000556 .LASF114
     /tmp/cc3F21sq.s:4590   .debug_str:0000000000000fb8 .LASF115
     /tmp/cc3F21sq.s:4554   .debug_str:0000000000000ec6 .LASF116
     /tmp/cc3F21sq.s:4524   .debug_str:0000000000000d1e .LASF117
     /tmp/cc3F21sq.s:4226   .debug_str:00000000000002f1 .LASF118
     /tmp/cc3F21sq.s:4430   .debug_str:00000000000009ff .LASF119
     /tmp/cc3F21sq.s:4462   .debug_str:0000000000000b04 .LASF120
     /tmp/cc3F21sq.s:4362   .debug_str:0000000000000759 .LASF121
     /tmp/cc3F21sq.s:4320   .debug_str:0000000000000609 .LASF122
     /tmp/cc3F21sq.s:4672   .debug_str:0000000000001295 .LASF123
GAS LISTING /tmp/cc3F21sq.s 			page 30


     /tmp/cc3F21sq.s:4150   .debug_str:0000000000000073 .LASF124
     /tmp/cc3F21sq.s:4378   .debug_str:00000000000007ed .LASF125
     /tmp/cc3F21sq.s:4666   .debug_str:0000000000001264 .LASF126
     /tmp/cc3F21sq.s:4504   .debug_str:0000000000000c7c .LASF127
     /tmp/cc3F21sq.s:4558   .debug_str:0000000000000ef4 .LASF128
     /tmp/cc3F21sq.s:4500   .debug_str:0000000000000c4f .LASF129
     /tmp/cc3F21sq.s:4674   .debug_str:00000000000012ad .LASF130
     /tmp/cc3F21sq.s:4354   .debug_str:000000000000070f .LASF131
     /tmp/cc3F21sq.s:4440   .debug_str:0000000000000a4b .LASF132
     /tmp/cc3F21sq.s:4528   .debug_str:0000000000000d37 .LASF133
     /tmp/cc3F21sq.s:4232   .debug_str:0000000000000346 .LASF134
     /tmp/cc3F21sq.s:4210   .debug_str:0000000000000295 .LASF135
     /tmp/cc3F21sq.s:4280   .debug_str:00000000000004a6 .LASF136
     /tmp/cc3F21sq.s:4360   .debug_str:000000000000074b .LASF137
     /tmp/cc3F21sq.s:4366   .debug_str:0000000000000768 .LASF138
     /tmp/cc3F21sq.s:4276   .debug_str:0000000000000491 .LASF139
     /tmp/cc3F21sq.s:4676   .debug_str:00000000000012ba .LASF140
     /tmp/cc3F21sq.s:4586   .debug_str:0000000000000fa3 .LASF141
     /tmp/cc3F21sq.s:4474   .debug_str:0000000000000b8a .LASF142
     /tmp/cc3F21sq.s:4316   .debug_str:00000000000005e8 .LASF143
     /tmp/cc3F21sq.s:4398   .debug_str:00000000000008a4 .LASF144
     /tmp/cc3F21sq.s:4620   .debug_str:00000000000010c6 .LASF145
     /tmp/cc3F21sq.s:4376   .debug_str:00000000000007ca .LASF146
     /tmp/cc3F21sq.s:4460   .debug_str:0000000000000ae9 .LASF147
     /tmp/cc3F21sq.s:4156   .debug_str:00000000000000b1 .LASF148
     /tmp/cc3F21sq.s:4634   .debug_str:0000000000001138 .LASF149
     /tmp/cc3F21sq.s:4152   .debug_str:000000000000007b .LASF150
     /tmp/cc3F21sq.s:4568   .debug_str:0000000000000f27 .LASF151
     /tmp/cc3F21sq.s:4302   .debug_str:0000000000000578 .LASF152
     /tmp/cc3F21sq.s:4140   .debug_str:000000000000001b .LASF153
     /tmp/cc3F21sq.s:4428   .debug_str:00000000000009d5 .LASF154
     /tmp/cc3F21sq.s:4266   .debug_str:0000000000000441 .LASF155
     /tmp/cc3F21sq.s:4636   .debug_str:000000000000114e .LASF156
     /tmp/cc3F21sq.s:4540   .debug_str:0000000000000d90 .LASF157
     /tmp/cc3F21sq.s:4258   .debug_str:00000000000003e7 .LASF158
     /tmp/cc3F21sq.s:4250   .debug_str:00000000000003af .LASF159
     /tmp/cc3F21sq.s:4618   .debug_str:0000000000001097 .LASF160
     /tmp/cc3F21sq.s:4640   .debug_str:0000000000001190 .LASF161
     /tmp/cc3F21sq.s:4390   .debug_str:000000000000084f .LASF162
     /tmp/cc3F21sq.s:4220   .debug_str:00000000000002c0 .LASF163
     /tmp/cc3F21sq.s:4630   .debug_str:0000000000001110 .LASF164
     /tmp/cc3F21sq.s:4178   .debug_str:0000000000000179 .LASF165
     /tmp/cc3F21sq.s:4314   .debug_str:00000000000005dd .LASF187
     /tmp/cc3F21sq.s:4544   .debug_str:0000000000000da7 .LASF189
     /tmp/cc3F21sq.s:4612   .debug_str:0000000000001063 .LASF166
     /tmp/cc3F21sq.s:4648   .debug_str:00000000000011c4 .LASF167
     /tmp/cc3F21sq.s:4616   .debug_str:000000000000107b .LASF168
     /tmp/cc3F21sq.s:4588   .debug_str:0000000000000fad .LASF169
     /tmp/cc3F21sq.s:4388   .debug_str:0000000000000837 .LASF170
     /tmp/cc3F21sq.s:4262   .debug_str:0000000000000421 .LASF171
     /tmp/cc3F21sq.s:4448   .debug_str:0000000000000a8f .LASF172
     /tmp/cc3F21sq.s:4392   .debug_str:000000000000086e .LASF173
     /tmp/cc3F21sq.s:4622   .debug_str:00000000000010d1 .LASF174
     /tmp/cc3F21sq.s:4202   .debug_str:0000000000000252 .LASF175
     /tmp/cc3F21sq.s:4372   .debug_str:0000000000000794 .LASF176
     /tmp/cc3F21sq.s:4256   .debug_str:00000000000003d0 .LASF177
     /tmp/cc3F21sq.s:4652   .debug_str:00000000000011de .LASF178
GAS LISTING /tmp/cc3F21sq.s 			page 31


     /tmp/cc3F21sq.s:4334   .debug_str:0000000000000668 .LASF179
     /tmp/cc3F21sq.s:4230   .debug_str:0000000000000327 .LASF180
     /tmp/cc3F21sq.s:4184   .debug_str:00000000000001b8 .LASF181
     /tmp/cc3F21sq.s:4288   .debug_str:00000000000004d0 .LASF182
     /tmp/cc3F21sq.s:4514   .debug_str:0000000000000cc7 .LASF183
     /tmp/cc3F21sq.s:4224   .debug_str:00000000000002d6 .LASF184
     /tmp/cc3F21sq.s:4408   .debug_str:0000000000000901 .LASF185
     /tmp/cc3F21sq.s:4638   .debug_str:0000000000001176 .LASF186
     /tmp/cc3F21sq.s:4604   .debug_str:0000000000001038 .LASF188
     /tmp/cc3F21sq.s:4476   .debug_str:0000000000000bab .LASF190
     /tmp/cc3F21sq.s:4352   .debug_str:0000000000000706 .LASF191
     /tmp/cc3F21sq.s:4426   .debug_str:00000000000009c0 .LASF192
     /tmp/cc3F21sq.s:4614   .debug_str:0000000000001074 .LASF193
     /tmp/cc3F21sq.s:4466   .debug_str:0000000000000b44 .LASF194
     /tmp/cc3F21sq.s:4418   .debug_str:0000000000000965 .LASF195
     /tmp/cc3F21sq.s:4492   .debug_str:0000000000000c14 .LASF196
     /tmp/cc3F21sq.s:4176   .debug_str:0000000000000171 .LASF197
     /tmp/cc3F21sq.s:4582   .debug_str:0000000000000f85 .LASF198
     /tmp/cc3F21sq.s:4348   .debug_str:00000000000006eb .LASF199
     /tmp/cc3F21sq.s:4424   .debug_str:00000000000009ac .LASF200
     /tmp/cc3F21sq.s:4400   .debug_str:00000000000008c5 .LASF201
     /tmp/cc3F21sq.s:4468   .debug_str:0000000000000b57 .LASF202
     /tmp/cc3F21sq.s:4542   .debug_str:0000000000000d9f .LASF203
     /tmp/cc3F21sq.s:4330   .debug_str:0000000000000641 .LASF204
     /tmp/cc3F21sq.s:4310   .debug_str:00000000000005ca .LASF205
     /tmp/cc3F21sq.s:4552   .debug_str:0000000000000ebf .LASF206
     /tmp/cc3F21sq.s:4508   .debug_str:0000000000000ca5 .LASF207
     /tmp/cc3F21sq.s:4510   .debug_str:0000000000000cb8 .LASF208
     /tmp/cc3F21sq.s:4260   .debug_str:000000000000040e .LASF209
     /tmp/cc3F21sq.s:4506   .debug_str:0000000000000c9f .LASF210
     /tmp/cc3F21sq.s:4168   .debug_str:0000000000000125 .LASF211
     /tmp/cc3F21sq.s:4328   .debug_str:000000000000063b .LASF212
     /tmp/cc3F21sq.s:4242   .debug_str:000000000000037c .LASF213
     /tmp/cc3F21sq.s:4196   .debug_str:0000000000000204 .LASF214
     /tmp/cc3F21sq.s:4602   .debug_str:000000000000101d .LASF215
     /tmp/cc3F21sq.s:4162   .debug_str:00000000000000f7 .LASF216
     /tmp/cc3F21sq.s:4574   .debug_str:0000000000000f4d .LASF217
     /tmp/cc3F21sq.s:4486   .debug_str:0000000000000bef .LASF218
     /tmp/cc3F21sq.s:4664   .debug_str:000000000000124c .LASF219
     /tmp/cc3F21sq.s:4282   .debug_str:00000000000004af .LASF220
     /tmp/cc3F21sq.s:4204   .debug_str:0000000000000263 .LASF221
     /tmp/cc3F21sq.s:4534   .debug_str:0000000000000d65 .LASF222
     /tmp/cc3F21sq.s:4244   .debug_str:000000000000038e .LASF223
     /tmp/cc3F21sq.s:4632   .debug_str:000000000000112e .LASF224
     /tmp/cc3F21sq.s:4646   .debug_str:00000000000011ae .LASF225
     /tmp/cc3F21sq.s:4624   .debug_str:00000000000010ef .LASF226
     /tmp/cc3F21sq.s:4170   .debug_str:0000000000000137 .LASF227
     /tmp/cc3F21sq.s:4238   .debug_str:0000000000000366 .LASF228
     /tmp/cc3F21sq.s:4304   .debug_str:00000000000005a7 .LASF229
     /tmp/cc3F21sq.s:4312   .debug_str:00000000000005d7 .LASF230
     /tmp/cc3F21sq.s:4626   .debug_str:00000000000010f9 .LASF231
     /tmp/cc3F21sq.s:4308   .debug_str:00000000000005bf .LASF232
     /tmp/cc3F21sq.s:4318   .debug_str:00000000000005f1 .LASF233
     /tmp/cc3F21sq.s:4600   .debug_str:000000000000100e .LASF234
     /tmp/cc3F21sq.s:4294   .debug_str:0000000000000519 .LASF235
     /tmp/cc3F21sq.s:4452   .debug_str:0000000000000aad .LASF236
     /tmp/cc3F21sq.s:4346   .debug_str:00000000000006c9 .LASF237
GAS LISTING /tmp/cc3F21sq.s 			page 32


     /tmp/cc3F21sq.s:4480   .debug_str:0000000000000bc6 .LASF238
     /tmp/cc3F21sq.s:4154   .debug_str:00000000000000a9 .LASF239
     /tmp/cc3F21sq.s:4186   .debug_str:00000000000001c2 .LASF240
     /tmp/cc3F21sq.s:4370   .debug_str:0000000000000788 .LASF241
     /tmp/cc3F21sq.s:4188   .debug_str:00000000000001d1 .LASF242
     /tmp/cc3F21sq.s:4402   .debug_str:00000000000008cd .LASF243
     /tmp/cc3F21sq.s:4298   .debug_str:0000000000000543 .LASF244
     /tmp/cc3F21sq.s:4338   .debug_str:0000000000000687 .LASF245
     /tmp/cc3F21sq.s:4200   .debug_str:000000000000023e .LASF246
     /tmp/cc3F21sq.s:4610   .debug_str:0000000000001059 .LASF247
     /tmp/cc3F21sq.s:4284   .debug_str:00000000000004b6 .LASF248
     /tmp/cc3F21sq.s:4166   .debug_str:000000000000010d .LASF270
     /tmp/cc3F21sq.s:4658   .debug_str:0000000000001216 .LASF271
     /tmp/cc3F21sq.s:4596   .debug_str:0000000000000fe7 .LASF249
     /tmp/cc3F21sq.s:4434   .debug_str:0000000000000a14 .LASF250
     /tmp/cc3F21sq.s:4578   .debug_str:0000000000000f6d .LASF251
     /tmp/cc3F21sq.s:4144   .debug_str:0000000000000046 .LASF252
     /tmp/cc3F21sq.s:4192   .debug_str:00000000000001ed .LASF253
     /tmp/cc3F21sq.s:4414   .debug_str:0000000000000930 .LASF254
     /tmp/cc3F21sq.s:4518   .debug_str:0000000000000ce6 .LASF255
     /tmp/cc3F21sq.s:4172   .debug_str:000000000000014d .LASF256
     /tmp/cc3F21sq.s:778    .text:00000000000003c8 .LFB43
     /tmp/cc3F21sq.s:835    .text:000000000000041c .LFE43
     /tmp/cc3F21sq.s:4628   .debug_str:000000000000110b .LASF257
     /tmp/cc3F21sq.s:3885   .debug_loc:0000000000000000 .LLST18
     /tmp/cc3F21sq.s:806    .text:00000000000003f0 .LVL56
     /tmp/cc3F21sq.s:809    .text:00000000000003fc .LVL57
     /tmp/cc3F21sq.s:821    .text:0000000000000408 .LVL58
     /tmp/cc3F21sq.s:712    .text:0000000000000384 .LFB42
     /tmp/cc3F21sq.s:772    .text:00000000000003c8 .LFE42
     /tmp/cc3F21sq.s:3892   .debug_loc:0000000000000023 .LLST17
     /tmp/cc3F21sq.s:737    .text:00000000000003a4 .LVL52
     /tmp/cc3F21sq.s:749    .text:00000000000003b0 .LVL53
     /tmp/cc3F21sq.s:642    .text:0000000000000330 .LFB41
     /tmp/cc3F21sq.s:706    .text:0000000000000384 .LFE41
     /tmp/cc3F21sq.s:3903   .debug_loc:0000000000000059 .LLST16
     /tmp/cc3F21sq.s:665    .text:000000000000034c .LVL49
     /tmp/cc3F21sq.s:684    .text:000000000000036c .LVL50
     /tmp/cc3F21sq.s:610    .text:0000000000000308 .LFB40
     /tmp/cc3F21sq.s:636    .text:0000000000000330 .LFE40
     /tmp/cc3F21sq.s:3910   .debug_loc:000000000000007c .LLST15
     /tmp/cc3F21sq.s:625    .text:0000000000000320 .LVL47
     /tmp/cc3F21sq.s:482    .text:0000000000000268 .LFB39
     /tmp/cc3F21sq.s:508    .text:0000000000000290 .LFE39
     /tmp/cc3F21sq.s:3924   .debug_loc:00000000000000b5 .LLST11
     /tmp/cc3F21sq.s:497    .text:0000000000000280 .LVL36
     /tmp/cc3F21sq.s:372    .text:00000000000001c4 .LFB38
     /tmp/cc3F21sq.s:424    .text:0000000000000220 .LFE38
     /tmp/cc3F21sq.s:4236   .debug_str:0000000000000361 .LASF258
     /tmp/cc3F21sq.s:3938   .debug_loc:00000000000000ee .LLST8
     /tmp/cc3F21sq.s:3956   .debug_loc:000000000000013a .LLST9
     /tmp/cc3F21sq.s:392    .text:00000000000001e8 .LVL25
     /tmp/cc3F21sq.s:399    .text:00000000000001f8 .LVL27
     /tmp/cc3F21sq.s:406    .text:0000000000000208 .LVL28
     /tmp/cc3F21sq.s:234    .text:000000000000011c .LFB37
     /tmp/cc3F21sq.s:281    .text:0000000000000158 .LFE37
     /tmp/cc3F21sq.s:4478   .debug_str:0000000000000bc0 .LASF259
GAS LISTING /tmp/cc3F21sq.s 			page 33


     /tmp/cc3F21sq.s:3963   .debug_loc:000000000000015d .LLST5
     /tmp/cc3F21sq.s:207    .text:0000000000000100 .LFB36
     /tmp/cc3F21sq.s:228    .text:000000000000011c .LFE36
     /tmp/cc3F21sq.s:3970   .debug_loc:0000000000000180 .LLST4
     /tmp/cc3F21sq.s:98     .text:0000000000000064 .LFB35
     /tmp/cc3F21sq.s:143    .text:00000000000000a8 .LFE35
     /tmp/cc3F21sq.s:3984   .debug_loc:00000000000001b9 .LLST0
     /tmp/cc3F21sq.s:115    .text:0000000000000080 .LBB5
     /tmp/cc3F21sq.s:124    .text:0000000000000088 .LBE5
     /tmp/cc3F21sq.s:3998   .debug_loc:00000000000001f2 .LLST1
     /tmp/cc3F21sq.s:4006   .debug_loc:0000000000000216 .LLST2
     /tmp/cc3F21sq.s:128    .text:0000000000000090 .LVL5
     /tmp/cc3F21sq.s:132    .text:0000000000000098 .LVL6
     /tmp/cc3F21sq.s:49     .text:0000000000000028 .LFB34
     /tmp/cc3F21sq.s:92     .text:0000000000000064 .LFE34
     /tmp/cc3F21sq.s:4158   .debug_str:00000000000000e6 .LASF260
     /tmp/cc3F21sq.s:4670   .debug_str:0000000000001281 .LASF263
     /tmp/cc3F21sq.s:287    .text:0000000000000158 .LFB32
     /tmp/cc3F21sq.s:356    .text:00000000000001c4 .LFE32
     /tmp/cc3F21sq.s:4013   .debug_loc:0000000000000239 .LLST6
     /tmp/cc3F21sq.s:325    .text:0000000000000194 .LVL20
     /tmp/cc3F21sq.s:334    .text:00000000000001a8 .LVL21
     /tmp/cc3F21sq.s:318    .text:0000000000000188 .LBB8
     /tmp/cc3F21sq.s:335    .text:00000000000001a8 .LBE8
     /tmp/cc3F21sq.s:4031   .debug_loc:0000000000000285 .LLST7
     /tmp/cc3F21sq.s:314    .text:0000000000000180 .LVL18
     /tmp/cc3F21sq.s:514    .text:0000000000000290 .LFB30
     /tmp/cc3F21sq.s:604    .text:0000000000000308 .LFE30
     /tmp/cc3F21sq.s:4038   .debug_loc:00000000000002a8 .LLST12
     /tmp/cc3F21sq.s:4344   .debug_str:00000000000006b9 .LASF261
     /tmp/cc3F21sq.s:4049   .debug_loc:00000000000002de .LLST13
     /tmp/cc3F21sq.s:4444   .debug_str:0000000000000a75 .LASF262
     /tmp/cc3F21sq.s:4060   .debug_loc:0000000000000314 .LLST14
     /tmp/cc3F21sq.s:551    .text:00000000000002c0 .LVL39
     /tmp/cc3F21sq.s:555    .text:00000000000002d0 .LVL40
     /tmp/cc3F21sq.s:572    .text:00000000000002e4 .LVL41
     /tmp/cc3F21sq.s:430    .text:0000000000000220 .LFB29
     /tmp/cc3F21sq.s:476    .text:0000000000000268 .LFE29
     /tmp/cc3F21sq.s:4071   .debug_loc:000000000000034a .LLST10
     /tmp/cc3F21sq.s:463    .text:0000000000000254 .LVL34
     /tmp/cc3F21sq.s:149    .text:00000000000000a8 .LFB28
     /tmp/cc3F21sq.s:201    .text:0000000000000100 .LFE28
     /tmp/cc3F21sq.s:4096   .debug_loc:00000000000003ac .LLST3
     /tmp/cc3F21sq.s:188    .text:00000000000000ec .LVL10
     /tmp/cc3F21sq.s:4454   .debug_str:0000000000000ac2 .LASF264
     /tmp/cc3F21sq.s:10     .text:0000000000000000 .LFB26
     /tmp/cc3F21sq.s:41     .text:0000000000000028 .LFE26
     /tmp/cc3F21sq.s:798    .text:00000000000003e0 .LVL55
     /tmp/cc3F21sq.s:830    .text:0000000000000414 .LVL59
     /tmp/cc3F21sq.s:730    .text:0000000000000398 .LVL51
     /tmp/cc3F21sq.s:760    .text:00000000000003c0 .LVL54
     /tmp/cc3F21sq.s:660    .text:0000000000000344 .LVL48
     /tmp/cc3F21sq.s:613    .text:0000000000000308 .LVL46
     /tmp/cc3F21sq.s:485    .text:0000000000000268 .LVL35
     /tmp/cc3F21sq.s:375    .text:00000000000001c4 .LVL24
     /tmp/cc3F21sq.s:419    .text:0000000000000218 .LVL30
     /tmp/cc3F21sq.s:394    .text:00000000000001ec .LVL26
GAS LISTING /tmp/cc3F21sq.s 			page 34


     /tmp/cc3F21sq.s:416    .text:0000000000000214 .LVL29
     /tmp/cc3F21sq.s:250    .text:0000000000000130 .LVL14
     /tmp/cc3F21sq.s:262    .text:0000000000000140 .LVL15
     /tmp/cc3F21sq.s:210    .text:0000000000000100 .LVL11
     /tmp/cc3F21sq.s:220    .text:0000000000000110 .LVL12
     /tmp/cc3F21sq.s:101    .text:0000000000000064 .LVL2
     /tmp/cc3F21sq.s:114    .text:0000000000000080 .LVL3
     /tmp/cc3F21sq.s:122    .text:0000000000000088 .LVL4
     /tmp/cc3F21sq.s:292    .text:0000000000000158 .LVL16
     /tmp/cc3F21sq.s:306    .text:0000000000000174 .LVL17
     /tmp/cc3F21sq.s:351    .text:00000000000001bc .LVL23
     /tmp/cc3F21sq.s:320    .text:0000000000000188 .LVL19
     /tmp/cc3F21sq.s:338    .text:00000000000001ac .LVL22
     /tmp/cc3F21sq.s:545    .text:00000000000002b4 .LVL38
     /tmp/cc3F21sq.s:588    .text:00000000000002f8 .LVL44
     /tmp/cc3F21sq.s:592    .text:0000000000000300 .LVL45
     /tmp/cc3F21sq.s:539    .text:00000000000002b0 .LVL37
     /tmp/cc3F21sq.s:585    .text:00000000000002f4 .LVL43
     /tmp/cc3F21sq.s:582    .text:00000000000002f0 .LVL42
     /tmp/cc3F21sq.s:433    .text:0000000000000220 .LVL31
     /tmp/cc3F21sq.s:447    .text:0000000000000238 .LVL32
     /tmp/cc3F21sq.s:449    .text:000000000000023c .LVL33
     /tmp/cc3F21sq.s:152    .text:00000000000000a8 .LVL7
     /tmp/cc3F21sq.s:172    .text:00000000000000d0 .LVL8
     /tmp/cc3F21sq.s:174    .text:00000000000000d4 .LVL9
     /tmp/cc3F21sq.s:844    .debug_info:0000000000000000 .Ldebug_info0
     /tmp/cc3F21sq.s:359    .gcc_except_table:0000000000000000 .LLSDA32

UNDEFINED SYMBOLS
_ZN3PCB7runningE
_ZN3PCB8dispatchEv
_ZN9Scheduler3putEP3PCB
__gxx_personality_v0
_ZN15MemoryAllocator7kmallocEm
_ZN5Riscv13w_a0_sscratchEv
_ZN15MemoryAllocator5kfreeEPv
