GAS LISTING /tmp/ccIl8EJV.s 			page 1


   1              		.file	"main.cpp"
   2              		.option pic
   3              		.option norelax
   4              		.text
   5              	.Ltext0:
   6              		.align	2
   7              		.globl	main
   9              	main:
  10              	.LFB20:
  11              		.file 1 "src/main.cpp"
   1:src/main.cpp  **** #include "../h/Riscv.hpp"
   2:src/main.cpp  **** 
   3:src/main.cpp  **** void main()
   4:src/main.cpp  **** {
  12              		.loc 1 4 1
  13              		.cfi_startproc
  14 0000 130101FF 		addi	sp,sp,-16
  15              		.cfi_def_cfa_offset 16
  16 0004 23341100 		sd	ra,8(sp)
  17 0008 23308100 		sd	s0,0(sp)
  18              		.cfi_offset 1, -8
  19              		.cfi_offset 8, -16
  20 000c 13040101 		addi	s0,sp,16
  21              		.cfi_def_cfa 8, 0
   5:src/main.cpp  ****     Riscv::kernelMain();
  22              		.loc 1 5 5
  23              		.loc 1 5 22 is_stmt 0
  24 0010 97000000 		call	_ZN5Riscv10kernelMainEv@plt
  24      E7800000 
  25              	.LVL0:
   6:src/main.cpp  **** }...
  26              		.loc 1 6 1
  27 0018 83308100 		ld	ra,8(sp)
  28              		.cfi_restore 1
  29 001c 03340100 		ld	s0,0(sp)
  30              		.cfi_restore 8
  31              		.cfi_def_cfa 2, 16
  32 0020 13010101 		addi	sp,sp,16
  33              		.cfi_def_cfa_offset 0
  34 0024 67800000 		jr	ra
  35              		.cfi_endproc
  36              	.LFE20:
  38              	.Letext0:
  39              		.file 2 "src/../h/../lib/hw.h"
  40              		.file 3 "src/../h/slabAllocator.hpp"
  41              		.file 4 "src/../h/Riscv.hpp"
GAS LISTING /tmp/ccIl8EJV.s 			page 2

