GAS LISTING /tmp/cciW3ZsG.s 			page 1


   1              		.file	"PCB.cpp"
   2              		.option pic
   3              		.option norelax
   4              		.text
   5              	.Ltext0:
   6              		.align	2
   7              		.globl	_ZN3PCB6runnerEv
   9              	_ZN3PCB6runnerEv:
  10              	.LFB29:
  11              		.file 1 "src/PCB.cpp"
   1:src/PCB.cpp   **** //
   2:src/PCB.cpp   **** // Created by os on 4/27/22.
   3:src/PCB.cpp   **** //
   4:src/PCB.cpp   **** 
   5:src/PCB.cpp   **** #include "../h/PCB.hpp"
   6:src/PCB.cpp   **** #include "../h/syscall_c.hpp"
   7:src/PCB.cpp   **** #include "../h/SleepPCBList.hpp"
   8:src/PCB.cpp   **** #include "../test/printing.hpp"
   9:src/PCB.cpp   **** #include "../h/KConsole.hpp"
  10:src/PCB.cpp   **** #include "../h/Scheduler.hpp"
  11:src/PCB.cpp   **** #include "../h/Riscv.hpp"
  12:src/PCB.cpp   **** 
  13:src/PCB.cpp   **** PCB* PCB::running = 0;
  14:src/PCB.cpp   **** uint64 PCB::timeSliceCounter = 0;
  15:src/PCB.cpp   **** uint64 PCB::savedRegA4 = 0;
  16:src/PCB.cpp   **** PCB* PCB::consolePCB = 0;
  17:src/PCB.cpp   **** PCB* PCB::userPCB = 0;
  18:src/PCB.cpp   **** 
  19:src/PCB.cpp   **** PCB::PCB(Body body, void *args, void* stack_space, uint64 timeSlice) :
  20:src/PCB.cpp   ****     timeSlice(timeSlice),
  21:src/PCB.cpp   ****     body(body),
  22:src/PCB.cpp   ****     args(args),
  23:src/PCB.cpp   ****     beginSP(stack_space),
  24:src/PCB.cpp   ****     context({
  25:src/PCB.cpp   ****         (uint64)((char*)stack_space + DEFAULT_STACK_SIZE),
  26:src/PCB.cpp   ****         (uint64)&PCB::runner
  27:src/PCB.cpp   ****     })
  28:src/PCB.cpp   **** {
  29:src/PCB.cpp   ****     nextPCB = 0;
  30:src/PCB.cpp   **** }
  31:src/PCB.cpp   **** 
  32:src/PCB.cpp   **** void PCB::start()
  33:src/PCB.cpp   **** {
  34:src/PCB.cpp   ****     Scheduler::put(this);
  35:src/PCB.cpp   **** }
  36:src/PCB.cpp   **** 
  37:src/PCB.cpp   **** void PCB::runner()
  38:src/PCB.cpp   **** {
  12              		.loc 1 38 1
  13              		.cfi_startproc
  14 0000 130101FF 		addi	sp,sp,-16
  15              		.cfi_def_cfa_offset 16
  16 0004 23341100 		sd	ra,8(sp)
  17 0008 23308100 		sd	s0,0(sp)
  18              		.cfi_offset 1, -8
  19              		.cfi_offset 8, -16
  20 000c 13040101 		addi	s0,sp,16
GAS LISTING /tmp/cciW3ZsG.s 			page 2


  21              		.cfi_def_cfa 8, 0
  39:src/PCB.cpp   ****     Riscv::popSppSpie();
  22              		.loc 1 39 5
  23              		.loc 1 39 22 is_stmt 0
  24 0010 97000000 		call	_ZN5Riscv10popSppSpieEv@plt
  24      E7800000 
  25              	.LVL0:
  40:src/PCB.cpp   ****     running->body(running->args);
  26              		.loc 1 40 5 is_stmt 1
  27              		.loc 1 40 14 is_stmt 0
  28 0018 97070000 		ld	a5,.LANCHOR0
  28      83B70700 
  29 0020 03B78702 		ld	a4,40(a5)
  30              		.loc 1 40 18
  31 0024 03B50703 		ld	a0,48(a5)
  32 0028 E7000700 		jalr	a4
  33              	.LVL1:
  41:src/PCB.cpp   **** 
  42:src/PCB.cpp   ****     thread_exit();
  34              		.loc 1 42 5 is_stmt 1
  35              		.loc 1 42 16 is_stmt 0
  36 002c 97000000 		call	_Z11thread_exitv@plt
  36      E7800000 
  37              	.LVL2:
  43:src/PCB.cpp   **** }
  38              		.loc 1 43 1
  39 0034 83308100 		ld	ra,8(sp)
  40              		.cfi_restore 1
  41 0038 03340100 		ld	s0,0(sp)
  42              		.cfi_restore 8
  43              		.cfi_def_cfa 2, 16
  44 003c 13010101 		addi	sp,sp,16
  45              		.cfi_def_cfa_offset 0
  46 0040 67800000 		jr	ra
  47              		.cfi_endproc
  48              	.LFE29:
  50              		.align	2
  51              		.globl	_ZN3PCBC2EPFvPvES0_S0_m
  53              	_ZN3PCBC2EPFvPvES0_S0_m:
  54              	.LFB26:
  19:src/PCB.cpp   ****     timeSlice(timeSlice),
  55              		.loc 1 19 1 is_stmt 1
  56              		.cfi_startproc
  57              	.LVL3:
  58 0044 130101FF 		addi	sp,sp,-16
  59              		.cfi_def_cfa_offset 16
  60 0048 23348100 		sd	s0,8(sp)
  61              		.cfi_offset 8, -8
  62 004c 13040101 		addi	s0,sp,16
  63              		.cfi_def_cfa 8, 0
  64              	.LBB12:
  27:src/PCB.cpp   **** {
  65              		.loc 1 27 6 is_stmt 0
  66 0050 23000500 		sb	zero,0(a0)
  67 0054 233CE500 		sd	a4,24(a0)
  68 0058 23300502 		sd	zero,32(a0)
  69 005c 2334B502 		sd	a1,40(a0)
GAS LISTING /tmp/cciW3ZsG.s 			page 3


  70 0060 2338C502 		sd	a2,48(a0)
  71 0064 233CD502 		sd	a3,56(a0)
  25:src/PCB.cpp   ****         (uint64)&PCB::runner
  72              		.loc 1 25 37
  73 0068 B7170000 		li	a5,4096
  74 006c B386F600 		add	a3,a3,a5
  75              	.LVL4:
  27:src/PCB.cpp   **** {
  76              		.loc 1 27 6
  77 0070 2334D504 		sd	a3,72(a0)
  78 0074 97070000 		lla	a5,_ZN3PCB6runnerEv
  78      93870700 
  79 007c 2338F504 		sd	a5,80(a0)
  80 0080 230C0504 		sb	zero,88(a0)
  29:src/PCB.cpp   **** }
  81              		.loc 1 29 5 is_stmt 1
  29:src/PCB.cpp   **** }
  82              		.loc 1 29 13 is_stmt 0
  83 0084 23340500 		sd	zero,8(a0)
  84              	.LBE12:
  30:src/PCB.cpp   **** 
  85              		.loc 1 30 1
  86 0088 03348100 		ld	s0,8(sp)
  87              		.cfi_restore 8
  88              		.cfi_def_cfa 2, 16
  89 008c 13010101 		addi	sp,sp,16
  90              		.cfi_def_cfa_offset 0
  91 0090 67800000 		jr	ra
  92              		.cfi_endproc
  93              	.LFE26:
  95              		.globl	_ZN3PCBC1EPFvPvES0_S0_m
  96              		.set	_ZN3PCBC1EPFvPvES0_S0_m,_ZN3PCBC2EPFvPvES0_S0_m
  97              		.align	2
  98              		.globl	_ZN3PCB5startEv
 100              	_ZN3PCB5startEv:
 101              	.LFB28:
  33:src/PCB.cpp   ****     Scheduler::put(this);
 102              		.loc 1 33 1 is_stmt 1
 103              		.cfi_startproc
 104              	.LVL5:
 105 0094 130101FF 		addi	sp,sp,-16
 106              		.cfi_def_cfa_offset 16
 107 0098 23341100 		sd	ra,8(sp)
 108 009c 23308100 		sd	s0,0(sp)
 109              		.cfi_offset 1, -8
 110              		.cfi_offset 8, -16
 111 00a0 13040101 		addi	s0,sp,16
 112              		.cfi_def_cfa 8, 0
  34:src/PCB.cpp   **** }
 113              		.loc 1 34 5
  34:src/PCB.cpp   **** }
 114              		.loc 1 34 19 is_stmt 0
 115 00a4 97000000 		call	_ZN9Scheduler3putEP3PCB@plt
 115      E7800000 
 116              	.LVL6:
  35:src/PCB.cpp   **** 
 117              		.loc 1 35 1
GAS LISTING /tmp/cciW3ZsG.s 			page 4


 118 00ac 83308100 		ld	ra,8(sp)
 119              		.cfi_restore 1
 120 00b0 03340100 		ld	s0,0(sp)
 121              		.cfi_restore 8
 122              		.cfi_def_cfa 2, 16
 123 00b4 13010101 		addi	sp,sp,16
 124              		.cfi_def_cfa_offset 0
 125 00b8 67800000 		jr	ra
 126              		.cfi_endproc
 127              	.LFE28:
 129              		.align	2
 130              		.globl	_ZN3PCB8dispatchEv
 132              	_ZN3PCB8dispatchEv:
 133              	.LFB30:
  44:src/PCB.cpp   **** 
  45:src/PCB.cpp   **** void PCB::dispatch()
  46:src/PCB.cpp   **** {
 134              		.loc 1 46 1 is_stmt 1
 135              		.cfi_startproc
 136 00bc 130101FE 		addi	sp,sp,-32
 137              		.cfi_def_cfa_offset 32
 138 00c0 233C1100 		sd	ra,24(sp)
 139 00c4 23388100 		sd	s0,16(sp)
 140 00c8 23349100 		sd	s1,8(sp)
 141 00cc 23302101 		sd	s2,0(sp)
 142              		.cfi_offset 1, -8
 143              		.cfi_offset 8, -16
 144              		.cfi_offset 9, -24
 145              		.cfi_offset 18, -32
 146 00d0 13040102 		addi	s0,sp,32
 147              		.cfi_def_cfa 8, 0
  47:src/PCB.cpp   ****     PCB* old = running;
 148              		.loc 1 47 5
 149              		.loc 1 47 10 is_stmt 0
 150 00d4 97040000 		ld	s1,.LANCHOR0
 150      83B40400 
 151              	.LVL7:
  48:src/PCB.cpp   ****     if(old->getState() == PCB::RUNNING)
 152              		.loc 1 48 5 is_stmt 1
 153              	.LBB13:
 154              	.LBB14:
 155              		.file 2 "src/../h/PCB.hpp"
   1:src/../h/PCB.hpp **** //
   2:src/../h/PCB.hpp **** // Created by os on 4/27/22.
   3:src/../h/PCB.hpp **** //
   4:src/../h/PCB.hpp **** 
   5:src/../h/PCB.hpp **** #ifndef PROJECT_BASE_V1_0_PCB_HPP
   6:src/../h/PCB.hpp **** #define PROJECT_BASE_V1_0_PCB_HPP
   7:src/../h/PCB.hpp **** 
   8:src/../h/PCB.hpp **** #include "../lib/hw.h"
   9:src/../h/PCB.hpp **** 
  10:src/../h/PCB.hpp **** class PCB
  11:src/../h/PCB.hpp **** {
  12:src/../h/PCB.hpp **** private:
  13:src/../h/PCB.hpp ****     static uint64 savedRegA4;
  14:src/../h/PCB.hpp **** 
  15:src/../h/PCB.hpp ****     using Body = void (*)(void*);
GAS LISTING /tmp/cciW3ZsG.s 			page 5


  16:src/../h/PCB.hpp **** 
  17:src/../h/PCB.hpp ****     PCB(Body body,  void* args, void* stack_space, uint64 timeSlice);
  18:src/../h/PCB.hpp ****     ~PCB();
  19:src/../h/PCB.hpp **** 
  20:src/../h/PCB.hpp ****     void start();
  21:src/../h/PCB.hpp ****     static void dispatch();
  22:src/../h/PCB.hpp **** 
  23:src/../h/PCB.hpp ****     static PCB* running;
  24:src/../h/PCB.hpp **** 
  25:src/../h/PCB.hpp ****     static uint64 timeSliceCounter;
  26:src/../h/PCB.hpp ****     uint64 getTimeSlice() { return timeSlice;}
  27:src/../h/PCB.hpp **** 
  28:src/../h/PCB.hpp ****     void* operator new(size_t size);
  29:src/../h/PCB.hpp ****     void operator delete(void *p);
  30:src/../h/PCB.hpp **** 
  31:src/../h/PCB.hpp ****     enum State{READY, RUNNING, SUSPENDED, FINISHED, EXITING, SLEEPING};
  32:src/../h/PCB.hpp ****     State getState() {return state;}
 156              		.loc 2 32 23
 157              		.loc 2 32 30 is_stmt 0
 158 00dc 03A70404 		lw	a4,64(s1)
 159              	.LVL8:
 160              	.LBE14:
 161              	.LBE13:
 162              		.loc 1 48 5
 163 00e0 93071000 		li	a5,1
 164 00e4 630AF704 		beq	a4,a5,.L10
 165              	.L8:
  49:src/PCB.cpp   ****         Scheduler::put(old);
  50:src/PCB.cpp   ****     PCB::running = Scheduler::get();
 166              		.loc 1 50 5 is_stmt 1
 167              		.loc 1 50 34 is_stmt 0
 168 00e8 97000000 		call	_ZN9Scheduler3getEv@plt
 168      E7800000 
 169              	.LVL9:
 170              		.loc 1 50 18
 171 00f0 17090000 		lla	s2,.LANCHOR0
 171      13090900 
 172 00f8 2330A900 		sd	a0,0(s2)
  51:src/PCB.cpp   ****     PCB::running->setState(PCB::RUNNING);
 173              		.loc 1 51 5 is_stmt 1
 174              	.LVL10:
 175              	.LBB15:
 176              	.LBB16:
  33:src/../h/PCB.hpp ****     void setState(State s) {state = s;}
 177              		.loc 2 33 29
 178              		.loc 2 33 35 is_stmt 0
 179 00fc 93071000 		li	a5,1
 180 0100 2320F504 		sw	a5,64(a0)
 181              	.LVL11:
 182              	.LBE16:
 183              	.LBE15:
  52:src/PCB.cpp   **** 
  53:src/PCB.cpp   ****     Riscv::changePrivMode();
 184              		.loc 1 53 5 is_stmt 1
 185              		.loc 1 53 26 is_stmt 0
 186 0104 97000000 		call	_ZN5Riscv14changePrivModeEv@plt
 186      E7800000 
GAS LISTING /tmp/cciW3ZsG.s 			page 6


 187              	.LVL12:
  54:src/PCB.cpp   **** 
  55:src/PCB.cpp   ****     PCB::contextSwitch(&old->context, &running->context);
 188              		.loc 1 55 5 is_stmt 1
 189              		.loc 1 55 49 is_stmt 0
 190 010c 83350900 		ld	a1,0(s2)
 191              		.loc 1 55 23
 192 0110 93858504 		addi	a1,a1,72
 193 0114 13858404 		addi	a0,s1,72
 194 0118 97000000 		call	_ZN3PCB13contextSwitchEPNS_7ContextES1_@plt
 194      E7800000 
 195              	.LVL13:
  56:src/PCB.cpp   **** }
 196              		.loc 1 56 1
 197 0120 83308101 		ld	ra,24(sp)
 198              		.cfi_remember_state
 199              		.cfi_restore 1
 200 0124 03340101 		ld	s0,16(sp)
 201              		.cfi_restore 8
 202              		.cfi_def_cfa 2, 32
 203 0128 83348100 		ld	s1,8(sp)
 204              		.cfi_restore 9
 205              	.LVL14:
 206 012c 03390100 		ld	s2,0(sp)
 207              		.cfi_restore 18
 208 0130 13010102 		addi	sp,sp,32
 209              		.cfi_def_cfa_offset 0
 210 0134 67800000 		jr	ra
 211              	.LVL15:
 212              	.L10:
 213              		.cfi_restore_state
  49:src/PCB.cpp   ****     PCB::running = Scheduler::get();
 214              		.loc 1 49 9 is_stmt 1
  49:src/PCB.cpp   ****     PCB::running = Scheduler::get();
 215              		.loc 1 49 23 is_stmt 0
 216 0138 13850400 		mv	a0,s1
 217 013c 97000000 		call	_ZN9Scheduler3putEP3PCB@plt
 217      E7800000 
 218              	.LVL16:
 219 0144 6FF05FFA 		j	.L8
 220              		.cfi_endproc
 221              	.LFE30:
 223              		.align	2
 224              		.globl	_ZN3PCBnwEm
 226              	_ZN3PCBnwEm:
 227              	.LFB31:
  57:src/PCB.cpp   **** 
  58:src/PCB.cpp   **** void *PCB::operator new(size_t size) {
 228              		.loc 1 58 38 is_stmt 1
 229              		.cfi_startproc
 230              	.LVL17:
 231 0148 130101FF 		addi	sp,sp,-16
 232              		.cfi_def_cfa_offset 16
 233 014c 23341100 		sd	ra,8(sp)
 234 0150 23308100 		sd	s0,0(sp)
 235              		.cfi_offset 1, -8
 236              		.cfi_offset 8, -16
GAS LISTING /tmp/cciW3ZsG.s 			page 7


 237 0154 13040101 		addi	s0,sp,16
 238              		.cfi_def_cfa 8, 0
  59:src/PCB.cpp   ****     return kmem_cache_alloc(Riscv::pcbCache);
 239              		.loc 1 59 5
 240              		.loc 1 59 28 is_stmt 0
 241 0158 97070000 		la	a5,_ZN5Riscv8pcbCacheE
 241      83B70700 
 242 0160 03B50700 		ld	a0,0(a5)
 243              	.LVL18:
 244 0164 97000000 		call	_Z16kmem_cache_allocP12kmem_cache_s@plt
 244      E7800000 
 245              	.LVL19:
  60:src/PCB.cpp   ****     //return MemoryAllocator::kmalloc(size);
  61:src/PCB.cpp   **** }
 246              		.loc 1 61 1
 247 016c 83308100 		ld	ra,8(sp)
 248              		.cfi_restore 1
 249 0170 03340100 		ld	s0,0(sp)
 250              		.cfi_restore 8
 251              		.cfi_def_cfa 2, 16
 252 0174 13010101 		addi	sp,sp,16
 253              		.cfi_def_cfa_offset 0
 254 0178 67800000 		jr	ra
 255              		.cfi_endproc
 256              	.LFE31:
 258              		.align	2
 259              		.globl	_ZN3PCBdlEPv
 261              	_ZN3PCBdlEPv:
 262              	.LFB32:
  62:src/PCB.cpp   **** 
  63:src/PCB.cpp   **** void PCB::operator delete(void *p) {
 263              		.loc 1 63 36 is_stmt 1
 264              		.cfi_startproc
 265              	.LVL20:
 266 017c 130101FF 		addi	sp,sp,-16
 267              		.cfi_def_cfa_offset 16
 268 0180 23341100 		sd	ra,8(sp)
 269 0184 23308100 		sd	s0,0(sp)
 270              		.cfi_offset 1, -8
 271              		.cfi_offset 8, -16
 272 0188 13040101 		addi	s0,sp,16
 273              		.cfi_def_cfa 8, 0
 274 018c 93050500 		mv	a1,a0
  64:src/PCB.cpp   ****     kmem_cache_free(Riscv::pcbCache, p);
 275              		.loc 1 64 5
 276              		.loc 1 64 20 is_stmt 0
 277 0190 97070000 		la	a5,_ZN5Riscv8pcbCacheE
 277      83B70700 
 278 0198 03B50700 		ld	a0,0(a5)
 279              	.LVL21:
 280 019c 97000000 		call	_Z15kmem_cache_freeP12kmem_cache_sPv@plt
 280      E7800000 
 281              	.LVL22:
  65:src/PCB.cpp   ****     //MemoryAllocator::kfree(p);
  66:src/PCB.cpp   **** }
 282              		.loc 1 66 1
 283 01a4 83308100 		ld	ra,8(sp)
GAS LISTING /tmp/cciW3ZsG.s 			page 8


 284              		.cfi_restore 1
 285 01a8 03340100 		ld	s0,0(sp)
 286              		.cfi_restore 8
 287              		.cfi_def_cfa 2, 16
 288 01ac 13010101 		addi	sp,sp,16
 289              		.cfi_def_cfa_offset 0
 290 01b0 67800000 		jr	ra
 291              		.cfi_endproc
 292              	.LFE32:
 294              		.align	2
 295              		.globl	_ZN3PCBD2Ev
 297              	_ZN3PCBD2Ev:
 298              	.LFB34:
  67:src/PCB.cpp   **** 
  68:src/PCB.cpp   **** PCB::~PCB()
 299              		.loc 1 68 1 is_stmt 1
 300              		.cfi_startproc
 301              		.cfi_personality 0x9b,DW.ref.__gxx_personality_v0
 302              		.cfi_lsda 0x1b,.LLSDA34
 303              	.LVL23:
 304 01b4 130101FF 		addi	sp,sp,-16
 305              		.cfi_def_cfa_offset 16
 306 01b8 23341100 		sd	ra,8(sp)
 307 01bc 23308100 		sd	s0,0(sp)
 308              		.cfi_offset 1, -8
 309              		.cfi_offset 8, -16
 310 01c0 13040101 		addi	s0,sp,16
 311              		.cfi_def_cfa 8, 0
 312              	.LBB17:
  69:src/PCB.cpp   **** {
  70:src/PCB.cpp   ****     //MemoryAllocator::kfree(beginSP);
  71:src/PCB.cpp   ****     kfree(beginSP);
 313              		.loc 1 71 5
 314              		.loc 1 71 10 is_stmt 0
 315 01c4 03358503 		ld	a0,56(a0)
 316              	.LVL24:
 317 01c8 97000000 		call	_Z5kfreePKv@plt
 317      E7800000 
 318              	.LVL25:
 319              	.LBE17:
  72:src/PCB.cpp   **** }
 320              		.loc 1 72 1
 321 01d0 83308100 		ld	ra,8(sp)
 322              		.cfi_restore 1
 323 01d4 03340100 		ld	s0,0(sp)
 324              		.cfi_restore 8
 325              		.cfi_def_cfa 2, 16
 326 01d8 13010101 		addi	sp,sp,16
 327              		.cfi_def_cfa_offset 0
 328 01dc 67800000 		jr	ra
 329              		.cfi_endproc
 330              	.LFE34:
 331              		.globl	__gxx_personality_v0
 332              		.section	.gcc_except_table,"a",@progbits
 333              	.LLSDA34:
 334 0000 FF       		.byte	0xff
 335 0001 FF       		.byte	0xff
GAS LISTING /tmp/cciW3ZsG.s 			page 9


 336 0002 03       		.byte	0x3
 337 0003 00       		.byte	0
 338              		.text
 340              		.globl	_ZN3PCBD1Ev
 341              		.set	_ZN3PCBD1Ev,_ZN3PCBD2Ev
 342              		.align	2
 343              		.globl	_ZN3PCB10initializeEv
 345              	_ZN3PCB10initializeEv:
 346              	.LFB36:
  73:src/PCB.cpp   **** 
  74:src/PCB.cpp   **** void PCB::initialize()
  75:src/PCB.cpp   **** {
 347              		.loc 1 75 1 is_stmt 1
 348              		.cfi_startproc
 349 01e0 130101FD 		addi	sp,sp,-48
 350              		.cfi_def_cfa_offset 48
 351 01e4 23341102 		sd	ra,40(sp)
 352 01e8 23308102 		sd	s0,32(sp)
 353 01ec 233C9100 		sd	s1,24(sp)
 354 01f0 23382101 		sd	s2,16(sp)
 355 01f4 23343101 		sd	s3,8(sp)
 356 01f8 23304101 		sd	s4,0(sp)
 357              		.cfi_offset 1, -8
 358              		.cfi_offset 8, -16
 359              		.cfi_offset 9, -24
 360              		.cfi_offset 18, -32
 361              		.cfi_offset 19, -40
 362              		.cfi_offset 20, -48
 363 01fc 13040103 		addi	s0,sp,48
 364              		.cfi_def_cfa 8, 0
  76:src/PCB.cpp   ****     PCB* mainSystem = new PCB(0, 0, 0, 0);
 365              		.loc 1 76 5
 366              		.loc 1 76 41 is_stmt 0
 367 0200 13050006 		li	a0,96
 368 0204 97000000 		call	_ZN3PCBnwEm
 368      E7800000 
 369              	.LVL26:
 370 020c 93040500 		mv	s1,a0
 371 0210 13070000 		li	a4,0
 372 0214 93060000 		li	a3,0
 373 0218 13060000 		li	a2,0
 374 021c 93050000 		li	a1,0
 375 0220 97000000 		call	_ZN3PCBC1EPFvPvES0_S0_m
 375      E7800000 
 376              	.LVL27:
  77:src/PCB.cpp   ****     mainSystem->systemThread = true;
 377              		.loc 1 77 5 is_stmt 1
 378              		.loc 1 77 30 is_stmt 0
 379 0228 93071000 		li	a5,1
 380 022c 2380F400 		sb	a5,0(s1)
  78:src/PCB.cpp   ****     PCB::running = mainSystem;
 381              		.loc 1 78 5 is_stmt 1
 382              		.loc 1 78 18 is_stmt 0
 383 0230 17090000 		lla	s2,.LANCHOR0
 383      13090900 
 384 0238 23309900 		sd	s1,0(s2)
  79:src/PCB.cpp   ****     PCB::running->setState(PCB::RUNNING);
GAS LISTING /tmp/cciW3ZsG.s 			page 10


 385              		.loc 1 79 5 is_stmt 1
 386              	.LVL28:
 387              	.LBB18:
 388              	.LBB19:
 389              		.loc 2 33 29
 390              		.loc 2 33 35 is_stmt 0
 391 023c 130A1000 		li	s4,1
 392 0240 23A04405 		sw	s4,64(s1)
 393              	.LVL29:
 394              	.LBE19:
 395              	.LBE18:
  80:src/PCB.cpp   ****     PCB::consolePCB = new PCB(&KConsole::sendCharactersToConsole, 0,
 396              		.loc 1 80 5 is_stmt 1
  81:src/PCB.cpp   ****                               kmalloc(DEFAULT_STACK_SIZE),
 397              		.loc 1 81 38 is_stmt 0
 398 0244 37150000 		li	a0,4096
 399 0248 97000000 		call	_Z7kmallocm@plt
 399      E7800000 
 400              	.LVL30:
 401 0250 93090500 		mv	s3,a0
  82:src/PCB.cpp   ****                               //MemoryAllocator::kmalloc(DEFAULT_STACK_SIZE),
  83:src/PCB.cpp   ****                               DEFAULT_TIME_SLICE);
 402              		.loc 1 83 49
 403 0254 13050006 		li	a0,96
 404 0258 97000000 		call	_ZN3PCBnwEm
 404      E7800000 
 405              	.LVL31:
 406 0260 93040500 		mv	s1,a0
 407              	.LVL32:
 408 0264 13072000 		li	a4,2
 409 0268 93860900 		mv	a3,s3
 410 026c 13060000 		li	a2,0
 411 0270 97050000 		la	a1,_ZN8KConsole23sendCharactersToConsoleEPv
 411      83B50500 
 412 0278 97000000 		call	_ZN3PCBC1EPFvPvES0_S0_m
 412      E7800000 
 413              	.LVL33:
  80:src/PCB.cpp   ****                               kmalloc(DEFAULT_STACK_SIZE),
 414              		.loc 1 80 21
 415 0280 23349900 		sd	s1,8(s2)
  84:src/PCB.cpp   ****     PCB::consolePCB->systemThread = true;
 416              		.loc 1 84 5 is_stmt 1
 417              		.loc 1 84 35 is_stmt 0
 418 0284 23804401 		sb	s4,0(s1)
  85:src/PCB.cpp   ****     PCB::consolePCB->start();
 419              		.loc 1 85 5 is_stmt 1
 420              		.loc 1 85 27 is_stmt 0
 421 0288 03358900 		ld	a0,8(s2)
 422 028c 97000000 		call	_ZN3PCB5startEv
 422      E7800000 
 423              	.LVL34:
  86:src/PCB.cpp   ****     PCB::userPCB = new PCB(&Riscv::userMainWrapper, 0,
 424              		.loc 1 86 5 is_stmt 1
  87:src/PCB.cpp   ****                            kmalloc(DEFAULT_STACK_SIZE),
 425              		.loc 1 87 35 is_stmt 0
 426 0294 37150000 		li	a0,4096
 427 0298 97000000 		call	_Z7kmallocm@plt
GAS LISTING /tmp/cciW3ZsG.s 			page 11


 427      E7800000 
 428              	.LVL35:
 429 02a0 93090500 		mv	s3,a0
  88:src/PCB.cpp   ****                            //MemoryAllocator::kmalloc(DEFAULT_STACK_SIZE),
  89:src/PCB.cpp   ****                            DEFAULT_TIME_SLICE);
 430              		.loc 1 89 46
 431 02a4 13050006 		li	a0,96
 432 02a8 97000000 		call	_ZN3PCBnwEm
 432      E7800000 
 433              	.LVL36:
 434 02b0 93040500 		mv	s1,a0
 435 02b4 13072000 		li	a4,2
 436 02b8 93860900 		mv	a3,s3
 437 02bc 13060000 		li	a2,0
 438 02c0 97050000 		la	a1,_ZN5Riscv15userMainWrapperEPv
 438      83B50500 
 439 02c8 97000000 		call	_ZN3PCBC1EPFvPvES0_S0_m
 439      E7800000 
 440              	.LVL37:
  86:src/PCB.cpp   ****                            kmalloc(DEFAULT_STACK_SIZE),
 441              		.loc 1 86 18
 442 02d0 23389900 		sd	s1,16(s2)
  90:src/PCB.cpp   ****     PCB::userPCB->start();
 443              		.loc 1 90 5 is_stmt 1
 444              		.loc 1 90 24 is_stmt 0
 445 02d4 13850400 		mv	a0,s1
 446 02d8 97000000 		call	_ZN3PCB5startEv
 446      E7800000 
 447              	.LVL38:
  91:src/PCB.cpp   **** }
 448              		.loc 1 91 1
 449 02e0 83308102 		ld	ra,40(sp)
 450              		.cfi_restore 1
 451 02e4 03340102 		ld	s0,32(sp)
 452              		.cfi_restore 8
 453              		.cfi_def_cfa 2, 48
 454 02e8 83348101 		ld	s1,24(sp)
 455              		.cfi_restore 9
 456 02ec 03390101 		ld	s2,16(sp)
 457              		.cfi_restore 18
 458 02f0 83398100 		ld	s3,8(sp)
 459              		.cfi_restore 19
 460 02f4 033A0100 		ld	s4,0(sp)
 461              		.cfi_restore 20
 462 02f8 13010103 		addi	sp,sp,48
 463              		.cfi_def_cfa_offset 0
 464 02fc 67800000 		jr	ra
 465              		.cfi_endproc
 466              	.LFE36:
 468              		.align	2
 469              		.globl	_ZN3PCB10isFinishedEv
 471              	_ZN3PCB10isFinishedEv:
 472              	.LFB37:
  92:src/PCB.cpp   **** 
  93:src/PCB.cpp   **** bool PCB::isFinished()
  94:src/PCB.cpp   **** {
 473              		.loc 1 94 1 is_stmt 1
GAS LISTING /tmp/cciW3ZsG.s 			page 12


 474              		.cfi_startproc
 475              	.LVL39:
 476 0300 130101FF 		addi	sp,sp,-16
 477              		.cfi_def_cfa_offset 16
 478 0304 23348100 		sd	s0,8(sp)
 479              		.cfi_offset 8, -8
 480 0308 13040101 		addi	s0,sp,16
 481              		.cfi_def_cfa 8, 0
  95:src/PCB.cpp   ****     return state == PCB::FINISHED;
 482              		.loc 1 95 5
 483              		.loc 1 95 12 is_stmt 0
 484 030c 03250504 		lw	a0,64(a0)
 485              	.LVL40:
 486              		.loc 1 95 26
 487 0310 1305D5FF 		addi	a0,a0,-3
  96:src/PCB.cpp   **** }
 488              		.loc 1 96 1
 489 0314 13351500 		seqz	a0,a0
 490 0318 03348100 		ld	s0,8(sp)
 491              		.cfi_restore 8
 492              		.cfi_def_cfa 2, 16
 493 031c 13010101 		addi	sp,sp,16
 494              		.cfi_def_cfa_offset 0
 495 0320 67800000 		jr	ra
 496              		.cfi_endproc
 497              	.LFE37:
 499              		.align	2
 500              		.globl	_ZN3PCB17threadExitHandlerEv
 502              	_ZN3PCB17threadExitHandlerEv:
 503              	.LFB38:
  97:src/PCB.cpp   **** 
  98:src/PCB.cpp   **** void PCB::threadExitHandler()
  99:src/PCB.cpp   **** {
 504              		.loc 1 99 1 is_stmt 1
 505              		.cfi_startproc
 506 0324 130101FF 		addi	sp,sp,-16
 507              		.cfi_def_cfa_offset 16
 508 0328 23341100 		sd	ra,8(sp)
 509 032c 23308100 		sd	s0,0(sp)
 510              		.cfi_offset 1, -8
 511              		.cfi_offset 8, -16
 512 0330 13040101 		addi	s0,sp,16
 513              		.cfi_def_cfa 8, 0
 100:src/PCB.cpp   ****     PCB::timeSliceCounter = 0;
 514              		.loc 1 100 5
 515              		.loc 1 100 27 is_stmt 0
 516 0334 97070000 		lla	a5,.LANCHOR0
 516      93870700 
 517 033c 23BC0700 		sd	zero,24(a5)
 101:src/PCB.cpp   ****     PCB::running->setState(PCB::FINISHED);
 518              		.loc 1 101 5 is_stmt 1
 519              		.loc 1 101 27 is_stmt 0
 520 0340 83B70700 		ld	a5,0(a5)
 521              	.LVL41:
 522              	.LBB20:
 523              	.LBB21:
 524              		.loc 2 33 29 is_stmt 1
GAS LISTING /tmp/cciW3ZsG.s 			page 13


 525              		.loc 2 33 35 is_stmt 0
 526 0344 13073000 		li	a4,3
 527 0348 23A0E704 		sw	a4,64(a5)
 528              	.LVL42:
 529              	.LBE21:
 530              	.LBE20:
 102:src/PCB.cpp   ****     PCB::dispatch();
 531              		.loc 1 102 5 is_stmt 1
 532              		.loc 1 102 18 is_stmt 0
 533 034c 97000000 		call	_ZN3PCB8dispatchEv
 533      E7800000 
 534              	.LVL43:
 103:src/PCB.cpp   ****     __asm__ volatile("li a0, 0");
 535              		.loc 1 103 5 is_stmt 1
 536              		.loc 1 103 33 is_stmt 0
 537              	#APP
 538              	# 103 "src/PCB.cpp" 1
 104              	    Riscv::w_a0_sscratch();
 539              		li a0, 0
 540              	# 0 "" 2
 541              		.loc 1 104 5 is_stmt 1
 542              		.loc 1 104 25 is_stmt 0
 543              	#NO_APP
 544 0358 97000000 		call	_ZN5Riscv13w_a0_sscratchEv@plt
 544      E7800000 
 545              	.LVL44:
 105:src/PCB.cpp   **** }
 546              		.loc 1 105 1
 547 0360 83308100 		ld	ra,8(sp)
 548              		.cfi_restore 1
 549 0364 03340100 		ld	s0,0(sp)
 550              		.cfi_restore 8
 551              		.cfi_def_cfa 2, 16
 552 0368 13010101 		addi	sp,sp,16
 553              		.cfi_def_cfa_offset 0
 554 036c 67800000 		jr	ra
 555              		.cfi_endproc
 556              	.LFE38:
 558              		.align	2
 559              		.globl	_ZN3PCB21threadDispatchHandlerEv
 561              	_ZN3PCB21threadDispatchHandlerEv:
 562              	.LFB39:
 106:src/PCB.cpp   **** 
 107:src/PCB.cpp   **** void PCB::threadDispatchHandler()
 108:src/PCB.cpp   **** {
 563              		.loc 1 108 1 is_stmt 1
 564              		.cfi_startproc
 565 0370 130101FF 		addi	sp,sp,-16
 566              		.cfi_def_cfa_offset 16
 567 0374 23341100 		sd	ra,8(sp)
 568 0378 23308100 		sd	s0,0(sp)
 569              		.cfi_offset 1, -8
 570              		.cfi_offset 8, -16
 571 037c 13040101 		addi	s0,sp,16
 572              		.cfi_def_cfa 8, 0
 109:src/PCB.cpp   ****     PCB::timeSliceCounter = 0;
 573              		.loc 1 109 5
GAS LISTING /tmp/cciW3ZsG.s 			page 14


 574              		.loc 1 109 27 is_stmt 0
 575 0380 97070000 		sd	zero,.LANCHOR0+24,a5
 575      23B00700 
 110:src/PCB.cpp   ****     PCB::dispatch();
 576              		.loc 1 110 5 is_stmt 1
 577              		.loc 1 110 18 is_stmt 0
 578 0388 97000000 		call	_ZN3PCB8dispatchEv
 578      E7800000 
 579              	.LVL45:
 111:src/PCB.cpp   **** }
 580              		.loc 1 111 1
 581 0390 83308100 		ld	ra,8(sp)
 582              		.cfi_restore 1
 583 0394 03340100 		ld	s0,0(sp)
 584              		.cfi_restore 8
 585              		.cfi_def_cfa 2, 16
 586 0398 13010101 		addi	sp,sp,16
 587              		.cfi_def_cfa_offset 0
 588 039c 67800000 		jr	ra
 589              		.cfi_endproc
 590              	.LFE39:
 592              		.align	2
 593              		.globl	_ZN3PCB18threadSleepHandlerEv
 595              	_ZN3PCB18threadSleepHandlerEv:
 596              	.LFB40:
 112:src/PCB.cpp   **** 
 113:src/PCB.cpp   **** void PCB::threadSleepHandler()
 114:src/PCB.cpp   **** {
 597              		.loc 1 114 1 is_stmt 1
 598              		.cfi_startproc
 599 03a0 130101FF 		addi	sp,sp,-16
 600              		.cfi_def_cfa_offset 16
 601 03a4 23341100 		sd	ra,8(sp)
 602 03a8 23308100 		sd	s0,0(sp)
 603              		.cfi_offset 1, -8
 604              		.cfi_offset 8, -16
 605 03ac 13040101 		addi	s0,sp,16
 606              		.cfi_def_cfa 8, 0
 115:src/PCB.cpp   ****     uint64 time;
 607              		.loc 1 115 5
 116:src/PCB.cpp   ****     __asm__ volatile("mv %0, a1" : "=r"(time));
 608              		.loc 1 116 5
 609              		.loc 1 116 47 is_stmt 0
 610              	#APP
 611              	# 116 "src/PCB.cpp" 1
 117              	    PCB::timeSliceCounter = 0;
 612              		mv a5, a1
 613              	# 0 "" 2
 614              	.LVL46:
 615              		.loc 1 117 5 is_stmt 1
 616              		.loc 1 117 27 is_stmt 0
 617              	#NO_APP
 618 03b4 17070000 		lla	a4,.LANCHOR0
 618      13070700 
 619 03bc 233C0700 		sd	zero,24(a4)
 118:src/PCB.cpp   ****     PCB::running->setTimeToSleep(time + Riscv::totalTime);
 620              		.loc 1 118 5 is_stmt 1
GAS LISTING /tmp/cciW3ZsG.s 			page 15


 621              		.loc 1 118 33 is_stmt 0
 622 03c0 03370700 		ld	a4,0(a4)
 623 03c4 97060000 		la	a3,_ZN5Riscv9totalTimeE
 623      83B60600 
 624 03cc 83B60600 		ld	a3,0(a3)
 625 03d0 B387D700 		add	a5,a5,a3
 626              	.LVL47:
 627              	.LBB22:
 628              	.LBB23:
  34:src/../h/PCB.hpp ****     void setTimeToSleep(uint64 time) {timeToSleep = time;}
 629              		.loc 2 34 39 is_stmt 1
 630              		.loc 2 34 51 is_stmt 0
 631 03d4 2330F702 		sd	a5,32(a4)
 632              	.LVL48:
 633              	.LBE23:
 634              	.LBE22:
 119:src/PCB.cpp   ****     SleepPCBList::insertSleepingPCB();
 635              		.loc 1 119 5 is_stmt 1
 636              		.loc 1 119 36 is_stmt 0
 637 03d8 97000000 		call	_ZN12SleepPCBList17insertSleepingPCBEv@plt
 637      E7800000 
 638              	.LVL49:
 120:src/PCB.cpp   ****     PCB::dispatch();
 639              		.loc 1 120 5 is_stmt 1
 640              		.loc 1 120 18 is_stmt 0
 641 03e0 97000000 		call	_ZN3PCB8dispatchEv
 641      E7800000 
 642              	.LVL50:
 121:src/PCB.cpp   ****     __asm__ volatile("li a0, 0x0");
 643              		.loc 1 121 5 is_stmt 1
 644              		.loc 1 121 35 is_stmt 0
 645              	#APP
 646              	# 121 "src/PCB.cpp" 1
 122              	    Riscv::w_a0_sscratch();
 647              		li a0, 0x0
 648              	# 0 "" 2
 649              		.loc 1 122 5 is_stmt 1
 650              		.loc 1 122 25 is_stmt 0
 651              	#NO_APP
 652 03ec 97000000 		call	_ZN5Riscv13w_a0_sscratchEv@plt
 652      E7800000 
 653              	.LVL51:
 123:src/PCB.cpp   **** }
 654              		.loc 1 123 1
 655 03f4 83308100 		ld	ra,8(sp)
 656              		.cfi_restore 1
 657 03f8 03340100 		ld	s0,0(sp)
 658              		.cfi_restore 8
 659              		.cfi_def_cfa 2, 16
 660 03fc 13010101 		addi	sp,sp,16
 661              		.cfi_def_cfa_offset 0
 662 0400 67800000 		jr	ra
 663              		.cfi_endproc
 664              	.LFE40:
 666              		.align	2
 667              		.globl	_ZN3PCB19threadCreateHandlerEv
 669              	_ZN3PCB19threadCreateHandlerEv:
GAS LISTING /tmp/cciW3ZsG.s 			page 16


 670              	.LFB41:
 124:src/PCB.cpp   **** 
 125:src/PCB.cpp   **** void PCB::threadCreateHandler()
 126:src/PCB.cpp   **** {
 671              		.loc 1 126 1 is_stmt 1
 672              		.cfi_startproc
 673 0404 130101FC 		addi	sp,sp,-64
 674              		.cfi_def_cfa_offset 64
 675 0408 233C1102 		sd	ra,56(sp)
 676 040c 23388102 		sd	s0,48(sp)
 677 0410 23349102 		sd	s1,40(sp)
 678 0414 23302103 		sd	s2,32(sp)
 679 0418 233C3101 		sd	s3,24(sp)
 680 041c 23384101 		sd	s4,16(sp)
 681 0420 23345101 		sd	s5,8(sp)
 682              		.cfi_offset 1, -8
 683              		.cfi_offset 8, -16
 684              		.cfi_offset 9, -24
 685              		.cfi_offset 18, -32
 686              		.cfi_offset 19, -40
 687              		.cfi_offset 20, -48
 688              		.cfi_offset 21, -56
 689 0424 13040104 		addi	s0,sp,64
 690              		.cfi_def_cfa 8, 0
 127:src/PCB.cpp   ****     uint64 start_routine;
 691              		.loc 1 127 5
 128:src/PCB.cpp   ****     uint64 args;
 692              		.loc 1 128 5
 129:src/PCB.cpp   ****     PCB **threadHandle;
 693              		.loc 1 129 5
 130:src/PCB.cpp   ****     __asm__ volatile("mv %0, a1" : "=r"(threadHandle));
 694              		.loc 1 130 5
 695              		.loc 1 130 55 is_stmt 0
 696              	#APP
 697              	# 130 "src/PCB.cpp" 1
 131              	    __asm__ volatile("mv %0, a2" : "=r"(start_routine));
 698              		mv s3, a1
 699              	# 0 "" 2
 700              	.LVL52:
 701              		.loc 1 131 5 is_stmt 1
 702              		.loc 1 131 56 is_stmt 0
 703              	# 131 "src/PCB.cpp" 1
 132              	    __asm__ volatile("mv %0, a3" : "=r"(args));
 704              		mv s4, a2
 705              	# 0 "" 2
 706              	.LVL53:
 707              		.loc 1 132 5 is_stmt 1
 708              		.loc 1 132 47 is_stmt 0
 709              	# 132 "src/PCB.cpp" 1
 133              	
 710              		mv s5, a3
 711              	# 0 "" 2
 712              	.LVL54:
 134:src/PCB.cpp   ****     void* stack_space = kmalloc(DEFAULT_STACK_SIZE);
 713              		.loc 1 134 5 is_stmt 1
 714              		.loc 1 134 32 is_stmt 0
 715              	#NO_APP
GAS LISTING /tmp/cciW3ZsG.s 			page 17


 716 0434 37150000 		li	a0,4096
 717 0438 97000000 		call	_Z7kmallocm@plt
 717      E7800000 
 718              	.LVL55:
 719 0440 93040500 		mv	s1,a0
 720              	.LVL56:
 135:src/PCB.cpp   ****     if(stack_space == nullptr)
 721              		.loc 1 135 5 is_stmt 1
 722 0444 63080506 		beqz	a0,.L33
 136:src/PCB.cpp   ****     {
 137:src/PCB.cpp   ****         (*threadHandle) = nullptr;
 138:src/PCB.cpp   ****         kfree(stack_space);
 139:src/PCB.cpp   ****         __asm__ volatile("li a0, 0x01");
 140:src/PCB.cpp   ****         Riscv::w_a0_sscratch();
 141:src/PCB.cpp   ****         return;
 142:src/PCB.cpp   ****     }
 143:src/PCB.cpp   **** 
 144:src/PCB.cpp   ****     PCB *newPCB = new PCB((void (*)(void *)) start_routine, (void *) args,
 723              		.loc 1 144 5
 145:src/PCB.cpp   ****                           stack_space,
 146:src/PCB.cpp   ****                           //(void *) PCB::savedRegA4,
 147:src/PCB.cpp   ****                           DEFAULT_TIME_SLICE);
 724              		.loc 1 147 45 is_stmt 0
 725 0448 13050006 		li	a0,96
 726 044c 97000000 		call	_ZN3PCBnwEm
 726      E7800000 
 727              	.LVL57:
 728 0454 13090500 		mv	s2,a0
 729 0458 13072000 		li	a4,2
 730 045c 93860400 		mv	a3,s1
 731 0460 13860A00 		mv	a2,s5
 732 0464 93050A00 		mv	a1,s4
 733 0468 97000000 		call	_ZN3PCBC1EPFvPvES0_S0_m
 733      E7800000 
 734              	.LVL58:
 148:src/PCB.cpp   **** 
 149:src/PCB.cpp   ****     (*threadHandle) = newPCB;
 735              		.loc 1 149 5 is_stmt 1
 736              		.loc 1 149 21 is_stmt 0
 737 0470 23B02901 		sd	s2,0(s3)
 150:src/PCB.cpp   **** 
 151:src/PCB.cpp   ****     if (newPCB == 0) {
 738              		.loc 1 151 5 is_stmt 1
 739 0474 630E0904 		beqz	s2,.L34
 152:src/PCB.cpp   ****         kfree(stack_space);
 153:src/PCB.cpp   ****         __asm__ volatile("li a0, 0x01");
 154:src/PCB.cpp   ****     }
 155:src/PCB.cpp   ****     else
 156:src/PCB.cpp   ****     {
 157:src/PCB.cpp   ****         newPCB->start();
 740              		.loc 1 157 9
 741              		.loc 1 157 22 is_stmt 0
 742 0478 13050900 		mv	a0,s2
 743 047c 97000000 		call	_ZN3PCB5startEv
 743      E7800000 
 744              	.LVL59:
 158:src/PCB.cpp   ****         __asm__ volatile("li a0, 0");
GAS LISTING /tmp/cciW3ZsG.s 			page 18


 745              		.loc 1 158 9 is_stmt 1
 746              		.loc 1 158 37 is_stmt 0
 747              	#APP
 748              	# 158 "src/PCB.cpp" 1
 159              	    }
 749              		li a0, 0
 750              	# 0 "" 2
 751              	#NO_APP
 752              	.L31:
 160:src/PCB.cpp   ****     Riscv::w_a0_sscratch();
 753              		.loc 1 160 5 is_stmt 1
 754              		.loc 1 160 25 is_stmt 0
 755 0488 97000000 		call	_ZN5Riscv13w_a0_sscratchEv@plt
 755      E7800000 
 756              	.LVL60:
 757              	.L27:
 161:src/PCB.cpp   **** }
 758              		.loc 1 161 1
 759 0490 83308103 		ld	ra,56(sp)
 760              		.cfi_remember_state
 761              		.cfi_restore 1
 762 0494 03340103 		ld	s0,48(sp)
 763              		.cfi_restore 8
 764              		.cfi_def_cfa 2, 64
 765 0498 83348102 		ld	s1,40(sp)
 766              		.cfi_restore 9
 767              	.LVL61:
 768 049c 03390102 		ld	s2,32(sp)
 769              		.cfi_restore 18
 770 04a0 83398101 		ld	s3,24(sp)
 771              		.cfi_restore 19
 772              	.LVL62:
 773 04a4 033A0101 		ld	s4,16(sp)
 774              		.cfi_restore 20
 775              	.LVL63:
 776 04a8 833A8100 		ld	s5,8(sp)
 777              		.cfi_restore 21
 778              	.LVL64:
 779 04ac 13010104 		addi	sp,sp,64
 780              		.cfi_def_cfa_offset 0
 781 04b0 67800000 		jr	ra
 782              	.LVL65:
 783              	.L33:
 784              		.cfi_restore_state
 137:src/PCB.cpp   ****         kfree(stack_space);
 785              		.loc 1 137 9 is_stmt 1
 137:src/PCB.cpp   ****         kfree(stack_space);
 786              		.loc 1 137 25 is_stmt 0
 787 04b4 23B00900 		sd	zero,0(s3)
 138:src/PCB.cpp   ****         __asm__ volatile("li a0, 0x01");
 788              		.loc 1 138 9 is_stmt 1
 138:src/PCB.cpp   ****         __asm__ volatile("li a0, 0x01");
 789              		.loc 1 138 14 is_stmt 0
 790 04b8 97000000 		call	_Z5kfreePKv@plt
 790      E7800000 
 791              	.LVL66:
 139:src/PCB.cpp   ****         Riscv::w_a0_sscratch();
GAS LISTING /tmp/cciW3ZsG.s 			page 19


 792              		.loc 1 139 9 is_stmt 1
 139:src/PCB.cpp   ****         Riscv::w_a0_sscratch();
 793              		.loc 1 139 40 is_stmt 0
 794              	#APP
 795              	# 139 "src/PCB.cpp" 1
 140:src/PCB.cpp   ****         return;
 796              		li a0, 0x01
 797              	# 0 "" 2
 798              		.loc 1 140 9 is_stmt 1
 140:src/PCB.cpp   ****         return;
 799              		.loc 1 140 29 is_stmt 0
 800              	#NO_APP
 801 04c4 97000000 		call	_ZN5Riscv13w_a0_sscratchEv@plt
 801      E7800000 
 802              	.LVL67:
 141:src/PCB.cpp   ****     }
 803              		.loc 1 141 9 is_stmt 1
 804 04cc 6FF05FFC 		j	.L27
 805              	.LVL68:
 806              	.L34:
 152:src/PCB.cpp   ****         __asm__ volatile("li a0, 0x01");
 807              		.loc 1 152 9
 152:src/PCB.cpp   ****         __asm__ volatile("li a0, 0x01");
 808              		.loc 1 152 14 is_stmt 0
 809 04d0 13850400 		mv	a0,s1
 810 04d4 97000000 		call	_Z5kfreePKv@plt
 810      E7800000 
 811              	.LVL69:
 153:src/PCB.cpp   ****     }
 812              		.loc 1 153 9 is_stmt 1
 153:src/PCB.cpp   ****     }
 813              		.loc 1 153 40 is_stmt 0
 814              	#APP
 815              	# 153 "src/PCB.cpp" 1
 816              		li a0, 0x01
 817              	# 0 "" 2
 818              	#NO_APP
 819 04e0 6FF09FFA 		j	.L31
 820              		.cfi_endproc
 821              	.LFE41:
 823              		.align	2
 824              		.globl	_ZN3PCB18threadStartHandlerEv
 826              	_ZN3PCB18threadStartHandlerEv:
 827              	.LFB42:
 162:src/PCB.cpp   **** 
 163:src/PCB.cpp   **** void PCB::threadStartHandler()
 164:src/PCB.cpp   **** {
 828              		.loc 1 164 1 is_stmt 1
 829              		.cfi_startproc
 830 04e4 130101FF 		addi	sp,sp,-16
 831              		.cfi_def_cfa_offset 16
 832 04e8 23341100 		sd	ra,8(sp)
 833 04ec 23308100 		sd	s0,0(sp)
 834              		.cfi_offset 1, -8
 835              		.cfi_offset 8, -16
 836 04f0 13040101 		addi	s0,sp,16
 837              		.cfi_def_cfa 8, 0
GAS LISTING /tmp/cciW3ZsG.s 			page 20


 165:src/PCB.cpp   ****     PCB* pcb;
 838              		.loc 1 165 5
 166:src/PCB.cpp   ****     __asm__ volatile("mv %0, a1" : "=r"(pcb));
 839              		.loc 1 166 5
 840              		.loc 1 166 46 is_stmt 0
 841              	#APP
 842              	# 166 "src/PCB.cpp" 1
 167              	    if(pcb != nullptr)
 843              		mv a0, a1
 844              	# 0 "" 2
 845              	.LVL70:
 846              		.loc 1 167 5 is_stmt 1
 847              	#NO_APP
 848 04f8 63040502 		beqz	a0,.L36
 168:src/PCB.cpp   ****     {
 169:src/PCB.cpp   ****         pcb->start();
 849              		.loc 1 169 9
 850              		.loc 1 169 19 is_stmt 0
 851 04fc 97000000 		call	_ZN3PCB5startEv
 851      E7800000 
 852              	.LVL71:
 170:src/PCB.cpp   ****         __asm__ volatile("li a0, 0");
 853              		.loc 1 170 9 is_stmt 1
 854              		.loc 1 170 37 is_stmt 0
 855              	#APP
 856              	# 170 "src/PCB.cpp" 1
 171              	    }
 857              		li a0, 0
 858              	# 0 "" 2
 859              	#NO_APP
 860              	.L37:
 172:src/PCB.cpp   ****     else
 173:src/PCB.cpp   ****     {
 174:src/PCB.cpp   ****         __asm__ volatile("li a0, 0x01");
 175:src/PCB.cpp   ****     }
 176:src/PCB.cpp   ****     Riscv::w_a0_sscratch();
 861              		.loc 1 176 5 is_stmt 1
 862              		.loc 1 176 25 is_stmt 0
 863 0508 97000000 		call	_ZN5Riscv13w_a0_sscratchEv@plt
 863      E7800000 
 864              	.LVL72:
 177:src/PCB.cpp   **** }
 865              		.loc 1 177 1
 866 0510 83308100 		ld	ra,8(sp)
 867              		.cfi_remember_state
 868              		.cfi_restore 1
 869 0514 03340100 		ld	s0,0(sp)
 870              		.cfi_restore 8
 871              		.cfi_def_cfa 2, 16
 872 0518 13010101 		addi	sp,sp,16
 873              		.cfi_def_cfa_offset 0
 874 051c 67800000 		jr	ra
 875              	.LVL73:
 876              	.L36:
 877              		.cfi_restore_state
 174:src/PCB.cpp   ****     }
 878              		.loc 1 174 9 is_stmt 1
GAS LISTING /tmp/cciW3ZsG.s 			page 21


 174:src/PCB.cpp   ****     }
 879              		.loc 1 174 40 is_stmt 0
 880              	#APP
 881              	# 174 "src/PCB.cpp" 1
 882              		li a0, 0x01
 883              	# 0 "" 2
 884              	#NO_APP
 885 0524 6FF05FFE 		j	.L37
 886              		.cfi_endproc
 887              	.LFE42:
 889              		.align	2
 890              		.globl	_ZN3PCB20threadMakePCBHandlerEv
 892              	_ZN3PCB20threadMakePCBHandlerEv:
 893              	.LFB43:
 178:src/PCB.cpp   **** 
 179:src/PCB.cpp   **** void PCB::threadMakePCBHandler()
 180:src/PCB.cpp   **** {
 894              		.loc 1 180 1 is_stmt 1
 895              		.cfi_startproc
 896 0528 130101FC 		addi	sp,sp,-64
 897              		.cfi_def_cfa_offset 64
 898 052c 233C1102 		sd	ra,56(sp)
 899 0530 23388102 		sd	s0,48(sp)
 900 0534 23349102 		sd	s1,40(sp)
 901 0538 23302103 		sd	s2,32(sp)
 902 053c 233C3101 		sd	s3,24(sp)
 903 0540 23384101 		sd	s4,16(sp)
 904 0544 23345101 		sd	s5,8(sp)
 905              		.cfi_offset 1, -8
 906              		.cfi_offset 8, -16
 907              		.cfi_offset 9, -24
 908              		.cfi_offset 18, -32
 909              		.cfi_offset 19, -40
 910              		.cfi_offset 20, -48
 911              		.cfi_offset 21, -56
 912 0548 13040104 		addi	s0,sp,64
 913              		.cfi_def_cfa 8, 0
 181:src/PCB.cpp   ****     uint64 start_routine;
 914              		.loc 1 181 5
 182:src/PCB.cpp   ****     uint64 args;
 915              		.loc 1 182 5
 183:src/PCB.cpp   ****     PCB **threadHandle;
 916              		.loc 1 183 5
 184:src/PCB.cpp   ****     __asm__ volatile("mv %0, a1" : "=r"(threadHandle));
 917              		.loc 1 184 5
 918              		.loc 1 184 55 is_stmt 0
 919              	#APP
 920              	# 184 "src/PCB.cpp" 1
 185              	    __asm__ volatile("mv %0, a2" : "=r"(start_routine));
 921              		mv s3, a1
 922              	# 0 "" 2
 923              	.LVL74:
 924              		.loc 1 185 5 is_stmt 1
 925              		.loc 1 185 56 is_stmt 0
 926              	# 185 "src/PCB.cpp" 1
 186              	    __asm__ volatile("mv %0, a3" : "=r"(args));
 927              		mv s4, a2
GAS LISTING /tmp/cciW3ZsG.s 			page 22


 928              	# 0 "" 2
 929              	.LVL75:
 930              		.loc 1 186 5 is_stmt 1
 931              		.loc 1 186 47 is_stmt 0
 932              	# 186 "src/PCB.cpp" 1
 187              	
 933              		mv s5, a3
 934              	# 0 "" 2
 935              	.LVL76:
 188:src/PCB.cpp   ****     void* stack_space = kmalloc(DEFAULT_STACK_SIZE);
 936              		.loc 1 188 5 is_stmt 1
 937              		.loc 1 188 32 is_stmt 0
 938              	#NO_APP
 939 0558 37150000 		li	a0,4096
 940 055c 97000000 		call	_Z7kmallocm@plt
 940      E7800000 
 941              	.LVL77:
 942 0564 93040500 		mv	s1,a0
 943              	.LVL78:
 189:src/PCB.cpp   ****     if(stack_space == nullptr)
 944              		.loc 1 189 5 is_stmt 1
 945 0568 63020506 		beqz	a0,.L45
 190:src/PCB.cpp   ****     {
 191:src/PCB.cpp   ****         (*threadHandle) = nullptr;
 192:src/PCB.cpp   ****         kfree(stack_space);
 193:src/PCB.cpp   ****         __asm__ volatile("li a0, 0x01");
 194:src/PCB.cpp   ****         Riscv::w_a0_sscratch();
 195:src/PCB.cpp   ****         return;
 196:src/PCB.cpp   ****     }
 197:src/PCB.cpp   **** 
 198:src/PCB.cpp   ****     PCB *newPCB = new PCB((void (*)(void *)) start_routine, (void *) args,
 946              		.loc 1 198 5
 199:src/PCB.cpp   ****                           stack_space,
 200:src/PCB.cpp   ****                           //(void *) PCB::savedRegA4,
 201:src/PCB.cpp   ****                           DEFAULT_TIME_SLICE);
 947              		.loc 1 201 45 is_stmt 0
 948 056c 13050006 		li	a0,96
 949 0570 97000000 		call	_ZN3PCBnwEm
 949      E7800000 
 950              	.LVL79:
 951 0578 13090500 		mv	s2,a0
 952 057c 13072000 		li	a4,2
 953 0580 93860400 		mv	a3,s1
 954 0584 13860A00 		mv	a2,s5
 955 0588 93050A00 		mv	a1,s4
 956 058c 97000000 		call	_ZN3PCBC1EPFvPvES0_S0_m
 956      E7800000 
 957              	.LVL80:
 202:src/PCB.cpp   **** 
 203:src/PCB.cpp   ****     (*threadHandle) = newPCB;
 958              		.loc 1 203 5 is_stmt 1
 959              		.loc 1 203 21 is_stmt 0
 960 0594 23B02901 		sd	s2,0(s3)
 204:src/PCB.cpp   **** 
 205:src/PCB.cpp   ****     if (newPCB == nullptr)
 961              		.loc 1 205 5 is_stmt 1
 962 0598 63080904 		beqz	s2,.L46
GAS LISTING /tmp/cciW3ZsG.s 			page 23


 206:src/PCB.cpp   ****     {
 207:src/PCB.cpp   ****         kfree(stack_space);
 208:src/PCB.cpp   ****         __asm__ volatile("li a0, 0x01");
 209:src/PCB.cpp   ****     }
 210:src/PCB.cpp   ****     else
 211:src/PCB.cpp   ****         __asm__ volatile("li a0, 0");
 963              		.loc 1 211 9
 964              		.loc 1 211 37 is_stmt 0
 965              	#APP
 966              	# 211 "src/PCB.cpp" 1
 212              	    Riscv::w_a0_sscratch();
 967              		li a0, 0
 968              	# 0 "" 2
 969              	#NO_APP
 970              	.L43:
 971              		.loc 1 212 5 is_stmt 1
 972              		.loc 1 212 25 is_stmt 0
 973 05a0 97000000 		call	_ZN5Riscv13w_a0_sscratchEv@plt
 973      E7800000 
 974              	.LVL81:
 975              	.L39:
 213:src/PCB.cpp   **** }
 976              		.loc 1 213 1
 977 05a8 83308103 		ld	ra,56(sp)
 978              		.cfi_remember_state
 979              		.cfi_restore 1
 980 05ac 03340103 		ld	s0,48(sp)
 981              		.cfi_restore 8
 982              		.cfi_def_cfa 2, 64
 983 05b0 83348102 		ld	s1,40(sp)
 984              		.cfi_restore 9
 985              	.LVL82:
 986 05b4 03390102 		ld	s2,32(sp)
 987              		.cfi_restore 18
 988 05b8 83398101 		ld	s3,24(sp)
 989              		.cfi_restore 19
 990              	.LVL83:
 991 05bc 033A0101 		ld	s4,16(sp)
 992              		.cfi_restore 20
 993              	.LVL84:
 994 05c0 833A8100 		ld	s5,8(sp)
 995              		.cfi_restore 21
 996              	.LVL85:
 997 05c4 13010104 		addi	sp,sp,64
 998              		.cfi_def_cfa_offset 0
 999 05c8 67800000 		jr	ra
 1000              	.LVL86:
 1001              	.L45:
 1002              		.cfi_restore_state
 191:src/PCB.cpp   ****         kfree(stack_space);
 1003              		.loc 1 191 9 is_stmt 1
 191:src/PCB.cpp   ****         kfree(stack_space);
 1004              		.loc 1 191 25 is_stmt 0
 1005 05cc 23B00900 		sd	zero,0(s3)
 192:src/PCB.cpp   ****         __asm__ volatile("li a0, 0x01");
 1006              		.loc 1 192 9 is_stmt 1
 192:src/PCB.cpp   ****         __asm__ volatile("li a0, 0x01");
GAS LISTING /tmp/cciW3ZsG.s 			page 24


 1007              		.loc 1 192 14 is_stmt 0
 1008 05d0 97000000 		call	_Z5kfreePKv@plt
 1008      E7800000 
 1009              	.LVL87:
 193:src/PCB.cpp   ****         Riscv::w_a0_sscratch();
 1010              		.loc 1 193 9 is_stmt 1
 193:src/PCB.cpp   ****         Riscv::w_a0_sscratch();
 1011              		.loc 1 193 40 is_stmt 0
 1012              	#APP
 1013              	# 193 "src/PCB.cpp" 1
 194:src/PCB.cpp   ****         return;
 1014              		li a0, 0x01
 1015              	# 0 "" 2
 1016              		.loc 1 194 9 is_stmt 1
 194:src/PCB.cpp   ****         return;
 1017              		.loc 1 194 29 is_stmt 0
 1018              	#NO_APP
 1019 05dc 97000000 		call	_ZN5Riscv13w_a0_sscratchEv@plt
 1019      E7800000 
 1020              	.LVL88:
 195:src/PCB.cpp   ****     }
 1021              		.loc 1 195 9 is_stmt 1
 1022 05e4 6FF05FFC 		j	.L39
 1023              	.LVL89:
 1024              	.L46:
 207:src/PCB.cpp   ****         __asm__ volatile("li a0, 0x01");
 1025              		.loc 1 207 9
 207:src/PCB.cpp   ****         __asm__ volatile("li a0, 0x01");
 1026              		.loc 1 207 14 is_stmt 0
 1027 05e8 13850400 		mv	a0,s1
 1028 05ec 97000000 		call	_Z5kfreePKv@plt
 1028      E7800000 
 1029              	.LVL90:
 208:src/PCB.cpp   ****     }
 1030              		.loc 1 208 9 is_stmt 1
 208:src/PCB.cpp   ****     }
 1031              		.loc 1 208 40 is_stmt 0
 1032              	#APP
 1033              	# 208 "src/PCB.cpp" 1
 1034              		li a0, 0x01
 1035              	# 0 "" 2
 1036              	#NO_APP
 1037 05f8 6FF09FFA 		j	.L43
 1038              		.cfi_endproc
 1039              	.LFE43:
 1041              		.align	2
 1042              		.globl	_ZN3PCB19threadDelPCBHandlerEv
 1044              	_ZN3PCB19threadDelPCBHandlerEv:
 1045              	.LFB44:
 214:src/PCB.cpp   **** 
 215:src/PCB.cpp   **** void PCB::threadDelPCBHandler()
 216:src/PCB.cpp   **** {
 1046              		.loc 1 216 1 is_stmt 1
 1047              		.cfi_startproc
 1048 05fc 130101FE 		addi	sp,sp,-32
 1049              		.cfi_def_cfa_offset 32
 1050 0600 233C1100 		sd	ra,24(sp)
GAS LISTING /tmp/cciW3ZsG.s 			page 25


 1051 0604 23388100 		sd	s0,16(sp)
 1052 0608 23349100 		sd	s1,8(sp)
 1053              		.cfi_offset 1, -8
 1054              		.cfi_offset 8, -16
 1055              		.cfi_offset 9, -24
 1056 060c 13040102 		addi	s0,sp,32
 1057              		.cfi_def_cfa 8, 0
 217:src/PCB.cpp   ****     PCB* pcb;
 1058              		.loc 1 217 5
 218:src/PCB.cpp   ****     __asm__ volatile("mv %0, a1" : "=r"(pcb));
 1059              		.loc 1 218 5
 1060              		.loc 1 218 46 is_stmt 0
 1061              	#APP
 1062              	# 218 "src/PCB.cpp" 1
 219              	    if(pcb != nullptr)
 1063              		mv s1, a1
 1064              	# 0 "" 2
 1065              	.LVL91:
 1066              		.loc 1 219 5 is_stmt 1
 1067              	#NO_APP
 1068 0614 638E0402 		beqz	s1,.L48
 220:src/PCB.cpp   ****     {
 221:src/PCB.cpp   ****         delete pcb;
 1069              		.loc 1 221 9 discriminator 1
 1070              		.loc 1 221 16 is_stmt 0 discriminator 1
 1071 0618 13850400 		mv	a0,s1
 1072 061c 97000000 		call	_ZN3PCBD1Ev
 1072      E7800000 
 1073              	.LVL92:
 1074 0624 13850400 		mv	a0,s1
 1075 0628 97000000 		call	_ZN3PCBdlEPv
 1075      E7800000 
 1076              	.LVL93:
 222:src/PCB.cpp   ****         __asm__ volatile("li a0, 0x0");
 1077              		.loc 1 222 9 is_stmt 1 discriminator 1
 1078              		.loc 1 222 39 is_stmt 0 discriminator 1
 1079              	#APP
 1080              	# 222 "src/PCB.cpp" 1
 223              	    }
 1081              		li a0, 0x0
 1082              	# 0 "" 2
 1083              	#NO_APP
 1084              	.L49:
 224:src/PCB.cpp   ****     else
 225:src/PCB.cpp   ****     {
 226:src/PCB.cpp   ****         __asm__ volatile("li a0, 0x1");
 227:src/PCB.cpp   ****     }
 228:src/PCB.cpp   ****     Riscv::w_a0_sscratch();
 1085              		.loc 1 228 5 is_stmt 1
 1086              		.loc 1 228 25 is_stmt 0
 1087 0634 97000000 		call	_ZN5Riscv13w_a0_sscratchEv@plt
 1087      E7800000 
 1088              	.LVL94:
 229:src/PCB.cpp   **** }
 1089              		.loc 1 229 1
 1090 063c 83308101 		ld	ra,24(sp)
 1091              		.cfi_remember_state
GAS LISTING /tmp/cciW3ZsG.s 			page 26


 1092              		.cfi_restore 1
 1093 0640 03340101 		ld	s0,16(sp)
 1094              		.cfi_restore 8
 1095              		.cfi_def_cfa 2, 32
 1096 0644 83348100 		ld	s1,8(sp)
 1097              		.cfi_restore 9
 1098              	.LVL95:
 1099 0648 13010102 		addi	sp,sp,32
 1100              		.cfi_def_cfa_offset 0
 1101 064c 67800000 		jr	ra
 1102              	.LVL96:
 1103              	.L48:
 1104              		.cfi_restore_state
 226:src/PCB.cpp   ****     }
 1105              		.loc 1 226 9 is_stmt 1
 226:src/PCB.cpp   ****     }
 1106              		.loc 1 226 39 is_stmt 0
 1107              	#APP
 1108              	# 226 "src/PCB.cpp" 1
 1109              		li a0, 0x1
 1110              	# 0 "" 2
 1111              	#NO_APP
 1112 0654 6FF01FFE 		j	.L49
 1113              		.cfi_endproc
 1114              	.LFE44:
 1116              		.globl	_ZN3PCB7userPCBE
 1117              		.globl	_ZN3PCB10consolePCBE
 1118              		.globl	_ZN3PCB10savedRegA4E
 1119              		.globl	_ZN3PCB16timeSliceCounterE
 1120              		.globl	_ZN3PCB7runningE
 1121              		.bss
 1122              		.align	3
 1123              		.set	.LANCHOR0,. + 0
 1126              	_ZN3PCB7runningE:
 1127 0000 00000000 		.zero	8
 1127      00000000 
 1130              	_ZN3PCB10consolePCBE:
 1131 0008 00000000 		.zero	8
 1131      00000000 
 1134              	_ZN3PCB7userPCBE:
 1135 0010 00000000 		.zero	8
 1135      00000000 
 1138              	_ZN3PCB16timeSliceCounterE:
 1139 0018 00000000 		.zero	8
 1139      00000000 
 1142              	_ZN3PCB10savedRegA4E:
 1143 0020 00000000 		.zero	8
 1143      00000000 
 1144              		.text
 1145              	.Letext0:
 1146              		.file 3 "src/../h/../lib/hw.h"
 1147              		.file 4 "src/../h/SleepPCBList.hpp"
 1148              		.file 5 "src/../h/Scheduler.hpp"
 1149              		.file 6 "src/../h/slabAllocator.hpp"
 1150              		.file 7 "src/../h/Riscv.hpp"
 1151              		.file 8 "src/../h/syscall_c.hpp"
 4975              		.align	3
GAS LISTING /tmp/cciW3ZsG.s 			page 27


 4978              	DW.ref.__gxx_personality_v0:
 4979 0000 00000000 		.dword	__gxx_personality_v0
 4979      00000000 
 4980              		.ident	"GCC: (Ubuntu 9.4.0-1ubuntu1~20.04) 9.4.0"
 4981              		.section	.note.GNU-stack,"",@progbits
GAS LISTING /tmp/cciW3ZsG.s 			page 28


DEFINED SYMBOLS
                            *ABS*:0000000000000000 PCB.cpp
     /tmp/cciW3ZsG.s:9      .text:0000000000000000 _ZN3PCB6runnerEv
     /tmp/cciW3ZsG.s:13     .text:0000000000000000 .L0 
     /tmp/cciW3ZsG.s:14     .text:0000000000000000 .L0 
     /tmp/cciW3ZsG.s:15     .text:0000000000000004 .L0 
     /tmp/cciW3ZsG.s:18     .text:000000000000000c .L0 
     /tmp/cciW3ZsG.s:19     .text:000000000000000c .L0 
     /tmp/cciW3ZsG.s:21     .text:0000000000000010 .L0 
     /tmp/cciW3ZsG.s:23     .text:0000000000000010 .L0 
     /tmp/cciW3ZsG.s:24     .text:0000000000000010 .L0 
     /tmp/cciW3ZsG.s:27     .text:0000000000000018 .L0 
     /tmp/cciW3ZsG.s:28     .text:0000000000000018 .L0 
     /tmp/cciW3ZsG.s:31     .text:0000000000000024 .L0 
     /tmp/cciW3ZsG.s:35     .text:000000000000002c .L0 
     /tmp/cciW3ZsG.s:36     .text:000000000000002c .L0 
     /tmp/cciW3ZsG.s:39     .text:0000000000000034 .L0 
     /tmp/cciW3ZsG.s:40     .text:0000000000000038 .L0 
     /tmp/cciW3ZsG.s:42     .text:000000000000003c .L0 
     /tmp/cciW3ZsG.s:43     .text:000000000000003c .L0 
     /tmp/cciW3ZsG.s:45     .text:0000000000000040 .L0 
     /tmp/cciW3ZsG.s:47     .text:0000000000000044 .L0 
     /tmp/cciW3ZsG.s:53     .text:0000000000000044 _ZN3PCBC2EPFvPvES0_S0_m
     /tmp/cciW3ZsG.s:56     .text:0000000000000044 .L0 
     /tmp/cciW3ZsG.s:58     .text:0000000000000044 .L0 
     /tmp/cciW3ZsG.s:59     .text:0000000000000048 .L0 
     /tmp/cciW3ZsG.s:61     .text:000000000000004c .L0 
     /tmp/cciW3ZsG.s:63     .text:0000000000000050 .L0 
     /tmp/cciW3ZsG.s:66     .text:0000000000000050 .L0 
     /tmp/cciW3ZsG.s:73     .text:0000000000000068 .L0 
     /tmp/cciW3ZsG.s:77     .text:0000000000000070 .L0 
     /tmp/cciW3ZsG.s:82     .text:0000000000000084 .L0 
     /tmp/cciW3ZsG.s:83     .text:0000000000000084 .L0 
     /tmp/cciW3ZsG.s:86     .text:0000000000000088 .L0 
     /tmp/cciW3ZsG.s:87     .text:000000000000008c .L0 
     /tmp/cciW3ZsG.s:88     .text:000000000000008c .L0 
     /tmp/cciW3ZsG.s:90     .text:0000000000000090 .L0 
     /tmp/cciW3ZsG.s:92     .text:0000000000000094 .L0 
     /tmp/cciW3ZsG.s:53     .text:0000000000000044 _ZN3PCBC1EPFvPvES0_S0_m
     /tmp/cciW3ZsG.s:100    .text:0000000000000094 _ZN3PCB5startEv
     /tmp/cciW3ZsG.s:103    .text:0000000000000094 .L0 
     /tmp/cciW3ZsG.s:105    .text:0000000000000094 .L0 
     /tmp/cciW3ZsG.s:106    .text:0000000000000098 .L0 
     /tmp/cciW3ZsG.s:109    .text:00000000000000a0 .L0 
     /tmp/cciW3ZsG.s:110    .text:00000000000000a0 .L0 
     /tmp/cciW3ZsG.s:112    .text:00000000000000a4 .L0 
     /tmp/cciW3ZsG.s:114    .text:00000000000000a4 .L0 
     /tmp/cciW3ZsG.s:115    .text:00000000000000a4 .L0 
     /tmp/cciW3ZsG.s:118    .text:00000000000000ac .L0 
     /tmp/cciW3ZsG.s:119    .text:00000000000000b0 .L0 
     /tmp/cciW3ZsG.s:121    .text:00000000000000b4 .L0 
     /tmp/cciW3ZsG.s:122    .text:00000000000000b4 .L0 
     /tmp/cciW3ZsG.s:124    .text:00000000000000b8 .L0 
     /tmp/cciW3ZsG.s:126    .text:00000000000000bc .L0 
     /tmp/cciW3ZsG.s:132    .text:00000000000000bc _ZN3PCB8dispatchEv
     /tmp/cciW3ZsG.s:135    .text:00000000000000bc .L0 
     /tmp/cciW3ZsG.s:136    .text:00000000000000bc .L0 
GAS LISTING /tmp/cciW3ZsG.s 			page 29


     /tmp/cciW3ZsG.s:137    .text:00000000000000c0 .L0 
     /tmp/cciW3ZsG.s:142    .text:00000000000000d0 .L0 
     /tmp/cciW3ZsG.s:143    .text:00000000000000d0 .L0 
     /tmp/cciW3ZsG.s:144    .text:00000000000000d0 .L0 
     /tmp/cciW3ZsG.s:145    .text:00000000000000d0 .L0 
     /tmp/cciW3ZsG.s:147    .text:00000000000000d4 .L0 
     /tmp/cciW3ZsG.s:149    .text:00000000000000d4 .L0 
     /tmp/cciW3ZsG.s:150    .text:00000000000000d4 .L0 
     /tmp/cciW3ZsG.s:156    .text:00000000000000dc .L0 
     /tmp/cciW3ZsG.s:157    .text:00000000000000dc .L0 
     /tmp/cciW3ZsG.s:158    .text:00000000000000dc .L0 
     /tmp/cciW3ZsG.s:163    .text:00000000000000e0 .L0 
     /tmp/cciW3ZsG.s:167    .text:00000000000000e8 .L0 
     /tmp/cciW3ZsG.s:168    .text:00000000000000e8 .L0 
     /tmp/cciW3ZsG.s:171    .text:00000000000000f0 .L0 
     /tmp/cciW3ZsG.s:177    .text:00000000000000fc .L0 
     /tmp/cciW3ZsG.s:178    .text:00000000000000fc .L0 
     /tmp/cciW3ZsG.s:179    .text:00000000000000fc .L0 
     /tmp/cciW3ZsG.s:185    .text:0000000000000104 .L0 
     /tmp/cciW3ZsG.s:186    .text:0000000000000104 .L0 
     /tmp/cciW3ZsG.s:189    .text:000000000000010c .L0 
     /tmp/cciW3ZsG.s:190    .text:000000000000010c .L0 
     /tmp/cciW3ZsG.s:192    .text:0000000000000110 .L0 
     /tmp/cciW3ZsG.s:197    .text:0000000000000120 .L0 
     /tmp/cciW3ZsG.s:198    .text:0000000000000124 .L0 
     /tmp/cciW3ZsG.s:199    .text:0000000000000124 .L0 
     /tmp/cciW3ZsG.s:201    .text:0000000000000128 .L0 
     /tmp/cciW3ZsG.s:202    .text:0000000000000128 .L0 
     /tmp/cciW3ZsG.s:204    .text:000000000000012c .L0 
     /tmp/cciW3ZsG.s:207    .text:0000000000000130 .L0 
     /tmp/cciW3ZsG.s:209    .text:0000000000000134 .L0 
     /tmp/cciW3ZsG.s:213    .text:0000000000000138 .L0 
     /tmp/cciW3ZsG.s:215    .text:0000000000000138 .L0 
     /tmp/cciW3ZsG.s:216    .text:0000000000000138 .L0 
     /tmp/cciW3ZsG.s:220    .text:0000000000000148 .L0 
     /tmp/cciW3ZsG.s:226    .text:0000000000000148 _ZN3PCBnwEm
     /tmp/cciW3ZsG.s:229    .text:0000000000000148 .L0 
     /tmp/cciW3ZsG.s:231    .text:0000000000000148 .L0 
     /tmp/cciW3ZsG.s:232    .text:000000000000014c .L0 
     /tmp/cciW3ZsG.s:235    .text:0000000000000154 .L0 
     /tmp/cciW3ZsG.s:236    .text:0000000000000154 .L0 
     /tmp/cciW3ZsG.s:238    .text:0000000000000158 .L0 
     /tmp/cciW3ZsG.s:240    .text:0000000000000158 .L0 
     /tmp/cciW3ZsG.s:241    .text:0000000000000158 .L0 
     /tmp/cciW3ZsG.s:247    .text:000000000000016c .L0 
     /tmp/cciW3ZsG.s:248    .text:0000000000000170 .L0 
     /tmp/cciW3ZsG.s:250    .text:0000000000000174 .L0 
     /tmp/cciW3ZsG.s:251    .text:0000000000000174 .L0 
     /tmp/cciW3ZsG.s:253    .text:0000000000000178 .L0 
     /tmp/cciW3ZsG.s:255    .text:000000000000017c .L0 
     /tmp/cciW3ZsG.s:261    .text:000000000000017c _ZN3PCBdlEPv
     /tmp/cciW3ZsG.s:264    .text:000000000000017c .L0 
     /tmp/cciW3ZsG.s:266    .text:000000000000017c .L0 
     /tmp/cciW3ZsG.s:267    .text:0000000000000180 .L0 
     /tmp/cciW3ZsG.s:270    .text:0000000000000188 .L0 
     /tmp/cciW3ZsG.s:271    .text:0000000000000188 .L0 
     /tmp/cciW3ZsG.s:273    .text:000000000000018c .L0 
GAS LISTING /tmp/cciW3ZsG.s 			page 30


     /tmp/cciW3ZsG.s:276    .text:0000000000000190 .L0 
     /tmp/cciW3ZsG.s:277    .text:0000000000000190 .L0 
     /tmp/cciW3ZsG.s:283    .text:00000000000001a4 .L0 
     /tmp/cciW3ZsG.s:284    .text:00000000000001a8 .L0 
     /tmp/cciW3ZsG.s:286    .text:00000000000001ac .L0 
     /tmp/cciW3ZsG.s:287    .text:00000000000001ac .L0 
     /tmp/cciW3ZsG.s:289    .text:00000000000001b0 .L0 
     /tmp/cciW3ZsG.s:291    .text:00000000000001b4 .L0 
     /tmp/cciW3ZsG.s:297    .text:00000000000001b4 _ZN3PCBD2Ev
     /tmp/cciW3ZsG.s:300    .text:00000000000001b4 .L0 
     /tmp/cciW3ZsG.s:4978   .data.rel.local.DW.ref.__gxx_personality_v0:0000000000000000 DW.ref.__gxx_personality_v0
     /tmp/cciW3ZsG.s:304    .text:00000000000001b4 .L0 
     /tmp/cciW3ZsG.s:305    .text:00000000000001b8 .L0 
     /tmp/cciW3ZsG.s:308    .text:00000000000001c0 .L0 
     /tmp/cciW3ZsG.s:309    .text:00000000000001c0 .L0 
     /tmp/cciW3ZsG.s:311    .text:00000000000001c4 .L0 
     /tmp/cciW3ZsG.s:314    .text:00000000000001c4 .L0 
     /tmp/cciW3ZsG.s:315    .text:00000000000001c4 .L0 
     /tmp/cciW3ZsG.s:321    .text:00000000000001d0 .L0 
     /tmp/cciW3ZsG.s:322    .text:00000000000001d4 .L0 
     /tmp/cciW3ZsG.s:324    .text:00000000000001d8 .L0 
     /tmp/cciW3ZsG.s:325    .text:00000000000001d8 .L0 
     /tmp/cciW3ZsG.s:327    .text:00000000000001dc .L0 
     /tmp/cciW3ZsG.s:329    .text:00000000000001e0 .L0 
     /tmp/cciW3ZsG.s:297    .text:00000000000001b4 _ZN3PCBD1Ev
     /tmp/cciW3ZsG.s:345    .text:00000000000001e0 _ZN3PCB10initializeEv
     /tmp/cciW3ZsG.s:348    .text:00000000000001e0 .L0 
     /tmp/cciW3ZsG.s:349    .text:00000000000001e0 .L0 
     /tmp/cciW3ZsG.s:350    .text:00000000000001e4 .L0 
     /tmp/cciW3ZsG.s:357    .text:00000000000001fc .L0 
     /tmp/cciW3ZsG.s:358    .text:00000000000001fc .L0 
     /tmp/cciW3ZsG.s:359    .text:00000000000001fc .L0 
     /tmp/cciW3ZsG.s:360    .text:00000000000001fc .L0 
     /tmp/cciW3ZsG.s:361    .text:00000000000001fc .L0 
     /tmp/cciW3ZsG.s:362    .text:00000000000001fc .L0 
     /tmp/cciW3ZsG.s:364    .text:0000000000000200 .L0 
     /tmp/cciW3ZsG.s:366    .text:0000000000000200 .L0 
     /tmp/cciW3ZsG.s:367    .text:0000000000000200 .L0 
     /tmp/cciW3ZsG.s:378    .text:0000000000000228 .L0 
     /tmp/cciW3ZsG.s:379    .text:0000000000000228 .L0 
     /tmp/cciW3ZsG.s:382    .text:0000000000000230 .L0 
     /tmp/cciW3ZsG.s:383    .text:0000000000000230 .L0 
     /tmp/cciW3ZsG.s:389    .text:000000000000023c .L0 
     /tmp/cciW3ZsG.s:390    .text:000000000000023c .L0 
     /tmp/cciW3ZsG.s:391    .text:000000000000023c .L0 
     /tmp/cciW3ZsG.s:397    .text:0000000000000244 .L0 
     /tmp/cciW3ZsG.s:398    .text:0000000000000244 .L0 
     /tmp/cciW3ZsG.s:403    .text:0000000000000254 .L0 
     /tmp/cciW3ZsG.s:415    .text:0000000000000280 .L0 
     /tmp/cciW3ZsG.s:417    .text:0000000000000284 .L0 
     /tmp/cciW3ZsG.s:418    .text:0000000000000284 .L0 
     /tmp/cciW3ZsG.s:420    .text:0000000000000288 .L0 
     /tmp/cciW3ZsG.s:421    .text:0000000000000288 .L0 
     /tmp/cciW3ZsG.s:425    .text:0000000000000294 .L0 
     /tmp/cciW3ZsG.s:426    .text:0000000000000294 .L0 
     /tmp/cciW3ZsG.s:431    .text:00000000000002a4 .L0 
     /tmp/cciW3ZsG.s:442    .text:00000000000002d0 .L0 
GAS LISTING /tmp/cciW3ZsG.s 			page 31


     /tmp/cciW3ZsG.s:444    .text:00000000000002d4 .L0 
     /tmp/cciW3ZsG.s:445    .text:00000000000002d4 .L0 
     /tmp/cciW3ZsG.s:449    .text:00000000000002e0 .L0 
     /tmp/cciW3ZsG.s:450    .text:00000000000002e4 .L0 
     /tmp/cciW3ZsG.s:452    .text:00000000000002e8 .L0 
     /tmp/cciW3ZsG.s:453    .text:00000000000002e8 .L0 
     /tmp/cciW3ZsG.s:455    .text:00000000000002ec .L0 
     /tmp/cciW3ZsG.s:457    .text:00000000000002f0 .L0 
     /tmp/cciW3ZsG.s:459    .text:00000000000002f4 .L0 
     /tmp/cciW3ZsG.s:461    .text:00000000000002f8 .L0 
     /tmp/cciW3ZsG.s:463    .text:00000000000002fc .L0 
     /tmp/cciW3ZsG.s:465    .text:0000000000000300 .L0 
     /tmp/cciW3ZsG.s:471    .text:0000000000000300 _ZN3PCB10isFinishedEv
     /tmp/cciW3ZsG.s:474    .text:0000000000000300 .L0 
     /tmp/cciW3ZsG.s:476    .text:0000000000000300 .L0 
     /tmp/cciW3ZsG.s:477    .text:0000000000000304 .L0 
     /tmp/cciW3ZsG.s:479    .text:0000000000000308 .L0 
     /tmp/cciW3ZsG.s:481    .text:000000000000030c .L0 
     /tmp/cciW3ZsG.s:483    .text:000000000000030c .L0 
     /tmp/cciW3ZsG.s:484    .text:000000000000030c .L0 
     /tmp/cciW3ZsG.s:487    .text:0000000000000310 .L0 
     /tmp/cciW3ZsG.s:489    .text:0000000000000314 .L0 
     /tmp/cciW3ZsG.s:491    .text:000000000000031c .L0 
     /tmp/cciW3ZsG.s:492    .text:000000000000031c .L0 
     /tmp/cciW3ZsG.s:494    .text:0000000000000320 .L0 
     /tmp/cciW3ZsG.s:496    .text:0000000000000324 .L0 
     /tmp/cciW3ZsG.s:502    .text:0000000000000324 _ZN3PCB17threadExitHandlerEv
     /tmp/cciW3ZsG.s:505    .text:0000000000000324 .L0 
     /tmp/cciW3ZsG.s:506    .text:0000000000000324 .L0 
     /tmp/cciW3ZsG.s:507    .text:0000000000000328 .L0 
     /tmp/cciW3ZsG.s:510    .text:0000000000000330 .L0 
     /tmp/cciW3ZsG.s:511    .text:0000000000000330 .L0 
     /tmp/cciW3ZsG.s:513    .text:0000000000000334 .L0 
     /tmp/cciW3ZsG.s:515    .text:0000000000000334 .L0 
     /tmp/cciW3ZsG.s:516    .text:0000000000000334 .L0 
     /tmp/cciW3ZsG.s:519    .text:0000000000000340 .L0 
     /tmp/cciW3ZsG.s:520    .text:0000000000000340 .L0 
     /tmp/cciW3ZsG.s:525    .text:0000000000000344 .L0 
     /tmp/cciW3ZsG.s:526    .text:0000000000000344 .L0 
     /tmp/cciW3ZsG.s:532    .text:000000000000034c .L0 
     /tmp/cciW3ZsG.s:533    .text:000000000000034c .L0 
     /tmp/cciW3ZsG.s:536    .text:0000000000000354 .L0 
         src/PCB.cpp:103    .text:0000000000000354 .L0 
     /tmp/cciW3ZsG.s:542    .text:0000000000000358 .L0 
     /tmp/cciW3ZsG.s:544    .text:0000000000000358 .L0 
     /tmp/cciW3ZsG.s:547    .text:0000000000000360 .L0 
     /tmp/cciW3ZsG.s:548    .text:0000000000000364 .L0 
     /tmp/cciW3ZsG.s:550    .text:0000000000000368 .L0 
     /tmp/cciW3ZsG.s:551    .text:0000000000000368 .L0 
     /tmp/cciW3ZsG.s:553    .text:000000000000036c .L0 
     /tmp/cciW3ZsG.s:555    .text:0000000000000370 .L0 
     /tmp/cciW3ZsG.s:561    .text:0000000000000370 _ZN3PCB21threadDispatchHandlerEv
     /tmp/cciW3ZsG.s:564    .text:0000000000000370 .L0 
     /tmp/cciW3ZsG.s:565    .text:0000000000000370 .L0 
     /tmp/cciW3ZsG.s:566    .text:0000000000000374 .L0 
     /tmp/cciW3ZsG.s:569    .text:000000000000037c .L0 
     /tmp/cciW3ZsG.s:570    .text:000000000000037c .L0 
GAS LISTING /tmp/cciW3ZsG.s 			page 32


     /tmp/cciW3ZsG.s:572    .text:0000000000000380 .L0 
     /tmp/cciW3ZsG.s:574    .text:0000000000000380 .L0 
     /tmp/cciW3ZsG.s:575    .text:0000000000000380 .L0 
     /tmp/cciW3ZsG.s:577    .text:0000000000000388 .L0 
     /tmp/cciW3ZsG.s:578    .text:0000000000000388 .L0 
     /tmp/cciW3ZsG.s:581    .text:0000000000000390 .L0 
     /tmp/cciW3ZsG.s:582    .text:0000000000000394 .L0 
     /tmp/cciW3ZsG.s:584    .text:0000000000000398 .L0 
     /tmp/cciW3ZsG.s:585    .text:0000000000000398 .L0 
     /tmp/cciW3ZsG.s:587    .text:000000000000039c .L0 
     /tmp/cciW3ZsG.s:589    .text:00000000000003a0 .L0 
     /tmp/cciW3ZsG.s:595    .text:00000000000003a0 _ZN3PCB18threadSleepHandlerEv
     /tmp/cciW3ZsG.s:598    .text:00000000000003a0 .L0 
     /tmp/cciW3ZsG.s:599    .text:00000000000003a0 .L0 
     /tmp/cciW3ZsG.s:600    .text:00000000000003a4 .L0 
     /tmp/cciW3ZsG.s:603    .text:00000000000003ac .L0 
     /tmp/cciW3ZsG.s:604    .text:00000000000003ac .L0 
     /tmp/cciW3ZsG.s:606    .text:00000000000003b0 .L0 
     /tmp/cciW3ZsG.s:608    .text:00000000000003b0 .L0 
     /tmp/cciW3ZsG.s:609    .text:00000000000003b0 .L0 
         src/PCB.cpp:116    .text:00000000000003b0 .L0 
     /tmp/cciW3ZsG.s:616    .text:00000000000003b4 .L0 
     /tmp/cciW3ZsG.s:618    .text:00000000000003b4 .L0 
     /tmp/cciW3ZsG.s:621    .text:00000000000003c0 .L0 
     /tmp/cciW3ZsG.s:622    .text:00000000000003c0 .L0 
     /tmp/cciW3ZsG.s:630    .text:00000000000003d4 .L0 
     /tmp/cciW3ZsG.s:631    .text:00000000000003d4 .L0 
     /tmp/cciW3ZsG.s:636    .text:00000000000003d8 .L0 
     /tmp/cciW3ZsG.s:637    .text:00000000000003d8 .L0 
     /tmp/cciW3ZsG.s:640    .text:00000000000003e0 .L0 
     /tmp/cciW3ZsG.s:641    .text:00000000000003e0 .L0 
     /tmp/cciW3ZsG.s:644    .text:00000000000003e8 .L0 
         src/PCB.cpp:121    .text:00000000000003e8 .L0 
     /tmp/cciW3ZsG.s:650    .text:00000000000003ec .L0 
     /tmp/cciW3ZsG.s:652    .text:00000000000003ec .L0 
     /tmp/cciW3ZsG.s:655    .text:00000000000003f4 .L0 
     /tmp/cciW3ZsG.s:656    .text:00000000000003f8 .L0 
     /tmp/cciW3ZsG.s:658    .text:00000000000003fc .L0 
     /tmp/cciW3ZsG.s:659    .text:00000000000003fc .L0 
     /tmp/cciW3ZsG.s:661    .text:0000000000000400 .L0 
     /tmp/cciW3ZsG.s:663    .text:0000000000000404 .L0 
     /tmp/cciW3ZsG.s:669    .text:0000000000000404 _ZN3PCB19threadCreateHandlerEv
     /tmp/cciW3ZsG.s:672    .text:0000000000000404 .L0 
     /tmp/cciW3ZsG.s:673    .text:0000000000000404 .L0 
     /tmp/cciW3ZsG.s:674    .text:0000000000000408 .L0 
     /tmp/cciW3ZsG.s:682    .text:0000000000000424 .L0 
     /tmp/cciW3ZsG.s:683    .text:0000000000000424 .L0 
     /tmp/cciW3ZsG.s:684    .text:0000000000000424 .L0 
     /tmp/cciW3ZsG.s:685    .text:0000000000000424 .L0 
     /tmp/cciW3ZsG.s:686    .text:0000000000000424 .L0 
     /tmp/cciW3ZsG.s:687    .text:0000000000000424 .L0 
     /tmp/cciW3ZsG.s:688    .text:0000000000000424 .L0 
     /tmp/cciW3ZsG.s:690    .text:0000000000000428 .L0 
     /tmp/cciW3ZsG.s:692    .text:0000000000000428 .L0 
     /tmp/cciW3ZsG.s:693    .text:0000000000000428 .L0 
     /tmp/cciW3ZsG.s:694    .text:0000000000000428 .L0 
     /tmp/cciW3ZsG.s:695    .text:0000000000000428 .L0 
GAS LISTING /tmp/cciW3ZsG.s 			page 33


         src/PCB.cpp:130    .text:0000000000000428 .L0 
     /tmp/cciW3ZsG.s:702    .text:000000000000042c .L0 
         src/PCB.cpp:131    .text:000000000000042c .L0 
     /tmp/cciW3ZsG.s:708    .text:0000000000000430 .L0 
         src/PCB.cpp:132    .text:0000000000000430 .L0 
     /tmp/cciW3ZsG.s:714    .text:0000000000000434 .L0 
     /tmp/cciW3ZsG.s:716    .text:0000000000000434 .L0 
     /tmp/cciW3ZsG.s:722    .text:0000000000000444 .L0 
     /tmp/cciW3ZsG.s:724    .text:0000000000000448 .L0 
     /tmp/cciW3ZsG.s:725    .text:0000000000000448 .L0 
     /tmp/cciW3ZsG.s:736    .text:0000000000000470 .L0 
     /tmp/cciW3ZsG.s:737    .text:0000000000000470 .L0 
     /tmp/cciW3ZsG.s:739    .text:0000000000000474 .L0 
     /tmp/cciW3ZsG.s:741    .text:0000000000000478 .L0 
     /tmp/cciW3ZsG.s:742    .text:0000000000000478 .L0 
     /tmp/cciW3ZsG.s:746    .text:0000000000000484 .L0 
         src/PCB.cpp:158    .text:0000000000000484 .L0 
     /tmp/cciW3ZsG.s:754    .text:0000000000000488 .L0 
     /tmp/cciW3ZsG.s:755    .text:0000000000000488 .L0 
     /tmp/cciW3ZsG.s:759    .text:0000000000000490 .L0 
     /tmp/cciW3ZsG.s:760    .text:0000000000000494 .L0 
     /tmp/cciW3ZsG.s:761    .text:0000000000000494 .L0 
     /tmp/cciW3ZsG.s:763    .text:0000000000000498 .L0 
     /tmp/cciW3ZsG.s:764    .text:0000000000000498 .L0 
     /tmp/cciW3ZsG.s:766    .text:000000000000049c .L0 
     /tmp/cciW3ZsG.s:769    .text:00000000000004a0 .L0 
     /tmp/cciW3ZsG.s:771    .text:00000000000004a4 .L0 
     /tmp/cciW3ZsG.s:774    .text:00000000000004a8 .L0 
     /tmp/cciW3ZsG.s:777    .text:00000000000004ac .L0 
     /tmp/cciW3ZsG.s:780    .text:00000000000004b0 .L0 
     /tmp/cciW3ZsG.s:784    .text:00000000000004b4 .L0 
     /tmp/cciW3ZsG.s:786    .text:00000000000004b4 .L0 
     /tmp/cciW3ZsG.s:787    .text:00000000000004b4 .L0 
     /tmp/cciW3ZsG.s:789    .text:00000000000004b8 .L0 
     /tmp/cciW3ZsG.s:790    .text:00000000000004b8 .L0 
     /tmp/cciW3ZsG.s:793    .text:00000000000004c0 .L0 
         src/PCB.cpp:139    .text:00000000000004c0 .L0 
     /tmp/cciW3ZsG.s:799    .text:00000000000004c4 .L0 
     /tmp/cciW3ZsG.s:801    .text:00000000000004c4 .L0 
     /tmp/cciW3ZsG.s:804    .text:00000000000004cc .L0 
     /tmp/cciW3ZsG.s:808    .text:00000000000004d0 .L0 
     /tmp/cciW3ZsG.s:809    .text:00000000000004d0 .L0 
     /tmp/cciW3ZsG.s:813    .text:00000000000004dc .L0 
         src/PCB.cpp:153    .text:00000000000004dc .L0 
     /tmp/cciW3ZsG.s:820    .text:00000000000004e4 .L0 
     /tmp/cciW3ZsG.s:826    .text:00000000000004e4 _ZN3PCB18threadStartHandlerEv
     /tmp/cciW3ZsG.s:829    .text:00000000000004e4 .L0 
     /tmp/cciW3ZsG.s:830    .text:00000000000004e4 .L0 
     /tmp/cciW3ZsG.s:831    .text:00000000000004e8 .L0 
     /tmp/cciW3ZsG.s:834    .text:00000000000004f0 .L0 
     /tmp/cciW3ZsG.s:835    .text:00000000000004f0 .L0 
     /tmp/cciW3ZsG.s:837    .text:00000000000004f4 .L0 
     /tmp/cciW3ZsG.s:839    .text:00000000000004f4 .L0 
     /tmp/cciW3ZsG.s:840    .text:00000000000004f4 .L0 
         src/PCB.cpp:166    .text:00000000000004f4 .L0 
     /tmp/cciW3ZsG.s:848    .text:00000000000004f8 .L0 
     /tmp/cciW3ZsG.s:850    .text:00000000000004fc .L0 
GAS LISTING /tmp/cciW3ZsG.s 			page 34


     /tmp/cciW3ZsG.s:851    .text:00000000000004fc .L0 
     /tmp/cciW3ZsG.s:854    .text:0000000000000504 .L0 
         src/PCB.cpp:170    .text:0000000000000504 .L0 
     /tmp/cciW3ZsG.s:862    .text:0000000000000508 .L0 
     /tmp/cciW3ZsG.s:863    .text:0000000000000508 .L0 
     /tmp/cciW3ZsG.s:866    .text:0000000000000510 .L0 
     /tmp/cciW3ZsG.s:867    .text:0000000000000514 .L0 
     /tmp/cciW3ZsG.s:868    .text:0000000000000514 .L0 
     /tmp/cciW3ZsG.s:870    .text:0000000000000518 .L0 
     /tmp/cciW3ZsG.s:871    .text:0000000000000518 .L0 
     /tmp/cciW3ZsG.s:873    .text:000000000000051c .L0 
     /tmp/cciW3ZsG.s:877    .text:0000000000000520 .L0 
     /tmp/cciW3ZsG.s:879    .text:0000000000000520 .L0 
         src/PCB.cpp:174    .text:0000000000000520 .L0 
     /tmp/cciW3ZsG.s:886    .text:0000000000000528 .L0 
     /tmp/cciW3ZsG.s:892    .text:0000000000000528 _ZN3PCB20threadMakePCBHandlerEv
     /tmp/cciW3ZsG.s:895    .text:0000000000000528 .L0 
     /tmp/cciW3ZsG.s:896    .text:0000000000000528 .L0 
     /tmp/cciW3ZsG.s:897    .text:000000000000052c .L0 
     /tmp/cciW3ZsG.s:905    .text:0000000000000548 .L0 
     /tmp/cciW3ZsG.s:906    .text:0000000000000548 .L0 
     /tmp/cciW3ZsG.s:907    .text:0000000000000548 .L0 
     /tmp/cciW3ZsG.s:908    .text:0000000000000548 .L0 
     /tmp/cciW3ZsG.s:909    .text:0000000000000548 .L0 
     /tmp/cciW3ZsG.s:910    .text:0000000000000548 .L0 
     /tmp/cciW3ZsG.s:911    .text:0000000000000548 .L0 
     /tmp/cciW3ZsG.s:913    .text:000000000000054c .L0 
     /tmp/cciW3ZsG.s:915    .text:000000000000054c .L0 
     /tmp/cciW3ZsG.s:916    .text:000000000000054c .L0 
     /tmp/cciW3ZsG.s:917    .text:000000000000054c .L0 
     /tmp/cciW3ZsG.s:918    .text:000000000000054c .L0 
         src/PCB.cpp:184    .text:000000000000054c .L0 
     /tmp/cciW3ZsG.s:925    .text:0000000000000550 .L0 
         src/PCB.cpp:185    .text:0000000000000550 .L0 
     /tmp/cciW3ZsG.s:931    .text:0000000000000554 .L0 
         src/PCB.cpp:186    .text:0000000000000554 .L0 
     /tmp/cciW3ZsG.s:937    .text:0000000000000558 .L0 
     /tmp/cciW3ZsG.s:939    .text:0000000000000558 .L0 
     /tmp/cciW3ZsG.s:945    .text:0000000000000568 .L0 
     /tmp/cciW3ZsG.s:947    .text:000000000000056c .L0 
     /tmp/cciW3ZsG.s:948    .text:000000000000056c .L0 
     /tmp/cciW3ZsG.s:959    .text:0000000000000594 .L0 
     /tmp/cciW3ZsG.s:960    .text:0000000000000594 .L0 
     /tmp/cciW3ZsG.s:962    .text:0000000000000598 .L0 
     /tmp/cciW3ZsG.s:964    .text:000000000000059c .L0 
         src/PCB.cpp:211    .text:000000000000059c .L0 
     /tmp/cciW3ZsG.s:972    .text:00000000000005a0 .L0 
     /tmp/cciW3ZsG.s:973    .text:00000000000005a0 .L0 
     /tmp/cciW3ZsG.s:977    .text:00000000000005a8 .L0 
     /tmp/cciW3ZsG.s:978    .text:00000000000005ac .L0 
     /tmp/cciW3ZsG.s:979    .text:00000000000005ac .L0 
     /tmp/cciW3ZsG.s:981    .text:00000000000005b0 .L0 
     /tmp/cciW3ZsG.s:982    .text:00000000000005b0 .L0 
     /tmp/cciW3ZsG.s:984    .text:00000000000005b4 .L0 
     /tmp/cciW3ZsG.s:987    .text:00000000000005b8 .L0 
     /tmp/cciW3ZsG.s:989    .text:00000000000005bc .L0 
     /tmp/cciW3ZsG.s:992    .text:00000000000005c0 .L0 
GAS LISTING /tmp/cciW3ZsG.s 			page 35


     /tmp/cciW3ZsG.s:995    .text:00000000000005c4 .L0 
     /tmp/cciW3ZsG.s:998    .text:00000000000005c8 .L0 
     /tmp/cciW3ZsG.s:1002   .text:00000000000005cc .L0 
     /tmp/cciW3ZsG.s:1004   .text:00000000000005cc .L0 
     /tmp/cciW3ZsG.s:1005   .text:00000000000005cc .L0 
     /tmp/cciW3ZsG.s:1007   .text:00000000000005d0 .L0 
     /tmp/cciW3ZsG.s:1008   .text:00000000000005d0 .L0 
     /tmp/cciW3ZsG.s:1011   .text:00000000000005d8 .L0 
         src/PCB.cpp:193    .text:00000000000005d8 .L0 
     /tmp/cciW3ZsG.s:1017   .text:00000000000005dc .L0 
     /tmp/cciW3ZsG.s:1019   .text:00000000000005dc .L0 
     /tmp/cciW3ZsG.s:1022   .text:00000000000005e4 .L0 
     /tmp/cciW3ZsG.s:1026   .text:00000000000005e8 .L0 
     /tmp/cciW3ZsG.s:1027   .text:00000000000005e8 .L0 
     /tmp/cciW3ZsG.s:1031   .text:00000000000005f4 .L0 
         src/PCB.cpp:208    .text:00000000000005f4 .L0 
     /tmp/cciW3ZsG.s:1038   .text:00000000000005fc .L0 
     /tmp/cciW3ZsG.s:1044   .text:00000000000005fc _ZN3PCB19threadDelPCBHandlerEv
     /tmp/cciW3ZsG.s:1047   .text:00000000000005fc .L0 
     /tmp/cciW3ZsG.s:1048   .text:00000000000005fc .L0 
     /tmp/cciW3ZsG.s:1049   .text:0000000000000600 .L0 
     /tmp/cciW3ZsG.s:1053   .text:000000000000060c .L0 
     /tmp/cciW3ZsG.s:1054   .text:000000000000060c .L0 
     /tmp/cciW3ZsG.s:1055   .text:000000000000060c .L0 
     /tmp/cciW3ZsG.s:1057   .text:0000000000000610 .L0 
     /tmp/cciW3ZsG.s:1059   .text:0000000000000610 .L0 
     /tmp/cciW3ZsG.s:1060   .text:0000000000000610 .L0 
         src/PCB.cpp:218    .text:0000000000000610 .L0 
     /tmp/cciW3ZsG.s:1068   .text:0000000000000614 .L0 
     /tmp/cciW3ZsG.s:1070   .text:0000000000000618 .L0 
     /tmp/cciW3ZsG.s:1071   .text:0000000000000618 .L0 
     /tmp/cciW3ZsG.s:1078   .text:0000000000000630 .L0 
         src/PCB.cpp:222    .text:0000000000000630 .L0 
     /tmp/cciW3ZsG.s:1086   .text:0000000000000634 .L0 
     /tmp/cciW3ZsG.s:1087   .text:0000000000000634 .L0 
     /tmp/cciW3ZsG.s:1090   .text:000000000000063c .L0 
     /tmp/cciW3ZsG.s:1091   .text:0000000000000640 .L0 
     /tmp/cciW3ZsG.s:1092   .text:0000000000000640 .L0 
     /tmp/cciW3ZsG.s:1094   .text:0000000000000644 .L0 
     /tmp/cciW3ZsG.s:1095   .text:0000000000000644 .L0 
     /tmp/cciW3ZsG.s:1097   .text:0000000000000648 .L0 
     /tmp/cciW3ZsG.s:1100   .text:000000000000064c .L0 
     /tmp/cciW3ZsG.s:1104   .text:0000000000000650 .L0 
     /tmp/cciW3ZsG.s:1106   .text:0000000000000650 .L0 
         src/PCB.cpp:226    .text:0000000000000650 .L0 
     /tmp/cciW3ZsG.s:1113   .text:0000000000000658 .L0 
     /tmp/cciW3ZsG.s:1134   .bss:0000000000000010 _ZN3PCB7userPCBE
     /tmp/cciW3ZsG.s:1130   .bss:0000000000000008 _ZN3PCB10consolePCBE
     /tmp/cciW3ZsG.s:1142   .bss:0000000000000020 _ZN3PCB10savedRegA4E
     /tmp/cciW3ZsG.s:1138   .bss:0000000000000018 _ZN3PCB16timeSliceCounterE
     /tmp/cciW3ZsG.s:1126   .bss:0000000000000000 _ZN3PCB7runningE
     /tmp/cciW3ZsG.s:1123   .bss:0000000000000000 .LANCHOR0
     /tmp/cciW3ZsG.s:1152   .text:0000000000000658 .L0 
     /tmp/cciW3ZsG.s:28     .text:0000000000000018 .L0 
     /tmp/cciW3ZsG.s:78     .text:0000000000000074 .L0 
     /tmp/cciW3ZsG.s:150    .text:00000000000000d4 .L0 
     /tmp/cciW3ZsG.s:171    .text:00000000000000f0 .L0 
GAS LISTING /tmp/cciW3ZsG.s 			page 36


     /tmp/cciW3ZsG.s:241    .text:0000000000000158 .L0 
     /tmp/cciW3ZsG.s:277    .text:0000000000000190 .L0 
     /tmp/cciW3ZsG.s:383    .text:0000000000000230 .L0 
     /tmp/cciW3ZsG.s:411    .text:0000000000000270 .L0 
     /tmp/cciW3ZsG.s:438    .text:00000000000002c0 .L0 
     /tmp/cciW3ZsG.s:516    .text:0000000000000334 .L0 
     /tmp/cciW3ZsG.s:575    .text:0000000000000380 .L0 
     /tmp/cciW3ZsG.s:618    .text:00000000000003b4 .L0 
     /tmp/cciW3ZsG.s:623    .text:00000000000003c4 .L0 
     /tmp/cciW3ZsG.s:212    .text:0000000000000138 .L10
     /tmp/cciW3ZsG.s:165    .text:00000000000000e8 .L8
     /tmp/cciW3ZsG.s:783    .text:00000000000004b4 .L33
     /tmp/cciW3ZsG.s:806    .text:00000000000004d0 .L34
     /tmp/cciW3ZsG.s:757    .text:0000000000000490 .L27
     /tmp/cciW3ZsG.s:752    .text:0000000000000488 .L31
     /tmp/cciW3ZsG.s:876    .text:0000000000000520 .L36
     /tmp/cciW3ZsG.s:860    .text:0000000000000508 .L37
     /tmp/cciW3ZsG.s:1001   .text:00000000000005cc .L45
     /tmp/cciW3ZsG.s:1024   .text:00000000000005e8 .L46
     /tmp/cciW3ZsG.s:975    .text:00000000000005a8 .L39
     /tmp/cciW3ZsG.s:970    .text:00000000000005a0 .L43
     /tmp/cciW3ZsG.s:1103   .text:0000000000000650 .L48
     /tmp/cciW3ZsG.s:1084   .text:0000000000000634 .L49
     /tmp/cciW3ZsG.s:3228   .debug_abbrev:0000000000000000 .Ldebug_abbrev0
     /tmp/cciW3ZsG.s:4892   .debug_str:0000000000000c26 .LASF223
     /tmp/cciW3ZsG.s:4910   .debug_str:0000000000000d77 .LASF224
     /tmp/cciW3ZsG.s:4620   .debug_str:000000000000039c .LASF225
     /tmp/cciW3ZsG.s:5      .text:0000000000000000 .Ltext0
     /tmp/cciW3ZsG.s:1145   .text:0000000000000658 .Letext0
     /tmp/cciW3ZsG.s:4508   .debug_line:0000000000000000 .Ldebug_line0
     /tmp/cciW3ZsG.s:4670   .debug_str:0000000000000536 .LASF0
     /tmp/cciW3ZsG.s:4702   .debug_str:0000000000000634 .LASF1
     /tmp/cciW3ZsG.s:4820   .debug_str:0000000000000a30 .LASF2
     /tmp/cciW3ZsG.s:4832   .debug_str:0000000000000a85 .LASF4
     /tmp/cciW3ZsG.s:4688   .debug_str:00000000000005ba .LASF3
     /tmp/cciW3ZsG.s:4522   .debug_str:0000000000000056 .LASF5
     /tmp/cciW3ZsG.s:4776   .debug_str:00000000000008ca .LASF6
     /tmp/cciW3ZsG.s:4694   .debug_str:00000000000005fb .LASF7
     /tmp/cciW3ZsG.s:4648   .debug_str:000000000000049f .LASF8
     /tmp/cciW3ZsG.s:4652   .debug_str:00000000000004bc .LASF9
     /tmp/cciW3ZsG.s:4570   .debug_str:000000000000021c .LASF10
     /tmp/cciW3ZsG.s:4872   .debug_str:0000000000000bca .LASF11
     /tmp/cciW3ZsG.s:4632   .debug_str:0000000000000413 .LASF12
     /tmp/cciW3ZsG.s:4578   .debug_str:000000000000024f .LASF13
     /tmp/cciW3ZsG.s:4568   .debug_str:000000000000020c .LASF14
     /tmp/cciW3ZsG.s:4876   .debug_str:0000000000000be4 .LASF15
     /tmp/cciW3ZsG.s:4618   .debug_str:0000000000000386 .LASF16
     /tmp/cciW3ZsG.s:4862   .debug_str:0000000000000b4f .LASF17
     /tmp/cciW3ZsG.s:4886   .debug_str:0000000000000c0e .LASF226
     /tmp/cciW3ZsG.s:4882   .debug_str:0000000000000c03 .LASF18
     /tmp/cciW3ZsG.s:4854   .debug_str:0000000000000b27 .LASF19
     /tmp/cciW3ZsG.s:4574   .debug_str:0000000000000234 .LASF20
     /tmp/cciW3ZsG.s:4548   .debug_str:000000000000015c .LASF21
     /tmp/cciW3ZsG.s:4780   .debug_str:00000000000008f3 .LASF22
     /tmp/cciW3ZsG.s:4572   .debug_str:000000000000022b .LASF23
     /tmp/cciW3ZsG.s:4878   .debug_str:0000000000000bf0 .LASF91
     /tmp/cciW3ZsG.s:4658   .debug_str:00000000000004ef .LASF24
GAS LISTING /tmp/cciW3ZsG.s 			page 37


     /tmp/cciW3ZsG.s:4526   .debug_str:0000000000000068 .LASF30
     /tmp/cciW3ZsG.s:4902   .debug_str:0000000000000d20 .LASF227
     /tmp/cciW3ZsG.s:4766   .debug_str:0000000000000879 .LASF25
     /tmp/cciW3ZsG.s:4700   .debug_str:000000000000062f .LASF26
     /tmp/cciW3ZsG.s:4958   .debug_str:0000000000000ed8 .LASF28
     /tmp/cciW3ZsG.s:4952   .debug_str:0000000000000ea8 .LASF27
     /tmp/cciW3ZsG.s:4894   .debug_str:0000000000000cea .LASF29
     /tmp/cciW3ZsG.s:4602   .debug_str:0000000000000317 .LASF53
     /tmp/cciW3ZsG.s:4536   .debug_str:00000000000000dc .LASF55
     /tmp/cciW3ZsG.s:4890   .debug_str:0000000000000c1e .LASF31
     /tmp/cciW3ZsG.s:4844   .debug_str:0000000000000ac2 .LASF32
     /tmp/cciW3ZsG.s:4706   .debug_str:0000000000000653 .LASF35
     /tmp/cciW3ZsG.s:4712   .debug_str:000000000000068a .LASF37
     /tmp/cciW3ZsG.s:4962   .debug_str:0000000000000efc .LASF33
     /tmp/cciW3ZsG.s:4622   .debug_str:00000000000003b1 .LASF34
     /tmp/cciW3ZsG.s:4514   .debug_str:000000000000001f .LASF79
     /tmp/cciW3ZsG.s:4682   .debug_str:000000000000058e .LASF81
     /tmp/cciW3ZsG.s:4848   .debug_str:0000000000000ae4 .LASF36
     /tmp/cciW3ZsG.s:4742   .debug_str:0000000000000785 .LASF38
     /tmp/cciW3ZsG.s:4830   .debug_str:0000000000000a7c .LASF39
     /tmp/cciW3ZsG.s:4870   .debug_str:0000000000000bae .LASF40
     /tmp/cciW3ZsG.s:4744   .debug_str:0000000000000798 .LASF41
     /tmp/cciW3ZsG.s:4510   .debug_str:0000000000000000 .LASF42
     /tmp/cciW3ZsG.s:4938   .debug_str:0000000000000e30 .LASF43
     /tmp/cciW3ZsG.s:4774   .debug_str:00000000000008b0 .LASF44
     /tmp/cciW3ZsG.s:4860   .debug_str:0000000000000b41 .LASF45
     /tmp/cciW3ZsG.s:4788   .debug_str:0000000000000928 .LASF46
     /tmp/cciW3ZsG.s:4598   .debug_str:00000000000002f5 .LASF47
     /tmp/cciW3ZsG.s:4636   .debug_str:000000000000042a .LASF48
     /tmp/cciW3ZsG.s:4810   .debug_str:00000000000009e0 .LASF49
     /tmp/cciW3ZsG.s:4720   .debug_str:00000000000006d8 .LASF50
     /tmp/cciW3ZsG.s:4944   .debug_str:0000000000000e64 .LASF51
     /tmp/cciW3ZsG.s:4690   .debug_str:00000000000005cc .LASF52
     /tmp/cciW3ZsG.s:4856   .debug_str:0000000000000b2f .LASF54
     /tmp/cciW3ZsG.s:4956   .debug_str:0000000000000ec2 .LASF56
     /tmp/cciW3ZsG.s:4880   .debug_str:0000000000000bf8 .LASF57
     /tmp/cciW3ZsG.s:4588   .debug_str:00000000000002a6 .LASF58
     /tmp/cciW3ZsG.s:4840   .debug_str:0000000000000aac .LASF59
     /tmp/cciW3ZsG.s:4672   .debug_str:0000000000000543 .LASF60
     /tmp/cciW3ZsG.s:4752   .debug_str:00000000000007d2 .LASF61
     /tmp/cciW3ZsG.s:4582   .debug_str:0000000000000270 .LASF62
     /tmp/cciW3ZsG.s:4792   .debug_str:000000000000093b .LASF63
     /tmp/cciW3ZsG.s:4970   .debug_str:0000000000000f29 .LASF64
     /tmp/cciW3ZsG.s:4756   .debug_str:00000000000007f8 .LASF65
     /tmp/cciW3ZsG.s:4828   .debug_str:0000000000000a69 .LASF66
     /tmp/cciW3ZsG.s:4850   .debug_str:0000000000000aed .LASF67
     /tmp/cciW3ZsG.s:4916   .debug_str:0000000000000d91 .LASF68
     /tmp/cciW3ZsG.s:4730   .debug_str:0000000000000720 .LASF69
     /tmp/cciW3ZsG.s:4904   .debug_str:0000000000000d38 .LASF70
     /tmp/cciW3ZsG.s:4868   .debug_str:0000000000000b8e .LASF71
     /tmp/cciW3ZsG.s:4770   .debug_str:0000000000000891 .LASF72
     /tmp/cciW3ZsG.s:4758   .debug_str:0000000000000819 .LASF73
     /tmp/cciW3ZsG.s:4608   .debug_str:0000000000000337 .LASF74
     /tmp/cciW3ZsG.s:4674   .debug_str:0000000000000557 .LASF75
     /tmp/cciW3ZsG.s:4732   .debug_str:000000000000073e .LASF76
     /tmp/cciW3ZsG.s:4898   .debug_str:0000000000000d0e .LASF77
     /tmp/cciW3ZsG.s:4640   .debug_str:0000000000000440 .LASF78
GAS LISTING /tmp/cciW3ZsG.s 			page 38


     /tmp/cciW3ZsG.s:4950   .debug_str:0000000000000e9a .LASF80
     /tmp/cciW3ZsG.s:4540   .debug_str:00000000000000fc .LASF82
     /tmp/cciW3ZsG.s:4624   .debug_str:00000000000003bd .LASF83
     /tmp/cciW3ZsG.s:4560   .debug_str:00000000000001a8 .LASF84
     /tmp/cciW3ZsG.s:4936   .debug_str:0000000000000e29 .LASF85
     /tmp/cciW3ZsG.s:4556   .debug_str:0000000000000189 .LASF86
     /tmp/cciW3ZsG.s:4512   .debug_str:000000000000001a .LASF87
     /tmp/cciW3ZsG.s:4914   .debug_str:0000000000000d8c .LASF88
     /tmp/cciW3ZsG.s:4718   .debug_str:00000000000006d0 .LASF89
     /tmp/cciW3ZsG.s:4606   .debug_str:0000000000000331 .LASF90
     /tmp/cciW3ZsG.s:4900   .debug_str:0000000000000d18 .LASF92
     /tmp/cciW3ZsG.s:4542   .debug_str:0000000000000124 .LASF93
     /tmp/cciW3ZsG.s:4722   .debug_str:00000000000006e7 .LASF94
     /tmp/cciW3ZsG.s:4650   .debug_str:00000000000004af .LASF95
     /tmp/cciW3ZsG.s:4734   .debug_str:0000000000000746 .LASF96
     /tmp/cciW3ZsG.s:4612   .debug_str:0000000000000357 .LASF97
     /tmp/cciW3ZsG.s:4626   .debug_str:00000000000003d2 .LASF98
     /tmp/cciW3ZsG.s:4550   .debug_str:0000000000000165 .LASF99
     /tmp/cciW3ZsG.s:4532   .debug_str:000000000000009d .LASF100
     /tmp/cciW3ZsG.s:4884   .debug_str:0000000000000c09 .LASF101
     /tmp/cciW3ZsG.s:4646   .debug_str:0000000000000495 .LASF102
     /tmp/cciW3ZsG.s:4528   .debug_str:0000000000000073 .LASF228
     /tmp/cciW3ZsG.s:4954   .debug_str:0000000000000eae .LASF229
     /tmp/cciW3ZsG.s:4544   .debug_str:0000000000000135 .LASF103
     /tmp/cciW3ZsG.s:4768   .debug_str:000000000000087e .LASF104
     /tmp/cciW3ZsG.s:4928   .debug_str:0000000000000df5 .LASF105
     /tmp/cciW3ZsG.s:4814   .debug_str:00000000000009fc .LASF113
     /tmp/cciW3ZsG.s:4554   .debug_str:0000000000000183 .LASF106
     /tmp/cciW3ZsG.s:4750   .debug_str:00000000000007bc .LASF107
     /tmp/cciW3ZsG.s:4846   .debug_str:0000000000000ad3 .LASF108
     /tmp/cciW3ZsG.s:4580   .debug_str:000000000000025f .LASF109
     /tmp/cciW3ZsG.s:4630   .debug_str:0000000000000406 .LASF110
     /tmp/cciW3ZsG.s:4628   .debug_str:00000000000003f9 .LASF230
     /tmp/cciW3ZsG.s:4926   .debug_str:0000000000000def .LASF111
     /tmp/cciW3ZsG.s:4666   .debug_str:0000000000000513 .LASF112
     /tmp/cciW3ZsG.s:4866   .debug_str:0000000000000b76 .LASF114
     /tmp/cciW3ZsG.s:4918   .debug_str:0000000000000da4 .LASF115
     /tmp/cciW3ZsG.s:4942   .debug_str:0000000000000e55 .LASF116
     /tmp/cciW3ZsG.s:4852   .debug_str:0000000000000b0b .LASF117
     /tmp/cciW3ZsG.s:4772   .debug_str:00000000000008a5 .LASF118
     /tmp/cciW3ZsG.s:4726   .debug_str:00000000000006f8 .LASF119
     /tmp/cciW3ZsG.s:4616   .debug_str:000000000000037c .LASF120
     /tmp/cciW3ZsG.s:4778   .debug_str:00000000000008dd .LASF121
     /tmp/cciW3ZsG.s:4546   .debug_str:0000000000000147 .LASF122
     /tmp/cciW3ZsG.s:4592   .debug_str:00000000000002c8 .LASF123
     /tmp/cciW3ZsG.s:4728   .debug_str:0000000000000710 .LASF124
     /tmp/cciW3ZsG.s:4920   .debug_str:0000000000000db5 .LASF125
     /tmp/cciW3ZsG.s:4564   .debug_str:00000000000001e8 .LASF126
     /tmp/cciW3ZsG.s:4710   .debug_str:000000000000066c .LASF127
     /tmp/cciW3ZsG.s:4610   .debug_str:0000000000000340 .LASF128
     /tmp/cciW3ZsG.s:4948   .debug_str:0000000000000e76 .LASF129
     /tmp/cciW3ZsG.s:4680   .debug_str:000000000000057c .LASF130
     /tmp/cciW3ZsG.s:4584   .debug_str:0000000000000282 .LASF131
     /tmp/cciW3ZsG.s:4842   .debug_str:0000000000000ab4 .LASF132
     /tmp/cciW3ZsG.s:4802   .debug_str:000000000000099d .LASF133
     /tmp/cciW3ZsG.s:4746   .debug_str:00000000000007a7 .LASF134
     /tmp/cciW3ZsG.s:4932   .debug_str:0000000000000e07 .LASF135
GAS LISTING /tmp/cciW3ZsG.s 			page 39


     /tmp/cciW3ZsG.s:4912   .debug_str:0000000000000d83 .LASF136
     /tmp/cciW3ZsG.s:4518   .debug_str:0000000000000037 .LASF137
     /tmp/cciW3ZsG.s:4966   .debug_str:0000000000000f18 .LASF138
     /tmp/cciW3ZsG.s:4762   .debug_str:000000000000084c .LASF139
     /tmp/cciW3ZsG.s:4790   .debug_str:0000000000000934 .LASF140
     /tmp/cciW3ZsG.s:4794   .debug_str:0000000000000958 .LASF141
     /tmp/cciW3ZsG.s:4754   .debug_str:00000000000007f1 .LASF142
     /tmp/cciW3ZsG.s:4696   .debug_str:000000000000060e .LASF143
     /tmp/cciW3ZsG.s:4934   .debug_str:0000000000000e21 .LASF144
     /tmp/cciW3ZsG.s:4896   .debug_str:0000000000000cfa .LASF145
     /tmp/cciW3ZsG.s:4748   .debug_str:00000000000007b4 .LASF146
     /tmp/cciW3ZsG.s:4760   .debug_str:0000000000000838 .LASF147
     /tmp/cciW3ZsG.s:4736   .debug_str:0000000000000756 .LASF148
     /tmp/cciW3ZsG.s:4796   .debug_str:000000000000096b .LASF149
     /tmp/cciW3ZsG.s:4968   .debug_str:0000000000000f21 .LASF150
     /tmp/cciW3ZsG.s:4678   .debug_str:0000000000000568 .LASF151
     /tmp/cciW3ZsG.s:4662   .debug_str:0000000000000500 .LASF152
     /tmp/cciW3ZsG.s:4874   .debug_str:0000000000000bdd .LASF153
     /tmp/cciW3ZsG.s:4836   .debug_str:0000000000000a92 .LASF154
     /tmp/cciW3ZsG.s:4838   .debug_str:0000000000000aa5 .LASF155
     /tmp/cciW3ZsG.s:4614   .debug_str:0000000000000369 .LASF156
     /tmp/cciW3ZsG.s:4834   .debug_str:0000000000000a8c .LASF157
     /tmp/cciW3ZsG.s:4530   .debug_str:000000000000008b .LASF158
     /tmp/cciW3ZsG.s:4676   .debug_str:0000000000000562 .LASF159
     /tmp/cciW3ZsG.s:4600   .debug_str:0000000000000305 .LASF160
     /tmp/cciW3ZsG.s:4558   .debug_str:000000000000019a .LASF161
     /tmp/cciW3ZsG.s:4908   .debug_str:0000000000000d5c .LASF162
     /tmp/cciW3ZsG.s:4524   .debug_str:000000000000005d .LASF163
     /tmp/cciW3ZsG.s:4826   .debug_str:0000000000000a51 .LASF164
     /tmp/cciW3ZsG.s:4818   .debug_str:0000000000000a25 .LASF165
     /tmp/cciW3ZsG.s:4960   .debug_str:0000000000000ee4 .LASF166
     /tmp/cciW3ZsG.s:4824   .debug_str:0000000000000a4a .LASF167
     /tmp/cciW3ZsG.s:4566   .debug_str:00000000000001f9 .LASF168
     /tmp/cciW3ZsG.s:4858   .debug_str:0000000000000b3a .LASF169
     /tmp/cciW3ZsG.s:4714   .debug_str:00000000000006a2 .LASF170
     /tmp/cciW3ZsG.s:4930   .debug_str:0000000000000dfd .LASF171
     /tmp/cciW3ZsG.s:4940   .debug_str:0000000000000e3f .LASF172
     /tmp/cciW3ZsG.s:4922   .debug_str:0000000000000dd3 .LASF173
     /tmp/cciW3ZsG.s:4804   .debug_str:00000000000009b8 .LASF174
     /tmp/cciW3ZsG.s:4596   .debug_str:00000000000002ef .LASF175
     /tmp/cciW3ZsG.s:4656   .debug_str:00000000000004dd .LASF176
     /tmp/cciW3ZsG.s:4664   .debug_str:000000000000050d .LASF177
     /tmp/cciW3ZsG.s:4924   .debug_str:0000000000000ddd .LASF178
     /tmp/cciW3ZsG.s:4660   .debug_str:00000000000004f5 .LASF179
     /tmp/cciW3ZsG.s:4668   .debug_str:000000000000051e .LASF180
     /tmp/cciW3ZsG.s:4906   .debug_str:0000000000000d4d .LASF181
     /tmp/cciW3ZsG.s:4534   .debug_str:00000000000000c0 .LASF182
     /tmp/cciW3ZsG.s:4784   .debug_str:0000000000000900 .LASF183
     /tmp/cciW3ZsG.s:4692   .debug_str:00000000000005d9 .LASF184
     /tmp/cciW3ZsG.s:4808   .debug_str:00000000000009d9 .LASF185
     /tmp/cciW3ZsG.s:4516   .debug_str:000000000000002f .LASF186
     /tmp/cciW3ZsG.s:4964   .debug_str:0000000000000f09 .LASF187
     /tmp/cciW3ZsG.s:4708   .debug_str:0000000000000660 .LASF188
     /tmp/cciW3ZsG.s:4786   .debug_str:0000000000000915 .LASF189
     /tmp/cciW3ZsG.s:4740   .debug_str:0000000000000773 .LASF190
     /tmp/cciW3ZsG.s:4654   .debug_str:00000000000004ca .LASF191
     /tmp/cciW3ZsG.s:4686   .debug_str:00000000000005a7 .LASF192
GAS LISTING /tmp/cciW3ZsG.s 			page 40


     /tmp/cciW3ZsG.s:4562   .debug_str:00000000000001d4 .LASF193
     /tmp/cciW3ZsG.s:4888   .debug_str:0000000000000c14 .LASF194
     /tmp/cciW3ZsG.s:4800   .debug_str:0000000000000994 .LASF195
     /tmp/cciW3ZsG.s:4812   .debug_str:00000000000009ed .LASF196
     /tmp/cciW3ZsG.s:4816   .debug_str:0000000000000a14 .LASF197
     /tmp/cciW3ZsG.s:4716   .debug_str:00000000000006b5 .LASF198
     /tmp/cciW3ZsG.s:4798   .debug_str:000000000000097f .LASF199
     /tmp/cciW3ZsG.s:4738   .debug_str:000000000000075e .LASF200
     /tmp/cciW3ZsG.s:4576   .debug_str:000000000000023e .LASF201
     /tmp/cciW3ZsG.s:1045   .text:00000000000005fc .LFB44
     /tmp/cciW3ZsG.s:1114   .text:0000000000000658 .LFE44
     /tmp/cciW3ZsG.s:4186   .debug_loc:0000000000000000 .LLST29
     /tmp/cciW3ZsG.s:1073   .text:0000000000000624 .LVL92
     /tmp/cciW3ZsG.s:1076   .text:0000000000000630 .LVL93
     /tmp/cciW3ZsG.s:1088   .text:000000000000063c .LVL94
     /tmp/cciW3ZsG.s:893    .text:0000000000000528 .LFB43
     /tmp/cciW3ZsG.s:1039   .text:00000000000005fc .LFE43
     /tmp/cciW3ZsG.s:4698   .debug_str:0000000000000621 .LASF202
     /tmp/cciW3ZsG.s:4197   .debug_loc:0000000000000036 .LLST24
     /tmp/cciW3ZsG.s:4208   .debug_loc:000000000000006c .LLST25
     /tmp/cciW3ZsG.s:4538   .debug_str:00000000000000ef .LASF203
     /tmp/cciW3ZsG.s:4219   .debug_loc:00000000000000a2 .LLST26
     /tmp/cciW3ZsG.s:4724   .debug_str:00000000000006ec .LASF204
     /tmp/cciW3ZsG.s:4230   .debug_loc:00000000000000d8 .LLST27
     /tmp/cciW3ZsG.s:4946   .debug_str:0000000000000e6f .LASF205
     /tmp/cciW3ZsG.s:4241   .debug_loc:000000000000010e .LLST28
     /tmp/cciW3ZsG.s:941    .text:0000000000000564 .LVL77
     /tmp/cciW3ZsG.s:950    .text:0000000000000578 .LVL79
     /tmp/cciW3ZsG.s:957    .text:0000000000000594 .LVL80
     /tmp/cciW3ZsG.s:974    .text:00000000000005a8 .LVL81
     /tmp/cciW3ZsG.s:1009   .text:00000000000005d8 .LVL87
     /tmp/cciW3ZsG.s:1020   .text:00000000000005e4 .LVL88
     /tmp/cciW3ZsG.s:1029   .text:00000000000005f4 .LVL90
     /tmp/cciW3ZsG.s:827    .text:00000000000004e4 .LFB42
     /tmp/cciW3ZsG.s:887    .text:0000000000000528 .LFE42
     /tmp/cciW3ZsG.s:4252   .debug_loc:0000000000000144 .LLST23
     /tmp/cciW3ZsG.s:852    .text:0000000000000504 .LVL71
     /tmp/cciW3ZsG.s:864    .text:0000000000000510 .LVL72
     /tmp/cciW3ZsG.s:670    .text:0000000000000404 .LFB41
     /tmp/cciW3ZsG.s:821    .text:00000000000004e4 .LFE41
     /tmp/cciW3ZsG.s:4263   .debug_loc:000000000000017a .LLST18
     /tmp/cciW3ZsG.s:4274   .debug_loc:00000000000001b0 .LLST19
     /tmp/cciW3ZsG.s:4285   .debug_loc:00000000000001e6 .LLST20
     /tmp/cciW3ZsG.s:4296   .debug_loc:000000000000021c .LLST21
     /tmp/cciW3ZsG.s:4307   .debug_loc:0000000000000252 .LLST22
     /tmp/cciW3ZsG.s:718    .text:0000000000000440 .LVL55
     /tmp/cciW3ZsG.s:727    .text:0000000000000454 .LVL57
     /tmp/cciW3ZsG.s:734    .text:0000000000000470 .LVL58
     /tmp/cciW3ZsG.s:744    .text:0000000000000484 .LVL59
     /tmp/cciW3ZsG.s:756    .text:0000000000000490 .LVL60
     /tmp/cciW3ZsG.s:791    .text:00000000000004c0 .LVL66
     /tmp/cciW3ZsG.s:802    .text:00000000000004cc .LVL67
     /tmp/cciW3ZsG.s:811    .text:00000000000004dc .LVL69
     /tmp/cciW3ZsG.s:596    .text:00000000000003a0 .LFB40
     /tmp/cciW3ZsG.s:664    .text:0000000000000404 .LFE40
     /tmp/cciW3ZsG.s:4782   .debug_str:00000000000008fb .LASF206
     /tmp/cciW3ZsG.s:4318   .debug_loc:0000000000000288 .LLST15
GAS LISTING /tmp/cciW3ZsG.s 			page 41


     /tmp/cciW3ZsG.s:627    .text:00000000000003d4 .LBB22
     /tmp/cciW3ZsG.s:634    .text:00000000000003d8 .LBE22
     /tmp/cciW3ZsG.s:4325   .debug_loc:00000000000002ab .LLST16
     /tmp/cciW3ZsG.s:4332   .debug_loc:00000000000002ce .LLST17
     /tmp/cciW3ZsG.s:638    .text:00000000000003e0 .LVL49
     /tmp/cciW3ZsG.s:642    .text:00000000000003e8 .LVL50
     /tmp/cciW3ZsG.s:653    .text:00000000000003f4 .LVL51
     /tmp/cciW3ZsG.s:562    .text:0000000000000370 .LFB39
     /tmp/cciW3ZsG.s:590    .text:00000000000003a0 .LFE39
     /tmp/cciW3ZsG.s:579    .text:0000000000000390 .LVL45
     /tmp/cciW3ZsG.s:503    .text:0000000000000324 .LFB38
     /tmp/cciW3ZsG.s:556    .text:0000000000000370 .LFE38
     /tmp/cciW3ZsG.s:522    .text:0000000000000344 .LBB20
     /tmp/cciW3ZsG.s:530    .text:000000000000034c .LBE20
     /tmp/cciW3ZsG.s:4339   .debug_loc:00000000000002f1 .LLST13
     /tmp/cciW3ZsG.s:4347   .debug_loc:0000000000000315 .LLST14
     /tmp/cciW3ZsG.s:534    .text:0000000000000354 .LVL43
     /tmp/cciW3ZsG.s:545    .text:0000000000000360 .LVL44
     /tmp/cciW3ZsG.s:472    .text:0000000000000300 .LFB37
     /tmp/cciW3ZsG.s:497    .text:0000000000000324 .LFE37
     /tmp/cciW3ZsG.s:4594   .debug_str:00000000000002ea .LASF208
     /tmp/cciW3ZsG.s:4354   .debug_loc:0000000000000338 .LLST12
     /tmp/cciW3ZsG.s:346    .text:00000000000001e0 .LFB36
     /tmp/cciW3ZsG.s:466    .text:0000000000000300 .LFE36
     /tmp/cciW3ZsG.s:4806   .debug_str:00000000000009ce .LASF207
     /tmp/cciW3ZsG.s:4368   .debug_loc:0000000000000371 .LLST9
     /tmp/cciW3ZsG.s:387    .text:000000000000023c .LBB18
     /tmp/cciW3ZsG.s:395    .text:0000000000000244 .LBE18
     /tmp/cciW3ZsG.s:4375   .debug_loc:0000000000000394 .LLST10
     /tmp/cciW3ZsG.s:4383   .debug_loc:00000000000003b8 .LLST11
     /tmp/cciW3ZsG.s:369    .text:000000000000020c .LVL26
     /tmp/cciW3ZsG.s:376    .text:0000000000000228 .LVL27
     /tmp/cciW3ZsG.s:400    .text:0000000000000250 .LVL30
     /tmp/cciW3ZsG.s:405    .text:0000000000000260 .LVL31
     /tmp/cciW3ZsG.s:413    .text:0000000000000280 .LVL33
     /tmp/cciW3ZsG.s:423    .text:0000000000000294 .LVL34
     /tmp/cciW3ZsG.s:428    .text:00000000000002a0 .LVL35
     /tmp/cciW3ZsG.s:433    .text:00000000000002b0 .LVL36
     /tmp/cciW3ZsG.s:440    .text:00000000000002d0 .LVL37
     /tmp/cciW3ZsG.s:447    .text:00000000000002e0 .LVL38
     /tmp/cciW3ZsG.s:4520   .debug_str:000000000000004c .LASF209
     /tmp/cciW3ZsG.s:4590   .debug_str:00000000000002bc .LASF211
     /tmp/cciW3ZsG.s:298    .text:00000000000001b4 .LFB34
     /tmp/cciW3ZsG.s:330    .text:00000000000001e0 .LFE34
     /tmp/cciW3ZsG.s:4390   .debug_loc:00000000000003db .LLST8
     /tmp/cciW3ZsG.s:318    .text:00000000000001d0 .LVL25
     /tmp/cciW3ZsG.s:262    .text:000000000000017c .LFB32
     /tmp/cciW3ZsG.s:292    .text:00000000000001b4 .LFE32
     /tmp/cciW3ZsG.s:4404   .debug_loc:0000000000000414 .LLST7
     /tmp/cciW3ZsG.s:281    .text:00000000000001a4 .LVL22
     /tmp/cciW3ZsG.s:227    .text:0000000000000148 .LFB31
     /tmp/cciW3ZsG.s:256    .text:000000000000017c .LFE31
     /tmp/cciW3ZsG.s:4586   .debug_str:00000000000002a1 .LASF210
     /tmp/cciW3ZsG.s:4422   .debug_loc:0000000000000460 .LLST6
     /tmp/cciW3ZsG.s:245    .text:000000000000016c .LVL19
     /tmp/cciW3ZsG.s:133    .text:00000000000000bc .LFB30
     /tmp/cciW3ZsG.s:221    .text:0000000000000148 .LFE30
GAS LISTING /tmp/cciW3ZsG.s 			page 42


     /tmp/cciW3ZsG.s:4436   .debug_loc:0000000000000499 .LLST2
     /tmp/cciW3ZsG.s:153    .text:00000000000000dc .LBB13
     /tmp/cciW3ZsG.s:161    .text:00000000000000e0 .LBE13
     /tmp/cciW3ZsG.s:4447   .debug_loc:00000000000004cf .LLST3
     /tmp/cciW3ZsG.s:175    .text:00000000000000fc .LBB15
     /tmp/cciW3ZsG.s:183    .text:0000000000000104 .LBE15
     /tmp/cciW3ZsG.s:4454   .debug_loc:00000000000004f2 .LLST4
     /tmp/cciW3ZsG.s:4462   .debug_loc:0000000000000516 .LLST5
     /tmp/cciW3ZsG.s:169    .text:00000000000000f0 .LVL9
     /tmp/cciW3ZsG.s:187    .text:000000000000010c .LVL12
     /tmp/cciW3ZsG.s:195    .text:0000000000000120 .LVL13
     /tmp/cciW3ZsG.s:218    .text:0000000000000144 .LVL16
     /tmp/cciW3ZsG.s:10     .text:0000000000000000 .LFB29
     /tmp/cciW3ZsG.s:48     .text:0000000000000044 .LFE29
     /tmp/cciW3ZsG.s:25     .text:0000000000000018 .LVL0
     /tmp/cciW3ZsG.s:37     .text:0000000000000034 .LVL2
     /tmp/cciW3ZsG.s:101    .text:0000000000000094 .LFB28
     /tmp/cciW3ZsG.s:127    .text:00000000000000bc .LFE28
     /tmp/cciW3ZsG.s:4469   .debug_loc:0000000000000539 .LLST1
     /tmp/cciW3ZsG.s:116    .text:00000000000000ac .LVL6
     /tmp/cciW3ZsG.s:4764   .debug_str:0000000000000861 .LASF212
     /tmp/cciW3ZsG.s:54     .text:0000000000000044 .LFB26
     /tmp/cciW3ZsG.s:93     .text:0000000000000094 .LFE26
     /tmp/cciW3ZsG.s:4483   .debug_loc:0000000000000572 .LLST0
     /tmp/cciW3ZsG.s:4822   .debug_str:0000000000000a3e .LASF213
     /tmp/cciW3ZsG.s:4634   .debug_str:0000000000000422 .LASF215
     /tmp/cciW3ZsG.s:4704   .debug_str:0000000000000647 .LASF214
     /tmp/cciW3ZsG.s:4638   .debug_str:000000000000043a .LASF216
     /tmp/cciW3ZsG.s:4644   .debug_str:0000000000000470 .LASF217
     /tmp/cciW3ZsG.s:4552   .debug_str:0000000000000173 .LASF218
     /tmp/cciW3ZsG.s:4642   .debug_str:000000000000044c .LASF219
     /tmp/cciW3ZsG.s:4604   .debug_str:0000000000000320 .LASF220
     /tmp/cciW3ZsG.s:4864   .debug_str:0000000000000b65 .LASF221
     /tmp/cciW3ZsG.s:4684   .debug_str:000000000000059b .LASF222
     /tmp/cciW3ZsG.s:1065   .text:0000000000000614 .LVL91
     /tmp/cciW3ZsG.s:1098   .text:0000000000000648 .LVL95
     /tmp/cciW3ZsG.s:1102   .text:0000000000000650 .LVL96
     /tmp/cciW3ZsG.s:929    .text:0000000000000554 .LVL75
     /tmp/cciW3ZsG.s:993    .text:00000000000005c0 .LVL84
     /tmp/cciW3ZsG.s:1000   .text:00000000000005cc .LVL86
     /tmp/cciW3ZsG.s:935    .text:0000000000000558 .LVL76
     /tmp/cciW3ZsG.s:996    .text:00000000000005c4 .LVL85
     /tmp/cciW3ZsG.s:923    .text:0000000000000550 .LVL74
     /tmp/cciW3ZsG.s:990    .text:00000000000005bc .LVL83
     /tmp/cciW3ZsG.s:943    .text:0000000000000568 .LVL78
     /tmp/cciW3ZsG.s:985    .text:00000000000005b4 .LVL82
     /tmp/cciW3ZsG.s:1023   .text:00000000000005e8 .LVL89
     /tmp/cciW3ZsG.s:845    .text:00000000000004f8 .LVL70
     /tmp/cciW3ZsG.s:875    .text:0000000000000520 .LVL73
     /tmp/cciW3ZsG.s:706    .text:0000000000000430 .LVL53
     /tmp/cciW3ZsG.s:775    .text:00000000000004a8 .LVL63
     /tmp/cciW3ZsG.s:782    .text:00000000000004b4 .LVL65
     /tmp/cciW3ZsG.s:712    .text:0000000000000434 .LVL54
     /tmp/cciW3ZsG.s:778    .text:00000000000004ac .LVL64
     /tmp/cciW3ZsG.s:700    .text:000000000000042c .LVL52
     /tmp/cciW3ZsG.s:772    .text:00000000000004a4 .LVL62
     /tmp/cciW3ZsG.s:720    .text:0000000000000444 .LVL56
GAS LISTING /tmp/cciW3ZsG.s 			page 43


     /tmp/cciW3ZsG.s:767    .text:000000000000049c .LVL61
     /tmp/cciW3ZsG.s:805    .text:00000000000004d0 .LVL68
     /tmp/cciW3ZsG.s:614    .text:00000000000003b4 .LVL46
     /tmp/cciW3ZsG.s:626    .text:00000000000003d4 .LVL47
     /tmp/cciW3ZsG.s:632    .text:00000000000003d8 .LVL48
     /tmp/cciW3ZsG.s:521    .text:0000000000000344 .LVL41
     /tmp/cciW3ZsG.s:528    .text:000000000000034c .LVL42
     /tmp/cciW3ZsG.s:475    .text:0000000000000300 .LVL39
     /tmp/cciW3ZsG.s:485    .text:0000000000000310 .LVL40
     /tmp/cciW3ZsG.s:407    .text:0000000000000264 .LVL32
     /tmp/cciW3ZsG.s:386    .text:000000000000023c .LVL28
     /tmp/cciW3ZsG.s:393    .text:0000000000000244 .LVL29
     /tmp/cciW3ZsG.s:303    .text:00000000000001b4 .LVL23
     /tmp/cciW3ZsG.s:316    .text:00000000000001c8 .LVL24
     /tmp/cciW3ZsG.s:265    .text:000000000000017c .LVL20
     /tmp/cciW3ZsG.s:279    .text:000000000000019c .LVL21
     /tmp/cciW3ZsG.s:230    .text:0000000000000148 .LVL17
     /tmp/cciW3ZsG.s:243    .text:0000000000000164 .LVL18
     /tmp/cciW3ZsG.s:151    .text:00000000000000dc .LVL7
     /tmp/cciW3ZsG.s:205    .text:000000000000012c .LVL14
     /tmp/cciW3ZsG.s:211    .text:0000000000000138 .LVL15
     /tmp/cciW3ZsG.s:159    .text:00000000000000e0 .LVL8
     /tmp/cciW3ZsG.s:174    .text:00000000000000fc .LVL10
     /tmp/cciW3ZsG.s:181    .text:0000000000000104 .LVL11
     /tmp/cciW3ZsG.s:104    .text:0000000000000094 .LVL5
     /tmp/cciW3ZsG.s:57     .text:0000000000000044 .LVL3
     /tmp/cciW3ZsG.s:75     .text:0000000000000070 .LVL4
     /tmp/cciW3ZsG.s:1153   .debug_info:0000000000000000 .Ldebug_info0
     /tmp/cciW3ZsG.s:333    .gcc_except_table:0000000000000000 .LLSDA34

UNDEFINED SYMBOLS
_ZN5Riscv10popSppSpieEv
_Z11thread_exitv
_ZN9Scheduler3putEP3PCB
_ZN9Scheduler3getEv
_ZN5Riscv14changePrivModeEv
_ZN3PCB13contextSwitchEPNS_7ContextES1_
_ZN5Riscv8pcbCacheE
_Z16kmem_cache_allocP12kmem_cache_s
_Z15kmem_cache_freeP12kmem_cache_sPv
_Z5kfreePKv
__gxx_personality_v0
_Z7kmallocm
_ZN8KConsole23sendCharactersToConsoleEPv
_ZN5Riscv15userMainWrapperEPv
_ZN5Riscv13w_a0_sscratchEv
_ZN5Riscv9totalTimeE
_ZN12SleepPCBList17insertSleepingPCBEv
