GAS LISTING /tmp/ccC0UISZ.s 			page 1


   1              		.file	"PCB.cpp"
   2              		.option pic
   3              		.option norelax
   4              		.text
   5              	.Ltext0:
   6              		.align	2
   7              		.globl	_ZN3PCB6runnerEv
   9              	_ZN3PCB6runnerEv:
  10              	.LFB30:
  11              		.file 1 "src/PCB.cpp"
   1:src/PCB.cpp   **** //
   2:src/PCB.cpp   **** // Created by os on 4/27/22.
   3:src/PCB.cpp   **** //
   4:src/PCB.cpp   **** 
   5:src/PCB.cpp   **** #include "../h/PCB.hpp"
   6:src/PCB.cpp   **** #include "../h/syscall_c.hpp"
   7:src/PCB.cpp   **** #include "../h/SleepPCBList.hpp"
   8:src/PCB.cpp   **** #include "../test/printing.hpp"
   9:src/PCB.cpp   **** #include "../h/KConsole.hpp"
  10:src/PCB.cpp   **** #include "../h/Scheduler.hpp"
  11:src/PCB.cpp   **** #include "../h/Riscv.hpp"
  12:src/PCB.cpp   **** 
  13:src/PCB.cpp   **** PCB* PCB::running = 0;
  14:src/PCB.cpp   **** uint64 PCB::timeSliceCounter = 0;
  15:src/PCB.cpp   **** uint64 PCB::savedRegA4 = 0;
  16:src/PCB.cpp   **** PCB* PCB::consolePCB = 0;
  17:src/PCB.cpp   **** PCB* PCB::userPCB = 0;
  18:src/PCB.cpp   **** 
  19:src/PCB.cpp   **** PCB::PCB(Body body, void *args, void* stack_space, uint64 timeSlice) :
  20:src/PCB.cpp   ****     timeSlice(timeSlice),
  21:src/PCB.cpp   ****     body(body),
  22:src/PCB.cpp   ****     args(args),
  23:src/PCB.cpp   ****     beginSP(stack_space),
  24:src/PCB.cpp   ****     context({
  25:src/PCB.cpp   ****         (uint64)((char*)stack_space + DEFAULT_STACK_SIZE),
  26:src/PCB.cpp   ****         (uint64)&PCB::runner
  27:src/PCB.cpp   ****     })
  28:src/PCB.cpp   **** {
  29:src/PCB.cpp   ****     //Scheduler::put(this);
  30:src/PCB.cpp   ****     nextPCB = 0;
  31:src/PCB.cpp   **** }
  32:src/PCB.cpp   **** 
  33:src/PCB.cpp   **** void PCB::sleep(time_t time)
  34:src/PCB.cpp   **** {
  35:src/PCB.cpp   ****     //todo
  36:src/PCB.cpp   **** }
  37:src/PCB.cpp   **** 
  38:src/PCB.cpp   **** void PCB::start()
  39:src/PCB.cpp   **** {
  40:src/PCB.cpp   ****     Scheduler::put(this);
  41:src/PCB.cpp   **** }
  42:src/PCB.cpp   **** 
  43:src/PCB.cpp   **** void PCB::runner()
  44:src/PCB.cpp   **** {
  12              		.loc 1 44 1
  13              		.cfi_startproc
  14 0000 130101FF 		addi	sp,sp,-16
GAS LISTING /tmp/ccC0UISZ.s 			page 2


  15              		.cfi_def_cfa_offset 16
  16 0004 23341100 		sd	ra,8(sp)
  17 0008 23308100 		sd	s0,0(sp)
  18              		.cfi_offset 1, -8
  19              		.cfi_offset 8, -16
  20 000c 13040101 		addi	s0,sp,16
  21              		.cfi_def_cfa 8, 0
  45:src/PCB.cpp   ****     //trapPrintString("Runner started...\n");
  46:src/PCB.cpp   ****     Riscv::popSppSpie();
  22              		.loc 1 46 5
  23              		.loc 1 46 22 is_stmt 0
  24 0010 97000000 		call	_ZN5Riscv10popSppSpieEv@plt
  24      E7800000 
  25              	.LVL0:
  47:src/PCB.cpp   **** 
  48:src/PCB.cpp   ****     running->body(running->args);
  26              		.loc 1 48 5 is_stmt 1
  27              		.loc 1 48 14 is_stmt 0
  28 0018 97070000 		ld	a5,.LANCHOR0
  28      83B70700 
  29 0020 03B78702 		ld	a4,40(a5)
  30              		.loc 1 48 18
  31 0024 03B50703 		ld	a0,48(a5)
  32 0028 E7000700 		jalr	a4
  33              	.LVL1:
  49:src/PCB.cpp   **** 
  50:src/PCB.cpp   ****     //printString("Runner ended...\n");
  51:src/PCB.cpp   **** 
  52:src/PCB.cpp   ****     thread_exit();
  34              		.loc 1 52 5 is_stmt 1
  35              		.loc 1 52 16 is_stmt 0
  36 002c 97000000 		call	_Z11thread_exitv@plt
  36      E7800000 
  37              	.LVL2:
  53:src/PCB.cpp   **** }
  38              		.loc 1 53 1
  39 0034 83308100 		ld	ra,8(sp)
  40              		.cfi_restore 1
  41 0038 03340100 		ld	s0,0(sp)
  42              		.cfi_restore 8
  43              		.cfi_def_cfa 2, 16
  44 003c 13010101 		addi	sp,sp,16
  45              		.cfi_def_cfa_offset 0
  46 0040 67800000 		jr	ra
  47              		.cfi_endproc
  48              	.LFE30:
  50              		.align	2
  51              		.globl	_ZN3PCBC2EPFvPvES0_S0_m
  53              	_ZN3PCBC2EPFvPvES0_S0_m:
  54              	.LFB26:
  19:src/PCB.cpp   ****     timeSlice(timeSlice),
  55              		.loc 1 19 1 is_stmt 1
  56              		.cfi_startproc
  57              	.LVL3:
  58 0044 130101FF 		addi	sp,sp,-16
  59              		.cfi_def_cfa_offset 16
  60 0048 23348100 		sd	s0,8(sp)
GAS LISTING /tmp/ccC0UISZ.s 			page 3


  61              		.cfi_offset 8, -8
  62 004c 13040101 		addi	s0,sp,16
  63              		.cfi_def_cfa 8, 0
  64              	.LBB12:
  27:src/PCB.cpp   **** {
  65              		.loc 1 27 6 is_stmt 0
  66 0050 23000500 		sb	zero,0(a0)
  67 0054 233CE500 		sd	a4,24(a0)
  68 0058 23300502 		sd	zero,32(a0)
  69 005c 2334B502 		sd	a1,40(a0)
  70 0060 2338C502 		sd	a2,48(a0)
  71 0064 233CD502 		sd	a3,56(a0)
  25:src/PCB.cpp   ****         (uint64)&PCB::runner
  72              		.loc 1 25 37
  73 0068 B7170000 		li	a5,4096
  74 006c B386F600 		add	a3,a3,a5
  75              	.LVL4:
  27:src/PCB.cpp   **** {
  76              		.loc 1 27 6
  77 0070 2334D504 		sd	a3,72(a0)
  78 0074 97070000 		lla	a5,_ZN3PCB6runnerEv
  78      93870700 
  79 007c 2338F504 		sd	a5,80(a0)
  80 0080 230C0504 		sb	zero,88(a0)
  30:src/PCB.cpp   **** }
  81              		.loc 1 30 5 is_stmt 1
  30:src/PCB.cpp   **** }
  82              		.loc 1 30 13 is_stmt 0
  83 0084 23340500 		sd	zero,8(a0)
  84              	.LBE12:
  31:src/PCB.cpp   **** 
  85              		.loc 1 31 1
  86 0088 03348100 		ld	s0,8(sp)
  87              		.cfi_restore 8
  88              		.cfi_def_cfa 2, 16
  89 008c 13010101 		addi	sp,sp,16
  90              		.cfi_def_cfa_offset 0
  91 0090 67800000 		jr	ra
  92              		.cfi_endproc
  93              	.LFE26:
  95              		.globl	_ZN3PCBC1EPFvPvES0_S0_m
  96              		.set	_ZN3PCBC1EPFvPvES0_S0_m,_ZN3PCBC2EPFvPvES0_S0_m
  97              		.align	2
  98              		.globl	_ZN3PCB5sleepEm
 100              	_ZN3PCB5sleepEm:
 101              	.LFB28:
  34:src/PCB.cpp   ****     //todo
 102              		.loc 1 34 1 is_stmt 1
 103              		.cfi_startproc
 104              	.LVL5:
 105 0094 130101FF 		addi	sp,sp,-16
 106              		.cfi_def_cfa_offset 16
 107 0098 23348100 		sd	s0,8(sp)
 108              		.cfi_offset 8, -8
 109 009c 13040101 		addi	s0,sp,16
 110              		.cfi_def_cfa 8, 0
  36:src/PCB.cpp   **** 
GAS LISTING /tmp/ccC0UISZ.s 			page 4


 111              		.loc 1 36 1 is_stmt 0
 112 00a0 03348100 		ld	s0,8(sp)
 113              		.cfi_restore 8
 114              		.cfi_def_cfa 2, 16
 115 00a4 13010101 		addi	sp,sp,16
 116              		.cfi_def_cfa_offset 0
 117 00a8 67800000 		jr	ra
 118              		.cfi_endproc
 119              	.LFE28:
 121              		.align	2
 122              		.globl	_ZN3PCB5startEv
 124              	_ZN3PCB5startEv:
 125              	.LFB29:
  39:src/PCB.cpp   ****     Scheduler::put(this);
 126              		.loc 1 39 1 is_stmt 1
 127              		.cfi_startproc
 128              	.LVL6:
 129 00ac 130101FF 		addi	sp,sp,-16
 130              		.cfi_def_cfa_offset 16
 131 00b0 23341100 		sd	ra,8(sp)
 132 00b4 23308100 		sd	s0,0(sp)
 133              		.cfi_offset 1, -8
 134              		.cfi_offset 8, -16
 135 00b8 13040101 		addi	s0,sp,16
 136              		.cfi_def_cfa 8, 0
  40:src/PCB.cpp   **** }
 137              		.loc 1 40 5
  40:src/PCB.cpp   **** }
 138              		.loc 1 40 19 is_stmt 0
 139 00bc 97000000 		call	_ZN9Scheduler3putEP3PCB@plt
 139      E7800000 
 140              	.LVL7:
  41:src/PCB.cpp   **** 
 141              		.loc 1 41 1
 142 00c4 83308100 		ld	ra,8(sp)
 143              		.cfi_restore 1
 144 00c8 03340100 		ld	s0,0(sp)
 145              		.cfi_restore 8
 146              		.cfi_def_cfa 2, 16
 147 00cc 13010101 		addi	sp,sp,16
 148              		.cfi_def_cfa_offset 0
 149 00d0 67800000 		jr	ra
 150              		.cfi_endproc
 151              	.LFE29:
 153              		.align	2
 154              		.globl	_ZN3PCB8dispatchEv
 156              	_ZN3PCB8dispatchEv:
 157              	.LFB31:
  54:src/PCB.cpp   **** 
  55:src/PCB.cpp   **** void PCB::dispatch()
  56:src/PCB.cpp   **** {
 158              		.loc 1 56 1 is_stmt 1
 159              		.cfi_startproc
 160 00d4 130101FE 		addi	sp,sp,-32
 161              		.cfi_def_cfa_offset 32
 162 00d8 233C1100 		sd	ra,24(sp)
 163 00dc 23388100 		sd	s0,16(sp)
GAS LISTING /tmp/ccC0UISZ.s 			page 5


 164 00e0 23349100 		sd	s1,8(sp)
 165 00e4 23302101 		sd	s2,0(sp)
 166              		.cfi_offset 1, -8
 167              		.cfi_offset 8, -16
 168              		.cfi_offset 9, -24
 169              		.cfi_offset 18, -32
 170 00e8 13040102 		addi	s0,sp,32
 171              		.cfi_def_cfa 8, 0
  57:src/PCB.cpp   ****     //trapPrintString("Dispatch called...\n");
  58:src/PCB.cpp   ****     PCB* old = running;
 172              		.loc 1 58 5
 173              		.loc 1 58 10 is_stmt 0
 174 00ec 97040000 		ld	s1,.LANCHOR0
 174      83B40400 
 175              	.LVL8:
  59:src/PCB.cpp   ****     if(old->getState() == PCB::RUNNING)
 176              		.loc 1 59 5 is_stmt 1
 177              	.LBB13:
 178              	.LBB14:
 179              		.file 2 "src/../h/PCB.hpp"
   1:src/../h/PCB.hpp **** //
   2:src/../h/PCB.hpp **** // Created by os on 4/27/22.
   3:src/../h/PCB.hpp **** //
   4:src/../h/PCB.hpp **** 
   5:src/../h/PCB.hpp **** #ifndef PROJECT_BASE_V1_0_PCB_HPP
   6:src/../h/PCB.hpp **** #define PROJECT_BASE_V1_0_PCB_HPP
   7:src/../h/PCB.hpp **** 
   8:src/../h/PCB.hpp **** #include "../lib/hw.h"
   9:src/../h/PCB.hpp **** 
  10:src/../h/PCB.hpp **** class PCB
  11:src/../h/PCB.hpp **** {
  12:src/../h/PCB.hpp **** private:
  13:src/../h/PCB.hpp ****     static uint64 savedRegA4;
  14:src/../h/PCB.hpp **** 
  15:src/../h/PCB.hpp ****     using Body = void (*)(void*);
  16:src/../h/PCB.hpp **** 
  17:src/../h/PCB.hpp ****     PCB(Body body,  void* args, void* stack_space, uint64 timeSlice);
  18:src/../h/PCB.hpp ****     ~PCB();
  19:src/../h/PCB.hpp **** 
  20:src/../h/PCB.hpp ****     void start();
  21:src/../h/PCB.hpp ****     static void dispatch();
  22:src/../h/PCB.hpp ****     static void sleep(time_t);
  23:src/../h/PCB.hpp **** 
  24:src/../h/PCB.hpp ****     static PCB* running;
  25:src/../h/PCB.hpp **** 
  26:src/../h/PCB.hpp ****     static uint64 timeSliceCounter;
  27:src/../h/PCB.hpp ****     uint64 getTimeSlice() { return timeSlice;}
  28:src/../h/PCB.hpp **** 
  29:src/../h/PCB.hpp ****     void* operator new(size_t size);
  30:src/../h/PCB.hpp ****     void operator delete(void *p);
  31:src/../h/PCB.hpp **** 
  32:src/../h/PCB.hpp ****     enum State{READY, RUNNING, SUSPENDED, FINISHED, EXITING, SLEEPING};
  33:src/../h/PCB.hpp ****     State getState() {return state;}
 180              		.loc 2 33 23
 181              		.loc 2 33 30 is_stmt 0
 182 00f4 03A70404 		lw	a4,64(s1)
 183              	.LVL9:
GAS LISTING /tmp/ccC0UISZ.s 			page 6


 184              	.LBE14:
 185              	.LBE13:
 186              		.loc 1 59 5
 187 00f8 93071000 		li	a5,1
 188 00fc 630AF704 		beq	a4,a5,.L12
 189              	.L10:
  60:src/PCB.cpp   ****         Scheduler::put(old);
  61:src/PCB.cpp   ****     PCB::running = Scheduler::get();
 190              		.loc 1 61 5 is_stmt 1
 191              		.loc 1 61 34 is_stmt 0
 192 0100 97000000 		call	_ZN9Scheduler3getEv@plt
 192      E7800000 
 193              	.LVL10:
 194              		.loc 1 61 18
 195 0108 17090000 		lla	s2,.LANCHOR0
 195      13090900 
 196 0110 2330A900 		sd	a0,0(s2)
  62:src/PCB.cpp   ****     PCB::running->setState(PCB::RUNNING);
 197              		.loc 1 62 5 is_stmt 1
 198              	.LVL11:
 199              	.LBB15:
 200              	.LBB16:
  34:src/../h/PCB.hpp ****     void setState(State s) {state = s;}
 201              		.loc 2 34 29
 202              		.loc 2 34 35 is_stmt 0
 203 0114 93071000 		li	a5,1
 204 0118 2320F504 		sw	a5,64(a0)
 205              	.LVL12:
 206              	.LBE16:
 207              	.LBE15:
  63:src/PCB.cpp   ****     //trapPrintString("Switching context...\n");
  64:src/PCB.cpp   **** 
  65:src/PCB.cpp   ****     Riscv::changePrivMode();
 208              		.loc 1 65 5 is_stmt 1
 209              		.loc 1 65 26 is_stmt 0
 210 011c 97000000 		call	_ZN5Riscv14changePrivModeEv@plt
 210      E7800000 
 211              	.LVL13:
  66:src/PCB.cpp   **** 
  67:src/PCB.cpp   ****     PCB::contextSwitch(&old->context, &running->context);
 212              		.loc 1 67 5 is_stmt 1
 213              		.loc 1 67 49 is_stmt 0
 214 0124 83350900 		ld	a1,0(s2)
 215              		.loc 1 67 23
 216 0128 93858504 		addi	a1,a1,72
 217 012c 13858404 		addi	a0,s1,72
 218 0130 97000000 		call	_ZN3PCB13contextSwitchEPNS_7ContextES1_@plt
 218      E7800000 
 219              	.LVL14:
  68:src/PCB.cpp   **** }
 220              		.loc 1 68 1
 221 0138 83308101 		ld	ra,24(sp)
 222              		.cfi_remember_state
 223              		.cfi_restore 1
 224 013c 03340101 		ld	s0,16(sp)
 225              		.cfi_restore 8
 226              		.cfi_def_cfa 2, 32
GAS LISTING /tmp/ccC0UISZ.s 			page 7


 227 0140 83348100 		ld	s1,8(sp)
 228              		.cfi_restore 9
 229              	.LVL15:
 230 0144 03390100 		ld	s2,0(sp)
 231              		.cfi_restore 18
 232 0148 13010102 		addi	sp,sp,32
 233              		.cfi_def_cfa_offset 0
 234 014c 67800000 		jr	ra
 235              	.LVL16:
 236              	.L12:
 237              		.cfi_restore_state
  60:src/PCB.cpp   ****     PCB::running = Scheduler::get();
 238              		.loc 1 60 9 is_stmt 1
  60:src/PCB.cpp   ****     PCB::running = Scheduler::get();
 239              		.loc 1 60 23 is_stmt 0
 240 0150 13850400 		mv	a0,s1
 241 0154 97000000 		call	_ZN9Scheduler3putEP3PCB@plt
 241      E7800000 
 242              	.LVL17:
 243 015c 6FF05FFA 		j	.L10
 244              		.cfi_endproc
 245              	.LFE31:
 247              		.align	2
 248              		.globl	_ZN3PCBnwEm
 250              	_ZN3PCBnwEm:
 251              	.LFB32:
  69:src/PCB.cpp   **** 
  70:src/PCB.cpp   **** void *PCB::operator new(size_t size) {
 252              		.loc 1 70 38 is_stmt 1
 253              		.cfi_startproc
 254              	.LVL18:
 255 0160 130101FF 		addi	sp,sp,-16
 256              		.cfi_def_cfa_offset 16
 257 0164 23341100 		sd	ra,8(sp)
 258 0168 23308100 		sd	s0,0(sp)
 259              		.cfi_offset 1, -8
 260              		.cfi_offset 8, -16
 261 016c 13040101 		addi	s0,sp,16
 262              		.cfi_def_cfa 8, 0
  71:src/PCB.cpp   ****     return MemoryAllocator::kmalloc(size);
 263              		.loc 1 71 5
 264              		.loc 1 71 36 is_stmt 0
 265 0170 97000000 		call	_ZN15MemoryAllocator7kmallocEm@plt
 265      E7800000 
 266              	.LVL19:
  72:src/PCB.cpp   **** }
 267              		.loc 1 72 1
 268 0178 83308100 		ld	ra,8(sp)
 269              		.cfi_restore 1
 270 017c 03340100 		ld	s0,0(sp)
 271              		.cfi_restore 8
 272              		.cfi_def_cfa 2, 16
 273 0180 13010101 		addi	sp,sp,16
 274              		.cfi_def_cfa_offset 0
 275 0184 67800000 		jr	ra
 276              		.cfi_endproc
 277              	.LFE32:
GAS LISTING /tmp/ccC0UISZ.s 			page 8


 279              		.align	2
 280              		.globl	_ZN3PCBdlEPv
 282              	_ZN3PCBdlEPv:
 283              	.LFB33:
  73:src/PCB.cpp   **** 
  74:src/PCB.cpp   **** void PCB::operator delete(void *p) {
 284              		.loc 1 74 36 is_stmt 1
 285              		.cfi_startproc
 286              	.LVL20:
 287 0188 130101FF 		addi	sp,sp,-16
 288              		.cfi_def_cfa_offset 16
 289 018c 23341100 		sd	ra,8(sp)
 290 0190 23308100 		sd	s0,0(sp)
 291              		.cfi_offset 1, -8
 292              		.cfi_offset 8, -16
 293 0194 13040101 		addi	s0,sp,16
 294              		.cfi_def_cfa 8, 0
  75:src/PCB.cpp   ****     MemoryAllocator::kfree(p);
 295              		.loc 1 75 5
 296              		.loc 1 75 27 is_stmt 0
 297 0198 97000000 		call	_ZN15MemoryAllocator5kfreeEPv@plt
 297      E7800000 
 298              	.LVL21:
  76:src/PCB.cpp   **** }
 299              		.loc 1 76 1
 300 01a0 83308100 		ld	ra,8(sp)
 301              		.cfi_restore 1
 302 01a4 03340100 		ld	s0,0(sp)
 303              		.cfi_restore 8
 304              		.cfi_def_cfa 2, 16
 305 01a8 13010101 		addi	sp,sp,16
 306              		.cfi_def_cfa_offset 0
 307 01ac 67800000 		jr	ra
 308              		.cfi_endproc
 309              	.LFE33:
 311              		.align	2
 312              		.globl	_ZN3PCBD2Ev
 314              	_ZN3PCBD2Ev:
 315              	.LFB35:
  77:src/PCB.cpp   **** 
  78:src/PCB.cpp   **** PCB::~PCB()
 316              		.loc 1 78 1 is_stmt 1
 317              		.cfi_startproc
 318              		.cfi_personality 0x9b,DW.ref.__gxx_personality_v0
 319              		.cfi_lsda 0x1b,.LLSDA35
 320              	.LVL22:
 321 01b0 130101FF 		addi	sp,sp,-16
 322              		.cfi_def_cfa_offset 16
 323 01b4 23341100 		sd	ra,8(sp)
 324 01b8 23308100 		sd	s0,0(sp)
 325              		.cfi_offset 1, -8
 326              		.cfi_offset 8, -16
 327 01bc 13040101 		addi	s0,sp,16
 328              		.cfi_def_cfa 8, 0
 329              	.LBB17:
  79:src/PCB.cpp   **** {
  80:src/PCB.cpp   ****     MemoryAllocator::kfree(beginSP);
GAS LISTING /tmp/ccC0UISZ.s 			page 9


 330              		.loc 1 80 5
 331              		.loc 1 80 27 is_stmt 0
 332 01c0 03358503 		ld	a0,56(a0)
 333              	.LVL23:
 334 01c4 97000000 		call	_ZN15MemoryAllocator5kfreeEPv@plt
 334      E7800000 
 335              	.LVL24:
 336              	.LBE17:
  81:src/PCB.cpp   **** }
 337              		.loc 1 81 1
 338 01cc 83308100 		ld	ra,8(sp)
 339              		.cfi_restore 1
 340 01d0 03340100 		ld	s0,0(sp)
 341              		.cfi_restore 8
 342              		.cfi_def_cfa 2, 16
 343 01d4 13010101 		addi	sp,sp,16
 344              		.cfi_def_cfa_offset 0
 345 01d8 67800000 		jr	ra
 346              		.cfi_endproc
 347              	.LFE35:
 348              		.globl	__gxx_personality_v0
 349              		.section	.gcc_except_table,"a",@progbits
 350              	.LLSDA35:
 351 0000 FF       		.byte	0xff
 352 0001 FF       		.byte	0xff
 353 0002 03       		.byte	0x3
 354 0003 00       		.byte	0
 355              		.text
 357              		.globl	_ZN3PCBD1Ev
 358              		.set	_ZN3PCBD1Ev,_ZN3PCBD2Ev
 359              		.align	2
 360              		.globl	_ZN3PCB10initializeEv
 362              	_ZN3PCB10initializeEv:
 363              	.LFB37:
  82:src/PCB.cpp   **** 
  83:src/PCB.cpp   **** void PCB::initialize()
  84:src/PCB.cpp   **** {
 364              		.loc 1 84 1 is_stmt 1
 365              		.cfi_startproc
 366 01dc 130101FD 		addi	sp,sp,-48
 367              		.cfi_def_cfa_offset 48
 368 01e0 23341102 		sd	ra,40(sp)
 369 01e4 23308102 		sd	s0,32(sp)
 370 01e8 233C9100 		sd	s1,24(sp)
 371 01ec 23382101 		sd	s2,16(sp)
 372 01f0 23343101 		sd	s3,8(sp)
 373 01f4 23304101 		sd	s4,0(sp)
 374              		.cfi_offset 1, -8
 375              		.cfi_offset 8, -16
 376              		.cfi_offset 9, -24
 377              		.cfi_offset 18, -32
 378              		.cfi_offset 19, -40
 379              		.cfi_offset 20, -48
 380 01f8 13040103 		addi	s0,sp,48
 381              		.cfi_def_cfa 8, 0
  85:src/PCB.cpp   ****     PCB* mainSystem = new PCB(0, 0, 0, 0);
 382              		.loc 1 85 5
GAS LISTING /tmp/ccC0UISZ.s 			page 10


 383              		.loc 1 85 41 is_stmt 0
 384 01fc 13050006 		li	a0,96
 385 0200 97000000 		call	_ZN3PCBnwEm
 385      E7800000 
 386              	.LVL25:
 387 0208 93040500 		mv	s1,a0
 388 020c 13070000 		li	a4,0
 389 0210 93060000 		li	a3,0
 390 0214 13060000 		li	a2,0
 391 0218 93050000 		li	a1,0
 392 021c 97000000 		call	_ZN3PCBC1EPFvPvES0_S0_m
 392      E7800000 
 393              	.LVL26:
  86:src/PCB.cpp   ****     mainSystem->systemThread = true;
 394              		.loc 1 86 5 is_stmt 1
 395              		.loc 1 86 30 is_stmt 0
 396 0224 93071000 		li	a5,1
 397 0228 2380F400 		sb	a5,0(s1)
  87:src/PCB.cpp   ****     PCB::running = mainSystem;
 398              		.loc 1 87 5 is_stmt 1
 399              		.loc 1 87 18 is_stmt 0
 400 022c 17090000 		lla	s2,.LANCHOR0
 400      13090900 
 401 0234 23309900 		sd	s1,0(s2)
  88:src/PCB.cpp   ****     PCB::running->setState(PCB::RUNNING);
 402              		.loc 1 88 5 is_stmt 1
 403              	.LVL27:
 404              	.LBB18:
 405              	.LBB19:
 406              		.loc 2 34 29
 407              		.loc 2 34 35 is_stmt 0
 408 0238 130A1000 		li	s4,1
 409 023c 23A04405 		sw	s4,64(s1)
 410              	.LVL28:
 411              	.LBE19:
 412              	.LBE18:
  89:src/PCB.cpp   ****     PCB::consolePCB = new PCB(&KConsole::sendCharactersToConsole, 0, MemoryAllocator::kmalloc(DEFAU
 413              		.loc 1 89 5 is_stmt 1
 414              		.loc 1 89 94 is_stmt 0
 415 0240 37150000 		li	a0,4096
 416 0244 97000000 		call	_ZN15MemoryAllocator7kmallocEm@plt
 416      E7800000 
 417              	.LVL29:
 418 024c 93090500 		mv	s3,a0
 419              		.loc 1 89 134
 420 0250 13050006 		li	a0,96
 421 0254 97000000 		call	_ZN3PCBnwEm
 421      E7800000 
 422              	.LVL30:
 423 025c 93040500 		mv	s1,a0
 424              	.LVL31:
 425 0260 13072000 		li	a4,2
 426 0264 93860900 		mv	a3,s3
 427 0268 13060000 		li	a2,0
 428 026c 97050000 		la	a1,_ZN8KConsole23sendCharactersToConsoleEPv
 428      83B50500 
 429 0274 97000000 		call	_ZN3PCBC1EPFvPvES0_S0_m
GAS LISTING /tmp/ccC0UISZ.s 			page 11


 429      E7800000 
 430              	.LVL32:
 431              		.loc 1 89 21
 432 027c 23349900 		sd	s1,8(s2)
  90:src/PCB.cpp   ****     PCB::consolePCB->systemThread = true;
 433              		.loc 1 90 5 is_stmt 1
 434              		.loc 1 90 35 is_stmt 0
 435 0280 23804401 		sb	s4,0(s1)
  91:src/PCB.cpp   ****     PCB::consolePCB->start();
 436              		.loc 1 91 5 is_stmt 1
 437              		.loc 1 91 27 is_stmt 0
 438 0284 03358900 		ld	a0,8(s2)
 439 0288 97000000 		call	_ZN3PCB5startEv
 439      E7800000 
 440              	.LVL33:
  92:src/PCB.cpp   ****     PCB::userPCB = new PCB(&Riscv::userMainWrapper, 0, MemoryAllocator::kmalloc(DEFAULT_STACK_SIZE)
 441              		.loc 1 92 5 is_stmt 1
 442              		.loc 1 92 80 is_stmt 0
 443 0290 37150000 		li	a0,4096
 444 0294 97000000 		call	_ZN15MemoryAllocator7kmallocEm@plt
 444      E7800000 
 445              	.LVL34:
 446 029c 93090500 		mv	s3,a0
 447              		.loc 1 92 120
 448 02a0 13050006 		li	a0,96
 449 02a4 97000000 		call	_ZN3PCBnwEm
 449      E7800000 
 450              	.LVL35:
 451 02ac 93040500 		mv	s1,a0
 452 02b0 13072000 		li	a4,2
 453 02b4 93860900 		mv	a3,s3
 454 02b8 13060000 		li	a2,0
 455 02bc 97050000 		la	a1,_ZN5Riscv15userMainWrapperEPv
 455      83B50500 
 456 02c4 97000000 		call	_ZN3PCBC1EPFvPvES0_S0_m
 456      E7800000 
 457              	.LVL36:
 458              		.loc 1 92 18
 459 02cc 23389900 		sd	s1,16(s2)
  93:src/PCB.cpp   ****     PCB::userPCB->start();
 460              		.loc 1 93 5 is_stmt 1
 461              		.loc 1 93 24 is_stmt 0
 462 02d0 13850400 		mv	a0,s1
 463 02d4 97000000 		call	_ZN3PCB5startEv
 463      E7800000 
 464              	.LVL37:
  94:src/PCB.cpp   **** }
 465              		.loc 1 94 1
 466 02dc 83308102 		ld	ra,40(sp)
 467              		.cfi_restore 1
 468 02e0 03340102 		ld	s0,32(sp)
 469              		.cfi_restore 8
 470              		.cfi_def_cfa 2, 48
 471 02e4 83348101 		ld	s1,24(sp)
 472              		.cfi_restore 9
 473 02e8 03390101 		ld	s2,16(sp)
 474              		.cfi_restore 18
GAS LISTING /tmp/ccC0UISZ.s 			page 12


 475 02ec 83398100 		ld	s3,8(sp)
 476              		.cfi_restore 19
 477 02f0 033A0100 		ld	s4,0(sp)
 478              		.cfi_restore 20
 479 02f4 13010103 		addi	sp,sp,48
 480              		.cfi_def_cfa_offset 0
 481 02f8 67800000 		jr	ra
 482              		.cfi_endproc
 483              	.LFE37:
 485              		.align	2
 486              		.globl	_ZN3PCB10isFinishedEv
 488              	_ZN3PCB10isFinishedEv:
 489              	.LFB38:
  95:src/PCB.cpp   **** 
  96:src/PCB.cpp   **** bool PCB::isFinished()
  97:src/PCB.cpp   **** {
 490              		.loc 1 97 1 is_stmt 1
 491              		.cfi_startproc
 492              	.LVL38:
 493 02fc 130101FF 		addi	sp,sp,-16
 494              		.cfi_def_cfa_offset 16
 495 0300 23348100 		sd	s0,8(sp)
 496              		.cfi_offset 8, -8
 497 0304 13040101 		addi	s0,sp,16
 498              		.cfi_def_cfa 8, 0
  98:src/PCB.cpp   ****     return state == PCB::FINISHED;
 499              		.loc 1 98 5
 500              		.loc 1 98 12 is_stmt 0
 501 0308 03250504 		lw	a0,64(a0)
 502              	.LVL39:
 503              		.loc 1 98 26
 504 030c 1305D5FF 		addi	a0,a0,-3
  99:src/PCB.cpp   **** }
 505              		.loc 1 99 1
 506 0310 13351500 		seqz	a0,a0
 507 0314 03348100 		ld	s0,8(sp)
 508              		.cfi_restore 8
 509              		.cfi_def_cfa 2, 16
 510 0318 13010101 		addi	sp,sp,16
 511              		.cfi_def_cfa_offset 0
 512 031c 67800000 		jr	ra
 513              		.cfi_endproc
 514              	.LFE38:
 516              		.align	2
 517              		.globl	_ZN3PCB17threadExitHandlerEv
 519              	_ZN3PCB17threadExitHandlerEv:
 520              	.LFB39:
 100:src/PCB.cpp   **** 
 101:src/PCB.cpp   **** void PCB::threadExitHandler()
 102:src/PCB.cpp   **** {
 521              		.loc 1 102 1 is_stmt 1
 522              		.cfi_startproc
 523 0320 130101FF 		addi	sp,sp,-16
 524              		.cfi_def_cfa_offset 16
 525 0324 23341100 		sd	ra,8(sp)
 526 0328 23308100 		sd	s0,0(sp)
 527              		.cfi_offset 1, -8
GAS LISTING /tmp/ccC0UISZ.s 			page 13


 528              		.cfi_offset 8, -16
 529 032c 13040101 		addi	s0,sp,16
 530              		.cfi_def_cfa 8, 0
 103:src/PCB.cpp   ****     //trapPrintString("Exiting thread...\n");
 104:src/PCB.cpp   ****     PCB::timeSliceCounter = 0;
 531              		.loc 1 104 5
 532              		.loc 1 104 27 is_stmt 0
 533 0330 97070000 		lla	a5,.LANCHOR0
 533      93870700 
 534 0338 23BC0700 		sd	zero,24(a5)
 105:src/PCB.cpp   ****     PCB::running->setState(PCB::FINISHED);
 535              		.loc 1 105 5 is_stmt 1
 536              		.loc 1 105 27 is_stmt 0
 537 033c 83B70700 		ld	a5,0(a5)
 538              	.LVL40:
 539              	.LBB20:
 540              	.LBB21:
 541              		.loc 2 34 29 is_stmt 1
 542              		.loc 2 34 35 is_stmt 0
 543 0340 13073000 		li	a4,3
 544 0344 23A0E704 		sw	a4,64(a5)
 545              	.LVL41:
 546              	.LBE21:
 547              	.LBE20:
 106:src/PCB.cpp   ****     PCB::dispatch();
 548              		.loc 1 106 5 is_stmt 1
 549              		.loc 1 106 18 is_stmt 0
 550 0348 97000000 		call	_ZN3PCB8dispatchEv
 550      E7800000 
 551              	.LVL42:
 107:src/PCB.cpp   ****     __asm__ volatile("li a0, 0");
 552              		.loc 1 107 5 is_stmt 1
 553              		.loc 1 107 33 is_stmt 0
 554              	#APP
 555              	# 107 "src/PCB.cpp" 1
 108              	    Riscv::w_a0_sscratch();
 556              		li a0, 0
 557              	# 0 "" 2
 558              		.loc 1 108 5 is_stmt 1
 559              		.loc 1 108 25 is_stmt 0
 560              	#NO_APP
 561 0354 97000000 		call	_ZN5Riscv13w_a0_sscratchEv@plt
 561      E7800000 
 562              	.LVL43:
 109:src/PCB.cpp   **** }
 563              		.loc 1 109 1
 564 035c 83308100 		ld	ra,8(sp)
 565              		.cfi_restore 1
 566 0360 03340100 		ld	s0,0(sp)
 567              		.cfi_restore 8
 568              		.cfi_def_cfa 2, 16
 569 0364 13010101 		addi	sp,sp,16
 570              		.cfi_def_cfa_offset 0
 571 0368 67800000 		jr	ra
 572              		.cfi_endproc
 573              	.LFE39:
 575              		.align	2
GAS LISTING /tmp/ccC0UISZ.s 			page 14


 576              		.globl	_ZN3PCB21threadDispatchHandlerEv
 578              	_ZN3PCB21threadDispatchHandlerEv:
 579              	.LFB40:
 110:src/PCB.cpp   **** 
 111:src/PCB.cpp   **** void PCB::threadDispatchHandler()
 112:src/PCB.cpp   **** {
 580              		.loc 1 112 1 is_stmt 1
 581              		.cfi_startproc
 582 036c 130101FF 		addi	sp,sp,-16
 583              		.cfi_def_cfa_offset 16
 584 0370 23341100 		sd	ra,8(sp)
 585 0374 23308100 		sd	s0,0(sp)
 586              		.cfi_offset 1, -8
 587              		.cfi_offset 8, -16
 588 0378 13040101 		addi	s0,sp,16
 589              		.cfi_def_cfa 8, 0
 113:src/PCB.cpp   ****     PCB::timeSliceCounter = 0;
 590              		.loc 1 113 5
 591              		.loc 1 113 27 is_stmt 0
 592 037c 97070000 		sd	zero,.LANCHOR0+24,a5
 592      23B00700 
 114:src/PCB.cpp   ****     PCB::dispatch();
 593              		.loc 1 114 5 is_stmt 1
 594              		.loc 1 114 18 is_stmt 0
 595 0384 97000000 		call	_ZN3PCB8dispatchEv
 595      E7800000 
 596              	.LVL44:
 115:src/PCB.cpp   **** }
 597              		.loc 1 115 1
 598 038c 83308100 		ld	ra,8(sp)
 599              		.cfi_restore 1
 600 0390 03340100 		ld	s0,0(sp)
 601              		.cfi_restore 8
 602              		.cfi_def_cfa 2, 16
 603 0394 13010101 		addi	sp,sp,16
 604              		.cfi_def_cfa_offset 0
 605 0398 67800000 		jr	ra
 606              		.cfi_endproc
 607              	.LFE40:
 609              		.align	2
 610              		.globl	_ZN3PCB18threadSleepHandlerEv
 612              	_ZN3PCB18threadSleepHandlerEv:
 613              	.LFB41:
 116:src/PCB.cpp   **** 
 117:src/PCB.cpp   **** void PCB::threadSleepHandler()
 118:src/PCB.cpp   **** {
 614              		.loc 1 118 1 is_stmt 1
 615              		.cfi_startproc
 616 039c 130101FF 		addi	sp,sp,-16
 617              		.cfi_def_cfa_offset 16
 618 03a0 23341100 		sd	ra,8(sp)
 619 03a4 23308100 		sd	s0,0(sp)
 620              		.cfi_offset 1, -8
 621              		.cfi_offset 8, -16
 622 03a8 13040101 		addi	s0,sp,16
 623              		.cfi_def_cfa 8, 0
 119:src/PCB.cpp   ****     uint64 time;
GAS LISTING /tmp/ccC0UISZ.s 			page 15


 624              		.loc 1 119 5
 120:src/PCB.cpp   ****     __asm__ volatile("mv %0, a1" : "=r"(time));
 625              		.loc 1 120 5
 626              		.loc 1 120 47 is_stmt 0
 627              	#APP
 628              	# 120 "src/PCB.cpp" 1
 121              	    PCB::timeSliceCounter = 0;
 629              		mv a5, a1
 630              	# 0 "" 2
 631              	.LVL45:
 632              		.loc 1 121 5 is_stmt 1
 633              		.loc 1 121 27 is_stmt 0
 634              	#NO_APP
 635 03b0 17070000 		lla	a4,.LANCHOR0
 635      13070700 
 636 03b8 233C0700 		sd	zero,24(a4)
 122:src/PCB.cpp   ****     PCB::running->setTimeToSleep(time + Riscv::totalTime);
 637              		.loc 1 122 5 is_stmt 1
 638              		.loc 1 122 33 is_stmt 0
 639 03bc 03370700 		ld	a4,0(a4)
 640 03c0 97060000 		la	a3,_ZN5Riscv9totalTimeE
 640      83B60600 
 641 03c8 83B60600 		ld	a3,0(a3)
 642 03cc B387D700 		add	a5,a5,a3
 643              	.LVL46:
 644              	.LBB22:
 645              	.LBB23:
  35:src/../h/PCB.hpp ****     void setTimeToSleep(uint64 time) {timeToSleep = time;}
 646              		.loc 2 35 39 is_stmt 1
 647              		.loc 2 35 51 is_stmt 0
 648 03d0 2330F702 		sd	a5,32(a4)
 649              	.LVL47:
 650              	.LBE23:
 651              	.LBE22:
 123:src/PCB.cpp   ****     SleepPCBList::insertSleepingPCB();
 652              		.loc 1 123 5 is_stmt 1
 653              		.loc 1 123 36 is_stmt 0
 654 03d4 97000000 		call	_ZN12SleepPCBList17insertSleepingPCBEv@plt
 654      E7800000 
 655              	.LVL48:
 124:src/PCB.cpp   ****     PCB::dispatch();
 656              		.loc 1 124 5 is_stmt 1
 657              		.loc 1 124 18 is_stmt 0
 658 03dc 97000000 		call	_ZN3PCB8dispatchEv
 658      E7800000 
 659              	.LVL49:
 125:src/PCB.cpp   ****     __asm__ volatile("li a0, 0x0");
 660              		.loc 1 125 5 is_stmt 1
 661              		.loc 1 125 35 is_stmt 0
 662              	#APP
 663              	# 125 "src/PCB.cpp" 1
 126              	    Riscv::w_a0_sscratch();
 664              		li a0, 0x0
 665              	# 0 "" 2
 666              		.loc 1 126 5 is_stmt 1
 667              		.loc 1 126 25 is_stmt 0
 668              	#NO_APP
GAS LISTING /tmp/ccC0UISZ.s 			page 16


 669 03e8 97000000 		call	_ZN5Riscv13w_a0_sscratchEv@plt
 669      E7800000 
 670              	.LVL50:
 127:src/PCB.cpp   **** }
 671              		.loc 1 127 1
 672 03f0 83308100 		ld	ra,8(sp)
 673              		.cfi_restore 1
 674 03f4 03340100 		ld	s0,0(sp)
 675              		.cfi_restore 8
 676              		.cfi_def_cfa 2, 16
 677 03f8 13010101 		addi	sp,sp,16
 678              		.cfi_def_cfa_offset 0
 679 03fc 67800000 		jr	ra
 680              		.cfi_endproc
 681              	.LFE41:
 683              		.align	2
 684              		.globl	_ZN3PCB19threadCreateHandlerEv
 686              	_ZN3PCB19threadCreateHandlerEv:
 687              	.LFB42:
 128:src/PCB.cpp   **** 
 129:src/PCB.cpp   **** void PCB::threadCreateHandler()
 130:src/PCB.cpp   **** {
 688              		.loc 1 130 1 is_stmt 1
 689              		.cfi_startproc
 690 0400 130101FD 		addi	sp,sp,-48
 691              		.cfi_def_cfa_offset 48
 692 0404 23341102 		sd	ra,40(sp)
 693 0408 23308102 		sd	s0,32(sp)
 694 040c 233C9100 		sd	s1,24(sp)
 695 0410 23382101 		sd	s2,16(sp)
 696 0414 23343101 		sd	s3,8(sp)
 697 0418 23304101 		sd	s4,0(sp)
 698              		.cfi_offset 1, -8
 699              		.cfi_offset 8, -16
 700              		.cfi_offset 9, -24
 701              		.cfi_offset 18, -32
 702              		.cfi_offset 19, -40
 703              		.cfi_offset 20, -48
 704 041c 13040103 		addi	s0,sp,48
 705              		.cfi_def_cfa 8, 0
 131:src/PCB.cpp   ****     uint64 start_routine;
 706              		.loc 1 131 5
 132:src/PCB.cpp   ****     uint64 args;
 707              		.loc 1 132 5
 133:src/PCB.cpp   ****     PCB **threadHandle;
 708              		.loc 1 133 5
 134:src/PCB.cpp   ****     __asm__ volatile("mv %0, a1" : "=r"(threadHandle));
 709              		.loc 1 134 5
 710              		.loc 1 134 55 is_stmt 0
 711              	#APP
 712              	# 134 "src/PCB.cpp" 1
 135              	    __asm__ volatile("mv %0, a2" : "=r"(start_routine));
 713              		mv s2, a1
 714              	# 0 "" 2
 715              	.LVL51:
 716              		.loc 1 135 5 is_stmt 1
 717              		.loc 1 135 56 is_stmt 0
GAS LISTING /tmp/ccC0UISZ.s 			page 17


 718              	# 135 "src/PCB.cpp" 1
 136              	    __asm__ volatile("mv %0, a3" : "=r"(args));
 719              		mv s3, a2
 720              	# 0 "" 2
 721              	.LVL52:
 722              		.loc 1 136 5 is_stmt 1
 723              		.loc 1 136 47 is_stmt 0
 724              	# 136 "src/PCB.cpp" 1
 137              	
 725              		mv s4, a3
 726              	# 0 "" 2
 727              	.LVL53:
 138:src/PCB.cpp   ****     PCB *newPCB = new PCB((void (*)(void *)) start_routine, (void *) args, (void *) PCB::savedRegA4
 728              		.loc 1 138 5 is_stmt 1
 729              		.loc 1 138 120 is_stmt 0
 730              	#NO_APP
 731 042c 13050006 		li	a0,96
 732 0430 97000000 		call	_ZN3PCBnwEm
 732      E7800000 
 733              	.LVL54:
 734 0438 93040500 		mv	s1,a0
 735 043c 13072000 		li	a4,2
 736 0440 97060000 		ld	a3,.LANCHOR0+32
 736      83B60600 
 737 0448 13060A00 		mv	a2,s4
 738 044c 93850900 		mv	a1,s3
 739 0450 97000000 		call	_ZN3PCBC1EPFvPvES0_S0_m
 739      E7800000 
 740              	.LVL55:
 139:src/PCB.cpp   **** 
 140:src/PCB.cpp   ****     (*threadHandle) = newPCB;
 741              		.loc 1 140 5 is_stmt 1
 742              		.loc 1 140 21 is_stmt 0
 743 0458 23309900 		sd	s1,0(s2)
 141:src/PCB.cpp   **** 
 142:src/PCB.cpp   ****     if (newPCB == 0)
 744              		.loc 1 142 5 is_stmt 1
 745 045c 638E0402 		beqz	s1,.L33
 143:src/PCB.cpp   ****             __asm__ volatile("li a0, 0xffffffffffffffff");
 144:src/PCB.cpp   ****     else
 145:src/PCB.cpp   ****     {
 146:src/PCB.cpp   ****         newPCB->start();
 746              		.loc 1 146 9
 747              		.loc 1 146 22 is_stmt 0
 748 0460 13850400 		mv	a0,s1
 749 0464 97000000 		call	_ZN3PCB5startEv
 749      E7800000 
 750              	.LVL56:
 147:src/PCB.cpp   ****         __asm__ volatile("li a0, 0");
 751              		.loc 1 147 9 is_stmt 1
 752              		.loc 1 147 37 is_stmt 0
 753              	#APP
 754              	# 147 "src/PCB.cpp" 1
 148              	    }
 755              		li a0, 0
 756              	# 0 "" 2
 757              	#NO_APP
GAS LISTING /tmp/ccC0UISZ.s 			page 18


 758              	.L31:
 149:src/PCB.cpp   ****     Riscv::w_a0_sscratch();
 759              		.loc 1 149 5 is_stmt 1
 760              		.loc 1 149 25 is_stmt 0
 761 0470 97000000 		call	_ZN5Riscv13w_a0_sscratchEv@plt
 761      E7800000 
 762              	.LVL57:
 150:src/PCB.cpp   **** }
 763              		.loc 1 150 1
 764 0478 83308102 		ld	ra,40(sp)
 765              		.cfi_remember_state
 766              		.cfi_restore 1
 767 047c 03340102 		ld	s0,32(sp)
 768              		.cfi_restore 8
 769              		.cfi_def_cfa 2, 48
 770 0480 83348101 		ld	s1,24(sp)
 771              		.cfi_restore 9
 772              	.LVL58:
 773 0484 03390101 		ld	s2,16(sp)
 774              		.cfi_restore 18
 775              	.LVL59:
 776 0488 83398100 		ld	s3,8(sp)
 777              		.cfi_restore 19
 778              	.LVL60:
 779 048c 033A0100 		ld	s4,0(sp)
 780              		.cfi_restore 20
 781              	.LVL61:
 782 0490 13010103 		addi	sp,sp,48
 783              		.cfi_def_cfa_offset 0
 784 0494 67800000 		jr	ra
 785              	.LVL62:
 786              	.L33:
 787              		.cfi_restore_state
 143:src/PCB.cpp   ****     else
 788              		.loc 1 143 13 is_stmt 1
 143:src/PCB.cpp   ****     else
 789              		.loc 1 143 58 is_stmt 0
 790              	#APP
 791              	# 143 "src/PCB.cpp" 1
 792              		li a0, 0xffffffffffffffff
 793              	# 0 "" 2
 794              	#NO_APP
 795 049c 6FF05FFD 		j	.L31
 796              		.cfi_endproc
 797              	.LFE42:
 799              		.align	2
 800              		.globl	_ZN3PCB18threadStartHandlerEv
 802              	_ZN3PCB18threadStartHandlerEv:
 803              	.LFB43:
 151:src/PCB.cpp   **** 
 152:src/PCB.cpp   **** void PCB::threadStartHandler()
 153:src/PCB.cpp   **** {
 804              		.loc 1 153 1 is_stmt 1
 805              		.cfi_startproc
 806 04a0 130101FF 		addi	sp,sp,-16
 807              		.cfi_def_cfa_offset 16
 808 04a4 23341100 		sd	ra,8(sp)
GAS LISTING /tmp/ccC0UISZ.s 			page 19


 809 04a8 23308100 		sd	s0,0(sp)
 810              		.cfi_offset 1, -8
 811              		.cfi_offset 8, -16
 812 04ac 13040101 		addi	s0,sp,16
 813              		.cfi_def_cfa 8, 0
 154:src/PCB.cpp   ****     PCB* pcb;
 814              		.loc 1 154 5
 155:src/PCB.cpp   ****     __asm__ volatile("mv %0, a1" : "=r"(pcb));
 815              		.loc 1 155 5
 816              		.loc 1 155 46 is_stmt 0
 817              	#APP
 818              	# 155 "src/PCB.cpp" 1
 156              	    if(pcb != 0)
 819              		mv a0, a1
 820              	# 0 "" 2
 821              	.LVL63:
 822              		.loc 1 156 5 is_stmt 1
 823              	#NO_APP
 824 04b4 63040502 		beqz	a0,.L35
 157:src/PCB.cpp   ****     {
 158:src/PCB.cpp   ****         pcb->start();
 825              		.loc 1 158 9
 826              		.loc 1 158 19 is_stmt 0
 827 04b8 97000000 		call	_ZN3PCB5startEv
 827      E7800000 
 828              	.LVL64:
 159:src/PCB.cpp   ****         __asm__ volatile("li a0, 0");
 829              		.loc 1 159 9 is_stmt 1
 830              		.loc 1 159 37 is_stmt 0
 831              	#APP
 832              	# 159 "src/PCB.cpp" 1
 160              	    }
 833              		li a0, 0
 834              	# 0 "" 2
 835              	#NO_APP
 836              	.L36:
 161:src/PCB.cpp   ****     else
 162:src/PCB.cpp   ****     {
 163:src/PCB.cpp   ****         __asm__ volatile("li a0, 0xffffffffffffffff");
 164:src/PCB.cpp   ****     }
 165:src/PCB.cpp   ****     Riscv::w_a0_sscratch();
 837              		.loc 1 165 5 is_stmt 1
 838              		.loc 1 165 25 is_stmt 0
 839 04c4 97000000 		call	_ZN5Riscv13w_a0_sscratchEv@plt
 839      E7800000 
 840              	.LVL65:
 166:src/PCB.cpp   **** }
 841              		.loc 1 166 1
 842 04cc 83308100 		ld	ra,8(sp)
 843              		.cfi_remember_state
 844              		.cfi_restore 1
 845 04d0 03340100 		ld	s0,0(sp)
 846              		.cfi_restore 8
 847              		.cfi_def_cfa 2, 16
 848 04d4 13010101 		addi	sp,sp,16
 849              		.cfi_def_cfa_offset 0
 850 04d8 67800000 		jr	ra
GAS LISTING /tmp/ccC0UISZ.s 			page 20


 851              	.LVL66:
 852              	.L35:
 853              		.cfi_restore_state
 163:src/PCB.cpp   ****     }
 854              		.loc 1 163 9 is_stmt 1
 163:src/PCB.cpp   ****     }
 855              		.loc 1 163 54 is_stmt 0
 856              	#APP
 857              	# 163 "src/PCB.cpp" 1
 858              		li a0, 0xffffffffffffffff
 859              	# 0 "" 2
 860              	#NO_APP
 861 04e0 6FF05FFE 		j	.L36
 862              		.cfi_endproc
 863              	.LFE43:
 865              		.align	2
 866              		.globl	_ZN3PCB20threadMakePCBHandlerEv
 868              	_ZN3PCB20threadMakePCBHandlerEv:
 869              	.LFB44:
 167:src/PCB.cpp   **** 
 168:src/PCB.cpp   **** void PCB::threadMakePCBHandler()
 169:src/PCB.cpp   **** {
 870              		.loc 1 169 1 is_stmt 1
 871              		.cfi_startproc
 872 04e4 130101FD 		addi	sp,sp,-48
 873              		.cfi_def_cfa_offset 48
 874 04e8 23341102 		sd	ra,40(sp)
 875 04ec 23308102 		sd	s0,32(sp)
 876 04f0 233C9100 		sd	s1,24(sp)
 877 04f4 23382101 		sd	s2,16(sp)
 878 04f8 23343101 		sd	s3,8(sp)
 879 04fc 23304101 		sd	s4,0(sp)
 880              		.cfi_offset 1, -8
 881              		.cfi_offset 8, -16
 882              		.cfi_offset 9, -24
 883              		.cfi_offset 18, -32
 884              		.cfi_offset 19, -40
 885              		.cfi_offset 20, -48
 886 0500 13040103 		addi	s0,sp,48
 887              		.cfi_def_cfa 8, 0
 170:src/PCB.cpp   ****     uint64 start_routine;
 888              		.loc 1 170 5
 171:src/PCB.cpp   ****     uint64 args;
 889              		.loc 1 171 5
 172:src/PCB.cpp   ****     PCB **threadHandle;
 890              		.loc 1 172 5
 173:src/PCB.cpp   ****     __asm__ volatile("mv %0, a1" : "=r"(threadHandle));
 891              		.loc 1 173 5
 892              		.loc 1 173 55 is_stmt 0
 893              	#APP
 894              	# 173 "src/PCB.cpp" 1
 174              	    __asm__ volatile("mv %0, a2" : "=r"(start_routine));
 895              		mv s2, a1
 896              	# 0 "" 2
 897              	.LVL67:
 898              		.loc 1 174 5 is_stmt 1
 899              		.loc 1 174 56 is_stmt 0
GAS LISTING /tmp/ccC0UISZ.s 			page 21


 900              	# 174 "src/PCB.cpp" 1
 175              	    __asm__ volatile("mv %0, a3" : "=r"(args));
 901              		mv s3, a2
 902              	# 0 "" 2
 903              	.LVL68:
 904              		.loc 1 175 5 is_stmt 1
 905              		.loc 1 175 47 is_stmt 0
 906              	# 175 "src/PCB.cpp" 1
 176              	
 907              		mv s4, a3
 908              	# 0 "" 2
 909              	.LVL69:
 177:src/PCB.cpp   ****     PCB *newPCB = new PCB((void (*)(void *)) start_routine, (void *) args, (void *) PCB::savedRegA4
 910              		.loc 1 177 5 is_stmt 1
 911              		.loc 1 177 120 is_stmt 0
 912              	#NO_APP
 913 0510 13050006 		li	a0,96
 914 0514 97000000 		call	_ZN3PCBnwEm
 914      E7800000 
 915              	.LVL70:
 916 051c 93040500 		mv	s1,a0
 917 0520 13072000 		li	a4,2
 918 0524 97060000 		ld	a3,.LANCHOR0+32
 918      83B60600 
 919 052c 13060A00 		mv	a2,s4
 920 0530 93850900 		mv	a1,s3
 921 0534 97000000 		call	_ZN3PCBC1EPFvPvES0_S0_m
 921      E7800000 
 922              	.LVL71:
 178:src/PCB.cpp   **** 
 179:src/PCB.cpp   ****     (*threadHandle) = newPCB;
 923              		.loc 1 179 5 is_stmt 1
 924              		.loc 1 179 21 is_stmt 0
 925 053c 23309900 		sd	s1,0(s2)
 180:src/PCB.cpp   **** 
 181:src/PCB.cpp   ****     if (newPCB == 0)
 926              		.loc 1 181 5 is_stmt 1
 927 0540 63880402 		beqz	s1,.L42
 182:src/PCB.cpp   ****         __asm__ volatile("li a0, 0xffffffffffffffff");
 183:src/PCB.cpp   ****     else
 184:src/PCB.cpp   ****         __asm__ volatile("li a0, 0");
 928              		.loc 1 184 9
 929              		.loc 1 184 37 is_stmt 0
 930              	#APP
 931              	# 184 "src/PCB.cpp" 1
 185              	    Riscv::w_a0_sscratch();
 932              		li a0, 0
 933              	# 0 "" 2
 934              	#NO_APP
 935              	.L40:
 936              		.loc 1 185 5 is_stmt 1
 937              		.loc 1 185 25 is_stmt 0
 938 0548 97000000 		call	_ZN5Riscv13w_a0_sscratchEv@plt
 938      E7800000 
 939              	.LVL72:
 186:src/PCB.cpp   **** }
 940              		.loc 1 186 1
GAS LISTING /tmp/ccC0UISZ.s 			page 22


 941 0550 83308102 		ld	ra,40(sp)
 942              		.cfi_remember_state
 943              		.cfi_restore 1
 944 0554 03340102 		ld	s0,32(sp)
 945              		.cfi_restore 8
 946              		.cfi_def_cfa 2, 48
 947 0558 83348101 		ld	s1,24(sp)
 948              		.cfi_restore 9
 949              	.LVL73:
 950 055c 03390101 		ld	s2,16(sp)
 951              		.cfi_restore 18
 952              	.LVL74:
 953 0560 83398100 		ld	s3,8(sp)
 954              		.cfi_restore 19
 955              	.LVL75:
 956 0564 033A0100 		ld	s4,0(sp)
 957              		.cfi_restore 20
 958              	.LVL76:
 959 0568 13010103 		addi	sp,sp,48
 960              		.cfi_def_cfa_offset 0
 961 056c 67800000 		jr	ra
 962              	.LVL77:
 963              	.L42:
 964              		.cfi_restore_state
 182:src/PCB.cpp   ****         __asm__ volatile("li a0, 0xffffffffffffffff");
 965              		.loc 1 182 9 is_stmt 1
 182:src/PCB.cpp   ****         __asm__ volatile("li a0, 0xffffffffffffffff");
 966              		.loc 1 182 54 is_stmt 0
 967              	#APP
 968              	# 182 "src/PCB.cpp" 1
 969              		li a0, 0xffffffffffffffff
 970              	# 0 "" 2
 971              	#NO_APP
 972 0574 6FF05FFD 		j	.L40
 973              		.cfi_endproc
 974              	.LFE44:
 976              		.align	2
 977              		.globl	_ZN3PCB19threadDelPCBHandlerEv
 979              	_ZN3PCB19threadDelPCBHandlerEv:
 980              	.LFB45:
 187:src/PCB.cpp   **** 
 188:src/PCB.cpp   **** void PCB::threadDelPCBHandler()
 189:src/PCB.cpp   **** {
 981              		.loc 1 189 1 is_stmt 1
 982              		.cfi_startproc
 983 0578 130101FE 		addi	sp,sp,-32
 984              		.cfi_def_cfa_offset 32
 985 057c 233C1100 		sd	ra,24(sp)
 986 0580 23388100 		sd	s0,16(sp)
 987 0584 23349100 		sd	s1,8(sp)
 988              		.cfi_offset 1, -8
 989              		.cfi_offset 8, -16
 990              		.cfi_offset 9, -24
 991 0588 13040102 		addi	s0,sp,32
 992              		.cfi_def_cfa 8, 0
 190:src/PCB.cpp   ****     PCB* pcb;
 993              		.loc 1 190 5
GAS LISTING /tmp/ccC0UISZ.s 			page 23


 191:src/PCB.cpp   ****     __asm__ volatile("mv %0, a1" : "=r"(pcb));
 994              		.loc 1 191 5
 995              		.loc 1 191 46 is_stmt 0
 996              	#APP
 997              	# 191 "src/PCB.cpp" 1
 192              	    if(pcb != 0)
 998              		mv s1, a1
 999              	# 0 "" 2
 1000              	.LVL78:
 1001              		.loc 1 192 5 is_stmt 1
 1002              	#NO_APP
 1003 0590 638E0402 		beqz	s1,.L44
 193:src/PCB.cpp   ****     {
 194:src/PCB.cpp   ****         delete pcb;
 1004              		.loc 1 194 9 discriminator 1
 1005              		.loc 1 194 16 is_stmt 0 discriminator 1
 1006 0594 13850400 		mv	a0,s1
 1007 0598 97000000 		call	_ZN3PCBD1Ev
 1007      E7800000 
 1008              	.LVL79:
 1009 05a0 13850400 		mv	a0,s1
 1010 05a4 97000000 		call	_ZN3PCBdlEPv
 1010      E7800000 
 1011              	.LVL80:
 195:src/PCB.cpp   ****         __asm__ volatile("li a0, 0x0");
 1012              		.loc 1 195 9 is_stmt 1 discriminator 1
 1013              		.loc 1 195 39 is_stmt 0 discriminator 1
 1014              	#APP
 1015              	# 195 "src/PCB.cpp" 1
 196              	    }
 1016              		li a0, 0x0
 1017              	# 0 "" 2
 1018              	#NO_APP
 1019              	.L45:
 197:src/PCB.cpp   ****     else
 198:src/PCB.cpp   ****     {
 199:src/PCB.cpp   ****         __asm__ volatile("li a0, 0x1");
 200:src/PCB.cpp   ****     }
 201:src/PCB.cpp   ****     Riscv::w_a0_sscratch();
 1020              		.loc 1 201 5 is_stmt 1
 1021              		.loc 1 201 25 is_stmt 0
 1022 05b0 97000000 		call	_ZN5Riscv13w_a0_sscratchEv@plt
 1022      E7800000 
 1023              	.LVL81:
 202:src/PCB.cpp   **** }
 1024              		.loc 1 202 1
 1025 05b8 83308101 		ld	ra,24(sp)
 1026              		.cfi_remember_state
 1027              		.cfi_restore 1
 1028 05bc 03340101 		ld	s0,16(sp)
 1029              		.cfi_restore 8
 1030              		.cfi_def_cfa 2, 32
 1031 05c0 83348100 		ld	s1,8(sp)
 1032              		.cfi_restore 9
 1033              	.LVL82:
 1034 05c4 13010102 		addi	sp,sp,32
 1035              		.cfi_def_cfa_offset 0
GAS LISTING /tmp/ccC0UISZ.s 			page 24


 1036 05c8 67800000 		jr	ra
 1037              	.LVL83:
 1038              	.L44:
 1039              		.cfi_restore_state
 199:src/PCB.cpp   ****     }
 1040              		.loc 1 199 9 is_stmt 1
 199:src/PCB.cpp   ****     }
 1041              		.loc 1 199 39 is_stmt 0
 1042              	#APP
 1043              	# 199 "src/PCB.cpp" 1
 1044              		li a0, 0x1
 1045              	# 0 "" 2
 1046              	#NO_APP
 1047 05d0 6FF01FFE 		j	.L45
 1048              		.cfi_endproc
 1049              	.LFE45:
 1051              		.globl	_ZN3PCB7userPCBE
 1052              		.globl	_ZN3PCB10consolePCBE
 1053              		.globl	_ZN3PCB10savedRegA4E
 1054              		.globl	_ZN3PCB16timeSliceCounterE
 1055              		.globl	_ZN3PCB7runningE
 1056              		.bss
 1057              		.align	3
 1058              		.set	.LANCHOR0,. + 0
 1061              	_ZN3PCB7runningE:
 1062 0000 00000000 		.zero	8
 1062      00000000 
 1065              	_ZN3PCB10consolePCBE:
 1066 0008 00000000 		.zero	8
 1066      00000000 
 1069              	_ZN3PCB7userPCBE:
 1070 0010 00000000 		.zero	8
 1070      00000000 
 1073              	_ZN3PCB16timeSliceCounterE:
 1074 0018 00000000 		.zero	8
 1074      00000000 
 1077              	_ZN3PCB10savedRegA4E:
 1078 0020 00000000 		.zero	8
 1078      00000000 
 1079              		.text
 1080              	.Letext0:
 1081              		.file 3 "src/../h/../lib/hw.h"
 1082              		.file 4 "src/../h/SleepPCBList.hpp"
 1083              		.file 5 "src/../h/MemoryAllocator.hpp"
 1084              		.file 6 "src/../h/Scheduler.hpp"
 1085              		.file 7 "src/../h/Riscv.hpp"
 1086              		.file 8 "src/../h/syscall_c.hpp"
 5065              		.align	3
 5068              	DW.ref.__gxx_personality_v0:
 5069 0000 00000000 		.dword	__gxx_personality_v0
 5069      00000000 
 5070              		.ident	"GCC: (Ubuntu 9.3.0-17ubuntu1~20.04) 9.3.0"
 5071              		.section	.note.GNU-stack,"",@progbits
GAS LISTING /tmp/ccC0UISZ.s 			page 25

