GAS LISTING /tmp/ccE7kwvL.s 			page 1


   1              		.file	"PCB.cpp"
   2              		.option pic
   3              		.option norelax
   4              		.text
   5              	.Ltext0:
   6              		.align	2
   7              		.globl	_ZN3PCB6runnerEv
   9              	_ZN3PCB6runnerEv:
  10              	.LFB29:
  11              		.file 1 "src/PCB.cpp"
   1:src/PCB.cpp   **** //
   2:src/PCB.cpp   **** // Created by os on 4/27/22.
   3:src/PCB.cpp   **** //
   4:src/PCB.cpp   **** 
   5:src/PCB.cpp   **** #include "../h/PCB.hpp"
   6:src/PCB.cpp   **** #include "../h/syscall_c.hpp"
   7:src/PCB.cpp   **** #include "../h/SleepPCBList.hpp"
   8:src/PCB.cpp   **** #include "../test/printing.hpp"
   9:src/PCB.cpp   **** #include "../h/KConsole.hpp"
  10:src/PCB.cpp   **** #include "../h/Scheduler.hpp"
  11:src/PCB.cpp   **** #include "../h/Riscv.hpp"
  12:src/PCB.cpp   **** 
  13:src/PCB.cpp   **** PCB* PCB::running = 0;
  14:src/PCB.cpp   **** uint64 PCB::timeSliceCounter = 0;
  15:src/PCB.cpp   **** uint64 PCB::savedRegA4 = 0;
  16:src/PCB.cpp   **** PCB* PCB::consolePCB = 0;
  17:src/PCB.cpp   **** PCB* PCB::userPCB = 0;
  18:src/PCB.cpp   **** 
  19:src/PCB.cpp   **** PCB::PCB(Body body, void *args, void* stack_space, uint64 timeSlice) :
  20:src/PCB.cpp   ****     timeSlice(timeSlice),
  21:src/PCB.cpp   ****     body(body),
  22:src/PCB.cpp   ****     args(args),
  23:src/PCB.cpp   ****     beginSP(stack_space),
  24:src/PCB.cpp   ****     context({
  25:src/PCB.cpp   ****         (uint64)((char*)stack_space + DEFAULT_STACK_SIZE),
  26:src/PCB.cpp   ****         (uint64)&PCB::runner
  27:src/PCB.cpp   ****     })
  28:src/PCB.cpp   **** {
  29:src/PCB.cpp   ****     //Scheduler::put(this);
  30:src/PCB.cpp   ****     nextPCB = 0;
  31:src/PCB.cpp   **** }
  32:src/PCB.cpp   **** 
  33:src/PCB.cpp   **** void PCB::start()
  34:src/PCB.cpp   **** {
  35:src/PCB.cpp   ****     Scheduler::put(this);
  36:src/PCB.cpp   **** }
  37:src/PCB.cpp   **** 
  38:src/PCB.cpp   **** void PCB::runner()
  39:src/PCB.cpp   **** {
  12              		.loc 1 39 1
  13              		.cfi_startproc
  14 0000 130101FF 		addi	sp,sp,-16
  15              		.cfi_def_cfa_offset 16
  16 0004 23341100 		sd	ra,8(sp)
  17 0008 23308100 		sd	s0,0(sp)
  18              		.cfi_offset 1, -8
  19              		.cfi_offset 8, -16
GAS LISTING /tmp/ccE7kwvL.s 			page 2


  20 000c 13040101 		addi	s0,sp,16
  21              		.cfi_def_cfa 8, 0
  40:src/PCB.cpp   ****     Riscv::popSppSpie();
  22              		.loc 1 40 5
  23              		.loc 1 40 22 is_stmt 0
  24 0010 97000000 		call	_ZN5Riscv10popSppSpieEv@plt
  24      E7800000 
  25              	.LVL0:
  41:src/PCB.cpp   ****     running->body(running->args);
  26              		.loc 1 41 5 is_stmt 1
  27              		.loc 1 41 14 is_stmt 0
  28 0018 97070000 		ld	a5,.LANCHOR0
  28      83B70700 
  29 0020 03B78702 		ld	a4,40(a5)
  30              		.loc 1 41 18
  31 0024 03B50703 		ld	a0,48(a5)
  32 0028 E7000700 		jalr	a4
  33              	.LVL1:
  42:src/PCB.cpp   **** 
  43:src/PCB.cpp   ****     thread_exit();
  34              		.loc 1 43 5 is_stmt 1
  35              		.loc 1 43 16 is_stmt 0
  36 002c 97000000 		call	_Z11thread_exitv@plt
  36      E7800000 
  37              	.LVL2:
  44:src/PCB.cpp   **** }
  38              		.loc 1 44 1
  39 0034 83308100 		ld	ra,8(sp)
  40              		.cfi_restore 1
  41 0038 03340100 		ld	s0,0(sp)
  42              		.cfi_restore 8
  43              		.cfi_def_cfa 2, 16
  44 003c 13010101 		addi	sp,sp,16
  45              		.cfi_def_cfa_offset 0
  46 0040 67800000 		jr	ra
  47              		.cfi_endproc
  48              	.LFE29:
  50              		.align	2
  51              		.globl	_ZN3PCBC2EPFvPvES0_S0_m
  53              	_ZN3PCBC2EPFvPvES0_S0_m:
  54              	.LFB26:
  19:src/PCB.cpp   ****     timeSlice(timeSlice),
  55              		.loc 1 19 1 is_stmt 1
  56              		.cfi_startproc
  57              	.LVL3:
  58 0044 130101FF 		addi	sp,sp,-16
  59              		.cfi_def_cfa_offset 16
  60 0048 23348100 		sd	s0,8(sp)
  61              		.cfi_offset 8, -8
  62 004c 13040101 		addi	s0,sp,16
  63              		.cfi_def_cfa 8, 0
  64              	.LBB12:
  27:src/PCB.cpp   **** {
  65              		.loc 1 27 6 is_stmt 0
  66 0050 23000500 		sb	zero,0(a0)
  67 0054 233CE500 		sd	a4,24(a0)
  68 0058 23300502 		sd	zero,32(a0)
GAS LISTING /tmp/ccE7kwvL.s 			page 3


  69 005c 2334B502 		sd	a1,40(a0)
  70 0060 2338C502 		sd	a2,48(a0)
  71 0064 233CD502 		sd	a3,56(a0)
  25:src/PCB.cpp   ****         (uint64)&PCB::runner
  72              		.loc 1 25 37
  73 0068 B7170000 		li	a5,4096
  74 006c B386F600 		add	a3,a3,a5
  75              	.LVL4:
  27:src/PCB.cpp   **** {
  76              		.loc 1 27 6
  77 0070 2334D504 		sd	a3,72(a0)
  78 0074 97070000 		lla	a5,_ZN3PCB6runnerEv
  78      93870700 
  79 007c 2338F504 		sd	a5,80(a0)
  80 0080 230C0504 		sb	zero,88(a0)
  30:src/PCB.cpp   **** }
  81              		.loc 1 30 5 is_stmt 1
  30:src/PCB.cpp   **** }
  82              		.loc 1 30 13 is_stmt 0
  83 0084 23340500 		sd	zero,8(a0)
  84              	.LBE12:
  31:src/PCB.cpp   **** 
  85              		.loc 1 31 1
  86 0088 03348100 		ld	s0,8(sp)
  87              		.cfi_restore 8
  88              		.cfi_def_cfa 2, 16
  89 008c 13010101 		addi	sp,sp,16
  90              		.cfi_def_cfa_offset 0
  91 0090 67800000 		jr	ra
  92              		.cfi_endproc
  93              	.LFE26:
  95              		.globl	_ZN3PCBC1EPFvPvES0_S0_m
  96              		.set	_ZN3PCBC1EPFvPvES0_S0_m,_ZN3PCBC2EPFvPvES0_S0_m
  97              		.align	2
  98              		.globl	_ZN3PCB5startEv
 100              	_ZN3PCB5startEv:
 101              	.LFB28:
  34:src/PCB.cpp   ****     Scheduler::put(this);
 102              		.loc 1 34 1 is_stmt 1
 103              		.cfi_startproc
 104              	.LVL5:
 105 0094 130101FF 		addi	sp,sp,-16
 106              		.cfi_def_cfa_offset 16
 107 0098 23341100 		sd	ra,8(sp)
 108 009c 23308100 		sd	s0,0(sp)
 109              		.cfi_offset 1, -8
 110              		.cfi_offset 8, -16
 111 00a0 13040101 		addi	s0,sp,16
 112              		.cfi_def_cfa 8, 0
  35:src/PCB.cpp   **** }
 113              		.loc 1 35 5
  35:src/PCB.cpp   **** }
 114              		.loc 1 35 19 is_stmt 0
 115 00a4 97000000 		call	_ZN9Scheduler3putEP3PCB@plt
 115      E7800000 
 116              	.LVL6:
  36:src/PCB.cpp   **** 
GAS LISTING /tmp/ccE7kwvL.s 			page 4


 117              		.loc 1 36 1
 118 00ac 83308100 		ld	ra,8(sp)
 119              		.cfi_restore 1
 120 00b0 03340100 		ld	s0,0(sp)
 121              		.cfi_restore 8
 122              		.cfi_def_cfa 2, 16
 123 00b4 13010101 		addi	sp,sp,16
 124              		.cfi_def_cfa_offset 0
 125 00b8 67800000 		jr	ra
 126              		.cfi_endproc
 127              	.LFE28:
 129              		.align	2
 130              		.globl	_ZN3PCB8dispatchEv
 132              	_ZN3PCB8dispatchEv:
 133              	.LFB30:
  45:src/PCB.cpp   **** 
  46:src/PCB.cpp   **** void PCB::dispatch()
  47:src/PCB.cpp   **** {
 134              		.loc 1 47 1 is_stmt 1
 135              		.cfi_startproc
 136 00bc 130101FE 		addi	sp,sp,-32
 137              		.cfi_def_cfa_offset 32
 138 00c0 233C1100 		sd	ra,24(sp)
 139 00c4 23388100 		sd	s0,16(sp)
 140 00c8 23349100 		sd	s1,8(sp)
 141 00cc 23302101 		sd	s2,0(sp)
 142              		.cfi_offset 1, -8
 143              		.cfi_offset 8, -16
 144              		.cfi_offset 9, -24
 145              		.cfi_offset 18, -32
 146 00d0 13040102 		addi	s0,sp,32
 147              		.cfi_def_cfa 8, 0
  48:src/PCB.cpp   ****     PCB* old = running;
 148              		.loc 1 48 5
 149              		.loc 1 48 10 is_stmt 0
 150 00d4 97040000 		ld	s1,.LANCHOR0
 150      83B40400 
 151              	.LVL7:
  49:src/PCB.cpp   ****     if(old->getState() == PCB::RUNNING)
 152              		.loc 1 49 5 is_stmt 1
 153              	.LBB13:
 154              	.LBB14:
 155              		.file 2 "src/../h/PCB.hpp"
   1:src/../h/PCB.hpp **** //
   2:src/../h/PCB.hpp **** // Created by os on 4/27/22.
   3:src/../h/PCB.hpp **** //
   4:src/../h/PCB.hpp **** 
   5:src/../h/PCB.hpp **** #ifndef PROJECT_BASE_V1_0_PCB_HPP
   6:src/../h/PCB.hpp **** #define PROJECT_BASE_V1_0_PCB_HPP
   7:src/../h/PCB.hpp **** 
   8:src/../h/PCB.hpp **** #include "../lib/hw.h"
   9:src/../h/PCB.hpp **** 
  10:src/../h/PCB.hpp **** class PCB
  11:src/../h/PCB.hpp **** {
  12:src/../h/PCB.hpp **** private:
  13:src/../h/PCB.hpp ****     static uint64 savedRegA4;
  14:src/../h/PCB.hpp **** 
GAS LISTING /tmp/ccE7kwvL.s 			page 5


  15:src/../h/PCB.hpp ****     using Body = void (*)(void*);
  16:src/../h/PCB.hpp **** 
  17:src/../h/PCB.hpp ****     PCB(Body body,  void* args, void* stack_space, uint64 timeSlice);
  18:src/../h/PCB.hpp ****     ~PCB();
  19:src/../h/PCB.hpp **** 
  20:src/../h/PCB.hpp ****     void start();
  21:src/../h/PCB.hpp ****     static void dispatch();
  22:src/../h/PCB.hpp **** 
  23:src/../h/PCB.hpp ****     static PCB* running;
  24:src/../h/PCB.hpp **** 
  25:src/../h/PCB.hpp ****     static uint64 timeSliceCounter;
  26:src/../h/PCB.hpp ****     uint64 getTimeSlice() { return timeSlice;}
  27:src/../h/PCB.hpp **** 
  28:src/../h/PCB.hpp ****     void* operator new(size_t size);
  29:src/../h/PCB.hpp ****     void operator delete(void *p);
  30:src/../h/PCB.hpp **** 
  31:src/../h/PCB.hpp ****     enum State{READY, RUNNING, SUSPENDED, FINISHED, EXITING, SLEEPING};
  32:src/../h/PCB.hpp ****     State getState() {return state;}
 156              		.loc 2 32 23
 157              		.loc 2 32 30 is_stmt 0
 158 00dc 03A70404 		lw	a4,64(s1)
 159              	.LVL8:
 160              	.LBE14:
 161              	.LBE13:
 162              		.loc 1 49 5
 163 00e0 93071000 		li	a5,1
 164 00e4 630AF704 		beq	a4,a5,.L10
 165              	.L8:
  50:src/PCB.cpp   ****         Scheduler::put(old);
  51:src/PCB.cpp   ****     PCB::running = Scheduler::get();
 166              		.loc 1 51 5 is_stmt 1
 167              		.loc 1 51 34 is_stmt 0
 168 00e8 97000000 		call	_ZN9Scheduler3getEv@plt
 168      E7800000 
 169              	.LVL9:
 170              		.loc 1 51 18
 171 00f0 17090000 		lla	s2,.LANCHOR0
 171      13090900 
 172 00f8 2330A900 		sd	a0,0(s2)
  52:src/PCB.cpp   ****     PCB::running->setState(PCB::RUNNING);
 173              		.loc 1 52 5 is_stmt 1
 174              	.LVL10:
 175              	.LBB15:
 176              	.LBB16:
  33:src/../h/PCB.hpp ****     void setState(State s) {state = s;}
 177              		.loc 2 33 29
 178              		.loc 2 33 35 is_stmt 0
 179 00fc 93071000 		li	a5,1
 180 0100 2320F504 		sw	a5,64(a0)
 181              	.LVL11:
 182              	.LBE16:
 183              	.LBE15:
  53:src/PCB.cpp   **** 
  54:src/PCB.cpp   ****     Riscv::changePrivMode();
 184              		.loc 1 54 5 is_stmt 1
 185              		.loc 1 54 26 is_stmt 0
 186 0104 97000000 		call	_ZN5Riscv14changePrivModeEv@plt
GAS LISTING /tmp/ccE7kwvL.s 			page 6


 186      E7800000 
 187              	.LVL12:
  55:src/PCB.cpp   **** 
  56:src/PCB.cpp   ****     PCB::contextSwitch(&old->context, &running->context);
 188              		.loc 1 56 5 is_stmt 1
 189              		.loc 1 56 49 is_stmt 0
 190 010c 83350900 		ld	a1,0(s2)
 191              		.loc 1 56 23
 192 0110 93858504 		addi	a1,a1,72
 193 0114 13858404 		addi	a0,s1,72
 194 0118 97000000 		call	_ZN3PCB13contextSwitchEPNS_7ContextES1_@plt
 194      E7800000 
 195              	.LVL13:
  57:src/PCB.cpp   **** }
 196              		.loc 1 57 1
 197 0120 83308101 		ld	ra,24(sp)
 198              		.cfi_remember_state
 199              		.cfi_restore 1
 200 0124 03340101 		ld	s0,16(sp)
 201              		.cfi_restore 8
 202              		.cfi_def_cfa 2, 32
 203 0128 83348100 		ld	s1,8(sp)
 204              		.cfi_restore 9
 205              	.LVL14:
 206 012c 03390100 		ld	s2,0(sp)
 207              		.cfi_restore 18
 208 0130 13010102 		addi	sp,sp,32
 209              		.cfi_def_cfa_offset 0
 210 0134 67800000 		jr	ra
 211              	.LVL15:
 212              	.L10:
 213              		.cfi_restore_state
  50:src/PCB.cpp   ****     PCB::running = Scheduler::get();
 214              		.loc 1 50 9 is_stmt 1
  50:src/PCB.cpp   ****     PCB::running = Scheduler::get();
 215              		.loc 1 50 23 is_stmt 0
 216 0138 13850400 		mv	a0,s1
 217 013c 97000000 		call	_ZN9Scheduler3putEP3PCB@plt
 217      E7800000 
 218              	.LVL16:
 219 0144 6FF05FFA 		j	.L8
 220              		.cfi_endproc
 221              	.LFE30:
 223              		.align	2
 224              		.globl	_ZN3PCBnwEm
 226              	_ZN3PCBnwEm:
 227              	.LFB31:
  58:src/PCB.cpp   **** 
  59:src/PCB.cpp   **** void *PCB::operator new(size_t size) {
 228              		.loc 1 59 38 is_stmt 1
 229              		.cfi_startproc
 230              	.LVL17:
 231 0148 130101FF 		addi	sp,sp,-16
 232              		.cfi_def_cfa_offset 16
 233 014c 23341100 		sd	ra,8(sp)
 234 0150 23308100 		sd	s0,0(sp)
 235              		.cfi_offset 1, -8
GAS LISTING /tmp/ccE7kwvL.s 			page 7


 236              		.cfi_offset 8, -16
 237 0154 13040101 		addi	s0,sp,16
 238              		.cfi_def_cfa 8, 0
  60:src/PCB.cpp   ****     return MemoryAllocator::kmalloc(size);
 239              		.loc 1 60 5
 240              		.loc 1 60 36 is_stmt 0
 241 0158 97000000 		call	_ZN15MemoryAllocator7kmallocEm@plt
 241      E7800000 
 242              	.LVL18:
  61:src/PCB.cpp   **** }
 243              		.loc 1 61 1
 244 0160 83308100 		ld	ra,8(sp)
 245              		.cfi_restore 1
 246 0164 03340100 		ld	s0,0(sp)
 247              		.cfi_restore 8
 248              		.cfi_def_cfa 2, 16
 249 0168 13010101 		addi	sp,sp,16
 250              		.cfi_def_cfa_offset 0
 251 016c 67800000 		jr	ra
 252              		.cfi_endproc
 253              	.LFE31:
 255              		.align	2
 256              		.globl	_ZN3PCBdlEPv
 258              	_ZN3PCBdlEPv:
 259              	.LFB32:
  62:src/PCB.cpp   **** 
  63:src/PCB.cpp   **** void PCB::operator delete(void *p) {
 260              		.loc 1 63 36 is_stmt 1
 261              		.cfi_startproc
 262              	.LVL19:
 263 0170 130101FF 		addi	sp,sp,-16
 264              		.cfi_def_cfa_offset 16
 265 0174 23341100 		sd	ra,8(sp)
 266 0178 23308100 		sd	s0,0(sp)
 267              		.cfi_offset 1, -8
 268              		.cfi_offset 8, -16
 269 017c 13040101 		addi	s0,sp,16
 270              		.cfi_def_cfa 8, 0
  64:src/PCB.cpp   ****     MemoryAllocator::kfree(p);
 271              		.loc 1 64 5
 272              		.loc 1 64 27 is_stmt 0
 273 0180 97000000 		call	_ZN15MemoryAllocator5kfreeEPv@plt
 273      E7800000 
 274              	.LVL20:
  65:src/PCB.cpp   **** }
 275              		.loc 1 65 1
 276 0188 83308100 		ld	ra,8(sp)
 277              		.cfi_restore 1
 278 018c 03340100 		ld	s0,0(sp)
 279              		.cfi_restore 8
 280              		.cfi_def_cfa 2, 16
 281 0190 13010101 		addi	sp,sp,16
 282              		.cfi_def_cfa_offset 0
 283 0194 67800000 		jr	ra
 284              		.cfi_endproc
 285              	.LFE32:
 287              		.align	2
GAS LISTING /tmp/ccE7kwvL.s 			page 8


 288              		.globl	_ZN3PCBD2Ev
 290              	_ZN3PCBD2Ev:
 291              	.LFB34:
  66:src/PCB.cpp   **** 
  67:src/PCB.cpp   **** PCB::~PCB()
 292              		.loc 1 67 1 is_stmt 1
 293              		.cfi_startproc
 294              		.cfi_personality 0x9b,DW.ref.__gxx_personality_v0
 295              		.cfi_lsda 0x1b,.LLSDA34
 296              	.LVL21:
 297 0198 130101FF 		addi	sp,sp,-16
 298              		.cfi_def_cfa_offset 16
 299 019c 23341100 		sd	ra,8(sp)
 300 01a0 23308100 		sd	s0,0(sp)
 301              		.cfi_offset 1, -8
 302              		.cfi_offset 8, -16
 303 01a4 13040101 		addi	s0,sp,16
 304              		.cfi_def_cfa 8, 0
 305              	.LBB17:
  68:src/PCB.cpp   **** {
  69:src/PCB.cpp   ****     MemoryAllocator::kfree(beginSP);
 306              		.loc 1 69 5
 307              		.loc 1 69 27 is_stmt 0
 308 01a8 03358503 		ld	a0,56(a0)
 309              	.LVL22:
 310 01ac 97000000 		call	_ZN15MemoryAllocator5kfreeEPv@plt
 310      E7800000 
 311              	.LVL23:
 312              	.LBE17:
  70:src/PCB.cpp   **** }
 313              		.loc 1 70 1
 314 01b4 83308100 		ld	ra,8(sp)
 315              		.cfi_restore 1
 316 01b8 03340100 		ld	s0,0(sp)
 317              		.cfi_restore 8
 318              		.cfi_def_cfa 2, 16
 319 01bc 13010101 		addi	sp,sp,16
 320              		.cfi_def_cfa_offset 0
 321 01c0 67800000 		jr	ra
 322              		.cfi_endproc
 323              	.LFE34:
 324              		.globl	__gxx_personality_v0
 325              		.section	.gcc_except_table,"a",@progbits
 326              	.LLSDA34:
 327 0000 FF       		.byte	0xff
 328 0001 FF       		.byte	0xff
 329 0002 03       		.byte	0x3
 330 0003 00       		.byte	0
 331              		.text
 333              		.globl	_ZN3PCBD1Ev
 334              		.set	_ZN3PCBD1Ev,_ZN3PCBD2Ev
 335              		.align	2
 336              		.globl	_ZN3PCB10initializeEv
 338              	_ZN3PCB10initializeEv:
 339              	.LFB36:
  71:src/PCB.cpp   **** 
  72:src/PCB.cpp   **** void PCB::initialize()
GAS LISTING /tmp/ccE7kwvL.s 			page 9


  73:src/PCB.cpp   **** {
 340              		.loc 1 73 1 is_stmt 1
 341              		.cfi_startproc
 342 01c4 130101FD 		addi	sp,sp,-48
 343              		.cfi_def_cfa_offset 48
 344 01c8 23341102 		sd	ra,40(sp)
 345 01cc 23308102 		sd	s0,32(sp)
 346 01d0 233C9100 		sd	s1,24(sp)
 347 01d4 23382101 		sd	s2,16(sp)
 348 01d8 23343101 		sd	s3,8(sp)
 349 01dc 23304101 		sd	s4,0(sp)
 350              		.cfi_offset 1, -8
 351              		.cfi_offset 8, -16
 352              		.cfi_offset 9, -24
 353              		.cfi_offset 18, -32
 354              		.cfi_offset 19, -40
 355              		.cfi_offset 20, -48
 356 01e0 13040103 		addi	s0,sp,48
 357              		.cfi_def_cfa 8, 0
  74:src/PCB.cpp   ****     PCB* mainSystem = new PCB(0, 0, 0, 0);
 358              		.loc 1 74 5
 359              		.loc 1 74 41 is_stmt 0
 360 01e4 13050006 		li	a0,96
 361 01e8 97000000 		call	_ZN3PCBnwEm
 361      E7800000 
 362              	.LVL24:
 363 01f0 93040500 		mv	s1,a0
 364 01f4 13070000 		li	a4,0
 365 01f8 93060000 		li	a3,0
 366 01fc 13060000 		li	a2,0
 367 0200 93050000 		li	a1,0
 368 0204 97000000 		call	_ZN3PCBC1EPFvPvES0_S0_m
 368      E7800000 
 369              	.LVL25:
  75:src/PCB.cpp   ****     mainSystem->systemThread = true;
 370              		.loc 1 75 5 is_stmt 1
 371              		.loc 1 75 30 is_stmt 0
 372 020c 93071000 		li	a5,1
 373 0210 2380F400 		sb	a5,0(s1)
  76:src/PCB.cpp   ****     PCB::running = mainSystem;
 374              		.loc 1 76 5 is_stmt 1
 375              		.loc 1 76 18 is_stmt 0
 376 0214 17090000 		lla	s2,.LANCHOR0
 376      13090900 
 377 021c 23309900 		sd	s1,0(s2)
  77:src/PCB.cpp   ****     PCB::running->setState(PCB::RUNNING);
 378              		.loc 1 77 5 is_stmt 1
 379              	.LVL26:
 380              	.LBB18:
 381              	.LBB19:
 382              		.loc 2 33 29
 383              		.loc 2 33 35 is_stmt 0
 384 0220 130A1000 		li	s4,1
 385 0224 23A04405 		sw	s4,64(s1)
 386              	.LVL27:
 387              	.LBE19:
 388              	.LBE18:
GAS LISTING /tmp/ccE7kwvL.s 			page 10


  78:src/PCB.cpp   ****     PCB::consolePCB = new PCB(&KConsole::sendCharactersToConsole, 0, MemoryAllocator::kmalloc(DEFAU
 389              		.loc 1 78 5 is_stmt 1
 390              		.loc 1 78 94 is_stmt 0
 391 0228 37150000 		li	a0,4096
 392 022c 97000000 		call	_ZN15MemoryAllocator7kmallocEm@plt
 392      E7800000 
 393              	.LVL28:
 394 0234 93090500 		mv	s3,a0
 395              		.loc 1 78 134
 396 0238 13050006 		li	a0,96
 397 023c 97000000 		call	_ZN3PCBnwEm
 397      E7800000 
 398              	.LVL29:
 399 0244 93040500 		mv	s1,a0
 400              	.LVL30:
 401 0248 13072000 		li	a4,2
 402 024c 93860900 		mv	a3,s3
 403 0250 13060000 		li	a2,0
 404 0254 97050000 		la	a1,_ZN8KConsole23sendCharactersToConsoleEPv
 404      83B50500 
 405 025c 97000000 		call	_ZN3PCBC1EPFvPvES0_S0_m
 405      E7800000 
 406              	.LVL31:
 407              		.loc 1 78 21
 408 0264 23349900 		sd	s1,8(s2)
  79:src/PCB.cpp   ****     PCB::consolePCB->systemThread = true;
 409              		.loc 1 79 5 is_stmt 1
 410              		.loc 1 79 35 is_stmt 0
 411 0268 23804401 		sb	s4,0(s1)
  80:src/PCB.cpp   ****     PCB::consolePCB->start();
 412              		.loc 1 80 5 is_stmt 1
 413              		.loc 1 80 27 is_stmt 0
 414 026c 03358900 		ld	a0,8(s2)
 415 0270 97000000 		call	_ZN3PCB5startEv
 415      E7800000 
 416              	.LVL32:
  81:src/PCB.cpp   ****     PCB::userPCB = new PCB(&Riscv::userMainWrapper, 0, MemoryAllocator::kmalloc(DEFAULT_STACK_SIZE)
 417              		.loc 1 81 5 is_stmt 1
 418              		.loc 1 81 80 is_stmt 0
 419 0278 37150000 		li	a0,4096
 420 027c 97000000 		call	_ZN15MemoryAllocator7kmallocEm@plt
 420      E7800000 
 421              	.LVL33:
 422 0284 93090500 		mv	s3,a0
 423              		.loc 1 81 120
 424 0288 13050006 		li	a0,96
 425 028c 97000000 		call	_ZN3PCBnwEm
 425      E7800000 
 426              	.LVL34:
 427 0294 93040500 		mv	s1,a0
 428 0298 13072000 		li	a4,2
 429 029c 93860900 		mv	a3,s3
 430 02a0 13060000 		li	a2,0
 431 02a4 97050000 		la	a1,_ZN5Riscv15userMainWrapperEPv
 431      83B50500 
 432 02ac 97000000 		call	_ZN3PCBC1EPFvPvES0_S0_m
 432      E7800000 
GAS LISTING /tmp/ccE7kwvL.s 			page 11


 433              	.LVL35:
 434              		.loc 1 81 18
 435 02b4 23389900 		sd	s1,16(s2)
  82:src/PCB.cpp   ****     PCB::userPCB->start();
 436              		.loc 1 82 5 is_stmt 1
 437              		.loc 1 82 24 is_stmt 0
 438 02b8 13850400 		mv	a0,s1
 439 02bc 97000000 		call	_ZN3PCB5startEv
 439      E7800000 
 440              	.LVL36:
  83:src/PCB.cpp   **** }
 441              		.loc 1 83 1
 442 02c4 83308102 		ld	ra,40(sp)
 443              		.cfi_restore 1
 444 02c8 03340102 		ld	s0,32(sp)
 445              		.cfi_restore 8
 446              		.cfi_def_cfa 2, 48
 447 02cc 83348101 		ld	s1,24(sp)
 448              		.cfi_restore 9
 449 02d0 03390101 		ld	s2,16(sp)
 450              		.cfi_restore 18
 451 02d4 83398100 		ld	s3,8(sp)
 452              		.cfi_restore 19
 453 02d8 033A0100 		ld	s4,0(sp)
 454              		.cfi_restore 20
 455 02dc 13010103 		addi	sp,sp,48
 456              		.cfi_def_cfa_offset 0
 457 02e0 67800000 		jr	ra
 458              		.cfi_endproc
 459              	.LFE36:
 461              		.align	2
 462              		.globl	_ZN3PCB10isFinishedEv
 464              	_ZN3PCB10isFinishedEv:
 465              	.LFB37:
  84:src/PCB.cpp   **** 
  85:src/PCB.cpp   **** bool PCB::isFinished()
  86:src/PCB.cpp   **** {
 466              		.loc 1 86 1 is_stmt 1
 467              		.cfi_startproc
 468              	.LVL37:
 469 02e4 130101FF 		addi	sp,sp,-16
 470              		.cfi_def_cfa_offset 16
 471 02e8 23348100 		sd	s0,8(sp)
 472              		.cfi_offset 8, -8
 473 02ec 13040101 		addi	s0,sp,16
 474              		.cfi_def_cfa 8, 0
  87:src/PCB.cpp   ****     return state == PCB::FINISHED;
 475              		.loc 1 87 5
 476              		.loc 1 87 12 is_stmt 0
 477 02f0 03250504 		lw	a0,64(a0)
 478              	.LVL38:
 479              		.loc 1 87 26
 480 02f4 1305D5FF 		addi	a0,a0,-3
  88:src/PCB.cpp   **** }
 481              		.loc 1 88 1
 482 02f8 13351500 		seqz	a0,a0
 483 02fc 03348100 		ld	s0,8(sp)
GAS LISTING /tmp/ccE7kwvL.s 			page 12


 484              		.cfi_restore 8
 485              		.cfi_def_cfa 2, 16
 486 0300 13010101 		addi	sp,sp,16
 487              		.cfi_def_cfa_offset 0
 488 0304 67800000 		jr	ra
 489              		.cfi_endproc
 490              	.LFE37:
 492              		.align	2
 493              		.globl	_ZN3PCB17threadExitHandlerEv
 495              	_ZN3PCB17threadExitHandlerEv:
 496              	.LFB38:
  89:src/PCB.cpp   **** 
  90:src/PCB.cpp   **** void PCB::threadExitHandler()
  91:src/PCB.cpp   **** {
 497              		.loc 1 91 1 is_stmt 1
 498              		.cfi_startproc
 499 0308 130101FF 		addi	sp,sp,-16
 500              		.cfi_def_cfa_offset 16
 501 030c 23341100 		sd	ra,8(sp)
 502 0310 23308100 		sd	s0,0(sp)
 503              		.cfi_offset 1, -8
 504              		.cfi_offset 8, -16
 505 0314 13040101 		addi	s0,sp,16
 506              		.cfi_def_cfa 8, 0
  92:src/PCB.cpp   ****     PCB::timeSliceCounter = 0;
 507              		.loc 1 92 5
 508              		.loc 1 92 27 is_stmt 0
 509 0318 97070000 		lla	a5,.LANCHOR0
 509      93870700 
 510 0320 23BC0700 		sd	zero,24(a5)
  93:src/PCB.cpp   ****     PCB::running->setState(PCB::FINISHED);
 511              		.loc 1 93 5 is_stmt 1
 512              		.loc 1 93 27 is_stmt 0
 513 0324 83B70700 		ld	a5,0(a5)
 514              	.LVL39:
 515              	.LBB20:
 516              	.LBB21:
 517              		.loc 2 33 29 is_stmt 1
 518              		.loc 2 33 35 is_stmt 0
 519 0328 13073000 		li	a4,3
 520 032c 23A0E704 		sw	a4,64(a5)
 521              	.LVL40:
 522              	.LBE21:
 523              	.LBE20:
  94:src/PCB.cpp   ****     PCB::dispatch();
 524              		.loc 1 94 5 is_stmt 1
 525              		.loc 1 94 18 is_stmt 0
 526 0330 97000000 		call	_ZN3PCB8dispatchEv
 526      E7800000 
 527              	.LVL41:
  95:src/PCB.cpp   ****     __asm__ volatile("li a0, 0");
 528              		.loc 1 95 5 is_stmt 1
 529              		.loc 1 95 33 is_stmt 0
 530              	#APP
 531              	# 95 "src/PCB.cpp" 1
  96              	    Riscv::w_a0_sscratch();
 532              		li a0, 0
GAS LISTING /tmp/ccE7kwvL.s 			page 13


 533              	# 0 "" 2
 534              		.loc 1 96 5 is_stmt 1
 535              		.loc 1 96 25 is_stmt 0
 536              	#NO_APP
 537 033c 97000000 		call	_ZN5Riscv13w_a0_sscratchEv@plt
 537      E7800000 
 538              	.LVL42:
  97:src/PCB.cpp   **** }
 539              		.loc 1 97 1
 540 0344 83308100 		ld	ra,8(sp)
 541              		.cfi_restore 1
 542 0348 03340100 		ld	s0,0(sp)
 543              		.cfi_restore 8
 544              		.cfi_def_cfa 2, 16
 545 034c 13010101 		addi	sp,sp,16
 546              		.cfi_def_cfa_offset 0
 547 0350 67800000 		jr	ra
 548              		.cfi_endproc
 549              	.LFE38:
 551              		.align	2
 552              		.globl	_ZN3PCB21threadDispatchHandlerEv
 554              	_ZN3PCB21threadDispatchHandlerEv:
 555              	.LFB39:
  98:src/PCB.cpp   **** 
  99:src/PCB.cpp   **** void PCB::threadDispatchHandler()
 100:src/PCB.cpp   **** {
 556              		.loc 1 100 1 is_stmt 1
 557              		.cfi_startproc
 558 0354 130101FF 		addi	sp,sp,-16
 559              		.cfi_def_cfa_offset 16
 560 0358 23341100 		sd	ra,8(sp)
 561 035c 23308100 		sd	s0,0(sp)
 562              		.cfi_offset 1, -8
 563              		.cfi_offset 8, -16
 564 0360 13040101 		addi	s0,sp,16
 565              		.cfi_def_cfa 8, 0
 101:src/PCB.cpp   ****     PCB::timeSliceCounter = 0;
 566              		.loc 1 101 5
 567              		.loc 1 101 27 is_stmt 0
 568 0364 97070000 		sd	zero,.LANCHOR0+24,a5
 568      23B00700 
 102:src/PCB.cpp   ****     PCB::dispatch();
 569              		.loc 1 102 5 is_stmt 1
 570              		.loc 1 102 18 is_stmt 0
 571 036c 97000000 		call	_ZN3PCB8dispatchEv
 571      E7800000 
 572              	.LVL43:
 103:src/PCB.cpp   **** }
 573              		.loc 1 103 1
 574 0374 83308100 		ld	ra,8(sp)
 575              		.cfi_restore 1
 576 0378 03340100 		ld	s0,0(sp)
 577              		.cfi_restore 8
 578              		.cfi_def_cfa 2, 16
 579 037c 13010101 		addi	sp,sp,16
 580              		.cfi_def_cfa_offset 0
 581 0380 67800000 		jr	ra
GAS LISTING /tmp/ccE7kwvL.s 			page 14


 582              		.cfi_endproc
 583              	.LFE39:
 585              		.align	2
 586              		.globl	_ZN3PCB18threadSleepHandlerEv
 588              	_ZN3PCB18threadSleepHandlerEv:
 589              	.LFB40:
 104:src/PCB.cpp   **** 
 105:src/PCB.cpp   **** void PCB::threadSleepHandler()
 106:src/PCB.cpp   **** {
 590              		.loc 1 106 1 is_stmt 1
 591              		.cfi_startproc
 592 0384 130101FF 		addi	sp,sp,-16
 593              		.cfi_def_cfa_offset 16
 594 0388 23341100 		sd	ra,8(sp)
 595 038c 23308100 		sd	s0,0(sp)
 596              		.cfi_offset 1, -8
 597              		.cfi_offset 8, -16
 598 0390 13040101 		addi	s0,sp,16
 599              		.cfi_def_cfa 8, 0
 107:src/PCB.cpp   ****     uint64 time;
 600              		.loc 1 107 5
 108:src/PCB.cpp   ****     __asm__ volatile("mv %0, a1" : "=r"(time));
 601              		.loc 1 108 5
 602              		.loc 1 108 47 is_stmt 0
 603              	#APP
 604              	# 108 "src/PCB.cpp" 1
 109              	    PCB::timeSliceCounter = 0;
 605              		mv a5, a1
 606              	# 0 "" 2
 607              	.LVL44:
 608              		.loc 1 109 5 is_stmt 1
 609              		.loc 1 109 27 is_stmt 0
 610              	#NO_APP
 611 0398 17070000 		lla	a4,.LANCHOR0
 611      13070700 
 612 03a0 233C0700 		sd	zero,24(a4)
 110:src/PCB.cpp   ****     PCB::running->setTimeToSleep(time + Riscv::totalTime);
 613              		.loc 1 110 5 is_stmt 1
 614              		.loc 1 110 33 is_stmt 0
 615 03a4 03370700 		ld	a4,0(a4)
 616 03a8 97060000 		la	a3,_ZN5Riscv9totalTimeE
 616      83B60600 
 617 03b0 83B60600 		ld	a3,0(a3)
 618 03b4 B387D700 		add	a5,a5,a3
 619              	.LVL45:
 620              	.LBB22:
 621              	.LBB23:
  34:src/../h/PCB.hpp ****     void setTimeToSleep(uint64 time) {timeToSleep = time;}
 622              		.loc 2 34 39 is_stmt 1
 623              		.loc 2 34 51 is_stmt 0
 624 03b8 2330F702 		sd	a5,32(a4)
 625              	.LVL46:
 626              	.LBE23:
 627              	.LBE22:
 111:src/PCB.cpp   ****     SleepPCBList::insertSleepingPCB();
 628              		.loc 1 111 5 is_stmt 1
 629              		.loc 1 111 36 is_stmt 0
GAS LISTING /tmp/ccE7kwvL.s 			page 15


 630 03bc 97000000 		call	_ZN12SleepPCBList17insertSleepingPCBEv@plt
 630      E7800000 
 631              	.LVL47:
 112:src/PCB.cpp   ****     PCB::dispatch();
 632              		.loc 1 112 5 is_stmt 1
 633              		.loc 1 112 18 is_stmt 0
 634 03c4 97000000 		call	_ZN3PCB8dispatchEv
 634      E7800000 
 635              	.LVL48:
 113:src/PCB.cpp   ****     __asm__ volatile("li a0, 0x0");
 636              		.loc 1 113 5 is_stmt 1
 637              		.loc 1 113 35 is_stmt 0
 638              	#APP
 639              	# 113 "src/PCB.cpp" 1
 114              	    Riscv::w_a0_sscratch();
 640              		li a0, 0x0
 641              	# 0 "" 2
 642              		.loc 1 114 5 is_stmt 1
 643              		.loc 1 114 25 is_stmt 0
 644              	#NO_APP
 645 03d0 97000000 		call	_ZN5Riscv13w_a0_sscratchEv@plt
 645      E7800000 
 646              	.LVL49:
 115:src/PCB.cpp   **** }
 647              		.loc 1 115 1
 648 03d8 83308100 		ld	ra,8(sp)
 649              		.cfi_restore 1
 650 03dc 03340100 		ld	s0,0(sp)
 651              		.cfi_restore 8
 652              		.cfi_def_cfa 2, 16
 653 03e0 13010101 		addi	sp,sp,16
 654              		.cfi_def_cfa_offset 0
 655 03e4 67800000 		jr	ra
 656              		.cfi_endproc
 657              	.LFE40:
 659              		.align	2
 660              		.globl	_ZN3PCB19threadCreateHandlerEv
 662              	_ZN3PCB19threadCreateHandlerEv:
 663              	.LFB41:
 116:src/PCB.cpp   **** 
 117:src/PCB.cpp   **** void PCB::threadCreateHandler()
 118:src/PCB.cpp   **** {
 664              		.loc 1 118 1 is_stmt 1
 665              		.cfi_startproc
 666 03e8 130101FD 		addi	sp,sp,-48
 667              		.cfi_def_cfa_offset 48
 668 03ec 23341102 		sd	ra,40(sp)
 669 03f0 23308102 		sd	s0,32(sp)
 670 03f4 233C9100 		sd	s1,24(sp)
 671 03f8 23382101 		sd	s2,16(sp)
 672 03fc 23343101 		sd	s3,8(sp)
 673 0400 23304101 		sd	s4,0(sp)
 674              		.cfi_offset 1, -8
 675              		.cfi_offset 8, -16
 676              		.cfi_offset 9, -24
 677              		.cfi_offset 18, -32
 678              		.cfi_offset 19, -40
GAS LISTING /tmp/ccE7kwvL.s 			page 16


 679              		.cfi_offset 20, -48
 680 0404 13040103 		addi	s0,sp,48
 681              		.cfi_def_cfa 8, 0
 119:src/PCB.cpp   ****     uint64 start_routine;
 682              		.loc 1 119 5
 120:src/PCB.cpp   ****     uint64 args;
 683              		.loc 1 120 5
 121:src/PCB.cpp   ****     PCB **threadHandle;
 684              		.loc 1 121 5
 122:src/PCB.cpp   ****     __asm__ volatile("mv %0, a1" : "=r"(threadHandle));
 685              		.loc 1 122 5
 686              		.loc 1 122 55 is_stmt 0
 687              	#APP
 688              	# 122 "src/PCB.cpp" 1
 123              	    __asm__ volatile("mv %0, a2" : "=r"(start_routine));
 689              		mv s2, a1
 690              	# 0 "" 2
 691              	.LVL50:
 692              		.loc 1 123 5 is_stmt 1
 693              		.loc 1 123 56 is_stmt 0
 694              	# 123 "src/PCB.cpp" 1
 124              	    __asm__ volatile("mv %0, a3" : "=r"(args));
 695              		mv s3, a2
 696              	# 0 "" 2
 697              	.LVL51:
 698              		.loc 1 124 5 is_stmt 1
 699              		.loc 1 124 47 is_stmt 0
 700              	# 124 "src/PCB.cpp" 1
 125              	
 701              		mv s4, a3
 702              	# 0 "" 2
 703              	.LVL52:
 126:src/PCB.cpp   ****     PCB *newPCB = new PCB((void (*)(void *)) start_routine, (void *) args, (void *) PCB::savedRegA4
 704              		.loc 1 126 5 is_stmt 1
 705              		.loc 1 126 120 is_stmt 0
 706              	#NO_APP
 707 0414 13050006 		li	a0,96
 708 0418 97000000 		call	_ZN3PCBnwEm
 708      E7800000 
 709              	.LVL53:
 710 0420 93040500 		mv	s1,a0
 711 0424 13072000 		li	a4,2
 712 0428 97060000 		ld	a3,.LANCHOR0+32
 712      83B60600 
 713 0430 13060A00 		mv	a2,s4
 714 0434 93850900 		mv	a1,s3
 715 0438 97000000 		call	_ZN3PCBC1EPFvPvES0_S0_m
 715      E7800000 
 716              	.LVL54:
 127:src/PCB.cpp   **** 
 128:src/PCB.cpp   ****     (*threadHandle) = newPCB;
 717              		.loc 1 128 5 is_stmt 1
 718              		.loc 1 128 21 is_stmt 0
 719 0440 23309900 		sd	s1,0(s2)
 129:src/PCB.cpp   **** 
 130:src/PCB.cpp   ****     if (newPCB == 0)
 720              		.loc 1 130 5 is_stmt 1
GAS LISTING /tmp/ccE7kwvL.s 			page 17


 721 0444 638E0402 		beqz	s1,.L31
 131:src/PCB.cpp   ****             __asm__ volatile("li a0, 0xffffffffffffffff");
 132:src/PCB.cpp   ****     else
 133:src/PCB.cpp   ****     {
 134:src/PCB.cpp   ****         newPCB->start();
 722              		.loc 1 134 9
 723              		.loc 1 134 22 is_stmt 0
 724 0448 13850400 		mv	a0,s1
 725 044c 97000000 		call	_ZN3PCB5startEv
 725      E7800000 
 726              	.LVL55:
 135:src/PCB.cpp   ****         __asm__ volatile("li a0, 0");
 727              		.loc 1 135 9 is_stmt 1
 728              		.loc 1 135 37 is_stmt 0
 729              	#APP
 730              	# 135 "src/PCB.cpp" 1
 136              	    }
 731              		li a0, 0
 732              	# 0 "" 2
 733              	#NO_APP
 734              	.L29:
 137:src/PCB.cpp   ****     Riscv::w_a0_sscratch();
 735              		.loc 1 137 5 is_stmt 1
 736              		.loc 1 137 25 is_stmt 0
 737 0458 97000000 		call	_ZN5Riscv13w_a0_sscratchEv@plt
 737      E7800000 
 738              	.LVL56:
 138:src/PCB.cpp   **** }
 739              		.loc 1 138 1
 740 0460 83308102 		ld	ra,40(sp)
 741              		.cfi_remember_state
 742              		.cfi_restore 1
 743 0464 03340102 		ld	s0,32(sp)
 744              		.cfi_restore 8
 745              		.cfi_def_cfa 2, 48
 746 0468 83348101 		ld	s1,24(sp)
 747              		.cfi_restore 9
 748              	.LVL57:
 749 046c 03390101 		ld	s2,16(sp)
 750              		.cfi_restore 18
 751              	.LVL58:
 752 0470 83398100 		ld	s3,8(sp)
 753              		.cfi_restore 19
 754              	.LVL59:
 755 0474 033A0100 		ld	s4,0(sp)
 756              		.cfi_restore 20
 757              	.LVL60:
 758 0478 13010103 		addi	sp,sp,48
 759              		.cfi_def_cfa_offset 0
 760 047c 67800000 		jr	ra
 761              	.LVL61:
 762              	.L31:
 763              		.cfi_restore_state
 131:src/PCB.cpp   ****     else
 764              		.loc 1 131 13 is_stmt 1
 131:src/PCB.cpp   ****     else
 765              		.loc 1 131 58 is_stmt 0
GAS LISTING /tmp/ccE7kwvL.s 			page 18


 766              	#APP
 767              	# 131 "src/PCB.cpp" 1
 768              		li a0, 0xffffffffffffffff
 769              	# 0 "" 2
 770              	#NO_APP
 771 0484 6FF05FFD 		j	.L29
 772              		.cfi_endproc
 773              	.LFE41:
 775              		.align	2
 776              		.globl	_ZN3PCB18threadStartHandlerEv
 778              	_ZN3PCB18threadStartHandlerEv:
 779              	.LFB42:
 139:src/PCB.cpp   **** 
 140:src/PCB.cpp   **** void PCB::threadStartHandler()
 141:src/PCB.cpp   **** {
 780              		.loc 1 141 1 is_stmt 1
 781              		.cfi_startproc
 782 0488 130101FF 		addi	sp,sp,-16
 783              		.cfi_def_cfa_offset 16
 784 048c 23341100 		sd	ra,8(sp)
 785 0490 23308100 		sd	s0,0(sp)
 786              		.cfi_offset 1, -8
 787              		.cfi_offset 8, -16
 788 0494 13040101 		addi	s0,sp,16
 789              		.cfi_def_cfa 8, 0
 142:src/PCB.cpp   ****     PCB* pcb;
 790              		.loc 1 142 5
 143:src/PCB.cpp   ****     __asm__ volatile("mv %0, a1" : "=r"(pcb));
 791              		.loc 1 143 5
 792              		.loc 1 143 46 is_stmt 0
 793              	#APP
 794              	# 143 "src/PCB.cpp" 1
 144              	    if(pcb != 0)
 795              		mv a0, a1
 796              	# 0 "" 2
 797              	.LVL62:
 798              		.loc 1 144 5 is_stmt 1
 799              	#NO_APP
 800 049c 63040502 		beqz	a0,.L33
 145:src/PCB.cpp   ****     {
 146:src/PCB.cpp   ****         pcb->start();
 801              		.loc 1 146 9
 802              		.loc 1 146 19 is_stmt 0
 803 04a0 97000000 		call	_ZN3PCB5startEv
 803      E7800000 
 804              	.LVL63:
 147:src/PCB.cpp   ****         __asm__ volatile("li a0, 0");
 805              		.loc 1 147 9 is_stmt 1
 806              		.loc 1 147 37 is_stmt 0
 807              	#APP
 808              	# 147 "src/PCB.cpp" 1
 148              	    }
 809              		li a0, 0
 810              	# 0 "" 2
 811              	#NO_APP
 812              	.L34:
 149:src/PCB.cpp   ****     else
GAS LISTING /tmp/ccE7kwvL.s 			page 19


 150:src/PCB.cpp   ****     {
 151:src/PCB.cpp   ****         __asm__ volatile("li a0, 0xffffffffffffffff");
 152:src/PCB.cpp   ****     }
 153:src/PCB.cpp   ****     Riscv::w_a0_sscratch();
 813              		.loc 1 153 5 is_stmt 1
 814              		.loc 1 153 25 is_stmt 0
 815 04ac 97000000 		call	_ZN5Riscv13w_a0_sscratchEv@plt
 815      E7800000 
 816              	.LVL64:
 154:src/PCB.cpp   **** }
 817              		.loc 1 154 1
 818 04b4 83308100 		ld	ra,8(sp)
 819              		.cfi_remember_state
 820              		.cfi_restore 1
 821 04b8 03340100 		ld	s0,0(sp)
 822              		.cfi_restore 8
 823              		.cfi_def_cfa 2, 16
 824 04bc 13010101 		addi	sp,sp,16
 825              		.cfi_def_cfa_offset 0
 826 04c0 67800000 		jr	ra
 827              	.LVL65:
 828              	.L33:
 829              		.cfi_restore_state
 151:src/PCB.cpp   ****     }
 830              		.loc 1 151 9 is_stmt 1
 151:src/PCB.cpp   ****     }
 831              		.loc 1 151 54 is_stmt 0
 832              	#APP
 833              	# 151 "src/PCB.cpp" 1
 834              		li a0, 0xffffffffffffffff
 835              	# 0 "" 2
 836              	#NO_APP
 837 04c8 6FF05FFE 		j	.L34
 838              		.cfi_endproc
 839              	.LFE42:
 841              		.align	2
 842              		.globl	_ZN3PCB20threadMakePCBHandlerEv
 844              	_ZN3PCB20threadMakePCBHandlerEv:
 845              	.LFB43:
 155:src/PCB.cpp   **** 
 156:src/PCB.cpp   **** void PCB::threadMakePCBHandler()
 157:src/PCB.cpp   **** {
 846              		.loc 1 157 1 is_stmt 1
 847              		.cfi_startproc
 848 04cc 130101FD 		addi	sp,sp,-48
 849              		.cfi_def_cfa_offset 48
 850 04d0 23341102 		sd	ra,40(sp)
 851 04d4 23308102 		sd	s0,32(sp)
 852 04d8 233C9100 		sd	s1,24(sp)
 853 04dc 23382101 		sd	s2,16(sp)
 854 04e0 23343101 		sd	s3,8(sp)
 855 04e4 23304101 		sd	s4,0(sp)
 856              		.cfi_offset 1, -8
 857              		.cfi_offset 8, -16
 858              		.cfi_offset 9, -24
 859              		.cfi_offset 18, -32
 860              		.cfi_offset 19, -40
GAS LISTING /tmp/ccE7kwvL.s 			page 20


 861              		.cfi_offset 20, -48
 862 04e8 13040103 		addi	s0,sp,48
 863              		.cfi_def_cfa 8, 0
 158:src/PCB.cpp   ****     uint64 start_routine;
 864              		.loc 1 158 5
 159:src/PCB.cpp   ****     uint64 args;
 865              		.loc 1 159 5
 160:src/PCB.cpp   ****     PCB **threadHandle;
 866              		.loc 1 160 5
 161:src/PCB.cpp   ****     __asm__ volatile("mv %0, a1" : "=r"(threadHandle));
 867              		.loc 1 161 5
 868              		.loc 1 161 55 is_stmt 0
 869              	#APP
 870              	# 161 "src/PCB.cpp" 1
 162              	    __asm__ volatile("mv %0, a2" : "=r"(start_routine));
 871              		mv s2, a1
 872              	# 0 "" 2
 873              	.LVL66:
 874              		.loc 1 162 5 is_stmt 1
 875              		.loc 1 162 56 is_stmt 0
 876              	# 162 "src/PCB.cpp" 1
 163              	    __asm__ volatile("mv %0, a3" : "=r"(args));
 877              		mv s3, a2
 878              	# 0 "" 2
 879              	.LVL67:
 880              		.loc 1 163 5 is_stmt 1
 881              		.loc 1 163 47 is_stmt 0
 882              	# 163 "src/PCB.cpp" 1
 164              	
 883              		mv s4, a3
 884              	# 0 "" 2
 885              	.LVL68:
 165:src/PCB.cpp   ****     PCB *newPCB = new PCB((void (*)(void *)) start_routine, (void *) args, (void *) PCB::savedRegA4
 886              		.loc 1 165 5 is_stmt 1
 887              		.loc 1 165 120 is_stmt 0
 888              	#NO_APP
 889 04f8 13050006 		li	a0,96
 890 04fc 97000000 		call	_ZN3PCBnwEm
 890      E7800000 
 891              	.LVL69:
 892 0504 93040500 		mv	s1,a0
 893 0508 13072000 		li	a4,2
 894 050c 97060000 		ld	a3,.LANCHOR0+32
 894      83B60600 
 895 0514 13060A00 		mv	a2,s4
 896 0518 93850900 		mv	a1,s3
 897 051c 97000000 		call	_ZN3PCBC1EPFvPvES0_S0_m
 897      E7800000 
 898              	.LVL70:
 166:src/PCB.cpp   **** 
 167:src/PCB.cpp   ****     (*threadHandle) = newPCB;
 899              		.loc 1 167 5 is_stmt 1
 900              		.loc 1 167 21 is_stmt 0
 901 0524 23309900 		sd	s1,0(s2)
 168:src/PCB.cpp   **** 
 169:src/PCB.cpp   ****     if (newPCB == 0)
 902              		.loc 1 169 5 is_stmt 1
GAS LISTING /tmp/ccE7kwvL.s 			page 21


 903 0528 63880402 		beqz	s1,.L40
 170:src/PCB.cpp   ****         __asm__ volatile("li a0, 0xffffffffffffffff");
 171:src/PCB.cpp   ****     else
 172:src/PCB.cpp   ****         __asm__ volatile("li a0, 0");
 904              		.loc 1 172 9
 905              		.loc 1 172 37 is_stmt 0
 906              	#APP
 907              	# 172 "src/PCB.cpp" 1
 173              	    Riscv::w_a0_sscratch();
 908              		li a0, 0
 909              	# 0 "" 2
 910              	#NO_APP
 911              	.L38:
 912              		.loc 1 173 5 is_stmt 1
 913              		.loc 1 173 25 is_stmt 0
 914 0530 97000000 		call	_ZN5Riscv13w_a0_sscratchEv@plt
 914      E7800000 
 915              	.LVL71:
 174:src/PCB.cpp   **** }
 916              		.loc 1 174 1
 917 0538 83308102 		ld	ra,40(sp)
 918              		.cfi_remember_state
 919              		.cfi_restore 1
 920 053c 03340102 		ld	s0,32(sp)
 921              		.cfi_restore 8
 922              		.cfi_def_cfa 2, 48
 923 0540 83348101 		ld	s1,24(sp)
 924              		.cfi_restore 9
 925              	.LVL72:
 926 0544 03390101 		ld	s2,16(sp)
 927              		.cfi_restore 18
 928              	.LVL73:
 929 0548 83398100 		ld	s3,8(sp)
 930              		.cfi_restore 19
 931              	.LVL74:
 932 054c 033A0100 		ld	s4,0(sp)
 933              		.cfi_restore 20
 934              	.LVL75:
 935 0550 13010103 		addi	sp,sp,48
 936              		.cfi_def_cfa_offset 0
 937 0554 67800000 		jr	ra
 938              	.LVL76:
 939              	.L40:
 940              		.cfi_restore_state
 170:src/PCB.cpp   ****         __asm__ volatile("li a0, 0xffffffffffffffff");
 941              		.loc 1 170 9 is_stmt 1
 170:src/PCB.cpp   ****         __asm__ volatile("li a0, 0xffffffffffffffff");
 942              		.loc 1 170 54 is_stmt 0
 943              	#APP
 944              	# 170 "src/PCB.cpp" 1
 945              		li a0, 0xffffffffffffffff
 946              	# 0 "" 2
 947              	#NO_APP
 948 055c 6FF05FFD 		j	.L38
 949              		.cfi_endproc
 950              	.LFE43:
 952              		.align	2
GAS LISTING /tmp/ccE7kwvL.s 			page 22


 953              		.globl	_ZN3PCB19threadDelPCBHandlerEv
 955              	_ZN3PCB19threadDelPCBHandlerEv:
 956              	.LFB44:
 175:src/PCB.cpp   **** 
 176:src/PCB.cpp   **** void PCB::threadDelPCBHandler()
 177:src/PCB.cpp   **** {
 957              		.loc 1 177 1 is_stmt 1
 958              		.cfi_startproc
 959 0560 130101FE 		addi	sp,sp,-32
 960              		.cfi_def_cfa_offset 32
 961 0564 233C1100 		sd	ra,24(sp)
 962 0568 23388100 		sd	s0,16(sp)
 963 056c 23349100 		sd	s1,8(sp)
 964              		.cfi_offset 1, -8
 965              		.cfi_offset 8, -16
 966              		.cfi_offset 9, -24
 967 0570 13040102 		addi	s0,sp,32
 968              		.cfi_def_cfa 8, 0
 178:src/PCB.cpp   ****     PCB* pcb;
 969              		.loc 1 178 5
 179:src/PCB.cpp   ****     __asm__ volatile("mv %0, a1" : "=r"(pcb));
 970              		.loc 1 179 5
 971              		.loc 1 179 46 is_stmt 0
 972              	#APP
 973              	# 179 "src/PCB.cpp" 1
 180              	    if(pcb != 0)
 974              		mv s1, a1
 975              	# 0 "" 2
 976              	.LVL77:
 977              		.loc 1 180 5 is_stmt 1
 978              	#NO_APP
 979 0578 638E0402 		beqz	s1,.L42
 181:src/PCB.cpp   ****     {
 182:src/PCB.cpp   ****         delete pcb;
 980              		.loc 1 182 9 discriminator 1
 981              		.loc 1 182 16 is_stmt 0 discriminator 1
 982 057c 13850400 		mv	a0,s1
 983 0580 97000000 		call	_ZN3PCBD1Ev
 983      E7800000 
 984              	.LVL78:
 985 0588 13850400 		mv	a0,s1
 986 058c 97000000 		call	_ZN3PCBdlEPv
 986      E7800000 
 987              	.LVL79:
 183:src/PCB.cpp   ****         __asm__ volatile("li a0, 0x0");
 988              		.loc 1 183 9 is_stmt 1 discriminator 1
 989              		.loc 1 183 39 is_stmt 0 discriminator 1
 990              	#APP
 991              	# 183 "src/PCB.cpp" 1
 184              	    }
 992              		li a0, 0x0
 993              	# 0 "" 2
 994              	#NO_APP
 995              	.L43:
 185:src/PCB.cpp   ****     else
 186:src/PCB.cpp   ****     {
 187:src/PCB.cpp   ****         __asm__ volatile("li a0, 0x1");
GAS LISTING /tmp/ccE7kwvL.s 			page 23


 188:src/PCB.cpp   ****     }
 189:src/PCB.cpp   ****     Riscv::w_a0_sscratch();
 996              		.loc 1 189 5 is_stmt 1
 997              		.loc 1 189 25 is_stmt 0
 998 0598 97000000 		call	_ZN5Riscv13w_a0_sscratchEv@plt
 998      E7800000 
 999              	.LVL80:
 190:src/PCB.cpp   **** }
 1000              		.loc 1 190 1
 1001 05a0 83308101 		ld	ra,24(sp)
 1002              		.cfi_remember_state
 1003              		.cfi_restore 1
 1004 05a4 03340101 		ld	s0,16(sp)
 1005              		.cfi_restore 8
 1006              		.cfi_def_cfa 2, 32
 1007 05a8 83348100 		ld	s1,8(sp)
 1008              		.cfi_restore 9
 1009              	.LVL81:
 1010 05ac 13010102 		addi	sp,sp,32
 1011              		.cfi_def_cfa_offset 0
 1012 05b0 67800000 		jr	ra
 1013              	.LVL82:
 1014              	.L42:
 1015              		.cfi_restore_state
 187:src/PCB.cpp   ****     }
 1016              		.loc 1 187 9 is_stmt 1
 187:src/PCB.cpp   ****     }
 1017              		.loc 1 187 39 is_stmt 0
 1018              	#APP
 1019              	# 187 "src/PCB.cpp" 1
 1020              		li a0, 0x1
 1021              	# 0 "" 2
 1022              	#NO_APP
 1023 05b8 6FF01FFE 		j	.L43
 1024              		.cfi_endproc
 1025              	.LFE44:
 1027              		.globl	_ZN3PCB7userPCBE
 1028              		.globl	_ZN3PCB10consolePCBE
 1029              		.globl	_ZN3PCB10savedRegA4E
 1030              		.globl	_ZN3PCB16timeSliceCounterE
 1031              		.globl	_ZN3PCB7runningE
 1032              		.bss
 1033              		.align	3
 1034              		.set	.LANCHOR0,. + 0
 1037              	_ZN3PCB7runningE:
 1038 0000 00000000 		.zero	8
 1038      00000000 
 1041              	_ZN3PCB10consolePCBE:
 1042 0008 00000000 		.zero	8
 1042      00000000 
 1045              	_ZN3PCB7userPCBE:
 1046 0010 00000000 		.zero	8
 1046      00000000 
 1049              	_ZN3PCB16timeSliceCounterE:
 1050 0018 00000000 		.zero	8
 1050      00000000 
 1053              	_ZN3PCB10savedRegA4E:
GAS LISTING /tmp/ccE7kwvL.s 			page 24


 1054 0020 00000000 		.zero	8
 1054      00000000 
 1055              		.text
 1056              	.Letext0:
 1057              		.file 3 "src/../h/../lib/hw.h"
 1058              		.file 4 "src/../h/SleepPCBList.hpp"
 1059              		.file 5 "src/../h/MemoryAllocator.hpp"
 1060              		.file 6 "src/../h/Scheduler.hpp"
 1061              		.file 7 "src/../h/Riscv.hpp"
 1062              		.file 8 "src/../h/syscall_c.hpp"
 4969              		.align	3
 4972              	DW.ref.__gxx_personality_v0:
 4973 0000 00000000 		.dword	__gxx_personality_v0
 4973      00000000 
 4974              		.ident	"GCC: (Ubuntu 9.4.0-1ubuntu1~20.04) 9.4.0"
 4975              		.section	.note.GNU-stack,"",@progbits
GAS LISTING /tmp/ccE7kwvL.s 			page 25


DEFINED SYMBOLS
                            *ABS*:0000000000000000 PCB.cpp
     /tmp/ccE7kwvL.s:9      .text:0000000000000000 _ZN3PCB6runnerEv
     /tmp/ccE7kwvL.s:13     .text:0000000000000000 .L0 
     /tmp/ccE7kwvL.s:14     .text:0000000000000000 .L0 
     /tmp/ccE7kwvL.s:15     .text:0000000000000004 .L0 
     /tmp/ccE7kwvL.s:18     .text:000000000000000c .L0 
     /tmp/ccE7kwvL.s:19     .text:000000000000000c .L0 
     /tmp/ccE7kwvL.s:21     .text:0000000000000010 .L0 
     /tmp/ccE7kwvL.s:23     .text:0000000000000010 .L0 
     /tmp/ccE7kwvL.s:24     .text:0000000000000010 .L0 
     /tmp/ccE7kwvL.s:27     .text:0000000000000018 .L0 
     /tmp/ccE7kwvL.s:28     .text:0000000000000018 .L0 
     /tmp/ccE7kwvL.s:31     .text:0000000000000024 .L0 
     /tmp/ccE7kwvL.s:35     .text:000000000000002c .L0 
     /tmp/ccE7kwvL.s:36     .text:000000000000002c .L0 
     /tmp/ccE7kwvL.s:39     .text:0000000000000034 .L0 
     /tmp/ccE7kwvL.s:40     .text:0000000000000038 .L0 
     /tmp/ccE7kwvL.s:42     .text:000000000000003c .L0 
     /tmp/ccE7kwvL.s:43     .text:000000000000003c .L0 
     /tmp/ccE7kwvL.s:45     .text:0000000000000040 .L0 
     /tmp/ccE7kwvL.s:47     .text:0000000000000044 .L0 
     /tmp/ccE7kwvL.s:53     .text:0000000000000044 _ZN3PCBC2EPFvPvES0_S0_m
     /tmp/ccE7kwvL.s:56     .text:0000000000000044 .L0 
     /tmp/ccE7kwvL.s:58     .text:0000000000000044 .L0 
     /tmp/ccE7kwvL.s:59     .text:0000000000000048 .L0 
     /tmp/ccE7kwvL.s:61     .text:000000000000004c .L0 
     /tmp/ccE7kwvL.s:63     .text:0000000000000050 .L0 
     /tmp/ccE7kwvL.s:66     .text:0000000000000050 .L0 
     /tmp/ccE7kwvL.s:73     .text:0000000000000068 .L0 
     /tmp/ccE7kwvL.s:77     .text:0000000000000070 .L0 
     /tmp/ccE7kwvL.s:82     .text:0000000000000084 .L0 
     /tmp/ccE7kwvL.s:83     .text:0000000000000084 .L0 
     /tmp/ccE7kwvL.s:86     .text:0000000000000088 .L0 
     /tmp/ccE7kwvL.s:87     .text:000000000000008c .L0 
     /tmp/ccE7kwvL.s:88     .text:000000000000008c .L0 
     /tmp/ccE7kwvL.s:90     .text:0000000000000090 .L0 
     /tmp/ccE7kwvL.s:92     .text:0000000000000094 .L0 
     /tmp/ccE7kwvL.s:53     .text:0000000000000044 _ZN3PCBC1EPFvPvES0_S0_m
     /tmp/ccE7kwvL.s:100    .text:0000000000000094 _ZN3PCB5startEv
     /tmp/ccE7kwvL.s:103    .text:0000000000000094 .L0 
     /tmp/ccE7kwvL.s:105    .text:0000000000000094 .L0 
     /tmp/ccE7kwvL.s:106    .text:0000000000000098 .L0 
     /tmp/ccE7kwvL.s:109    .text:00000000000000a0 .L0 
     /tmp/ccE7kwvL.s:110    .text:00000000000000a0 .L0 
     /tmp/ccE7kwvL.s:112    .text:00000000000000a4 .L0 
     /tmp/ccE7kwvL.s:114    .text:00000000000000a4 .L0 
     /tmp/ccE7kwvL.s:115    .text:00000000000000a4 .L0 
     /tmp/ccE7kwvL.s:118    .text:00000000000000ac .L0 
     /tmp/ccE7kwvL.s:119    .text:00000000000000b0 .L0 
     /tmp/ccE7kwvL.s:121    .text:00000000000000b4 .L0 
     /tmp/ccE7kwvL.s:122    .text:00000000000000b4 .L0 
     /tmp/ccE7kwvL.s:124    .text:00000000000000b8 .L0 
     /tmp/ccE7kwvL.s:126    .text:00000000000000bc .L0 
     /tmp/ccE7kwvL.s:132    .text:00000000000000bc _ZN3PCB8dispatchEv
     /tmp/ccE7kwvL.s:135    .text:00000000000000bc .L0 
     /tmp/ccE7kwvL.s:136    .text:00000000000000bc .L0 
GAS LISTING /tmp/ccE7kwvL.s 			page 26


     /tmp/ccE7kwvL.s:137    .text:00000000000000c0 .L0 
     /tmp/ccE7kwvL.s:142    .text:00000000000000d0 .L0 
     /tmp/ccE7kwvL.s:143    .text:00000000000000d0 .L0 
     /tmp/ccE7kwvL.s:144    .text:00000000000000d0 .L0 
     /tmp/ccE7kwvL.s:145    .text:00000000000000d0 .L0 
     /tmp/ccE7kwvL.s:147    .text:00000000000000d4 .L0 
     /tmp/ccE7kwvL.s:149    .text:00000000000000d4 .L0 
     /tmp/ccE7kwvL.s:150    .text:00000000000000d4 .L0 
     /tmp/ccE7kwvL.s:156    .text:00000000000000dc .L0 
     /tmp/ccE7kwvL.s:157    .text:00000000000000dc .L0 
     /tmp/ccE7kwvL.s:158    .text:00000000000000dc .L0 
     /tmp/ccE7kwvL.s:163    .text:00000000000000e0 .L0 
     /tmp/ccE7kwvL.s:167    .text:00000000000000e8 .L0 
     /tmp/ccE7kwvL.s:168    .text:00000000000000e8 .L0 
     /tmp/ccE7kwvL.s:171    .text:00000000000000f0 .L0 
     /tmp/ccE7kwvL.s:177    .text:00000000000000fc .L0 
     /tmp/ccE7kwvL.s:178    .text:00000000000000fc .L0 
     /tmp/ccE7kwvL.s:179    .text:00000000000000fc .L0 
     /tmp/ccE7kwvL.s:185    .text:0000000000000104 .L0 
     /tmp/ccE7kwvL.s:186    .text:0000000000000104 .L0 
     /tmp/ccE7kwvL.s:189    .text:000000000000010c .L0 
     /tmp/ccE7kwvL.s:190    .text:000000000000010c .L0 
     /tmp/ccE7kwvL.s:192    .text:0000000000000110 .L0 
     /tmp/ccE7kwvL.s:197    .text:0000000000000120 .L0 
     /tmp/ccE7kwvL.s:198    .text:0000000000000124 .L0 
     /tmp/ccE7kwvL.s:199    .text:0000000000000124 .L0 
     /tmp/ccE7kwvL.s:201    .text:0000000000000128 .L0 
     /tmp/ccE7kwvL.s:202    .text:0000000000000128 .L0 
     /tmp/ccE7kwvL.s:204    .text:000000000000012c .L0 
     /tmp/ccE7kwvL.s:207    .text:0000000000000130 .L0 
     /tmp/ccE7kwvL.s:209    .text:0000000000000134 .L0 
     /tmp/ccE7kwvL.s:213    .text:0000000000000138 .L0 
     /tmp/ccE7kwvL.s:215    .text:0000000000000138 .L0 
     /tmp/ccE7kwvL.s:216    .text:0000000000000138 .L0 
     /tmp/ccE7kwvL.s:220    .text:0000000000000148 .L0 
     /tmp/ccE7kwvL.s:226    .text:0000000000000148 _ZN3PCBnwEm
     /tmp/ccE7kwvL.s:229    .text:0000000000000148 .L0 
     /tmp/ccE7kwvL.s:231    .text:0000000000000148 .L0 
     /tmp/ccE7kwvL.s:232    .text:000000000000014c .L0 
     /tmp/ccE7kwvL.s:235    .text:0000000000000154 .L0 
     /tmp/ccE7kwvL.s:236    .text:0000000000000154 .L0 
     /tmp/ccE7kwvL.s:238    .text:0000000000000158 .L0 
     /tmp/ccE7kwvL.s:240    .text:0000000000000158 .L0 
     /tmp/ccE7kwvL.s:241    .text:0000000000000158 .L0 
     /tmp/ccE7kwvL.s:244    .text:0000000000000160 .L0 
     /tmp/ccE7kwvL.s:245    .text:0000000000000164 .L0 
     /tmp/ccE7kwvL.s:247    .text:0000000000000168 .L0 
     /tmp/ccE7kwvL.s:248    .text:0000000000000168 .L0 
     /tmp/ccE7kwvL.s:250    .text:000000000000016c .L0 
     /tmp/ccE7kwvL.s:252    .text:0000000000000170 .L0 
     /tmp/ccE7kwvL.s:258    .text:0000000000000170 _ZN3PCBdlEPv
     /tmp/ccE7kwvL.s:261    .text:0000000000000170 .L0 
     /tmp/ccE7kwvL.s:263    .text:0000000000000170 .L0 
     /tmp/ccE7kwvL.s:264    .text:0000000000000174 .L0 
     /tmp/ccE7kwvL.s:267    .text:000000000000017c .L0 
     /tmp/ccE7kwvL.s:268    .text:000000000000017c .L0 
     /tmp/ccE7kwvL.s:270    .text:0000000000000180 .L0 
GAS LISTING /tmp/ccE7kwvL.s 			page 27


     /tmp/ccE7kwvL.s:272    .text:0000000000000180 .L0 
     /tmp/ccE7kwvL.s:273    .text:0000000000000180 .L0 
     /tmp/ccE7kwvL.s:276    .text:0000000000000188 .L0 
     /tmp/ccE7kwvL.s:277    .text:000000000000018c .L0 
     /tmp/ccE7kwvL.s:279    .text:0000000000000190 .L0 
     /tmp/ccE7kwvL.s:280    .text:0000000000000190 .L0 
     /tmp/ccE7kwvL.s:282    .text:0000000000000194 .L0 
     /tmp/ccE7kwvL.s:284    .text:0000000000000198 .L0 
     /tmp/ccE7kwvL.s:290    .text:0000000000000198 _ZN3PCBD2Ev
     /tmp/ccE7kwvL.s:293    .text:0000000000000198 .L0 
     /tmp/ccE7kwvL.s:4972   .data.rel.local.DW.ref.__gxx_personality_v0:0000000000000000 DW.ref.__gxx_personality_v0
     /tmp/ccE7kwvL.s:297    .text:0000000000000198 .L0 
     /tmp/ccE7kwvL.s:298    .text:000000000000019c .L0 
     /tmp/ccE7kwvL.s:301    .text:00000000000001a4 .L0 
     /tmp/ccE7kwvL.s:302    .text:00000000000001a4 .L0 
     /tmp/ccE7kwvL.s:304    .text:00000000000001a8 .L0 
     /tmp/ccE7kwvL.s:307    .text:00000000000001a8 .L0 
     /tmp/ccE7kwvL.s:308    .text:00000000000001a8 .L0 
     /tmp/ccE7kwvL.s:314    .text:00000000000001b4 .L0 
     /tmp/ccE7kwvL.s:315    .text:00000000000001b8 .L0 
     /tmp/ccE7kwvL.s:317    .text:00000000000001bc .L0 
     /tmp/ccE7kwvL.s:318    .text:00000000000001bc .L0 
     /tmp/ccE7kwvL.s:320    .text:00000000000001c0 .L0 
     /tmp/ccE7kwvL.s:322    .text:00000000000001c4 .L0 
     /tmp/ccE7kwvL.s:290    .text:0000000000000198 _ZN3PCBD1Ev
     /tmp/ccE7kwvL.s:338    .text:00000000000001c4 _ZN3PCB10initializeEv
     /tmp/ccE7kwvL.s:341    .text:00000000000001c4 .L0 
     /tmp/ccE7kwvL.s:342    .text:00000000000001c4 .L0 
     /tmp/ccE7kwvL.s:343    .text:00000000000001c8 .L0 
     /tmp/ccE7kwvL.s:350    .text:00000000000001e0 .L0 
     /tmp/ccE7kwvL.s:351    .text:00000000000001e0 .L0 
     /tmp/ccE7kwvL.s:352    .text:00000000000001e0 .L0 
     /tmp/ccE7kwvL.s:353    .text:00000000000001e0 .L0 
     /tmp/ccE7kwvL.s:354    .text:00000000000001e0 .L0 
     /tmp/ccE7kwvL.s:355    .text:00000000000001e0 .L0 
     /tmp/ccE7kwvL.s:357    .text:00000000000001e4 .L0 
     /tmp/ccE7kwvL.s:359    .text:00000000000001e4 .L0 
     /tmp/ccE7kwvL.s:360    .text:00000000000001e4 .L0 
     /tmp/ccE7kwvL.s:371    .text:000000000000020c .L0 
     /tmp/ccE7kwvL.s:372    .text:000000000000020c .L0 
     /tmp/ccE7kwvL.s:375    .text:0000000000000214 .L0 
     /tmp/ccE7kwvL.s:376    .text:0000000000000214 .L0 
     /tmp/ccE7kwvL.s:382    .text:0000000000000220 .L0 
     /tmp/ccE7kwvL.s:383    .text:0000000000000220 .L0 
     /tmp/ccE7kwvL.s:384    .text:0000000000000220 .L0 
     /tmp/ccE7kwvL.s:390    .text:0000000000000228 .L0 
     /tmp/ccE7kwvL.s:391    .text:0000000000000228 .L0 
     /tmp/ccE7kwvL.s:396    .text:0000000000000238 .L0 
     /tmp/ccE7kwvL.s:408    .text:0000000000000264 .L0 
     /tmp/ccE7kwvL.s:410    .text:0000000000000268 .L0 
     /tmp/ccE7kwvL.s:411    .text:0000000000000268 .L0 
     /tmp/ccE7kwvL.s:413    .text:000000000000026c .L0 
     /tmp/ccE7kwvL.s:414    .text:000000000000026c .L0 
     /tmp/ccE7kwvL.s:418    .text:0000000000000278 .L0 
     /tmp/ccE7kwvL.s:419    .text:0000000000000278 .L0 
     /tmp/ccE7kwvL.s:424    .text:0000000000000288 .L0 
     /tmp/ccE7kwvL.s:435    .text:00000000000002b4 .L0 
GAS LISTING /tmp/ccE7kwvL.s 			page 28


     /tmp/ccE7kwvL.s:437    .text:00000000000002b8 .L0 
     /tmp/ccE7kwvL.s:438    .text:00000000000002b8 .L0 
     /tmp/ccE7kwvL.s:442    .text:00000000000002c4 .L0 
     /tmp/ccE7kwvL.s:443    .text:00000000000002c8 .L0 
     /tmp/ccE7kwvL.s:445    .text:00000000000002cc .L0 
     /tmp/ccE7kwvL.s:446    .text:00000000000002cc .L0 
     /tmp/ccE7kwvL.s:448    .text:00000000000002d0 .L0 
     /tmp/ccE7kwvL.s:450    .text:00000000000002d4 .L0 
     /tmp/ccE7kwvL.s:452    .text:00000000000002d8 .L0 
     /tmp/ccE7kwvL.s:454    .text:00000000000002dc .L0 
     /tmp/ccE7kwvL.s:456    .text:00000000000002e0 .L0 
     /tmp/ccE7kwvL.s:458    .text:00000000000002e4 .L0 
     /tmp/ccE7kwvL.s:464    .text:00000000000002e4 _ZN3PCB10isFinishedEv
     /tmp/ccE7kwvL.s:467    .text:00000000000002e4 .L0 
     /tmp/ccE7kwvL.s:469    .text:00000000000002e4 .L0 
     /tmp/ccE7kwvL.s:470    .text:00000000000002e8 .L0 
     /tmp/ccE7kwvL.s:472    .text:00000000000002ec .L0 
     /tmp/ccE7kwvL.s:474    .text:00000000000002f0 .L0 
     /tmp/ccE7kwvL.s:476    .text:00000000000002f0 .L0 
     /tmp/ccE7kwvL.s:477    .text:00000000000002f0 .L0 
     /tmp/ccE7kwvL.s:480    .text:00000000000002f4 .L0 
     /tmp/ccE7kwvL.s:482    .text:00000000000002f8 .L0 
     /tmp/ccE7kwvL.s:484    .text:0000000000000300 .L0 
     /tmp/ccE7kwvL.s:485    .text:0000000000000300 .L0 
     /tmp/ccE7kwvL.s:487    .text:0000000000000304 .L0 
     /tmp/ccE7kwvL.s:489    .text:0000000000000308 .L0 
     /tmp/ccE7kwvL.s:495    .text:0000000000000308 _ZN3PCB17threadExitHandlerEv
     /tmp/ccE7kwvL.s:498    .text:0000000000000308 .L0 
     /tmp/ccE7kwvL.s:499    .text:0000000000000308 .L0 
     /tmp/ccE7kwvL.s:500    .text:000000000000030c .L0 
     /tmp/ccE7kwvL.s:503    .text:0000000000000314 .L0 
     /tmp/ccE7kwvL.s:504    .text:0000000000000314 .L0 
     /tmp/ccE7kwvL.s:506    .text:0000000000000318 .L0 
     /tmp/ccE7kwvL.s:508    .text:0000000000000318 .L0 
     /tmp/ccE7kwvL.s:509    .text:0000000000000318 .L0 
     /tmp/ccE7kwvL.s:512    .text:0000000000000324 .L0 
     /tmp/ccE7kwvL.s:513    .text:0000000000000324 .L0 
     /tmp/ccE7kwvL.s:518    .text:0000000000000328 .L0 
     /tmp/ccE7kwvL.s:519    .text:0000000000000328 .L0 
     /tmp/ccE7kwvL.s:525    .text:0000000000000330 .L0 
     /tmp/ccE7kwvL.s:526    .text:0000000000000330 .L0 
     /tmp/ccE7kwvL.s:529    .text:0000000000000338 .L0 
         src/PCB.cpp:95     .text:0000000000000338 .L0 
     /tmp/ccE7kwvL.s:535    .text:000000000000033c .L0 
     /tmp/ccE7kwvL.s:537    .text:000000000000033c .L0 
     /tmp/ccE7kwvL.s:540    .text:0000000000000344 .L0 
     /tmp/ccE7kwvL.s:541    .text:0000000000000348 .L0 
     /tmp/ccE7kwvL.s:543    .text:000000000000034c .L0 
     /tmp/ccE7kwvL.s:544    .text:000000000000034c .L0 
     /tmp/ccE7kwvL.s:546    .text:0000000000000350 .L0 
     /tmp/ccE7kwvL.s:548    .text:0000000000000354 .L0 
     /tmp/ccE7kwvL.s:554    .text:0000000000000354 _ZN3PCB21threadDispatchHandlerEv
     /tmp/ccE7kwvL.s:557    .text:0000000000000354 .L0 
     /tmp/ccE7kwvL.s:558    .text:0000000000000354 .L0 
     /tmp/ccE7kwvL.s:559    .text:0000000000000358 .L0 
     /tmp/ccE7kwvL.s:562    .text:0000000000000360 .L0 
     /tmp/ccE7kwvL.s:563    .text:0000000000000360 .L0 
GAS LISTING /tmp/ccE7kwvL.s 			page 29


     /tmp/ccE7kwvL.s:565    .text:0000000000000364 .L0 
     /tmp/ccE7kwvL.s:567    .text:0000000000000364 .L0 
     /tmp/ccE7kwvL.s:568    .text:0000000000000364 .L0 
     /tmp/ccE7kwvL.s:570    .text:000000000000036c .L0 
     /tmp/ccE7kwvL.s:571    .text:000000000000036c .L0 
     /tmp/ccE7kwvL.s:574    .text:0000000000000374 .L0 
     /tmp/ccE7kwvL.s:575    .text:0000000000000378 .L0 
     /tmp/ccE7kwvL.s:577    .text:000000000000037c .L0 
     /tmp/ccE7kwvL.s:578    .text:000000000000037c .L0 
     /tmp/ccE7kwvL.s:580    .text:0000000000000380 .L0 
     /tmp/ccE7kwvL.s:582    .text:0000000000000384 .L0 
     /tmp/ccE7kwvL.s:588    .text:0000000000000384 _ZN3PCB18threadSleepHandlerEv
     /tmp/ccE7kwvL.s:591    .text:0000000000000384 .L0 
     /tmp/ccE7kwvL.s:592    .text:0000000000000384 .L0 
     /tmp/ccE7kwvL.s:593    .text:0000000000000388 .L0 
     /tmp/ccE7kwvL.s:596    .text:0000000000000390 .L0 
     /tmp/ccE7kwvL.s:597    .text:0000000000000390 .L0 
     /tmp/ccE7kwvL.s:599    .text:0000000000000394 .L0 
     /tmp/ccE7kwvL.s:601    .text:0000000000000394 .L0 
     /tmp/ccE7kwvL.s:602    .text:0000000000000394 .L0 
         src/PCB.cpp:108    .text:0000000000000394 .L0 
     /tmp/ccE7kwvL.s:609    .text:0000000000000398 .L0 
     /tmp/ccE7kwvL.s:611    .text:0000000000000398 .L0 
     /tmp/ccE7kwvL.s:614    .text:00000000000003a4 .L0 
     /tmp/ccE7kwvL.s:615    .text:00000000000003a4 .L0 
     /tmp/ccE7kwvL.s:623    .text:00000000000003b8 .L0 
     /tmp/ccE7kwvL.s:624    .text:00000000000003b8 .L0 
     /tmp/ccE7kwvL.s:629    .text:00000000000003bc .L0 
     /tmp/ccE7kwvL.s:630    .text:00000000000003bc .L0 
     /tmp/ccE7kwvL.s:633    .text:00000000000003c4 .L0 
     /tmp/ccE7kwvL.s:634    .text:00000000000003c4 .L0 
     /tmp/ccE7kwvL.s:637    .text:00000000000003cc .L0 
         src/PCB.cpp:113    .text:00000000000003cc .L0 
     /tmp/ccE7kwvL.s:643    .text:00000000000003d0 .L0 
     /tmp/ccE7kwvL.s:645    .text:00000000000003d0 .L0 
     /tmp/ccE7kwvL.s:648    .text:00000000000003d8 .L0 
     /tmp/ccE7kwvL.s:649    .text:00000000000003dc .L0 
     /tmp/ccE7kwvL.s:651    .text:00000000000003e0 .L0 
     /tmp/ccE7kwvL.s:652    .text:00000000000003e0 .L0 
     /tmp/ccE7kwvL.s:654    .text:00000000000003e4 .L0 
     /tmp/ccE7kwvL.s:656    .text:00000000000003e8 .L0 
     /tmp/ccE7kwvL.s:662    .text:00000000000003e8 _ZN3PCB19threadCreateHandlerEv
     /tmp/ccE7kwvL.s:665    .text:00000000000003e8 .L0 
     /tmp/ccE7kwvL.s:666    .text:00000000000003e8 .L0 
     /tmp/ccE7kwvL.s:667    .text:00000000000003ec .L0 
     /tmp/ccE7kwvL.s:674    .text:0000000000000404 .L0 
     /tmp/ccE7kwvL.s:675    .text:0000000000000404 .L0 
     /tmp/ccE7kwvL.s:676    .text:0000000000000404 .L0 
     /tmp/ccE7kwvL.s:677    .text:0000000000000404 .L0 
     /tmp/ccE7kwvL.s:678    .text:0000000000000404 .L0 
     /tmp/ccE7kwvL.s:679    .text:0000000000000404 .L0 
     /tmp/ccE7kwvL.s:681    .text:0000000000000408 .L0 
     /tmp/ccE7kwvL.s:683    .text:0000000000000408 .L0 
     /tmp/ccE7kwvL.s:684    .text:0000000000000408 .L0 
     /tmp/ccE7kwvL.s:685    .text:0000000000000408 .L0 
     /tmp/ccE7kwvL.s:686    .text:0000000000000408 .L0 
         src/PCB.cpp:122    .text:0000000000000408 .L0 
GAS LISTING /tmp/ccE7kwvL.s 			page 30


     /tmp/ccE7kwvL.s:693    .text:000000000000040c .L0 
         src/PCB.cpp:123    .text:000000000000040c .L0 
     /tmp/ccE7kwvL.s:699    .text:0000000000000410 .L0 
         src/PCB.cpp:124    .text:0000000000000410 .L0 
     /tmp/ccE7kwvL.s:705    .text:0000000000000414 .L0 
     /tmp/ccE7kwvL.s:707    .text:0000000000000414 .L0 
     /tmp/ccE7kwvL.s:718    .text:0000000000000440 .L0 
     /tmp/ccE7kwvL.s:719    .text:0000000000000440 .L0 
     /tmp/ccE7kwvL.s:721    .text:0000000000000444 .L0 
     /tmp/ccE7kwvL.s:723    .text:0000000000000448 .L0 
     /tmp/ccE7kwvL.s:724    .text:0000000000000448 .L0 
     /tmp/ccE7kwvL.s:728    .text:0000000000000454 .L0 
         src/PCB.cpp:135    .text:0000000000000454 .L0 
     /tmp/ccE7kwvL.s:736    .text:0000000000000458 .L0 
     /tmp/ccE7kwvL.s:737    .text:0000000000000458 .L0 
     /tmp/ccE7kwvL.s:740    .text:0000000000000460 .L0 
     /tmp/ccE7kwvL.s:741    .text:0000000000000464 .L0 
     /tmp/ccE7kwvL.s:742    .text:0000000000000464 .L0 
     /tmp/ccE7kwvL.s:744    .text:0000000000000468 .L0 
     /tmp/ccE7kwvL.s:745    .text:0000000000000468 .L0 
     /tmp/ccE7kwvL.s:747    .text:000000000000046c .L0 
     /tmp/ccE7kwvL.s:750    .text:0000000000000470 .L0 
     /tmp/ccE7kwvL.s:753    .text:0000000000000474 .L0 
     /tmp/ccE7kwvL.s:756    .text:0000000000000478 .L0 
     /tmp/ccE7kwvL.s:759    .text:000000000000047c .L0 
     /tmp/ccE7kwvL.s:763    .text:0000000000000480 .L0 
     /tmp/ccE7kwvL.s:765    .text:0000000000000480 .L0 
         src/PCB.cpp:131    .text:0000000000000480 .L0 
     /tmp/ccE7kwvL.s:772    .text:0000000000000488 .L0 
     /tmp/ccE7kwvL.s:778    .text:0000000000000488 _ZN3PCB18threadStartHandlerEv
     /tmp/ccE7kwvL.s:781    .text:0000000000000488 .L0 
     /tmp/ccE7kwvL.s:782    .text:0000000000000488 .L0 
     /tmp/ccE7kwvL.s:783    .text:000000000000048c .L0 
     /tmp/ccE7kwvL.s:786    .text:0000000000000494 .L0 
     /tmp/ccE7kwvL.s:787    .text:0000000000000494 .L0 
     /tmp/ccE7kwvL.s:789    .text:0000000000000498 .L0 
     /tmp/ccE7kwvL.s:791    .text:0000000000000498 .L0 
     /tmp/ccE7kwvL.s:792    .text:0000000000000498 .L0 
         src/PCB.cpp:143    .text:0000000000000498 .L0 
     /tmp/ccE7kwvL.s:800    .text:000000000000049c .L0 
     /tmp/ccE7kwvL.s:802    .text:00000000000004a0 .L0 
     /tmp/ccE7kwvL.s:803    .text:00000000000004a0 .L0 
     /tmp/ccE7kwvL.s:806    .text:00000000000004a8 .L0 
         src/PCB.cpp:147    .text:00000000000004a8 .L0 
     /tmp/ccE7kwvL.s:814    .text:00000000000004ac .L0 
     /tmp/ccE7kwvL.s:815    .text:00000000000004ac .L0 
     /tmp/ccE7kwvL.s:818    .text:00000000000004b4 .L0 
     /tmp/ccE7kwvL.s:819    .text:00000000000004b8 .L0 
     /tmp/ccE7kwvL.s:820    .text:00000000000004b8 .L0 
     /tmp/ccE7kwvL.s:822    .text:00000000000004bc .L0 
     /tmp/ccE7kwvL.s:823    .text:00000000000004bc .L0 
     /tmp/ccE7kwvL.s:825    .text:00000000000004c0 .L0 
     /tmp/ccE7kwvL.s:829    .text:00000000000004c4 .L0 
     /tmp/ccE7kwvL.s:831    .text:00000000000004c4 .L0 
         src/PCB.cpp:151    .text:00000000000004c4 .L0 
     /tmp/ccE7kwvL.s:838    .text:00000000000004cc .L0 
     /tmp/ccE7kwvL.s:844    .text:00000000000004cc _ZN3PCB20threadMakePCBHandlerEv
GAS LISTING /tmp/ccE7kwvL.s 			page 31


     /tmp/ccE7kwvL.s:847    .text:00000000000004cc .L0 
     /tmp/ccE7kwvL.s:848    .text:00000000000004cc .L0 
     /tmp/ccE7kwvL.s:849    .text:00000000000004d0 .L0 
     /tmp/ccE7kwvL.s:856    .text:00000000000004e8 .L0 
     /tmp/ccE7kwvL.s:857    .text:00000000000004e8 .L0 
     /tmp/ccE7kwvL.s:858    .text:00000000000004e8 .L0 
     /tmp/ccE7kwvL.s:859    .text:00000000000004e8 .L0 
     /tmp/ccE7kwvL.s:860    .text:00000000000004e8 .L0 
     /tmp/ccE7kwvL.s:861    .text:00000000000004e8 .L0 
     /tmp/ccE7kwvL.s:863    .text:00000000000004ec .L0 
     /tmp/ccE7kwvL.s:865    .text:00000000000004ec .L0 
     /tmp/ccE7kwvL.s:866    .text:00000000000004ec .L0 
     /tmp/ccE7kwvL.s:867    .text:00000000000004ec .L0 
     /tmp/ccE7kwvL.s:868    .text:00000000000004ec .L0 
         src/PCB.cpp:161    .text:00000000000004ec .L0 
     /tmp/ccE7kwvL.s:875    .text:00000000000004f0 .L0 
         src/PCB.cpp:162    .text:00000000000004f0 .L0 
     /tmp/ccE7kwvL.s:881    .text:00000000000004f4 .L0 
         src/PCB.cpp:163    .text:00000000000004f4 .L0 
     /tmp/ccE7kwvL.s:887    .text:00000000000004f8 .L0 
     /tmp/ccE7kwvL.s:889    .text:00000000000004f8 .L0 
     /tmp/ccE7kwvL.s:900    .text:0000000000000524 .L0 
     /tmp/ccE7kwvL.s:901    .text:0000000000000524 .L0 
     /tmp/ccE7kwvL.s:903    .text:0000000000000528 .L0 
     /tmp/ccE7kwvL.s:905    .text:000000000000052c .L0 
         src/PCB.cpp:172    .text:000000000000052c .L0 
     /tmp/ccE7kwvL.s:913    .text:0000000000000530 .L0 
     /tmp/ccE7kwvL.s:914    .text:0000000000000530 .L0 
     /tmp/ccE7kwvL.s:917    .text:0000000000000538 .L0 
     /tmp/ccE7kwvL.s:918    .text:000000000000053c .L0 
     /tmp/ccE7kwvL.s:919    .text:000000000000053c .L0 
     /tmp/ccE7kwvL.s:921    .text:0000000000000540 .L0 
     /tmp/ccE7kwvL.s:922    .text:0000000000000540 .L0 
     /tmp/ccE7kwvL.s:924    .text:0000000000000544 .L0 
     /tmp/ccE7kwvL.s:927    .text:0000000000000548 .L0 
     /tmp/ccE7kwvL.s:930    .text:000000000000054c .L0 
     /tmp/ccE7kwvL.s:933    .text:0000000000000550 .L0 
     /tmp/ccE7kwvL.s:936    .text:0000000000000554 .L0 
     /tmp/ccE7kwvL.s:940    .text:0000000000000558 .L0 
     /tmp/ccE7kwvL.s:942    .text:0000000000000558 .L0 
         src/PCB.cpp:170    .text:0000000000000558 .L0 
     /tmp/ccE7kwvL.s:949    .text:0000000000000560 .L0 
     /tmp/ccE7kwvL.s:955    .text:0000000000000560 _ZN3PCB19threadDelPCBHandlerEv
     /tmp/ccE7kwvL.s:958    .text:0000000000000560 .L0 
     /tmp/ccE7kwvL.s:959    .text:0000000000000560 .L0 
     /tmp/ccE7kwvL.s:960    .text:0000000000000564 .L0 
     /tmp/ccE7kwvL.s:964    .text:0000000000000570 .L0 
     /tmp/ccE7kwvL.s:965    .text:0000000000000570 .L0 
     /tmp/ccE7kwvL.s:966    .text:0000000000000570 .L0 
     /tmp/ccE7kwvL.s:968    .text:0000000000000574 .L0 
     /tmp/ccE7kwvL.s:970    .text:0000000000000574 .L0 
     /tmp/ccE7kwvL.s:971    .text:0000000000000574 .L0 
         src/PCB.cpp:179    .text:0000000000000574 .L0 
     /tmp/ccE7kwvL.s:979    .text:0000000000000578 .L0 
     /tmp/ccE7kwvL.s:981    .text:000000000000057c .L0 
     /tmp/ccE7kwvL.s:982    .text:000000000000057c .L0 
     /tmp/ccE7kwvL.s:989    .text:0000000000000594 .L0 
GAS LISTING /tmp/ccE7kwvL.s 			page 32


         src/PCB.cpp:183    .text:0000000000000594 .L0 
     /tmp/ccE7kwvL.s:997    .text:0000000000000598 .L0 
     /tmp/ccE7kwvL.s:998    .text:0000000000000598 .L0 
     /tmp/ccE7kwvL.s:1001   .text:00000000000005a0 .L0 
     /tmp/ccE7kwvL.s:1002   .text:00000000000005a4 .L0 
     /tmp/ccE7kwvL.s:1003   .text:00000000000005a4 .L0 
     /tmp/ccE7kwvL.s:1005   .text:00000000000005a8 .L0 
     /tmp/ccE7kwvL.s:1006   .text:00000000000005a8 .L0 
     /tmp/ccE7kwvL.s:1008   .text:00000000000005ac .L0 
     /tmp/ccE7kwvL.s:1011   .text:00000000000005b0 .L0 
     /tmp/ccE7kwvL.s:1015   .text:00000000000005b4 .L0 
     /tmp/ccE7kwvL.s:1017   .text:00000000000005b4 .L0 
         src/PCB.cpp:187    .text:00000000000005b4 .L0 
     /tmp/ccE7kwvL.s:1024   .text:00000000000005bc .L0 
     /tmp/ccE7kwvL.s:1045   .bss:0000000000000010 _ZN3PCB7userPCBE
     /tmp/ccE7kwvL.s:1041   .bss:0000000000000008 _ZN3PCB10consolePCBE
     /tmp/ccE7kwvL.s:1053   .bss:0000000000000020 _ZN3PCB10savedRegA4E
     /tmp/ccE7kwvL.s:1049   .bss:0000000000000018 _ZN3PCB16timeSliceCounterE
     /tmp/ccE7kwvL.s:1037   .bss:0000000000000000 _ZN3PCB7runningE
     /tmp/ccE7kwvL.s:1034   .bss:0000000000000000 .LANCHOR0
     /tmp/ccE7kwvL.s:1063   .text:00000000000005bc .L0 
     /tmp/ccE7kwvL.s:28     .text:0000000000000018 .L0 
     /tmp/ccE7kwvL.s:78     .text:0000000000000074 .L0 
     /tmp/ccE7kwvL.s:150    .text:00000000000000d4 .L0 
     /tmp/ccE7kwvL.s:171    .text:00000000000000f0 .L0 
     /tmp/ccE7kwvL.s:376    .text:0000000000000214 .L0 
     /tmp/ccE7kwvL.s:404    .text:0000000000000254 .L0 
     /tmp/ccE7kwvL.s:431    .text:00000000000002a4 .L0 
     /tmp/ccE7kwvL.s:509    .text:0000000000000318 .L0 
     /tmp/ccE7kwvL.s:568    .text:0000000000000364 .L0 
     /tmp/ccE7kwvL.s:611    .text:0000000000000398 .L0 
     /tmp/ccE7kwvL.s:616    .text:00000000000003a8 .L0 
     /tmp/ccE7kwvL.s:712    .text:0000000000000428 .L0 
     /tmp/ccE7kwvL.s:894    .text:000000000000050c .L0 
     /tmp/ccE7kwvL.s:212    .text:0000000000000138 .L10
     /tmp/ccE7kwvL.s:165    .text:00000000000000e8 .L8
     /tmp/ccE7kwvL.s:762    .text:0000000000000480 .L31
     /tmp/ccE7kwvL.s:734    .text:0000000000000458 .L29
     /tmp/ccE7kwvL.s:828    .text:00000000000004c4 .L33
     /tmp/ccE7kwvL.s:812    .text:00000000000004ac .L34
     /tmp/ccE7kwvL.s:939    .text:0000000000000558 .L40
     /tmp/ccE7kwvL.s:911    .text:0000000000000530 .L38
     /tmp/ccE7kwvL.s:1014   .text:00000000000005b4 .L42
     /tmp/ccE7kwvL.s:995    .text:0000000000000598 .L43
     /tmp/ccE7kwvL.s:3202   .debug_abbrev:0000000000000000 .Ldebug_abbrev0
     /tmp/ccE7kwvL.s:4870   .debug_str:0000000000000d73 .LASF239
     /tmp/ccE7kwvL.s:4892   .debug_str:0000000000000ed9 .LASF240
     /tmp/ccE7kwvL.s:4612   .debug_str:00000000000004be .LASF241
     /tmp/ccE7kwvL.s:5      .text:0000000000000000 .Ltext0
     /tmp/ccE7kwvL.s:1056   .text:00000000000005bc .Letext0
     /tmp/ccE7kwvL.s:4468   .debug_line:0000000000000000 .Ldebug_line0
     /tmp/ccE7kwvL.s:4640   .debug_str:00000000000005c2 .LASF0
     /tmp/ccE7kwvL.s:4674   .debug_str:00000000000006d6 .LASF1
     /tmp/ccE7kwvL.s:4798   .debug_str:0000000000000b7d .LASF2
     /tmp/ccE7kwvL.s:4808   .debug_str:0000000000000bc6 .LASF4
     /tmp/ccE7kwvL.s:4658   .debug_str:0000000000000646 .LASF3
     /tmp/ccE7kwvL.s:4486   .debug_str:00000000000000b5 .LASF5
GAS LISTING /tmp/ccE7kwvL.s 			page 33


     /tmp/ccE7kwvL.s:4756   .debug_str:00000000000009fd .LASF6
     /tmp/ccE7kwvL.s:4666   .debug_str:000000000000069d .LASF7
     /tmp/ccE7kwvL.s:4610   .debug_str:00000000000004ae .LASF8
     /tmp/ccE7kwvL.s:4616   .debug_str:00000000000004e9 .LASF9
     /tmp/ccE7kwvL.s:4534   .debug_str:0000000000000271 .LASF10
     /tmp/ccE7kwvL.s:4598   .debug_str:0000000000000467 .LASF11
     /tmp/ccE7kwvL.s:4546   .debug_str:00000000000002af .LASF12
     /tmp/ccE7kwvL.s:4532   .debug_str:0000000000000261 .LASF13
     /tmp/ccE7kwvL.s:4852   .debug_str:0000000000000d1c .LASF14
     /tmp/ccE7kwvL.s:4586   .debug_str:00000000000003d8 .LASF15
     /tmp/ccE7kwvL.s:4840   .debug_str:0000000000000c9c .LASF16
     /tmp/ccE7kwvL.s:4864   .debug_str:0000000000000d5b .LASF242
     /tmp/ccE7kwvL.s:4858   .debug_str:0000000000000d3b .LASF17
     /tmp/ccE7kwvL.s:4830   .debug_str:0000000000000c68 .LASF18
     /tmp/ccE7kwvL.s:4540   .debug_str:000000000000028e .LASF19
     /tmp/ccE7kwvL.s:4514   .debug_str:00000000000001c1 .LASF20
     /tmp/ccE7kwvL.s:4760   .debug_str:0000000000000a26 .LASF21
     /tmp/ccE7kwvL.s:4538   .debug_str:0000000000000285 .LASF22
     /tmp/ccE7kwvL.s:4854   .debug_str:0000000000000d28 .LASF90
     /tmp/ccE7kwvL.s:4624   .debug_str:000000000000054b .LASF23
     /tmp/ccE7kwvL.s:4490   .debug_str:00000000000000c7 .LASF29
     /tmp/ccE7kwvL.s:4884   .debug_str:0000000000000e82 .LASF243
     /tmp/ccE7kwvL.s:4746   .debug_str:00000000000009a7 .LASF24
     /tmp/ccE7kwvL.s:4672   .debug_str:00000000000006d1 .LASF25
     /tmp/ccE7kwvL.s:4950   .debug_str:00000000000010b9 .LASF27
     /tmp/ccE7kwvL.s:4944   .debug_str:0000000000001089 .LASF26
     /tmp/ccE7kwvL.s:4872   .debug_str:0000000000000e37 .LASF28
     /tmp/ccE7kwvL.s:4570   .debug_str:0000000000000368 .LASF52
     /tmp/ccE7kwvL.s:4500   .debug_str:000000000000013b .LASF54
     /tmp/ccE7kwvL.s:4868   .debug_str:0000000000000d6b .LASF30
     /tmp/ccE7kwvL.s:4820   .debug_str:0000000000000c03 .LASF31
     /tmp/ccE7kwvL.s:4680   .debug_str:000000000000070a .LASF34
     /tmp/ccE7kwvL.s:4686   .debug_str:0000000000000741 .LASF36
     /tmp/ccE7kwvL.s:4954   .debug_str:00000000000010dd .LASF32
     /tmp/ccE7kwvL.s:4590   .debug_str:00000000000003fe .LASF33
     /tmp/ccE7kwvL.s:4476   .debug_str:0000000000000030 .LASF78
     /tmp/ccE7kwvL.s:4652   .debug_str:000000000000061a .LASF80
     /tmp/ccE7kwvL.s:4824   .debug_str:0000000000000c25 .LASF35
     /tmp/ccE7kwvL.s:4718   .debug_str:000000000000086b .LASF37
     /tmp/ccE7kwvL.s:4806   .debug_str:0000000000000bbd .LASF38
     /tmp/ccE7kwvL.s:4848   .debug_str:0000000000000cf9 .LASF39
     /tmp/ccE7kwvL.s:4720   .debug_str:000000000000087e .LASF40
     /tmp/ccE7kwvL.s:4472   .debug_str:0000000000000011 .LASF41
     /tmp/ccE7kwvL.s:4930   .debug_str:0000000000001011 .LASF42
     /tmp/ccE7kwvL.s:4754   .debug_str:00000000000009e3 .LASF43
     /tmp/ccE7kwvL.s:4838   .debug_str:0000000000000c8e .LASF44
     /tmp/ccE7kwvL.s:4768   .debug_str:0000000000000a59 .LASF45
     /tmp/ccE7kwvL.s:4564   .debug_str:0000000000000333 .LASF46
     /tmp/ccE7kwvL.s:4600   .debug_str:0000000000000476 .LASF47
     /tmp/ccE7kwvL.s:4790   .debug_str:0000000000000b3c .LASF48
     /tmp/ccE7kwvL.s:4694   .debug_str:000000000000079f .LASF49
     /tmp/ccE7kwvL.s:4936   .debug_str:0000000000001045 .LASF50
     /tmp/ccE7kwvL.s:4660   .debug_str:0000000000000658 .LASF51
     /tmp/ccE7kwvL.s:4834   .debug_str:0000000000000c7c .LASF53
     /tmp/ccE7kwvL.s:4948   .debug_str:00000000000010a3 .LASF55
     /tmp/ccE7kwvL.s:4856   .debug_str:0000000000000d30 .LASF56
     /tmp/ccE7kwvL.s:4556   .debug_str:0000000000000306 .LASF57
GAS LISTING /tmp/ccE7kwvL.s 			page 34


     /tmp/ccE7kwvL.s:4816   .debug_str:0000000000000bed .LASF58
     /tmp/ccE7kwvL.s:4642   .debug_str:00000000000005cf .LASF59
     /tmp/ccE7kwvL.s:4728   .debug_str:00000000000008b8 .LASF60
     /tmp/ccE7kwvL.s:4550   .debug_str:00000000000002d0 .LASF61
     /tmp/ccE7kwvL.s:4772   .debug_str:0000000000000a80 .LASF62
     /tmp/ccE7kwvL.s:4964   .debug_str:0000000000001114 .LASF63
     /tmp/ccE7kwvL.s:4732   .debug_str:00000000000008de .LASF64
     /tmp/ccE7kwvL.s:4804   .debug_str:0000000000000baa .LASF65
     /tmp/ccE7kwvL.s:4826   .debug_str:0000000000000c2e .LASF66
     /tmp/ccE7kwvL.s:4898   .debug_str:0000000000000ef3 .LASF67
     /tmp/ccE7kwvL.s:4706   .debug_str:0000000000000806 .LASF68
     /tmp/ccE7kwvL.s:4886   .debug_str:0000000000000e9a .LASF69
     /tmp/ccE7kwvL.s:4846   .debug_str:0000000000000cd9 .LASF70
     /tmp/ccE7kwvL.s:4750   .debug_str:00000000000009bf .LASF71
     /tmp/ccE7kwvL.s:4734   .debug_str:00000000000008ff .LASF72
     /tmp/ccE7kwvL.s:4576   .debug_str:0000000000000389 .LASF73
     /tmp/ccE7kwvL.s:4644   .debug_str:00000000000005e3 .LASF74
     /tmp/ccE7kwvL.s:4708   .debug_str:0000000000000824 .LASF75
     /tmp/ccE7kwvL.s:4876   .debug_str:0000000000000e5b .LASF76
     /tmp/ccE7kwvL.s:4604   .debug_str:000000000000048f .LASF77
     /tmp/ccE7kwvL.s:4942   .debug_str:000000000000107b .LASF79
     /tmp/ccE7kwvL.s:4506   .debug_str:0000000000000163 .LASF81
     /tmp/ccE7kwvL.s:4592   .debug_str:000000000000040a .LASF82
     /tmp/ccE7kwvL.s:4524   .debug_str:00000000000001fd .LASF83
     /tmp/ccE7kwvL.s:4928   .debug_str:000000000000100a .LASF84
     /tmp/ccE7kwvL.s:4520   .debug_str:00000000000001de .LASF85
     /tmp/ccE7kwvL.s:4474   .debug_str:000000000000002b .LASF86
     /tmp/ccE7kwvL.s:4896   .debug_str:0000000000000eee .LASF87
     /tmp/ccE7kwvL.s:4692   .debug_str:0000000000000797 .LASF88
     /tmp/ccE7kwvL.s:4574   .debug_str:0000000000000383 .LASF89
     /tmp/ccE7kwvL.s:4882   .debug_str:0000000000000e7a .LASF91
     /tmp/ccE7kwvL.s:4508   .debug_str:000000000000018b .LASF92
     /tmp/ccE7kwvL.s:4696   .debug_str:00000000000007ae .LASF93
     /tmp/ccE7kwvL.s:4614   .debug_str:00000000000004dc .LASF94
     /tmp/ccE7kwvL.s:4710   .debug_str:000000000000082c .LASF95
     /tmp/ccE7kwvL.s:4580   .debug_str:00000000000003a9 .LASF96
     /tmp/ccE7kwvL.s:4594   .debug_str:000000000000041f .LASF97
     /tmp/ccE7kwvL.s:4516   .debug_str:00000000000001ca .LASF98
     /tmp/ccE7kwvL.s:4496   .debug_str:00000000000000fc .LASF99
     /tmp/ccE7kwvL.s:4862   .debug_str:0000000000000d56 .LASF100
     /tmp/ccE7kwvL.s:4752   .debug_str:00000000000009d3 .LASF101
     /tmp/ccE7kwvL.s:4832   .debug_str:0000000000000c70 .LASF102
     /tmp/ccE7kwvL.s:4554   .debug_str:0000000000000301 .LASF103
     /tmp/ccE7kwvL.s:4536   .debug_str:0000000000000280 .LASF104
     /tmp/ccE7kwvL.s:4606   .debug_str:000000000000049b .LASF105
     /tmp/ccE7kwvL.s:4676   .debug_str:00000000000006e9 .LASF106
     /tmp/ccE7kwvL.s:4678   .debug_str:00000000000006f7 .LASF107
     /tmp/ccE7kwvL.s:4602   .debug_str:0000000000000486 .LASF108
     /tmp/ccE7kwvL.s:4962   .debug_str:000000000000110a .LASF109
     /tmp/ccE7kwvL.s:4878   .debug_str:0000000000000e65 .LASF110
     /tmp/ccE7kwvL.s:4782   .debug_str:0000000000000af4 .LASF111
     /tmp/ccE7kwvL.s:4634   .debug_str:000000000000057a .LASF112
     /tmp/ccE7kwvL.s:4596   .debug_str:0000000000000446 .LASF113
     /tmp/ccE7kwvL.s:4906   .debug_str:0000000000000f4d .LASF114
     /tmp/ccE7kwvL.s:4688   .debug_str:0000000000000759 .LASF115
     /tmp/ccE7kwvL.s:4770   .debug_str:0000000000000a65 .LASF116
     /tmp/ccE7kwvL.s:4482   .debug_str:0000000000000076 .LASF117
GAS LISTING /tmp/ccE7kwvL.s 			page 35


     /tmp/ccE7kwvL.s:4920   .debug_str:0000000000000faa .LASF118
     /tmp/ccE7kwvL.s:4478   .debug_str:0000000000000040 .LASF119
     /tmp/ccE7kwvL.s:4860   .debug_str:0000000000000d41 .LASF120
     /tmp/ccE7kwvL.s:4620   .debug_str:000000000000050a .LASF121
     /tmp/ccE7kwvL.s:4470   .debug_str:0000000000000000 .LASF122
     /tmp/ccE7kwvL.s:4740   .debug_str:0000000000000947 .LASF123
     /tmp/ccE7kwvL.s:4588   .debug_str:00000000000003ee .LASF124
     /tmp/ccE7kwvL.s:4922   .debug_str:0000000000000fc0 .LASF125
     /tmp/ccE7kwvL.s:4842   .debug_str:0000000000000cb2 .LASF126
     /tmp/ccE7kwvL.s:4638   .debug_str:000000000000059b .LASF127
     /tmp/ccE7kwvL.s:4572   .debug_str:0000000000000371 .LASF128
     /tmp/ccE7kwvL.s:4904   .debug_str:0000000000000f1e .LASF129
     /tmp/ccE7kwvL.s:4926   .debug_str:0000000000001002 .LASF130
     /tmp/ccE7kwvL.s:4702   .debug_str:00000000000007d7 .LASF131
     /tmp/ccE7kwvL.s:4544   .debug_str:00000000000002a9 .LASF132
     /tmp/ccE7kwvL.s:4744   .debug_str:0000000000000989 .LASF133
     /tmp/ccE7kwvL.s:4608   .debug_str:00000000000004a4 .LASF134
     /tmp/ccE7kwvL.s:4492   .debug_str:00000000000000d2 .LASF244
     /tmp/ccE7kwvL.s:4946   .debug_str:000000000000108f .LASF245
     /tmp/ccE7kwvL.s:4510   .debug_str:000000000000019c .LASF135
     /tmp/ccE7kwvL.s:4748   .debug_str:00000000000009ac .LASF136
     /tmp/ccE7kwvL.s:4916   .debug_str:0000000000000f98 .LASF137
     /tmp/ccE7kwvL.s:4792   .debug_str:0000000000000b49 .LASF144
     /tmp/ccE7kwvL.s:4518   .debug_str:00000000000001d8 .LASF138
     /tmp/ccE7kwvL.s:4726   .debug_str:00000000000008a2 .LASF139
     /tmp/ccE7kwvL.s:4822   .debug_str:0000000000000c14 .LASF140
     /tmp/ccE7kwvL.s:4548   .debug_str:00000000000002bf .LASF141
     /tmp/ccE7kwvL.s:4914   .debug_str:0000000000000f92 .LASF142
     /tmp/ccE7kwvL.s:4632   .debug_str:000000000000056f .LASF143
     /tmp/ccE7kwvL.s:4844   .debug_str:0000000000000cc1 .LASF145
     /tmp/ccE7kwvL.s:4900   .debug_str:0000000000000f06 .LASF146
     /tmp/ccE7kwvL.s:4934   .debug_str:0000000000001036 .LASF147
     /tmp/ccE7kwvL.s:4828   .debug_str:0000000000000c4c .LASF148
     /tmp/ccE7kwvL.s:4880   .debug_str:0000000000000e6f .LASF149
     /tmp/ccE7kwvL.s:4700   .debug_str:00000000000007bf .LASF150
     /tmp/ccE7kwvL.s:4584   .debug_str:00000000000003ce .LASF151
     /tmp/ccE7kwvL.s:4758   .debug_str:0000000000000a10 .LASF152
     /tmp/ccE7kwvL.s:4704   .debug_str:00000000000007f6 .LASF153
     /tmp/ccE7kwvL.s:4908   .debug_str:0000000000000f58 .LASF154
     /tmp/ccE7kwvL.s:4528   .debug_str:000000000000023d .LASF155
     /tmp/ccE7kwvL.s:4684   .debug_str:0000000000000723 .LASF156
     /tmp/ccE7kwvL.s:4578   .debug_str:0000000000000392 .LASF157
     /tmp/ccE7kwvL.s:4940   .debug_str:0000000000001057 .LASF158
     /tmp/ccE7kwvL.s:4650   .debug_str:0000000000000608 .LASF159
     /tmp/ccE7kwvL.s:4552   .debug_str:00000000000002e2 .LASF160
     /tmp/ccE7kwvL.s:4818   .debug_str:0000000000000bf5 .LASF161
     /tmp/ccE7kwvL.s:4780   .debug_str:0000000000000ad9 .LASF162
     /tmp/ccE7kwvL.s:4722   .debug_str:000000000000088d .LASF163
     /tmp/ccE7kwvL.s:4924   .debug_str:0000000000000fe8 .LASF164
     /tmp/ccE7kwvL.s:4894   .debug_str:0000000000000ee5 .LASF165
     /tmp/ccE7kwvL.s:4786   .debug_str:0000000000000b20 .LASF166
     /tmp/ccE7kwvL.s:4958   .debug_str:00000000000010f9 .LASF167
     /tmp/ccE7kwvL.s:4738   .debug_str:0000000000000932 .LASF168
     /tmp/ccE7kwvL.s:4902   .debug_str:0000000000000f17 .LASF169
     /tmp/ccE7kwvL.s:4774   .debug_str:0000000000000a9d .LASF170
     /tmp/ccE7kwvL.s:4730   .debug_str:00000000000008d7 .LASF171
     /tmp/ccE7kwvL.s:4668   .debug_str:00000000000006b0 .LASF172
GAS LISTING /tmp/ccE7kwvL.s 			page 36


     /tmp/ccE7kwvL.s:4502   .debug_str:000000000000014e .LASF173
     /tmp/ccE7kwvL.s:4874   .debug_str:0000000000000e47 .LASF174
     /tmp/ccE7kwvL.s:4724   .debug_str:000000000000089a .LASF175
     /tmp/ccE7kwvL.s:4736   .debug_str:000000000000091e .LASF176
     /tmp/ccE7kwvL.s:4712   .debug_str:000000000000083c .LASF177
     /tmp/ccE7kwvL.s:4776   .debug_str:0000000000000ab0 .LASF178
     /tmp/ccE7kwvL.s:4960   .debug_str:0000000000001102 .LASF179
     /tmp/ccE7kwvL.s:4648   .debug_str:00000000000005f4 .LASF180
     /tmp/ccE7kwvL.s:4628   .debug_str:000000000000055c .LASF181
     /tmp/ccE7kwvL.s:4850   .debug_str:0000000000000d15 .LASF182
     /tmp/ccE7kwvL.s:4812   .debug_str:0000000000000bd3 .LASF183
     /tmp/ccE7kwvL.s:4814   .debug_str:0000000000000be6 .LASF184
     /tmp/ccE7kwvL.s:4582   .debug_str:00000000000003bb .LASF185
     /tmp/ccE7kwvL.s:4810   .debug_str:0000000000000bcd .LASF186
     /tmp/ccE7kwvL.s:4494   .debug_str:00000000000000ea .LASF187
     /tmp/ccE7kwvL.s:4646   .debug_str:00000000000005ee .LASF188
     /tmp/ccE7kwvL.s:4566   .debug_str:0000000000000343 .LASF189
     /tmp/ccE7kwvL.s:4522   .debug_str:00000000000001ef .LASF190
     /tmp/ccE7kwvL.s:4890   .debug_str:0000000000000ebe .LASF191
     /tmp/ccE7kwvL.s:4488   .debug_str:00000000000000bc .LASF192
     /tmp/ccE7kwvL.s:4802   .debug_str:0000000000000b92 .LASF193
     /tmp/ccE7kwvL.s:4796   .debug_str:0000000000000b72 .LASF194
     /tmp/ccE7kwvL.s:4952   .debug_str:00000000000010c5 .LASF195
     /tmp/ccE7kwvL.s:4800   .debug_str:0000000000000b8b .LASF196
     /tmp/ccE7kwvL.s:4530   .debug_str:000000000000024e .LASF197
     /tmp/ccE7kwvL.s:4836   .debug_str:0000000000000c87 .LASF198
     /tmp/ccE7kwvL.s:4568   .debug_str:0000000000000355 .LASF199
     /tmp/ccE7kwvL.s:4918   .debug_str:0000000000000fa0 .LASF200
     /tmp/ccE7kwvL.s:4932   .debug_str:0000000000001020 .LASF201
     /tmp/ccE7kwvL.s:4910   .debug_str:0000000000000f76 .LASF202
     /tmp/ccE7kwvL.s:4662   .debug_str:0000000000000665 .LASF203
     /tmp/ccE7kwvL.s:4562   .debug_str:000000000000032d .LASF204
     /tmp/ccE7kwvL.s:4622   .debug_str:0000000000000539 .LASF205
     /tmp/ccE7kwvL.s:4630   .debug_str:0000000000000569 .LASF206
     /tmp/ccE7kwvL.s:4912   .debug_str:0000000000000f80 .LASF207
     /tmp/ccE7kwvL.s:4626   .debug_str:0000000000000551 .LASF208
     /tmp/ccE7kwvL.s:4636   .debug_str:0000000000000583 .LASF209
     /tmp/ccE7kwvL.s:4888   .debug_str:0000000000000eaf .LASF210
     /tmp/ccE7kwvL.s:4498   .debug_str:000000000000011f .LASF211
     /tmp/ccE7kwvL.s:4764   .debug_str:0000000000000a33 .LASF212
     /tmp/ccE7kwvL.s:4664   .debug_str:000000000000067b .LASF213
     /tmp/ccE7kwvL.s:4788   .debug_str:0000000000000b35 .LASF214
     /tmp/ccE7kwvL.s:4480   .debug_str:000000000000006e .LASF215
     /tmp/ccE7kwvL.s:4956   .debug_str:00000000000010ea .LASF216
     /tmp/ccE7kwvL.s:4682   .debug_str:0000000000000717 .LASF217
     /tmp/ccE7kwvL.s:4512   .debug_str:00000000000001ae .LASF218
     /tmp/ccE7kwvL.s:4716   .debug_str:0000000000000859 .LASF219
     /tmp/ccE7kwvL.s:4618   .debug_str:00000000000004f7 .LASF220
     /tmp/ccE7kwvL.s:4656   .debug_str:0000000000000633 .LASF221
     /tmp/ccE7kwvL.s:4526   .debug_str:0000000000000229 .LASF222
     /tmp/ccE7kwvL.s:4866   .debug_str:0000000000000d61 .LASF223
     /tmp/ccE7kwvL.s:4794   .debug_str:0000000000000b61 .LASF224
     /tmp/ccE7kwvL.s:4690   .debug_str:000000000000077c .LASF225
     /tmp/ccE7kwvL.s:4778   .debug_str:0000000000000ac4 .LASF226
     /tmp/ccE7kwvL.s:4714   .debug_str:0000000000000844 .LASF227
     /tmp/ccE7kwvL.s:4542   .debug_str:0000000000000298 .LASF228
     /tmp/ccE7kwvL.s:956    .text:0000000000000560 .LFB44
GAS LISTING /tmp/ccE7kwvL.s 			page 37


     /tmp/ccE7kwvL.s:1025   .text:00000000000005bc .LFE44
     /tmp/ccE7kwvL.s:4172   .debug_loc:0000000000000000 .LLST27
     /tmp/ccE7kwvL.s:984    .text:0000000000000588 .LVL78
     /tmp/ccE7kwvL.s:987    .text:0000000000000594 .LVL79
     /tmp/ccE7kwvL.s:999    .text:00000000000005a0 .LVL80
     /tmp/ccE7kwvL.s:845    .text:00000000000004cc .LFB43
     /tmp/ccE7kwvL.s:950    .text:0000000000000560 .LFE43
     /tmp/ccE7kwvL.s:4670   .debug_str:00000000000006c3 .LASF229
     /tmp/ccE7kwvL.s:4183   .debug_loc:0000000000000036 .LLST23
     /tmp/ccE7kwvL.s:4194   .debug_loc:000000000000006c .LLST24
     /tmp/ccE7kwvL.s:4504   .debug_str:0000000000000156 .LASF230
     /tmp/ccE7kwvL.s:4205   .debug_loc:00000000000000a2 .LLST25
     /tmp/ccE7kwvL.s:4938   .debug_str:0000000000001050 .LASF231
     /tmp/ccE7kwvL.s:4216   .debug_loc:00000000000000d8 .LLST26
     /tmp/ccE7kwvL.s:891    .text:0000000000000504 .LVL69
     /tmp/ccE7kwvL.s:898    .text:0000000000000524 .LVL70
     /tmp/ccE7kwvL.s:915    .text:0000000000000538 .LVL71
     /tmp/ccE7kwvL.s:779    .text:0000000000000488 .LFB42
     /tmp/ccE7kwvL.s:839    .text:00000000000004cc .LFE42
     /tmp/ccE7kwvL.s:4227   .debug_loc:000000000000010e .LLST22
     /tmp/ccE7kwvL.s:804    .text:00000000000004a8 .LVL63
     /tmp/ccE7kwvL.s:816    .text:00000000000004b4 .LVL64
     /tmp/ccE7kwvL.s:663    .text:00000000000003e8 .LFB41
     /tmp/ccE7kwvL.s:773    .text:0000000000000488 .LFE41
     /tmp/ccE7kwvL.s:4238   .debug_loc:0000000000000144 .LLST18
     /tmp/ccE7kwvL.s:4249   .debug_loc:000000000000017a .LLST19
     /tmp/ccE7kwvL.s:4260   .debug_loc:00000000000001b0 .LLST20
     /tmp/ccE7kwvL.s:4271   .debug_loc:00000000000001e6 .LLST21
     /tmp/ccE7kwvL.s:709    .text:0000000000000420 .LVL53
     /tmp/ccE7kwvL.s:716    .text:0000000000000440 .LVL54
     /tmp/ccE7kwvL.s:726    .text:0000000000000454 .LVL55
     /tmp/ccE7kwvL.s:738    .text:0000000000000460 .LVL56
     /tmp/ccE7kwvL.s:589    .text:0000000000000384 .LFB40
     /tmp/ccE7kwvL.s:657    .text:00000000000003e8 .LFE40
     /tmp/ccE7kwvL.s:4762   .debug_str:0000000000000a2e .LASF232
     /tmp/ccE7kwvL.s:4282   .debug_loc:000000000000021c .LLST15
     /tmp/ccE7kwvL.s:620    .text:00000000000003b8 .LBB22
     /tmp/ccE7kwvL.s:627    .text:00000000000003bc .LBE22
     /tmp/ccE7kwvL.s:4289   .debug_loc:000000000000023f .LLST16
     /tmp/ccE7kwvL.s:4296   .debug_loc:0000000000000262 .LLST17
     /tmp/ccE7kwvL.s:631    .text:00000000000003c4 .LVL47
     /tmp/ccE7kwvL.s:635    .text:00000000000003cc .LVL48
     /tmp/ccE7kwvL.s:646    .text:00000000000003d8 .LVL49
     /tmp/ccE7kwvL.s:555    .text:0000000000000354 .LFB39
     /tmp/ccE7kwvL.s:583    .text:0000000000000384 .LFE39
     /tmp/ccE7kwvL.s:572    .text:0000000000000374 .LVL43
     /tmp/ccE7kwvL.s:496    .text:0000000000000308 .LFB38
     /tmp/ccE7kwvL.s:549    .text:0000000000000354 .LFE38
     /tmp/ccE7kwvL.s:515    .text:0000000000000328 .LBB20
     /tmp/ccE7kwvL.s:523    .text:0000000000000330 .LBE20
     /tmp/ccE7kwvL.s:4303   .debug_loc:0000000000000285 .LLST13
     /tmp/ccE7kwvL.s:4311   .debug_loc:00000000000002a9 .LLST14
     /tmp/ccE7kwvL.s:527    .text:0000000000000338 .LVL41
     /tmp/ccE7kwvL.s:538    .text:0000000000000344 .LVL42
     /tmp/ccE7kwvL.s:465    .text:00000000000002e4 .LFB37
     /tmp/ccE7kwvL.s:490    .text:0000000000000308 .LFE37
     /tmp/ccE7kwvL.s:4560   .debug_str:0000000000000328 .LASF234
GAS LISTING /tmp/ccE7kwvL.s 			page 38


     /tmp/ccE7kwvL.s:4318   .debug_loc:00000000000002cc .LLST12
     /tmp/ccE7kwvL.s:339    .text:00000000000001c4 .LFB36
     /tmp/ccE7kwvL.s:459    .text:00000000000002e4 .LFE36
     /tmp/ccE7kwvL.s:4784   .debug_str:0000000000000b15 .LASF233
     /tmp/ccE7kwvL.s:4332   .debug_loc:0000000000000305 .LLST9
     /tmp/ccE7kwvL.s:380    .text:0000000000000220 .LBB18
     /tmp/ccE7kwvL.s:388    .text:0000000000000228 .LBE18
     /tmp/ccE7kwvL.s:4339   .debug_loc:0000000000000328 .LLST10
     /tmp/ccE7kwvL.s:4347   .debug_loc:000000000000034c .LLST11
     /tmp/ccE7kwvL.s:362    .text:00000000000001f0 .LVL24
     /tmp/ccE7kwvL.s:369    .text:000000000000020c .LVL25
     /tmp/ccE7kwvL.s:393    .text:0000000000000234 .LVL28
     /tmp/ccE7kwvL.s:398    .text:0000000000000244 .LVL29
     /tmp/ccE7kwvL.s:406    .text:0000000000000264 .LVL31
     /tmp/ccE7kwvL.s:416    .text:0000000000000278 .LVL32
     /tmp/ccE7kwvL.s:421    .text:0000000000000284 .LVL33
     /tmp/ccE7kwvL.s:426    .text:0000000000000294 .LVL34
     /tmp/ccE7kwvL.s:433    .text:00000000000002b4 .LVL35
     /tmp/ccE7kwvL.s:440    .text:00000000000002c4 .LVL36
     /tmp/ccE7kwvL.s:4484   .debug_str:00000000000000ab .LASF235
     /tmp/ccE7kwvL.s:4558   .debug_str:000000000000031c .LASF237
     /tmp/ccE7kwvL.s:291    .text:0000000000000198 .LFB34
     /tmp/ccE7kwvL.s:323    .text:00000000000001c4 .LFE34
     /tmp/ccE7kwvL.s:4354   .debug_loc:000000000000036f .LLST8
     /tmp/ccE7kwvL.s:311    .text:00000000000001b4 .LVL23
     /tmp/ccE7kwvL.s:259    .text:0000000000000170 .LFB32
     /tmp/ccE7kwvL.s:285    .text:0000000000000198 .LFE32
     /tmp/ccE7kwvL.s:4368   .debug_loc:00000000000003a8 .LLST7
     /tmp/ccE7kwvL.s:274    .text:0000000000000188 .LVL20
     /tmp/ccE7kwvL.s:227    .text:0000000000000148 .LFB31
     /tmp/ccE7kwvL.s:253    .text:0000000000000170 .LFE31
     /tmp/ccE7kwvL.s:4382   .debug_loc:00000000000003e1 .LLST6
     /tmp/ccE7kwvL.s:242    .text:0000000000000160 .LVL18
     /tmp/ccE7kwvL.s:133    .text:00000000000000bc .LFB30
     /tmp/ccE7kwvL.s:221    .text:0000000000000148 .LFE30
     /tmp/ccE7kwvL.s:4396   .debug_loc:000000000000041a .LLST2
     /tmp/ccE7kwvL.s:153    .text:00000000000000dc .LBB13
     /tmp/ccE7kwvL.s:161    .text:00000000000000e0 .LBE13
     /tmp/ccE7kwvL.s:4407   .debug_loc:0000000000000450 .LLST3
     /tmp/ccE7kwvL.s:175    .text:00000000000000fc .LBB15
     /tmp/ccE7kwvL.s:183    .text:0000000000000104 .LBE15
     /tmp/ccE7kwvL.s:4414   .debug_loc:0000000000000473 .LLST4
     /tmp/ccE7kwvL.s:4422   .debug_loc:0000000000000497 .LLST5
     /tmp/ccE7kwvL.s:169    .text:00000000000000f0 .LVL9
     /tmp/ccE7kwvL.s:187    .text:000000000000010c .LVL12
     /tmp/ccE7kwvL.s:195    .text:0000000000000120 .LVL13
     /tmp/ccE7kwvL.s:218    .text:0000000000000144 .LVL16
     /tmp/ccE7kwvL.s:10     .text:0000000000000000 .LFB29
     /tmp/ccE7kwvL.s:48     .text:0000000000000044 .LFE29
     /tmp/ccE7kwvL.s:25     .text:0000000000000018 .LVL0
     /tmp/ccE7kwvL.s:37     .text:0000000000000034 .LVL2
     /tmp/ccE7kwvL.s:101    .text:0000000000000094 .LFB28
     /tmp/ccE7kwvL.s:127    .text:00000000000000bc .LFE28
     /tmp/ccE7kwvL.s:4429   .debug_loc:00000000000004ba .LLST1
     /tmp/ccE7kwvL.s:116    .text:00000000000000ac .LVL6
     /tmp/ccE7kwvL.s:4698   .debug_str:00000000000007b3 .LASF236
     /tmp/ccE7kwvL.s:4742   .debug_str:0000000000000971 .LASF238
GAS LISTING /tmp/ccE7kwvL.s 			page 39


     /tmp/ccE7kwvL.s:54     .text:0000000000000044 .LFB26
     /tmp/ccE7kwvL.s:93     .text:0000000000000094 .LFE26
     /tmp/ccE7kwvL.s:4443   .debug_loc:00000000000004f3 .LLST0
     /tmp/ccE7kwvL.s:4766   .debug_str:0000000000000a48 .LASF246
     /tmp/ccE7kwvL.s:4654   .debug_str:0000000000000627 .LASF247
     /tmp/ccE7kwvL.s:976    .text:0000000000000578 .LVL77
     /tmp/ccE7kwvL.s:1009   .text:00000000000005ac .LVL81
     /tmp/ccE7kwvL.s:1013   .text:00000000000005b4 .LVL82
     /tmp/ccE7kwvL.s:879    .text:00000000000004f4 .LVL67
     /tmp/ccE7kwvL.s:931    .text:000000000000054c .LVL74
     /tmp/ccE7kwvL.s:938    .text:0000000000000558 .LVL76
     /tmp/ccE7kwvL.s:885    .text:00000000000004f8 .LVL68
     /tmp/ccE7kwvL.s:934    .text:0000000000000550 .LVL75
     /tmp/ccE7kwvL.s:873    .text:00000000000004f0 .LVL66
     /tmp/ccE7kwvL.s:928    .text:0000000000000548 .LVL73
     /tmp/ccE7kwvL.s:925    .text:0000000000000544 .LVL72
     /tmp/ccE7kwvL.s:797    .text:000000000000049c .LVL62
     /tmp/ccE7kwvL.s:827    .text:00000000000004c4 .LVL65
     /tmp/ccE7kwvL.s:697    .text:0000000000000410 .LVL51
     /tmp/ccE7kwvL.s:754    .text:0000000000000474 .LVL59
     /tmp/ccE7kwvL.s:761    .text:0000000000000480 .LVL61
     /tmp/ccE7kwvL.s:703    .text:0000000000000414 .LVL52
     /tmp/ccE7kwvL.s:757    .text:0000000000000478 .LVL60
     /tmp/ccE7kwvL.s:691    .text:000000000000040c .LVL50
     /tmp/ccE7kwvL.s:751    .text:0000000000000470 .LVL58
     /tmp/ccE7kwvL.s:748    .text:000000000000046c .LVL57
     /tmp/ccE7kwvL.s:607    .text:0000000000000398 .LVL44
     /tmp/ccE7kwvL.s:619    .text:00000000000003b8 .LVL45
     /tmp/ccE7kwvL.s:625    .text:00000000000003bc .LVL46
     /tmp/ccE7kwvL.s:514    .text:0000000000000328 .LVL39
     /tmp/ccE7kwvL.s:521    .text:0000000000000330 .LVL40
     /tmp/ccE7kwvL.s:468    .text:00000000000002e4 .LVL37
     /tmp/ccE7kwvL.s:478    .text:00000000000002f4 .LVL38
     /tmp/ccE7kwvL.s:400    .text:0000000000000248 .LVL30
     /tmp/ccE7kwvL.s:379    .text:0000000000000220 .LVL26
     /tmp/ccE7kwvL.s:386    .text:0000000000000228 .LVL27
     /tmp/ccE7kwvL.s:296    .text:0000000000000198 .LVL21
     /tmp/ccE7kwvL.s:309    .text:00000000000001ac .LVL22
     /tmp/ccE7kwvL.s:262    .text:0000000000000170 .LVL19
     /tmp/ccE7kwvL.s:230    .text:0000000000000148 .LVL17
     /tmp/ccE7kwvL.s:151    .text:00000000000000dc .LVL7
     /tmp/ccE7kwvL.s:205    .text:000000000000012c .LVL14
     /tmp/ccE7kwvL.s:211    .text:0000000000000138 .LVL15
     /tmp/ccE7kwvL.s:159    .text:00000000000000e0 .LVL8
     /tmp/ccE7kwvL.s:174    .text:00000000000000fc .LVL10
     /tmp/ccE7kwvL.s:181    .text:0000000000000104 .LVL11
     /tmp/ccE7kwvL.s:104    .text:0000000000000094 .LVL5
     /tmp/ccE7kwvL.s:57     .text:0000000000000044 .LVL3
     /tmp/ccE7kwvL.s:75     .text:0000000000000070 .LVL4
     /tmp/ccE7kwvL.s:1064   .debug_info:0000000000000000 .Ldebug_info0
     /tmp/ccE7kwvL.s:326    .gcc_except_table:0000000000000000 .LLSDA34

UNDEFINED SYMBOLS
_ZN5Riscv10popSppSpieEv
_Z11thread_exitv
_ZN9Scheduler3putEP3PCB
_ZN9Scheduler3getEv
GAS LISTING /tmp/ccE7kwvL.s 			page 40


_ZN5Riscv14changePrivModeEv
_ZN3PCB13contextSwitchEPNS_7ContextES1_
_ZN15MemoryAllocator7kmallocEm
_ZN15MemoryAllocator5kfreeEPv
__gxx_personality_v0
_ZN8KConsole23sendCharactersToConsoleEPv
_ZN5Riscv15userMainWrapperEPv
_ZN5Riscv13w_a0_sscratchEv
_ZN5Riscv9totalTimeE
_ZN12SleepPCBList17insertSleepingPCBEv
