GAS LISTING /tmp/ccAUwFwj.s 			page 1


   1              		.file	"PCB.cpp"
   2              		.option pic
   3              		.option norelax
   4              		.text
   5              	.Ltext0:
   6              		.align	2
   7              		.globl	_ZN3PCB6runnerEv
   9              	_ZN3PCB6runnerEv:
  10              	.LFB29:
  11              		.file 1 "src/PCB.cpp"
   1:src/PCB.cpp   **** //
   2:src/PCB.cpp   **** // Created by os on 4/27/22.
   3:src/PCB.cpp   **** //
   4:src/PCB.cpp   **** 
   5:src/PCB.cpp   **** #include "../h/PCB.hpp"
   6:src/PCB.cpp   **** #include "../h/syscall_c.hpp"
   7:src/PCB.cpp   **** #include "../h/SleepPCBList.hpp"
   8:src/PCB.cpp   **** #include "../test/printing.hpp"
   9:src/PCB.cpp   **** #include "../h/KConsole.hpp"
  10:src/PCB.cpp   **** #include "../h/Scheduler.hpp"
  11:src/PCB.cpp   **** #include "../h/Riscv.hpp"
  12:src/PCB.cpp   **** 
  13:src/PCB.cpp   **** PCB* PCB::running = 0;
  14:src/PCB.cpp   **** uint64 PCB::timeSliceCounter = 0;
  15:src/PCB.cpp   **** uint64 PCB::savedRegA4 = 0;
  16:src/PCB.cpp   **** PCB* PCB::consolePCB = 0;
  17:src/PCB.cpp   **** PCB* PCB::userPCB = 0;
  18:src/PCB.cpp   **** 
  19:src/PCB.cpp   **** PCB::PCB(Body body, void *args, void* stack_space, uint64 timeSlice) :
  20:src/PCB.cpp   ****     timeSlice(timeSlice),
  21:src/PCB.cpp   ****     body(body),
  22:src/PCB.cpp   ****     args(args),
  23:src/PCB.cpp   ****     beginSP(stack_space),
  24:src/PCB.cpp   ****     context({
  25:src/PCB.cpp   ****         (uint64)((char*)stack_space + DEFAULT_STACK_SIZE),
  26:src/PCB.cpp   ****         (uint64)&PCB::runner
  27:src/PCB.cpp   ****     })
  28:src/PCB.cpp   **** {
  29:src/PCB.cpp   ****     nextPCB = 0;
  30:src/PCB.cpp   **** }
  31:src/PCB.cpp   **** 
  32:src/PCB.cpp   **** void PCB::start()
  33:src/PCB.cpp   **** {
  34:src/PCB.cpp   ****     Scheduler::put(this);
  35:src/PCB.cpp   **** }
  36:src/PCB.cpp   **** 
  37:src/PCB.cpp   **** void PCB::runner()
  38:src/PCB.cpp   **** {
  12              		.loc 1 38 1
  13              		.cfi_startproc
  14 0000 130101FF 		addi	sp,sp,-16
  15              		.cfi_def_cfa_offset 16
  16 0004 23341100 		sd	ra,8(sp)
  17 0008 23308100 		sd	s0,0(sp)
  18              		.cfi_offset 1, -8
  19              		.cfi_offset 8, -16
  20 000c 13040101 		addi	s0,sp,16
GAS LISTING /tmp/ccAUwFwj.s 			page 2


  21              		.cfi_def_cfa 8, 0
  39:src/PCB.cpp   ****     Riscv::popSppSpie();
  22              		.loc 1 39 5
  23              		.loc 1 39 22 is_stmt 0
  24 0010 97000000 		call	_ZN5Riscv10popSppSpieEv@plt
  24      E7800000 
  25              	.LVL0:
  40:src/PCB.cpp   ****     running->body(running->args);
  26              		.loc 1 40 5 is_stmt 1
  27              		.loc 1 40 14 is_stmt 0
  28 0018 97070000 		ld	a5,.LANCHOR0
  28      83B70700 
  29 0020 03B78702 		ld	a4,40(a5)
  30              		.loc 1 40 18
  31 0024 03B50703 		ld	a0,48(a5)
  32 0028 E7000700 		jalr	a4
  33              	.LVL1:
  41:src/PCB.cpp   **** 
  42:src/PCB.cpp   ****     thread_exit();
  34              		.loc 1 42 5 is_stmt 1
  35              		.loc 1 42 16 is_stmt 0
  36 002c 97000000 		call	_Z11thread_exitv@plt
  36      E7800000 
  37              	.LVL2:
  43:src/PCB.cpp   **** }
  38              		.loc 1 43 1
  39 0034 83308100 		ld	ra,8(sp)
  40              		.cfi_restore 1
  41 0038 03340100 		ld	s0,0(sp)
  42              		.cfi_restore 8
  43              		.cfi_def_cfa 2, 16
  44 003c 13010101 		addi	sp,sp,16
  45              		.cfi_def_cfa_offset 0
  46 0040 67800000 		jr	ra
  47              		.cfi_endproc
  48              	.LFE29:
  50              		.align	2
  51              		.globl	_ZN3PCBC2EPFvPvES0_S0_m
  53              	_ZN3PCBC2EPFvPvES0_S0_m:
  54              	.LFB26:
  19:src/PCB.cpp   ****     timeSlice(timeSlice),
  55              		.loc 1 19 1 is_stmt 1
  56              		.cfi_startproc
  57              	.LVL3:
  58 0044 130101FF 		addi	sp,sp,-16
  59              		.cfi_def_cfa_offset 16
  60 0048 23348100 		sd	s0,8(sp)
  61              		.cfi_offset 8, -8
  62 004c 13040101 		addi	s0,sp,16
  63              		.cfi_def_cfa 8, 0
  64              	.LBB12:
  27:src/PCB.cpp   **** {
  65              		.loc 1 27 6 is_stmt 0
  66 0050 23000500 		sb	zero,0(a0)
  67 0054 233CE500 		sd	a4,24(a0)
  68 0058 23300502 		sd	zero,32(a0)
  69 005c 2334B502 		sd	a1,40(a0)
GAS LISTING /tmp/ccAUwFwj.s 			page 3


  70 0060 2338C502 		sd	a2,48(a0)
  71 0064 233CD502 		sd	a3,56(a0)
  25:src/PCB.cpp   ****         (uint64)&PCB::runner
  72              		.loc 1 25 37
  73 0068 B7170000 		li	a5,4096
  74 006c B386F600 		add	a3,a3,a5
  75              	.LVL4:
  27:src/PCB.cpp   **** {
  76              		.loc 1 27 6
  77 0070 2334D504 		sd	a3,72(a0)
  78 0074 97070000 		lla	a5,_ZN3PCB6runnerEv
  78      93870700 
  79 007c 2338F504 		sd	a5,80(a0)
  80 0080 230C0504 		sb	zero,88(a0)
  29:src/PCB.cpp   **** }
  81              		.loc 1 29 5 is_stmt 1
  29:src/PCB.cpp   **** }
  82              		.loc 1 29 13 is_stmt 0
  83 0084 23340500 		sd	zero,8(a0)
  84              	.LBE12:
  30:src/PCB.cpp   **** 
  85              		.loc 1 30 1
  86 0088 03348100 		ld	s0,8(sp)
  87              		.cfi_restore 8
  88              		.cfi_def_cfa 2, 16
  89 008c 13010101 		addi	sp,sp,16
  90              		.cfi_def_cfa_offset 0
  91 0090 67800000 		jr	ra
  92              		.cfi_endproc
  93              	.LFE26:
  95              		.globl	_ZN3PCBC1EPFvPvES0_S0_m
  96              		.set	_ZN3PCBC1EPFvPvES0_S0_m,_ZN3PCBC2EPFvPvES0_S0_m
  97              		.align	2
  98              		.globl	_ZN3PCB5startEv
 100              	_ZN3PCB5startEv:
 101              	.LFB28:
  33:src/PCB.cpp   ****     Scheduler::put(this);
 102              		.loc 1 33 1 is_stmt 1
 103              		.cfi_startproc
 104              	.LVL5:
 105 0094 130101FF 		addi	sp,sp,-16
 106              		.cfi_def_cfa_offset 16
 107 0098 23341100 		sd	ra,8(sp)
 108 009c 23308100 		sd	s0,0(sp)
 109              		.cfi_offset 1, -8
 110              		.cfi_offset 8, -16
 111 00a0 13040101 		addi	s0,sp,16
 112              		.cfi_def_cfa 8, 0
  34:src/PCB.cpp   **** }
 113              		.loc 1 34 5
  34:src/PCB.cpp   **** }
 114              		.loc 1 34 19 is_stmt 0
 115 00a4 97000000 		call	_ZN9Scheduler3putEP3PCB@plt
 115      E7800000 
 116              	.LVL6:
  35:src/PCB.cpp   **** 
 117              		.loc 1 35 1
GAS LISTING /tmp/ccAUwFwj.s 			page 4


 118 00ac 83308100 		ld	ra,8(sp)
 119              		.cfi_restore 1
 120 00b0 03340100 		ld	s0,0(sp)
 121              		.cfi_restore 8
 122              		.cfi_def_cfa 2, 16
 123 00b4 13010101 		addi	sp,sp,16
 124              		.cfi_def_cfa_offset 0
 125 00b8 67800000 		jr	ra
 126              		.cfi_endproc
 127              	.LFE28:
 129              		.align	2
 130              		.globl	_ZN3PCB8dispatchEv
 132              	_ZN3PCB8dispatchEv:
 133              	.LFB30:
  44:src/PCB.cpp   **** 
  45:src/PCB.cpp   **** void PCB::dispatch()
  46:src/PCB.cpp   **** {
 134              		.loc 1 46 1 is_stmt 1
 135              		.cfi_startproc
 136 00bc 130101FE 		addi	sp,sp,-32
 137              		.cfi_def_cfa_offset 32
 138 00c0 233C1100 		sd	ra,24(sp)
 139 00c4 23388100 		sd	s0,16(sp)
 140 00c8 23349100 		sd	s1,8(sp)
 141 00cc 23302101 		sd	s2,0(sp)
 142              		.cfi_offset 1, -8
 143              		.cfi_offset 8, -16
 144              		.cfi_offset 9, -24
 145              		.cfi_offset 18, -32
 146 00d0 13040102 		addi	s0,sp,32
 147              		.cfi_def_cfa 8, 0
  47:src/PCB.cpp   ****     PCB* old = running;
 148              		.loc 1 47 5
 149              		.loc 1 47 10 is_stmt 0
 150 00d4 97040000 		ld	s1,.LANCHOR0
 150      83B40400 
 151              	.LVL7:
  48:src/PCB.cpp   ****     if(old->getState() == PCB::RUNNING)
 152              		.loc 1 48 5 is_stmt 1
 153              	.LBB13:
 154              	.LBB14:
 155              		.file 2 "src/../h/PCB.hpp"
   1:src/../h/PCB.hpp **** //
   2:src/../h/PCB.hpp **** // Created by os on 4/27/22.
   3:src/../h/PCB.hpp **** //
   4:src/../h/PCB.hpp **** 
   5:src/../h/PCB.hpp **** #ifndef PROJECT_BASE_V1_0_PCB_HPP
   6:src/../h/PCB.hpp **** #define PROJECT_BASE_V1_0_PCB_HPP
   7:src/../h/PCB.hpp **** 
   8:src/../h/PCB.hpp **** #include "../lib/hw.h"
   9:src/../h/PCB.hpp **** 
  10:src/../h/PCB.hpp **** class PCB
  11:src/../h/PCB.hpp **** {
  12:src/../h/PCB.hpp **** private:
  13:src/../h/PCB.hpp ****     static uint64 savedRegA4;
  14:src/../h/PCB.hpp **** 
  15:src/../h/PCB.hpp ****     using Body = void (*)(void*);
GAS LISTING /tmp/ccAUwFwj.s 			page 5


  16:src/../h/PCB.hpp **** 
  17:src/../h/PCB.hpp ****     PCB(Body body,  void* args, void* stack_space, uint64 timeSlice);
  18:src/../h/PCB.hpp ****     ~PCB();
  19:src/../h/PCB.hpp **** 
  20:src/../h/PCB.hpp ****     void start();
  21:src/../h/PCB.hpp ****     static void dispatch();
  22:src/../h/PCB.hpp **** 
  23:src/../h/PCB.hpp ****     static PCB* running;
  24:src/../h/PCB.hpp **** 
  25:src/../h/PCB.hpp ****     static uint64 timeSliceCounter;
  26:src/../h/PCB.hpp ****     uint64 getTimeSlice() { return timeSlice;}
  27:src/../h/PCB.hpp **** 
  28:src/../h/PCB.hpp ****     void* operator new(size_t size);
  29:src/../h/PCB.hpp ****     void operator delete(void *p);
  30:src/../h/PCB.hpp **** 
  31:src/../h/PCB.hpp ****     enum State{READY, RUNNING, SUSPENDED, FINISHED, EXITING, SLEEPING};
  32:src/../h/PCB.hpp ****     State getState() {return state;}
 156              		.loc 2 32 23
 157              		.loc 2 32 30 is_stmt 0
 158 00dc 03A70404 		lw	a4,64(s1)
 159              	.LVL8:
 160              	.LBE14:
 161              	.LBE13:
 162              		.loc 1 48 5
 163 00e0 93071000 		li	a5,1
 164 00e4 630AF704 		beq	a4,a5,.L10
 165              	.L8:
  49:src/PCB.cpp   ****         Scheduler::put(old);
  50:src/PCB.cpp   ****     PCB::running = Scheduler::get();
 166              		.loc 1 50 5 is_stmt 1
 167              		.loc 1 50 34 is_stmt 0
 168 00e8 97000000 		call	_ZN9Scheduler3getEv@plt
 168      E7800000 
 169              	.LVL9:
 170              		.loc 1 50 18
 171 00f0 17090000 		lla	s2,.LANCHOR0
 171      13090900 
 172 00f8 2330A900 		sd	a0,0(s2)
  51:src/PCB.cpp   ****     PCB::running->setState(PCB::RUNNING);
 173              		.loc 1 51 5 is_stmt 1
 174              	.LVL10:
 175              	.LBB15:
 176              	.LBB16:
  33:src/../h/PCB.hpp ****     void setState(State s) {state = s;}
 177              		.loc 2 33 29
 178              		.loc 2 33 35 is_stmt 0
 179 00fc 93071000 		li	a5,1
 180 0100 2320F504 		sw	a5,64(a0)
 181              	.LVL11:
 182              	.LBE16:
 183              	.LBE15:
  52:src/PCB.cpp   **** 
  53:src/PCB.cpp   ****     Riscv::changePrivMode();
 184              		.loc 1 53 5 is_stmt 1
 185              		.loc 1 53 26 is_stmt 0
 186 0104 97000000 		call	_ZN5Riscv14changePrivModeEv@plt
 186      E7800000 
GAS LISTING /tmp/ccAUwFwj.s 			page 6


 187              	.LVL12:
  54:src/PCB.cpp   **** 
  55:src/PCB.cpp   ****     PCB::contextSwitch(&old->context, &running->context);
 188              		.loc 1 55 5 is_stmt 1
 189              		.loc 1 55 49 is_stmt 0
 190 010c 83350900 		ld	a1,0(s2)
 191              		.loc 1 55 23
 192 0110 93858504 		addi	a1,a1,72
 193 0114 13858404 		addi	a0,s1,72
 194 0118 97000000 		call	_ZN3PCB13contextSwitchEPNS_7ContextES1_@plt
 194      E7800000 
 195              	.LVL13:
  56:src/PCB.cpp   **** }
 196              		.loc 1 56 1
 197 0120 83308101 		ld	ra,24(sp)
 198              		.cfi_remember_state
 199              		.cfi_restore 1
 200 0124 03340101 		ld	s0,16(sp)
 201              		.cfi_restore 8
 202              		.cfi_def_cfa 2, 32
 203 0128 83348100 		ld	s1,8(sp)
 204              		.cfi_restore 9
 205              	.LVL14:
 206 012c 03390100 		ld	s2,0(sp)
 207              		.cfi_restore 18
 208 0130 13010102 		addi	sp,sp,32
 209              		.cfi_def_cfa_offset 0
 210 0134 67800000 		jr	ra
 211              	.LVL15:
 212              	.L10:
 213              		.cfi_restore_state
  49:src/PCB.cpp   ****     PCB::running = Scheduler::get();
 214              		.loc 1 49 9 is_stmt 1
  49:src/PCB.cpp   ****     PCB::running = Scheduler::get();
 215              		.loc 1 49 23 is_stmt 0
 216 0138 13850400 		mv	a0,s1
 217 013c 97000000 		call	_ZN9Scheduler3putEP3PCB@plt
 217      E7800000 
 218              	.LVL16:
 219 0144 6FF05FFA 		j	.L8
 220              		.cfi_endproc
 221              	.LFE30:
 223              		.align	2
 224              		.globl	_ZN3PCBnwEm
 226              	_ZN3PCBnwEm:
 227              	.LFB31:
  57:src/PCB.cpp   **** 
  58:src/PCB.cpp   **** void *PCB::operator new(size_t size) {
 228              		.loc 1 58 38 is_stmt 1
 229              		.cfi_startproc
 230              	.LVL17:
 231 0148 130101FF 		addi	sp,sp,-16
 232              		.cfi_def_cfa_offset 16
 233 014c 23341100 		sd	ra,8(sp)
 234 0150 23308100 		sd	s0,0(sp)
 235              		.cfi_offset 1, -8
 236              		.cfi_offset 8, -16
GAS LISTING /tmp/ccAUwFwj.s 			page 7


 237 0154 13040101 		addi	s0,sp,16
 238              		.cfi_def_cfa 8, 0
  59:src/PCB.cpp   ****     return kmem_cache_alloc(Riscv::pcbCache);
 239              		.loc 1 59 5
 240              		.loc 1 59 28 is_stmt 0
 241 0158 97070000 		la	a5,_ZN5Riscv8pcbCacheE
 241      83B70700 
 242 0160 03B50700 		ld	a0,0(a5)
 243              	.LVL18:
 244 0164 97000000 		call	_Z16kmem_cache_allocP12kmem_cache_s@plt
 244      E7800000 
 245              	.LVL19:
  60:src/PCB.cpp   ****     //return MemoryAllocator::kmalloc(size);
  61:src/PCB.cpp   **** }
 246              		.loc 1 61 1
 247 016c 83308100 		ld	ra,8(sp)
 248              		.cfi_restore 1
 249 0170 03340100 		ld	s0,0(sp)
 250              		.cfi_restore 8
 251              		.cfi_def_cfa 2, 16
 252 0174 13010101 		addi	sp,sp,16
 253              		.cfi_def_cfa_offset 0
 254 0178 67800000 		jr	ra
 255              		.cfi_endproc
 256              	.LFE31:
 258              		.align	2
 259              		.globl	_ZN3PCBdlEPv
 261              	_ZN3PCBdlEPv:
 262              	.LFB32:
  62:src/PCB.cpp   **** 
  63:src/PCB.cpp   **** void PCB::operator delete(void *p) {
 263              		.loc 1 63 36 is_stmt 1
 264              		.cfi_startproc
 265              	.LVL20:
 266 017c 130101FF 		addi	sp,sp,-16
 267              		.cfi_def_cfa_offset 16
 268 0180 23341100 		sd	ra,8(sp)
 269 0184 23308100 		sd	s0,0(sp)
 270              		.cfi_offset 1, -8
 271              		.cfi_offset 8, -16
 272 0188 13040101 		addi	s0,sp,16
 273              		.cfi_def_cfa 8, 0
 274 018c 93050500 		mv	a1,a0
  64:src/PCB.cpp   ****     kmem_cache_free(Riscv::pcbCache, p);
 275              		.loc 1 64 5
 276              		.loc 1 64 20 is_stmt 0
 277 0190 97070000 		la	a5,_ZN5Riscv8pcbCacheE
 277      83B70700 
 278 0198 03B50700 		ld	a0,0(a5)
 279              	.LVL21:
 280 019c 97000000 		call	_Z15kmem_cache_freeP12kmem_cache_sPv@plt
 280      E7800000 
 281              	.LVL22:
  65:src/PCB.cpp   ****     //MemoryAllocator::kfree(p);
  66:src/PCB.cpp   **** }
 282              		.loc 1 66 1
 283 01a4 83308100 		ld	ra,8(sp)
GAS LISTING /tmp/ccAUwFwj.s 			page 8


 284              		.cfi_restore 1
 285 01a8 03340100 		ld	s0,0(sp)
 286              		.cfi_restore 8
 287              		.cfi_def_cfa 2, 16
 288 01ac 13010101 		addi	sp,sp,16
 289              		.cfi_def_cfa_offset 0
 290 01b0 67800000 		jr	ra
 291              		.cfi_endproc
 292              	.LFE32:
 294              		.align	2
 295              		.globl	_ZN3PCBD2Ev
 297              	_ZN3PCBD2Ev:
 298              	.LFB34:
  67:src/PCB.cpp   **** 
  68:src/PCB.cpp   **** PCB::~PCB()
 299              		.loc 1 68 1 is_stmt 1
 300              		.cfi_startproc
 301              		.cfi_personality 0x9b,DW.ref.__gxx_personality_v0
 302              		.cfi_lsda 0x1b,.LLSDA34
 303              	.LVL23:
 304 01b4 130101FF 		addi	sp,sp,-16
 305              		.cfi_def_cfa_offset 16
 306 01b8 23341100 		sd	ra,8(sp)
 307 01bc 23308100 		sd	s0,0(sp)
 308              		.cfi_offset 1, -8
 309              		.cfi_offset 8, -16
 310 01c0 13040101 		addi	s0,sp,16
 311              		.cfi_def_cfa 8, 0
 312              	.LBB17:
  69:src/PCB.cpp   **** {
  70:src/PCB.cpp   ****     //MemoryAllocator::kfree(beginSP);
  71:src/PCB.cpp   ****     kfree(beginSP);
 313              		.loc 1 71 5
 314              		.loc 1 71 10 is_stmt 0
 315 01c4 03358503 		ld	a0,56(a0)
 316              	.LVL24:
 317 01c8 97000000 		call	_Z5kfreePKv@plt
 317      E7800000 
 318              	.LVL25:
 319              	.LBE17:
  72:src/PCB.cpp   **** }
 320              		.loc 1 72 1
 321 01d0 83308100 		ld	ra,8(sp)
 322              		.cfi_restore 1
 323 01d4 03340100 		ld	s0,0(sp)
 324              		.cfi_restore 8
 325              		.cfi_def_cfa 2, 16
 326 01d8 13010101 		addi	sp,sp,16
 327              		.cfi_def_cfa_offset 0
 328 01dc 67800000 		jr	ra
 329              		.cfi_endproc
 330              	.LFE34:
 331              		.globl	__gxx_personality_v0
 332              		.section	.gcc_except_table,"a",@progbits
 333              	.LLSDA34:
 334 0000 FF       		.byte	0xff
 335 0001 FF       		.byte	0xff
GAS LISTING /tmp/ccAUwFwj.s 			page 9


 336 0002 03       		.byte	0x3
 337 0003 00       		.byte	0
 338              		.text
 340              		.globl	_ZN3PCBD1Ev
 341              		.set	_ZN3PCBD1Ev,_ZN3PCBD2Ev
 342              		.align	2
 343              		.globl	_ZN3PCB10initializeEv
 345              	_ZN3PCB10initializeEv:
 346              	.LFB36:
  73:src/PCB.cpp   **** 
  74:src/PCB.cpp   **** void PCB::initialize()
  75:src/PCB.cpp   **** {
 347              		.loc 1 75 1 is_stmt 1
 348              		.cfi_startproc
 349 01e0 130101FD 		addi	sp,sp,-48
 350              		.cfi_def_cfa_offset 48
 351 01e4 23341102 		sd	ra,40(sp)
 352 01e8 23308102 		sd	s0,32(sp)
 353 01ec 233C9100 		sd	s1,24(sp)
 354 01f0 23382101 		sd	s2,16(sp)
 355 01f4 23343101 		sd	s3,8(sp)
 356 01f8 23304101 		sd	s4,0(sp)
 357              		.cfi_offset 1, -8
 358              		.cfi_offset 8, -16
 359              		.cfi_offset 9, -24
 360              		.cfi_offset 18, -32
 361              		.cfi_offset 19, -40
 362              		.cfi_offset 20, -48
 363 01fc 13040103 		addi	s0,sp,48
 364              		.cfi_def_cfa 8, 0
  76:src/PCB.cpp   ****     PCB* mainSystem = new PCB(0, 0, 0, 0);
 365              		.loc 1 76 5
 366              		.loc 1 76 41 is_stmt 0
 367 0200 13050006 		li	a0,96
 368 0204 97000000 		call	_ZN3PCBnwEm
 368      E7800000 
 369              	.LVL26:
 370 020c 93040500 		mv	s1,a0
 371 0210 13070000 		li	a4,0
 372 0214 93060000 		li	a3,0
 373 0218 13060000 		li	a2,0
 374 021c 93050000 		li	a1,0
 375 0220 97000000 		call	_ZN3PCBC1EPFvPvES0_S0_m
 375      E7800000 
 376              	.LVL27:
  77:src/PCB.cpp   ****     mainSystem->systemThread = true;
 377              		.loc 1 77 5 is_stmt 1
 378              		.loc 1 77 30 is_stmt 0
 379 0228 93071000 		li	a5,1
 380 022c 2380F400 		sb	a5,0(s1)
  78:src/PCB.cpp   ****     PCB::running = mainSystem;
 381              		.loc 1 78 5 is_stmt 1
 382              		.loc 1 78 18 is_stmt 0
 383 0230 17090000 		lla	s2,.LANCHOR0
 383      13090900 
 384 0238 23309900 		sd	s1,0(s2)
  79:src/PCB.cpp   ****     PCB::running->setState(PCB::RUNNING);
GAS LISTING /tmp/ccAUwFwj.s 			page 10


 385              		.loc 1 79 5 is_stmt 1
 386              	.LVL28:
 387              	.LBB18:
 388              	.LBB19:
 389              		.loc 2 33 29
 390              		.loc 2 33 35 is_stmt 0
 391 023c 130A1000 		li	s4,1
 392 0240 23A04405 		sw	s4,64(s1)
 393              	.LVL29:
 394              	.LBE19:
 395              	.LBE18:
  80:src/PCB.cpp   ****     PCB::consolePCB = new PCB(&KConsole::sendCharactersToConsole, 0,
 396              		.loc 1 80 5 is_stmt 1
  81:src/PCB.cpp   ****                               kmalloc(DEFAULT_STACK_SIZE),
 397              		.loc 1 81 38 is_stmt 0
 398 0244 37150000 		li	a0,4096
 399 0248 97000000 		call	_Z7kmallocm@plt
 399      E7800000 
 400              	.LVL30:
 401 0250 93090500 		mv	s3,a0
  82:src/PCB.cpp   ****                               //MemoryAllocator::kmalloc(DEFAULT_STACK_SIZE),
  83:src/PCB.cpp   ****                               DEFAULT_TIME_SLICE);
 402              		.loc 1 83 49
 403 0254 13050006 		li	a0,96
 404 0258 97000000 		call	_ZN3PCBnwEm
 404      E7800000 
 405              	.LVL31:
 406 0260 93040500 		mv	s1,a0
 407              	.LVL32:
 408 0264 13072000 		li	a4,2
 409 0268 93860900 		mv	a3,s3
 410 026c 13060000 		li	a2,0
 411 0270 97050000 		la	a1,_ZN8KConsole23sendCharactersToConsoleEPv
 411      83B50500 
 412 0278 97000000 		call	_ZN3PCBC1EPFvPvES0_S0_m
 412      E7800000 
 413              	.LVL33:
  80:src/PCB.cpp   ****                               kmalloc(DEFAULT_STACK_SIZE),
 414              		.loc 1 80 21
 415 0280 23349900 		sd	s1,8(s2)
  84:src/PCB.cpp   ****     PCB::consolePCB->systemThread = true;
 416              		.loc 1 84 5 is_stmt 1
 417              		.loc 1 84 35 is_stmt 0
 418 0284 23804401 		sb	s4,0(s1)
  85:src/PCB.cpp   ****     PCB::consolePCB->start();
 419              		.loc 1 85 5 is_stmt 1
 420              		.loc 1 85 27 is_stmt 0
 421 0288 03358900 		ld	a0,8(s2)
 422 028c 97000000 		call	_ZN3PCB5startEv
 422      E7800000 
 423              	.LVL34:
  86:src/PCB.cpp   ****     PCB::userPCB = new PCB(&Riscv::userMainWrapper, 0,
 424              		.loc 1 86 5 is_stmt 1
  87:src/PCB.cpp   ****                            kmalloc(DEFAULT_STACK_SIZE),
 425              		.loc 1 87 35 is_stmt 0
 426 0294 37150000 		li	a0,4096
 427 0298 97000000 		call	_Z7kmallocm@plt
GAS LISTING /tmp/ccAUwFwj.s 			page 11


 427      E7800000 
 428              	.LVL35:
 429 02a0 93090500 		mv	s3,a0
  88:src/PCB.cpp   ****                            //MemoryAllocator::kmalloc(DEFAULT_STACK_SIZE),
  89:src/PCB.cpp   ****                            DEFAULT_TIME_SLICE);
 430              		.loc 1 89 46
 431 02a4 13050006 		li	a0,96
 432 02a8 97000000 		call	_ZN3PCBnwEm
 432      E7800000 
 433              	.LVL36:
 434 02b0 93040500 		mv	s1,a0
 435 02b4 13072000 		li	a4,2
 436 02b8 93860900 		mv	a3,s3
 437 02bc 13060000 		li	a2,0
 438 02c0 97050000 		la	a1,_ZN5Riscv15userMainWrapperEPv
 438      83B50500 
 439 02c8 97000000 		call	_ZN3PCBC1EPFvPvES0_S0_m
 439      E7800000 
 440              	.LVL37:
  86:src/PCB.cpp   ****                            kmalloc(DEFAULT_STACK_SIZE),
 441              		.loc 1 86 18
 442 02d0 23389900 		sd	s1,16(s2)
  90:src/PCB.cpp   ****     PCB::userPCB->start();
 443              		.loc 1 90 5 is_stmt 1
 444              		.loc 1 90 24 is_stmt 0
 445 02d4 13850400 		mv	a0,s1
 446 02d8 97000000 		call	_ZN3PCB5startEv
 446      E7800000 
 447              	.LVL38:
  91:src/PCB.cpp   **** }
 448              		.loc 1 91 1
 449 02e0 83308102 		ld	ra,40(sp)
 450              		.cfi_restore 1
 451 02e4 03340102 		ld	s0,32(sp)
 452              		.cfi_restore 8
 453              		.cfi_def_cfa 2, 48
 454 02e8 83348101 		ld	s1,24(sp)
 455              		.cfi_restore 9
 456 02ec 03390101 		ld	s2,16(sp)
 457              		.cfi_restore 18
 458 02f0 83398100 		ld	s3,8(sp)
 459              		.cfi_restore 19
 460 02f4 033A0100 		ld	s4,0(sp)
 461              		.cfi_restore 20
 462 02f8 13010103 		addi	sp,sp,48
 463              		.cfi_def_cfa_offset 0
 464 02fc 67800000 		jr	ra
 465              		.cfi_endproc
 466              	.LFE36:
 468              		.align	2
 469              		.globl	_ZN3PCB10isFinishedEv
 471              	_ZN3PCB10isFinishedEv:
 472              	.LFB37:
  92:src/PCB.cpp   **** 
  93:src/PCB.cpp   **** bool PCB::isFinished()
  94:src/PCB.cpp   **** {
 473              		.loc 1 94 1 is_stmt 1
GAS LISTING /tmp/ccAUwFwj.s 			page 12


 474              		.cfi_startproc
 475              	.LVL39:
 476 0300 130101FF 		addi	sp,sp,-16
 477              		.cfi_def_cfa_offset 16
 478 0304 23348100 		sd	s0,8(sp)
 479              		.cfi_offset 8, -8
 480 0308 13040101 		addi	s0,sp,16
 481              		.cfi_def_cfa 8, 0
  95:src/PCB.cpp   ****     return state == PCB::FINISHED;
 482              		.loc 1 95 5
 483              		.loc 1 95 12 is_stmt 0
 484 030c 03250504 		lw	a0,64(a0)
 485              	.LVL40:
 486              		.loc 1 95 26
 487 0310 1305D5FF 		addi	a0,a0,-3
  96:src/PCB.cpp   **** }
 488              		.loc 1 96 1
 489 0314 13351500 		seqz	a0,a0
 490 0318 03348100 		ld	s0,8(sp)
 491              		.cfi_restore 8
 492              		.cfi_def_cfa 2, 16
 493 031c 13010101 		addi	sp,sp,16
 494              		.cfi_def_cfa_offset 0
 495 0320 67800000 		jr	ra
 496              		.cfi_endproc
 497              	.LFE37:
 499              		.align	2
 500              		.globl	_ZN3PCB17threadExitHandlerEv
 502              	_ZN3PCB17threadExitHandlerEv:
 503              	.LFB38:
  97:src/PCB.cpp   **** 
  98:src/PCB.cpp   **** void PCB::threadExitHandler()
  99:src/PCB.cpp   **** {
 504              		.loc 1 99 1 is_stmt 1
 505              		.cfi_startproc
 506 0324 130101FF 		addi	sp,sp,-16
 507              		.cfi_def_cfa_offset 16
 508 0328 23341100 		sd	ra,8(sp)
 509 032c 23308100 		sd	s0,0(sp)
 510              		.cfi_offset 1, -8
 511              		.cfi_offset 8, -16
 512 0330 13040101 		addi	s0,sp,16
 513              		.cfi_def_cfa 8, 0
 100:src/PCB.cpp   ****     PCB::timeSliceCounter = 0;
 514              		.loc 1 100 5
 515              		.loc 1 100 27 is_stmt 0
 516 0334 97070000 		lla	a5,.LANCHOR0
 516      93870700 
 517 033c 23BC0700 		sd	zero,24(a5)
 101:src/PCB.cpp   ****     PCB::running->setState(PCB::FINISHED);
 518              		.loc 1 101 5 is_stmt 1
 519              		.loc 1 101 27 is_stmt 0
 520 0340 83B70700 		ld	a5,0(a5)
 521              	.LVL41:
 522              	.LBB20:
 523              	.LBB21:
 524              		.loc 2 33 29 is_stmt 1
GAS LISTING /tmp/ccAUwFwj.s 			page 13


 525              		.loc 2 33 35 is_stmt 0
 526 0344 13073000 		li	a4,3
 527 0348 23A0E704 		sw	a4,64(a5)
 528              	.LVL42:
 529              	.LBE21:
 530              	.LBE20:
 102:src/PCB.cpp   ****     PCB::dispatch();
 531              		.loc 1 102 5 is_stmt 1
 532              		.loc 1 102 18 is_stmt 0
 533 034c 97000000 		call	_ZN3PCB8dispatchEv
 533      E7800000 
 534              	.LVL43:
 103:src/PCB.cpp   ****     __asm__ volatile("li a0, 0");
 535              		.loc 1 103 5 is_stmt 1
 536              		.loc 1 103 33 is_stmt 0
 537              	#APP
 538              	# 103 "src/PCB.cpp" 1
 104              	    Riscv::w_a0_sscratch();
 539              		li a0, 0
 540              	# 0 "" 2
 541              		.loc 1 104 5 is_stmt 1
 542              		.loc 1 104 25 is_stmt 0
 543              	#NO_APP
 544 0358 97000000 		call	_ZN5Riscv13w_a0_sscratchEv@plt
 544      E7800000 
 545              	.LVL44:
 105:src/PCB.cpp   **** }
 546              		.loc 1 105 1
 547 0360 83308100 		ld	ra,8(sp)
 548              		.cfi_restore 1
 549 0364 03340100 		ld	s0,0(sp)
 550              		.cfi_restore 8
 551              		.cfi_def_cfa 2, 16
 552 0368 13010101 		addi	sp,sp,16
 553              		.cfi_def_cfa_offset 0
 554 036c 67800000 		jr	ra
 555              		.cfi_endproc
 556              	.LFE38:
 558              		.align	2
 559              		.globl	_ZN3PCB21threadDispatchHandlerEv
 561              	_ZN3PCB21threadDispatchHandlerEv:
 562              	.LFB39:
 106:src/PCB.cpp   **** 
 107:src/PCB.cpp   **** void PCB::threadDispatchHandler()
 108:src/PCB.cpp   **** {
 563              		.loc 1 108 1 is_stmt 1
 564              		.cfi_startproc
 565 0370 130101FF 		addi	sp,sp,-16
 566              		.cfi_def_cfa_offset 16
 567 0374 23341100 		sd	ra,8(sp)
 568 0378 23308100 		sd	s0,0(sp)
 569              		.cfi_offset 1, -8
 570              		.cfi_offset 8, -16
 571 037c 13040101 		addi	s0,sp,16
 572              		.cfi_def_cfa 8, 0
 109:src/PCB.cpp   ****     PCB::timeSliceCounter = 0;
 573              		.loc 1 109 5
GAS LISTING /tmp/ccAUwFwj.s 			page 14


 574              		.loc 1 109 27 is_stmt 0
 575 0380 97070000 		sd	zero,.LANCHOR0+24,a5
 575      23B00700 
 110:src/PCB.cpp   ****     PCB::dispatch();
 576              		.loc 1 110 5 is_stmt 1
 577              		.loc 1 110 18 is_stmt 0
 578 0388 97000000 		call	_ZN3PCB8dispatchEv
 578      E7800000 
 579              	.LVL45:
 111:src/PCB.cpp   **** }
 580              		.loc 1 111 1
 581 0390 83308100 		ld	ra,8(sp)
 582              		.cfi_restore 1
 583 0394 03340100 		ld	s0,0(sp)
 584              		.cfi_restore 8
 585              		.cfi_def_cfa 2, 16
 586 0398 13010101 		addi	sp,sp,16
 587              		.cfi_def_cfa_offset 0
 588 039c 67800000 		jr	ra
 589              		.cfi_endproc
 590              	.LFE39:
 592              		.align	2
 593              		.globl	_ZN3PCB18threadSleepHandlerEv
 595              	_ZN3PCB18threadSleepHandlerEv:
 596              	.LFB40:
 112:src/PCB.cpp   **** 
 113:src/PCB.cpp   **** void PCB::threadSleepHandler()
 114:src/PCB.cpp   **** {
 597              		.loc 1 114 1 is_stmt 1
 598              		.cfi_startproc
 599 03a0 130101FF 		addi	sp,sp,-16
 600              		.cfi_def_cfa_offset 16
 601 03a4 23341100 		sd	ra,8(sp)
 602 03a8 23308100 		sd	s0,0(sp)
 603              		.cfi_offset 1, -8
 604              		.cfi_offset 8, -16
 605 03ac 13040101 		addi	s0,sp,16
 606              		.cfi_def_cfa 8, 0
 115:src/PCB.cpp   ****     uint64 time;
 607              		.loc 1 115 5
 116:src/PCB.cpp   ****     __asm__ volatile("mv %0, a1" : "=r"(time));
 608              		.loc 1 116 5
 609              		.loc 1 116 47 is_stmt 0
 610              	#APP
 611              	# 116 "src/PCB.cpp" 1
 117              	    PCB::timeSliceCounter = 0;
 612              		mv a5, a1
 613              	# 0 "" 2
 614              	.LVL46:
 615              		.loc 1 117 5 is_stmt 1
 616              		.loc 1 117 27 is_stmt 0
 617              	#NO_APP
 618 03b4 17070000 		lla	a4,.LANCHOR0
 618      13070700 
 619 03bc 233C0700 		sd	zero,24(a4)
 118:src/PCB.cpp   ****     PCB::running->setTimeToSleep(time + Riscv::totalTime);
 620              		.loc 1 118 5 is_stmt 1
GAS LISTING /tmp/ccAUwFwj.s 			page 15


 621              		.loc 1 118 33 is_stmt 0
 622 03c0 03370700 		ld	a4,0(a4)
 623 03c4 97060000 		la	a3,_ZN5Riscv9totalTimeE
 623      83B60600 
 624 03cc 83B60600 		ld	a3,0(a3)
 625 03d0 B387D700 		add	a5,a5,a3
 626              	.LVL47:
 627              	.LBB22:
 628              	.LBB23:
  34:src/../h/PCB.hpp ****     void setTimeToSleep(uint64 time) {timeToSleep = time;}
 629              		.loc 2 34 39 is_stmt 1
 630              		.loc 2 34 51 is_stmt 0
 631 03d4 2330F702 		sd	a5,32(a4)
 632              	.LVL48:
 633              	.LBE23:
 634              	.LBE22:
 119:src/PCB.cpp   ****     SleepPCBList::insertSleepingPCB();
 635              		.loc 1 119 5 is_stmt 1
 636              		.loc 1 119 36 is_stmt 0
 637 03d8 97000000 		call	_ZN12SleepPCBList17insertSleepingPCBEv@plt
 637      E7800000 
 638              	.LVL49:
 120:src/PCB.cpp   ****     PCB::dispatch();
 639              		.loc 1 120 5 is_stmt 1
 640              		.loc 1 120 18 is_stmt 0
 641 03e0 97000000 		call	_ZN3PCB8dispatchEv
 641      E7800000 
 642              	.LVL50:
 121:src/PCB.cpp   ****     __asm__ volatile("li a0, 0x0");
 643              		.loc 1 121 5 is_stmt 1
 644              		.loc 1 121 35 is_stmt 0
 645              	#APP
 646              	# 121 "src/PCB.cpp" 1
 122              	    Riscv::w_a0_sscratch();
 647              		li a0, 0x0
 648              	# 0 "" 2
 649              		.loc 1 122 5 is_stmt 1
 650              		.loc 1 122 25 is_stmt 0
 651              	#NO_APP
 652 03ec 97000000 		call	_ZN5Riscv13w_a0_sscratchEv@plt
 652      E7800000 
 653              	.LVL51:
 123:src/PCB.cpp   **** }
 654              		.loc 1 123 1
 655 03f4 83308100 		ld	ra,8(sp)
 656              		.cfi_restore 1
 657 03f8 03340100 		ld	s0,0(sp)
 658              		.cfi_restore 8
 659              		.cfi_def_cfa 2, 16
 660 03fc 13010101 		addi	sp,sp,16
 661              		.cfi_def_cfa_offset 0
 662 0400 67800000 		jr	ra
 663              		.cfi_endproc
 664              	.LFE40:
 666              		.align	2
 667              		.globl	_ZN3PCB19threadCreateHandlerEv
 669              	_ZN3PCB19threadCreateHandlerEv:
GAS LISTING /tmp/ccAUwFwj.s 			page 16


 670              	.LFB41:
 124:src/PCB.cpp   **** 
 125:src/PCB.cpp   **** void PCB::threadCreateHandler()
 126:src/PCB.cpp   **** {
 671              		.loc 1 126 1 is_stmt 1
 672              		.cfi_startproc
 673 0404 130101FD 		addi	sp,sp,-48
 674              		.cfi_def_cfa_offset 48
 675 0408 23341102 		sd	ra,40(sp)
 676 040c 23308102 		sd	s0,32(sp)
 677 0410 233C9100 		sd	s1,24(sp)
 678 0414 23382101 		sd	s2,16(sp)
 679 0418 23343101 		sd	s3,8(sp)
 680 041c 23304101 		sd	s4,0(sp)
 681              		.cfi_offset 1, -8
 682              		.cfi_offset 8, -16
 683              		.cfi_offset 9, -24
 684              		.cfi_offset 18, -32
 685              		.cfi_offset 19, -40
 686              		.cfi_offset 20, -48
 687 0420 13040103 		addi	s0,sp,48
 688              		.cfi_def_cfa 8, 0
 127:src/PCB.cpp   ****     uint64 start_routine;
 689              		.loc 1 127 5
 128:src/PCB.cpp   ****     uint64 args;
 690              		.loc 1 128 5
 129:src/PCB.cpp   ****     PCB **threadHandle;
 691              		.loc 1 129 5
 130:src/PCB.cpp   ****     __asm__ volatile("mv %0, a1" : "=r"(threadHandle));
 692              		.loc 1 130 5
 693              		.loc 1 130 55 is_stmt 0
 694              	#APP
 695              	# 130 "src/PCB.cpp" 1
 131              	    __asm__ volatile("mv %0, a2" : "=r"(start_routine));
 696              		mv s2, a1
 697              	# 0 "" 2
 698              	.LVL52:
 699              		.loc 1 131 5 is_stmt 1
 700              		.loc 1 131 56 is_stmt 0
 701              	# 131 "src/PCB.cpp" 1
 132              	    __asm__ volatile("mv %0, a3" : "=r"(args));
 702              		mv s3, a2
 703              	# 0 "" 2
 704              	.LVL53:
 705              		.loc 1 132 5 is_stmt 1
 706              		.loc 1 132 47 is_stmt 0
 707              	# 132 "src/PCB.cpp" 1
 133              	
 708              		mv s4, a3
 709              	# 0 "" 2
 710              	.LVL54:
 134:src/PCB.cpp   ****     PCB *newPCB = new PCB((void (*)(void *)) start_routine, (void *) args, (void *) PCB::savedRegA4
 711              		.loc 1 134 5 is_stmt 1
 712              		.loc 1 134 120 is_stmt 0
 713              	#NO_APP
 714 0430 13050006 		li	a0,96
 715 0434 97000000 		call	_ZN3PCBnwEm
GAS LISTING /tmp/ccAUwFwj.s 			page 17


 715      E7800000 
 716              	.LVL55:
 717 043c 93040500 		mv	s1,a0
 718 0440 13072000 		li	a4,2
 719 0444 97060000 		ld	a3,.LANCHOR0+32
 719      83B60600 
 720 044c 13060A00 		mv	a2,s4
 721 0450 93850900 		mv	a1,s3
 722 0454 97000000 		call	_ZN3PCBC1EPFvPvES0_S0_m
 722      E7800000 
 723              	.LVL56:
 135:src/PCB.cpp   **** 
 136:src/PCB.cpp   ****     (*threadHandle) = newPCB;
 724              		.loc 1 136 5 is_stmt 1
 725              		.loc 1 136 21 is_stmt 0
 726 045c 23309900 		sd	s1,0(s2)
 137:src/PCB.cpp   **** 
 138:src/PCB.cpp   ****     if (newPCB == 0)
 727              		.loc 1 138 5 is_stmt 1
 728 0460 638E0402 		beqz	s1,.L31
 139:src/PCB.cpp   ****             __asm__ volatile("li a0, 0xffffffffffffffff");
 140:src/PCB.cpp   ****     else
 141:src/PCB.cpp   ****     {
 142:src/PCB.cpp   ****         newPCB->start();
 729              		.loc 1 142 9
 730              		.loc 1 142 22 is_stmt 0
 731 0464 13850400 		mv	a0,s1
 732 0468 97000000 		call	_ZN3PCB5startEv
 732      E7800000 
 733              	.LVL57:
 143:src/PCB.cpp   ****         __asm__ volatile("li a0, 0");
 734              		.loc 1 143 9 is_stmt 1
 735              		.loc 1 143 37 is_stmt 0
 736              	#APP
 737              	# 143 "src/PCB.cpp" 1
 144              	    }
 738              		li a0, 0
 739              	# 0 "" 2
 740              	#NO_APP
 741              	.L29:
 145:src/PCB.cpp   ****     Riscv::w_a0_sscratch();
 742              		.loc 1 145 5 is_stmt 1
 743              		.loc 1 145 25 is_stmt 0
 744 0474 97000000 		call	_ZN5Riscv13w_a0_sscratchEv@plt
 744      E7800000 
 745              	.LVL58:
 146:src/PCB.cpp   **** }
 746              		.loc 1 146 1
 747 047c 83308102 		ld	ra,40(sp)
 748              		.cfi_remember_state
 749              		.cfi_restore 1
 750 0480 03340102 		ld	s0,32(sp)
 751              		.cfi_restore 8
 752              		.cfi_def_cfa 2, 48
 753 0484 83348101 		ld	s1,24(sp)
 754              		.cfi_restore 9
 755              	.LVL59:
GAS LISTING /tmp/ccAUwFwj.s 			page 18


 756 0488 03390101 		ld	s2,16(sp)
 757              		.cfi_restore 18
 758              	.LVL60:
 759 048c 83398100 		ld	s3,8(sp)
 760              		.cfi_restore 19
 761              	.LVL61:
 762 0490 033A0100 		ld	s4,0(sp)
 763              		.cfi_restore 20
 764              	.LVL62:
 765 0494 13010103 		addi	sp,sp,48
 766              		.cfi_def_cfa_offset 0
 767 0498 67800000 		jr	ra
 768              	.LVL63:
 769              	.L31:
 770              		.cfi_restore_state
 139:src/PCB.cpp   ****     else
 771              		.loc 1 139 13 is_stmt 1
 139:src/PCB.cpp   ****     else
 772              		.loc 1 139 58 is_stmt 0
 773              	#APP
 774              	# 139 "src/PCB.cpp" 1
 775              		li a0, 0xffffffffffffffff
 776              	# 0 "" 2
 777              	#NO_APP
 778 04a0 6FF05FFD 		j	.L29
 779              		.cfi_endproc
 780              	.LFE41:
 782              		.align	2
 783              		.globl	_ZN3PCB18threadStartHandlerEv
 785              	_ZN3PCB18threadStartHandlerEv:
 786              	.LFB42:
 147:src/PCB.cpp   **** 
 148:src/PCB.cpp   **** void PCB::threadStartHandler()
 149:src/PCB.cpp   **** {
 787              		.loc 1 149 1 is_stmt 1
 788              		.cfi_startproc
 789 04a4 130101FF 		addi	sp,sp,-16
 790              		.cfi_def_cfa_offset 16
 791 04a8 23341100 		sd	ra,8(sp)
 792 04ac 23308100 		sd	s0,0(sp)
 793              		.cfi_offset 1, -8
 794              		.cfi_offset 8, -16
 795 04b0 13040101 		addi	s0,sp,16
 796              		.cfi_def_cfa 8, 0
 150:src/PCB.cpp   ****     PCB* pcb;
 797              		.loc 1 150 5
 151:src/PCB.cpp   ****     __asm__ volatile("mv %0, a1" : "=r"(pcb));
 798              		.loc 1 151 5
 799              		.loc 1 151 46 is_stmt 0
 800              	#APP
 801              	# 151 "src/PCB.cpp" 1
 152              	    if(pcb != 0)
 802              		mv a0, a1
 803              	# 0 "" 2
 804              	.LVL64:
 805              		.loc 1 152 5 is_stmt 1
 806              	#NO_APP
GAS LISTING /tmp/ccAUwFwj.s 			page 19


 807 04b8 63040502 		beqz	a0,.L33
 153:src/PCB.cpp   ****     {
 154:src/PCB.cpp   ****         pcb->start();
 808              		.loc 1 154 9
 809              		.loc 1 154 19 is_stmt 0
 810 04bc 97000000 		call	_ZN3PCB5startEv
 810      E7800000 
 811              	.LVL65:
 155:src/PCB.cpp   ****         __asm__ volatile("li a0, 0");
 812              		.loc 1 155 9 is_stmt 1
 813              		.loc 1 155 37 is_stmt 0
 814              	#APP
 815              	# 155 "src/PCB.cpp" 1
 156              	    }
 816              		li a0, 0
 817              	# 0 "" 2
 818              	#NO_APP
 819              	.L34:
 157:src/PCB.cpp   ****     else
 158:src/PCB.cpp   ****     {
 159:src/PCB.cpp   ****         __asm__ volatile("li a0, 0xffffffffffffffff");
 160:src/PCB.cpp   ****     }
 161:src/PCB.cpp   ****     Riscv::w_a0_sscratch();
 820              		.loc 1 161 5 is_stmt 1
 821              		.loc 1 161 25 is_stmt 0
 822 04c8 97000000 		call	_ZN5Riscv13w_a0_sscratchEv@plt
 822      E7800000 
 823              	.LVL66:
 162:src/PCB.cpp   **** }
 824              		.loc 1 162 1
 825 04d0 83308100 		ld	ra,8(sp)
 826              		.cfi_remember_state
 827              		.cfi_restore 1
 828 04d4 03340100 		ld	s0,0(sp)
 829              		.cfi_restore 8
 830              		.cfi_def_cfa 2, 16
 831 04d8 13010101 		addi	sp,sp,16
 832              		.cfi_def_cfa_offset 0
 833 04dc 67800000 		jr	ra
 834              	.LVL67:
 835              	.L33:
 836              		.cfi_restore_state
 159:src/PCB.cpp   ****     }
 837              		.loc 1 159 9 is_stmt 1
 159:src/PCB.cpp   ****     }
 838              		.loc 1 159 54 is_stmt 0
 839              	#APP
 840              	# 159 "src/PCB.cpp" 1
 841              		li a0, 0xffffffffffffffff
 842              	# 0 "" 2
 843              	#NO_APP
 844 04e4 6FF05FFE 		j	.L34
 845              		.cfi_endproc
 846              	.LFE42:
 848              		.align	2
 849              		.globl	_ZN3PCB20threadMakePCBHandlerEv
 851              	_ZN3PCB20threadMakePCBHandlerEv:
GAS LISTING /tmp/ccAUwFwj.s 			page 20


 852              	.LFB43:
 163:src/PCB.cpp   **** 
 164:src/PCB.cpp   **** void PCB::threadMakePCBHandler()
 165:src/PCB.cpp   **** {
 853              		.loc 1 165 1 is_stmt 1
 854              		.cfi_startproc
 855 04e8 130101FD 		addi	sp,sp,-48
 856              		.cfi_def_cfa_offset 48
 857 04ec 23341102 		sd	ra,40(sp)
 858 04f0 23308102 		sd	s0,32(sp)
 859 04f4 233C9100 		sd	s1,24(sp)
 860 04f8 23382101 		sd	s2,16(sp)
 861 04fc 23343101 		sd	s3,8(sp)
 862 0500 23304101 		sd	s4,0(sp)
 863              		.cfi_offset 1, -8
 864              		.cfi_offset 8, -16
 865              		.cfi_offset 9, -24
 866              		.cfi_offset 18, -32
 867              		.cfi_offset 19, -40
 868              		.cfi_offset 20, -48
 869 0504 13040103 		addi	s0,sp,48
 870              		.cfi_def_cfa 8, 0
 166:src/PCB.cpp   ****     uint64 start_routine;
 871              		.loc 1 166 5
 167:src/PCB.cpp   ****     uint64 args;
 872              		.loc 1 167 5
 168:src/PCB.cpp   ****     PCB **threadHandle;
 873              		.loc 1 168 5
 169:src/PCB.cpp   ****     __asm__ volatile("mv %0, a1" : "=r"(threadHandle));
 874              		.loc 1 169 5
 875              		.loc 1 169 55 is_stmt 0
 876              	#APP
 877              	# 169 "src/PCB.cpp" 1
 170              	    __asm__ volatile("mv %0, a2" : "=r"(start_routine));
 878              		mv s2, a1
 879              	# 0 "" 2
 880              	.LVL68:
 881              		.loc 1 170 5 is_stmt 1
 882              		.loc 1 170 56 is_stmt 0
 883              	# 170 "src/PCB.cpp" 1
 171              	    __asm__ volatile("mv %0, a3" : "=r"(args));
 884              		mv s3, a2
 885              	# 0 "" 2
 886              	.LVL69:
 887              		.loc 1 171 5 is_stmt 1
 888              		.loc 1 171 47 is_stmt 0
 889              	# 171 "src/PCB.cpp" 1
 172              	
 890              		mv s4, a3
 891              	# 0 "" 2
 892              	.LVL70:
 173:src/PCB.cpp   ****     PCB *newPCB = new PCB((void (*)(void *)) start_routine, (void *) args, (void *) PCB::savedRegA4
 893              		.loc 1 173 5 is_stmt 1
 894              		.loc 1 173 120 is_stmt 0
 895              	#NO_APP
 896 0514 13050006 		li	a0,96
 897 0518 97000000 		call	_ZN3PCBnwEm
GAS LISTING /tmp/ccAUwFwj.s 			page 21


 897      E7800000 
 898              	.LVL71:
 899 0520 93040500 		mv	s1,a0
 900 0524 13072000 		li	a4,2
 901 0528 97060000 		ld	a3,.LANCHOR0+32
 901      83B60600 
 902 0530 13060A00 		mv	a2,s4
 903 0534 93850900 		mv	a1,s3
 904 0538 97000000 		call	_ZN3PCBC1EPFvPvES0_S0_m
 904      E7800000 
 905              	.LVL72:
 174:src/PCB.cpp   **** 
 175:src/PCB.cpp   ****     (*threadHandle) = newPCB;
 906              		.loc 1 175 5 is_stmt 1
 907              		.loc 1 175 21 is_stmt 0
 908 0540 23309900 		sd	s1,0(s2)
 176:src/PCB.cpp   **** 
 177:src/PCB.cpp   ****     if (newPCB == 0)
 909              		.loc 1 177 5 is_stmt 1
 910 0544 63880402 		beqz	s1,.L40
 178:src/PCB.cpp   ****         __asm__ volatile("li a0, 0xffffffffffffffff");
 179:src/PCB.cpp   ****     else
 180:src/PCB.cpp   ****         __asm__ volatile("li a0, 0");
 911              		.loc 1 180 9
 912              		.loc 1 180 37 is_stmt 0
 913              	#APP
 914              	# 180 "src/PCB.cpp" 1
 181              	    Riscv::w_a0_sscratch();
 915              		li a0, 0
 916              	# 0 "" 2
 917              	#NO_APP
 918              	.L38:
 919              		.loc 1 181 5 is_stmt 1
 920              		.loc 1 181 25 is_stmt 0
 921 054c 97000000 		call	_ZN5Riscv13w_a0_sscratchEv@plt
 921      E7800000 
 922              	.LVL73:
 182:src/PCB.cpp   **** }
 923              		.loc 1 182 1
 924 0554 83308102 		ld	ra,40(sp)
 925              		.cfi_remember_state
 926              		.cfi_restore 1
 927 0558 03340102 		ld	s0,32(sp)
 928              		.cfi_restore 8
 929              		.cfi_def_cfa 2, 48
 930 055c 83348101 		ld	s1,24(sp)
 931              		.cfi_restore 9
 932              	.LVL74:
 933 0560 03390101 		ld	s2,16(sp)
 934              		.cfi_restore 18
 935              	.LVL75:
 936 0564 83398100 		ld	s3,8(sp)
 937              		.cfi_restore 19
 938              	.LVL76:
 939 0568 033A0100 		ld	s4,0(sp)
 940              		.cfi_restore 20
 941              	.LVL77:
GAS LISTING /tmp/ccAUwFwj.s 			page 22


 942 056c 13010103 		addi	sp,sp,48
 943              		.cfi_def_cfa_offset 0
 944 0570 67800000 		jr	ra
 945              	.LVL78:
 946              	.L40:
 947              		.cfi_restore_state
 178:src/PCB.cpp   ****         __asm__ volatile("li a0, 0xffffffffffffffff");
 948              		.loc 1 178 9 is_stmt 1
 178:src/PCB.cpp   ****         __asm__ volatile("li a0, 0xffffffffffffffff");
 949              		.loc 1 178 54 is_stmt 0
 950              	#APP
 951              	# 178 "src/PCB.cpp" 1
 952              		li a0, 0xffffffffffffffff
 953              	# 0 "" 2
 954              	#NO_APP
 955 0578 6FF05FFD 		j	.L38
 956              		.cfi_endproc
 957              	.LFE43:
 959              		.align	2
 960              		.globl	_ZN3PCB19threadDelPCBHandlerEv
 962              	_ZN3PCB19threadDelPCBHandlerEv:
 963              	.LFB44:
 183:src/PCB.cpp   **** 
 184:src/PCB.cpp   **** void PCB::threadDelPCBHandler()
 185:src/PCB.cpp   **** {
 964              		.loc 1 185 1 is_stmt 1
 965              		.cfi_startproc
 966 057c 130101FE 		addi	sp,sp,-32
 967              		.cfi_def_cfa_offset 32
 968 0580 233C1100 		sd	ra,24(sp)
 969 0584 23388100 		sd	s0,16(sp)
 970 0588 23349100 		sd	s1,8(sp)
 971              		.cfi_offset 1, -8
 972              		.cfi_offset 8, -16
 973              		.cfi_offset 9, -24
 974 058c 13040102 		addi	s0,sp,32
 975              		.cfi_def_cfa 8, 0
 186:src/PCB.cpp   ****     PCB* pcb;
 976              		.loc 1 186 5
 187:src/PCB.cpp   ****     __asm__ volatile("mv %0, a1" : "=r"(pcb));
 977              		.loc 1 187 5
 978              		.loc 1 187 46 is_stmt 0
 979              	#APP
 980              	# 187 "src/PCB.cpp" 1
 188              	    if(pcb != 0)
 981              		mv s1, a1
 982              	# 0 "" 2
 983              	.LVL79:
 984              		.loc 1 188 5 is_stmt 1
 985              	#NO_APP
 986 0594 638E0402 		beqz	s1,.L42
 189:src/PCB.cpp   ****     {
 190:src/PCB.cpp   ****         delete pcb;
 987              		.loc 1 190 9 discriminator 1
 988              		.loc 1 190 16 is_stmt 0 discriminator 1
 989 0598 13850400 		mv	a0,s1
 990 059c 97000000 		call	_ZN3PCBD1Ev
GAS LISTING /tmp/ccAUwFwj.s 			page 23


 990      E7800000 
 991              	.LVL80:
 992 05a4 13850400 		mv	a0,s1
 993 05a8 97000000 		call	_ZN3PCBdlEPv
 993      E7800000 
 994              	.LVL81:
 191:src/PCB.cpp   ****         __asm__ volatile("li a0, 0x0");
 995              		.loc 1 191 9 is_stmt 1 discriminator 1
 996              		.loc 1 191 39 is_stmt 0 discriminator 1
 997              	#APP
 998              	# 191 "src/PCB.cpp" 1
 192              	    }
 999              		li a0, 0x0
 1000              	# 0 "" 2
 1001              	#NO_APP
 1002              	.L43:
 193:src/PCB.cpp   ****     else
 194:src/PCB.cpp   ****     {
 195:src/PCB.cpp   ****         __asm__ volatile("li a0, 0x1");
 196:src/PCB.cpp   ****     }
 197:src/PCB.cpp   ****     Riscv::w_a0_sscratch();
 1003              		.loc 1 197 5 is_stmt 1
 1004              		.loc 1 197 25 is_stmt 0
 1005 05b4 97000000 		call	_ZN5Riscv13w_a0_sscratchEv@plt
 1005      E7800000 
 1006              	.LVL82:
 198:src/PCB.cpp   **** }
 1007              		.loc 1 198 1
 1008 05bc 83308101 		ld	ra,24(sp)
 1009              		.cfi_remember_state
 1010              		.cfi_restore 1
 1011 05c0 03340101 		ld	s0,16(sp)
 1012              		.cfi_restore 8
 1013              		.cfi_def_cfa 2, 32
 1014 05c4 83348100 		ld	s1,8(sp)
 1015              		.cfi_restore 9
 1016              	.LVL83:
 1017 05c8 13010102 		addi	sp,sp,32
 1018              		.cfi_def_cfa_offset 0
 1019 05cc 67800000 		jr	ra
 1020              	.LVL84:
 1021              	.L42:
 1022              		.cfi_restore_state
 195:src/PCB.cpp   ****     }
 1023              		.loc 1 195 9 is_stmt 1
 195:src/PCB.cpp   ****     }
 1024              		.loc 1 195 39 is_stmt 0
 1025              	#APP
 1026              	# 195 "src/PCB.cpp" 1
 1027              		li a0, 0x1
 1028              	# 0 "" 2
 1029              	#NO_APP
 1030 05d4 6FF01FFE 		j	.L43
 1031              		.cfi_endproc
 1032              	.LFE44:
 1034              		.globl	_ZN3PCB7userPCBE
 1035              		.globl	_ZN3PCB10consolePCBE
GAS LISTING /tmp/ccAUwFwj.s 			page 24


 1036              		.globl	_ZN3PCB10savedRegA4E
 1037              		.globl	_ZN3PCB16timeSliceCounterE
 1038              		.globl	_ZN3PCB7runningE
 1039              		.bss
 1040              		.align	3
 1041              		.set	.LANCHOR0,. + 0
 1044              	_ZN3PCB7runningE:
 1045 0000 00000000 		.zero	8
 1045      00000000 
 1048              	_ZN3PCB10consolePCBE:
 1049 0008 00000000 		.zero	8
 1049      00000000 
 1052              	_ZN3PCB7userPCBE:
 1053 0010 00000000 		.zero	8
 1053      00000000 
 1056              	_ZN3PCB16timeSliceCounterE:
 1057 0018 00000000 		.zero	8
 1057      00000000 
 1060              	_ZN3PCB10savedRegA4E:
 1061 0020 00000000 		.zero	8
 1061      00000000 
 1062              		.text
 1063              	.Letext0:
 1064              		.file 3 "src/../h/../lib/hw.h"
 1065              		.file 4 "src/../h/SleepPCBList.hpp"
 1066              		.file 5 "src/../h/Scheduler.hpp"
 1067              		.file 6 "src/../h/slabAllocator.hpp"
 1068              		.file 7 "src/../h/Riscv.hpp"
 1069              		.file 8 "src/../h/syscall_c.hpp"
 4791              		.align	3
 4794              	DW.ref.__gxx_personality_v0:
 4795 0000 00000000 		.dword	__gxx_personality_v0
 4795      00000000 
 4796              		.ident	"GCC: (Ubuntu 9.4.0-1ubuntu1~20.04) 9.4.0"
 4797              		.section	.note.GNU-stack,"",@progbits
GAS LISTING /tmp/ccAUwFwj.s 			page 25


DEFINED SYMBOLS
                            *ABS*:0000000000000000 PCB.cpp
     /tmp/ccAUwFwj.s:9      .text:0000000000000000 _ZN3PCB6runnerEv
     /tmp/ccAUwFwj.s:13     .text:0000000000000000 .L0 
     /tmp/ccAUwFwj.s:14     .text:0000000000000000 .L0 
     /tmp/ccAUwFwj.s:15     .text:0000000000000004 .L0 
     /tmp/ccAUwFwj.s:18     .text:000000000000000c .L0 
     /tmp/ccAUwFwj.s:19     .text:000000000000000c .L0 
     /tmp/ccAUwFwj.s:21     .text:0000000000000010 .L0 
     /tmp/ccAUwFwj.s:23     .text:0000000000000010 .L0 
     /tmp/ccAUwFwj.s:24     .text:0000000000000010 .L0 
     /tmp/ccAUwFwj.s:27     .text:0000000000000018 .L0 
     /tmp/ccAUwFwj.s:28     .text:0000000000000018 .L0 
     /tmp/ccAUwFwj.s:31     .text:0000000000000024 .L0 
     /tmp/ccAUwFwj.s:35     .text:000000000000002c .L0 
     /tmp/ccAUwFwj.s:36     .text:000000000000002c .L0 
     /tmp/ccAUwFwj.s:39     .text:0000000000000034 .L0 
     /tmp/ccAUwFwj.s:40     .text:0000000000000038 .L0 
     /tmp/ccAUwFwj.s:42     .text:000000000000003c .L0 
     /tmp/ccAUwFwj.s:43     .text:000000000000003c .L0 
     /tmp/ccAUwFwj.s:45     .text:0000000000000040 .L0 
     /tmp/ccAUwFwj.s:47     .text:0000000000000044 .L0 
     /tmp/ccAUwFwj.s:53     .text:0000000000000044 _ZN3PCBC2EPFvPvES0_S0_m
     /tmp/ccAUwFwj.s:56     .text:0000000000000044 .L0 
     /tmp/ccAUwFwj.s:58     .text:0000000000000044 .L0 
     /tmp/ccAUwFwj.s:59     .text:0000000000000048 .L0 
     /tmp/ccAUwFwj.s:61     .text:000000000000004c .L0 
     /tmp/ccAUwFwj.s:63     .text:0000000000000050 .L0 
     /tmp/ccAUwFwj.s:66     .text:0000000000000050 .L0 
     /tmp/ccAUwFwj.s:73     .text:0000000000000068 .L0 
     /tmp/ccAUwFwj.s:77     .text:0000000000000070 .L0 
     /tmp/ccAUwFwj.s:82     .text:0000000000000084 .L0 
     /tmp/ccAUwFwj.s:83     .text:0000000000000084 .L0 
     /tmp/ccAUwFwj.s:86     .text:0000000000000088 .L0 
     /tmp/ccAUwFwj.s:87     .text:000000000000008c .L0 
     /tmp/ccAUwFwj.s:88     .text:000000000000008c .L0 
     /tmp/ccAUwFwj.s:90     .text:0000000000000090 .L0 
     /tmp/ccAUwFwj.s:92     .text:0000000000000094 .L0 
     /tmp/ccAUwFwj.s:53     .text:0000000000000044 _ZN3PCBC1EPFvPvES0_S0_m
     /tmp/ccAUwFwj.s:100    .text:0000000000000094 _ZN3PCB5startEv
     /tmp/ccAUwFwj.s:103    .text:0000000000000094 .L0 
     /tmp/ccAUwFwj.s:105    .text:0000000000000094 .L0 
     /tmp/ccAUwFwj.s:106    .text:0000000000000098 .L0 
     /tmp/ccAUwFwj.s:109    .text:00000000000000a0 .L0 
     /tmp/ccAUwFwj.s:110    .text:00000000000000a0 .L0 
     /tmp/ccAUwFwj.s:112    .text:00000000000000a4 .L0 
     /tmp/ccAUwFwj.s:114    .text:00000000000000a4 .L0 
     /tmp/ccAUwFwj.s:115    .text:00000000000000a4 .L0 
     /tmp/ccAUwFwj.s:118    .text:00000000000000ac .L0 
     /tmp/ccAUwFwj.s:119    .text:00000000000000b0 .L0 
     /tmp/ccAUwFwj.s:121    .text:00000000000000b4 .L0 
     /tmp/ccAUwFwj.s:122    .text:00000000000000b4 .L0 
     /tmp/ccAUwFwj.s:124    .text:00000000000000b8 .L0 
     /tmp/ccAUwFwj.s:126    .text:00000000000000bc .L0 
     /tmp/ccAUwFwj.s:132    .text:00000000000000bc _ZN3PCB8dispatchEv
     /tmp/ccAUwFwj.s:135    .text:00000000000000bc .L0 
     /tmp/ccAUwFwj.s:136    .text:00000000000000bc .L0 
GAS LISTING /tmp/ccAUwFwj.s 			page 26


     /tmp/ccAUwFwj.s:137    .text:00000000000000c0 .L0 
     /tmp/ccAUwFwj.s:142    .text:00000000000000d0 .L0 
     /tmp/ccAUwFwj.s:143    .text:00000000000000d0 .L0 
     /tmp/ccAUwFwj.s:144    .text:00000000000000d0 .L0 
     /tmp/ccAUwFwj.s:145    .text:00000000000000d0 .L0 
     /tmp/ccAUwFwj.s:147    .text:00000000000000d4 .L0 
     /tmp/ccAUwFwj.s:149    .text:00000000000000d4 .L0 
     /tmp/ccAUwFwj.s:150    .text:00000000000000d4 .L0 
     /tmp/ccAUwFwj.s:156    .text:00000000000000dc .L0 
     /tmp/ccAUwFwj.s:157    .text:00000000000000dc .L0 
     /tmp/ccAUwFwj.s:158    .text:00000000000000dc .L0 
     /tmp/ccAUwFwj.s:163    .text:00000000000000e0 .L0 
     /tmp/ccAUwFwj.s:167    .text:00000000000000e8 .L0 
     /tmp/ccAUwFwj.s:168    .text:00000000000000e8 .L0 
     /tmp/ccAUwFwj.s:171    .text:00000000000000f0 .L0 
     /tmp/ccAUwFwj.s:177    .text:00000000000000fc .L0 
     /tmp/ccAUwFwj.s:178    .text:00000000000000fc .L0 
     /tmp/ccAUwFwj.s:179    .text:00000000000000fc .L0 
     /tmp/ccAUwFwj.s:185    .text:0000000000000104 .L0 
     /tmp/ccAUwFwj.s:186    .text:0000000000000104 .L0 
     /tmp/ccAUwFwj.s:189    .text:000000000000010c .L0 
     /tmp/ccAUwFwj.s:190    .text:000000000000010c .L0 
     /tmp/ccAUwFwj.s:192    .text:0000000000000110 .L0 
     /tmp/ccAUwFwj.s:197    .text:0000000000000120 .L0 
     /tmp/ccAUwFwj.s:198    .text:0000000000000124 .L0 
     /tmp/ccAUwFwj.s:199    .text:0000000000000124 .L0 
     /tmp/ccAUwFwj.s:201    .text:0000000000000128 .L0 
     /tmp/ccAUwFwj.s:202    .text:0000000000000128 .L0 
     /tmp/ccAUwFwj.s:204    .text:000000000000012c .L0 
     /tmp/ccAUwFwj.s:207    .text:0000000000000130 .L0 
     /tmp/ccAUwFwj.s:209    .text:0000000000000134 .L0 
     /tmp/ccAUwFwj.s:213    .text:0000000000000138 .L0 
     /tmp/ccAUwFwj.s:215    .text:0000000000000138 .L0 
     /tmp/ccAUwFwj.s:216    .text:0000000000000138 .L0 
     /tmp/ccAUwFwj.s:220    .text:0000000000000148 .L0 
     /tmp/ccAUwFwj.s:226    .text:0000000000000148 _ZN3PCBnwEm
     /tmp/ccAUwFwj.s:229    .text:0000000000000148 .L0 
     /tmp/ccAUwFwj.s:231    .text:0000000000000148 .L0 
     /tmp/ccAUwFwj.s:232    .text:000000000000014c .L0 
     /tmp/ccAUwFwj.s:235    .text:0000000000000154 .L0 
     /tmp/ccAUwFwj.s:236    .text:0000000000000154 .L0 
     /tmp/ccAUwFwj.s:238    .text:0000000000000158 .L0 
     /tmp/ccAUwFwj.s:240    .text:0000000000000158 .L0 
     /tmp/ccAUwFwj.s:241    .text:0000000000000158 .L0 
     /tmp/ccAUwFwj.s:247    .text:000000000000016c .L0 
     /tmp/ccAUwFwj.s:248    .text:0000000000000170 .L0 
     /tmp/ccAUwFwj.s:250    .text:0000000000000174 .L0 
     /tmp/ccAUwFwj.s:251    .text:0000000000000174 .L0 
     /tmp/ccAUwFwj.s:253    .text:0000000000000178 .L0 
     /tmp/ccAUwFwj.s:255    .text:000000000000017c .L0 
     /tmp/ccAUwFwj.s:261    .text:000000000000017c _ZN3PCBdlEPv
     /tmp/ccAUwFwj.s:264    .text:000000000000017c .L0 
     /tmp/ccAUwFwj.s:266    .text:000000000000017c .L0 
     /tmp/ccAUwFwj.s:267    .text:0000000000000180 .L0 
     /tmp/ccAUwFwj.s:270    .text:0000000000000188 .L0 
     /tmp/ccAUwFwj.s:271    .text:0000000000000188 .L0 
     /tmp/ccAUwFwj.s:273    .text:000000000000018c .L0 
GAS LISTING /tmp/ccAUwFwj.s 			page 27


     /tmp/ccAUwFwj.s:276    .text:0000000000000190 .L0 
     /tmp/ccAUwFwj.s:277    .text:0000000000000190 .L0 
     /tmp/ccAUwFwj.s:283    .text:00000000000001a4 .L0 
     /tmp/ccAUwFwj.s:284    .text:00000000000001a8 .L0 
     /tmp/ccAUwFwj.s:286    .text:00000000000001ac .L0 
     /tmp/ccAUwFwj.s:287    .text:00000000000001ac .L0 
     /tmp/ccAUwFwj.s:289    .text:00000000000001b0 .L0 
     /tmp/ccAUwFwj.s:291    .text:00000000000001b4 .L0 
     /tmp/ccAUwFwj.s:297    .text:00000000000001b4 _ZN3PCBD2Ev
     /tmp/ccAUwFwj.s:300    .text:00000000000001b4 .L0 
     /tmp/ccAUwFwj.s:4794   .data.rel.local.DW.ref.__gxx_personality_v0:0000000000000000 DW.ref.__gxx_personality_v0
     /tmp/ccAUwFwj.s:304    .text:00000000000001b4 .L0 
     /tmp/ccAUwFwj.s:305    .text:00000000000001b8 .L0 
     /tmp/ccAUwFwj.s:308    .text:00000000000001c0 .L0 
     /tmp/ccAUwFwj.s:309    .text:00000000000001c0 .L0 
     /tmp/ccAUwFwj.s:311    .text:00000000000001c4 .L0 
     /tmp/ccAUwFwj.s:314    .text:00000000000001c4 .L0 
     /tmp/ccAUwFwj.s:315    .text:00000000000001c4 .L0 
     /tmp/ccAUwFwj.s:321    .text:00000000000001d0 .L0 
     /tmp/ccAUwFwj.s:322    .text:00000000000001d4 .L0 
     /tmp/ccAUwFwj.s:324    .text:00000000000001d8 .L0 
     /tmp/ccAUwFwj.s:325    .text:00000000000001d8 .L0 
     /tmp/ccAUwFwj.s:327    .text:00000000000001dc .L0 
     /tmp/ccAUwFwj.s:329    .text:00000000000001e0 .L0 
     /tmp/ccAUwFwj.s:297    .text:00000000000001b4 _ZN3PCBD1Ev
     /tmp/ccAUwFwj.s:345    .text:00000000000001e0 _ZN3PCB10initializeEv
     /tmp/ccAUwFwj.s:348    .text:00000000000001e0 .L0 
     /tmp/ccAUwFwj.s:349    .text:00000000000001e0 .L0 
     /tmp/ccAUwFwj.s:350    .text:00000000000001e4 .L0 
     /tmp/ccAUwFwj.s:357    .text:00000000000001fc .L0 
     /tmp/ccAUwFwj.s:358    .text:00000000000001fc .L0 
     /tmp/ccAUwFwj.s:359    .text:00000000000001fc .L0 
     /tmp/ccAUwFwj.s:360    .text:00000000000001fc .L0 
     /tmp/ccAUwFwj.s:361    .text:00000000000001fc .L0 
     /tmp/ccAUwFwj.s:362    .text:00000000000001fc .L0 
     /tmp/ccAUwFwj.s:364    .text:0000000000000200 .L0 
     /tmp/ccAUwFwj.s:366    .text:0000000000000200 .L0 
     /tmp/ccAUwFwj.s:367    .text:0000000000000200 .L0 
     /tmp/ccAUwFwj.s:378    .text:0000000000000228 .L0 
     /tmp/ccAUwFwj.s:379    .text:0000000000000228 .L0 
     /tmp/ccAUwFwj.s:382    .text:0000000000000230 .L0 
     /tmp/ccAUwFwj.s:383    .text:0000000000000230 .L0 
     /tmp/ccAUwFwj.s:389    .text:000000000000023c .L0 
     /tmp/ccAUwFwj.s:390    .text:000000000000023c .L0 
     /tmp/ccAUwFwj.s:391    .text:000000000000023c .L0 
     /tmp/ccAUwFwj.s:397    .text:0000000000000244 .L0 
     /tmp/ccAUwFwj.s:398    .text:0000000000000244 .L0 
     /tmp/ccAUwFwj.s:403    .text:0000000000000254 .L0 
     /tmp/ccAUwFwj.s:415    .text:0000000000000280 .L0 
     /tmp/ccAUwFwj.s:417    .text:0000000000000284 .L0 
     /tmp/ccAUwFwj.s:418    .text:0000000000000284 .L0 
     /tmp/ccAUwFwj.s:420    .text:0000000000000288 .L0 
     /tmp/ccAUwFwj.s:421    .text:0000000000000288 .L0 
     /tmp/ccAUwFwj.s:425    .text:0000000000000294 .L0 
     /tmp/ccAUwFwj.s:426    .text:0000000000000294 .L0 
     /tmp/ccAUwFwj.s:431    .text:00000000000002a4 .L0 
     /tmp/ccAUwFwj.s:442    .text:00000000000002d0 .L0 
GAS LISTING /tmp/ccAUwFwj.s 			page 28


     /tmp/ccAUwFwj.s:444    .text:00000000000002d4 .L0 
     /tmp/ccAUwFwj.s:445    .text:00000000000002d4 .L0 
     /tmp/ccAUwFwj.s:449    .text:00000000000002e0 .L0 
     /tmp/ccAUwFwj.s:450    .text:00000000000002e4 .L0 
     /tmp/ccAUwFwj.s:452    .text:00000000000002e8 .L0 
     /tmp/ccAUwFwj.s:453    .text:00000000000002e8 .L0 
     /tmp/ccAUwFwj.s:455    .text:00000000000002ec .L0 
     /tmp/ccAUwFwj.s:457    .text:00000000000002f0 .L0 
     /tmp/ccAUwFwj.s:459    .text:00000000000002f4 .L0 
     /tmp/ccAUwFwj.s:461    .text:00000000000002f8 .L0 
     /tmp/ccAUwFwj.s:463    .text:00000000000002fc .L0 
     /tmp/ccAUwFwj.s:465    .text:0000000000000300 .L0 
     /tmp/ccAUwFwj.s:471    .text:0000000000000300 _ZN3PCB10isFinishedEv
     /tmp/ccAUwFwj.s:474    .text:0000000000000300 .L0 
     /tmp/ccAUwFwj.s:476    .text:0000000000000300 .L0 
     /tmp/ccAUwFwj.s:477    .text:0000000000000304 .L0 
     /tmp/ccAUwFwj.s:479    .text:0000000000000308 .L0 
     /tmp/ccAUwFwj.s:481    .text:000000000000030c .L0 
     /tmp/ccAUwFwj.s:483    .text:000000000000030c .L0 
     /tmp/ccAUwFwj.s:484    .text:000000000000030c .L0 
     /tmp/ccAUwFwj.s:487    .text:0000000000000310 .L0 
     /tmp/ccAUwFwj.s:489    .text:0000000000000314 .L0 
     /tmp/ccAUwFwj.s:491    .text:000000000000031c .L0 
     /tmp/ccAUwFwj.s:492    .text:000000000000031c .L0 
     /tmp/ccAUwFwj.s:494    .text:0000000000000320 .L0 
     /tmp/ccAUwFwj.s:496    .text:0000000000000324 .L0 
     /tmp/ccAUwFwj.s:502    .text:0000000000000324 _ZN3PCB17threadExitHandlerEv
     /tmp/ccAUwFwj.s:505    .text:0000000000000324 .L0 
     /tmp/ccAUwFwj.s:506    .text:0000000000000324 .L0 
     /tmp/ccAUwFwj.s:507    .text:0000000000000328 .L0 
     /tmp/ccAUwFwj.s:510    .text:0000000000000330 .L0 
     /tmp/ccAUwFwj.s:511    .text:0000000000000330 .L0 
     /tmp/ccAUwFwj.s:513    .text:0000000000000334 .L0 
     /tmp/ccAUwFwj.s:515    .text:0000000000000334 .L0 
     /tmp/ccAUwFwj.s:516    .text:0000000000000334 .L0 
     /tmp/ccAUwFwj.s:519    .text:0000000000000340 .L0 
     /tmp/ccAUwFwj.s:520    .text:0000000000000340 .L0 
     /tmp/ccAUwFwj.s:525    .text:0000000000000344 .L0 
     /tmp/ccAUwFwj.s:526    .text:0000000000000344 .L0 
     /tmp/ccAUwFwj.s:532    .text:000000000000034c .L0 
     /tmp/ccAUwFwj.s:533    .text:000000000000034c .L0 
     /tmp/ccAUwFwj.s:536    .text:0000000000000354 .L0 
         src/PCB.cpp:103    .text:0000000000000354 .L0 
     /tmp/ccAUwFwj.s:542    .text:0000000000000358 .L0 
     /tmp/ccAUwFwj.s:544    .text:0000000000000358 .L0 
     /tmp/ccAUwFwj.s:547    .text:0000000000000360 .L0 
     /tmp/ccAUwFwj.s:548    .text:0000000000000364 .L0 
     /tmp/ccAUwFwj.s:550    .text:0000000000000368 .L0 
     /tmp/ccAUwFwj.s:551    .text:0000000000000368 .L0 
     /tmp/ccAUwFwj.s:553    .text:000000000000036c .L0 
     /tmp/ccAUwFwj.s:555    .text:0000000000000370 .L0 
     /tmp/ccAUwFwj.s:561    .text:0000000000000370 _ZN3PCB21threadDispatchHandlerEv
     /tmp/ccAUwFwj.s:564    .text:0000000000000370 .L0 
     /tmp/ccAUwFwj.s:565    .text:0000000000000370 .L0 
     /tmp/ccAUwFwj.s:566    .text:0000000000000374 .L0 
     /tmp/ccAUwFwj.s:569    .text:000000000000037c .L0 
     /tmp/ccAUwFwj.s:570    .text:000000000000037c .L0 
GAS LISTING /tmp/ccAUwFwj.s 			page 29


     /tmp/ccAUwFwj.s:572    .text:0000000000000380 .L0 
     /tmp/ccAUwFwj.s:574    .text:0000000000000380 .L0 
     /tmp/ccAUwFwj.s:575    .text:0000000000000380 .L0 
     /tmp/ccAUwFwj.s:577    .text:0000000000000388 .L0 
     /tmp/ccAUwFwj.s:578    .text:0000000000000388 .L0 
     /tmp/ccAUwFwj.s:581    .text:0000000000000390 .L0 
     /tmp/ccAUwFwj.s:582    .text:0000000000000394 .L0 
     /tmp/ccAUwFwj.s:584    .text:0000000000000398 .L0 
     /tmp/ccAUwFwj.s:585    .text:0000000000000398 .L0 
     /tmp/ccAUwFwj.s:587    .text:000000000000039c .L0 
     /tmp/ccAUwFwj.s:589    .text:00000000000003a0 .L0 
     /tmp/ccAUwFwj.s:595    .text:00000000000003a0 _ZN3PCB18threadSleepHandlerEv
     /tmp/ccAUwFwj.s:598    .text:00000000000003a0 .L0 
     /tmp/ccAUwFwj.s:599    .text:00000000000003a0 .L0 
     /tmp/ccAUwFwj.s:600    .text:00000000000003a4 .L0 
     /tmp/ccAUwFwj.s:603    .text:00000000000003ac .L0 
     /tmp/ccAUwFwj.s:604    .text:00000000000003ac .L0 
     /tmp/ccAUwFwj.s:606    .text:00000000000003b0 .L0 
     /tmp/ccAUwFwj.s:608    .text:00000000000003b0 .L0 
     /tmp/ccAUwFwj.s:609    .text:00000000000003b0 .L0 
         src/PCB.cpp:116    .text:00000000000003b0 .L0 
     /tmp/ccAUwFwj.s:616    .text:00000000000003b4 .L0 
     /tmp/ccAUwFwj.s:618    .text:00000000000003b4 .L0 
     /tmp/ccAUwFwj.s:621    .text:00000000000003c0 .L0 
     /tmp/ccAUwFwj.s:622    .text:00000000000003c0 .L0 
     /tmp/ccAUwFwj.s:630    .text:00000000000003d4 .L0 
     /tmp/ccAUwFwj.s:631    .text:00000000000003d4 .L0 
     /tmp/ccAUwFwj.s:636    .text:00000000000003d8 .L0 
     /tmp/ccAUwFwj.s:637    .text:00000000000003d8 .L0 
     /tmp/ccAUwFwj.s:640    .text:00000000000003e0 .L0 
     /tmp/ccAUwFwj.s:641    .text:00000000000003e0 .L0 
     /tmp/ccAUwFwj.s:644    .text:00000000000003e8 .L0 
         src/PCB.cpp:121    .text:00000000000003e8 .L0 
     /tmp/ccAUwFwj.s:650    .text:00000000000003ec .L0 
     /tmp/ccAUwFwj.s:652    .text:00000000000003ec .L0 
     /tmp/ccAUwFwj.s:655    .text:00000000000003f4 .L0 
     /tmp/ccAUwFwj.s:656    .text:00000000000003f8 .L0 
     /tmp/ccAUwFwj.s:658    .text:00000000000003fc .L0 
     /tmp/ccAUwFwj.s:659    .text:00000000000003fc .L0 
     /tmp/ccAUwFwj.s:661    .text:0000000000000400 .L0 
     /tmp/ccAUwFwj.s:663    .text:0000000000000404 .L0 
     /tmp/ccAUwFwj.s:669    .text:0000000000000404 _ZN3PCB19threadCreateHandlerEv
     /tmp/ccAUwFwj.s:672    .text:0000000000000404 .L0 
     /tmp/ccAUwFwj.s:673    .text:0000000000000404 .L0 
     /tmp/ccAUwFwj.s:674    .text:0000000000000408 .L0 
     /tmp/ccAUwFwj.s:681    .text:0000000000000420 .L0 
     /tmp/ccAUwFwj.s:682    .text:0000000000000420 .L0 
     /tmp/ccAUwFwj.s:683    .text:0000000000000420 .L0 
     /tmp/ccAUwFwj.s:684    .text:0000000000000420 .L0 
     /tmp/ccAUwFwj.s:685    .text:0000000000000420 .L0 
     /tmp/ccAUwFwj.s:686    .text:0000000000000420 .L0 
     /tmp/ccAUwFwj.s:688    .text:0000000000000424 .L0 
     /tmp/ccAUwFwj.s:690    .text:0000000000000424 .L0 
     /tmp/ccAUwFwj.s:691    .text:0000000000000424 .L0 
     /tmp/ccAUwFwj.s:692    .text:0000000000000424 .L0 
     /tmp/ccAUwFwj.s:693    .text:0000000000000424 .L0 
         src/PCB.cpp:130    .text:0000000000000424 .L0 
GAS LISTING /tmp/ccAUwFwj.s 			page 30


     /tmp/ccAUwFwj.s:700    .text:0000000000000428 .L0 
         src/PCB.cpp:131    .text:0000000000000428 .L0 
     /tmp/ccAUwFwj.s:706    .text:000000000000042c .L0 
         src/PCB.cpp:132    .text:000000000000042c .L0 
     /tmp/ccAUwFwj.s:712    .text:0000000000000430 .L0 
     /tmp/ccAUwFwj.s:714    .text:0000000000000430 .L0 
     /tmp/ccAUwFwj.s:725    .text:000000000000045c .L0 
     /tmp/ccAUwFwj.s:726    .text:000000000000045c .L0 
     /tmp/ccAUwFwj.s:728    .text:0000000000000460 .L0 
     /tmp/ccAUwFwj.s:730    .text:0000000000000464 .L0 
     /tmp/ccAUwFwj.s:731    .text:0000000000000464 .L0 
     /tmp/ccAUwFwj.s:735    .text:0000000000000470 .L0 
         src/PCB.cpp:143    .text:0000000000000470 .L0 
     /tmp/ccAUwFwj.s:743    .text:0000000000000474 .L0 
     /tmp/ccAUwFwj.s:744    .text:0000000000000474 .L0 
     /tmp/ccAUwFwj.s:747    .text:000000000000047c .L0 
     /tmp/ccAUwFwj.s:748    .text:0000000000000480 .L0 
     /tmp/ccAUwFwj.s:749    .text:0000000000000480 .L0 
     /tmp/ccAUwFwj.s:751    .text:0000000000000484 .L0 
     /tmp/ccAUwFwj.s:752    .text:0000000000000484 .L0 
     /tmp/ccAUwFwj.s:754    .text:0000000000000488 .L0 
     /tmp/ccAUwFwj.s:757    .text:000000000000048c .L0 
     /tmp/ccAUwFwj.s:760    .text:0000000000000490 .L0 
     /tmp/ccAUwFwj.s:763    .text:0000000000000494 .L0 
     /tmp/ccAUwFwj.s:766    .text:0000000000000498 .L0 
     /tmp/ccAUwFwj.s:770    .text:000000000000049c .L0 
     /tmp/ccAUwFwj.s:772    .text:000000000000049c .L0 
         src/PCB.cpp:139    .text:000000000000049c .L0 
     /tmp/ccAUwFwj.s:779    .text:00000000000004a4 .L0 
     /tmp/ccAUwFwj.s:785    .text:00000000000004a4 _ZN3PCB18threadStartHandlerEv
     /tmp/ccAUwFwj.s:788    .text:00000000000004a4 .L0 
     /tmp/ccAUwFwj.s:789    .text:00000000000004a4 .L0 
     /tmp/ccAUwFwj.s:790    .text:00000000000004a8 .L0 
     /tmp/ccAUwFwj.s:793    .text:00000000000004b0 .L0 
     /tmp/ccAUwFwj.s:794    .text:00000000000004b0 .L0 
     /tmp/ccAUwFwj.s:796    .text:00000000000004b4 .L0 
     /tmp/ccAUwFwj.s:798    .text:00000000000004b4 .L0 
     /tmp/ccAUwFwj.s:799    .text:00000000000004b4 .L0 
         src/PCB.cpp:151    .text:00000000000004b4 .L0 
     /tmp/ccAUwFwj.s:807    .text:00000000000004b8 .L0 
     /tmp/ccAUwFwj.s:809    .text:00000000000004bc .L0 
     /tmp/ccAUwFwj.s:810    .text:00000000000004bc .L0 
     /tmp/ccAUwFwj.s:813    .text:00000000000004c4 .L0 
         src/PCB.cpp:155    .text:00000000000004c4 .L0 
     /tmp/ccAUwFwj.s:821    .text:00000000000004c8 .L0 
     /tmp/ccAUwFwj.s:822    .text:00000000000004c8 .L0 
     /tmp/ccAUwFwj.s:825    .text:00000000000004d0 .L0 
     /tmp/ccAUwFwj.s:826    .text:00000000000004d4 .L0 
     /tmp/ccAUwFwj.s:827    .text:00000000000004d4 .L0 
     /tmp/ccAUwFwj.s:829    .text:00000000000004d8 .L0 
     /tmp/ccAUwFwj.s:830    .text:00000000000004d8 .L0 
     /tmp/ccAUwFwj.s:832    .text:00000000000004dc .L0 
     /tmp/ccAUwFwj.s:836    .text:00000000000004e0 .L0 
     /tmp/ccAUwFwj.s:838    .text:00000000000004e0 .L0 
         src/PCB.cpp:159    .text:00000000000004e0 .L0 
     /tmp/ccAUwFwj.s:845    .text:00000000000004e8 .L0 
     /tmp/ccAUwFwj.s:851    .text:00000000000004e8 _ZN3PCB20threadMakePCBHandlerEv
GAS LISTING /tmp/ccAUwFwj.s 			page 31


     /tmp/ccAUwFwj.s:854    .text:00000000000004e8 .L0 
     /tmp/ccAUwFwj.s:855    .text:00000000000004e8 .L0 
     /tmp/ccAUwFwj.s:856    .text:00000000000004ec .L0 
     /tmp/ccAUwFwj.s:863    .text:0000000000000504 .L0 
     /tmp/ccAUwFwj.s:864    .text:0000000000000504 .L0 
     /tmp/ccAUwFwj.s:865    .text:0000000000000504 .L0 
     /tmp/ccAUwFwj.s:866    .text:0000000000000504 .L0 
     /tmp/ccAUwFwj.s:867    .text:0000000000000504 .L0 
     /tmp/ccAUwFwj.s:868    .text:0000000000000504 .L0 
     /tmp/ccAUwFwj.s:870    .text:0000000000000508 .L0 
     /tmp/ccAUwFwj.s:872    .text:0000000000000508 .L0 
     /tmp/ccAUwFwj.s:873    .text:0000000000000508 .L0 
     /tmp/ccAUwFwj.s:874    .text:0000000000000508 .L0 
     /tmp/ccAUwFwj.s:875    .text:0000000000000508 .L0 
         src/PCB.cpp:169    .text:0000000000000508 .L0 
     /tmp/ccAUwFwj.s:882    .text:000000000000050c .L0 
         src/PCB.cpp:170    .text:000000000000050c .L0 
     /tmp/ccAUwFwj.s:888    .text:0000000000000510 .L0 
         src/PCB.cpp:171    .text:0000000000000510 .L0 
     /tmp/ccAUwFwj.s:894    .text:0000000000000514 .L0 
     /tmp/ccAUwFwj.s:896    .text:0000000000000514 .L0 
     /tmp/ccAUwFwj.s:907    .text:0000000000000540 .L0 
     /tmp/ccAUwFwj.s:908    .text:0000000000000540 .L0 
     /tmp/ccAUwFwj.s:910    .text:0000000000000544 .L0 
     /tmp/ccAUwFwj.s:912    .text:0000000000000548 .L0 
         src/PCB.cpp:180    .text:0000000000000548 .L0 
     /tmp/ccAUwFwj.s:920    .text:000000000000054c .L0 
     /tmp/ccAUwFwj.s:921    .text:000000000000054c .L0 
     /tmp/ccAUwFwj.s:924    .text:0000000000000554 .L0 
     /tmp/ccAUwFwj.s:925    .text:0000000000000558 .L0 
     /tmp/ccAUwFwj.s:926    .text:0000000000000558 .L0 
     /tmp/ccAUwFwj.s:928    .text:000000000000055c .L0 
     /tmp/ccAUwFwj.s:929    .text:000000000000055c .L0 
     /tmp/ccAUwFwj.s:931    .text:0000000000000560 .L0 
     /tmp/ccAUwFwj.s:934    .text:0000000000000564 .L0 
     /tmp/ccAUwFwj.s:937    .text:0000000000000568 .L0 
     /tmp/ccAUwFwj.s:940    .text:000000000000056c .L0 
     /tmp/ccAUwFwj.s:943    .text:0000000000000570 .L0 
     /tmp/ccAUwFwj.s:947    .text:0000000000000574 .L0 
     /tmp/ccAUwFwj.s:949    .text:0000000000000574 .L0 
         src/PCB.cpp:178    .text:0000000000000574 .L0 
     /tmp/ccAUwFwj.s:956    .text:000000000000057c .L0 
     /tmp/ccAUwFwj.s:962    .text:000000000000057c _ZN3PCB19threadDelPCBHandlerEv
     /tmp/ccAUwFwj.s:965    .text:000000000000057c .L0 
     /tmp/ccAUwFwj.s:966    .text:000000000000057c .L0 
     /tmp/ccAUwFwj.s:967    .text:0000000000000580 .L0 
     /tmp/ccAUwFwj.s:971    .text:000000000000058c .L0 
     /tmp/ccAUwFwj.s:972    .text:000000000000058c .L0 
     /tmp/ccAUwFwj.s:973    .text:000000000000058c .L0 
     /tmp/ccAUwFwj.s:975    .text:0000000000000590 .L0 
     /tmp/ccAUwFwj.s:977    .text:0000000000000590 .L0 
     /tmp/ccAUwFwj.s:978    .text:0000000000000590 .L0 
         src/PCB.cpp:187    .text:0000000000000590 .L0 
     /tmp/ccAUwFwj.s:986    .text:0000000000000594 .L0 
     /tmp/ccAUwFwj.s:988    .text:0000000000000598 .L0 
     /tmp/ccAUwFwj.s:989    .text:0000000000000598 .L0 
     /tmp/ccAUwFwj.s:996    .text:00000000000005b0 .L0 
GAS LISTING /tmp/ccAUwFwj.s 			page 32


         src/PCB.cpp:191    .text:00000000000005b0 .L0 
     /tmp/ccAUwFwj.s:1004   .text:00000000000005b4 .L0 
     /tmp/ccAUwFwj.s:1005   .text:00000000000005b4 .L0 
     /tmp/ccAUwFwj.s:1008   .text:00000000000005bc .L0 
     /tmp/ccAUwFwj.s:1009   .text:00000000000005c0 .L0 
     /tmp/ccAUwFwj.s:1010   .text:00000000000005c0 .L0 
     /tmp/ccAUwFwj.s:1012   .text:00000000000005c4 .L0 
     /tmp/ccAUwFwj.s:1013   .text:00000000000005c4 .L0 
     /tmp/ccAUwFwj.s:1015   .text:00000000000005c8 .L0 
     /tmp/ccAUwFwj.s:1018   .text:00000000000005cc .L0 
     /tmp/ccAUwFwj.s:1022   .text:00000000000005d0 .L0 
     /tmp/ccAUwFwj.s:1024   .text:00000000000005d0 .L0 
         src/PCB.cpp:195    .text:00000000000005d0 .L0 
     /tmp/ccAUwFwj.s:1031   .text:00000000000005d8 .L0 
     /tmp/ccAUwFwj.s:1052   .bss:0000000000000010 _ZN3PCB7userPCBE
     /tmp/ccAUwFwj.s:1048   .bss:0000000000000008 _ZN3PCB10consolePCBE
     /tmp/ccAUwFwj.s:1060   .bss:0000000000000020 _ZN3PCB10savedRegA4E
     /tmp/ccAUwFwj.s:1056   .bss:0000000000000018 _ZN3PCB16timeSliceCounterE
     /tmp/ccAUwFwj.s:1044   .bss:0000000000000000 _ZN3PCB7runningE
     /tmp/ccAUwFwj.s:1041   .bss:0000000000000000 .LANCHOR0
     /tmp/ccAUwFwj.s:1070   .text:00000000000005d8 .L0 
     /tmp/ccAUwFwj.s:28     .text:0000000000000018 .L0 
     /tmp/ccAUwFwj.s:78     .text:0000000000000074 .L0 
     /tmp/ccAUwFwj.s:150    .text:00000000000000d4 .L0 
     /tmp/ccAUwFwj.s:171    .text:00000000000000f0 .L0 
     /tmp/ccAUwFwj.s:241    .text:0000000000000158 .L0 
     /tmp/ccAUwFwj.s:277    .text:0000000000000190 .L0 
     /tmp/ccAUwFwj.s:383    .text:0000000000000230 .L0 
     /tmp/ccAUwFwj.s:411    .text:0000000000000270 .L0 
     /tmp/ccAUwFwj.s:438    .text:00000000000002c0 .L0 
     /tmp/ccAUwFwj.s:516    .text:0000000000000334 .L0 
     /tmp/ccAUwFwj.s:575    .text:0000000000000380 .L0 
     /tmp/ccAUwFwj.s:618    .text:00000000000003b4 .L0 
     /tmp/ccAUwFwj.s:623    .text:00000000000003c4 .L0 
     /tmp/ccAUwFwj.s:719    .text:0000000000000444 .L0 
     /tmp/ccAUwFwj.s:901    .text:0000000000000528 .L0 
     /tmp/ccAUwFwj.s:212    .text:0000000000000138 .L10
     /tmp/ccAUwFwj.s:165    .text:00000000000000e8 .L8
     /tmp/ccAUwFwj.s:769    .text:000000000000049c .L31
     /tmp/ccAUwFwj.s:741    .text:0000000000000474 .L29
     /tmp/ccAUwFwj.s:835    .text:00000000000004e0 .L33
     /tmp/ccAUwFwj.s:819    .text:00000000000004c8 .L34
     /tmp/ccAUwFwj.s:946    .text:0000000000000574 .L40
     /tmp/ccAUwFwj.s:918    .text:000000000000054c .L38
     /tmp/ccAUwFwj.s:1021   .text:00000000000005d0 .L42
     /tmp/ccAUwFwj.s:1002   .text:00000000000005b4 .L43
     /tmp/ccAUwFwj.s:3066   .debug_abbrev:0000000000000000 .Ldebug_abbrev0
     /tmp/ccAUwFwj.s:4708   .debug_str:0000000000000c26 .LASF223
     /tmp/ccAUwFwj.s:4726   .debug_str:0000000000000d77 .LASF224
     /tmp/ccAUwFwj.s:4436   .debug_str:000000000000039c .LASF225
     /tmp/ccAUwFwj.s:5      .text:0000000000000000 .Ltext0
     /tmp/ccAUwFwj.s:1063   .text:00000000000005d8 .Letext0
     /tmp/ccAUwFwj.s:4324   .debug_line:0000000000000000 .Ldebug_line0
     /tmp/ccAUwFwj.s:4486   .debug_str:0000000000000536 .LASF0
     /tmp/ccAUwFwj.s:4518   .debug_str:0000000000000634 .LASF1
     /tmp/ccAUwFwj.s:4636   .debug_str:0000000000000a30 .LASF2
     /tmp/ccAUwFwj.s:4648   .debug_str:0000000000000a85 .LASF4
GAS LISTING /tmp/ccAUwFwj.s 			page 33


     /tmp/ccAUwFwj.s:4504   .debug_str:00000000000005ba .LASF3
     /tmp/ccAUwFwj.s:4338   .debug_str:0000000000000056 .LASF5
     /tmp/ccAUwFwj.s:4592   .debug_str:00000000000008ca .LASF6
     /tmp/ccAUwFwj.s:4510   .debug_str:00000000000005fb .LASF7
     /tmp/ccAUwFwj.s:4464   .debug_str:000000000000049f .LASF8
     /tmp/ccAUwFwj.s:4468   .debug_str:00000000000004bc .LASF9
     /tmp/ccAUwFwj.s:4386   .debug_str:000000000000021c .LASF10
     /tmp/ccAUwFwj.s:4688   .debug_str:0000000000000bca .LASF11
     /tmp/ccAUwFwj.s:4448   .debug_str:0000000000000413 .LASF12
     /tmp/ccAUwFwj.s:4394   .debug_str:000000000000024f .LASF13
     /tmp/ccAUwFwj.s:4384   .debug_str:000000000000020c .LASF14
     /tmp/ccAUwFwj.s:4692   .debug_str:0000000000000be4 .LASF15
     /tmp/ccAUwFwj.s:4434   .debug_str:0000000000000386 .LASF16
     /tmp/ccAUwFwj.s:4678   .debug_str:0000000000000b4f .LASF17
     /tmp/ccAUwFwj.s:4702   .debug_str:0000000000000c0e .LASF226
     /tmp/ccAUwFwj.s:4698   .debug_str:0000000000000c03 .LASF18
     /tmp/ccAUwFwj.s:4670   .debug_str:0000000000000b27 .LASF19
     /tmp/ccAUwFwj.s:4390   .debug_str:0000000000000234 .LASF20
     /tmp/ccAUwFwj.s:4364   .debug_str:000000000000015c .LASF21
     /tmp/ccAUwFwj.s:4596   .debug_str:00000000000008f3 .LASF22
     /tmp/ccAUwFwj.s:4388   .debug_str:000000000000022b .LASF23
     /tmp/ccAUwFwj.s:4694   .debug_str:0000000000000bf0 .LASF91
     /tmp/ccAUwFwj.s:4474   .debug_str:00000000000004ef .LASF24
     /tmp/ccAUwFwj.s:4342   .debug_str:0000000000000068 .LASF30
     /tmp/ccAUwFwj.s:4718   .debug_str:0000000000000d20 .LASF227
     /tmp/ccAUwFwj.s:4582   .debug_str:0000000000000879 .LASF25
     /tmp/ccAUwFwj.s:4516   .debug_str:000000000000062f .LASF26
     /tmp/ccAUwFwj.s:4774   .debug_str:0000000000000ed8 .LASF28
     /tmp/ccAUwFwj.s:4768   .debug_str:0000000000000ea8 .LASF27
     /tmp/ccAUwFwj.s:4710   .debug_str:0000000000000cea .LASF29
     /tmp/ccAUwFwj.s:4418   .debug_str:0000000000000317 .LASF53
     /tmp/ccAUwFwj.s:4352   .debug_str:00000000000000dc .LASF55
     /tmp/ccAUwFwj.s:4706   .debug_str:0000000000000c1e .LASF31
     /tmp/ccAUwFwj.s:4660   .debug_str:0000000000000ac2 .LASF32
     /tmp/ccAUwFwj.s:4522   .debug_str:0000000000000653 .LASF35
     /tmp/ccAUwFwj.s:4528   .debug_str:000000000000068a .LASF37
     /tmp/ccAUwFwj.s:4778   .debug_str:0000000000000efc .LASF33
     /tmp/ccAUwFwj.s:4438   .debug_str:00000000000003b1 .LASF34
     /tmp/ccAUwFwj.s:4330   .debug_str:000000000000001f .LASF79
     /tmp/ccAUwFwj.s:4498   .debug_str:000000000000058e .LASF81
     /tmp/ccAUwFwj.s:4664   .debug_str:0000000000000ae4 .LASF36
     /tmp/ccAUwFwj.s:4558   .debug_str:0000000000000785 .LASF38
     /tmp/ccAUwFwj.s:4646   .debug_str:0000000000000a7c .LASF39
     /tmp/ccAUwFwj.s:4686   .debug_str:0000000000000bae .LASF40
     /tmp/ccAUwFwj.s:4560   .debug_str:0000000000000798 .LASF41
     /tmp/ccAUwFwj.s:4326   .debug_str:0000000000000000 .LASF42
     /tmp/ccAUwFwj.s:4754   .debug_str:0000000000000e30 .LASF43
     /tmp/ccAUwFwj.s:4590   .debug_str:00000000000008b0 .LASF44
     /tmp/ccAUwFwj.s:4676   .debug_str:0000000000000b41 .LASF45
     /tmp/ccAUwFwj.s:4604   .debug_str:0000000000000928 .LASF46
     /tmp/ccAUwFwj.s:4414   .debug_str:00000000000002f5 .LASF47
     /tmp/ccAUwFwj.s:4452   .debug_str:000000000000042a .LASF48
     /tmp/ccAUwFwj.s:4626   .debug_str:00000000000009e0 .LASF49
     /tmp/ccAUwFwj.s:4536   .debug_str:00000000000006d8 .LASF50
     /tmp/ccAUwFwj.s:4760   .debug_str:0000000000000e64 .LASF51
     /tmp/ccAUwFwj.s:4506   .debug_str:00000000000005cc .LASF52
     /tmp/ccAUwFwj.s:4672   .debug_str:0000000000000b2f .LASF54
GAS LISTING /tmp/ccAUwFwj.s 			page 34


     /tmp/ccAUwFwj.s:4772   .debug_str:0000000000000ec2 .LASF56
     /tmp/ccAUwFwj.s:4696   .debug_str:0000000000000bf8 .LASF57
     /tmp/ccAUwFwj.s:4404   .debug_str:00000000000002a6 .LASF58
     /tmp/ccAUwFwj.s:4656   .debug_str:0000000000000aac .LASF59
     /tmp/ccAUwFwj.s:4488   .debug_str:0000000000000543 .LASF60
     /tmp/ccAUwFwj.s:4568   .debug_str:00000000000007d2 .LASF61
     /tmp/ccAUwFwj.s:4398   .debug_str:0000000000000270 .LASF62
     /tmp/ccAUwFwj.s:4608   .debug_str:000000000000093b .LASF63
     /tmp/ccAUwFwj.s:4786   .debug_str:0000000000000f29 .LASF64
     /tmp/ccAUwFwj.s:4572   .debug_str:00000000000007f8 .LASF65
     /tmp/ccAUwFwj.s:4644   .debug_str:0000000000000a69 .LASF66
     /tmp/ccAUwFwj.s:4666   .debug_str:0000000000000aed .LASF67
     /tmp/ccAUwFwj.s:4732   .debug_str:0000000000000d91 .LASF68
     /tmp/ccAUwFwj.s:4546   .debug_str:0000000000000720 .LASF69
     /tmp/ccAUwFwj.s:4720   .debug_str:0000000000000d38 .LASF70
     /tmp/ccAUwFwj.s:4684   .debug_str:0000000000000b8e .LASF71
     /tmp/ccAUwFwj.s:4586   .debug_str:0000000000000891 .LASF72
     /tmp/ccAUwFwj.s:4574   .debug_str:0000000000000819 .LASF73
     /tmp/ccAUwFwj.s:4424   .debug_str:0000000000000337 .LASF74
     /tmp/ccAUwFwj.s:4490   .debug_str:0000000000000557 .LASF75
     /tmp/ccAUwFwj.s:4548   .debug_str:000000000000073e .LASF76
     /tmp/ccAUwFwj.s:4714   .debug_str:0000000000000d0e .LASF77
     /tmp/ccAUwFwj.s:4456   .debug_str:0000000000000440 .LASF78
     /tmp/ccAUwFwj.s:4766   .debug_str:0000000000000e9a .LASF80
     /tmp/ccAUwFwj.s:4356   .debug_str:00000000000000fc .LASF82
     /tmp/ccAUwFwj.s:4440   .debug_str:00000000000003bd .LASF83
     /tmp/ccAUwFwj.s:4376   .debug_str:00000000000001a8 .LASF84
     /tmp/ccAUwFwj.s:4752   .debug_str:0000000000000e29 .LASF85
     /tmp/ccAUwFwj.s:4372   .debug_str:0000000000000189 .LASF86
     /tmp/ccAUwFwj.s:4328   .debug_str:000000000000001a .LASF87
     /tmp/ccAUwFwj.s:4730   .debug_str:0000000000000d8c .LASF88
     /tmp/ccAUwFwj.s:4534   .debug_str:00000000000006d0 .LASF89
     /tmp/ccAUwFwj.s:4422   .debug_str:0000000000000331 .LASF90
     /tmp/ccAUwFwj.s:4716   .debug_str:0000000000000d18 .LASF92
     /tmp/ccAUwFwj.s:4358   .debug_str:0000000000000124 .LASF93
     /tmp/ccAUwFwj.s:4538   .debug_str:00000000000006e7 .LASF94
     /tmp/ccAUwFwj.s:4466   .debug_str:00000000000004af .LASF95
     /tmp/ccAUwFwj.s:4550   .debug_str:0000000000000746 .LASF96
     /tmp/ccAUwFwj.s:4428   .debug_str:0000000000000357 .LASF97
     /tmp/ccAUwFwj.s:4442   .debug_str:00000000000003d2 .LASF98
     /tmp/ccAUwFwj.s:4366   .debug_str:0000000000000165 .LASF99
     /tmp/ccAUwFwj.s:4348   .debug_str:000000000000009d .LASF100
     /tmp/ccAUwFwj.s:4700   .debug_str:0000000000000c09 .LASF101
     /tmp/ccAUwFwj.s:4462   .debug_str:0000000000000495 .LASF102
     /tmp/ccAUwFwj.s:4344   .debug_str:0000000000000073 .LASF228
     /tmp/ccAUwFwj.s:4770   .debug_str:0000000000000eae .LASF229
     /tmp/ccAUwFwj.s:4360   .debug_str:0000000000000135 .LASF103
     /tmp/ccAUwFwj.s:4584   .debug_str:000000000000087e .LASF104
     /tmp/ccAUwFwj.s:4744   .debug_str:0000000000000df5 .LASF105
     /tmp/ccAUwFwj.s:4630   .debug_str:00000000000009fc .LASF113
     /tmp/ccAUwFwj.s:4370   .debug_str:0000000000000183 .LASF106
     /tmp/ccAUwFwj.s:4566   .debug_str:00000000000007bc .LASF107
     /tmp/ccAUwFwj.s:4662   .debug_str:0000000000000ad3 .LASF108
     /tmp/ccAUwFwj.s:4396   .debug_str:000000000000025f .LASF109
     /tmp/ccAUwFwj.s:4446   .debug_str:0000000000000406 .LASF110
     /tmp/ccAUwFwj.s:4444   .debug_str:00000000000003f9 .LASF230
     /tmp/ccAUwFwj.s:4742   .debug_str:0000000000000def .LASF111
GAS LISTING /tmp/ccAUwFwj.s 			page 35


     /tmp/ccAUwFwj.s:4482   .debug_str:0000000000000513 .LASF112
     /tmp/ccAUwFwj.s:4682   .debug_str:0000000000000b76 .LASF114
     /tmp/ccAUwFwj.s:4734   .debug_str:0000000000000da4 .LASF115
     /tmp/ccAUwFwj.s:4758   .debug_str:0000000000000e55 .LASF116
     /tmp/ccAUwFwj.s:4668   .debug_str:0000000000000b0b .LASF117
     /tmp/ccAUwFwj.s:4588   .debug_str:00000000000008a5 .LASF118
     /tmp/ccAUwFwj.s:4542   .debug_str:00000000000006f8 .LASF119
     /tmp/ccAUwFwj.s:4432   .debug_str:000000000000037c .LASF120
     /tmp/ccAUwFwj.s:4594   .debug_str:00000000000008dd .LASF121
     /tmp/ccAUwFwj.s:4362   .debug_str:0000000000000147 .LASF122
     /tmp/ccAUwFwj.s:4408   .debug_str:00000000000002c8 .LASF123
     /tmp/ccAUwFwj.s:4544   .debug_str:0000000000000710 .LASF124
     /tmp/ccAUwFwj.s:4736   .debug_str:0000000000000db5 .LASF125
     /tmp/ccAUwFwj.s:4380   .debug_str:00000000000001e8 .LASF126
     /tmp/ccAUwFwj.s:4526   .debug_str:000000000000066c .LASF127
     /tmp/ccAUwFwj.s:4426   .debug_str:0000000000000340 .LASF128
     /tmp/ccAUwFwj.s:4764   .debug_str:0000000000000e76 .LASF129
     /tmp/ccAUwFwj.s:4496   .debug_str:000000000000057c .LASF130
     /tmp/ccAUwFwj.s:4400   .debug_str:0000000000000282 .LASF131
     /tmp/ccAUwFwj.s:4658   .debug_str:0000000000000ab4 .LASF132
     /tmp/ccAUwFwj.s:4618   .debug_str:000000000000099d .LASF133
     /tmp/ccAUwFwj.s:4562   .debug_str:00000000000007a7 .LASF134
     /tmp/ccAUwFwj.s:4748   .debug_str:0000000000000e07 .LASF135
     /tmp/ccAUwFwj.s:4728   .debug_str:0000000000000d83 .LASF136
     /tmp/ccAUwFwj.s:4334   .debug_str:0000000000000037 .LASF137
     /tmp/ccAUwFwj.s:4782   .debug_str:0000000000000f18 .LASF138
     /tmp/ccAUwFwj.s:4578   .debug_str:000000000000084c .LASF139
     /tmp/ccAUwFwj.s:4606   .debug_str:0000000000000934 .LASF140
     /tmp/ccAUwFwj.s:4610   .debug_str:0000000000000958 .LASF141
     /tmp/ccAUwFwj.s:4570   .debug_str:00000000000007f1 .LASF142
     /tmp/ccAUwFwj.s:4512   .debug_str:000000000000060e .LASF143
     /tmp/ccAUwFwj.s:4750   .debug_str:0000000000000e21 .LASF144
     /tmp/ccAUwFwj.s:4712   .debug_str:0000000000000cfa .LASF145
     /tmp/ccAUwFwj.s:4564   .debug_str:00000000000007b4 .LASF146
     /tmp/ccAUwFwj.s:4576   .debug_str:0000000000000838 .LASF147
     /tmp/ccAUwFwj.s:4552   .debug_str:0000000000000756 .LASF148
     /tmp/ccAUwFwj.s:4612   .debug_str:000000000000096b .LASF149
     /tmp/ccAUwFwj.s:4784   .debug_str:0000000000000f21 .LASF150
     /tmp/ccAUwFwj.s:4494   .debug_str:0000000000000568 .LASF151
     /tmp/ccAUwFwj.s:4478   .debug_str:0000000000000500 .LASF152
     /tmp/ccAUwFwj.s:4690   .debug_str:0000000000000bdd .LASF153
     /tmp/ccAUwFwj.s:4652   .debug_str:0000000000000a92 .LASF154
     /tmp/ccAUwFwj.s:4654   .debug_str:0000000000000aa5 .LASF155
     /tmp/ccAUwFwj.s:4430   .debug_str:0000000000000369 .LASF156
     /tmp/ccAUwFwj.s:4650   .debug_str:0000000000000a8c .LASF157
     /tmp/ccAUwFwj.s:4346   .debug_str:000000000000008b .LASF158
     /tmp/ccAUwFwj.s:4492   .debug_str:0000000000000562 .LASF159
     /tmp/ccAUwFwj.s:4416   .debug_str:0000000000000305 .LASF160
     /tmp/ccAUwFwj.s:4374   .debug_str:000000000000019a .LASF161
     /tmp/ccAUwFwj.s:4724   .debug_str:0000000000000d5c .LASF162
     /tmp/ccAUwFwj.s:4340   .debug_str:000000000000005d .LASF163
     /tmp/ccAUwFwj.s:4642   .debug_str:0000000000000a51 .LASF164
     /tmp/ccAUwFwj.s:4634   .debug_str:0000000000000a25 .LASF165
     /tmp/ccAUwFwj.s:4776   .debug_str:0000000000000ee4 .LASF166
     /tmp/ccAUwFwj.s:4640   .debug_str:0000000000000a4a .LASF167
     /tmp/ccAUwFwj.s:4382   .debug_str:00000000000001f9 .LASF168
     /tmp/ccAUwFwj.s:4674   .debug_str:0000000000000b3a .LASF169
GAS LISTING /tmp/ccAUwFwj.s 			page 36


     /tmp/ccAUwFwj.s:4530   .debug_str:00000000000006a2 .LASF170
     /tmp/ccAUwFwj.s:4746   .debug_str:0000000000000dfd .LASF171
     /tmp/ccAUwFwj.s:4756   .debug_str:0000000000000e3f .LASF172
     /tmp/ccAUwFwj.s:4738   .debug_str:0000000000000dd3 .LASF173
     /tmp/ccAUwFwj.s:4620   .debug_str:00000000000009b8 .LASF174
     /tmp/ccAUwFwj.s:4412   .debug_str:00000000000002ef .LASF175
     /tmp/ccAUwFwj.s:4472   .debug_str:00000000000004dd .LASF176
     /tmp/ccAUwFwj.s:4480   .debug_str:000000000000050d .LASF177
     /tmp/ccAUwFwj.s:4740   .debug_str:0000000000000ddd .LASF178
     /tmp/ccAUwFwj.s:4476   .debug_str:00000000000004f5 .LASF179
     /tmp/ccAUwFwj.s:4484   .debug_str:000000000000051e .LASF180
     /tmp/ccAUwFwj.s:4722   .debug_str:0000000000000d4d .LASF181
     /tmp/ccAUwFwj.s:4350   .debug_str:00000000000000c0 .LASF182
     /tmp/ccAUwFwj.s:4600   .debug_str:0000000000000900 .LASF183
     /tmp/ccAUwFwj.s:4508   .debug_str:00000000000005d9 .LASF184
     /tmp/ccAUwFwj.s:4624   .debug_str:00000000000009d9 .LASF185
     /tmp/ccAUwFwj.s:4332   .debug_str:000000000000002f .LASF186
     /tmp/ccAUwFwj.s:4780   .debug_str:0000000000000f09 .LASF187
     /tmp/ccAUwFwj.s:4524   .debug_str:0000000000000660 .LASF188
     /tmp/ccAUwFwj.s:4602   .debug_str:0000000000000915 .LASF189
     /tmp/ccAUwFwj.s:4556   .debug_str:0000000000000773 .LASF190
     /tmp/ccAUwFwj.s:4470   .debug_str:00000000000004ca .LASF191
     /tmp/ccAUwFwj.s:4502   .debug_str:00000000000005a7 .LASF192
     /tmp/ccAUwFwj.s:4378   .debug_str:00000000000001d4 .LASF193
     /tmp/ccAUwFwj.s:4704   .debug_str:0000000000000c14 .LASF194
     /tmp/ccAUwFwj.s:4616   .debug_str:0000000000000994 .LASF195
     /tmp/ccAUwFwj.s:4628   .debug_str:00000000000009ed .LASF196
     /tmp/ccAUwFwj.s:4632   .debug_str:0000000000000a14 .LASF197
     /tmp/ccAUwFwj.s:4532   .debug_str:00000000000006b5 .LASF198
     /tmp/ccAUwFwj.s:4614   .debug_str:000000000000097f .LASF199
     /tmp/ccAUwFwj.s:4554   .debug_str:000000000000075e .LASF200
     /tmp/ccAUwFwj.s:4392   .debug_str:000000000000023e .LASF201
     /tmp/ccAUwFwj.s:963    .text:000000000000057c .LFB44
     /tmp/ccAUwFwj.s:1032   .text:00000000000005d8 .LFE44
     /tmp/ccAUwFwj.s:4024   .debug_loc:0000000000000000 .LLST27
     /tmp/ccAUwFwj.s:991    .text:00000000000005a4 .LVL80
     /tmp/ccAUwFwj.s:994    .text:00000000000005b0 .LVL81
     /tmp/ccAUwFwj.s:1006   .text:00000000000005bc .LVL82
     /tmp/ccAUwFwj.s:852    .text:00000000000004e8 .LFB43
     /tmp/ccAUwFwj.s:957    .text:000000000000057c .LFE43
     /tmp/ccAUwFwj.s:4514   .debug_str:0000000000000621 .LASF202
     /tmp/ccAUwFwj.s:4035   .debug_loc:0000000000000036 .LLST23
     /tmp/ccAUwFwj.s:4046   .debug_loc:000000000000006c .LLST24
     /tmp/ccAUwFwj.s:4354   .debug_str:00000000000000ef .LASF203
     /tmp/ccAUwFwj.s:4057   .debug_loc:00000000000000a2 .LLST25
     /tmp/ccAUwFwj.s:4762   .debug_str:0000000000000e6f .LASF204
     /tmp/ccAUwFwj.s:4068   .debug_loc:00000000000000d8 .LLST26
     /tmp/ccAUwFwj.s:898    .text:0000000000000520 .LVL71
     /tmp/ccAUwFwj.s:905    .text:0000000000000540 .LVL72
     /tmp/ccAUwFwj.s:922    .text:0000000000000554 .LVL73
     /tmp/ccAUwFwj.s:786    .text:00000000000004a4 .LFB42
     /tmp/ccAUwFwj.s:846    .text:00000000000004e8 .LFE42
     /tmp/ccAUwFwj.s:4079   .debug_loc:000000000000010e .LLST22
     /tmp/ccAUwFwj.s:811    .text:00000000000004c4 .LVL65
     /tmp/ccAUwFwj.s:823    .text:00000000000004d0 .LVL66
     /tmp/ccAUwFwj.s:670    .text:0000000000000404 .LFB41
     /tmp/ccAUwFwj.s:780    .text:00000000000004a4 .LFE41
GAS LISTING /tmp/ccAUwFwj.s 			page 37


     /tmp/ccAUwFwj.s:4090   .debug_loc:0000000000000144 .LLST18
     /tmp/ccAUwFwj.s:4101   .debug_loc:000000000000017a .LLST19
     /tmp/ccAUwFwj.s:4112   .debug_loc:00000000000001b0 .LLST20
     /tmp/ccAUwFwj.s:4123   .debug_loc:00000000000001e6 .LLST21
     /tmp/ccAUwFwj.s:716    .text:000000000000043c .LVL55
     /tmp/ccAUwFwj.s:723    .text:000000000000045c .LVL56
     /tmp/ccAUwFwj.s:733    .text:0000000000000470 .LVL57
     /tmp/ccAUwFwj.s:745    .text:000000000000047c .LVL58
     /tmp/ccAUwFwj.s:596    .text:00000000000003a0 .LFB40
     /tmp/ccAUwFwj.s:664    .text:0000000000000404 .LFE40
     /tmp/ccAUwFwj.s:4598   .debug_str:00000000000008fb .LASF205
     /tmp/ccAUwFwj.s:4134   .debug_loc:000000000000021c .LLST15
     /tmp/ccAUwFwj.s:627    .text:00000000000003d4 .LBB22
     /tmp/ccAUwFwj.s:634    .text:00000000000003d8 .LBE22
     /tmp/ccAUwFwj.s:4141   .debug_loc:000000000000023f .LLST16
     /tmp/ccAUwFwj.s:4148   .debug_loc:0000000000000262 .LLST17
     /tmp/ccAUwFwj.s:638    .text:00000000000003e0 .LVL49
     /tmp/ccAUwFwj.s:642    .text:00000000000003e8 .LVL50
     /tmp/ccAUwFwj.s:653    .text:00000000000003f4 .LVL51
     /tmp/ccAUwFwj.s:562    .text:0000000000000370 .LFB39
     /tmp/ccAUwFwj.s:590    .text:00000000000003a0 .LFE39
     /tmp/ccAUwFwj.s:579    .text:0000000000000390 .LVL45
     /tmp/ccAUwFwj.s:503    .text:0000000000000324 .LFB38
     /tmp/ccAUwFwj.s:556    .text:0000000000000370 .LFE38
     /tmp/ccAUwFwj.s:522    .text:0000000000000344 .LBB20
     /tmp/ccAUwFwj.s:530    .text:000000000000034c .LBE20
     /tmp/ccAUwFwj.s:4155   .debug_loc:0000000000000285 .LLST13
     /tmp/ccAUwFwj.s:4163   .debug_loc:00000000000002a9 .LLST14
     /tmp/ccAUwFwj.s:534    .text:0000000000000354 .LVL43
     /tmp/ccAUwFwj.s:545    .text:0000000000000360 .LVL44
     /tmp/ccAUwFwj.s:472    .text:0000000000000300 .LFB37
     /tmp/ccAUwFwj.s:497    .text:0000000000000324 .LFE37
     /tmp/ccAUwFwj.s:4410   .debug_str:00000000000002ea .LASF207
     /tmp/ccAUwFwj.s:4170   .debug_loc:00000000000002cc .LLST12
     /tmp/ccAUwFwj.s:346    .text:00000000000001e0 .LFB36
     /tmp/ccAUwFwj.s:466    .text:0000000000000300 .LFE36
     /tmp/ccAUwFwj.s:4622   .debug_str:00000000000009ce .LASF206
     /tmp/ccAUwFwj.s:4184   .debug_loc:0000000000000305 .LLST9
     /tmp/ccAUwFwj.s:387    .text:000000000000023c .LBB18
     /tmp/ccAUwFwj.s:395    .text:0000000000000244 .LBE18
     /tmp/ccAUwFwj.s:4191   .debug_loc:0000000000000328 .LLST10
     /tmp/ccAUwFwj.s:4199   .debug_loc:000000000000034c .LLST11
     /tmp/ccAUwFwj.s:369    .text:000000000000020c .LVL26
     /tmp/ccAUwFwj.s:376    .text:0000000000000228 .LVL27
     /tmp/ccAUwFwj.s:400    .text:0000000000000250 .LVL30
     /tmp/ccAUwFwj.s:405    .text:0000000000000260 .LVL31
     /tmp/ccAUwFwj.s:413    .text:0000000000000280 .LVL33
     /tmp/ccAUwFwj.s:423    .text:0000000000000294 .LVL34
     /tmp/ccAUwFwj.s:428    .text:00000000000002a0 .LVL35
     /tmp/ccAUwFwj.s:433    .text:00000000000002b0 .LVL36
     /tmp/ccAUwFwj.s:440    .text:00000000000002d0 .LVL37
     /tmp/ccAUwFwj.s:447    .text:00000000000002e0 .LVL38
     /tmp/ccAUwFwj.s:4336   .debug_str:000000000000004c .LASF208
     /tmp/ccAUwFwj.s:4406   .debug_str:00000000000002bc .LASF211
     /tmp/ccAUwFwj.s:298    .text:00000000000001b4 .LFB34
     /tmp/ccAUwFwj.s:330    .text:00000000000001e0 .LFE34
     /tmp/ccAUwFwj.s:4206   .debug_loc:000000000000036f .LLST8
GAS LISTING /tmp/ccAUwFwj.s 			page 38


     /tmp/ccAUwFwj.s:318    .text:00000000000001d0 .LVL25
     /tmp/ccAUwFwj.s:262    .text:000000000000017c .LFB32
     /tmp/ccAUwFwj.s:292    .text:00000000000001b4 .LFE32
     /tmp/ccAUwFwj.s:4220   .debug_loc:00000000000003a8 .LLST7
     /tmp/ccAUwFwj.s:281    .text:00000000000001a4 .LVL22
     /tmp/ccAUwFwj.s:227    .text:0000000000000148 .LFB31
     /tmp/ccAUwFwj.s:256    .text:000000000000017c .LFE31
     /tmp/ccAUwFwj.s:4402   .debug_str:00000000000002a1 .LASF209
     /tmp/ccAUwFwj.s:4238   .debug_loc:00000000000003f4 .LLST6
     /tmp/ccAUwFwj.s:245    .text:000000000000016c .LVL19
     /tmp/ccAUwFwj.s:133    .text:00000000000000bc .LFB30
     /tmp/ccAUwFwj.s:221    .text:0000000000000148 .LFE30
     /tmp/ccAUwFwj.s:4252   .debug_loc:000000000000042d .LLST2
     /tmp/ccAUwFwj.s:153    .text:00000000000000dc .LBB13
     /tmp/ccAUwFwj.s:161    .text:00000000000000e0 .LBE13
     /tmp/ccAUwFwj.s:4263   .debug_loc:0000000000000463 .LLST3
     /tmp/ccAUwFwj.s:175    .text:00000000000000fc .LBB15
     /tmp/ccAUwFwj.s:183    .text:0000000000000104 .LBE15
     /tmp/ccAUwFwj.s:4270   .debug_loc:0000000000000486 .LLST4
     /tmp/ccAUwFwj.s:4278   .debug_loc:00000000000004aa .LLST5
     /tmp/ccAUwFwj.s:169    .text:00000000000000f0 .LVL9
     /tmp/ccAUwFwj.s:187    .text:000000000000010c .LVL12
     /tmp/ccAUwFwj.s:195    .text:0000000000000120 .LVL13
     /tmp/ccAUwFwj.s:218    .text:0000000000000144 .LVL16
     /tmp/ccAUwFwj.s:10     .text:0000000000000000 .LFB29
     /tmp/ccAUwFwj.s:48     .text:0000000000000044 .LFE29
     /tmp/ccAUwFwj.s:25     .text:0000000000000018 .LVL0
     /tmp/ccAUwFwj.s:37     .text:0000000000000034 .LVL2
     /tmp/ccAUwFwj.s:101    .text:0000000000000094 .LFB28
     /tmp/ccAUwFwj.s:127    .text:00000000000000bc .LFE28
     /tmp/ccAUwFwj.s:4285   .debug_loc:00000000000004cd .LLST1
     /tmp/ccAUwFwj.s:116    .text:00000000000000ac .LVL6
     /tmp/ccAUwFwj.s:4540   .debug_str:00000000000006ec .LASF210
     /tmp/ccAUwFwj.s:4580   .debug_str:0000000000000861 .LASF212
     /tmp/ccAUwFwj.s:54     .text:0000000000000044 .LFB26
     /tmp/ccAUwFwj.s:93     .text:0000000000000094 .LFE26
     /tmp/ccAUwFwj.s:4299   .debug_loc:0000000000000506 .LLST0
     /tmp/ccAUwFwj.s:4638   .debug_str:0000000000000a3e .LASF213
     /tmp/ccAUwFwj.s:4450   .debug_str:0000000000000422 .LASF215
     /tmp/ccAUwFwj.s:4520   .debug_str:0000000000000647 .LASF214
     /tmp/ccAUwFwj.s:4454   .debug_str:000000000000043a .LASF216
     /tmp/ccAUwFwj.s:4460   .debug_str:0000000000000470 .LASF217
     /tmp/ccAUwFwj.s:4368   .debug_str:0000000000000173 .LASF218
     /tmp/ccAUwFwj.s:4458   .debug_str:000000000000044c .LASF219
     /tmp/ccAUwFwj.s:4420   .debug_str:0000000000000320 .LASF220
     /tmp/ccAUwFwj.s:4680   .debug_str:0000000000000b65 .LASF221
     /tmp/ccAUwFwj.s:4500   .debug_str:000000000000059b .LASF222
     /tmp/ccAUwFwj.s:983    .text:0000000000000594 .LVL79
     /tmp/ccAUwFwj.s:1016   .text:00000000000005c8 .LVL83
     /tmp/ccAUwFwj.s:1020   .text:00000000000005d0 .LVL84
     /tmp/ccAUwFwj.s:886    .text:0000000000000510 .LVL69
     /tmp/ccAUwFwj.s:938    .text:0000000000000568 .LVL76
     /tmp/ccAUwFwj.s:945    .text:0000000000000574 .LVL78
     /tmp/ccAUwFwj.s:892    .text:0000000000000514 .LVL70
     /tmp/ccAUwFwj.s:941    .text:000000000000056c .LVL77
     /tmp/ccAUwFwj.s:880    .text:000000000000050c .LVL68
     /tmp/ccAUwFwj.s:935    .text:0000000000000564 .LVL75
GAS LISTING /tmp/ccAUwFwj.s 			page 39


     /tmp/ccAUwFwj.s:932    .text:0000000000000560 .LVL74
     /tmp/ccAUwFwj.s:804    .text:00000000000004b8 .LVL64
     /tmp/ccAUwFwj.s:834    .text:00000000000004e0 .LVL67
     /tmp/ccAUwFwj.s:704    .text:000000000000042c .LVL53
     /tmp/ccAUwFwj.s:761    .text:0000000000000490 .LVL61
     /tmp/ccAUwFwj.s:768    .text:000000000000049c .LVL63
     /tmp/ccAUwFwj.s:710    .text:0000000000000430 .LVL54
     /tmp/ccAUwFwj.s:764    .text:0000000000000494 .LVL62
     /tmp/ccAUwFwj.s:698    .text:0000000000000428 .LVL52
     /tmp/ccAUwFwj.s:758    .text:000000000000048c .LVL60
     /tmp/ccAUwFwj.s:755    .text:0000000000000488 .LVL59
     /tmp/ccAUwFwj.s:614    .text:00000000000003b4 .LVL46
     /tmp/ccAUwFwj.s:626    .text:00000000000003d4 .LVL47
     /tmp/ccAUwFwj.s:632    .text:00000000000003d8 .LVL48
     /tmp/ccAUwFwj.s:521    .text:0000000000000344 .LVL41
     /tmp/ccAUwFwj.s:528    .text:000000000000034c .LVL42
     /tmp/ccAUwFwj.s:475    .text:0000000000000300 .LVL39
     /tmp/ccAUwFwj.s:485    .text:0000000000000310 .LVL40
     /tmp/ccAUwFwj.s:407    .text:0000000000000264 .LVL32
     /tmp/ccAUwFwj.s:386    .text:000000000000023c .LVL28
     /tmp/ccAUwFwj.s:393    .text:0000000000000244 .LVL29
     /tmp/ccAUwFwj.s:303    .text:00000000000001b4 .LVL23
     /tmp/ccAUwFwj.s:316    .text:00000000000001c8 .LVL24
     /tmp/ccAUwFwj.s:265    .text:000000000000017c .LVL20
     /tmp/ccAUwFwj.s:279    .text:000000000000019c .LVL21
     /tmp/ccAUwFwj.s:230    .text:0000000000000148 .LVL17
     /tmp/ccAUwFwj.s:243    .text:0000000000000164 .LVL18
     /tmp/ccAUwFwj.s:151    .text:00000000000000dc .LVL7
     /tmp/ccAUwFwj.s:205    .text:000000000000012c .LVL14
     /tmp/ccAUwFwj.s:211    .text:0000000000000138 .LVL15
     /tmp/ccAUwFwj.s:159    .text:00000000000000e0 .LVL8
     /tmp/ccAUwFwj.s:174    .text:00000000000000fc .LVL10
     /tmp/ccAUwFwj.s:181    .text:0000000000000104 .LVL11
     /tmp/ccAUwFwj.s:104    .text:0000000000000094 .LVL5
     /tmp/ccAUwFwj.s:57     .text:0000000000000044 .LVL3
     /tmp/ccAUwFwj.s:75     .text:0000000000000070 .LVL4
     /tmp/ccAUwFwj.s:1071   .debug_info:0000000000000000 .Ldebug_info0
     /tmp/ccAUwFwj.s:333    .gcc_except_table:0000000000000000 .LLSDA34

UNDEFINED SYMBOLS
_ZN5Riscv10popSppSpieEv
_Z11thread_exitv
_ZN9Scheduler3putEP3PCB
_ZN9Scheduler3getEv
_ZN5Riscv14changePrivModeEv
_ZN3PCB13contextSwitchEPNS_7ContextES1_
_ZN5Riscv8pcbCacheE
_Z16kmem_cache_allocP12kmem_cache_s
_Z15kmem_cache_freeP12kmem_cache_sPv
_Z5kfreePKv
__gxx_personality_v0
_Z7kmallocm
_ZN8KConsole23sendCharactersToConsoleEPv
_ZN5Riscv15userMainWrapperEPv
_ZN5Riscv13w_a0_sscratchEv
_ZN5Riscv9totalTimeE
_ZN12SleepPCBList17insertSleepingPCBEv
GAS LISTING /tmp/ccAUwFwj.s 			page 40


