GAS LISTING /tmp/ccnTwBrJ.s 			page 1


   1              		.file	"Riscv.cpp"
   2              		.option pic
   3              		.option norelax
   4              		.text
   5              	.Ltext0:
   6              		.align	2
   7              		.globl	_ZN5Riscv10initSystemEv
   9              	_ZN5Riscv10initSystemEv:
  10              	.LFB27:
  11              		.file 1 "src/Riscv.cpp"
   1:src/Riscv.cpp **** //
   2:src/Riscv.cpp **** // Created by os on 4/27/22.
   3:src/Riscv.cpp **** //
   4:src/Riscv.cpp **** 
   5:src/Riscv.cpp **** #include "../h/Riscv.hpp"
   6:src/Riscv.cpp **** #include "../h/MemoryAllocator.hpp"
   7:src/Riscv.cpp **** #include "../h/PCB.hpp"
   8:src/Riscv.cpp **** #include "../h/syscall_cpp.hpp"
   9:src/Riscv.cpp **** #include "../h/SleepPCBList.hpp"
  10:src/Riscv.cpp **** #include "../h/KConsole.hpp"
  11:src/Riscv.cpp **** #include "../h/Scheduler.hpp"
  12:src/Riscv.cpp **** 
  13:src/Riscv.cpp **** uint64 Riscv::totalTime = 0;
  14:src/Riscv.cpp **** bool Riscv::finishSystem = false;
  15:src/Riscv.cpp **** bool Riscv::kernelMainCalled = false;
  16:src/Riscv.cpp **** 
  17:src/Riscv.cpp **** void Riscv::initSystem()
  18:src/Riscv.cpp **** {
  12              		.loc 1 18 1
  13              		.cfi_startproc
  14 0000 130101FF 		addi	sp,sp,-16
  15              		.cfi_def_cfa_offset 16
  16 0004 23341100 		sd	ra,8(sp)
  17 0008 23308100 		sd	s0,0(sp)
  18              		.cfi_offset 1, -8
  19              		.cfi_offset 8, -16
  20 000c 13040101 		addi	s0,sp,16
  21              		.cfi_def_cfa 8, 0
  19:src/Riscv.cpp ****     w_stvec((uint64)&Riscv::supervisorTrap);
  22              		.loc 1 19 5
  23              		.loc 1 19 12 is_stmt 0
  24 0010 97070000 		la	a5,_ZN5Riscv14supervisorTrapEv
  24      83B70700 
  25              	.LVL0:
  26              	.LBB38:
  27              	.LBB39:
  28              		.file 2 "src/../h/Riscv.hpp"
   1:src/../h/Riscv.hpp **** //
   2:src/../h/Riscv.hpp **** // Created by os on 4/27/22.
   3:src/../h/Riscv.hpp **** //
   4:src/../h/Riscv.hpp **** 
   5:src/../h/Riscv.hpp **** #ifndef PROJECT_BASE_V1_0_RISCV_HPP
   6:src/../h/Riscv.hpp **** #define PROJECT_BASE_V1_0_RISCV_HPP
   7:src/../h/Riscv.hpp **** 
   8:src/../h/Riscv.hpp **** #include "../lib/hw.h"
   9:src/../h/Riscv.hpp **** #include "../test/userMain.hpp"
  10:src/../h/Riscv.hpp **** 
GAS LISTING /tmp/ccnTwBrJ.s 			page 2


  11:src/../h/Riscv.hpp **** class Riscv
  12:src/../h/Riscv.hpp **** {
  13:src/../h/Riscv.hpp **** public:
  14:src/../h/Riscv.hpp ****     static void kernelMain();
  15:src/../h/Riscv.hpp **** private:
  16:src/../h/Riscv.hpp ****     static bool kernelMainCalled;
  17:src/../h/Riscv.hpp ****     static void changePrivMode();
  18:src/../h/Riscv.hpp **** 
  19:src/../h/Riscv.hpp ****     static void initSystem();
  20:src/../h/Riscv.hpp ****     static void endSystem();
  21:src/../h/Riscv.hpp **** 
  22:src/../h/Riscv.hpp ****     static void userMainWrapper(void* p);
  23:src/../h/Riscv.hpp **** 
  24:src/../h/Riscv.hpp ****     static void enableInterrupts();
  25:src/../h/Riscv.hpp **** 
  26:src/../h/Riscv.hpp ****     static void disableTimerInterrupts();
  27:src/../h/Riscv.hpp **** 
  28:src/../h/Riscv.hpp ****     static void disableInterrupts();
  29:src/../h/Riscv.hpp **** 
  30:src/../h/Riscv.hpp ****     static void pushRegisters();
  31:src/../h/Riscv.hpp ****     static void popRegisters();
  32:src/../h/Riscv.hpp **** 
  33:src/../h/Riscv.hpp ****     static uint64 r_scause();
  34:src/../h/Riscv.hpp ****     static void w_scause(uint64 scause);
  35:src/../h/Riscv.hpp **** 
  36:src/../h/Riscv.hpp ****     static uint64 r_sepc();
  37:src/../h/Riscv.hpp ****     static void w_sepc(uint64 sepc);
  38:src/../h/Riscv.hpp **** 
  39:src/../h/Riscv.hpp ****     static uint64 r_stvec();
  40:src/../h/Riscv.hpp ****     static void w_stvec(uint64 stvec);
  41:src/../h/Riscv.hpp **** 
  42:src/../h/Riscv.hpp ****     static uint64 r_stval();
  43:src/../h/Riscv.hpp ****     static void w_stval(uint64 stval);
  44:src/../h/Riscv.hpp **** 
  45:src/../h/Riscv.hpp ****     static bool finishSystem;
  46:src/../h/Riscv.hpp **** 
  47:src/../h/Riscv.hpp ****     enum BitMaskSip
  48:src/../h/Riscv.hpp ****     {
  49:src/../h/Riscv.hpp ****         SIP_SSIP = (1 << 1),
  50:src/../h/Riscv.hpp ****         SIP_STIP = (1 << 5),
  51:src/../h/Riscv.hpp ****         SIP_SEIP = (1 << 9),
  52:src/../h/Riscv.hpp ****     };
  53:src/../h/Riscv.hpp **** 
  54:src/../h/Riscv.hpp ****     static void ms_sip(uint64 mask);
  55:src/../h/Riscv.hpp **** 
  56:src/../h/Riscv.hpp ****     static void mc_sip(uint64 mask);
  57:src/../h/Riscv.hpp **** 
  58:src/../h/Riscv.hpp ****     static uint64 r_sip();
  59:src/../h/Riscv.hpp **** 
  60:src/../h/Riscv.hpp ****     static void w_sip(uint64 sip);
  61:src/../h/Riscv.hpp **** 
  62:src/../h/Riscv.hpp ****     enum BitMaskSstatus
  63:src/../h/Riscv.hpp ****     {
  64:src/../h/Riscv.hpp ****         SSTATUS_SIE = (1 << 1),
  65:src/../h/Riscv.hpp ****         SSTATUS_SPIE = (1 << 5),
  66:src/../h/Riscv.hpp ****         SSTATUS_SPP = (1 << 8),
  67:src/../h/Riscv.hpp ****     };
GAS LISTING /tmp/ccnTwBrJ.s 			page 3


  68:src/../h/Riscv.hpp **** 
  69:src/../h/Riscv.hpp ****     static void w_a0_sscratch();
  70:src/../h/Riscv.hpp **** 
  71:src/../h/Riscv.hpp ****     static void ms_sstatus(uint64 mask);
  72:src/../h/Riscv.hpp **** 
  73:src/../h/Riscv.hpp ****     static void mc_sstatus(uint64 mask);
  74:src/../h/Riscv.hpp **** 
  75:src/../h/Riscv.hpp ****     static void mc_sie(uint64 mask);
  76:src/../h/Riscv.hpp **** 
  77:src/../h/Riscv.hpp ****     static void ms_sie(uint64 mask);
  78:src/../h/Riscv.hpp **** 
  79:src/../h/Riscv.hpp ****     static uint64 r_sstatus();
  80:src/../h/Riscv.hpp **** 
  81:src/../h/Riscv.hpp ****     static void w_sstatus(uint64 sstatus);
  82:src/../h/Riscv.hpp **** 
  83:src/../h/Riscv.hpp ****     static uint64 r_sie();
  84:src/../h/Riscv.hpp ****     static void w_sie(uint64 sie);
  85:src/../h/Riscv.hpp ****     static void popSppSpie();
  86:src/../h/Riscv.hpp **** 
  87:src/../h/Riscv.hpp ****     static void supervisorTrap();
  88:src/../h/Riscv.hpp ****     static void handleSupervisorTrap();
  89:src/../h/Riscv.hpp **** 
  90:src/../h/Riscv.hpp ****     static const uint64 bntOne = 1UL << 63;;
  91:src/../h/Riscv.hpp ****     static const uint64 bntZero = 0UL;
  92:src/../h/Riscv.hpp ****     static const uint64 timerInterrupt = bntOne + 1UL;
  93:src/../h/Riscv.hpp ****     static const uint64 hwInterrupt = bntOne + 9UL;
  94:src/../h/Riscv.hpp ****     static const uint64 operationInterrupt = bntZero + 2UL;
  95:src/../h/Riscv.hpp ****     static const uint64 addrReadInterrupt = bntZero + 5UL;
  96:src/../h/Riscv.hpp ****     static const uint64 addrWriteInterrupt = bntZero + 7UL;
  97:src/../h/Riscv.hpp ****     static const uint64 ecallUserInterrupt = bntZero + 8UL;
  98:src/../h/Riscv.hpp ****     static const uint64 ecallSystemInterupt = bntZero + 9UL;
  99:src/../h/Riscv.hpp **** 
 100:src/../h/Riscv.hpp ****     static uint64 totalTime;
 101:src/../h/Riscv.hpp **** 
 102:src/../h/Riscv.hpp ****     friend class PCB;
 103:src/../h/Riscv.hpp ****     friend class Scheduler;
 104:src/../h/Riscv.hpp ****     friend class SleepPCBList;
 105:src/../h/Riscv.hpp ****     friend class KSemaphore;
 106:src/../h/Riscv.hpp ****     friend class KConsole;
 107:src/../h/Riscv.hpp ****     friend class MemoryAllocator;
 108:src/../h/Riscv.hpp **** };
 109:src/../h/Riscv.hpp **** 
 110:src/../h/Riscv.hpp **** inline void Riscv::mc_sie(uint64 mask)
 111:src/../h/Riscv.hpp **** {
 112:src/../h/Riscv.hpp ****     __asm__ volatile("csrc sie, %0" : :"r"(mask));
 113:src/../h/Riscv.hpp **** }
 114:src/../h/Riscv.hpp **** 
 115:src/../h/Riscv.hpp **** inline uint64 Riscv::r_scause() {
 116:src/../h/Riscv.hpp ****     uint64 volatile scause;
 117:src/../h/Riscv.hpp ****     __asm__ volatile("csrr %0, scause" : "=r"(scause));
 118:src/../h/Riscv.hpp ****     return scause;
 119:src/../h/Riscv.hpp **** }
 120:src/../h/Riscv.hpp **** 
 121:src/../h/Riscv.hpp **** inline void Riscv::w_scause(uint64 scause) {
 122:src/../h/Riscv.hpp ****     __asm__ volatile("csrw scause, %0" : :"r"(scause));
 123:src/../h/Riscv.hpp **** }
 124:src/../h/Riscv.hpp **** 
GAS LISTING /tmp/ccnTwBrJ.s 			page 4


 125:src/../h/Riscv.hpp **** inline uint64 Riscv::r_sepc() {
 126:src/../h/Riscv.hpp ****     uint64 volatile sepc;
 127:src/../h/Riscv.hpp ****     __asm__ volatile("csrr %0, sepc" : "=r"(sepc));
 128:src/../h/Riscv.hpp ****     return sepc;
 129:src/../h/Riscv.hpp **** }
 130:src/../h/Riscv.hpp **** 
 131:src/../h/Riscv.hpp **** inline void Riscv::w_sepc(uint64 sepc) {
 132:src/../h/Riscv.hpp ****     __asm__ volatile("csrw sepc, %0" : :"r"(sepc));
 133:src/../h/Riscv.hpp **** }
 134:src/../h/Riscv.hpp **** 
 135:src/../h/Riscv.hpp **** inline uint64 Riscv::r_stvec() {
 136:src/../h/Riscv.hpp ****     uint64 volatile stvec;
 137:src/../h/Riscv.hpp ****     __asm__ volatile("csrr %0, stvec" : "=r"(stvec));
 138:src/../h/Riscv.hpp ****     return stvec;
 139:src/../h/Riscv.hpp **** }
 140:src/../h/Riscv.hpp **** 
 141:src/../h/Riscv.hpp **** inline void Riscv::w_stvec(uint64 stvec) {
 142:src/../h/Riscv.hpp ****     __asm__ volatile("csrw stvec, %0" : :"r"(stvec));
  29              		.loc 2 142 5 is_stmt 1
  30              		.loc 2 142 53 is_stmt 0
  31              	#APP
  32              	# 142 "src/../h/Riscv.hpp" 1
 143              	}
  33              		csrw stvec, a5
  34              	# 0 "" 2
  35              	.LVL1:
  36              	#NO_APP
  37              	.LBE39:
  38              	.LBE38:
  20:src/Riscv.cpp ****     PCB::initialize();
  39              		.loc 1 20 5 is_stmt 1
  40              		.loc 1 20 20 is_stmt 0
  41 001c 97000000 		call	_ZN3PCB10initializeEv@plt
  41      E7800000 
  42              	.LVL2:
  21:src/Riscv.cpp ****     KConsole::initialize();
  43              		.loc 1 21 5 is_stmt 1
  44              		.loc 1 21 25 is_stmt 0
  45 0024 97000000 		call	_ZN8KConsole10initializeEv@plt
  45      E7800000 
  46              	.LVL3:
  22:src/Riscv.cpp **** }
  47              		.loc 1 22 1
  48 002c 83308100 		ld	ra,8(sp)
  49              		.cfi_restore 1
  50 0030 03340100 		ld	s0,0(sp)
  51              		.cfi_restore 8
  52              		.cfi_def_cfa 2, 16
  53 0034 13010101 		addi	sp,sp,16
  54              		.cfi_def_cfa_offset 0
  55 0038 67800000 		jr	ra
  56              		.cfi_endproc
  57              	.LFE27:
  59              		.align	2
  60              		.globl	_ZN5Riscv16enableInterruptsEv
  62              	_ZN5Riscv16enableInterruptsEv:
  63              	.LFB29:
GAS LISTING /tmp/ccnTwBrJ.s 			page 5


  23:src/Riscv.cpp **** 
  24:src/Riscv.cpp **** void Riscv::endSystem()
  25:src/Riscv.cpp **** {
  26:src/Riscv.cpp ****     disableInterrupts();
  27:src/Riscv.cpp ****     finishSystem = true;
  28:src/Riscv.cpp ****     PCB* pcb = 0;
  29:src/Riscv.cpp ****     while(true)
  30:src/Riscv.cpp ****     {
  31:src/Riscv.cpp ****         pcb = Scheduler::get();
  32:src/Riscv.cpp ****         if(pcb == 0) break;
  33:src/Riscv.cpp ****     }
  34:src/Riscv.cpp ****     Scheduler::put(PCB::consolePCB);
  35:src/Riscv.cpp ****     KConsole::pendingGetc = 0;
  36:src/Riscv.cpp ****     enableInterrupts();
  37:src/Riscv.cpp ****     while(!PCB::consolePCB->isFinished())
  38:src/Riscv.cpp ****     {
  39:src/Riscv.cpp ****         thread_dispatch();
  40:src/Riscv.cpp ****     }
  41:src/Riscv.cpp ****     disableInterrupts();
  42:src/Riscv.cpp **** }
  43:src/Riscv.cpp **** 
  44:src/Riscv.cpp **** void Riscv::enableInterrupts() {
  64              		.loc 1 44 32 is_stmt 1
  65              		.cfi_startproc
  66 003c 130101FF 		addi	sp,sp,-16
  67              		.cfi_def_cfa_offset 16
  68 0040 23348100 		sd	s0,8(sp)
  69              		.cfi_offset 8, -8
  70 0044 13040101 		addi	s0,sp,16
  71              		.cfi_def_cfa 8, 0
  45:src/Riscv.cpp ****     ms_sstatus(Riscv::SSTATUS_SIE);
  72              		.loc 1 45 5
  73              	.LVL4:
  74              	.LBB40:
  75              	.LBB41:
 144:src/../h/Riscv.hpp **** 
 145:src/../h/Riscv.hpp **** inline uint64 Riscv::r_stval() {
 146:src/../h/Riscv.hpp ****     uint64 volatile stval;
 147:src/../h/Riscv.hpp ****     __asm__ volatile("csrr %0, stval" : "=r"(stval));
 148:src/../h/Riscv.hpp ****     return stval;
 149:src/../h/Riscv.hpp **** }
 150:src/../h/Riscv.hpp **** 
 151:src/../h/Riscv.hpp **** inline void Riscv::w_sie(uint64 sie)
 152:src/../h/Riscv.hpp **** {
 153:src/../h/Riscv.hpp ****     __asm__ volatile("csrw sie, %0" : :"r"(sie));
 154:src/../h/Riscv.hpp **** }
 155:src/../h/Riscv.hpp **** 
 156:src/../h/Riscv.hpp **** inline void Riscv::w_stval(uint64 stval) {
 157:src/../h/Riscv.hpp ****     __asm__ volatile("csrw stval, %0" : :"r"(stval));
 158:src/../h/Riscv.hpp **** }
 159:src/../h/Riscv.hpp **** 
 160:src/../h/Riscv.hpp **** inline void Riscv::ms_sip(uint64 mask) {
 161:src/../h/Riscv.hpp ****     __asm__ volatile("csrs sip, %0" : :"r"(mask));
 162:src/../h/Riscv.hpp **** }
 163:src/../h/Riscv.hpp **** 
 164:src/../h/Riscv.hpp **** inline void Riscv::mc_sip(uint64 mask) {
 165:src/../h/Riscv.hpp ****     __asm__ volatile("csrc sip, %0" : :"r"(mask));
GAS LISTING /tmp/ccnTwBrJ.s 			page 6


 166:src/../h/Riscv.hpp **** }
 167:src/../h/Riscv.hpp **** 
 168:src/../h/Riscv.hpp **** inline uint64 Riscv::r_sie()
 169:src/../h/Riscv.hpp **** {
 170:src/../h/Riscv.hpp ****     uint64 volatile sie;
 171:src/../h/Riscv.hpp ****     __asm__ volatile("csrr %0, sip" : "=r"(sie));
 172:src/../h/Riscv.hpp ****     return sie;
 173:src/../h/Riscv.hpp **** }
 174:src/../h/Riscv.hpp **** 
 175:src/../h/Riscv.hpp **** inline void Riscv::ms_sie(uint64 mask)
 176:src/../h/Riscv.hpp **** {
 177:src/../h/Riscv.hpp ****     __asm__ volatile("csrs sie, %0" : :"r"(mask));
 178:src/../h/Riscv.hpp **** }
 179:src/../h/Riscv.hpp **** 
 180:src/../h/Riscv.hpp **** inline uint64 Riscv::r_sip() {
 181:src/../h/Riscv.hpp ****     uint64 volatile sip;
 182:src/../h/Riscv.hpp ****     __asm__ volatile("csrr %0, sip" : "=r"(sip));
 183:src/../h/Riscv.hpp ****     return sip;
 184:src/../h/Riscv.hpp **** }
 185:src/../h/Riscv.hpp **** 
 186:src/../h/Riscv.hpp **** inline void Riscv::w_sip(uint64 sip) {
 187:src/../h/Riscv.hpp ****     __asm__ volatile("csrw sip, %0" : :"r"(sip));
 188:src/../h/Riscv.hpp **** }
 189:src/../h/Riscv.hpp **** 
 190:src/../h/Riscv.hpp **** inline void Riscv::ms_sstatus(uint64 mask) {
 191:src/../h/Riscv.hpp ****     __asm__ volatile("csrs sstatus, %0" : :"r"(mask));
  76              		.loc 2 191 5
  77              		.loc 2 191 54 is_stmt 0
  78 0048 93072000 		li	a5,2
  79              	#APP
  80              	# 191 "src/../h/Riscv.hpp" 1
 192              	}
  81              		csrs sstatus, a5
  82              	# 0 "" 2
  83              	.LVL5:
  84              	#NO_APP
  85              	.LBE41:
  86              	.LBE40:
  46:src/Riscv.cpp **** }
  87              		.loc 1 46 1
  88 0050 03348100 		ld	s0,8(sp)
  89              		.cfi_restore 8
  90              		.cfi_def_cfa 2, 16
  91 0054 13010101 		addi	sp,sp,16
  92              		.cfi_def_cfa_offset 0
  93 0058 67800000 		jr	ra
  94              		.cfi_endproc
  95              	.LFE29:
  97              		.align	2
  98              		.globl	_ZN5Riscv17disableInterruptsEv
 100              	_ZN5Riscv17disableInterruptsEv:
 101              	.LFB30:
  47:src/Riscv.cpp **** 
  48:src/Riscv.cpp **** void Riscv::disableInterrupts()
  49:src/Riscv.cpp **** {
 102              		.loc 1 49 1 is_stmt 1
 103              		.cfi_startproc
GAS LISTING /tmp/ccnTwBrJ.s 			page 7


 104 005c 130101FF 		addi	sp,sp,-16
 105              		.cfi_def_cfa_offset 16
 106 0060 23348100 		sd	s0,8(sp)
 107              		.cfi_offset 8, -8
 108 0064 13040101 		addi	s0,sp,16
 109              		.cfi_def_cfa 8, 0
  50:src/Riscv.cpp ****     mc_sstatus(Riscv::SSTATUS_SIE);
 110              		.loc 1 50 5
 111              	.LVL6:
 112              	.LBB42:
 113              	.LBB43:
 193:src/../h/Riscv.hpp **** 
 194:src/../h/Riscv.hpp **** inline void Riscv::mc_sstatus(uint64 mask) {
 195:src/../h/Riscv.hpp ****     __asm__ volatile("csrc sstatus, %0" : :"r"(mask));
 114              		.loc 2 195 5
 115              		.loc 2 195 54 is_stmt 0
 116 0068 93072000 		li	a5,2
 117              	#APP
 118              	# 195 "src/../h/Riscv.hpp" 1
 196              	}
 119              		csrc sstatus, a5
 120              	# 0 "" 2
 121              	.LVL7:
 122              	#NO_APP
 123              	.LBE43:
 124              	.LBE42:
  51:src/Riscv.cpp **** }
 125              		.loc 1 51 1
 126 0070 03348100 		ld	s0,8(sp)
 127              		.cfi_restore 8
 128              		.cfi_def_cfa 2, 16
 129 0074 13010101 		addi	sp,sp,16
 130              		.cfi_def_cfa_offset 0
 131 0078 67800000 		jr	ra
 132              		.cfi_endproc
 133              	.LFE30:
 135              		.align	2
 136              		.globl	_ZN5Riscv9endSystemEv
 138              	_ZN5Riscv9endSystemEv:
 139              	.LFB28:
  25:src/Riscv.cpp ****     disableInterrupts();
 140              		.loc 1 25 1 is_stmt 1
 141              		.cfi_startproc
 142 007c 130101FF 		addi	sp,sp,-16
 143              		.cfi_def_cfa_offset 16
 144 0080 23341100 		sd	ra,8(sp)
 145 0084 23308100 		sd	s0,0(sp)
 146              		.cfi_offset 1, -8
 147              		.cfi_offset 8, -16
 148 0088 13040101 		addi	s0,sp,16
 149              		.cfi_def_cfa 8, 0
  26:src/Riscv.cpp ****     finishSystem = true;
 150              		.loc 1 26 5
  26:src/Riscv.cpp ****     finishSystem = true;
 151              		.loc 1 26 22 is_stmt 0
 152 008c 97000000 		call	_ZN5Riscv17disableInterruptsEv
 152      E7800000 
GAS LISTING /tmp/ccnTwBrJ.s 			page 8


 153              	.LVL8:
  27:src/Riscv.cpp ****     PCB* pcb = 0;
 154              		.loc 1 27 5 is_stmt 1
  27:src/Riscv.cpp ****     PCB* pcb = 0;
 155              		.loc 1 27 18 is_stmt 0
 156 0094 93071000 		li	a5,1
 157 0098 17070000 		sb	a5,.LANCHOR0,a4
 157      2300F700 
  28:src/Riscv.cpp ****     while(true)
 158              		.loc 1 28 5 is_stmt 1
 159              	.LVL9:
 160              	.L8:
  29:src/Riscv.cpp ****     {
 161              		.loc 1 29 5
  31:src/Riscv.cpp ****         if(pcb == 0) break;
 162              		.loc 1 31 9
  31:src/Riscv.cpp ****         if(pcb == 0) break;
 163              		.loc 1 31 29 is_stmt 0
 164 00a0 97000000 		call	_ZN9Scheduler3getEv@plt
 164      E7800000 
 165              	.LVL10:
  32:src/Riscv.cpp ****     }
 166              		.loc 1 32 9 is_stmt 1
 167 00a8 E31C05FE 		bnez	a0,.L8
  34:src/Riscv.cpp ****     KConsole::pendingGetc = 0;
 168              		.loc 1 34 5
  34:src/Riscv.cpp ****     KConsole::pendingGetc = 0;
 169              		.loc 1 34 19 is_stmt 0
 170 00ac 97070000 		la	a5,_ZN3PCB10consolePCBE
 170      83B70700 
 171 00b4 03B50700 		ld	a0,0(a5)
 172              	.LVL11:
 173 00b8 97000000 		call	_ZN9Scheduler3putEP3PCB@plt
 173      E7800000 
 174              	.LVL12:
  35:src/Riscv.cpp ****     enableInterrupts();
 175              		.loc 1 35 5 is_stmt 1
  35:src/Riscv.cpp ****     enableInterrupts();
 176              		.loc 1 35 27 is_stmt 0
 177 00c0 97070000 		la	a5,_ZN8KConsole11pendingGetcE
 177      83B70700 
 178 00c8 23B00700 		sd	zero,0(a5)
  36:src/Riscv.cpp ****     while(!PCB::consolePCB->isFinished())
 179              		.loc 1 36 5 is_stmt 1
  36:src/Riscv.cpp ****     while(!PCB::consolePCB->isFinished())
 180              		.loc 1 36 21 is_stmt 0
 181 00cc 97000000 		call	_ZN5Riscv16enableInterruptsEv
 181      E7800000 
 182              	.LVL13:
 183              	.L10:
  37:src/Riscv.cpp ****     {
 184              		.loc 1 37 5 is_stmt 1
  37:src/Riscv.cpp ****     {
 185              		.loc 1 37 11
  37:src/Riscv.cpp ****     {
 186              		.loc 1 37 39 is_stmt 0
 187 00d4 97070000 		la	a5,_ZN3PCB10consolePCBE
GAS LISTING /tmp/ccnTwBrJ.s 			page 9


 187      83B70700 
 188 00dc 03B50700 		ld	a0,0(a5)
 189 00e0 97000000 		call	_ZN3PCB10isFinishedEv@plt
 189      E7800000 
 190              	.LVL14:
  37:src/Riscv.cpp ****     {
 191              		.loc 1 37 11
 192 00e8 63180500 		bnez	a0,.L9
  39:src/Riscv.cpp ****     }
 193              		.loc 1 39 9 is_stmt 1
  39:src/Riscv.cpp ****     }
 194              		.loc 1 39 24 is_stmt 0
 195 00ec 97000000 		call	_Z15thread_dispatchv@plt
 195      E7800000 
 196              	.LVL15:
  37:src/Riscv.cpp ****     {
 197              		.loc 1 37 5
 198 00f4 6FF01FFE 		j	.L10
 199              	.L9:
  41:src/Riscv.cpp **** }
 200              		.loc 1 41 5 is_stmt 1
  41:src/Riscv.cpp **** }
 201              		.loc 1 41 22 is_stmt 0
 202 00f8 97000000 		call	_ZN5Riscv17disableInterruptsEv
 202      E7800000 
 203              	.LVL16:
  42:src/Riscv.cpp **** 
 204              		.loc 1 42 1
 205 0100 83308100 		ld	ra,8(sp)
 206              		.cfi_restore 1
 207 0104 03340100 		ld	s0,0(sp)
 208              		.cfi_restore 8
 209              		.cfi_def_cfa 2, 16
 210 0108 13010101 		addi	sp,sp,16
 211              		.cfi_def_cfa_offset 0
 212 010c 67800000 		jr	ra
 213              		.cfi_endproc
 214              	.LFE28:
 216              		.align	2
 217              		.globl	_ZN5Riscv10popSppSpieEv
 219              	_ZN5Riscv10popSppSpieEv:
 220              	.LFB31:
  52:src/Riscv.cpp **** 
  53:src/Riscv.cpp **** void Riscv::popSppSpie()
  54:src/Riscv.cpp **** {
 221              		.loc 1 54 1 is_stmt 1
 222              		.cfi_startproc
 223 0110 130101FF 		addi	sp,sp,-16
 224              		.cfi_def_cfa_offset 16
 225 0114 23348100 		sd	s0,8(sp)
 226              		.cfi_offset 8, -8
 227 0118 13040101 		addi	s0,sp,16
 228              		.cfi_def_cfa 8, 0
  55:src/Riscv.cpp ****     __asm__ volatile ("csrw sepc, ra");
 229              		.loc 1 55 5
 230              		.loc 1 55 39 is_stmt 0
 231              	#APP
GAS LISTING /tmp/ccnTwBrJ.s 			page 10


 232              	# 55 "src/Riscv.cpp" 1
  56              	    __asm__ volatile ("sret");
 233              		csrw sepc, ra
 234              	# 0 "" 2
 235              		.loc 1 56 5 is_stmt 1
 236              		.loc 1 56 30 is_stmt 0
 237              	# 56 "src/Riscv.cpp" 1
  57              	}
 238              		sret
 239              	# 0 "" 2
 240              		.loc 1 57 1
 241              	#NO_APP
 242 0124 03348100 		ld	s0,8(sp)
 243              		.cfi_restore 8
 244              		.cfi_def_cfa 2, 16
 245 0128 13010101 		addi	sp,sp,16
 246              		.cfi_def_cfa_offset 0
 247 012c 67800000 		jr	ra
 248              		.cfi_endproc
 249              	.LFE31:
 251              		.align	2
 252              		.globl	_ZN5Riscv10kernelMainEv
 254              	_ZN5Riscv10kernelMainEv:
 255              	.LFB33:
  58:src/Riscv.cpp **** 
  59:src/Riscv.cpp **** void Riscv::handleSupervisorTrap()
  60:src/Riscv.cpp **** {
  61:src/Riscv.cpp ****     __asm__ volatile("mv %0, a4" : "=r"(PCB::savedRegA4));
  62:src/Riscv.cpp ****     __asm__ volatile("csrr %0, sscratch":"=r"(PCB::running->sscratch));
  63:src/Riscv.cpp **** 
  64:src/Riscv.cpp ****     uint64 scause = Riscv::r_scause();
  65:src/Riscv.cpp **** 
  66:src/Riscv.cpp ****     switch(scause)
  67:src/Riscv.cpp ****     {
  68:src/Riscv.cpp ****         case timerInterrupt:
  69:src/Riscv.cpp ****         {
  70:src/Riscv.cpp ****             //KConsole::trapPrintString("timerInterrupt\n");
  71:src/Riscv.cpp ****             uint64 volatile sepc = Riscv::r_sepc();
  72:src/Riscv.cpp ****             uint64 volatile sstatus = Riscv::r_sstatus();
  73:src/Riscv.cpp ****             mc_sip(Riscv::SIP_SSIP);
  74:src/Riscv.cpp ****             //static uint64 total = 0;
  75:src/Riscv.cpp ****             totalTime++;
  76:src/Riscv.cpp ****             //KConsole::trapPrintInt(totalTime);
  77:src/Riscv.cpp **** 
  78:src/Riscv.cpp ****             PCB::timeSliceCounter++;
  79:src/Riscv.cpp ****             SleepPCBList::tryToWakePCBs();
  80:src/Riscv.cpp ****             if (PCB::timeSliceCounter >= PCB::running->getTimeSlice())
  81:src/Riscv.cpp ****             {
  82:src/Riscv.cpp ****                 PCB::timeSliceCounter = 0;
  83:src/Riscv.cpp ****                 PCB::dispatch();
  84:src/Riscv.cpp ****             }
  85:src/Riscv.cpp **** 
  86:src/Riscv.cpp ****             Riscv::w_sstatus(sstatus);
  87:src/Riscv.cpp ****             Riscv::w_sepc(sepc);
  88:src/Riscv.cpp ****             changePrivMode();
  89:src/Riscv.cpp ****             break;
  90:src/Riscv.cpp ****         }
GAS LISTING /tmp/ccnTwBrJ.s 			page 11


  91:src/Riscv.cpp ****         case hwInterrupt:
  92:src/Riscv.cpp ****         {
  93:src/Riscv.cpp ****             KConsole::getCharactersFromConsole();
  94:src/Riscv.cpp ****             plic_complete(plic_claim());
  95:src/Riscv.cpp ****             break;
  96:src/Riscv.cpp ****         }
  97:src/Riscv.cpp ****         case operationInterrupt:
  98:src/Riscv.cpp ****         {
  99:src/Riscv.cpp ****             PCB::threadExitHandler();
 100:src/Riscv.cpp ****             break;
 101:src/Riscv.cpp ****         }
 102:src/Riscv.cpp ****         case addrReadInterrupt:
 103:src/Riscv.cpp ****         {
 104:src/Riscv.cpp ****             PCB::threadExitHandler();
 105:src/Riscv.cpp ****             break;
 106:src/Riscv.cpp ****         }
 107:src/Riscv.cpp ****         case addrWriteInterrupt:
 108:src/Riscv.cpp ****         {
 109:src/Riscv.cpp ****             PCB::threadExitHandler();
 110:src/Riscv.cpp ****             break;
 111:src/Riscv.cpp ****         }
 112:src/Riscv.cpp ****         case ecallSystemInterupt:
 113:src/Riscv.cpp ****         case ecallUserInterrupt:
 114:src/Riscv.cpp ****         {
 115:src/Riscv.cpp ****             uint64 operation;
 116:src/Riscv.cpp ****             __asm__ volatile("mv %0, a0" :  "=r"(operation));
 117:src/Riscv.cpp **** 
 118:src/Riscv.cpp ****             uint64 volatile sepc = Riscv::r_sepc() + 4;
 119:src/Riscv.cpp ****             uint64 volatile sstatus = Riscv::r_sstatus();
 120:src/Riscv.cpp **** 
 121:src/Riscv.cpp ****             switch(operation)
 122:src/Riscv.cpp ****             {
 123:src/Riscv.cpp ****                 case MemoryAllocator::MEM_ALLOC:
 124:src/Riscv.cpp ****                     MemoryAllocator::memAllocHandler();
 125:src/Riscv.cpp ****                     break;
 126:src/Riscv.cpp ****                 case MemoryAllocator::MEM_FREE:
 127:src/Riscv.cpp ****                     MemoryAllocator::memFreeHandler();
 128:src/Riscv.cpp ****                     break;
 129:src/Riscv.cpp ****                 case PCB::THREAD_MAKE_PCB:
 130:src/Riscv.cpp ****                     PCB::threadMakePCBHandler();
 131:src/Riscv.cpp ****                     break;
 132:src/Riscv.cpp ****                 case PCB::THREAD_CREATE:
 133:src/Riscv.cpp ****                     PCB::threadCreateHandler();
 134:src/Riscv.cpp ****                     break;
 135:src/Riscv.cpp ****                 case PCB::THREAD_START:
 136:src/Riscv.cpp ****                     PCB::threadStartHandler();
 137:src/Riscv.cpp ****                     break;
 138:src/Riscv.cpp ****                 case PCB::THREAD_DISPATCH:
 139:src/Riscv.cpp ****                     PCB::threadDispatchHandler();
 140:src/Riscv.cpp ****                     break;
 141:src/Riscv.cpp ****                 case PCB::THREAD_EXIT:
 142:src/Riscv.cpp ****                     PCB::threadExitHandler();
 143:src/Riscv.cpp ****                     break;
 144:src/Riscv.cpp ****                 case PCB::TIME_SLEEP:
 145:src/Riscv.cpp ****                     PCB::threadSleepHandler();
 146:src/Riscv.cpp ****                     break;
 147:src/Riscv.cpp ****                 case PCB::THREAD_DEL_PCB:
GAS LISTING /tmp/ccnTwBrJ.s 			page 12


 148:src/Riscv.cpp ****                      PCB::threadDelPCBHandler();
 149:src/Riscv.cpp ****                      break;
 150:src/Riscv.cpp ****                 case KSemaphore::SEM_OPEN:
 151:src/Riscv.cpp ****                     KSemaphore::semOpenHandler();
 152:src/Riscv.cpp ****                     break;
 153:src/Riscv.cpp ****                 case KSemaphore::SEM_WAIT:
 154:src/Riscv.cpp ****                     KSemaphore::semWaitHandler();
 155:src/Riscv.cpp ****                     break;
 156:src/Riscv.cpp ****                 case KSemaphore::SEM_SIGNAL:
 157:src/Riscv.cpp ****                     KSemaphore::semSignalHandler();
 158:src/Riscv.cpp ****                     break;
 159:src/Riscv.cpp ****                 case KSemaphore::SEM_CLOSE:
 160:src/Riscv.cpp ****                     KSemaphore::semCloseHandler();
 161:src/Riscv.cpp ****                     break;
 162:src/Riscv.cpp ****                 case KConsole::CONSOLE_GETC:
 163:src/Riscv.cpp ****                     KConsole::getcHandler();
 164:src/Riscv.cpp ****                     break;
 165:src/Riscv.cpp ****                 case KConsole::CONSOLE_PUTC:
 166:src/Riscv.cpp ****                     KConsole::putcHandler();
 167:src/Riscv.cpp ****                     break;
 168:src/Riscv.cpp ****                 case KConsole::CONSOLE_GET_CHAR:
 169:src/Riscv.cpp ****                     KConsole::getCharHandler();
 170:src/Riscv.cpp ****                     break;
 171:src/Riscv.cpp ****             }
 172:src/Riscv.cpp **** 
 173:src/Riscv.cpp ****             Riscv::w_sstatus(sstatus);
 174:src/Riscv.cpp ****             Riscv::w_sepc(sepc);
 175:src/Riscv.cpp ****             changePrivMode();
 176:src/Riscv.cpp ****             break;
 177:src/Riscv.cpp ****         }
 178:src/Riscv.cpp ****     }
 179:src/Riscv.cpp **** }
 180:src/Riscv.cpp **** 
 181:src/Riscv.cpp **** void Riscv::kernelMain()
 182:src/Riscv.cpp **** {
 256              		.loc 1 182 1 is_stmt 1
 257              		.cfi_startproc
 183:src/Riscv.cpp ****     if(kernelMainCalled) return;
 258              		.loc 1 183 5
 259 0130 97070000 		lbu	a5,.LANCHOR0+1
 259      83C70700 
 260 0138 63840700 		beqz	a5,.L22
 261 013c 67800000 		ret
 262              	.L22:
 182:src/Riscv.cpp ****     if(kernelMainCalled) return;
 263              		.loc 1 182 1 is_stmt 0
 264 0140 130101FF 		addi	sp,sp,-16
 265              		.cfi_def_cfa_offset 16
 266 0144 23341100 		sd	ra,8(sp)
 267 0148 23308100 		sd	s0,0(sp)
 268              		.cfi_offset 1, -8
 269              		.cfi_offset 8, -16
 270 014c 13040101 		addi	s0,sp,16
 271              		.cfi_def_cfa 8, 0
 184:src/Riscv.cpp ****     kernelMainCalled = true;
 272              		.loc 1 184 5 is_stmt 1
 273              		.loc 1 184 22 is_stmt 0
GAS LISTING /tmp/ccnTwBrJ.s 			page 13


 274 0150 93071000 		li	a5,1
 275 0154 17070000 		sb	a5,.LANCHOR0+1,a4
 275      2300F700 
 185:src/Riscv.cpp **** 
 186:src/Riscv.cpp ****     initSystem();
 276              		.loc 1 186 5 is_stmt 1
 277              		.loc 1 186 15 is_stmt 0
 278 015c 97000000 		call	_ZN5Riscv10initSystemEv
 278      E7800000 
 279              	.LVL17:
 187:src/Riscv.cpp **** 
 188:src/Riscv.cpp ****     //disableTimerInterrupts();
 189:src/Riscv.cpp ****     enableInterrupts();
 280              		.loc 1 189 5 is_stmt 1
 281              		.loc 1 189 21 is_stmt 0
 282 0164 97000000 		call	_ZN5Riscv16enableInterruptsEv
 282      E7800000 
 283              	.LVL18:
 284              	.L17:
 190:src/Riscv.cpp **** 
 191:src/Riscv.cpp ****     while(!PCB::userPCB->isFinished())
 285              		.loc 1 191 5 is_stmt 1
 286              		.loc 1 191 11
 287              		.loc 1 191 36 is_stmt 0
 288 016c 97070000 		la	a5,_ZN3PCB7userPCBE
 288      83B70700 
 289 0174 03B50700 		ld	a0,0(a5)
 290 0178 97000000 		call	_ZN3PCB10isFinishedEv@plt
 290      E7800000 
 291              	.LVL19:
 292              		.loc 1 191 11
 293 0180 63180500 		bnez	a0,.L16
 192:src/Riscv.cpp ****     {
 193:src/Riscv.cpp ****         thread_dispatch();
 294              		.loc 1 193 9 is_stmt 1
 295              		.loc 1 193 24 is_stmt 0
 296 0184 97000000 		call	_Z15thread_dispatchv@plt
 296      E7800000 
 297              	.LVL20:
 191:src/Riscv.cpp ****     {
 298              		.loc 1 191 5
 299 018c 6FF01FFE 		j	.L17
 300              	.L16:
 194:src/Riscv.cpp ****     }
 195:src/Riscv.cpp **** 
 196:src/Riscv.cpp ****     //printString("End...\n");
 197:src/Riscv.cpp ****     endSystem();
 301              		.loc 1 197 5 is_stmt 1
 302              		.loc 1 197 14 is_stmt 0
 303 0190 97000000 		call	_ZN5Riscv9endSystemEv
 303      E7800000 
 304              	.LVL21:
 198:src/Riscv.cpp **** }
 305              		.loc 1 198 1
 306 0198 83308100 		ld	ra,8(sp)
 307              		.cfi_restore 1
 308 019c 03340100 		ld	s0,0(sp)
GAS LISTING /tmp/ccnTwBrJ.s 			page 14


 309              		.cfi_restore 8
 310              		.cfi_def_cfa 2, 16
 311 01a0 13010101 		addi	sp,sp,16
 312              		.cfi_def_cfa_offset 0
 313 01a4 67800000 		jr	ra
 314              		.cfi_endproc
 315              	.LFE33:
 317              		.align	2
 318              		.globl	_ZN5Riscv15userMainWrapperEPv
 320              	_ZN5Riscv15userMainWrapperEPv:
 321              	.LFB34:
 199:src/Riscv.cpp **** 
 200:src/Riscv.cpp **** void Riscv::userMainWrapper(void* )
 201:src/Riscv.cpp **** {
 322              		.loc 1 201 1 is_stmt 1
 323              		.cfi_startproc
 324 01a8 130101FF 		addi	sp,sp,-16
 325              		.cfi_def_cfa_offset 16
 326 01ac 23341100 		sd	ra,8(sp)
 327 01b0 23308100 		sd	s0,0(sp)
 328              		.cfi_offset 1, -8
 329              		.cfi_offset 8, -16
 330 01b4 13040101 		addi	s0,sp,16
 331              		.cfi_def_cfa 8, 0
 202:src/Riscv.cpp ****     userMain();
 332              		.loc 1 202 5
 333              		.loc 1 202 13 is_stmt 0
 334 01b8 97000000 		call	_Z8userMainv@plt
 334      E7800000 
 335              	.LVL22:
 203:src/Riscv.cpp **** }
 336              		.loc 1 203 1
 337 01c0 83308100 		ld	ra,8(sp)
 338              		.cfi_restore 1
 339 01c4 03340100 		ld	s0,0(sp)
 340              		.cfi_restore 8
 341              		.cfi_def_cfa 2, 16
 342 01c8 13010101 		addi	sp,sp,16
 343              		.cfi_def_cfa_offset 0
 344 01cc 67800000 		jr	ra
 345              		.cfi_endproc
 346              	.LFE34:
 348              		.align	2
 349              		.globl	_ZN5Riscv22disableTimerInterruptsEv
 351              	_ZN5Riscv22disableTimerInterruptsEv:
 352              	.LFB35:
 204:src/Riscv.cpp **** 
 205:src/Riscv.cpp **** void Riscv::disableTimerInterrupts()
 206:src/Riscv.cpp **** {
 353              		.loc 1 206 1 is_stmt 1
 354              		.cfi_startproc
 355 01d0 130101FF 		addi	sp,sp,-16
 356              		.cfi_def_cfa_offset 16
 357 01d4 23348100 		sd	s0,8(sp)
 358              		.cfi_offset 8, -8
 359 01d8 13040101 		addi	s0,sp,16
 360              		.cfi_def_cfa 8, 0
GAS LISTING /tmp/ccnTwBrJ.s 			page 15


 207:src/Riscv.cpp ****     uint64 x = 0x2;
 361              		.loc 1 207 5
 362              	.LVL23:
 208:src/Riscv.cpp ****     __asm__ volatile("csrc sie, %0"::"r"(x));
 363              		.loc 1 208 5
 364              		.loc 1 208 45 is_stmt 0
 365 01dc 93072000 		li	a5,2
 366              	#APP
 367              	# 208 "src/Riscv.cpp" 1
 209              	}
 368              		csrc sie, a5
 369              	# 0 "" 2
 370              		.loc 1 209 1
 371              	#NO_APP
 372 01e4 03348100 		ld	s0,8(sp)
 373              		.cfi_restore 8
 374              		.cfi_def_cfa 2, 16
 375 01e8 13010101 		addi	sp,sp,16
 376              		.cfi_def_cfa_offset 0
 377 01ec 67800000 		jr	ra
 378              		.cfi_endproc
 379              	.LFE35:
 381              		.align	2
 382              		.globl	_ZN5Riscv13w_a0_sscratchEv
 384              	_ZN5Riscv13w_a0_sscratchEv:
 385              	.LFB36:
 210:src/Riscv.cpp **** 
 211:src/Riscv.cpp **** void Riscv::w_a0_sscratch()
 212:src/Riscv.cpp **** {
 386              		.loc 1 212 1 is_stmt 1
 387              		.cfi_startproc
 388 01f0 130101FF 		addi	sp,sp,-16
 389              		.cfi_def_cfa_offset 16
 390 01f4 23348100 		sd	s0,8(sp)
 391              		.cfi_offset 8, -8
 392 01f8 13040101 		addi	s0,sp,16
 393              		.cfi_def_cfa 8, 0
 213:src/Riscv.cpp ****     uint64 a1Temp;
 394              		.loc 1 213 5
 214:src/Riscv.cpp ****     __asm__ volatile("mv %0, a1":"=r"(a1Temp));
 395              		.loc 1 214 5
 396              		.loc 1 214 47 is_stmt 0
 397              	#APP
 398              	# 214 "src/Riscv.cpp" 1
 215              	    __asm__ volatile("mv a1, %0"::"r"(PCB::running->sscratch));
 399              		mv a5, a1
 400              	# 0 "" 2
 401              	.LVL24:
 402              		.loc 1 215 5 is_stmt 1
 403              		.loc 1 215 53 is_stmt 0
 404              	#NO_APP
 405 0200 17070000 		la	a4,_ZN3PCB7runningE
 405      03370700 
 406 0208 03370700 		ld	a4,0(a4)
 407 020c 03370701 		ld	a4,16(a4)
 408              		.loc 1 215 63
 409              	#APP
GAS LISTING /tmp/ccnTwBrJ.s 			page 16


 410              	# 215 "src/Riscv.cpp" 1
 216              	    __asm__ volatile("sd a0, 80(a1)");
 411              		mv a1, a4
 412              	# 0 "" 2
 413              		.loc 1 216 5 is_stmt 1
 414              		.loc 1 216 38 is_stmt 0
 415              	# 216 "src/Riscv.cpp" 1
 217              	    __asm__ volatile("mv a1,%0"::"r"(a1Temp));
 416              		sd a0, 80(a1)
 417              	# 0 "" 2
 418              		.loc 1 217 5 is_stmt 1
 419              		.loc 1 217 46 is_stmt 0
 420              	# 217 "src/Riscv.cpp" 1
 218              	}
 421              		mv a1,a5
 422              	# 0 "" 2
 423              		.loc 1 218 1
 424              	#NO_APP
 425 021c 03348100 		ld	s0,8(sp)
 426              		.cfi_restore 8
 427              		.cfi_def_cfa 2, 16
 428 0220 13010101 		addi	sp,sp,16
 429              		.cfi_def_cfa_offset 0
 430 0224 67800000 		jr	ra
 431              		.cfi_endproc
 432              	.LFE36:
 434              		.align	2
 435              		.globl	_ZN5Riscv14changePrivModeEv
 437              	_ZN5Riscv14changePrivModeEv:
 438              	.LFB37:
 219:src/Riscv.cpp **** 
 220:src/Riscv.cpp **** void Riscv::changePrivMode()
 221:src/Riscv.cpp **** {
 439              		.loc 1 221 1 is_stmt 1
 440              		.cfi_startproc
 441 0228 130101FF 		addi	sp,sp,-16
 442              		.cfi_def_cfa_offset 16
 443 022c 23348100 		sd	s0,8(sp)
 444              		.cfi_offset 8, -8
 445 0230 13040101 		addi	s0,sp,16
 446              		.cfi_def_cfa 8, 0
 222:src/Riscv.cpp ****     if(PCB::running->systemThread)
 447              		.loc 1 222 5
 448              		.loc 1 222 22 is_stmt 0
 449 0234 97070000 		la	a5,_ZN3PCB7runningE
 449      83B70700 
 450 023c 83B70700 		ld	a5,0(a5)
 451 0240 83C70700 		lbu	a5,0(a5)
 452              		.loc 1 222 5
 453 0244 638C0700 		beqz	a5,.L30
 223:src/Riscv.cpp ****         Riscv::ms_sstatus(Riscv::SSTATUS_SPP);
 454              		.loc 1 223 9 is_stmt 1
 455              	.LVL25:
 456              	.LBB44:
 457              	.LBB45:
 191:src/../h/Riscv.hpp **** }
 458              		.loc 2 191 5
GAS LISTING /tmp/ccnTwBrJ.s 			page 17


 191:src/../h/Riscv.hpp **** }
 459              		.loc 2 191 54 is_stmt 0
 460 0248 93070010 		li	a5,256
 461              	#APP
 462              	# 191 "src/../h/Riscv.hpp" 1
 463              		csrs sstatus, a5
 464              	# 0 "" 2
 465              	.LVL26:
 466              	#NO_APP
 467              	.L29:
 468              	.LBE45:
 469              	.LBE44:
 224:src/Riscv.cpp ****     else
 225:src/Riscv.cpp ****         Riscv::mc_sstatus(Riscv::SSTATUS_SPP);
 226:src/Riscv.cpp **** }
 470              		.loc 1 226 1
 471 0250 03348100 		ld	s0,8(sp)
 472              		.cfi_remember_state
 473              		.cfi_restore 8
 474              		.cfi_def_cfa 2, 16
 475 0254 13010101 		addi	sp,sp,16
 476              		.cfi_def_cfa_offset 0
 477 0258 67800000 		jr	ra
 478              	.L30:
 479              		.cfi_restore_state
 225:src/Riscv.cpp **** }
 480              		.loc 1 225 9 is_stmt 1
 481              	.LVL27:
 482              	.LBB46:
 483              	.LBB47:
 195:src/../h/Riscv.hpp **** }
 484              		.loc 2 195 5
 195:src/../h/Riscv.hpp **** }
 485              		.loc 2 195 54 is_stmt 0
 486 025c 93070010 		li	a5,256
 487              	#APP
 488              	# 195 "src/../h/Riscv.hpp" 1
 489              		csrc sstatus, a5
 490              	# 0 "" 2
 491              	.LVL28:
 492              	#NO_APP
 493              	.LBE47:
 494              	.LBE46:
 495              		.loc 1 226 1
 496 0264 6FF0DFFE 		j	.L29
 497              		.cfi_endproc
 498              	.LFE37:
 500              		.align	2
 501              		.globl	_ZN5Riscv20handleSupervisorTrapEv
 503              	_ZN5Riscv20handleSupervisorTrapEv:
 504              	.LFB32:
  60:src/Riscv.cpp ****     __asm__ volatile("mv %0, a4" : "=r"(PCB::savedRegA4));
 505              		.loc 1 60 1 is_stmt 1
 506              		.cfi_startproc
 507 0268 130101F9 		addi	sp,sp,-112
 508              		.cfi_def_cfa_offset 112
 509 026c 23341106 		sd	ra,104(sp)
GAS LISTING /tmp/ccnTwBrJ.s 			page 18


 510 0270 23308106 		sd	s0,96(sp)
 511 0274 233C9104 		sd	s1,88(sp)
 512              		.cfi_offset 1, -8
 513              		.cfi_offset 8, -16
 514              		.cfi_offset 9, -24
 515 0278 13040107 		addi	s0,sp,112
 516              		.cfi_def_cfa 8, 0
  61:src/Riscv.cpp ****     __asm__ volatile("csrr %0, sscratch":"=r"(PCB::running->sscratch));
 517              		.loc 1 61 5
  61:src/Riscv.cpp ****     __asm__ volatile("csrr %0, sscratch":"=r"(PCB::running->sscratch));
 518              		.loc 1 61 58 is_stmt 0
 519              	#APP
 520              	# 61 "src/Riscv.cpp" 1
 521              		mv a4, a4
 522              	# 0 "" 2
 523              	#NO_APP
 524 0280 97070000 		la	a5,_ZN3PCB10savedRegA4E
 524      83B70700 
 525 0288 23B0E700 		sd	a4,0(a5)
  62:src/Riscv.cpp **** 
 526              		.loc 1 62 5 is_stmt 1
  62:src/Riscv.cpp **** 
 527              		.loc 1 62 61 is_stmt 0
 528 028c 97070000 		la	a5,_ZN3PCB7runningE
 528      83B70700 
 529 0294 83B70700 		ld	a5,0(a5)
  62:src/Riscv.cpp **** 
 530              		.loc 1 62 71
 531              	#APP
 532              	# 62 "src/Riscv.cpp" 1
 533              		csrr a4, sscratch
 534              	# 0 "" 2
 535              	#NO_APP
 536 029c 23B8E700 		sd	a4,16(a5)
  64:src/Riscv.cpp **** 
 537              		.loc 1 64 5 is_stmt 1
 538              	.LBB48:
 539              	.LBB49:
 116:src/../h/Riscv.hpp ****     __asm__ volatile("csrr %0, scause" : "=r"(scause));
 540              		.loc 2 116 5
 117:src/../h/Riscv.hpp ****     return scause;
 541              		.loc 2 117 5
 117:src/../h/Riscv.hpp ****     return scause;
 542              		.loc 2 117 55 is_stmt 0
 543              	#APP
 544              	# 117 "src/../h/Riscv.hpp" 1
 545              		csrr a5, scause
 546              	# 0 "" 2
 547              	#NO_APP
 548 02a4 233CF4FA 		sd	a5,-72(s0)
 118:src/../h/Riscv.hpp **** }
 549              		.loc 2 118 5 is_stmt 1
 118:src/../h/Riscv.hpp **** }
 550              		.loc 2 118 12 is_stmt 0
 551 02a8 833784FB 		ld	a5,-72(s0)
 552              	.LVL29:
 553              	.LBE49:
GAS LISTING /tmp/ccnTwBrJ.s 			page 19


 554              	.LBE48:
  66:src/Riscv.cpp ****     {
 555              		.loc 1 66 5 is_stmt 1
 556              	.LBB50:
 557 02ac 13079000 		li	a4,9
 558 02b0 636EF702 		bgtu	a5,a4,.L34
 559 02b4 13078000 		li	a4,8
 560 02b8 63F4E712 		bgeu	a5,a4,.L35
 561 02bc 13075000 		li	a4,5
 562 02c0 638AE710 		beq	a5,a4,.L36
 563 02c4 13077000 		li	a4,7
 564 02c8 6398E700 		bne	a5,a4,.L62
 565              	.LBB51:
 107:src/Riscv.cpp ****         {
 566              		.loc 1 107 9
 108:src/Riscv.cpp ****             PCB::threadExitHandler();
 567              		.loc 1 108 9
 109:src/Riscv.cpp ****             break;
 568              		.loc 1 109 13
 109:src/Riscv.cpp ****             break;
 569              		.loc 1 109 35 is_stmt 0
 570 02cc 97000000 		call	_ZN3PCB17threadExitHandlerEv@plt
 570      E7800000 
 571              	.LVL30:
 110:src/Riscv.cpp ****         }
 572              		.loc 1 110 13 is_stmt 1
 573 02d4 6F00C00D 		j	.L33
 574              	.LVL31:
 575              	.L62:
 576              	.LBE51:
  66:src/Riscv.cpp ****     {
 577              		.loc 1 66 5 is_stmt 0
 578 02d8 13072000 		li	a4,2
 579 02dc 639AE70C 		bne	a5,a4,.L33
 580              	.LBB76:
  97:src/Riscv.cpp ****         {
 581              		.loc 1 97 9 is_stmt 1
  98:src/Riscv.cpp ****             PCB::threadExitHandler();
 582              		.loc 1 98 9
  99:src/Riscv.cpp ****             break;
 583              		.loc 1 99 13
  99:src/Riscv.cpp ****             break;
 584              		.loc 1 99 35 is_stmt 0
 585 02e0 97000000 		call	_ZN3PCB17threadExitHandlerEv@plt
 585      E7800000 
 586              	.LVL32:
 100:src/Riscv.cpp ****         }
 587              		.loc 1 100 13 is_stmt 1
 588 02e8 6F00800C 		j	.L33
 589              	.LVL33:
 590              	.L34:
 591              	.LBE76:
  66:src/Riscv.cpp ****     {
 592              		.loc 1 66 5 is_stmt 0
 593 02ec 1307F0FF 		li	a4,-1
 594 02f0 1317F703 		slli	a4,a4,63
 595 02f4 13071700 		addi	a4,a4,1
GAS LISTING /tmp/ccnTwBrJ.s 			page 20


 596 02f8 6388E702 		beq	a5,a4,.L40
 597 02fc 1307F0FF 		li	a4,-1
 598 0300 1317F703 		slli	a4,a4,63
 599 0304 13079700 		addi	a4,a4,9
 600 0308 6394E70A 		bne	a5,a4,.L33
 601              	.LBB77:
  91:src/Riscv.cpp ****         {
 602              		.loc 1 91 9 is_stmt 1
  92:src/Riscv.cpp ****             KConsole::getCharactersFromConsole();
 603              		.loc 1 92 9
  93:src/Riscv.cpp ****             plic_complete(plic_claim());
 604              		.loc 1 93 13
  93:src/Riscv.cpp ****             plic_complete(plic_claim());
 605              		.loc 1 93 47 is_stmt 0
 606 030c 97000000 		call	_ZN8KConsole24getCharactersFromConsoleEv@plt
 606      E7800000 
 607              	.LVL34:
  94:src/Riscv.cpp ****             break;
 608              		.loc 1 94 13 is_stmt 1
  94:src/Riscv.cpp ****             break;
 609              		.loc 1 94 26 is_stmt 0
 610 0314 97000000 		call	plic_claim@plt
 610      E7800000 
 611              	.LVL35:
 612 031c 97000000 		call	plic_complete@plt
 612      E7800000 
 613              	.LVL36:
  95:src/Riscv.cpp ****         }
 614              		.loc 1 95 13 is_stmt 1
 615 0324 6F00C008 		j	.L33
 616              	.LVL37:
 617              	.L40:
  68:src/Riscv.cpp ****         {
 618              		.loc 1 68 9
  69:src/Riscv.cpp ****             //KConsole::trapPrintString("timerInterrupt\n");
 619              		.loc 1 69 9
 620              	.LBB52:
  71:src/Riscv.cpp ****             uint64 volatile sstatus = Riscv::r_sstatus();
 621              		.loc 1 71 13
 622              	.LBB53:
 623              	.LBB54:
 126:src/../h/Riscv.hpp ****     __asm__ volatile("csrr %0, sepc" : "=r"(sepc));
 624              		.loc 2 126 5
 127:src/../h/Riscv.hpp ****     return sepc;
 625              		.loc 2 127 5
 127:src/../h/Riscv.hpp ****     return sepc;
 626              		.loc 2 127 51 is_stmt 0
 627              	#APP
 628              	# 127 "src/../h/Riscv.hpp" 1
 629              		csrr a5, sepc
 630              	# 0 "" 2
 631              	.LVL38:
 632              	#NO_APP
 633 032c 2334F4FC 		sd	a5,-56(s0)
 128:src/../h/Riscv.hpp **** }
 634              		.loc 2 128 5 is_stmt 1
 128:src/../h/Riscv.hpp **** }
GAS LISTING /tmp/ccnTwBrJ.s 			page 21


 635              		.loc 2 128 12 is_stmt 0
 636 0330 833784FC 		ld	a5,-56(s0)
 637              	.LBE54:
 638              	.LBE53:
  71:src/Riscv.cpp ****             uint64 volatile sstatus = Riscv::r_sstatus();
 639              		.loc 1 71 50
 640 0334 233CF4F8 		sd	a5,-104(s0)
  72:src/Riscv.cpp ****             mc_sip(Riscv::SIP_SSIP);
 641              		.loc 1 72 13 is_stmt 1
 642              	.LBB55:
 643              	.LBB56:
 197:src/../h/Riscv.hpp **** 
 198:src/../h/Riscv.hpp **** inline uint64 Riscv::r_sstatus() {
 199:src/../h/Riscv.hpp ****     uint64 volatile sstatus;
 644              		.loc 2 199 5
 200:src/../h/Riscv.hpp ****     __asm__ volatile("csrr %0, sstatus" : "=r"(sstatus));
 645              		.loc 2 200 5
 646              		.loc 2 200 57 is_stmt 0
 647              	#APP
 648              	# 200 "src/../h/Riscv.hpp" 1
 201              	    return sstatus;
 649              		csrr a5, sstatus
 650              	# 0 "" 2
 651              	#NO_APP
 652 033c 2330F4FC 		sd	a5,-64(s0)
 653              		.loc 2 201 5 is_stmt 1
 654              		.loc 2 201 12 is_stmt 0
 655 0340 833704FC 		ld	a5,-64(s0)
 656              	.LBE56:
 657              	.LBE55:
  72:src/Riscv.cpp ****             mc_sip(Riscv::SIP_SSIP);
 658              		.loc 1 72 56
 659 0344 2330F4FA 		sd	a5,-96(s0)
  73:src/Riscv.cpp ****             //static uint64 total = 0;
 660              		.loc 1 73 13 is_stmt 1
 661              	.LVL39:
 662              	.LBB57:
 663              	.LBB58:
 165:src/../h/Riscv.hpp **** }
 664              		.loc 2 165 5
 165:src/../h/Riscv.hpp **** }
 665              		.loc 2 165 50 is_stmt 0
 666 0348 93072000 		li	a5,2
 667              	#APP
 668              	# 165 "src/../h/Riscv.hpp" 1
 669              		csrc sip, a5
 670              	# 0 "" 2
 671              	.LVL40:
 672              	#NO_APP
 673              	.LBE58:
 674              	.LBE57:
  75:src/Riscv.cpp ****             //KConsole::trapPrintInt(totalTime);
 675              		.loc 1 75 13 is_stmt 1
  75:src/Riscv.cpp ****             //KConsole::trapPrintInt(totalTime);
 676              		.loc 1 75 22 is_stmt 0
 677 0350 17070000 		lla	a4,.LANCHOR0
 677      13070700 
GAS LISTING /tmp/ccnTwBrJ.s 			page 22


 678 0358 83378700 		ld	a5,8(a4)
 679 035c 93871700 		addi	a5,a5,1
 680 0360 2334F700 		sd	a5,8(a4)
  78:src/Riscv.cpp ****             SleepPCBList::tryToWakePCBs();
 681              		.loc 1 78 13 is_stmt 1
  78:src/Riscv.cpp ****             SleepPCBList::tryToWakePCBs();
 682              		.loc 1 78 34 is_stmt 0
 683 0364 97040000 		la	s1,_ZN3PCB16timeSliceCounterE
 683      83B40400 
 684 036c 83B70400 		ld	a5,0(s1)
 685 0370 93871700 		addi	a5,a5,1
 686 0374 23B0F400 		sd	a5,0(s1)
  79:src/Riscv.cpp ****             if (PCB::timeSliceCounter >= PCB::running->getTimeSlice())
 687              		.loc 1 79 13 is_stmt 1
  79:src/Riscv.cpp ****             if (PCB::timeSliceCounter >= PCB::running->getTimeSlice())
 688              		.loc 1 79 40 is_stmt 0
 689 0378 97000000 		call	_ZN12SleepPCBList13tryToWakePCBsEv@plt
 689      E7800000 
 690              	.LVL41:
  80:src/Riscv.cpp ****             {
 691              		.loc 1 80 13 is_stmt 1
  80:src/Riscv.cpp ****             {
 692              		.loc 1 80 68 is_stmt 0
 693 0380 97070000 		la	a5,_ZN3PCB7runningE
 693      83B70700 
 694 0388 83B70700 		ld	a5,0(a5)
 695              	.LVL42:
 696              	.LBB59:
 697              	.LBB60:
 698              		.file 3 "src/../h/PCB.hpp"
   1:src/../h/PCB.hpp **** //
   2:src/../h/PCB.hpp **** // Created by os on 4/27/22.
   3:src/../h/PCB.hpp **** //
   4:src/../h/PCB.hpp **** 
   5:src/../h/PCB.hpp **** #ifndef PROJECT_BASE_V1_0_PCB_HPP
   6:src/../h/PCB.hpp **** #define PROJECT_BASE_V1_0_PCB_HPP
   7:src/../h/PCB.hpp **** 
   8:src/../h/PCB.hpp **** #include "../lib/hw.h"
   9:src/../h/PCB.hpp **** 
  10:src/../h/PCB.hpp **** class PCB
  11:src/../h/PCB.hpp **** {
  12:src/../h/PCB.hpp **** private:
  13:src/../h/PCB.hpp ****     static uint64 savedRegA4;
  14:src/../h/PCB.hpp **** 
  15:src/../h/PCB.hpp ****     using Body = void (*)(void*);
  16:src/../h/PCB.hpp **** 
  17:src/../h/PCB.hpp ****     PCB(Body body,  void* args, void* stack_space, uint64 timeSlice);
  18:src/../h/PCB.hpp ****     ~PCB();
  19:src/../h/PCB.hpp **** 
  20:src/../h/PCB.hpp ****     void start();
  21:src/../h/PCB.hpp ****     static void dispatch();
  22:src/../h/PCB.hpp **** 
  23:src/../h/PCB.hpp ****     static PCB* running;
  24:src/../h/PCB.hpp **** 
  25:src/../h/PCB.hpp ****     static uint64 timeSliceCounter;
  26:src/../h/PCB.hpp ****     uint64 getTimeSlice() { return timeSlice;}
 699              		.loc 3 26 29 is_stmt 1
GAS LISTING /tmp/ccnTwBrJ.s 			page 23


 700              		.loc 3 26 36 is_stmt 0
 701 038c 83B78701 		ld	a5,24(a5)
 702              	.LVL43:
 703              	.LBE60:
 704              	.LBE59:
  80:src/Riscv.cpp ****             {
 705              		.loc 1 80 39
 706 0390 03B70400 		ld	a4,0(s1)
  80:src/Riscv.cpp ****             {
 707              		.loc 1 80 13
 708 0394 6378F702 		bgeu	a4,a5,.L63
 709              	.L42:
  86:src/Riscv.cpp ****             Riscv::w_sepc(sepc);
 710              		.loc 1 86 13 is_stmt 1
  86:src/Riscv.cpp ****             Riscv::w_sepc(sepc);
 711              		.loc 1 86 29 is_stmt 0
 712 0398 833704FA 		ld	a5,-96(s0)
 713              	.LVL44:
 714              	.LBB61:
 715              	.LBB62:
 202:src/../h/Riscv.hpp **** }
 203:src/../h/Riscv.hpp **** 
 204:src/../h/Riscv.hpp **** inline void Riscv::w_sstatus(uint64 sstatus) {
 205:src/../h/Riscv.hpp ****     __asm__ volatile("csrw sstatus, %0" : :"r"(sstatus));
 716              		.loc 2 205 5 is_stmt 1
 717              		.loc 2 205 57 is_stmt 0
 718              	#APP
 719              	# 205 "src/../h/Riscv.hpp" 1
 206              	}
 720              		csrw sstatus, a5
 721              	# 0 "" 2
 722              	.LVL45:
 723              	#NO_APP
 724              	.LBE62:
 725              	.LBE61:
  87:src/Riscv.cpp ****             changePrivMode();
 726              		.loc 1 87 13 is_stmt 1
  87:src/Riscv.cpp ****             changePrivMode();
 727              		.loc 1 87 26 is_stmt 0
 728 03a0 833784F9 		ld	a5,-104(s0)
 729              	.LVL46:
 730              	.LBB63:
 731              	.LBB64:
 132:src/../h/Riscv.hpp **** }
 732              		.loc 2 132 5 is_stmt 1
 132:src/../h/Riscv.hpp **** }
 733              		.loc 2 132 51 is_stmt 0
 734              	#APP
 735              	# 132 "src/../h/Riscv.hpp" 1
 736              		csrw sepc, a5
 737              	# 0 "" 2
 738              	.LVL47:
 739              	#NO_APP
 740              	.LBE64:
 741              	.LBE63:
  88:src/Riscv.cpp ****             break;
 742              		.loc 1 88 13 is_stmt 1
GAS LISTING /tmp/ccnTwBrJ.s 			page 24


  88:src/Riscv.cpp ****             break;
 743              		.loc 1 88 27 is_stmt 0
 744 03a8 97000000 		call	_ZN5Riscv14changePrivModeEv
 744      E7800000 
 745              	.LVL48:
  89:src/Riscv.cpp ****         }
 746              		.loc 1 89 13 is_stmt 1
 747              	.L33:
 748              	.LBE52:
 749              	.LBE77:
 750              	.LBE50:
 179:src/Riscv.cpp **** 
 751              		.loc 1 179 1 is_stmt 0
 752 03b0 83308106 		ld	ra,104(sp)
 753              		.cfi_remember_state
 754              		.cfi_restore 1
 755 03b4 03340106 		ld	s0,96(sp)
 756              		.cfi_restore 8
 757              		.cfi_def_cfa 2, 112
 758 03b8 83348105 		ld	s1,88(sp)
 759              		.cfi_restore 9
 760 03bc 13010107 		addi	sp,sp,112
 761              		.cfi_def_cfa_offset 0
 762 03c0 67800000 		jr	ra
 763              	.L63:
 764              		.cfi_restore_state
 765              	.LBB80:
 766              	.LBB78:
 767              	.LBB65:
  82:src/Riscv.cpp ****                 PCB::dispatch();
 768              		.loc 1 82 17 is_stmt 1
  82:src/Riscv.cpp ****                 PCB::dispatch();
 769              		.loc 1 82 39 is_stmt 0
 770 03c4 23B00400 		sd	zero,0(s1)
  83:src/Riscv.cpp ****             }
 771              		.loc 1 83 17 is_stmt 1
  83:src/Riscv.cpp ****             }
 772              		.loc 1 83 30 is_stmt 0
 773 03c8 97000000 		call	_ZN3PCB8dispatchEv@plt
 773      E7800000 
 774              	.LVL49:
 775 03d0 6FF09FFC 		j	.L42
 776              	.LVL50:
 777              	.L36:
 778              	.LBE65:
 102:src/Riscv.cpp ****         {
 779              		.loc 1 102 9 is_stmt 1
 103:src/Riscv.cpp ****             PCB::threadExitHandler();
 780              		.loc 1 103 9
 104:src/Riscv.cpp ****             break;
 781              		.loc 1 104 13
 104:src/Riscv.cpp ****             break;
 782              		.loc 1 104 35 is_stmt 0
 783 03d4 97000000 		call	_ZN3PCB17threadExitHandlerEv@plt
 783      E7800000 
 784              	.LVL51:
 105:src/Riscv.cpp ****         }
GAS LISTING /tmp/ccnTwBrJ.s 			page 25


 785              		.loc 1 105 13 is_stmt 1
 786 03dc 6FF05FFD 		j	.L33
 787              	.LVL52:
 788              	.L35:
 112:src/Riscv.cpp ****         case ecallUserInterrupt:
 789              		.loc 1 112 9
 113:src/Riscv.cpp ****         {
 790              		.loc 1 113 9
 114:src/Riscv.cpp ****             uint64 operation;
 791              		.loc 1 114 9
 792              	.LBB66:
 115:src/Riscv.cpp ****             __asm__ volatile("mv %0, a0" :  "=r"(operation));
 793              		.loc 1 115 13
 116:src/Riscv.cpp **** 
 794              		.loc 1 116 13
 116:src/Riscv.cpp **** 
 795              		.loc 1 116 61 is_stmt 0
 796              	#APP
 797              	# 116 "src/Riscv.cpp" 1
 798              		mv a5, a0
 799              	# 0 "" 2
 800              	.LVL53:
 118:src/Riscv.cpp ****             uint64 volatile sstatus = Riscv::r_sstatus();
 801              		.loc 1 118 13 is_stmt 1
 802              	#NO_APP
 803              	.LBB67:
 804              	.LBB68:
 126:src/../h/Riscv.hpp ****     __asm__ volatile("csrr %0, sepc" : "=r"(sepc));
 805              		.loc 2 126 5
 127:src/../h/Riscv.hpp ****     return sepc;
 806              		.loc 2 127 5
 127:src/../h/Riscv.hpp ****     return sepc;
 807              		.loc 2 127 51 is_stmt 0
 808              	#APP
 809              	# 127 "src/../h/Riscv.hpp" 1
 810              		csrr a4, sepc
 811              	# 0 "" 2
 812              	#NO_APP
 813 03e8 233CE4FC 		sd	a4,-40(s0)
 128:src/../h/Riscv.hpp **** }
 814              		.loc 2 128 5 is_stmt 1
 128:src/../h/Riscv.hpp **** }
 815              		.loc 2 128 12 is_stmt 0
 816 03ec 033784FD 		ld	a4,-40(s0)
 817              	.LBE68:
 818              	.LBE67:
 118:src/Riscv.cpp ****             uint64 volatile sstatus = Riscv::r_sstatus();
 819              		.loc 1 118 52
 820 03f0 13074700 		addi	a4,a4,4
 118:src/Riscv.cpp ****             uint64 volatile sstatus = Riscv::r_sstatus();
 821              		.loc 1 118 54
 822 03f4 2334E4FA 		sd	a4,-88(s0)
 119:src/Riscv.cpp **** 
 823              		.loc 1 119 13 is_stmt 1
 824              	.LBB69:
 825              	.LBB70:
 199:src/../h/Riscv.hpp ****     __asm__ volatile("csrr %0, sstatus" : "=r"(sstatus));
GAS LISTING /tmp/ccnTwBrJ.s 			page 26


 826              		.loc 2 199 5
 200:src/../h/Riscv.hpp ****     return sstatus;
 827              		.loc 2 200 5
 200:src/../h/Riscv.hpp ****     return sstatus;
 828              		.loc 2 200 57 is_stmt 0
 829              	#APP
 830              	# 200 "src/../h/Riscv.hpp" 1
 831              		csrr a4, sstatus
 832              	# 0 "" 2
 833              	#NO_APP
 834 03fc 2338E4FC 		sd	a4,-48(s0)
 201:src/../h/Riscv.hpp **** }
 835              		.loc 2 201 5 is_stmt 1
 201:src/../h/Riscv.hpp **** }
 836              		.loc 2 201 12 is_stmt 0
 837 0400 033704FD 		ld	a4,-48(s0)
 838              	.LBE70:
 839              	.LBE69:
 119:src/Riscv.cpp **** 
 840              		.loc 1 119 56
 841 0404 2338E4FA 		sd	a4,-80(s0)
 121:src/Riscv.cpp ****             {
 842              		.loc 1 121 13 is_stmt 1
 843 0408 13073004 		li	a4,67
 844 040c 6364F702 		bgtu	a5,a4,.L43
 845 0410 93972700 		slli	a5,a5,2
 846              	.LVL54:
 847 0414 17070000 		lla	a4,.L45
 847      13070700 
 848 041c B387E700 		add	a5,a5,a4
 849 0420 83A70700 		lw	a5,0(a5)
 850 0424 B387E700 		add	a5,a5,a4
 851 0428 67800700 		jr	a5
 852              		.section	.rodata
 853              		.align	2
 854              		.align	2
 855              	.L45:
 856 0000 00000000 		.word	.L43-.L45
 857 0004 00000000 		.word	.L60-.L45
 858 0008 00000000 		.word	.L59-.L45
 859 000c 00000000 		.word	.L43-.L45
 860 0010 00000000 		.word	.L43-.L45
 861 0014 00000000 		.word	.L43-.L45
 862 0018 00000000 		.word	.L43-.L45
 863 001c 00000000 		.word	.L43-.L45
 864 0020 00000000 		.word	.L43-.L45
 865 0024 00000000 		.word	.L43-.L45
 866 0028 00000000 		.word	.L43-.L45
 867 002c 00000000 		.word	.L43-.L45
 868 0030 00000000 		.word	.L43-.L45
 869 0034 00000000 		.word	.L43-.L45
 870 0038 00000000 		.word	.L43-.L45
 871 003c 00000000 		.word	.L43-.L45
 872 0040 00000000 		.word	.L43-.L45
 873 0044 00000000 		.word	.L58-.L45
 874 0048 00000000 		.word	.L57-.L45
 875 004c 00000000 		.word	.L56-.L45
GAS LISTING /tmp/ccnTwBrJ.s 			page 27


 876 0050 00000000 		.word	.L55-.L45
 877 0054 00000000 		.word	.L54-.L45
 878 0058 00000000 		.word	.L53-.L45
 879 005c 00000000 		.word	.L43-.L45
 880 0060 00000000 		.word	.L43-.L45
 881 0064 00000000 		.word	.L43-.L45
 882 0068 00000000 		.word	.L43-.L45
 883 006c 00000000 		.word	.L43-.L45
 884 0070 00000000 		.word	.L43-.L45
 885 0074 00000000 		.word	.L43-.L45
 886 0078 00000000 		.word	.L43-.L45
 887 007c 00000000 		.word	.L43-.L45
 888 0080 00000000 		.word	.L43-.L45
 889 0084 00000000 		.word	.L52-.L45
 890 0088 00000000 		.word	.L51-.L45
 891 008c 00000000 		.word	.L50-.L45
 892 0090 00000000 		.word	.L49-.L45
 893 0094 00000000 		.word	.L43-.L45
 894 0098 00000000 		.word	.L43-.L45
 895 009c 00000000 		.word	.L43-.L45
 896 00a0 00000000 		.word	.L43-.L45
 897 00a4 00000000 		.word	.L43-.L45
 898 00a8 00000000 		.word	.L43-.L45
 899 00ac 00000000 		.word	.L43-.L45
 900 00b0 00000000 		.word	.L43-.L45
 901 00b4 00000000 		.word	.L43-.L45
 902 00b8 00000000 		.word	.L43-.L45
 903 00bc 00000000 		.word	.L43-.L45
 904 00c0 00000000 		.word	.L43-.L45
 905 00c4 00000000 		.word	.L48-.L45
 906 00c8 00000000 		.word	.L43-.L45
 907 00cc 00000000 		.word	.L43-.L45
 908 00d0 00000000 		.word	.L43-.L45
 909 00d4 00000000 		.word	.L43-.L45
 910 00d8 00000000 		.word	.L43-.L45
 911 00dc 00000000 		.word	.L43-.L45
 912 00e0 00000000 		.word	.L43-.L45
 913 00e4 00000000 		.word	.L43-.L45
 914 00e8 00000000 		.word	.L43-.L45
 915 00ec 00000000 		.word	.L43-.L45
 916 00f0 00000000 		.word	.L43-.L45
 917 00f4 00000000 		.word	.L43-.L45
 918 00f8 00000000 		.word	.L43-.L45
 919 00fc 00000000 		.word	.L43-.L45
 920 0100 00000000 		.word	.L43-.L45
 921 0104 00000000 		.word	.L47-.L45
 922 0108 00000000 		.word	.L46-.L45
 923 010c 00000000 		.word	.L44-.L45
 924              		.text
 925              	.L60:
 123:src/Riscv.cpp ****                     MemoryAllocator::memAllocHandler();
 926              		.loc 1 123 17
 124:src/Riscv.cpp ****                     break;
 927              		.loc 1 124 21
 124:src/Riscv.cpp ****                     break;
 928              		.loc 1 124 53 is_stmt 0
 929 042c 97000000 		call	_ZN15MemoryAllocator15memAllocHandlerEv@plt
GAS LISTING /tmp/ccnTwBrJ.s 			page 28


 929      E7800000 
 930              	.LVL55:
 125:src/Riscv.cpp ****                 case MemoryAllocator::MEM_FREE:
 931              		.loc 1 125 21 is_stmt 1
 932              	.L43:
 173:src/Riscv.cpp ****             Riscv::w_sepc(sepc);
 933              		.loc 1 173 13
 173:src/Riscv.cpp ****             Riscv::w_sepc(sepc);
 934              		.loc 1 173 29 is_stmt 0
 935 0434 833704FB 		ld	a5,-80(s0)
 936              	.LVL56:
 937              	.LBB71:
 938              	.LBB72:
 205:src/../h/Riscv.hpp **** }
 939              		.loc 2 205 5 is_stmt 1
 205:src/../h/Riscv.hpp **** }
 940              		.loc 2 205 57 is_stmt 0
 941              	#APP
 942              	# 205 "src/../h/Riscv.hpp" 1
 943              		csrw sstatus, a5
 944              	# 0 "" 2
 945              	.LVL57:
 946              	#NO_APP
 947              	.LBE72:
 948              	.LBE71:
 174:src/Riscv.cpp ****             changePrivMode();
 949              		.loc 1 174 13 is_stmt 1
 174:src/Riscv.cpp ****             changePrivMode();
 950              		.loc 1 174 26 is_stmt 0
 951 043c 833784FA 		ld	a5,-88(s0)
 952              	.LVL58:
 953              	.LBB73:
 954              	.LBB74:
 132:src/../h/Riscv.hpp **** }
 955              		.loc 2 132 5 is_stmt 1
 132:src/../h/Riscv.hpp **** }
 956              		.loc 2 132 51 is_stmt 0
 957              	#APP
 958              	# 132 "src/../h/Riscv.hpp" 1
 959              		csrw sepc, a5
 960              	# 0 "" 2
 961              	.LVL59:
 962              	#NO_APP
 963              	.LBE74:
 964              	.LBE73:
 175:src/Riscv.cpp ****             break;
 965              		.loc 1 175 13 is_stmt 1
 175:src/Riscv.cpp ****             break;
 966              		.loc 1 175 27 is_stmt 0
 967 0444 97000000 		call	_ZN5Riscv14changePrivModeEv
 967      E7800000 
 968              	.LVL60:
 176:src/Riscv.cpp ****         }
 969              		.loc 1 176 13 is_stmt 1
 970              	.LBE66:
 971              	.LBE78:
 972              	.LBE80:
GAS LISTING /tmp/ccnTwBrJ.s 			page 29


 179:src/Riscv.cpp **** 
 973              		.loc 1 179 1 is_stmt 0
 974 044c 6FF05FF6 		j	.L33
 975              	.L59:
 976              	.LBB81:
 977              	.LBB79:
 978              	.LBB75:
 126:src/Riscv.cpp ****                     MemoryAllocator::memFreeHandler();
 979              		.loc 1 126 17 is_stmt 1
 127:src/Riscv.cpp ****                     break;
 980              		.loc 1 127 21
 127:src/Riscv.cpp ****                     break;
 981              		.loc 1 127 52 is_stmt 0
 982 0450 97000000 		call	_ZN15MemoryAllocator14memFreeHandlerEv@plt
 982      E7800000 
 983              	.LVL61:
 128:src/Riscv.cpp ****                 case PCB::THREAD_MAKE_PCB:
 984              		.loc 1 128 21 is_stmt 1
 985 0458 6FF0DFFD 		j	.L43
 986              	.L55:
 129:src/Riscv.cpp ****                     PCB::threadMakePCBHandler();
 987              		.loc 1 129 17
 130:src/Riscv.cpp ****                     break;
 988              		.loc 1 130 21
 130:src/Riscv.cpp ****                     break;
 989              		.loc 1 130 46 is_stmt 0
 990 045c 97000000 		call	_ZN3PCB20threadMakePCBHandlerEv@plt
 990      E7800000 
 991              	.LVL62:
 131:src/Riscv.cpp ****                 case PCB::THREAD_CREATE:
 992              		.loc 1 131 21 is_stmt 1
 993 0464 6FF01FFD 		j	.L43
 994              	.L58:
 132:src/Riscv.cpp ****                     PCB::threadCreateHandler();
 995              		.loc 1 132 17
 133:src/Riscv.cpp ****                     break;
 996              		.loc 1 133 21
 133:src/Riscv.cpp ****                     break;
 997              		.loc 1 133 45 is_stmt 0
 998 0468 97000000 		call	_ZN3PCB19threadCreateHandlerEv@plt
 998      E7800000 
 999              	.LVL63:
 134:src/Riscv.cpp ****                 case PCB::THREAD_START:
 1000              		.loc 1 134 21 is_stmt 1
 1001 0470 6FF05FFC 		j	.L43
 1002              	.L54:
 135:src/Riscv.cpp ****                     PCB::threadStartHandler();
 1003              		.loc 1 135 17
 136:src/Riscv.cpp ****                     break;
 1004              		.loc 1 136 21
 136:src/Riscv.cpp ****                     break;
 1005              		.loc 1 136 44 is_stmt 0
 1006 0474 97000000 		call	_ZN3PCB18threadStartHandlerEv@plt
 1006      E7800000 
 1007              	.LVL64:
 137:src/Riscv.cpp ****                 case PCB::THREAD_DISPATCH:
 1008              		.loc 1 137 21 is_stmt 1
GAS LISTING /tmp/ccnTwBrJ.s 			page 30


 1009 047c 6FF09FFB 		j	.L43
 1010              	.L56:
 138:src/Riscv.cpp ****                     PCB::threadDispatchHandler();
 1011              		.loc 1 138 17
 139:src/Riscv.cpp ****                     break;
 1012              		.loc 1 139 21
 139:src/Riscv.cpp ****                     break;
 1013              		.loc 1 139 47 is_stmt 0
 1014 0480 97000000 		call	_ZN3PCB21threadDispatchHandlerEv@plt
 1014      E7800000 
 1015              	.LVL65:
 140:src/Riscv.cpp ****                 case PCB::THREAD_EXIT:
 1016              		.loc 1 140 21 is_stmt 1
 1017 0488 6FF0DFFA 		j	.L43
 1018              	.L57:
 141:src/Riscv.cpp ****                     PCB::threadExitHandler();
 1019              		.loc 1 141 17
 142:src/Riscv.cpp ****                     break;
 1020              		.loc 1 142 21
 142:src/Riscv.cpp ****                     break;
 1021              		.loc 1 142 43 is_stmt 0
 1022 048c 97000000 		call	_ZN3PCB17threadExitHandlerEv@plt
 1022      E7800000 
 1023              	.LVL66:
 143:src/Riscv.cpp ****                 case PCB::TIME_SLEEP:
 1024              		.loc 1 143 21 is_stmt 1
 1025 0494 6FF01FFA 		j	.L43
 1026              	.L48:
 144:src/Riscv.cpp ****                     PCB::threadSleepHandler();
 1027              		.loc 1 144 17
 145:src/Riscv.cpp ****                     break;
 1028              		.loc 1 145 21
 145:src/Riscv.cpp ****                     break;
 1029              		.loc 1 145 44 is_stmt 0
 1030 0498 97000000 		call	_ZN3PCB18threadSleepHandlerEv@plt
 1030      E7800000 
 1031              	.LVL67:
 146:src/Riscv.cpp ****                 case PCB::THREAD_DEL_PCB:
 1032              		.loc 1 146 21 is_stmt 1
 1033 04a0 6FF05FF9 		j	.L43
 1034              	.L53:
 147:src/Riscv.cpp ****                      PCB::threadDelPCBHandler();
 1035              		.loc 1 147 17
 148:src/Riscv.cpp ****                      break;
 1036              		.loc 1 148 22
 148:src/Riscv.cpp ****                      break;
 1037              		.loc 1 148 46 is_stmt 0
 1038 04a4 97000000 		call	_ZN3PCB19threadDelPCBHandlerEv@plt
 1038      E7800000 
 1039              	.LVL68:
 149:src/Riscv.cpp ****                 case KSemaphore::SEM_OPEN:
 1040              		.loc 1 149 22 is_stmt 1
 1041 04ac 6FF09FF8 		j	.L43
 1042              	.L52:
 150:src/Riscv.cpp ****                     KSemaphore::semOpenHandler();
 1043              		.loc 1 150 17
 151:src/Riscv.cpp ****                     break;
GAS LISTING /tmp/ccnTwBrJ.s 			page 31


 1044              		.loc 1 151 21
 151:src/Riscv.cpp ****                     break;
 1045              		.loc 1 151 47 is_stmt 0
 1046 04b0 97000000 		call	_ZN10KSemaphore14semOpenHandlerEv@plt
 1046      E7800000 
 1047              	.LVL69:
 152:src/Riscv.cpp ****                 case KSemaphore::SEM_WAIT:
 1048              		.loc 1 152 21 is_stmt 1
 1049 04b8 6FF0DFF7 		j	.L43
 1050              	.L50:
 153:src/Riscv.cpp ****                     KSemaphore::semWaitHandler();
 1051              		.loc 1 153 17
 154:src/Riscv.cpp ****                     break;
 1052              		.loc 1 154 21
 154:src/Riscv.cpp ****                     break;
 1053              		.loc 1 154 47 is_stmt 0
 1054 04bc 97000000 		call	_ZN10KSemaphore14semWaitHandlerEv@plt
 1054      E7800000 
 1055              	.LVL70:
 155:src/Riscv.cpp ****                 case KSemaphore::SEM_SIGNAL:
 1056              		.loc 1 155 21 is_stmt 1
 1057 04c4 6FF01FF7 		j	.L43
 1058              	.L49:
 156:src/Riscv.cpp ****                     KSemaphore::semSignalHandler();
 1059              		.loc 1 156 17
 157:src/Riscv.cpp ****                     break;
 1060              		.loc 1 157 21
 157:src/Riscv.cpp ****                     break;
 1061              		.loc 1 157 49 is_stmt 0
 1062 04c8 97000000 		call	_ZN10KSemaphore16semSignalHandlerEv@plt
 1062      E7800000 
 1063              	.LVL71:
 158:src/Riscv.cpp ****                 case KSemaphore::SEM_CLOSE:
 1064              		.loc 1 158 21 is_stmt 1
 1065 04d0 6FF05FF6 		j	.L43
 1066              	.L51:
 159:src/Riscv.cpp ****                     KSemaphore::semCloseHandler();
 1067              		.loc 1 159 17
 160:src/Riscv.cpp ****                     break;
 1068              		.loc 1 160 21
 160:src/Riscv.cpp ****                     break;
 1069              		.loc 1 160 48 is_stmt 0
 1070 04d4 97000000 		call	_ZN10KSemaphore15semCloseHandlerEv@plt
 1070      E7800000 
 1071              	.LVL72:
 161:src/Riscv.cpp ****                 case KConsole::CONSOLE_GETC:
 1072              		.loc 1 161 21 is_stmt 1
 1073 04dc 6FF09FF5 		j	.L43
 1074              	.L47:
 162:src/Riscv.cpp ****                     KConsole::getcHandler();
 1075              		.loc 1 162 17
 163:src/Riscv.cpp ****                     break;
 1076              		.loc 1 163 21
 163:src/Riscv.cpp ****                     break;
 1077              		.loc 1 163 42 is_stmt 0
 1078 04e0 97000000 		call	_ZN8KConsole11getcHandlerEv@plt
 1078      E7800000 
GAS LISTING /tmp/ccnTwBrJ.s 			page 32


 1079              	.LVL73:
 164:src/Riscv.cpp ****                 case KConsole::CONSOLE_PUTC:
 1080              		.loc 1 164 21 is_stmt 1
 1081 04e8 6FF0DFF4 		j	.L43
 1082              	.L46:
 165:src/Riscv.cpp ****                     KConsole::putcHandler();
 1083              		.loc 1 165 17
 166:src/Riscv.cpp ****                     break;
 1084              		.loc 1 166 21
 166:src/Riscv.cpp ****                     break;
 1085              		.loc 1 166 42 is_stmt 0
 1086 04ec 97000000 		call	_ZN8KConsole11putcHandlerEv@plt
 1086      E7800000 
 1087              	.LVL74:
 167:src/Riscv.cpp ****                 case KConsole::CONSOLE_GET_CHAR:
 1088              		.loc 1 167 21 is_stmt 1
 1089 04f4 6FF01FF4 		j	.L43
 1090              	.L44:
 168:src/Riscv.cpp ****                     KConsole::getCharHandler();
 1091              		.loc 1 168 17
 169:src/Riscv.cpp ****                     break;
 1092              		.loc 1 169 21
 169:src/Riscv.cpp ****                     break;
 1093              		.loc 1 169 45 is_stmt 0
 1094 04f8 97000000 		call	_ZN8KConsole14getCharHandlerEv@plt
 1094      E7800000 
 1095              	.LVL75:
 170:src/Riscv.cpp ****             }
 1096              		.loc 1 170 21 is_stmt 1
 1097 0500 6FF05FF3 		j	.L43
 1098              	.LBE75:
 1099              	.LBE79:
 1100              	.LBE81:
 1101              		.cfi_endproc
 1102              	.LFE32:
 1104              		.globl	_ZN5Riscv16kernelMainCalledE
 1105              		.globl	_ZN5Riscv12finishSystemE
 1106              		.globl	_ZN5Riscv9totalTimeE
 1107              		.bss
 1108              		.align	3
 1109              		.set	.LANCHOR0,. + 0
 1112              	_ZN5Riscv12finishSystemE:
 1113 0000 00       		.zero	1
 1116              	_ZN5Riscv16kernelMainCalledE:
 1117 0001 00       		.zero	1
 1118 0002 00000000 		.zero	6
 1118      0000
 1121              	_ZN5Riscv9totalTimeE:
 1122 0008 00000000 		.zero	8
 1122      00000000 
 1123              		.text
 1124              	.Letext0:
 1125              		.file 4 "src/../h/../lib/hw.h"
 1126              		.file 5 "src/../h/MemoryAllocator.hpp"
 1127              		.file 6 "src/../h/SleepPCBList.hpp"
 1128              		.file 7 "src/../h/KSemaphore.hpp"
 1129              		.file 8 "src/../h/KConsole.hpp"
GAS LISTING /tmp/ccnTwBrJ.s 			page 33


 1130              		.file 9 "src/../h/Scheduler.hpp"
 1131              		.file 10 "src/../h/../test/userMain.hpp"
 1132              		.file 11 "src/../h/syscall_c.hpp"
GAS LISTING /tmp/ccnTwBrJ.s 			page 34

