GAS LISTING /tmp/ccNYnEwN.s 			page 1


   1              		.file	"Scheduler.cpp"
   2              		.option pic
   3              		.option norelax
   4              		.text
   5              	.Ltext0:
   6              		.align	2
   7              		.globl	_ZN9SchedulernwEm
   9              	_ZN9SchedulernwEm:
  10              	.LFB5:
  11              		.file 1 "src/Scheduler.cpp"
   1:src/Scheduler.cpp **** //
   2:src/Scheduler.cpp **** // Created by os on 4/27/22.
   3:src/Scheduler.cpp **** //
   4:src/Scheduler.cpp **** 
   5:src/Scheduler.cpp **** #include "../h/Scheduler.hpp"
   6:src/Scheduler.cpp **** #include "../h/PCB.hpp"
   7:src/Scheduler.cpp **** #include "../h/KConsole.hpp"
   8:src/Scheduler.cpp **** 
   9:src/Scheduler.cpp **** PCB* Scheduler::schedulerPCBHead = 0;
  10:src/Scheduler.cpp **** PCB* Scheduler::schedulerPCBTail = 0;
  11:src/Scheduler.cpp **** 
  12:src/Scheduler.cpp **** void *Scheduler::operator new(size_t size)
  13:src/Scheduler.cpp **** {
  12              		.loc 1 13 1
  13              		.cfi_startproc
  14              	.LVL0:
  15 0000 130101FF 		addi	sp,sp,-16
  16              		.cfi_def_cfa_offset 16
  17 0004 23341100 		sd	ra,8(sp)
  18 0008 23308100 		sd	s0,0(sp)
  19              		.cfi_offset 1, -8
  20              		.cfi_offset 8, -16
  21 000c 13040101 		addi	s0,sp,16
  22              		.cfi_def_cfa 8, 0
  14:src/Scheduler.cpp ****     return MemoryAllocator::kmalloc(size);
  23              		.loc 1 14 5
  24              		.loc 1 14 36 is_stmt 0
  25 0010 97000000 		call	_ZN15MemoryAllocator7kmallocEm@plt
  25      E7800000 
  26              	.LVL1:
  15:src/Scheduler.cpp **** }
  27              		.loc 1 15 1
  28 0018 83308100 		ld	ra,8(sp)
  29              		.cfi_restore 1
  30 001c 03340100 		ld	s0,0(sp)
  31              		.cfi_restore 8
  32              		.cfi_def_cfa 2, 16
  33 0020 13010101 		addi	sp,sp,16
  34              		.cfi_def_cfa_offset 0
  35 0024 67800000 		jr	ra
  36              		.cfi_endproc
  37              	.LFE5:
  39              		.align	2
  40              		.globl	_ZN9SchedulerdlEPv
  42              	_ZN9SchedulerdlEPv:
  43              	.LFB6:
  16:src/Scheduler.cpp **** 
GAS LISTING /tmp/ccNYnEwN.s 			page 2


  17:src/Scheduler.cpp **** void Scheduler::operator delete(void *p)
  18:src/Scheduler.cpp **** {
  44              		.loc 1 18 1 is_stmt 1
  45              		.cfi_startproc
  46              	.LVL2:
  47 0028 130101FF 		addi	sp,sp,-16
  48              		.cfi_def_cfa_offset 16
  49 002c 23341100 		sd	ra,8(sp)
  50 0030 23308100 		sd	s0,0(sp)
  51              		.cfi_offset 1, -8
  52              		.cfi_offset 8, -16
  53 0034 13040101 		addi	s0,sp,16
  54              		.cfi_def_cfa 8, 0
  19:src/Scheduler.cpp ****     MemoryAllocator::kfree(p);
  55              		.loc 1 19 5
  56              		.loc 1 19 27 is_stmt 0
  57 0038 97000000 		call	_ZN15MemoryAllocator5kfreeEPv@plt
  57      E7800000 
  58              	.LVL3:
  20:src/Scheduler.cpp **** }
  59              		.loc 1 20 1
  60 0040 83308100 		ld	ra,8(sp)
  61              		.cfi_restore 1
  62 0044 03340100 		ld	s0,0(sp)
  63              		.cfi_restore 8
  64              		.cfi_def_cfa 2, 16
  65 0048 13010101 		addi	sp,sp,16
  66              		.cfi_def_cfa_offset 0
  67 004c 67800000 		jr	ra
  68              		.cfi_endproc
  69              	.LFE6:
  71              		.align	2
  72              		.globl	_ZN9Scheduler7getSizeEv
  74              	_ZN9Scheduler7getSizeEv:
  75              	.LFB7:
  21:src/Scheduler.cpp **** 
  22:src/Scheduler.cpp **** int Scheduler::getSize()
  23:src/Scheduler.cpp **** {
  76              		.loc 1 23 1 is_stmt 1
  77              		.cfi_startproc
  78 0050 130101FF 		addi	sp,sp,-16
  79              		.cfi_def_cfa_offset 16
  80 0054 23348100 		sd	s0,8(sp)
  81              		.cfi_offset 8, -8
  82 0058 13040101 		addi	s0,sp,16
  83              		.cfi_def_cfa 8, 0
  24:src/Scheduler.cpp ****     uint64 sz = 0;
  84              		.loc 1 24 5
  85              	.LVL4:
  25:src/Scheduler.cpp ****     PCB* curr = schedulerPCBHead;
  86              		.loc 1 25 5
  87              		.loc 1 25 10 is_stmt 0
  88 005c 97070000 		ld	a5,.LANCHOR0
  88      83B70700 
  89              	.LVL5:
  24:src/Scheduler.cpp ****     uint64 sz = 0;
  90              		.loc 1 24 12
GAS LISTING /tmp/ccNYnEwN.s 			page 3


  91 0064 13050000 		li	a0,0
  92              	.LVL6:
  93              	.L7:
  26:src/Scheduler.cpp ****     while(curr != 0)
  94              		.loc 1 26 5 is_stmt 1
  95              		.loc 1 26 16
  96 0068 63880700 		beqz	a5,.L6
  27:src/Scheduler.cpp ****     {
  28:src/Scheduler.cpp ****         sz++;
  97              		.loc 1 28 9
  98              		.loc 1 28 11 is_stmt 0
  99 006c 13051500 		addi	a0,a0,1
 100              	.LVL7:
  29:src/Scheduler.cpp ****         curr = curr->nextPCB;
 101              		.loc 1 29 9 is_stmt 1
 102              		.loc 1 29 14 is_stmt 0
 103 0070 83B78700 		ld	a5,8(a5)
 104              	.LVL8:
  26:src/Scheduler.cpp ****     while(curr != 0)
 105              		.loc 1 26 5
 106 0074 6FF05FFF 		j	.L7
 107              	.L6:
  30:src/Scheduler.cpp ****     }
  31:src/Scheduler.cpp ****     return sz;
 108              		.loc 1 31 5 is_stmt 1
  32:src/Scheduler.cpp **** }
 109              		.loc 1 32 1 is_stmt 0
 110 0078 1B050500 		sext.w	a0,a0
 111              	.LVL9:
 112 007c 03348100 		ld	s0,8(sp)
 113              		.cfi_restore 8
 114              		.cfi_def_cfa 2, 16
 115 0080 13010101 		addi	sp,sp,16
 116              		.cfi_def_cfa_offset 0
 117 0084 67800000 		jr	ra
 118              		.cfi_endproc
 119              	.LFE7:
 121              		.align	2
 122              		.globl	_ZN9Scheduler3putEP3PCB
 124              	_ZN9Scheduler3putEP3PCB:
 125              	.LFB8:
  33:src/Scheduler.cpp **** 
  34:src/Scheduler.cpp **** void Scheduler::put(PCB *pcb)
  35:src/Scheduler.cpp **** {
 126              		.loc 1 35 1 is_stmt 1
 127              		.cfi_startproc
 128              	.LVL10:
 129 0088 130101FF 		addi	sp,sp,-16
 130              		.cfi_def_cfa_offset 16
 131 008c 23348100 		sd	s0,8(sp)
 132              		.cfi_offset 8, -8
 133 0090 13040101 		addi	s0,sp,16
 134              		.cfi_def_cfa 8, 0
  36:src/Scheduler.cpp ****     pcb->setState(PCB::READY);
 135              		.loc 1 36 5
 136              	.LVL11:
 137              	.LBB4:
GAS LISTING /tmp/ccNYnEwN.s 			page 4


 138              	.LBB5:
 139              		.file 2 "src/../h/PCB.hpp"
   1:src/../h/PCB.hpp **** //
   2:src/../h/PCB.hpp **** // Created by os on 4/27/22.
   3:src/../h/PCB.hpp **** //
   4:src/../h/PCB.hpp **** 
   5:src/../h/PCB.hpp **** #ifndef PROJECT_BASE_V1_0_PCB_HPP
   6:src/../h/PCB.hpp **** #define PROJECT_BASE_V1_0_PCB_HPP
   7:src/../h/PCB.hpp **** 
   8:src/../h/PCB.hpp **** #include "../lib/hw.h"
   9:src/../h/PCB.hpp **** 
  10:src/../h/PCB.hpp **** class PCB
  11:src/../h/PCB.hpp **** {
  12:src/../h/PCB.hpp **** private:
  13:src/../h/PCB.hpp ****     static uint64 savedRegA4;
  14:src/../h/PCB.hpp **** 
  15:src/../h/PCB.hpp ****     using Body = void (*)(void*);
  16:src/../h/PCB.hpp **** 
  17:src/../h/PCB.hpp ****     PCB(Body body,  void* args, void* stack_space, uint64 timeSlice);
  18:src/../h/PCB.hpp ****     ~PCB();
  19:src/../h/PCB.hpp **** 
  20:src/../h/PCB.hpp ****     void start();
  21:src/../h/PCB.hpp ****     static void dispatch();
  22:src/../h/PCB.hpp **** 
  23:src/../h/PCB.hpp ****     static PCB* running;
  24:src/../h/PCB.hpp **** 
  25:src/../h/PCB.hpp ****     static uint64 timeSliceCounter;
  26:src/../h/PCB.hpp ****     uint64 getTimeSlice() { return timeSlice;}
  27:src/../h/PCB.hpp **** 
  28:src/../h/PCB.hpp ****     void* operator new(size_t size);
  29:src/../h/PCB.hpp ****     void operator delete(void *p);
  30:src/../h/PCB.hpp **** 
  31:src/../h/PCB.hpp ****     enum State{READY, RUNNING, SUSPENDED, FINISHED, EXITING, SLEEPING};
  32:src/../h/PCB.hpp ****     State getState() {return state;}
  33:src/../h/PCB.hpp ****     void setState(State s) {state = s;}
 140              		.loc 2 33 29
 141              		.loc 2 33 35 is_stmt 0
 142 0094 23200504 		sw	zero,64(a0)
 143              	.LVL12:
 144              	.LBE5:
 145              	.LBE4:
  37:src/Scheduler.cpp ****     pcb->nextPCB = 0;
 146              		.loc 1 37 5 is_stmt 1
 147              		.loc 1 37 18 is_stmt 0
 148 0098 23340500 		sd	zero,8(a0)
  38:src/Scheduler.cpp ****     if(schedulerPCBHead == 0)
 149              		.loc 1 38 5 is_stmt 1
 150              		.loc 1 38 25 is_stmt 0
 151 009c 97070000 		ld	a5,.LANCHOR0
 151      83B70700 
 152              		.loc 1 38 5
 153 00a4 63820702 		beqz	a5,.L13
  39:src/Scheduler.cpp ****         schedulerPCBHead = schedulerPCBTail = pcb;
  40:src/Scheduler.cpp ****     else
  41:src/Scheduler.cpp ****     {
  42:src/Scheduler.cpp ****         schedulerPCBTail->nextPCB = pcb;
 154              		.loc 1 42 9 is_stmt 1
GAS LISTING /tmp/ccNYnEwN.s 			page 5


 155              		.loc 1 42 27 is_stmt 0
 156 00a8 97070000 		lla	a5,.LANCHOR0
 156      93870700 
 157 00b0 03B78700 		ld	a4,8(a5)
 158              		.loc 1 42 35
 159 00b4 2334A700 		sd	a0,8(a4)
  43:src/Scheduler.cpp ****         schedulerPCBTail = pcb;
 160              		.loc 1 43 9 is_stmt 1
 161              		.loc 1 43 26 is_stmt 0
 162 00b8 23B4A700 		sd	a0,8(a5)
 163              	.L9:
  44:src/Scheduler.cpp ****     }
  45:src/Scheduler.cpp **** }
 164              		.loc 1 45 1
 165 00bc 03348100 		ld	s0,8(sp)
 166              		.cfi_remember_state
 167              		.cfi_restore 8
 168              		.cfi_def_cfa 2, 16
 169 00c0 13010101 		addi	sp,sp,16
 170              		.cfi_def_cfa_offset 0
 171 00c4 67800000 		jr	ra
 172              	.L13:
 173              		.cfi_restore_state
  39:src/Scheduler.cpp ****     else
 174              		.loc 1 39 9 is_stmt 1
  39:src/Scheduler.cpp ****     else
 175              		.loc 1 39 45 is_stmt 0
 176 00c8 97070000 		lla	a5,.LANCHOR0
 176      93870700 
 177 00d0 23B4A700 		sd	a0,8(a5)
  39:src/Scheduler.cpp ****     else
 178              		.loc 1 39 26
 179 00d4 23B0A700 		sd	a0,0(a5)
 180 00d8 6FF05FFE 		j	.L9
 181              		.cfi_endproc
 182              	.LFE8:
 184              		.align	2
 185              		.globl	_ZN9Scheduler3getEv
 187              	_ZN9Scheduler3getEv:
 188              	.LFB9:
  46:src/Scheduler.cpp **** 
  47:src/Scheduler.cpp **** PCB *Scheduler::get()
  48:src/Scheduler.cpp **** {
 189              		.loc 1 48 1 is_stmt 1
 190              		.cfi_startproc
 191 00dc 130101FF 		addi	sp,sp,-16
 192              		.cfi_def_cfa_offset 16
 193 00e0 23348100 		sd	s0,8(sp)
 194              		.cfi_offset 8, -8
 195 00e4 13040101 		addi	s0,sp,16
 196              		.cfi_def_cfa 8, 0
  49:src/Scheduler.cpp ****     if(schedulerPCBHead == 0)
 197              		.loc 1 49 5
 198              		.loc 1 49 25 is_stmt 0
 199 00e8 17050000 		ld	a0,.LANCHOR0
 199      03350500 
 200              		.loc 1 49 5
GAS LISTING /tmp/ccNYnEwN.s 			page 6


 201 00f0 630C0500 		beqz	a0,.L14
  50:src/Scheduler.cpp ****         return 0;
  51:src/Scheduler.cpp ****     PCB* retval = schedulerPCBHead;
 202              		.loc 1 51 5 is_stmt 1
 203              	.LVL13:
  52:src/Scheduler.cpp ****     if(schedulerPCBHead->nextPCB == 0)
 204              		.loc 1 52 5
 205              		.loc 1 52 26 is_stmt 0
 206 00f4 83378500 		ld	a5,8(a0)
 207              		.loc 1 52 5
 208 00f8 638E0700 		beqz	a5,.L19
  53:src/Scheduler.cpp ****         schedulerPCBHead = schedulerPCBTail = 0;
  54:src/Scheduler.cpp ****     else
  55:src/Scheduler.cpp ****         schedulerPCBHead = schedulerPCBHead->nextPCB;
 209              		.loc 1 55 9 is_stmt 1
 210              		.loc 1 55 26 is_stmt 0
 211 00fc 17070000 		sd	a5,.LANCHOR0,a4
 211      2330F700 
 212              	.L17:
  56:src/Scheduler.cpp ****     retval->nextPCB = 0;
 213              		.loc 1 56 5 is_stmt 1
 214              		.loc 1 56 21 is_stmt 0
 215 0104 23340500 		sd	zero,8(a0)
  57:src/Scheduler.cpp ****     return retval;
 216              		.loc 1 57 5 is_stmt 1
 217              	.LVL14:
 218              	.L14:
  58:src/Scheduler.cpp **** }
 219              		.loc 1 58 1 is_stmt 0
 220 0108 03348100 		ld	s0,8(sp)
 221              		.cfi_remember_state
 222              		.cfi_restore 8
 223              		.cfi_def_cfa 2, 16
 224 010c 13010101 		addi	sp,sp,16
 225              		.cfi_def_cfa_offset 0
 226 0110 67800000 		jr	ra
 227              	.LVL15:
 228              	.L19:
 229              		.cfi_restore_state
  53:src/Scheduler.cpp ****     else
 230              		.loc 1 53 9 is_stmt 1
  53:src/Scheduler.cpp ****     else
 231              		.loc 1 53 45 is_stmt 0
 232 0114 97070000 		lla	a5,.LANCHOR0
 232      93870700 
 233 011c 23B40700 		sd	zero,8(a5)
  53:src/Scheduler.cpp ****     else
 234              		.loc 1 53 26
 235 0120 23B00700 		sd	zero,0(a5)
 236 0124 6FF01FFE 		j	.L17
 237              		.cfi_endproc
 238              	.LFE9:
 240              		.section	.rodata.str1.8,"aMS",@progbits,1
 241              		.align	3
 242              	.LC0:
 243 0000 0A00     		.string	"\n"
 244              		.text
GAS LISTING /tmp/ccNYnEwN.s 			page 7


 245              		.align	2
 246              		.globl	_ZN9Scheduler5printEv
 248              	_ZN9Scheduler5printEv:
 249              	.LFB10:
  59:src/Scheduler.cpp **** 
  60:src/Scheduler.cpp **** void Scheduler::print()
  61:src/Scheduler.cpp **** {
 250              		.loc 1 61 1 is_stmt 1
 251              		.cfi_startproc
 252 0128 130101FE 		addi	sp,sp,-32
 253              		.cfi_def_cfa_offset 32
 254 012c 233C1100 		sd	ra,24(sp)
 255 0130 23388100 		sd	s0,16(sp)
 256 0134 23349100 		sd	s1,8(sp)
 257              		.cfi_offset 1, -8
 258              		.cfi_offset 8, -16
 259              		.cfi_offset 9, -24
 260 0138 13040102 		addi	s0,sp,32
 261              		.cfi_def_cfa 8, 0
  62:src/Scheduler.cpp ****     //trapPrintString("Scheduler print\n");
  63:src/Scheduler.cpp ****     PCB* curr = schedulerPCBHead;
 262              		.loc 1 63 5
 263              		.loc 1 63 10 is_stmt 0
 264 013c 97040000 		ld	s1,.LANCHOR0
 264      83B40400 
 265              	.LVL16:
 266              	.L22:
  64:src/Scheduler.cpp ****     while(curr != 0)
 267              		.loc 1 64 5 is_stmt 1
 268              		.loc 1 64 16
 269 0144 63880402 		beqz	s1,.L20
  65:src/Scheduler.cpp ****     {
  66:src/Scheduler.cpp ****         KConsole::trapPrintInt((uint64)curr, 16);
 270              		.loc 1 66 9
 271              		.loc 1 66 31 is_stmt 0
 272 0148 13060000 		li	a2,0
 273 014c 93050001 		li	a1,16
 274 0150 13850400 		mv	a0,s1
 275 0154 97000000 		call	_ZN8KConsole12trapPrintIntEmii@plt
 275      E7800000 
 276              	.LVL17:
  67:src/Scheduler.cpp ****         KConsole::trapPrintString("\n");
 277              		.loc 1 67 9 is_stmt 1
 278              		.loc 1 67 34 is_stmt 0
 279 015c 17050000 		lla	a0,.LC0
 279      13050500 
 280 0164 97000000 		call	_ZN8KConsole15trapPrintStringEPKc@plt
 280      E7800000 
 281              	.LVL18:
  68:src/Scheduler.cpp ****         curr = curr->nextPCB;
 282              		.loc 1 68 9 is_stmt 1
 283              		.loc 1 68 14 is_stmt 0
 284 016c 83B48400 		ld	s1,8(s1)
 285              	.LVL19:
  64:src/Scheduler.cpp ****     {
 286              		.loc 1 64 5
 287 0170 6FF05FFD 		j	.L22
GAS LISTING /tmp/ccNYnEwN.s 			page 8


 288              	.L20:
  69:src/Scheduler.cpp ****     }
  70:src/Scheduler.cpp **** }
 289              		.loc 1 70 1
 290 0174 83308101 		ld	ra,24(sp)
 291              		.cfi_restore 1
 292 0178 03340101 		ld	s0,16(sp)
 293              		.cfi_restore 8
 294              		.cfi_def_cfa 2, 32
 295 017c 83348100 		ld	s1,8(sp)
 296              		.cfi_restore 9
 297              	.LVL20:
 298 0180 13010102 		addi	sp,sp,32
 299              		.cfi_def_cfa_offset 0
 300 0184 67800000 		jr	ra
 301              		.cfi_endproc
 302              	.LFE10:
 304              		.globl	_ZN9Scheduler16schedulerPCBTailE
 305              		.globl	_ZN9Scheduler16schedulerPCBHeadE
 306              		.bss
 307              		.align	3
 308              		.set	.LANCHOR0,. + 0
 311              	_ZN9Scheduler16schedulerPCBHeadE:
 312 0000 00000000 		.zero	8
 312      00000000 
 315              	_ZN9Scheduler16schedulerPCBTailE:
 316 0008 00000000 		.zero	8
 316      00000000 
 317              		.text
 318              	.Letext0:
 319              		.file 3 "src/../h/../lib/hw.h"
 320              		.file 4 "src/../h/MemoryAllocator.hpp"
 321              		.file 5 "src/../h/Scheduler.hpp"
 322              		.file 6 "src/../h/KSemaphore.hpp"
 323              		.file 7 "src/../h/KConsole.hpp"
GAS LISTING /tmp/ccNYnEwN.s 			page 9


DEFINED SYMBOLS
                            *ABS*:0000000000000000 Scheduler.cpp
     /tmp/ccNYnEwN.s:9      .text:0000000000000000 _ZN9SchedulernwEm
     /tmp/ccNYnEwN.s:13     .text:0000000000000000 .L0 
     /tmp/ccNYnEwN.s:15     .text:0000000000000000 .L0 
     /tmp/ccNYnEwN.s:16     .text:0000000000000004 .L0 
     /tmp/ccNYnEwN.s:19     .text:000000000000000c .L0 
     /tmp/ccNYnEwN.s:20     .text:000000000000000c .L0 
     /tmp/ccNYnEwN.s:22     .text:0000000000000010 .L0 
     /tmp/ccNYnEwN.s:24     .text:0000000000000010 .L0 
     /tmp/ccNYnEwN.s:25     .text:0000000000000010 .L0 
     /tmp/ccNYnEwN.s:28     .text:0000000000000018 .L0 
     /tmp/ccNYnEwN.s:29     .text:000000000000001c .L0 
     /tmp/ccNYnEwN.s:31     .text:0000000000000020 .L0 
     /tmp/ccNYnEwN.s:32     .text:0000000000000020 .L0 
     /tmp/ccNYnEwN.s:34     .text:0000000000000024 .L0 
     /tmp/ccNYnEwN.s:36     .text:0000000000000028 .L0 
     /tmp/ccNYnEwN.s:42     .text:0000000000000028 _ZN9SchedulerdlEPv
     /tmp/ccNYnEwN.s:45     .text:0000000000000028 .L0 
     /tmp/ccNYnEwN.s:47     .text:0000000000000028 .L0 
     /tmp/ccNYnEwN.s:48     .text:000000000000002c .L0 
     /tmp/ccNYnEwN.s:51     .text:0000000000000034 .L0 
     /tmp/ccNYnEwN.s:52     .text:0000000000000034 .L0 
     /tmp/ccNYnEwN.s:54     .text:0000000000000038 .L0 
     /tmp/ccNYnEwN.s:56     .text:0000000000000038 .L0 
     /tmp/ccNYnEwN.s:57     .text:0000000000000038 .L0 
     /tmp/ccNYnEwN.s:60     .text:0000000000000040 .L0 
     /tmp/ccNYnEwN.s:61     .text:0000000000000044 .L0 
     /tmp/ccNYnEwN.s:63     .text:0000000000000048 .L0 
     /tmp/ccNYnEwN.s:64     .text:0000000000000048 .L0 
     /tmp/ccNYnEwN.s:66     .text:000000000000004c .L0 
     /tmp/ccNYnEwN.s:68     .text:0000000000000050 .L0 
     /tmp/ccNYnEwN.s:74     .text:0000000000000050 _ZN9Scheduler7getSizeEv
     /tmp/ccNYnEwN.s:77     .text:0000000000000050 .L0 
     /tmp/ccNYnEwN.s:78     .text:0000000000000050 .L0 
     /tmp/ccNYnEwN.s:79     .text:0000000000000054 .L0 
     /tmp/ccNYnEwN.s:81     .text:0000000000000058 .L0 
     /tmp/ccNYnEwN.s:83     .text:000000000000005c .L0 
     /tmp/ccNYnEwN.s:86     .text:000000000000005c .L0 
     /tmp/ccNYnEwN.s:87     .text:000000000000005c .L0 
     /tmp/ccNYnEwN.s:88     .text:000000000000005c .L0 
     /tmp/ccNYnEwN.s:91     .text:0000000000000064 .L0 
     /tmp/ccNYnEwN.s:95     .text:0000000000000068 .L0 
     /tmp/ccNYnEwN.s:96     .text:0000000000000068 .L0 
     /tmp/ccNYnEwN.s:98     .text:000000000000006c .L0 
     /tmp/ccNYnEwN.s:99     .text:000000000000006c .L0 
     /tmp/ccNYnEwN.s:102    .text:0000000000000070 .L0 
     /tmp/ccNYnEwN.s:103    .text:0000000000000070 .L0 
     /tmp/ccNYnEwN.s:106    .text:0000000000000074 .L0 
     /tmp/ccNYnEwN.s:109    .text:0000000000000078 .L0 
     /tmp/ccNYnEwN.s:110    .text:0000000000000078 .L0 
     /tmp/ccNYnEwN.s:113    .text:0000000000000080 .L0 
     /tmp/ccNYnEwN.s:114    .text:0000000000000080 .L0 
     /tmp/ccNYnEwN.s:116    .text:0000000000000084 .L0 
     /tmp/ccNYnEwN.s:118    .text:0000000000000088 .L0 
     /tmp/ccNYnEwN.s:124    .text:0000000000000088 _ZN9Scheduler3putEP3PCB
     /tmp/ccNYnEwN.s:127    .text:0000000000000088 .L0 
GAS LISTING /tmp/ccNYnEwN.s 			page 10


     /tmp/ccNYnEwN.s:129    .text:0000000000000088 .L0 
     /tmp/ccNYnEwN.s:130    .text:000000000000008c .L0 
     /tmp/ccNYnEwN.s:132    .text:0000000000000090 .L0 
     /tmp/ccNYnEwN.s:134    .text:0000000000000094 .L0 
     /tmp/ccNYnEwN.s:140    .text:0000000000000094 .L0 
     /tmp/ccNYnEwN.s:141    .text:0000000000000094 .L0 
     /tmp/ccNYnEwN.s:142    .text:0000000000000094 .L0 
     /tmp/ccNYnEwN.s:147    .text:0000000000000098 .L0 
     /tmp/ccNYnEwN.s:148    .text:0000000000000098 .L0 
     /tmp/ccNYnEwN.s:150    .text:000000000000009c .L0 
     /tmp/ccNYnEwN.s:151    .text:000000000000009c .L0 
     /tmp/ccNYnEwN.s:153    .text:00000000000000a4 .L0 
     /tmp/ccNYnEwN.s:155    .text:00000000000000a8 .L0 
     /tmp/ccNYnEwN.s:156    .text:00000000000000a8 .L0 
     /tmp/ccNYnEwN.s:159    .text:00000000000000b4 .L0 
     /tmp/ccNYnEwN.s:161    .text:00000000000000b8 .L0 
     /tmp/ccNYnEwN.s:162    .text:00000000000000b8 .L0 
     /tmp/ccNYnEwN.s:165    .text:00000000000000bc .L0 
     /tmp/ccNYnEwN.s:166    .text:00000000000000c0 .L0 
     /tmp/ccNYnEwN.s:167    .text:00000000000000c0 .L0 
     /tmp/ccNYnEwN.s:168    .text:00000000000000c0 .L0 
     /tmp/ccNYnEwN.s:170    .text:00000000000000c4 .L0 
     /tmp/ccNYnEwN.s:173    .text:00000000000000c8 .L0 
     /tmp/ccNYnEwN.s:175    .text:00000000000000c8 .L0 
     /tmp/ccNYnEwN.s:176    .text:00000000000000c8 .L0 
     /tmp/ccNYnEwN.s:179    .text:00000000000000d4 .L0 
     /tmp/ccNYnEwN.s:181    .text:00000000000000dc .L0 
     /tmp/ccNYnEwN.s:187    .text:00000000000000dc _ZN9Scheduler3getEv
     /tmp/ccNYnEwN.s:190    .text:00000000000000dc .L0 
     /tmp/ccNYnEwN.s:191    .text:00000000000000dc .L0 
     /tmp/ccNYnEwN.s:192    .text:00000000000000e0 .L0 
     /tmp/ccNYnEwN.s:194    .text:00000000000000e4 .L0 
     /tmp/ccNYnEwN.s:196    .text:00000000000000e8 .L0 
     /tmp/ccNYnEwN.s:198    .text:00000000000000e8 .L0 
     /tmp/ccNYnEwN.s:199    .text:00000000000000e8 .L0 
     /tmp/ccNYnEwN.s:201    .text:00000000000000f0 .L0 
     /tmp/ccNYnEwN.s:204    .text:00000000000000f4 .L0 
     /tmp/ccNYnEwN.s:205    .text:00000000000000f4 .L0 
     /tmp/ccNYnEwN.s:206    .text:00000000000000f4 .L0 
     /tmp/ccNYnEwN.s:208    .text:00000000000000f8 .L0 
     /tmp/ccNYnEwN.s:210    .text:00000000000000fc .L0 
     /tmp/ccNYnEwN.s:211    .text:00000000000000fc .L0 
     /tmp/ccNYnEwN.s:214    .text:0000000000000104 .L0 
     /tmp/ccNYnEwN.s:215    .text:0000000000000104 .L0 
     /tmp/ccNYnEwN.s:219    .text:0000000000000108 .L0 
     /tmp/ccNYnEwN.s:220    .text:0000000000000108 .L0 
     /tmp/ccNYnEwN.s:221    .text:000000000000010c .L0 
     /tmp/ccNYnEwN.s:222    .text:000000000000010c .L0 
     /tmp/ccNYnEwN.s:223    .text:000000000000010c .L0 
     /tmp/ccNYnEwN.s:225    .text:0000000000000110 .L0 
     /tmp/ccNYnEwN.s:229    .text:0000000000000114 .L0 
     /tmp/ccNYnEwN.s:231    .text:0000000000000114 .L0 
     /tmp/ccNYnEwN.s:232    .text:0000000000000114 .L0 
     /tmp/ccNYnEwN.s:235    .text:0000000000000120 .L0 
     /tmp/ccNYnEwN.s:237    .text:0000000000000128 .L0 
     /tmp/ccNYnEwN.s:248    .text:0000000000000128 _ZN9Scheduler5printEv
     /tmp/ccNYnEwN.s:251    .text:0000000000000128 .L0 
GAS LISTING /tmp/ccNYnEwN.s 			page 11


     /tmp/ccNYnEwN.s:252    .text:0000000000000128 .L0 
     /tmp/ccNYnEwN.s:253    .text:000000000000012c .L0 
     /tmp/ccNYnEwN.s:257    .text:0000000000000138 .L0 
     /tmp/ccNYnEwN.s:258    .text:0000000000000138 .L0 
     /tmp/ccNYnEwN.s:259    .text:0000000000000138 .L0 
     /tmp/ccNYnEwN.s:261    .text:000000000000013c .L0 
     /tmp/ccNYnEwN.s:263    .text:000000000000013c .L0 
     /tmp/ccNYnEwN.s:264    .text:000000000000013c .L0 
     /tmp/ccNYnEwN.s:268    .text:0000000000000144 .L0 
     /tmp/ccNYnEwN.s:269    .text:0000000000000144 .L0 
     /tmp/ccNYnEwN.s:271    .text:0000000000000148 .L0 
     /tmp/ccNYnEwN.s:272    .text:0000000000000148 .L0 
     /tmp/ccNYnEwN.s:278    .text:000000000000015c .L0 
     /tmp/ccNYnEwN.s:279    .text:000000000000015c .L0 
     /tmp/ccNYnEwN.s:283    .text:000000000000016c .L0 
     /tmp/ccNYnEwN.s:284    .text:000000000000016c .L0 
     /tmp/ccNYnEwN.s:287    .text:0000000000000170 .L0 
     /tmp/ccNYnEwN.s:290    .text:0000000000000174 .L0 
     /tmp/ccNYnEwN.s:291    .text:0000000000000178 .L0 
     /tmp/ccNYnEwN.s:293    .text:000000000000017c .L0 
     /tmp/ccNYnEwN.s:294    .text:000000000000017c .L0 
     /tmp/ccNYnEwN.s:296    .text:0000000000000180 .L0 
     /tmp/ccNYnEwN.s:299    .text:0000000000000184 .L0 
     /tmp/ccNYnEwN.s:301    .text:0000000000000188 .L0 
     /tmp/ccNYnEwN.s:315    .bss:0000000000000008 _ZN9Scheduler16schedulerPCBTailE
     /tmp/ccNYnEwN.s:311    .bss:0000000000000000 _ZN9Scheduler16schedulerPCBHeadE
     /tmp/ccNYnEwN.s:308    .bss:0000000000000000 .LANCHOR0
     /tmp/ccNYnEwN.s:324    .text:0000000000000188 .L0 
     /tmp/ccNYnEwN.s:88     .text:000000000000005c .L0 
     /tmp/ccNYnEwN.s:151    .text:000000000000009c .L0 
     /tmp/ccNYnEwN.s:156    .text:00000000000000a8 .L0 
     /tmp/ccNYnEwN.s:176    .text:00000000000000c8 .L0 
     /tmp/ccNYnEwN.s:199    .text:00000000000000e8 .L0 
     /tmp/ccNYnEwN.s:211    .text:00000000000000fc .L0 
     /tmp/ccNYnEwN.s:232    .text:0000000000000114 .L0 
     /tmp/ccNYnEwN.s:264    .text:000000000000013c .L0 
     /tmp/ccNYnEwN.s:242    .rodata.str1.8:0000000000000000 .LC0
     /tmp/ccNYnEwN.s:279    .text:000000000000015c .L0 
     /tmp/ccNYnEwN.s:107    .text:0000000000000078 .L6
     /tmp/ccNYnEwN.s:93     .text:0000000000000068 .L7
     /tmp/ccNYnEwN.s:172    .text:00000000000000c8 .L13
     /tmp/ccNYnEwN.s:163    .text:00000000000000bc .L9
     /tmp/ccNYnEwN.s:218    .text:0000000000000108 .L14
     /tmp/ccNYnEwN.s:228    .text:0000000000000114 .L19
     /tmp/ccNYnEwN.s:212    .text:0000000000000104 .L17
     /tmp/ccNYnEwN.s:288    .text:0000000000000174 .L20
     /tmp/ccNYnEwN.s:266    .text:0000000000000144 .L22
     /tmp/ccNYnEwN.s:1849   .debug_abbrev:0000000000000000 .Ldebug_abbrev0
     /tmp/ccNYnEwN.s:3218   .debug_str:0000000000000cd0 .LASF217
     /tmp/ccNYnEwN.s:3024   .debug_str:00000000000005d4 .LASF218
     /tmp/ccNYnEwN.s:2994   .debug_str:00000000000004ad .LASF219
     /tmp/ccNYnEwN.s:5      .text:0000000000000000 .Ltext0
     /tmp/ccNYnEwN.s:318    .text:0000000000000188 .Letext0
     /tmp/ccNYnEwN.s:2860   .debug_line:0000000000000000 .Ldebug_line0
     /tmp/ccNYnEwN.s:3016   .debug_str:000000000000058c .LASF0
     /tmp/ccNYnEwN.s:3040   .debug_str:0000000000000677 .LASF1
     /tmp/ccNYnEwN.s:3138   .debug_str:0000000000000a51 .LASF2
GAS LISTING /tmp/ccNYnEwN.s 			page 12


     /tmp/ccNYnEwN.s:3150   .debug_str:0000000000000ab9 .LASF4
     /tmp/ccNYnEwN.s:3028   .debug_str:00000000000005f3 .LASF3
     /tmp/ccNYnEwN.s:2882   .debug_str:00000000000000e5 .LASF5
     /tmp/ccNYnEwN.s:3114   .debug_str:0000000000000975 .LASF6
     /tmp/ccNYnEwN.s:3034   .debug_str:000000000000063b .LASF7
     /tmp/ccNYnEwN.s:2992   .debug_str:000000000000049d .LASF8
     /tmp/ccNYnEwN.s:3000   .debug_str:00000000000004e7 .LASF9
     /tmp/ccNYnEwN.s:2924   .debug_str:00000000000002a5 .LASF10
     /tmp/ccNYnEwN.s:2978   .debug_str:0000000000000449 .LASF11
     /tmp/ccNYnEwN.s:2938   .debug_str:00000000000002e4 .LASF12
     /tmp/ccNYnEwN.s:2922   .debug_str:0000000000000295 .LASF13
     /tmp/ccNYnEwN.s:3190   .debug_str:0000000000000c2b .LASF14
     /tmp/ccNYnEwN.s:2966   .debug_str:00000000000003cf .LASF15
     /tmp/ccNYnEwN.s:3180   .debug_str:0000000000000ba8 .LASF16
     /tmp/ccNYnEwN.s:3110   .debug_str:000000000000094b .LASF49
     /tmp/ccNYnEwN.s:3170   .debug_str:0000000000000b5a .LASF19
     /tmp/ccNYnEwN.s:3038   .debug_str:0000000000000672 .LASF17
     /tmp/ccNYnEwN.s:2926   .debug_str:00000000000002b4 .LASF18
     /tmp/ccNYnEwN.s:2986   .debug_str:000000000000047d .LASF20
     /tmp/ccNYnEwN.s:3042   .debug_str:000000000000068a .LASF21
     /tmp/ccNYnEwN.s:3044   .debug_str:0000000000000698 .LASF22
     /tmp/ccNYnEwN.s:2982   .debug_str:0000000000000468 .LASF23
     /tmp/ccNYnEwN.s:3306   .debug_str:0000000000001095 .LASF24
     /tmp/ccNYnEwN.s:3070   .debug_str:000000000000079a .LASF25
     /tmp/ccNYnEwN.s:2884   .debug_str:00000000000000ec .LASF27
     /tmp/ccNYnEwN.s:3198   .debug_str:0000000000000c56 .LASF26
     /tmp/ccNYnEwN.s:3072   .debug_str:00000000000007a4 .LASF28
     /tmp/ccNYnEwN.s:3258   .debug_str:0000000000000ef3 .LASF37
     /tmp/ccNYnEwN.s:3226   .debug_str:0000000000000db7 .LASF39
     /tmp/ccNYnEwN.s:3124   .debug_str:00000000000009b2 .LASF31
     /tmp/ccNYnEwN.s:2880   .debug_str:00000000000000b0 .LASF33
     /tmp/ccNYnEwN.s:3268   .debug_str:0000000000000f27 .LASF29
     /tmp/ccNYnEwN.s:2878   .debug_str:0000000000000082 .LASF30
     /tmp/ccNYnEwN.s:3206   .debug_str:0000000000000c85 .LASF32
     /tmp/ccNYnEwN.s:3006   .debug_str:0000000000000528 .LASF34
     /tmp/ccNYnEwN.s:2866   .debug_str:000000000000001b .LASF35
     /tmp/ccNYnEwN.s:3098   .debug_str:00000000000008cd .LASF36
     /tmp/ccNYnEwN.s:2968   .debug_str:00000000000003e5 .LASF38
     /tmp/ccNYnEwN.s:3270   .debug_str:0000000000000f3d .LASF40
     /tmp/ccNYnEwN.s:3182   .debug_str:0000000000000bbe .LASF41
     /tmp/ccNYnEwN.s:2962   .debug_str:0000000000000395 .LASF42
     /tmp/ccNYnEwN.s:2956   .debug_str:0000000000000374 .LASF43
     /tmp/ccNYnEwN.s:3256   .debug_str:0000000000000ec4 .LASF44
     /tmp/ccNYnEwN.s:3272   .debug_str:0000000000000f65 .LASF45
     /tmp/ccNYnEwN.s:3064   .debug_str:000000000000073e .LASF46
     /tmp/ccNYnEwN.s:2936   .debug_str:00000000000002de .LASF47
     /tmp/ccNYnEwN.s:3100   .debug_str:00000000000008f7 .LASF48
     /tmp/ccNYnEwN.s:2990   .debug_str:0000000000000493 .LASF50
     /tmp/ccNYnEwN.s:2886   .debug_str:000000000000010d .LASF220
     /tmp/ccNYnEwN.s:3288   .debug_str:0000000000000fe3 .LASF221
     /tmp/ccNYnEwN.s:3298   .debug_str:000000000000105c .LASF51
     /tmp/ccNYnEwN.s:2908   .debug_str:000000000000020e .LASF52
     /tmp/ccNYnEwN.s:2874   .debug_str:000000000000006a .LASF53
     /tmp/ccNYnEwN.s:3106   .debug_str:0000000000000924 .LASF54
     /tmp/ccNYnEwN.s:3156   .debug_str:0000000000000af0 .LASF55
     /tmp/ccNYnEwN.s:3136   .debug_str:0000000000000a39 .LASF186
     /tmp/ccNYnEwN.s:2914   .debug_str:000000000000024c .LASF56
GAS LISTING /tmp/ccNYnEwN.s 			page 13


     /tmp/ccNYnEwN.s:3292   .debug_str:000000000000100d .LASF57
     /tmp/ccNYnEwN.s:3160   .debug_str:0000000000000b09 .LASF58
     /tmp/ccNYnEwN.s:2940   .debug_str:00000000000002f4 .LASF59
     /tmp/ccNYnEwN.s:3212   .debug_str:0000000000000cb0 .LASF222
     /tmp/ccNYnEwN.s:2920   .debug_str:000000000000028f .LASF60
     /tmp/ccNYnEwN.s:3168   .debug_str:0000000000000b52 .LASF61
     /tmp/ccNYnEwN.s:2932   .debug_str:00000000000002ca .LASF62
     /tmp/ccNYnEwN.s:2910   .debug_str:0000000000000220 .LASF63
     /tmp/ccNYnEwN.s:3116   .debug_str:0000000000000988 .LASF64
     /tmp/ccNYnEwN.s:2930   .debug_str:00000000000002c1 .LASF65
     /tmp/ccNYnEwN.s:3264   .debug_str:0000000000000f1a .LASF66
     /tmp/ccNYnEwN.s:3010   .debug_str:000000000000056b .LASF67
     /tmp/ccNYnEwN.s:3230   .debug_str:0000000000000dfc .LASF68
     /tmp/ccNYnEwN.s:3236   .debug_str:0000000000000e1e .LASF223
     /tmp/ccNYnEwN.s:3102   .debug_str:0000000000000915 .LASF69
     /tmp/ccNYnEwN.s:3266   .debug_str:0000000000000f22 .LASF70
     /tmp/ccNYnEwN.s:3092   .debug_str:0000000000000881 .LASF71
     /tmp/ccNYnEwN.s:3286   .debug_str:0000000000000fdd .LASF72
     /tmp/ccNYnEwN.s:3220   .debug_str:0000000000000d94 .LASF73
     /tmp/ccNYnEwN.s:2952   .debug_str:0000000000000366 .LASF74
     /tmp/ccNYnEwN.s:2892   .debug_str:0000000000000153 .LASF75
     /tmp/ccNYnEwN.s:3216   .debug_str:0000000000000cc8 .LASF76
     /tmp/ccNYnEwN.s:3158   .debug_str:0000000000000af8 .LASF77
     /tmp/ccNYnEwN.s:3046   .debug_str:00000000000006ab .LASF80
     /tmp/ccNYnEwN.s:3050   .debug_str:00000000000006d0 .LASF82
     /tmp/ccNYnEwN.s:2972   .debug_str:0000000000000417 .LASF78
     /tmp/ccNYnEwN.s:3026   .debug_str:00000000000005e6 .LASF79
     /tmp/ccNYnEwN.s:3162   .debug_str:0000000000000b1a .LASF81
     /tmp/ccNYnEwN.s:3078   .debug_str:00000000000007f2 .LASF83
     /tmp/ccNYnEwN.s:3146   .debug_str:0000000000000a8a .LASF84
     /tmp/ccNYnEwN.s:3186   .debug_str:0000000000000bed .LASF85
     /tmp/ccNYnEwN.s:3082   .debug_str:0000000000000828 .LASF86
     /tmp/ccNYnEwN.s:2868   .debug_str:000000000000002c .LASF87
     /tmp/ccNYnEwN.s:3278   .debug_str:0000000000000fa8 .LASF88
     /tmp/ccNYnEwN.s:3112   .debug_str:000000000000095b .LASF89
     /tmp/ccNYnEwN.s:3178   .debug_str:0000000000000b9a .LASF90
     /tmp/ccNYnEwN.s:3122   .debug_str:00000000000009a6 .LASF91
     /tmp/ccNYnEwN.s:2950   .debug_str:0000000000000356 .LASF92
     /tmp/ccNYnEwN.s:2980   .debug_str:0000000000000458 .LASF93
     /tmp/ccNYnEwN.s:3134   .debug_str:0000000000000a2c .LASF94
     /tmp/ccNYnEwN.s:3056   .debug_str:000000000000070a .LASF95
     /tmp/ccNYnEwN.s:3280   .debug_str:0000000000000fb7 .LASF96
     /tmp/ccNYnEwN.s:3030   .debug_str:0000000000000605 .LASF97
     /tmp/ccNYnEwN.s:3174   .debug_str:0000000000000b7d .LASF98
     /tmp/ccNYnEwN.s:3290   .debug_str:0000000000000ff7 .LASF99
     /tmp/ccNYnEwN.s:3200   .debug_str:0000000000000c5f .LASF100
     /tmp/ccNYnEwN.s:2946   .debug_str:000000000000033b .LASF101
     /tmp/ccNYnEwN.s:2928   .debug_str:00000000000002b9 .LASF102
     /tmp/ccNYnEwN.s:3018   .debug_str:0000000000000599 .LASF103
     /tmp/ccNYnEwN.s:3090   .debug_str:0000000000000862 .LASF104
     /tmp/ccNYnEwN.s:2944   .debug_str:0000000000000329 .LASF105
     /tmp/ccNYnEwN.s:3128   .debug_str:00000000000009f0 .LASF106
     /tmp/ccNYnEwN.s:3310   .debug_str:00000000000010a4 .LASF107
     /tmp/ccNYnEwN.s:3094   .debug_str:000000000000088d .LASF108
     /tmp/ccNYnEwN.s:3144   .debug_str:0000000000000a77 .LASF109
     /tmp/ccNYnEwN.s:3164   .debug_str:0000000000000b23 .LASF110
     /tmp/ccNYnEwN.s:3252   .debug_str:0000000000000ea6 .LASF111
GAS LISTING /tmp/ccNYnEwN.s 			page 14


     /tmp/ccNYnEwN.s:3066   .debug_str:000000000000075d .LASF112
     /tmp/ccNYnEwN.s:3238   .debug_str:0000000000000e36 .LASF113
     /tmp/ccNYnEwN.s:3184   .debug_str:0000000000000bcd .LASF114
     /tmp/ccNYnEwN.s:3108   .debug_str:0000000000000937 .LASF115
     /tmp/ccNYnEwN.s:3096   .debug_str:00000000000008ae .LASF116
     /tmp/ccNYnEwN.s:2960   .debug_str:000000000000038c .LASF117
     /tmp/ccNYnEwN.s:3022   .debug_str:00000000000005c9 .LASF118
     /tmp/ccNYnEwN.s:2996   .debug_str:00000000000004cb .LASF119
     /tmp/ccNYnEwN.s:3224   .debug_str:0000000000000dad .LASF120
     /tmp/ccNYnEwN.s:2984   .debug_str:0000000000000471 .LASF121
     /tmp/ccNYnEwN.s:3284   .debug_str:0000000000000fcf .LASF122
     /tmp/ccNYnEwN.s:2900   .debug_str:00000000000001be .LASF123
     /tmp/ccNYnEwN.s:2974   .debug_str:0000000000000423 .LASF124
     /tmp/ccNYnEwN.s:2918   .debug_str:0000000000000263 .LASF125
     /tmp/ccNYnEwN.s:3300   .debug_str:0000000000001069 .LASF126
     /tmp/ccNYnEwN.s:2916   .debug_str:0000000000000252 .LASF127
     /tmp/ccNYnEwN.s:2872   .debug_str:0000000000000065 .LASF128
     /tmp/ccNYnEwN.s:3248   .debug_str:0000000000000e95 .LASF129
     /tmp/ccNYnEwN.s:3054   .debug_str:0000000000000702 .LASF130
     /tmp/ccNYnEwN.s:2958   .debug_str:0000000000000386 .LASF131
     /tmp/ccNYnEwN.s:3234   .debug_str:0000000000000e16 .LASF132
     /tmp/ccNYnEwN.s:2906   .debug_str:00000000000001fd .LASF133
     /tmp/ccNYnEwN.s:3060   .debug_str:0000000000000725 .LASF134
     /tmp/ccNYnEwN.s:3132   .debug_str:0000000000000a21 .LASF135
     /tmp/ccNYnEwN.s:2998   .debug_str:00000000000004d3 .LASF136
     /tmp/ccNYnEwN.s:3140   .debug_str:0000000000000a5f .LASF137
     /tmp/ccNYnEwN.s:3130   .debug_str:0000000000000a0d .LASF138
     /tmp/ccNYnEwN.s:2954   .debug_str:000000000000036f .LASF139
     /tmp/ccNYnEwN.s:3172   .debug_str:0000000000000b66 .LASF140
     /tmp/ccNYnEwN.s:3194   .debug_str:0000000000000c4a .LASF141
     /tmp/ccNYnEwN.s:3086   .debug_str:0000000000000840 .LASF142
     /tmp/ccNYnEwN.s:2864   .debug_str:000000000000000f .LASF143
     /tmp/ccNYnEwN.s:3142   .debug_str:0000000000000a6b .LASF144
     /tmp/ccNYnEwN.s:3062   .debug_str:000000000000072a .LASF145
     /tmp/ccNYnEwN.s:3012   .debug_str:0000000000000571 .LASF146
     /tmp/ccNYnEwN.s:3222   .debug_str:0000000000000da4 .LASF147
     /tmp/ccNYnEwN.s:2934   .debug_str:00000000000002d4 .LASF148
     /tmp/ccNYnEwN.s:3084   .debug_str:0000000000000837 .LASF149
     /tmp/ccNYnEwN.s:3208   .debug_str:0000000000000c9a .LASF150
     /tmp/ccNYnEwN.s:2862   .debug_str:0000000000000000 .LASF151
     /tmp/ccNYnEwN.s:3004   .debug_str:0000000000000506 .LASF152
     /tmp/ccNYnEwN.s:3232   .debug_str:0000000000000e07 .LASF153
     /tmp/ccNYnEwN.s:3188   .debug_str:0000000000000c09 .LASF154
     /tmp/ccNYnEwN.s:3166   .debug_str:0000000000000b41 .LASF155
     /tmp/ccNYnEwN.s:2942   .debug_str:0000000000000305 .LASF156
     /tmp/ccNYnEwN.s:3204   .debug_str:0000000000000c75 .LASF157
     /tmp/ccNYnEwN.s:3126   .debug_str:00000000000009cd .LASF158
     /tmp/ccNYnEwN.s:3014   .debug_str:0000000000000586 .LASF159
     /tmp/ccNYnEwN.s:3302   .debug_str:0000000000001070 .LASF160
     /tmp/ccNYnEwN.s:2876   .debug_str:000000000000007a .LASF161
     /tmp/ccNYnEwN.s:3052   .debug_str:00000000000006e8 .LASF162
     /tmp/ccNYnEwN.s:3296   .debug_str:000000000000104c .LASF163
     /tmp/ccNYnEwN.s:3152   .debug_str:0000000000000ac0 .LASF164
     /tmp/ccNYnEwN.s:3192   .debug_str:0000000000000c37 .LASF165
     /tmp/ccNYnEwN.s:3148   .debug_str:0000000000000a93 .LASF166
     /tmp/ccNYnEwN.s:3304   .debug_str:0000000000001088 .LASF167
     /tmp/ccNYnEwN.s:3036   .debug_str:000000000000064e .LASF168
GAS LISTING /tmp/ccNYnEwN.s 			page 15


     /tmp/ccNYnEwN.s:3088   .debug_str:0000000000000859 .LASF169
     /tmp/ccNYnEwN.s:2904   .debug_str:00000000000001ed .LASF170
     /tmp/ccNYnEwN.s:3228   .debug_str:0000000000000dda .LASF171
     /tmp/ccNYnEwN.s:3154   .debug_str:0000000000000ae3 .LASF172
     /tmp/ccNYnEwN.s:2870   .debug_str:0000000000000046 .LASF173
     /tmp/ccNYnEwN.s:3240   .debug_str:0000000000000e4b .LASF174
     /tmp/ccNYnEwN.s:3008   .debug_str:0000000000000557 .LASF175
     /tmp/ccNYnEwN.s:3104   .debug_str:000000000000091a .LASF176
     /tmp/ccNYnEwN.s:3202   .debug_str:0000000000000c6a .LASF177
     /tmp/ccNYnEwN.s:3120   .debug_str:000000000000099c .LASF178
     /tmp/ccNYnEwN.s:3254   .debug_str:0000000000000eb9 .LASF179
     /tmp/ccNYnEwN.s:3210   .debug_str:0000000000000ca5 .LASF180
     /tmp/ccNYnEwN.s:3250   .debug_str:0000000000000e9a .LASF181
     /tmp/ccNYnEwN.s:3262   .debug_str:0000000000000f0d .LASF182
     /tmp/ccNYnEwN.s:3074   .debug_str:00000000000007c5 .LASF183
     /tmp/ccNYnEwN.s:3118   .debug_str:0000000000000990 .LASF184
     /tmp/ccNYnEwN.s:3176   .debug_str:0000000000000b88 .LASF185
     /tmp/ccNYnEwN.s:2970   .debug_str:00000000000003f5 .LASF187
     /tmp/ccNYnEwN.s:3244   .debug_str:0000000000000e70 .LASF188
     /tmp/ccNYnEwN.s:3276   .debug_str:0000000000000f86 .LASF189
     /tmp/ccNYnEwN.s:3242   .debug_str:0000000000000e5e .LASF190
     /tmp/ccNYnEwN.s:2888   .debug_str:0000000000000125 .LASF191
     /tmp/ccNYnEwN.s:3246   .debug_str:0000000000000e82 .LASF192
     /tmp/ccNYnEwN.s:3080   .debug_str:0000000000000805 .LASF193
     /tmp/ccNYnEwN.s:2964   .debug_str:00000000000003bc .LASF194
     /tmp/ccNYnEwN.s:2912   .debug_str:0000000000000229 .LASF195
     /tmp/ccNYnEwN.s:2894   .debug_str:0000000000000166 .LASF196
     /tmp/ccNYnEwN.s:3260   .debug_str:0000000000000efe .LASF197
     /tmp/ccNYnEwN.s:3068   .debug_str:000000000000077b .LASF198
     /tmp/ccNYnEwN.s:3274   .debug_str:0000000000000f6d .LASF199
     /tmp/ccNYnEwN.s:3032   .debug_str:0000000000000612 .LASF200
     /tmp/ccNYnEwN.s:3048   .debug_str:00000000000006b8 .LASF201
     /tmp/ccNYnEwN.s:3294   .debug_str:0000000000001023 .LASF202
     /tmp/ccNYnEwN.s:2976   .debug_str:0000000000000438 .LASF203
     /tmp/ccNYnEwN.s:3214   .debug_str:0000000000000cb6 .LASF204
     /tmp/ccNYnEwN.s:2988   .debug_str:0000000000000486 .LASF205
     /tmp/ccNYnEwN.s:3282   .debug_str:0000000000000fc2 .LASF206
     /tmp/ccNYnEwN.s:3002   .debug_str:00000000000004f5 .LASF207
     /tmp/ccNYnEwN.s:2890   .debug_str:0000000000000147 .LASF208
     /tmp/ccNYnEwN.s:3020   .debug_str:00000000000005ad .LASF209
     /tmp/ccNYnEwN.s:3058   .debug_str:0000000000000719 .LASF210
     /tmp/ccNYnEwN.s:2896   .debug_str:0000000000000181 .LASF211
     /tmp/ccNYnEwN.s:3196   .debug_str:0000000000000c51 .LASF212
     /tmp/ccNYnEwN.s:3076   .debug_str:00000000000007d1 .LASF213
     /tmp/ccNYnEwN.s:2898   .debug_str:000000000000019d .LASF214
     /tmp/ccNYnEwN.s:249    .text:0000000000000128 .LFB10
     /tmp/ccNYnEwN.s:302    .text:0000000000000188 .LFE10
     /tmp/ccNYnEwN.s:3308   .debug_str:000000000000109f .LASF215
     /tmp/ccNYnEwN.s:2774   .debug_loc:0000000000000000 .LLST6
     /tmp/ccNYnEwN.s:276    .text:000000000000015c .LVL17
     /tmp/ccNYnEwN.s:281    .text:000000000000016c .LVL18
     /tmp/ccNYnEwN.s:188    .text:00000000000000dc .LFB9
     /tmp/ccNYnEwN.s:238    .text:0000000000000128 .LFE9
     /tmp/ccNYnEwN.s:2902   .debug_str:00000000000001e6 .LASF216
     /tmp/ccNYnEwN.s:2781   .debug_loc:0000000000000023 .LLST5
     /tmp/ccNYnEwN.s:125    .text:0000000000000088 .LFB8
     /tmp/ccNYnEwN.s:182    .text:00000000000000dc .LFE8
GAS LISTING /tmp/ccNYnEwN.s 			page 16


     /tmp/ccNYnEwN.s:137    .text:0000000000000094 .LBB4
     /tmp/ccNYnEwN.s:145    .text:0000000000000098 .LBE4
     /tmp/ccNYnEwN.s:2792   .debug_loc:0000000000000059 .LLST3
     /tmp/ccNYnEwN.s:2800   .debug_loc:000000000000007d .LLST4
     /tmp/ccNYnEwN.s:75     .text:0000000000000050 .LFB7
     /tmp/ccNYnEwN.s:119    .text:0000000000000088 .LFE7
     /tmp/ccNYnEwN.s:2807   .debug_loc:00000000000000a0 .LLST2
     /tmp/ccNYnEwN.s:43     .text:0000000000000028 .LFB6
     /tmp/ccNYnEwN.s:69     .text:0000000000000050 .LFE6
     /tmp/ccNYnEwN.s:2819   .debug_loc:00000000000000d7 .LLST1
     /tmp/ccNYnEwN.s:58     .text:0000000000000040 .LVL3
     /tmp/ccNYnEwN.s:10     .text:0000000000000000 .LFB5
     /tmp/ccNYnEwN.s:37     .text:0000000000000028 .LFE5
     /tmp/ccNYnEwN.s:2833   .debug_loc:0000000000000110 .LLST0
     /tmp/ccNYnEwN.s:26     .text:0000000000000018 .LVL1
     /tmp/ccNYnEwN.s:2948   .debug_str:0000000000000351 .LASF224
     /tmp/ccNYnEwN.s:265    .text:0000000000000144 .LVL16
     /tmp/ccNYnEwN.s:297    .text:0000000000000180 .LVL20
     /tmp/ccNYnEwN.s:203    .text:00000000000000f4 .LVL13
     /tmp/ccNYnEwN.s:217    .text:0000000000000108 .LVL14
     /tmp/ccNYnEwN.s:227    .text:0000000000000114 .LVL15
     /tmp/ccNYnEwN.s:136    .text:0000000000000094 .LVL11
     /tmp/ccNYnEwN.s:143    .text:0000000000000098 .LVL12
     /tmp/ccNYnEwN.s:85     .text:000000000000005c .LVL4
     /tmp/ccNYnEwN.s:92     .text:0000000000000068 .LVL6
     /tmp/ccNYnEwN.s:111    .text:000000000000007c .LVL9
     /tmp/ccNYnEwN.s:46     .text:0000000000000028 .LVL2
     /tmp/ccNYnEwN.s:14     .text:0000000000000000 .LVL0
     /tmp/ccNYnEwN.s:325    .debug_info:0000000000000000 .Ldebug_info0

UNDEFINED SYMBOLS
_ZN15MemoryAllocator7kmallocEm
_ZN15MemoryAllocator5kfreeEPv
_ZN8KConsole12trapPrintIntEmii
_ZN8KConsole15trapPrintStringEPKc
