GAS LISTING /tmp/ccfcBQ0x.s 			page 1


   1              		.file	"Scheduler.cpp"
   2              		.option pic
   3              		.option norelax
   4              		.text
   5              	.Ltext0:
   6              		.align	2
   7              		.globl	_ZN9SchedulernwEm
   9              	_ZN9SchedulernwEm:
  10              	.LFB5:
  11              		.file 1 "src/Scheduler.cpp"
   1:src/Scheduler.cpp **** //
   2:src/Scheduler.cpp **** // Created by os on 4/27/22.
   3:src/Scheduler.cpp **** //
   4:src/Scheduler.cpp **** 
   5:src/Scheduler.cpp **** #include "../h/Scheduler.hpp"
   6:src/Scheduler.cpp **** #include "../h/PCB.hpp"
   7:src/Scheduler.cpp **** #include "../h/KConsole.hpp"
   8:src/Scheduler.cpp **** 
   9:src/Scheduler.cpp **** PCB* Scheduler::schedulerPCBHead = 0;
  10:src/Scheduler.cpp **** PCB* Scheduler::schedulerPCBTail = 0;
  11:src/Scheduler.cpp **** 
  12:src/Scheduler.cpp **** void *Scheduler::operator new(size_t size)
  13:src/Scheduler.cpp **** {
  12              		.loc 1 13 1
  13              		.cfi_startproc
  14              	.LVL0:
  15 0000 130101FF 		addi	sp,sp,-16
  16              		.cfi_def_cfa_offset 16
  17 0004 23341100 		sd	ra,8(sp)
  18 0008 23308100 		sd	s0,0(sp)
  19              		.cfi_offset 1, -8
  20              		.cfi_offset 8, -16
  21 000c 13040101 		addi	s0,sp,16
  22              		.cfi_def_cfa 8, 0
  14:src/Scheduler.cpp ****     return MemoryAllocator::kmalloc(size);
  23              		.loc 1 14 5
  24              		.loc 1 14 36 is_stmt 0
  25 0010 97000000 		call	_ZN15MemoryAllocator7kmallocEm@plt
  25      E7800000 
  26              	.LVL1:
  15:src/Scheduler.cpp **** }
  27              		.loc 1 15 1
  28 0018 83308100 		ld	ra,8(sp)
  29              		.cfi_restore 1
  30 001c 03340100 		ld	s0,0(sp)
  31              		.cfi_restore 8
  32              		.cfi_def_cfa 2, 16
  33 0020 13010101 		addi	sp,sp,16
  34              		.cfi_def_cfa_offset 0
  35 0024 67800000 		jr	ra
  36              		.cfi_endproc
  37              	.LFE5:
  39              		.align	2
  40              		.globl	_ZN9SchedulerdlEPv
  42              	_ZN9SchedulerdlEPv:
  43              	.LFB6:
  16:src/Scheduler.cpp **** 
GAS LISTING /tmp/ccfcBQ0x.s 			page 2


  17:src/Scheduler.cpp **** void Scheduler::operator delete(void *p)
  18:src/Scheduler.cpp **** {
  44              		.loc 1 18 1 is_stmt 1
  45              		.cfi_startproc
  46              	.LVL2:
  47 0028 130101FF 		addi	sp,sp,-16
  48              		.cfi_def_cfa_offset 16
  49 002c 23341100 		sd	ra,8(sp)
  50 0030 23308100 		sd	s0,0(sp)
  51              		.cfi_offset 1, -8
  52              		.cfi_offset 8, -16
  53 0034 13040101 		addi	s0,sp,16
  54              		.cfi_def_cfa 8, 0
  19:src/Scheduler.cpp ****     MemoryAllocator::kfree(p);
  55              		.loc 1 19 5
  56              		.loc 1 19 27 is_stmt 0
  57 0038 97000000 		call	_ZN15MemoryAllocator5kfreeEPv@plt
  57      E7800000 
  58              	.LVL3:
  20:src/Scheduler.cpp **** }
  59              		.loc 1 20 1
  60 0040 83308100 		ld	ra,8(sp)
  61              		.cfi_restore 1
  62 0044 03340100 		ld	s0,0(sp)
  63              		.cfi_restore 8
  64              		.cfi_def_cfa 2, 16
  65 0048 13010101 		addi	sp,sp,16
  66              		.cfi_def_cfa_offset 0
  67 004c 67800000 		jr	ra
  68              		.cfi_endproc
  69              	.LFE6:
  71              		.align	2
  72              		.globl	_ZN9Scheduler7getSizeEv
  74              	_ZN9Scheduler7getSizeEv:
  75              	.LFB7:
  21:src/Scheduler.cpp **** 
  22:src/Scheduler.cpp **** int Scheduler::getSize()
  23:src/Scheduler.cpp **** {
  76              		.loc 1 23 1 is_stmt 1
  77              		.cfi_startproc
  78 0050 130101FF 		addi	sp,sp,-16
  79              		.cfi_def_cfa_offset 16
  80 0054 23348100 		sd	s0,8(sp)
  81              		.cfi_offset 8, -8
  82 0058 13040101 		addi	s0,sp,16
  83              		.cfi_def_cfa 8, 0
  24:src/Scheduler.cpp ****     uint64 sz = 0;
  84              		.loc 1 24 5
  85              	.LVL4:
  25:src/Scheduler.cpp ****     PCB* curr = schedulerPCBHead;
  86              		.loc 1 25 5
  87              		.loc 1 25 10 is_stmt 0
  88 005c 97070000 		ld	a5,.LANCHOR0
  88      83B70700 
  89              	.LVL5:
  24:src/Scheduler.cpp ****     uint64 sz = 0;
  90              		.loc 1 24 12
GAS LISTING /tmp/ccfcBQ0x.s 			page 3


  91 0064 13050000 		li	a0,0
  92              	.LVL6:
  93              	.L7:
  26:src/Scheduler.cpp ****     while(curr != 0)
  94              		.loc 1 26 5 is_stmt 1
  95              		.loc 1 26 16
  96 0068 63880700 		beqz	a5,.L6
  27:src/Scheduler.cpp ****     {
  28:src/Scheduler.cpp ****         sz++;
  97              		.loc 1 28 9
  98              		.loc 1 28 11 is_stmt 0
  99 006c 13051500 		addi	a0,a0,1
 100              	.LVL7:
  29:src/Scheduler.cpp ****         curr = curr->nextPCB;
 101              		.loc 1 29 9 is_stmt 1
 102              		.loc 1 29 14 is_stmt 0
 103 0070 83B78700 		ld	a5,8(a5)
 104              	.LVL8:
  26:src/Scheduler.cpp ****     while(curr != 0)
 105              		.loc 1 26 5
 106 0074 6FF05FFF 		j	.L7
 107              	.L6:
  30:src/Scheduler.cpp ****     }
  31:src/Scheduler.cpp ****     return sz;
 108              		.loc 1 31 5 is_stmt 1
  32:src/Scheduler.cpp **** }
 109              		.loc 1 32 1 is_stmt 0
 110 0078 1B050500 		sext.w	a0,a0
 111              	.LVL9:
 112 007c 03348100 		ld	s0,8(sp)
 113              		.cfi_restore 8
 114              		.cfi_def_cfa 2, 16
 115 0080 13010101 		addi	sp,sp,16
 116              		.cfi_def_cfa_offset 0
 117 0084 67800000 		jr	ra
 118              		.cfi_endproc
 119              	.LFE7:
 121              		.align	2
 122              		.globl	_ZN9Scheduler3putEP3PCB
 124              	_ZN9Scheduler3putEP3PCB:
 125              	.LFB8:
  33:src/Scheduler.cpp **** 
  34:src/Scheduler.cpp **** void Scheduler::put(PCB *pcb)
  35:src/Scheduler.cpp **** {
 126              		.loc 1 35 1 is_stmt 1
 127              		.cfi_startproc
 128              	.LVL10:
 129 0088 130101FF 		addi	sp,sp,-16
 130              		.cfi_def_cfa_offset 16
 131 008c 23348100 		sd	s0,8(sp)
 132              		.cfi_offset 8, -8
 133 0090 13040101 		addi	s0,sp,16
 134              		.cfi_def_cfa 8, 0
  36:src/Scheduler.cpp ****     pcb->setState(PCB::READY);
 135              		.loc 1 36 5
 136              	.LVL11:
 137              	.LBB4:
GAS LISTING /tmp/ccfcBQ0x.s 			page 4


 138              	.LBB5:
 139              		.file 2 "src/../h/PCB.hpp"
   1:src/../h/PCB.hpp **** //
   2:src/../h/PCB.hpp **** // Created by os on 4/27/22.
   3:src/../h/PCB.hpp **** //
   4:src/../h/PCB.hpp **** 
   5:src/../h/PCB.hpp **** #ifndef PROJECT_BASE_V1_0_PCB_HPP
   6:src/../h/PCB.hpp **** #define PROJECT_BASE_V1_0_PCB_HPP
   7:src/../h/PCB.hpp **** 
   8:src/../h/PCB.hpp **** #include "../lib/hw.h"
   9:src/../h/PCB.hpp **** 
  10:src/../h/PCB.hpp **** class PCB
  11:src/../h/PCB.hpp **** {
  12:src/../h/PCB.hpp **** private:
  13:src/../h/PCB.hpp ****     static uint64 savedRegA4;
  14:src/../h/PCB.hpp **** 
  15:src/../h/PCB.hpp ****     using Body = void (*)(void*);
  16:src/../h/PCB.hpp **** 
  17:src/../h/PCB.hpp ****     PCB(Body body,  void* args, void* stack_space, uint64 timeSlice);
  18:src/../h/PCB.hpp ****     ~PCB();
  19:src/../h/PCB.hpp **** 
  20:src/../h/PCB.hpp ****     void start();
  21:src/../h/PCB.hpp ****     static void dispatch();
  22:src/../h/PCB.hpp **** 
  23:src/../h/PCB.hpp ****     static PCB* running;
  24:src/../h/PCB.hpp **** 
  25:src/../h/PCB.hpp ****     static uint64 timeSliceCounter;
  26:src/../h/PCB.hpp ****     uint64 getTimeSlice() { return timeSlice;}
  27:src/../h/PCB.hpp **** 
  28:src/../h/PCB.hpp ****     void* operator new(size_t size);
  29:src/../h/PCB.hpp ****     void operator delete(void *p);
  30:src/../h/PCB.hpp **** 
  31:src/../h/PCB.hpp ****     enum State{READY, RUNNING, SUSPENDED, FINISHED, EXITING, SLEEPING};
  32:src/../h/PCB.hpp ****     State getState() {return state;}
  33:src/../h/PCB.hpp ****     void setState(State s) {state = s;}
 140              		.loc 2 33 29
 141              		.loc 2 33 35 is_stmt 0
 142 0094 23200504 		sw	zero,64(a0)
 143              	.LVL12:
 144              	.LBE5:
 145              	.LBE4:
  37:src/Scheduler.cpp ****     pcb->nextPCB = 0;
 146              		.loc 1 37 5 is_stmt 1
 147              		.loc 1 37 18 is_stmt 0
 148 0098 23340500 		sd	zero,8(a0)
  38:src/Scheduler.cpp ****     if(schedulerPCBHead == 0)
 149              		.loc 1 38 5 is_stmt 1
 150              		.loc 1 38 25 is_stmt 0
 151 009c 97070000 		ld	a5,.LANCHOR0
 151      83B70700 
 152              		.loc 1 38 5
 153 00a4 63820702 		beqz	a5,.L13
  39:src/Scheduler.cpp ****         schedulerPCBHead = schedulerPCBTail = pcb;
  40:src/Scheduler.cpp ****     else
  41:src/Scheduler.cpp ****     {
  42:src/Scheduler.cpp ****         schedulerPCBTail->nextPCB = pcb;
 154              		.loc 1 42 9 is_stmt 1
GAS LISTING /tmp/ccfcBQ0x.s 			page 5


 155              		.loc 1 42 27 is_stmt 0
 156 00a8 97070000 		lla	a5,.LANCHOR0
 156      93870700 
 157 00b0 03B78700 		ld	a4,8(a5)
 158              		.loc 1 42 35
 159 00b4 2334A700 		sd	a0,8(a4)
  43:src/Scheduler.cpp ****         schedulerPCBTail = pcb;
 160              		.loc 1 43 9 is_stmt 1
 161              		.loc 1 43 26 is_stmt 0
 162 00b8 23B4A700 		sd	a0,8(a5)
 163              	.L9:
  44:src/Scheduler.cpp ****     }
  45:src/Scheduler.cpp **** }
 164              		.loc 1 45 1
 165 00bc 03348100 		ld	s0,8(sp)
 166              		.cfi_remember_state
 167              		.cfi_restore 8
 168              		.cfi_def_cfa 2, 16
 169 00c0 13010101 		addi	sp,sp,16
 170              		.cfi_def_cfa_offset 0
 171 00c4 67800000 		jr	ra
 172              	.L13:
 173              		.cfi_restore_state
  39:src/Scheduler.cpp ****     else
 174              		.loc 1 39 9 is_stmt 1
  39:src/Scheduler.cpp ****     else
 175              		.loc 1 39 45 is_stmt 0
 176 00c8 97070000 		lla	a5,.LANCHOR0
 176      93870700 
 177 00d0 23B4A700 		sd	a0,8(a5)
  39:src/Scheduler.cpp ****     else
 178              		.loc 1 39 26
 179 00d4 23B0A700 		sd	a0,0(a5)
 180 00d8 6FF05FFE 		j	.L9
 181              		.cfi_endproc
 182              	.LFE8:
 184              		.align	2
 185              		.globl	_ZN9Scheduler3getEv
 187              	_ZN9Scheduler3getEv:
 188              	.LFB9:
  46:src/Scheduler.cpp **** 
  47:src/Scheduler.cpp **** PCB *Scheduler::get()
  48:src/Scheduler.cpp **** {
 189              		.loc 1 48 1 is_stmt 1
 190              		.cfi_startproc
 191 00dc 130101FF 		addi	sp,sp,-16
 192              		.cfi_def_cfa_offset 16
 193 00e0 23348100 		sd	s0,8(sp)
 194              		.cfi_offset 8, -8
 195 00e4 13040101 		addi	s0,sp,16
 196              		.cfi_def_cfa 8, 0
  49:src/Scheduler.cpp ****     if(schedulerPCBHead == 0)
 197              		.loc 1 49 5
 198              		.loc 1 49 25 is_stmt 0
 199 00e8 17050000 		ld	a0,.LANCHOR0
 199      03350500 
 200              		.loc 1 49 5
GAS LISTING /tmp/ccfcBQ0x.s 			page 6


 201 00f0 630C0500 		beqz	a0,.L14
  50:src/Scheduler.cpp ****         return 0;
  51:src/Scheduler.cpp ****     PCB* retval = schedulerPCBHead;
 202              		.loc 1 51 5 is_stmt 1
 203              	.LVL13:
  52:src/Scheduler.cpp ****     if(schedulerPCBHead->nextPCB == 0)
 204              		.loc 1 52 5
 205              		.loc 1 52 26 is_stmt 0
 206 00f4 83378500 		ld	a5,8(a0)
 207              		.loc 1 52 5
 208 00f8 638E0700 		beqz	a5,.L19
  53:src/Scheduler.cpp ****         schedulerPCBHead = schedulerPCBTail = 0;
  54:src/Scheduler.cpp ****     else
  55:src/Scheduler.cpp ****         schedulerPCBHead = schedulerPCBHead->nextPCB;
 209              		.loc 1 55 9 is_stmt 1
 210              		.loc 1 55 26 is_stmt 0
 211 00fc 17070000 		sd	a5,.LANCHOR0,a4
 211      2330F700 
 212              	.L17:
  56:src/Scheduler.cpp ****     retval->nextPCB = 0;
 213              		.loc 1 56 5 is_stmt 1
 214              		.loc 1 56 21 is_stmt 0
 215 0104 23340500 		sd	zero,8(a0)
  57:src/Scheduler.cpp ****     return retval;
 216              		.loc 1 57 5 is_stmt 1
 217              	.LVL14:
 218              	.L14:
  58:src/Scheduler.cpp **** }
 219              		.loc 1 58 1 is_stmt 0
 220 0108 03348100 		ld	s0,8(sp)
 221              		.cfi_remember_state
 222              		.cfi_restore 8
 223              		.cfi_def_cfa 2, 16
 224 010c 13010101 		addi	sp,sp,16
 225              		.cfi_def_cfa_offset 0
 226 0110 67800000 		jr	ra
 227              	.LVL15:
 228              	.L19:
 229              		.cfi_restore_state
  53:src/Scheduler.cpp ****     else
 230              		.loc 1 53 9 is_stmt 1
  53:src/Scheduler.cpp ****     else
 231              		.loc 1 53 45 is_stmt 0
 232 0114 97070000 		lla	a5,.LANCHOR0
 232      93870700 
 233 011c 23B40700 		sd	zero,8(a5)
  53:src/Scheduler.cpp ****     else
 234              		.loc 1 53 26
 235 0120 23B00700 		sd	zero,0(a5)
 236 0124 6FF01FFE 		j	.L17
 237              		.cfi_endproc
 238              	.LFE9:
 240              		.section	.rodata.str1.8,"aMS",@progbits,1
 241              		.align	3
 242              	.LC0:
 243 0000 0A00     		.string	"\n"
 244              		.text
GAS LISTING /tmp/ccfcBQ0x.s 			page 7


 245              		.align	2
 246              		.globl	_ZN9Scheduler5printEv
 248              	_ZN9Scheduler5printEv:
 249              	.LFB10:
  59:src/Scheduler.cpp **** 
  60:src/Scheduler.cpp **** void Scheduler::print()
  61:src/Scheduler.cpp **** {
 250              		.loc 1 61 1 is_stmt 1
 251              		.cfi_startproc
 252 0128 130101FE 		addi	sp,sp,-32
 253              		.cfi_def_cfa_offset 32
 254 012c 233C1100 		sd	ra,24(sp)
 255 0130 23388100 		sd	s0,16(sp)
 256 0134 23349100 		sd	s1,8(sp)
 257              		.cfi_offset 1, -8
 258              		.cfi_offset 8, -16
 259              		.cfi_offset 9, -24
 260 0138 13040102 		addi	s0,sp,32
 261              		.cfi_def_cfa 8, 0
  62:src/Scheduler.cpp ****     //trapPrintString("Scheduler print\n");
  63:src/Scheduler.cpp ****     PCB* curr = schedulerPCBHead;
 262              		.loc 1 63 5
 263              		.loc 1 63 10 is_stmt 0
 264 013c 97040000 		ld	s1,.LANCHOR0
 264      83B40400 
 265              	.LVL16:
 266              	.L22:
  64:src/Scheduler.cpp ****     while(curr != 0)
 267              		.loc 1 64 5 is_stmt 1
 268              		.loc 1 64 16
 269 0144 63880402 		beqz	s1,.L20
  65:src/Scheduler.cpp ****     {
  66:src/Scheduler.cpp ****         KConsole::trapPrintInt((uint64)curr, 16);
 270              		.loc 1 66 9
 271              		.loc 1 66 31 is_stmt 0
 272 0148 13060000 		li	a2,0
 273 014c 93050001 		li	a1,16
 274 0150 13850400 		mv	a0,s1
 275 0154 97000000 		call	_ZN8KConsole12trapPrintIntEmii@plt
 275      E7800000 
 276              	.LVL17:
  67:src/Scheduler.cpp ****         KConsole::trapPrintString("\n");
 277              		.loc 1 67 9 is_stmt 1
 278              		.loc 1 67 34 is_stmt 0
 279 015c 17050000 		lla	a0,.LC0
 279      13050500 
 280 0164 97000000 		call	_ZN8KConsole15trapPrintStringEPKc@plt
 280      E7800000 
 281              	.LVL18:
  68:src/Scheduler.cpp ****         curr = curr->nextPCB;
 282              		.loc 1 68 9 is_stmt 1
 283              		.loc 1 68 14 is_stmt 0
 284 016c 83B48400 		ld	s1,8(s1)
 285              	.LVL19:
  64:src/Scheduler.cpp ****     {
 286              		.loc 1 64 5
 287 0170 6FF05FFD 		j	.L22
GAS LISTING /tmp/ccfcBQ0x.s 			page 8


 288              	.L20:
  69:src/Scheduler.cpp ****     }
  70:src/Scheduler.cpp **** }
 289              		.loc 1 70 1
 290 0174 83308101 		ld	ra,24(sp)
 291              		.cfi_restore 1
 292 0178 03340101 		ld	s0,16(sp)
 293              		.cfi_restore 8
 294              		.cfi_def_cfa 2, 32
 295 017c 83348100 		ld	s1,8(sp)
 296              		.cfi_restore 9
 297              	.LVL20:
 298 0180 13010102 		addi	sp,sp,32
 299              		.cfi_def_cfa_offset 0
 300 0184 67800000 		jr	ra
 301              		.cfi_endproc
 302              	.LFE10:
 304              		.globl	_ZN9Scheduler16schedulerPCBTailE
 305              		.globl	_ZN9Scheduler16schedulerPCBHeadE
 306              		.bss
 307              		.align	3
 308              		.set	.LANCHOR0,. + 0
 311              	_ZN9Scheduler16schedulerPCBHeadE:
 312 0000 00000000 		.zero	8
 312      00000000 
 315              	_ZN9Scheduler16schedulerPCBTailE:
 316 0008 00000000 		.zero	8
 316      00000000 
 317              		.text
 318              	.Letext0:
 319              		.file 3 "src/../h/../lib/hw.h"
 320              		.file 4 "src/../h/MemoryAllocator.hpp"
 321              		.file 5 "src/../h/Scheduler.hpp"
 322              		.file 6 "src/../h/KSemaphore.hpp"
 323              		.file 7 "src/../h/KConsole.hpp"
GAS LISTING /tmp/ccfcBQ0x.s 			page 9


DEFINED SYMBOLS
                            *ABS*:0000000000000000 Scheduler.cpp
     /tmp/ccfcBQ0x.s:9      .text:0000000000000000 _ZN9SchedulernwEm
     /tmp/ccfcBQ0x.s:13     .text:0000000000000000 .L0 
     /tmp/ccfcBQ0x.s:15     .text:0000000000000000 .L0 
     /tmp/ccfcBQ0x.s:16     .text:0000000000000004 .L0 
     /tmp/ccfcBQ0x.s:19     .text:000000000000000c .L0 
     /tmp/ccfcBQ0x.s:20     .text:000000000000000c .L0 
     /tmp/ccfcBQ0x.s:22     .text:0000000000000010 .L0 
     /tmp/ccfcBQ0x.s:24     .text:0000000000000010 .L0 
     /tmp/ccfcBQ0x.s:25     .text:0000000000000010 .L0 
     /tmp/ccfcBQ0x.s:28     .text:0000000000000018 .L0 
     /tmp/ccfcBQ0x.s:29     .text:000000000000001c .L0 
     /tmp/ccfcBQ0x.s:31     .text:0000000000000020 .L0 
     /tmp/ccfcBQ0x.s:32     .text:0000000000000020 .L0 
     /tmp/ccfcBQ0x.s:34     .text:0000000000000024 .L0 
     /tmp/ccfcBQ0x.s:36     .text:0000000000000028 .L0 
     /tmp/ccfcBQ0x.s:42     .text:0000000000000028 _ZN9SchedulerdlEPv
     /tmp/ccfcBQ0x.s:45     .text:0000000000000028 .L0 
     /tmp/ccfcBQ0x.s:47     .text:0000000000000028 .L0 
     /tmp/ccfcBQ0x.s:48     .text:000000000000002c .L0 
     /tmp/ccfcBQ0x.s:51     .text:0000000000000034 .L0 
     /tmp/ccfcBQ0x.s:52     .text:0000000000000034 .L0 
     /tmp/ccfcBQ0x.s:54     .text:0000000000000038 .L0 
     /tmp/ccfcBQ0x.s:56     .text:0000000000000038 .L0 
     /tmp/ccfcBQ0x.s:57     .text:0000000000000038 .L0 
     /tmp/ccfcBQ0x.s:60     .text:0000000000000040 .L0 
     /tmp/ccfcBQ0x.s:61     .text:0000000000000044 .L0 
     /tmp/ccfcBQ0x.s:63     .text:0000000000000048 .L0 
     /tmp/ccfcBQ0x.s:64     .text:0000000000000048 .L0 
     /tmp/ccfcBQ0x.s:66     .text:000000000000004c .L0 
     /tmp/ccfcBQ0x.s:68     .text:0000000000000050 .L0 
     /tmp/ccfcBQ0x.s:74     .text:0000000000000050 _ZN9Scheduler7getSizeEv
     /tmp/ccfcBQ0x.s:77     .text:0000000000000050 .L0 
     /tmp/ccfcBQ0x.s:78     .text:0000000000000050 .L0 
     /tmp/ccfcBQ0x.s:79     .text:0000000000000054 .L0 
     /tmp/ccfcBQ0x.s:81     .text:0000000000000058 .L0 
     /tmp/ccfcBQ0x.s:83     .text:000000000000005c .L0 
     /tmp/ccfcBQ0x.s:86     .text:000000000000005c .L0 
     /tmp/ccfcBQ0x.s:87     .text:000000000000005c .L0 
     /tmp/ccfcBQ0x.s:88     .text:000000000000005c .L0 
     /tmp/ccfcBQ0x.s:91     .text:0000000000000064 .L0 
     /tmp/ccfcBQ0x.s:95     .text:0000000000000068 .L0 
     /tmp/ccfcBQ0x.s:96     .text:0000000000000068 .L0 
     /tmp/ccfcBQ0x.s:98     .text:000000000000006c .L0 
     /tmp/ccfcBQ0x.s:99     .text:000000000000006c .L0 
     /tmp/ccfcBQ0x.s:102    .text:0000000000000070 .L0 
     /tmp/ccfcBQ0x.s:103    .text:0000000000000070 .L0 
     /tmp/ccfcBQ0x.s:106    .text:0000000000000074 .L0 
     /tmp/ccfcBQ0x.s:109    .text:0000000000000078 .L0 
     /tmp/ccfcBQ0x.s:110    .text:0000000000000078 .L0 
     /tmp/ccfcBQ0x.s:113    .text:0000000000000080 .L0 
     /tmp/ccfcBQ0x.s:114    .text:0000000000000080 .L0 
     /tmp/ccfcBQ0x.s:116    .text:0000000000000084 .L0 
     /tmp/ccfcBQ0x.s:118    .text:0000000000000088 .L0 
     /tmp/ccfcBQ0x.s:124    .text:0000000000000088 _ZN9Scheduler3putEP3PCB
     /tmp/ccfcBQ0x.s:127    .text:0000000000000088 .L0 
GAS LISTING /tmp/ccfcBQ0x.s 			page 10


     /tmp/ccfcBQ0x.s:129    .text:0000000000000088 .L0 
     /tmp/ccfcBQ0x.s:130    .text:000000000000008c .L0 
     /tmp/ccfcBQ0x.s:132    .text:0000000000000090 .L0 
     /tmp/ccfcBQ0x.s:134    .text:0000000000000094 .L0 
     /tmp/ccfcBQ0x.s:140    .text:0000000000000094 .L0 
     /tmp/ccfcBQ0x.s:141    .text:0000000000000094 .L0 
     /tmp/ccfcBQ0x.s:142    .text:0000000000000094 .L0 
     /tmp/ccfcBQ0x.s:147    .text:0000000000000098 .L0 
     /tmp/ccfcBQ0x.s:148    .text:0000000000000098 .L0 
     /tmp/ccfcBQ0x.s:150    .text:000000000000009c .L0 
     /tmp/ccfcBQ0x.s:151    .text:000000000000009c .L0 
     /tmp/ccfcBQ0x.s:153    .text:00000000000000a4 .L0 
     /tmp/ccfcBQ0x.s:155    .text:00000000000000a8 .L0 
     /tmp/ccfcBQ0x.s:156    .text:00000000000000a8 .L0 
     /tmp/ccfcBQ0x.s:159    .text:00000000000000b4 .L0 
     /tmp/ccfcBQ0x.s:161    .text:00000000000000b8 .L0 
     /tmp/ccfcBQ0x.s:162    .text:00000000000000b8 .L0 
     /tmp/ccfcBQ0x.s:165    .text:00000000000000bc .L0 
     /tmp/ccfcBQ0x.s:166    .text:00000000000000c0 .L0 
     /tmp/ccfcBQ0x.s:167    .text:00000000000000c0 .L0 
     /tmp/ccfcBQ0x.s:168    .text:00000000000000c0 .L0 
     /tmp/ccfcBQ0x.s:170    .text:00000000000000c4 .L0 
     /tmp/ccfcBQ0x.s:173    .text:00000000000000c8 .L0 
     /tmp/ccfcBQ0x.s:175    .text:00000000000000c8 .L0 
     /tmp/ccfcBQ0x.s:176    .text:00000000000000c8 .L0 
     /tmp/ccfcBQ0x.s:179    .text:00000000000000d4 .L0 
     /tmp/ccfcBQ0x.s:181    .text:00000000000000dc .L0 
     /tmp/ccfcBQ0x.s:187    .text:00000000000000dc _ZN9Scheduler3getEv
     /tmp/ccfcBQ0x.s:190    .text:00000000000000dc .L0 
     /tmp/ccfcBQ0x.s:191    .text:00000000000000dc .L0 
     /tmp/ccfcBQ0x.s:192    .text:00000000000000e0 .L0 
     /tmp/ccfcBQ0x.s:194    .text:00000000000000e4 .L0 
     /tmp/ccfcBQ0x.s:196    .text:00000000000000e8 .L0 
     /tmp/ccfcBQ0x.s:198    .text:00000000000000e8 .L0 
     /tmp/ccfcBQ0x.s:199    .text:00000000000000e8 .L0 
     /tmp/ccfcBQ0x.s:201    .text:00000000000000f0 .L0 
     /tmp/ccfcBQ0x.s:204    .text:00000000000000f4 .L0 
     /tmp/ccfcBQ0x.s:205    .text:00000000000000f4 .L0 
     /tmp/ccfcBQ0x.s:206    .text:00000000000000f4 .L0 
     /tmp/ccfcBQ0x.s:208    .text:00000000000000f8 .L0 
     /tmp/ccfcBQ0x.s:210    .text:00000000000000fc .L0 
     /tmp/ccfcBQ0x.s:211    .text:00000000000000fc .L0 
     /tmp/ccfcBQ0x.s:214    .text:0000000000000104 .L0 
     /tmp/ccfcBQ0x.s:215    .text:0000000000000104 .L0 
     /tmp/ccfcBQ0x.s:219    .text:0000000000000108 .L0 
     /tmp/ccfcBQ0x.s:220    .text:0000000000000108 .L0 
     /tmp/ccfcBQ0x.s:221    .text:000000000000010c .L0 
     /tmp/ccfcBQ0x.s:222    .text:000000000000010c .L0 
     /tmp/ccfcBQ0x.s:223    .text:000000000000010c .L0 
     /tmp/ccfcBQ0x.s:225    .text:0000000000000110 .L0 
     /tmp/ccfcBQ0x.s:229    .text:0000000000000114 .L0 
     /tmp/ccfcBQ0x.s:231    .text:0000000000000114 .L0 
     /tmp/ccfcBQ0x.s:232    .text:0000000000000114 .L0 
     /tmp/ccfcBQ0x.s:235    .text:0000000000000120 .L0 
     /tmp/ccfcBQ0x.s:237    .text:0000000000000128 .L0 
     /tmp/ccfcBQ0x.s:248    .text:0000000000000128 _ZN9Scheduler5printEv
     /tmp/ccfcBQ0x.s:251    .text:0000000000000128 .L0 
GAS LISTING /tmp/ccfcBQ0x.s 			page 11


     /tmp/ccfcBQ0x.s:252    .text:0000000000000128 .L0 
     /tmp/ccfcBQ0x.s:253    .text:000000000000012c .L0 
     /tmp/ccfcBQ0x.s:257    .text:0000000000000138 .L0 
     /tmp/ccfcBQ0x.s:258    .text:0000000000000138 .L0 
     /tmp/ccfcBQ0x.s:259    .text:0000000000000138 .L0 
     /tmp/ccfcBQ0x.s:261    .text:000000000000013c .L0 
     /tmp/ccfcBQ0x.s:263    .text:000000000000013c .L0 
     /tmp/ccfcBQ0x.s:264    .text:000000000000013c .L0 
     /tmp/ccfcBQ0x.s:268    .text:0000000000000144 .L0 
     /tmp/ccfcBQ0x.s:269    .text:0000000000000144 .L0 
     /tmp/ccfcBQ0x.s:271    .text:0000000000000148 .L0 
     /tmp/ccfcBQ0x.s:272    .text:0000000000000148 .L0 
     /tmp/ccfcBQ0x.s:278    .text:000000000000015c .L0 
     /tmp/ccfcBQ0x.s:279    .text:000000000000015c .L0 
     /tmp/ccfcBQ0x.s:283    .text:000000000000016c .L0 
     /tmp/ccfcBQ0x.s:284    .text:000000000000016c .L0 
     /tmp/ccfcBQ0x.s:287    .text:0000000000000170 .L0 
     /tmp/ccfcBQ0x.s:290    .text:0000000000000174 .L0 
     /tmp/ccfcBQ0x.s:291    .text:0000000000000178 .L0 
     /tmp/ccfcBQ0x.s:293    .text:000000000000017c .L0 
     /tmp/ccfcBQ0x.s:294    .text:000000000000017c .L0 
     /tmp/ccfcBQ0x.s:296    .text:0000000000000180 .L0 
     /tmp/ccfcBQ0x.s:299    .text:0000000000000184 .L0 
     /tmp/ccfcBQ0x.s:301    .text:0000000000000188 .L0 
     /tmp/ccfcBQ0x.s:315    .bss:0000000000000008 _ZN9Scheduler16schedulerPCBTailE
     /tmp/ccfcBQ0x.s:311    .bss:0000000000000000 _ZN9Scheduler16schedulerPCBHeadE
     /tmp/ccfcBQ0x.s:308    .bss:0000000000000000 .LANCHOR0
     /tmp/ccfcBQ0x.s:324    .text:0000000000000188 .L0 
     /tmp/ccfcBQ0x.s:88     .text:000000000000005c .L0 
     /tmp/ccfcBQ0x.s:151    .text:000000000000009c .L0 
     /tmp/ccfcBQ0x.s:156    .text:00000000000000a8 .L0 
     /tmp/ccfcBQ0x.s:176    .text:00000000000000c8 .L0 
     /tmp/ccfcBQ0x.s:199    .text:00000000000000e8 .L0 
     /tmp/ccfcBQ0x.s:211    .text:00000000000000fc .L0 
     /tmp/ccfcBQ0x.s:232    .text:0000000000000114 .L0 
     /tmp/ccfcBQ0x.s:264    .text:000000000000013c .L0 
     /tmp/ccfcBQ0x.s:242    .rodata.str1.8:0000000000000000 .LC0
     /tmp/ccfcBQ0x.s:279    .text:000000000000015c .L0 
     /tmp/ccfcBQ0x.s:107    .text:0000000000000078 .L6
     /tmp/ccfcBQ0x.s:93     .text:0000000000000068 .L7
     /tmp/ccfcBQ0x.s:172    .text:00000000000000c8 .L13
     /tmp/ccfcBQ0x.s:163    .text:00000000000000bc .L9
     /tmp/ccfcBQ0x.s:218    .text:0000000000000108 .L14
     /tmp/ccfcBQ0x.s:228    .text:0000000000000114 .L19
     /tmp/ccfcBQ0x.s:212    .text:0000000000000104 .L17
     /tmp/ccfcBQ0x.s:288    .text:0000000000000174 .L20
     /tmp/ccfcBQ0x.s:266    .text:0000000000000144 .L22
     /tmp/ccfcBQ0x.s:1877   .debug_abbrev:0000000000000000 .Ldebug_abbrev0
     /tmp/ccfcBQ0x.s:3049   .debug_str:00000000000004df .LASF218
     /tmp/ccfcBQ0x.s:3081   .debug_str:00000000000006c1 .LASF219
     /tmp/ccfcBQ0x.s:3021   .debug_str:0000000000000402 .LASF220
     /tmp/ccfcBQ0x.s:5      .text:0000000000000000 .Ltext0
     /tmp/ccfcBQ0x.s:318    .text:0000000000000188 .Letext0
     /tmp/ccfcBQ0x.s:2911   .debug_line:0000000000000000 .Ldebug_line0
     /tmp/ccfcBQ0x.s:3073   .debug_str:0000000000000679 .LASF0
     /tmp/ccfcBQ0x.s:3097   .debug_str:0000000000000764 .LASF1
     /tmp/ccfcBQ0x.s:3197   .debug_str:0000000000000b65 .LASF2
GAS LISTING /tmp/ccfcBQ0x.s 			page 12


     /tmp/ccfcBQ0x.s:3209   .debug_str:0000000000000bcd .LASF4
     /tmp/ccfcBQ0x.s:3085   .debug_str:00000000000006e0 .LASF3
     /tmp/ccfcBQ0x.s:2933   .debug_str:00000000000000e5 .LASF5
     /tmp/ccfcBQ0x.s:3171   .debug_str:0000000000000a62 .LASF6
     /tmp/ccfcBQ0x.s:3091   .debug_str:0000000000000728 .LASF7
     /tmp/ccfcBQ0x.s:3045   .debug_str:00000000000004bc .LASF8
     /tmp/ccfcBQ0x.s:3055   .debug_str:00000000000005cb .LASF9
     /tmp/ccfcBQ0x.s:2977   .debug_str:00000000000002b8 .LASF10
     /tmp/ccfcBQ0x.s:3247   .debug_str:0000000000000d1d .LASF11
     /tmp/ccfcBQ0x.s:3031   .debug_str:000000000000046b .LASF12
     /tmp/ccfcBQ0x.s:2989   .debug_str:00000000000002f1 .LASF13
     /tmp/ccfcBQ0x.s:2975   .debug_str:00000000000002a8 .LASF14
     /tmp/ccfcBQ0x.s:3251   .debug_str:0000000000000d52 .LASF15
     /tmp/ccfcBQ0x.s:3017   .debug_str:00000000000003dc .LASF16
     /tmp/ccfcBQ0x.s:3239   .debug_str:0000000000000cbc .LASF17
     /tmp/ccfcBQ0x.s:3167   .debug_str:0000000000000a38 .LASF48
     /tmp/ccfcBQ0x.s:3229   .debug_str:0000000000000c6e .LASF24
     /tmp/ccfcBQ0x.s:3095   .debug_str:000000000000075f .LASF18
     /tmp/ccfcBQ0x.s:2979   .debug_str:00000000000002c7 .LASF19
     /tmp/ccfcBQ0x.s:3329   .debug_str:0000000000000fb6 .LASF20
     /tmp/ccfcBQ0x.s:3121   .debug_str:000000000000082b .LASF22
     /tmp/ccfcBQ0x.s:3035   .debug_str:000000000000048a .LASF21
     /tmp/ccfcBQ0x.s:3157   .debug_str:00000000000009e4 .LASF23
     /tmp/ccfcBQ0x.s:3039   .debug_str:000000000000049c .LASF25
     /tmp/ccfcBQ0x.s:3099   .debug_str:0000000000000777 .LASF26
     /tmp/ccfcBQ0x.s:3101   .debug_str:0000000000000785 .LASF27
     /tmp/ccfcBQ0x.s:3057   .debug_str:00000000000005d9 .LASF28
     /tmp/ccfcBQ0x.s:3363   .debug_str:00000000000010e6 .LASF29
     /tmp/ccfcBQ0x.s:3127   .debug_str:0000000000000887 .LASF30
     /tmp/ccfcBQ0x.s:2935   .debug_str:00000000000000ec .LASF32
     /tmp/ccfcBQ0x.s:3259   .debug_str:0000000000000d7d .LASF31
     /tmp/ccfcBQ0x.s:3129   .debug_str:0000000000000891 .LASF33
     /tmp/ccfcBQ0x.s:3315   .debug_str:0000000000000f44 .LASF34
     /tmp/ccfcBQ0x.s:3311   .debug_str:0000000000000ef1 .LASF36
     /tmp/ccfcBQ0x.s:3181   .debug_str:0000000000000a9f .LASF35
     /tmp/ccfcBQ0x.s:2931   .debug_str:00000000000000b0 .LASF37
     /tmp/ccfcBQ0x.s:3325   .debug_str:0000000000000f78 .LASF38
     /tmp/ccfcBQ0x.s:2929   .debug_str:0000000000000082 .LASF39
     /tmp/ccfcBQ0x.s:3267   .debug_str:0000000000000dac .LASF40
     /tmp/ccfcBQ0x.s:3063   .debug_str:0000000000000615 .LASF41
     /tmp/ccfcBQ0x.s:2917   .debug_str:000000000000001b .LASF42
     /tmp/ccfcBQ0x.s:3155   .debug_str:00000000000009ba .LASF43
     /tmp/ccfcBQ0x.s:3019   .debug_str:00000000000003f2 .LASF44
     /tmp/ccfcBQ0x.s:3327   .debug_str:0000000000000f8e .LASF46
     /tmp/ccfcBQ0x.s:3241   .debug_str:0000000000000cd2 .LASF45
     /tmp/ccfcBQ0x.s:3013   .debug_str:00000000000003a2 .LASF47
     /tmp/ccfcBQ0x.s:3007   .debug_str:0000000000000381 .LASF221
     /tmp/ccfcBQ0x.s:3313   .debug_str:0000000000000f15 .LASF222
     /tmp/ccfcBQ0x.s:3043   .debug_str:00000000000004b2 .LASF49
     /tmp/ccfcBQ0x.s:2937   .debug_str:000000000000010d .LASF223
     /tmp/ccfcBQ0x.s:3345   .debug_str:0000000000001034 .LASF224
     /tmp/ccfcBQ0x.s:3355   .debug_str:00000000000010ad .LASF50
     /tmp/ccfcBQ0x.s:2961   .debug_str:0000000000000221 .LASF51
     /tmp/ccfcBQ0x.s:2925   .debug_str:000000000000006a .LASF52
     /tmp/ccfcBQ0x.s:3163   .debug_str:0000000000000a11 .LASF53
     /tmp/ccfcBQ0x.s:3215   .debug_str:0000000000000c04 .LASF54
     /tmp/ccfcBQ0x.s:3195   .debug_str:0000000000000b4d .LASF187
GAS LISTING /tmp/ccfcBQ0x.s 			page 13


     /tmp/ccfcBQ0x.s:2967   .debug_str:000000000000025f .LASF55
     /tmp/ccfcBQ0x.s:3349   .debug_str:000000000000105e .LASF56
     /tmp/ccfcBQ0x.s:3219   .debug_str:0000000000000c1d .LASF57
     /tmp/ccfcBQ0x.s:2991   .debug_str:0000000000000301 .LASF58
     /tmp/ccfcBQ0x.s:3273   .debug_str:0000000000000dd7 .LASF225
     /tmp/ccfcBQ0x.s:2973   .debug_str:00000000000002a2 .LASF59
     /tmp/ccfcBQ0x.s:3227   .debug_str:0000000000000c66 .LASF60
     /tmp/ccfcBQ0x.s:2985   .debug_str:00000000000002dd .LASF61
     /tmp/ccfcBQ0x.s:2963   .debug_str:0000000000000233 .LASF62
     /tmp/ccfcBQ0x.s:3173   .debug_str:0000000000000a75 .LASF63
     /tmp/ccfcBQ0x.s:2983   .debug_str:00000000000002d4 .LASF64
     /tmp/ccfcBQ0x.s:3321   .debug_str:0000000000000f6b .LASF65
     /tmp/ccfcBQ0x.s:3067   .debug_str:0000000000000658 .LASF66
     /tmp/ccfcBQ0x.s:3287   .debug_str:0000000000000e3c .LASF67
     /tmp/ccfcBQ0x.s:3293   .debug_str:0000000000000e5e .LASF226
     /tmp/ccfcBQ0x.s:3159   .debug_str:0000000000000a02 .LASF68
     /tmp/ccfcBQ0x.s:3323   .debug_str:0000000000000f73 .LASF69
     /tmp/ccfcBQ0x.s:3149   .debug_str:000000000000096e .LASF70
     /tmp/ccfcBQ0x.s:3343   .debug_str:000000000000102e .LASF71
     /tmp/ccfcBQ0x.s:3279   .debug_str:0000000000000df7 .LASF72
     /tmp/ccfcBQ0x.s:3003   .debug_str:0000000000000373 .LASF73
     /tmp/ccfcBQ0x.s:2943   .debug_str:0000000000000153 .LASF74
     /tmp/ccfcBQ0x.s:3277   .debug_str:0000000000000def .LASF75
     /tmp/ccfcBQ0x.s:3217   .debug_str:0000000000000c0c .LASF76
     /tmp/ccfcBQ0x.s:3103   .debug_str:0000000000000798 .LASF77
     /tmp/ccfcBQ0x.s:3107   .debug_str:00000000000007bd .LASF78
     /tmp/ccfcBQ0x.s:3025   .debug_str:0000000000000439 .LASF79
     /tmp/ccfcBQ0x.s:3083   .debug_str:00000000000006d3 .LASF80
     /tmp/ccfcBQ0x.s:3221   .debug_str:0000000000000c2e .LASF81
     /tmp/ccfcBQ0x.s:3135   .debug_str:00000000000008df .LASF82
     /tmp/ccfcBQ0x.s:3205   .debug_str:0000000000000b9e .LASF83
     /tmp/ccfcBQ0x.s:3245   .debug_str:0000000000000d01 .LASF84
     /tmp/ccfcBQ0x.s:3139   .debug_str:0000000000000915 .LASF85
     /tmp/ccfcBQ0x.s:2919   .debug_str:000000000000002c .LASF86
     /tmp/ccfcBQ0x.s:3335   .debug_str:0000000000000ff9 .LASF87
     /tmp/ccfcBQ0x.s:3169   .debug_str:0000000000000a48 .LASF88
     /tmp/ccfcBQ0x.s:3237   .debug_str:0000000000000cae .LASF89
     /tmp/ccfcBQ0x.s:3179   .debug_str:0000000000000a93 .LASF90
     /tmp/ccfcBQ0x.s:3001   .debug_str:0000000000000363 .LASF91
     /tmp/ccfcBQ0x.s:3033   .debug_str:000000000000047a .LASF92
     /tmp/ccfcBQ0x.s:3193   .debug_str:0000000000000b40 .LASF93
     /tmp/ccfcBQ0x.s:3113   .debug_str:00000000000007f7 .LASF94
     /tmp/ccfcBQ0x.s:3337   .debug_str:0000000000001008 .LASF95
     /tmp/ccfcBQ0x.s:3087   .debug_str:00000000000006f2 .LASF96
     /tmp/ccfcBQ0x.s:3233   .debug_str:0000000000000c91 .LASF97
     /tmp/ccfcBQ0x.s:3347   .debug_str:0000000000001048 .LASF98
     /tmp/ccfcBQ0x.s:3261   .debug_str:0000000000000d86 .LASF99
     /tmp/ccfcBQ0x.s:2997   .debug_str:0000000000000348 .LASF100
     /tmp/ccfcBQ0x.s:2981   .debug_str:00000000000002cc .LASF101
     /tmp/ccfcBQ0x.s:3075   .debug_str:0000000000000686 .LASF102
     /tmp/ccfcBQ0x.s:3147   .debug_str:000000000000094f .LASF103
     /tmp/ccfcBQ0x.s:2995   .debug_str:0000000000000336 .LASF104
     /tmp/ccfcBQ0x.s:3185   .debug_str:0000000000000add .LASF105
     /tmp/ccfcBQ0x.s:3367   .debug_str:00000000000010f5 .LASF106
     /tmp/ccfcBQ0x.s:3151   .debug_str:000000000000097a .LASF107
     /tmp/ccfcBQ0x.s:3203   .debug_str:0000000000000b8b .LASF108
     /tmp/ccfcBQ0x.s:3223   .debug_str:0000000000000c37 .LASF109
GAS LISTING /tmp/ccfcBQ0x.s 			page 14


     /tmp/ccfcBQ0x.s:3307   .debug_str:0000000000000ed3 .LASF110
     /tmp/ccfcBQ0x.s:3123   .debug_str:000000000000084a .LASF111
     /tmp/ccfcBQ0x.s:3295   .debug_str:0000000000000e76 .LASF112
     /tmp/ccfcBQ0x.s:3243   .debug_str:0000000000000ce1 .LASF113
     /tmp/ccfcBQ0x.s:3165   .debug_str:0000000000000a24 .LASF114
     /tmp/ccfcBQ0x.s:3153   .debug_str:000000000000099b .LASF115
     /tmp/ccfcBQ0x.s:3011   .debug_str:0000000000000399 .LASF116
     /tmp/ccfcBQ0x.s:3079   .debug_str:00000000000006b6 .LASF117
     /tmp/ccfcBQ0x.s:3051   .debug_str:00000000000005af .LASF118
     /tmp/ccfcBQ0x.s:3283   .debug_str:0000000000000e10 .LASF119
     /tmp/ccfcBQ0x.s:3037   .debug_str:0000000000000490 .LASF120
     /tmp/ccfcBQ0x.s:3341   .debug_str:0000000000001020 .LASF121
     /tmp/ccfcBQ0x.s:2953   .debug_str:00000000000001d1 .LASF122
     /tmp/ccfcBQ0x.s:3027   .debug_str:0000000000000445 .LASF123
     /tmp/ccfcBQ0x.s:2971   .debug_str:0000000000000276 .LASF124
     /tmp/ccfcBQ0x.s:3357   .debug_str:00000000000010ba .LASF125
     /tmp/ccfcBQ0x.s:2969   .debug_str:0000000000000265 .LASF126
     /tmp/ccfcBQ0x.s:2923   .debug_str:0000000000000065 .LASF127
     /tmp/ccfcBQ0x.s:3303   .debug_str:0000000000000ec2 .LASF128
     /tmp/ccfcBQ0x.s:3111   .debug_str:00000000000007ef .LASF129
     /tmp/ccfcBQ0x.s:3009   .debug_str:0000000000000393 .LASF130
     /tmp/ccfcBQ0x.s:3291   .debug_str:0000000000000e56 .LASF131
     /tmp/ccfcBQ0x.s:2959   .debug_str:0000000000000210 .LASF132
     /tmp/ccfcBQ0x.s:3117   .debug_str:0000000000000812 .LASF133
     /tmp/ccfcBQ0x.s:3189   .debug_str:0000000000000b0e .LASF134
     /tmp/ccfcBQ0x.s:3053   .debug_str:00000000000005b7 .LASF135
     /tmp/ccfcBQ0x.s:3199   .debug_str:0000000000000b73 .LASF136
     /tmp/ccfcBQ0x.s:3187   .debug_str:0000000000000afa .LASF137
     /tmp/ccfcBQ0x.s:3005   .debug_str:000000000000037c .LASF138
     /tmp/ccfcBQ0x.s:3231   .debug_str:0000000000000c7a .LASF139
     /tmp/ccfcBQ0x.s:3255   .debug_str:0000000000000d71 .LASF140
     /tmp/ccfcBQ0x.s:3143   .debug_str:000000000000092d .LASF141
     /tmp/ccfcBQ0x.s:2915   .debug_str:000000000000000f .LASF142
     /tmp/ccfcBQ0x.s:3201   .debug_str:0000000000000b7f .LASF143
     /tmp/ccfcBQ0x.s:3119   .debug_str:0000000000000817 .LASF144
     /tmp/ccfcBQ0x.s:3069   .debug_str:000000000000065e .LASF145
     /tmp/ccfcBQ0x.s:3281   .debug_str:0000000000000e07 .LASF146
     /tmp/ccfcBQ0x.s:2987   .debug_str:00000000000002e7 .LASF147
     /tmp/ccfcBQ0x.s:3141   .debug_str:0000000000000924 .LASF148
     /tmp/ccfcBQ0x.s:3269   .debug_str:0000000000000dc1 .LASF149
     /tmp/ccfcBQ0x.s:2913   .debug_str:0000000000000000 .LASF150
     /tmp/ccfcBQ0x.s:3061   .debug_str:00000000000005f3 .LASF151
     /tmp/ccfcBQ0x.s:3289   .debug_str:0000000000000e47 .LASF152
     /tmp/ccfcBQ0x.s:3249   .debug_str:0000000000000d30 .LASF153
     /tmp/ccfcBQ0x.s:3225   .debug_str:0000000000000c55 .LASF154
     /tmp/ccfcBQ0x.s:2993   .debug_str:0000000000000312 .LASF155
     /tmp/ccfcBQ0x.s:3265   .debug_str:0000000000000d9c .LASF156
     /tmp/ccfcBQ0x.s:3183   .debug_str:0000000000000aba .LASF157
     /tmp/ccfcBQ0x.s:3071   .debug_str:0000000000000673 .LASF158
     /tmp/ccfcBQ0x.s:3359   .debug_str:00000000000010c1 .LASF159
     /tmp/ccfcBQ0x.s:2927   .debug_str:000000000000007a .LASF160
     /tmp/ccfcBQ0x.s:3109   .debug_str:00000000000007d5 .LASF161
     /tmp/ccfcBQ0x.s:3353   .debug_str:000000000000109d .LASF162
     /tmp/ccfcBQ0x.s:3211   .debug_str:0000000000000bd4 .LASF163
     /tmp/ccfcBQ0x.s:3253   .debug_str:0000000000000d5e .LASF164
     /tmp/ccfcBQ0x.s:3207   .debug_str:0000000000000ba7 .LASF165
     /tmp/ccfcBQ0x.s:3361   .debug_str:00000000000010d9 .LASF166
GAS LISTING /tmp/ccfcBQ0x.s 			page 15


     /tmp/ccfcBQ0x.s:3093   .debug_str:000000000000073b .LASF167
     /tmp/ccfcBQ0x.s:3145   .debug_str:0000000000000946 .LASF168
     /tmp/ccfcBQ0x.s:2957   .debug_str:0000000000000200 .LASF169
     /tmp/ccfcBQ0x.s:3285   .debug_str:0000000000000e1a .LASF170
     /tmp/ccfcBQ0x.s:3213   .debug_str:0000000000000bf7 .LASF171
     /tmp/ccfcBQ0x.s:2921   .debug_str:0000000000000046 .LASF172
     /tmp/ccfcBQ0x.s:2949   .debug_str:000000000000019d .LASF173
     /tmp/ccfcBQ0x.s:3191   .debug_str:0000000000000b19 .LASF174
     /tmp/ccfcBQ0x.s:3047   .debug_str:00000000000004cc .LASF175
     /tmp/ccfcBQ0x.s:3065   .debug_str:0000000000000644 .LASF176
     /tmp/ccfcBQ0x.s:3161   .debug_str:0000000000000a07 .LASF177
     /tmp/ccfcBQ0x.s:3263   .debug_str:0000000000000d91 .LASF178
     /tmp/ccfcBQ0x.s:3177   .debug_str:0000000000000a89 .LASF179
     /tmp/ccfcBQ0x.s:3309   .debug_str:0000000000000ee6 .LASF180
     /tmp/ccfcBQ0x.s:3271   .debug_str:0000000000000dcc .LASF181
     /tmp/ccfcBQ0x.s:3305   .debug_str:0000000000000ec7 .LASF182
     /tmp/ccfcBQ0x.s:3319   .debug_str:0000000000000f5e .LASF183
     /tmp/ccfcBQ0x.s:3131   .debug_str:00000000000008b2 .LASF184
     /tmp/ccfcBQ0x.s:3175   .debug_str:0000000000000a7d .LASF185
     /tmp/ccfcBQ0x.s:3235   .debug_str:0000000000000c9c .LASF186
     /tmp/ccfcBQ0x.s:3023   .debug_str:0000000000000417 .LASF188
     /tmp/ccfcBQ0x.s:3299   .debug_str:0000000000000e9d .LASF189
     /tmp/ccfcBQ0x.s:3333   .debug_str:0000000000000fd7 .LASF190
     /tmp/ccfcBQ0x.s:3297   .debug_str:0000000000000e8b .LASF191
     /tmp/ccfcBQ0x.s:2939   .debug_str:0000000000000125 .LASF192
     /tmp/ccfcBQ0x.s:3301   .debug_str:0000000000000eaf .LASF193
     /tmp/ccfcBQ0x.s:3137   .debug_str:00000000000008f2 .LASF194
     /tmp/ccfcBQ0x.s:3015   .debug_str:00000000000003c9 .LASF195
     /tmp/ccfcBQ0x.s:2965   .debug_str:000000000000023c .LASF196
     /tmp/ccfcBQ0x.s:2945   .debug_str:0000000000000166 .LASF197
     /tmp/ccfcBQ0x.s:3317   .debug_str:0000000000000f4f .LASF198
     /tmp/ccfcBQ0x.s:3125   .debug_str:0000000000000868 .LASF199
     /tmp/ccfcBQ0x.s:3331   .debug_str:0000000000000fbe .LASF200
     /tmp/ccfcBQ0x.s:3089   .debug_str:00000000000006ff .LASF201
     /tmp/ccfcBQ0x.s:3105   .debug_str:00000000000007a5 .LASF202
     /tmp/ccfcBQ0x.s:3351   .debug_str:0000000000001074 .LASF203
     /tmp/ccfcBQ0x.s:3029   .debug_str:000000000000045a .LASF204
     /tmp/ccfcBQ0x.s:3275   .debug_str:0000000000000ddd .LASF205
     /tmp/ccfcBQ0x.s:3041   .debug_str:00000000000004a5 .LASF206
     /tmp/ccfcBQ0x.s:3339   .debug_str:0000000000001013 .LASF207
     /tmp/ccfcBQ0x.s:3059   .debug_str:00000000000005e2 .LASF208
     /tmp/ccfcBQ0x.s:2941   .debug_str:0000000000000147 .LASF209
     /tmp/ccfcBQ0x.s:3077   .debug_str:000000000000069a .LASF210
     /tmp/ccfcBQ0x.s:3115   .debug_str:0000000000000806 .LASF211
     /tmp/ccfcBQ0x.s:2947   .debug_str:0000000000000181 .LASF212
     /tmp/ccfcBQ0x.s:3257   .debug_str:0000000000000d78 .LASF213
     /tmp/ccfcBQ0x.s:3133   .debug_str:00000000000008be .LASF214
     /tmp/ccfcBQ0x.s:2951   .debug_str:00000000000001b0 .LASF215
     /tmp/ccfcBQ0x.s:249    .text:0000000000000128 .LFB10
     /tmp/ccfcBQ0x.s:302    .text:0000000000000188 .LFE10
     /tmp/ccfcBQ0x.s:3365   .debug_str:00000000000010f0 .LASF216
     /tmp/ccfcBQ0x.s:2825   .debug_loc:0000000000000000 .LLST6
     /tmp/ccfcBQ0x.s:276    .text:000000000000015c .LVL17
     /tmp/ccfcBQ0x.s:281    .text:000000000000016c .LVL18
     /tmp/ccfcBQ0x.s:188    .text:00000000000000dc .LFB9
     /tmp/ccfcBQ0x.s:238    .text:0000000000000128 .LFE9
     /tmp/ccfcBQ0x.s:2955   .debug_str:00000000000001f9 .LASF217
GAS LISTING /tmp/ccfcBQ0x.s 			page 16


     /tmp/ccfcBQ0x.s:2832   .debug_loc:0000000000000023 .LLST5
     /tmp/ccfcBQ0x.s:125    .text:0000000000000088 .LFB8
     /tmp/ccfcBQ0x.s:182    .text:00000000000000dc .LFE8
     /tmp/ccfcBQ0x.s:137    .text:0000000000000094 .LBB4
     /tmp/ccfcBQ0x.s:145    .text:0000000000000098 .LBE4
     /tmp/ccfcBQ0x.s:2843   .debug_loc:0000000000000059 .LLST3
     /tmp/ccfcBQ0x.s:2851   .debug_loc:000000000000007d .LLST4
     /tmp/ccfcBQ0x.s:75     .text:0000000000000050 .LFB7
     /tmp/ccfcBQ0x.s:119    .text:0000000000000088 .LFE7
     /tmp/ccfcBQ0x.s:2858   .debug_loc:00000000000000a0 .LLST2
     /tmp/ccfcBQ0x.s:43     .text:0000000000000028 .LFB6
     /tmp/ccfcBQ0x.s:69     .text:0000000000000050 .LFE6
     /tmp/ccfcBQ0x.s:2870   .debug_loc:00000000000000d7 .LLST1
     /tmp/ccfcBQ0x.s:58     .text:0000000000000040 .LVL3
     /tmp/ccfcBQ0x.s:10     .text:0000000000000000 .LFB5
     /tmp/ccfcBQ0x.s:37     .text:0000000000000028 .LFE5
     /tmp/ccfcBQ0x.s:2884   .debug_loc:0000000000000110 .LLST0
     /tmp/ccfcBQ0x.s:26     .text:0000000000000018 .LVL1
     /tmp/ccfcBQ0x.s:2999   .debug_str:000000000000035e .LASF227
     /tmp/ccfcBQ0x.s:265    .text:0000000000000144 .LVL16
     /tmp/ccfcBQ0x.s:297    .text:0000000000000180 .LVL20
     /tmp/ccfcBQ0x.s:203    .text:00000000000000f4 .LVL13
     /tmp/ccfcBQ0x.s:217    .text:0000000000000108 .LVL14
     /tmp/ccfcBQ0x.s:227    .text:0000000000000114 .LVL15
     /tmp/ccfcBQ0x.s:136    .text:0000000000000094 .LVL11
     /tmp/ccfcBQ0x.s:143    .text:0000000000000098 .LVL12
     /tmp/ccfcBQ0x.s:85     .text:000000000000005c .LVL4
     /tmp/ccfcBQ0x.s:92     .text:0000000000000068 .LVL6
     /tmp/ccfcBQ0x.s:111    .text:000000000000007c .LVL9
     /tmp/ccfcBQ0x.s:46     .text:0000000000000028 .LVL2
     /tmp/ccfcBQ0x.s:14     .text:0000000000000000 .LVL0
     /tmp/ccfcBQ0x.s:325    .debug_info:0000000000000000 .Ldebug_info0

UNDEFINED SYMBOLS
_ZN15MemoryAllocator7kmallocEm
_ZN15MemoryAllocator5kfreeEPv
_ZN8KConsole12trapPrintIntEmii
_ZN8KConsole15trapPrintStringEPKc
