GAS LISTING /tmp/ccM4Qgn5.s 			page 1


   1              		.file	"slabAllocator.cpp"
   2              		.option pic
   3              		.option norelax
   4              		.text
   5              	.Ltext0:
   6              		.align	2
   7              		.globl	_Z6strcpyPKcPc
   9              	_Z6strcpyPKcPc:
  10              	.LFB5:
  11              		.file 1 "src/slabAllocator.cpp"
   1:src/slabAllocator.cpp **** #include "../h/slabAllocator.hpp"
   2:src/slabAllocator.cpp **** #include "../h/buddyAllocator.hpp"
   3:src/slabAllocator.cpp **** #include "../h/KConsole.hpp"
   4:src/slabAllocator.cpp **** 
   5:src/slabAllocator.cpp **** //TODO
   6:src/slabAllocator.cpp **** //check values of the constants
   7:src/slabAllocator.cpp **** #define SLAB_ALLOCATED_LOOKUP 32
   8:src/slabAllocator.cpp **** #define CACHE_NAME_SIZE 64
   9:src/slabAllocator.cpp **** #define CACHE_BUFFER_SMALL 5
  10:src/slabAllocator.cpp **** #define CACHE_BUFFER_BIG 17
  11:src/slabAllocator.cpp **** #define CACHE_BUFFER_SIZE CACHE_BUFFER_BIG - CACHE_BUFFER_SMALL + 1
  12:src/slabAllocator.cpp **** #define CACHE_OF_CACHES_SLAB_SIZE 2
  13:src/slabAllocator.cpp **** 
  14:src/slabAllocator.cpp **** typedef struct slab_s
  15:src/slabAllocator.cpp **** {
  16:src/slabAllocator.cpp ****     slab_s* prev;
  17:src/slabAllocator.cpp ****     slab_s* next;
  18:src/slabAllocator.cpp ****     kmem_cache_t* owner;
  19:src/slabAllocator.cpp ****     size_t numOfObjects;
  20:src/slabAllocator.cpp ****     size_t numOfAllocatedObjects;
  21:src/slabAllocator.cpp ****     unsigned char allocated[SLAB_ALLOCATED_LOOKUP];
  22:src/slabAllocator.cpp **** }slab_t;
  23:src/slabAllocator.cpp **** 
  24:src/slabAllocator.cpp **** typedef struct kmem_cache_s
  25:src/slabAllocator.cpp **** {
  26:src/slabAllocator.cpp ****     char cacheName[CACHE_NAME_SIZE];
  27:src/slabAllocator.cpp ****     slab_t* slabs_empty;
  28:src/slabAllocator.cpp ****     slab_t* slabs_full;
  29:src/slabAllocator.cpp ****     slab_t* slabs_partial;
  30:src/slabAllocator.cpp ****     size_t slab_size;
  31:src/slabAllocator.cpp ****     size_t obj_size;
  32:src/slabAllocator.cpp ****     void (*ctor)(void*);
  33:src/slabAllocator.cpp ****     void (*dtor)(void*);
  34:src/slabAllocator.cpp **** }kmem_cache_t;
  35:src/slabAllocator.cpp **** 
  36:src/slabAllocator.cpp **** typedef struct slab_allocator_s
  37:src/slabAllocator.cpp **** {
  38:src/slabAllocator.cpp ****     buddyAllocator* buddy;
  39:src/slabAllocator.cpp ****     kmem_cache_t* cachesBuffers[CACHE_BUFFER_SIZE];
  40:src/slabAllocator.cpp ****     kmem_cache_t cacheOfCaches;
  41:src/slabAllocator.cpp **** }slab_allocator_t;
  42:src/slabAllocator.cpp **** 
  43:src/slabAllocator.cpp **** //singleton slab allocator
  44:src/slabAllocator.cpp **** static slab_allocator_t* slabAllocator = nullptr;
  45:src/slabAllocator.cpp **** 
  46:src/slabAllocator.cpp **** //helping functions
  47:src/slabAllocator.cpp **** void strcpy(const char* src, char* dst)
GAS LISTING /tmp/ccM4Qgn5.s 			page 2


  48:src/slabAllocator.cpp **** {
  12              		.loc 1 48 1
  13              		.cfi_startproc
  14              	.LVL0:
  15 0000 130101FF 		addi	sp,sp,-16
  16              		.cfi_def_cfa_offset 16
  17 0004 23348100 		sd	s0,8(sp)
  18              		.cfi_offset 8, -8
  19 0008 13040101 		addi	s0,sp,16
  20              		.cfi_def_cfa 8, 0
  21              	.L3:
  49:src/slabAllocator.cpp ****     while(*src != '\0')
  22              		.loc 1 49 5
  23              		.loc 1 49 16
  24              		.loc 1 49 11 is_stmt 0
  25 000c 83470500 		lbu	a5,0(a0)
  26              		.loc 1 49 16
  27 0010 638A0700 		beqz	a5,.L2
  50:src/slabAllocator.cpp ****     {
  51:src/slabAllocator.cpp ****         *dst = *src;
  28              		.loc 1 51 9 is_stmt 1
  29              		.loc 1 51 14 is_stmt 0
  30 0014 2380F500 		sb	a5,0(a1)
  52:src/slabAllocator.cpp ****         src++; dst++;
  31              		.loc 1 52 9 is_stmt 1
  32              		.loc 1 52 12 is_stmt 0
  33 0018 13051500 		addi	a0,a0,1
  34              	.LVL1:
  35              		.loc 1 52 16 is_stmt 1
  36              		.loc 1 52 19 is_stmt 0
  37 001c 93851500 		addi	a1,a1,1
  38              	.LVL2:
  49:src/slabAllocator.cpp ****     while(*src != '\0')
  39              		.loc 1 49 5
  40 0020 6FF0DFFE 		j	.L3
  41              	.L2:
  53:src/slabAllocator.cpp ****     }
  54:src/slabAllocator.cpp ****     *dst = *src;
  42              		.loc 1 54 5 is_stmt 1
  43              		.loc 1 54 10 is_stmt 0
  44 0024 2380F500 		sb	a5,0(a1)
  55:src/slabAllocator.cpp **** }
  45              		.loc 1 55 1
  46 0028 03348100 		ld	s0,8(sp)
  47              		.cfi_restore 8
  48              		.cfi_def_cfa 2, 16
  49 002c 13010101 		addi	sp,sp,16
  50              		.cfi_def_cfa_offset 0
  51 0030 67800000 		jr	ra
  52              		.cfi_endproc
  53              	.LFE5:
  55              		.section	.rodata.str1.8,"aMS",@progbits,1
  56              		.align	3
  57              	.LC0:
  58 0000 43616368 		.string	"Cache of caches"
  58      65206F66 
  58      20636163 
GAS LISTING /tmp/ccM4Qgn5.s 			page 3


  58      68657300 
  59              		.text
  60              		.align	2
  61              		.globl	_Z19slab_allocator_initP14buddyAllocator
  63              	_Z19slab_allocator_initP14buddyAllocator:
  64              	.LFB6:
  56:src/slabAllocator.cpp **** 
  57:src/slabAllocator.cpp **** slab_allocator_t* slab_allocator_init(buddyAllocator *buddy)
  58:src/slabAllocator.cpp **** {
  65              		.loc 1 58 1 is_stmt 1
  66              		.cfi_startproc
  67              	.LVL3:
  68 0034 130101FE 		addi	sp,sp,-32
  69              		.cfi_def_cfa_offset 32
  70 0038 233C1100 		sd	ra,24(sp)
  71 003c 23388100 		sd	s0,16(sp)
  72 0040 23349100 		sd	s1,8(sp)
  73 0044 23302101 		sd	s2,0(sp)
  74              		.cfi_offset 1, -8
  75              		.cfi_offset 8, -16
  76              		.cfi_offset 9, -24
  77              		.cfi_offset 18, -32
  78 0048 13040102 		addi	s0,sp,32
  79              		.cfi_def_cfa 8, 0
  80 004c 93040500 		mv	s1,a0
  59:src/slabAllocator.cpp ****     slab_allocator_t* slabAllocatorLocal = (slab_allocator_t*)(buddy + 1);
  81              		.loc 1 59 5
  82              		.loc 1 59 23 is_stmt 0
  83 0050 1309050E 		addi	s2,a0,224
  84              	.LVL4:
  60:src/slabAllocator.cpp **** 
  61:src/slabAllocator.cpp ****     slabAllocatorLocal->buddy = buddy;
  85              		.loc 1 61 5 is_stmt 1
  86              		.loc 1 61 31 is_stmt 0
  87 0054 2330A50E 		sd	a0,224(a0)
  62:src/slabAllocator.cpp ****     for(size_t i = 0; i < CACHE_BUFFER_SIZE;i++)
  88              		.loc 1 62 5 is_stmt 1
  89              	.LVL5:
  90              	.LBB2:
  91              		.loc 1 62 16 is_stmt 0
  92 0058 93070000 		li	a5,0
  93 005c 6F004001 		j	.L7
  94              	.LVL6:
  95              	.L9:
  63:src/slabAllocator.cpp ****         slabAllocatorLocal->cachesBuffers[i] = nullptr;
  96              		.loc 1 63 9 is_stmt 1 discriminator 2
  97              		.loc 1 63 46 is_stmt 0 discriminator 2
  98 0060 13973700 		slli	a4,a5,3
  99 0064 3387E400 		add	a4,s1,a4
 100 0068 2334070E 		sd	zero,232(a4)
  62:src/slabAllocator.cpp ****     for(size_t i = 0; i < CACHE_BUFFER_SIZE;i++)
 101              		.loc 1 62 5 is_stmt 1 discriminator 2
 102 006c 93871700 		addi	a5,a5,1
 103              	.LVL7:
 104              	.L7:
  62:src/slabAllocator.cpp ****     for(size_t i = 0; i < CACHE_BUFFER_SIZE;i++)
 105              		.loc 1 62 25 discriminator 3
GAS LISTING /tmp/ccM4Qgn5.s 			page 4


 106 0070 1307C000 		li	a4,12
 107 0074 E376F7FE 		bleu	a5,a4,.L9
 108              	.LBE2:
  64:src/slabAllocator.cpp **** 
  65:src/slabAllocator.cpp ****     strcpy("Cache of caches", slabAllocatorLocal->cacheOfCaches.cacheName);
 109              		.loc 1 65 5
 110              		.loc 1 65 11 is_stmt 0
 111 0078 93850415 		addi	a1,s1,336
 112 007c 17050000 		lla	a0,.LC0
 112      13050500 
 113 0084 97000000 		call	_Z6strcpyPKcPc
 113      E7800000 
 114              	.LVL8:
  66:src/slabAllocator.cpp ****     slabAllocatorLocal->cacheOfCaches.ctor = nullptr;
 115              		.loc 1 66 5 is_stmt 1
 116              		.loc 1 66 44 is_stmt 0
 117 008c 23BC041A 		sd	zero,440(s1)
  67:src/slabAllocator.cpp ****     slabAllocatorLocal->cacheOfCaches.dtor = nullptr;
 118              		.loc 1 67 5 is_stmt 1
 119              		.loc 1 67 44 is_stmt 0
 120 0090 23B0041C 		sd	zero,448(s1)
  68:src/slabAllocator.cpp ****     slabAllocatorLocal->cacheOfCaches.slabs_empty = nullptr;
 121              		.loc 1 68 5 is_stmt 1
 122              		.loc 1 68 51 is_stmt 0
 123 0094 23B80418 		sd	zero,400(s1)
  69:src/slabAllocator.cpp ****     slabAllocatorLocal->cacheOfCaches.slabs_full = nullptr;
 124              		.loc 1 69 5 is_stmt 1
 125              		.loc 1 69 50 is_stmt 0
 126 0098 23BC0418 		sd	zero,408(s1)
  70:src/slabAllocator.cpp ****     slabAllocatorLocal->cacheOfCaches.slabs_partial = nullptr;
 127              		.loc 1 70 5 is_stmt 1
 128              		.loc 1 70 53 is_stmt 0
 129 009c 23B0041A 		sd	zero,416(s1)
  71:src/slabAllocator.cpp ****     slabAllocatorLocal->cacheOfCaches.slab_size = CACHE_OF_CACHES_SLAB_SIZE;
 130              		.loc 1 71 5 is_stmt 1
 131              		.loc 1 71 49 is_stmt 0
 132 00a0 93072000 		li	a5,2
 133 00a4 23B4F41A 		sd	a5,424(s1)
  72:src/slabAllocator.cpp ****     slabAllocatorLocal->cacheOfCaches.obj_size = sizeof(kmem_cache_t);
 134              		.loc 1 72 5 is_stmt 1
 135              		.loc 1 72 48 is_stmt 0
 136 00a8 93078007 		li	a5,120
 137 00ac 23B8F41A 		sd	a5,432(s1)
  73:src/slabAllocator.cpp ****     return slabAllocatorLocal;
 138              		.loc 1 73 5 is_stmt 1
  74:src/slabAllocator.cpp **** }
 139              		.loc 1 74 1 is_stmt 0
 140 00b0 13050900 		mv	a0,s2
 141 00b4 83308101 		ld	ra,24(sp)
 142              		.cfi_restore 1
 143 00b8 03340101 		ld	s0,16(sp)
 144              		.cfi_restore 8
 145              		.cfi_def_cfa 2, 32
 146 00bc 83348100 		ld	s1,8(sp)
 147              		.cfi_restore 9
 148              	.LVL9:
 149 00c0 03390100 		ld	s2,0(sp)
GAS LISTING /tmp/ccM4Qgn5.s 			page 5


 150              		.cfi_restore 18
 151              	.LVL10:
 152 00c4 13010102 		addi	sp,sp,32
 153              		.cfi_def_cfa_offset 0
 154 00c8 67800000 		jr	ra
 155              		.cfi_endproc
 156              	.LFE6:
 158              		.align	2
 159              		.globl	_Z14allocateObjectP6slab_s
 161              	_Z14allocateObjectP6slab_s:
 162              	.LFB7:
  75:src/slabAllocator.cpp **** 
  76:src/slabAllocator.cpp **** void* allocateObject(slab_t* slab)
  77:src/slabAllocator.cpp **** {
 163              		.loc 1 77 1 is_stmt 1
 164              		.cfi_startproc
 165              	.LVL11:
 166 00cc 130101FF 		addi	sp,sp,-16
 167              		.cfi_def_cfa_offset 16
 168 00d0 23348100 		sd	s0,8(sp)
 169              		.cfi_offset 8, -8
 170 00d4 13040101 		addi	s0,sp,16
 171              		.cfi_def_cfa 8, 0
 172 00d8 93050500 		mv	a1,a0
  78:src/slabAllocator.cpp ****     int index = -1;
 173              		.loc 1 78 5
 174              	.LVL12:
  79:src/slabAllocator.cpp ****     void* addr = nullptr;
 175              		.loc 1 79 5
  80:src/slabAllocator.cpp ****     for(size_t i = 0;i < slab->numOfObjects;i++)
 176              		.loc 1 80 5
 177              	.LBB3:
 178              		.loc 1 80 16 is_stmt 0
 179 00dc 93070000 		li	a5,0
 180              	.LVL13:
 181              	.L13:
 182              		.loc 1 80 24 is_stmt 1 discriminator 1
 183              		.loc 1 80 32 is_stmt 0 discriminator 1
 184 00e0 03B78501 		ld	a4,24(a1)
 185              		.loc 1 80 24 discriminator 1
 186 00e4 63F4E704 		bleu	a4,a5,.L15
 187              	.LBB4:
  81:src/slabAllocator.cpp ****     {
  82:src/slabAllocator.cpp ****         size_t mask = 1 << (i%8);
 188              		.loc 1 82 9 is_stmt 1
 189              		.loc 1 82 30 is_stmt 0
 190 00e8 13F77700 		andi	a4,a5,7
 191              		.loc 1 82 25
 192 00ec 13061000 		li	a2,1
 193 00f0 BB16E600 		sllw	a3,a2,a4
 194              	.LVL14:
  83:src/slabAllocator.cpp ****         if(!((uint8)slab->allocated[i/8] & mask))
 195              		.loc 1 83 9 is_stmt 1
 196              		.loc 1 83 38 is_stmt 0
 197 00f4 13D73700 		srli	a4,a5,3
 198              		.loc 1 83 40
 199 00f8 3387E500 		add	a4,a1,a4
GAS LISTING /tmp/ccM4Qgn5.s 			page 6


 200 00fc 03478702 		lbu	a4,40(a4)
 201              		.loc 1 83 42
 202 0100 3377D700 		and	a4,a4,a3
 203              		.loc 1 83 9
 204 0104 63060700 		beqz	a4,.L17
 205              	.LBE4:
  80:src/slabAllocator.cpp ****     for(size_t i = 0;i < slab->numOfObjects;i++)
 206              		.loc 1 80 5 is_stmt 1 discriminator 2
 207 0108 93871700 		addi	a5,a5,1
 208              	.LVL15:
 209 010c 6FF05FFD 		j	.L13
 210              	.L17:
 211              	.LBB5:
  84:src/slabAllocator.cpp ****         {
  85:src/slabAllocator.cpp ****             addr = (void*)((size_t)slab + sizeof(slab_t)+ i*slab->owner->obj_size);
 212              		.loc 1 85 13
 213              		.loc 1 85 67 is_stmt 0
 214 0110 03B70501 		ld	a4,16(a1)
 215              		.loc 1 85 74
 216 0114 03350706 		ld	a0,96(a4)
 217              	.LVL16:
 218              		.loc 1 85 60
 219 0118 3305F502 		mul	a0,a0,a5
 220              		.loc 1 85 57
 221 011c 3385A500 		add	a0,a1,a0
 222 0120 13058504 		addi	a0,a0,72
 223              	.LVL17:
  86:src/slabAllocator.cpp ****             index = i;
 224              		.loc 1 86 13 is_stmt 1
 225              		.loc 1 86 19 is_stmt 0
 226 0124 9B870700 		sext.w	a5,a5
 227              	.LVL18:
  87:src/slabAllocator.cpp ****             break;
 228              		.loc 1 87 13 is_stmt 1
 229 0128 6F00C000 		j	.L11
 230              	.LVL19:
 231              	.L15:
 232              	.LBE5:
 233              	.LBE3:
  79:src/slabAllocator.cpp ****     for(size_t i = 0;i < slab->numOfObjects;i++)
 234              		.loc 1 79 11 is_stmt 0
 235 012c 13050000 		li	a0,0
 236              	.LVL20:
  78:src/slabAllocator.cpp ****     void* addr = nullptr;
 237              		.loc 1 78 9
 238 0130 9307F0FF 		li	a5,-1
 239              	.LVL21:
 240              	.L11:
  88:src/slabAllocator.cpp ****         }
  89:src/slabAllocator.cpp ****     }
  90:src/slabAllocator.cpp ****     if(addr == nullptr)
 241              		.loc 1 90 5 is_stmt 1
 242 0134 63000504 		beqz	a0,.L10
  91:src/slabAllocator.cpp ****         return nullptr;
  92:src/slabAllocator.cpp **** 
  93:src/slabAllocator.cpp ****     //KConsole::trapPrintStringInt("Allocated index ",index);
  94:src/slabAllocator.cpp **** 
GAS LISTING /tmp/ccM4Qgn5.s 			page 7


  95:src/slabAllocator.cpp ****     //TODO
  96:src/slabAllocator.cpp ****     //implement functions to set bit and check it
  97:src/slabAllocator.cpp ****     slab->allocated[index/8]=(uint8)slab->allocated[index/8] | (1 << (index%8));
 243              		.loc 1 97 5
 244              		.loc 1 97 58 is_stmt 0
 245 0138 9BD6F741 		sraiw	a3,a5,31
 246 013c 9BD6D601 		srliw	a3,a3,29
 247 0140 BB87F600 		addw	a5,a3,a5
 248              	.LVL22:
 249 0144 1BD73740 		sraiw	a4,a5,3
 250              		.loc 1 97 60
 251 0148 3387E500 		add	a4,a1,a4
 252              		.loc 1 97 30
 253 014c 03068702 		lb	a2,40(a4)
 254              		.loc 1 97 76
 255 0150 93F77700 		andi	a5,a5,7
 256 0154 BB87D740 		subw	a5,a5,a3
 257              		.loc 1 97 67
 258 0158 93061000 		li	a3,1
 259 015c BB97F600 		sllw	a5,a3,a5
 260              		.loc 1 97 62
 261 0160 B367F600 		or	a5,a2,a5
 262              		.loc 1 97 29
 263 0164 2304F702 		sb	a5,40(a4)
  98:src/slabAllocator.cpp ****     slab->numOfAllocatedObjects++;
 264              		.loc 1 98 5 is_stmt 1
 265              		.loc 1 98 11 is_stmt 0
 266 0168 83B70502 		ld	a5,32(a1)
 267              		.loc 1 98 32
 268 016c 93871700 		addi	a5,a5,1
 269 0170 23B0F502 		sd	a5,32(a1)
  99:src/slabAllocator.cpp **** 
 100:src/slabAllocator.cpp ****     return addr;
 270              		.loc 1 100 5 is_stmt 1
 271              	.L10:
 101:src/slabAllocator.cpp **** }
 272              		.loc 1 101 1 is_stmt 0
 273 0174 03348100 		ld	s0,8(sp)
 274              		.cfi_restore 8
 275              		.cfi_def_cfa 2, 16
 276 0178 13010101 		addi	sp,sp,16
 277              		.cfi_def_cfa_offset 0
 278 017c 67800000 		jr	ra
 279              		.cfi_endproc
 280              	.LFE7:
 282              		.align	2
 283              		.globl	_Z4fullP6slab_s
 285              	_Z4fullP6slab_s:
 286              	.LFB8:
 102:src/slabAllocator.cpp **** 
 103:src/slabAllocator.cpp **** bool full(slab_t* slab)
 104:src/slabAllocator.cpp **** {
 287              		.loc 1 104 1 is_stmt 1
 288              		.cfi_startproc
 289              	.LVL23:
 290 0180 130101FF 		addi	sp,sp,-16
 291              		.cfi_def_cfa_offset 16
GAS LISTING /tmp/ccM4Qgn5.s 			page 8


 292 0184 23348100 		sd	s0,8(sp)
 293              		.cfi_offset 8, -8
 294 0188 13040101 		addi	s0,sp,16
 295              		.cfi_def_cfa 8, 0
 105:src/slabAllocator.cpp ****     return slab->numOfAllocatedObjects == slab->numOfObjects;
 296              		.loc 1 105 5
 297              		.loc 1 105 18 is_stmt 0
 298 018c 83370502 		ld	a5,32(a0)
 299              		.loc 1 105 49
 300 0190 03358501 		ld	a0,24(a0)
 301              	.LVL24:
 302 0194 3305F540 		sub	a0,a0,a5
 106:src/slabAllocator.cpp **** }
 303              		.loc 1 106 1
 304 0198 13351500 		seqz	a0,a0
 305 019c 03348100 		ld	s0,8(sp)
 306              		.cfi_restore 8
 307              		.cfi_def_cfa 2, 16
 308 01a0 13010101 		addi	sp,sp,16
 309              		.cfi_def_cfa_offset 0
 310 01a4 67800000 		jr	ra
 311              		.cfi_endproc
 312              	.LFE8:
 314              		.align	2
 315              		.globl	_Z5emptyP6slab_s
 317              	_Z5emptyP6slab_s:
 318              	.LFB9:
 107:src/slabAllocator.cpp **** 
 108:src/slabAllocator.cpp **** bool empty(slab_t* slab)
 109:src/slabAllocator.cpp **** {
 319              		.loc 1 109 1 is_stmt 1
 320              		.cfi_startproc
 321              	.LVL25:
 322 01a8 130101FF 		addi	sp,sp,-16
 323              		.cfi_def_cfa_offset 16
 324 01ac 23348100 		sd	s0,8(sp)
 325              		.cfi_offset 8, -8
 326 01b0 13040101 		addi	s0,sp,16
 327              		.cfi_def_cfa 8, 0
 110:src/slabAllocator.cpp ****     return slab->numOfAllocatedObjects == 0;
 328              		.loc 1 110 5
 329              		.loc 1 110 18 is_stmt 0
 330 01b4 03350502 		ld	a0,32(a0)
 331              	.LVL26:
 111:src/slabAllocator.cpp **** }
 332              		.loc 1 111 1
 333 01b8 13351500 		seqz	a0,a0
 334 01bc 03348100 		ld	s0,8(sp)
 335              		.cfi_restore 8
 336              		.cfi_def_cfa 2, 16
 337 01c0 13010101 		addi	sp,sp,16
 338              		.cfi_def_cfa_offset 0
 339 01c4 67800000 		jr	ra
 340              		.cfi_endproc
 341              	.LFE9:
 343              		.align	2
 344              		.globl	_Z18insertIntoSlabListP6slab_sPS0_
GAS LISTING /tmp/ccM4Qgn5.s 			page 9


 346              	_Z18insertIntoSlabListP6slab_sPS0_:
 347              	.LFB10:
 112:src/slabAllocator.cpp **** 
 113:src/slabAllocator.cpp **** void insertIntoSlabList(slab_t* slab, slab_t** slab_head)
 114:src/slabAllocator.cpp **** {
 348              		.loc 1 114 1 is_stmt 1
 349              		.cfi_startproc
 350              	.LVL27:
 351 01c8 130101FF 		addi	sp,sp,-16
 352              		.cfi_def_cfa_offset 16
 353 01cc 23348100 		sd	s0,8(sp)
 354              		.cfi_offset 8, -8
 355 01d0 13040101 		addi	s0,sp,16
 356              		.cfi_def_cfa 8, 0
 115:src/slabAllocator.cpp ****     slab->prev = nullptr;
 357              		.loc 1 115 5
 358              		.loc 1 115 16 is_stmt 0
 359 01d4 23300500 		sd	zero,0(a0)
 116:src/slabAllocator.cpp ****     slab->next = *slab_head;
 360              		.loc 1 116 5 is_stmt 1
 361              		.loc 1 116 18 is_stmt 0
 362 01d8 83B70500 		ld	a5,0(a1)
 363              		.loc 1 116 16
 364 01dc 2334F500 		sd	a5,8(a0)
 117:src/slabAllocator.cpp ****     if(*slab_head != nullptr)
 365              		.loc 1 117 5 is_stmt 1
 366 01e0 63840700 		beqz	a5,.L23
 118:src/slabAllocator.cpp ****         (*slab_head)->prev = slab;
 367              		.loc 1 118 9
 368              		.loc 1 118 28 is_stmt 0
 369 01e4 23B0A700 		sd	a0,0(a5)
 370              	.L23:
 119:src/slabAllocator.cpp ****     *slab_head = slab;
 371              		.loc 1 119 5 is_stmt 1
 372              		.loc 1 119 16 is_stmt 0
 373 01e8 23B0A500 		sd	a0,0(a1)
 120:src/slabAllocator.cpp **** }
 374              		.loc 1 120 1
 375 01ec 03348100 		ld	s0,8(sp)
 376              		.cfi_restore 8
 377              		.cfi_def_cfa 2, 16
 378 01f0 13010101 		addi	sp,sp,16
 379              		.cfi_def_cfa_offset 0
 380 01f4 67800000 		jr	ra
 381              		.cfi_endproc
 382              	.LFE10:
 384              		.align	2
 385              		.globl	_Z18removeFromSlabListP6slab_sPS0_
 387              	_Z18removeFromSlabListP6slab_sPS0_:
 388              	.LFB11:
 121:src/slabAllocator.cpp **** 
 122:src/slabAllocator.cpp **** void removeFromSlabList(slab_t* slab, slab_t** slab_head)
 123:src/slabAllocator.cpp **** {
 389              		.loc 1 123 1 is_stmt 1
 390              		.cfi_startproc
 391              	.LVL28:
 392 01f8 130101FF 		addi	sp,sp,-16
GAS LISTING /tmp/ccM4Qgn5.s 			page 10


 393              		.cfi_def_cfa_offset 16
 394 01fc 23348100 		sd	s0,8(sp)
 395              		.cfi_offset 8, -8
 396 0200 13040101 		addi	s0,sp,16
 397              		.cfi_def_cfa 8, 0
 124:src/slabAllocator.cpp ****     if(slab->prev == nullptr) //same as slab == *slab_head
 398              		.loc 1 124 5
 399              		.loc 1 124 14 is_stmt 0
 400 0204 83370500 		ld	a5,0(a0)
 401              		.loc 1 124 5
 402 0208 63860702 		beqz	a5,.L31
 125:src/slabAllocator.cpp ****     {
 126:src/slabAllocator.cpp ****         if(slab->next) slab->next->prev = nullptr;
 127:src/slabAllocator.cpp ****         (*slab_head) = slab->next;
 128:src/slabAllocator.cpp ****         slab->next = slab->prev = nullptr;
 129:src/slabAllocator.cpp ****     }
 130:src/slabAllocator.cpp ****     else
 131:src/slabAllocator.cpp ****     {
 132:src/slabAllocator.cpp ****         slab->prev->next = slab->next;
 403              		.loc 1 132 9 is_stmt 1
 404              		.loc 1 132 34 is_stmt 0
 405 020c 03378500 		ld	a4,8(a0)
 406              		.loc 1 132 26
 407 0210 23B4E700 		sd	a4,8(a5)
 133:src/slabAllocator.cpp ****         if(slab->next) slab->next->prev = slab->prev;
 408              		.loc 1 133 9 is_stmt 1
 409 0214 63060700 		beqz	a4,.L29
 410              		.loc 1 133 24 discriminator 1
 411              		.loc 1 133 49 is_stmt 0 discriminator 1
 412 0218 83370500 		ld	a5,0(a0)
 413              		.loc 1 133 41 discriminator 1
 414 021c 2330F700 		sd	a5,0(a4)
 415              	.L29:
 134:src/slabAllocator.cpp ****         slab->next = slab->prev = nullptr;
 416              		.loc 1 134 9 is_stmt 1
 417              		.loc 1 134 33 is_stmt 0
 418 0220 23300500 		sd	zero,0(a0)
 419              		.loc 1 134 20
 420 0224 23340500 		sd	zero,8(a0)
 421              	.L25:
 135:src/slabAllocator.cpp ****     }
 136:src/slabAllocator.cpp **** }
 422              		.loc 1 136 1
 423 0228 03348100 		ld	s0,8(sp)
 424              		.cfi_remember_state
 425              		.cfi_restore 8
 426              		.cfi_def_cfa 2, 16
 427 022c 13010101 		addi	sp,sp,16
 428              		.cfi_def_cfa_offset 0
 429 0230 67800000 		jr	ra
 430              	.L31:
 431              		.cfi_restore_state
 126:src/slabAllocator.cpp ****         (*slab_head) = slab->next;
 432              		.loc 1 126 9 is_stmt 1
 126:src/slabAllocator.cpp ****         (*slab_head) = slab->next;
 433              		.loc 1 126 18 is_stmt 0
 434 0234 83378500 		ld	a5,8(a0)
GAS LISTING /tmp/ccM4Qgn5.s 			page 11


 126:src/slabAllocator.cpp ****         (*slab_head) = slab->next;
 435              		.loc 1 126 9
 436 0238 63840700 		beqz	a5,.L27
 126:src/slabAllocator.cpp ****         (*slab_head) = slab->next;
 437              		.loc 1 126 24 is_stmt 1 discriminator 1
 126:src/slabAllocator.cpp ****         (*slab_head) = slab->next;
 438              		.loc 1 126 41 is_stmt 0 discriminator 1
 439 023c 23B00700 		sd	zero,0(a5)
 440              	.L27:
 127:src/slabAllocator.cpp ****         slab->next = slab->prev = nullptr;
 441              		.loc 1 127 9 is_stmt 1
 127:src/slabAllocator.cpp ****         slab->next = slab->prev = nullptr;
 442              		.loc 1 127 30 is_stmt 0
 443 0240 83378500 		ld	a5,8(a0)
 127:src/slabAllocator.cpp ****         slab->next = slab->prev = nullptr;
 444              		.loc 1 127 22
 445 0244 23B0F500 		sd	a5,0(a1)
 128:src/slabAllocator.cpp ****     }
 446              		.loc 1 128 9 is_stmt 1
 128:src/slabAllocator.cpp ****     }
 447              		.loc 1 128 33 is_stmt 0
 448 0248 23300500 		sd	zero,0(a0)
 128:src/slabAllocator.cpp ****     }
 449              		.loc 1 128 20
 450 024c 23340500 		sd	zero,8(a0)
 451 0250 6FF09FFD 		j	.L25
 452              		.cfi_endproc
 453              	.LFE11:
 455              		.align	2
 456              		.globl	_Z16putPartialToFullP12kmem_cache_s
 458              	_Z16putPartialToFullP12kmem_cache_s:
 459              	.LFB12:
 137:src/slabAllocator.cpp **** 
 138:src/slabAllocator.cpp **** void putPartialToFull(kmem_cache_t* cachep)
 139:src/slabAllocator.cpp **** {
 460              		.loc 1 139 1 is_stmt 1
 461              		.cfi_startproc
 462              	.LVL29:
 463 0254 130101FE 		addi	sp,sp,-32
 464              		.cfi_def_cfa_offset 32
 465 0258 233C1100 		sd	ra,24(sp)
 466 025c 23388100 		sd	s0,16(sp)
 467 0260 23349100 		sd	s1,8(sp)
 468 0264 23302101 		sd	s2,0(sp)
 469              		.cfi_offset 1, -8
 470              		.cfi_offset 8, -16
 471              		.cfi_offset 9, -24
 472              		.cfi_offset 18, -32
 473 0268 13040102 		addi	s0,sp,32
 474              		.cfi_def_cfa 8, 0
 475 026c 93040500 		mv	s1,a0
 140:src/slabAllocator.cpp ****     slab_t* slab = cachep->slabs_partial;
 476              		.loc 1 140 5
 477              		.loc 1 140 13 is_stmt 0
 478 0270 03390505 		ld	s2,80(a0)
 479              	.LVL30:
 141:src/slabAllocator.cpp ****     removeFromSlabList(slab, &cachep->slabs_partial);
GAS LISTING /tmp/ccM4Qgn5.s 			page 12


 480              		.loc 1 141 5 is_stmt 1
 481              		.loc 1 141 23 is_stmt 0
 482 0274 93050505 		addi	a1,a0,80
 483 0278 13050900 		mv	a0,s2
 484              	.LVL31:
 485 027c 97000000 		call	_Z18removeFromSlabListP6slab_sPS0_
 485      E7800000 
 486              	.LVL32:
 142:src/slabAllocator.cpp ****     insertIntoSlabList(slab, &cachep->slabs_full);
 487              		.loc 1 142 5 is_stmt 1
 488              		.loc 1 142 23 is_stmt 0
 489 0284 93858404 		addi	a1,s1,72
 490 0288 13050900 		mv	a0,s2
 491 028c 97000000 		call	_Z18insertIntoSlabListP6slab_sPS0_
 491      E7800000 
 492              	.LVL33:
 143:src/slabAllocator.cpp **** }
 493              		.loc 1 143 1
 494 0294 83308101 		ld	ra,24(sp)
 495              		.cfi_restore 1
 496 0298 03340101 		ld	s0,16(sp)
 497              		.cfi_restore 8
 498              		.cfi_def_cfa 2, 32
 499 029c 83348100 		ld	s1,8(sp)
 500              		.cfi_restore 9
 501              	.LVL34:
 502 02a0 03390100 		ld	s2,0(sp)
 503              		.cfi_restore 18
 504              	.LVL35:
 505 02a4 13010102 		addi	sp,sp,32
 506              		.cfi_def_cfa_offset 0
 507 02a8 67800000 		jr	ra
 508              		.cfi_endproc
 509              	.LFE12:
 511              		.align	2
 512              		.globl	_Z17putEmptyToPartialP12kmem_cache_s
 514              	_Z17putEmptyToPartialP12kmem_cache_s:
 515              	.LFB13:
 144:src/slabAllocator.cpp **** 
 145:src/slabAllocator.cpp **** void putEmptyToPartial(kmem_cache_t* cachep)
 146:src/slabAllocator.cpp **** {
 516              		.loc 1 146 1 is_stmt 1
 517              		.cfi_startproc
 518              	.LVL36:
 519 02ac 130101FE 		addi	sp,sp,-32
 520              		.cfi_def_cfa_offset 32
 521 02b0 233C1100 		sd	ra,24(sp)
 522 02b4 23388100 		sd	s0,16(sp)
 523 02b8 23349100 		sd	s1,8(sp)
 524 02bc 23302101 		sd	s2,0(sp)
 525              		.cfi_offset 1, -8
 526              		.cfi_offset 8, -16
 527              		.cfi_offset 9, -24
 528              		.cfi_offset 18, -32
 529 02c0 13040102 		addi	s0,sp,32
 530              		.cfi_def_cfa 8, 0
 531 02c4 93040500 		mv	s1,a0
GAS LISTING /tmp/ccM4Qgn5.s 			page 13


 147:src/slabAllocator.cpp ****     slab_t* slab = cachep->slabs_empty;
 532              		.loc 1 147 5
 533              		.loc 1 147 13 is_stmt 0
 534 02c8 03390504 		ld	s2,64(a0)
 535              	.LVL37:
 148:src/slabAllocator.cpp ****     removeFromSlabList(slab, &cachep->slabs_empty);
 536              		.loc 1 148 5 is_stmt 1
 537              		.loc 1 148 23 is_stmt 0
 538 02cc 93050504 		addi	a1,a0,64
 539 02d0 13050900 		mv	a0,s2
 540              	.LVL38:
 541 02d4 97000000 		call	_Z18removeFromSlabListP6slab_sPS0_
 541      E7800000 
 542              	.LVL39:
 149:src/slabAllocator.cpp ****     insertIntoSlabList(slab, &cachep->slabs_partial);
 543              		.loc 1 149 5 is_stmt 1
 544              		.loc 1 149 23 is_stmt 0
 545 02dc 93850405 		addi	a1,s1,80
 546 02e0 13050900 		mv	a0,s2
 547 02e4 97000000 		call	_Z18insertIntoSlabListP6slab_sPS0_
 547      E7800000 
 548              	.LVL40:
 150:src/slabAllocator.cpp **** }
 549              		.loc 1 150 1
 550 02ec 83308101 		ld	ra,24(sp)
 551              		.cfi_restore 1
 552 02f0 03340101 		ld	s0,16(sp)
 553              		.cfi_restore 8
 554              		.cfi_def_cfa 2, 32
 555 02f4 83348100 		ld	s1,8(sp)
 556              		.cfi_restore 9
 557              	.LVL41:
 558 02f8 03390100 		ld	s2,0(sp)
 559              		.cfi_restore 18
 560              	.LVL42:
 561 02fc 13010102 		addi	sp,sp,32
 562              		.cfi_def_cfa_offset 0
 563 0300 67800000 		jr	ra
 564              		.cfi_endproc
 565              	.LFE13:
 567              		.align	2
 568              		.globl	_Z14removeFullSlabP12kmem_cache_sP6slab_s
 570              	_Z14removeFullSlabP12kmem_cache_sP6slab_s:
 571              	.LFB14:
 151:src/slabAllocator.cpp **** 
 152:src/slabAllocator.cpp **** void removeFullSlab(kmem_cache_t* cachep, slab_t* slab)
 153:src/slabAllocator.cpp **** {
 572              		.loc 1 153 1 is_stmt 1
 573              		.cfi_startproc
 574              	.LVL43:
 575 0304 130101FE 		addi	sp,sp,-32
 576              		.cfi_def_cfa_offset 32
 577 0308 233C1100 		sd	ra,24(sp)
 578 030c 23388100 		sd	s0,16(sp)
 579 0310 23349100 		sd	s1,8(sp)
 580 0314 23302101 		sd	s2,0(sp)
 581              		.cfi_offset 1, -8
GAS LISTING /tmp/ccM4Qgn5.s 			page 14


 582              		.cfi_offset 8, -16
 583              		.cfi_offset 9, -24
 584              		.cfi_offset 18, -32
 585 0318 13040102 		addi	s0,sp,32
 586              		.cfi_def_cfa 8, 0
 587 031c 13090500 		mv	s2,a0
 588 0320 93840500 		mv	s1,a1
 154:src/slabAllocator.cpp ****     removeFromSlabList(slab, &cachep->slabs_full);
 589              		.loc 1 154 5
 590              		.loc 1 154 23 is_stmt 0
 591 0324 93058504 		addi	a1,a0,72
 592              	.LVL44:
 593 0328 13850400 		mv	a0,s1
 594              	.LVL45:
 595 032c 97000000 		call	_Z18removeFromSlabListP6slab_sPS0_
 595      E7800000 
 596              	.LVL46:
 155:src/slabAllocator.cpp ****     insertIntoSlabList(slab, &cachep->slabs_partial);
 597              		.loc 1 155 5 is_stmt 1
 598              		.loc 1 155 23 is_stmt 0
 599 0334 93050905 		addi	a1,s2,80
 600 0338 13850400 		mv	a0,s1
 601 033c 97000000 		call	_Z18insertIntoSlabListP6slab_sPS0_
 601      E7800000 
 602              	.LVL47:
 156:src/slabAllocator.cpp **** }
 603              		.loc 1 156 1
 604 0344 83308101 		ld	ra,24(sp)
 605              		.cfi_restore 1
 606 0348 03340101 		ld	s0,16(sp)
 607              		.cfi_restore 8
 608              		.cfi_def_cfa 2, 32
 609 034c 83348100 		ld	s1,8(sp)
 610              		.cfi_restore 9
 611              	.LVL48:
 612 0350 03390100 		ld	s2,0(sp)
 613              		.cfi_restore 18
 614              	.LVL49:
 615 0354 13010102 		addi	sp,sp,32
 616              		.cfi_def_cfa_offset 0
 617 0358 67800000 		jr	ra
 618              		.cfi_endproc
 619              	.LFE14:
 621              		.align	2
 622              		.globl	_Z17removePartialSlabP12kmem_cache_sP6slab_s
 624              	_Z17removePartialSlabP12kmem_cache_sP6slab_s:
 625              	.LFB15:
 157:src/slabAllocator.cpp **** 
 158:src/slabAllocator.cpp **** void removePartialSlab(kmem_cache_t * cachep, slab_t* slab)
 159:src/slabAllocator.cpp **** {
 626              		.loc 1 159 1 is_stmt 1
 627              		.cfi_startproc
 628              	.LVL50:
 629 035c 130101FE 		addi	sp,sp,-32
 630              		.cfi_def_cfa_offset 32
 631 0360 233C1100 		sd	ra,24(sp)
 632 0364 23388100 		sd	s0,16(sp)
GAS LISTING /tmp/ccM4Qgn5.s 			page 15


 633 0368 23349100 		sd	s1,8(sp)
 634 036c 23302101 		sd	s2,0(sp)
 635              		.cfi_offset 1, -8
 636              		.cfi_offset 8, -16
 637              		.cfi_offset 9, -24
 638              		.cfi_offset 18, -32
 639 0370 13040102 		addi	s0,sp,32
 640              		.cfi_def_cfa 8, 0
 641 0374 13090500 		mv	s2,a0
 642 0378 93840500 		mv	s1,a1
 160:src/slabAllocator.cpp ****     removeFromSlabList(slab, &cachep->slabs_partial);
 643              		.loc 1 160 5
 644              		.loc 1 160 23 is_stmt 0
 645 037c 93050505 		addi	a1,a0,80
 646              	.LVL51:
 647 0380 13850400 		mv	a0,s1
 648              	.LVL52:
 649 0384 97000000 		call	_Z18removeFromSlabListP6slab_sPS0_
 649      E7800000 
 650              	.LVL53:
 161:src/slabAllocator.cpp ****     insertIntoSlabList(slab, &cachep->slabs_empty);
 651              		.loc 1 161 5 is_stmt 1
 652              		.loc 1 161 23 is_stmt 0
 653 038c 93050904 		addi	a1,s2,64
 654 0390 13850400 		mv	a0,s1
 655 0394 97000000 		call	_Z18insertIntoSlabListP6slab_sPS0_
 655      E7800000 
 656              	.LVL54:
 162:src/slabAllocator.cpp **** }
 657              		.loc 1 162 1
 658 039c 83308101 		ld	ra,24(sp)
 659              		.cfi_restore 1
 660 03a0 03340101 		ld	s0,16(sp)
 661              		.cfi_restore 8
 662              		.cfi_def_cfa 2, 32
 663 03a4 83348100 		ld	s1,8(sp)
 664              		.cfi_restore 9
 665              	.LVL55:
 666 03a8 03390100 		ld	s2,0(sp)
 667              		.cfi_restore 18
 668              	.LVL56:
 669 03ac 13010102 		addi	sp,sp,32
 670              		.cfi_def_cfa_offset 0
 671 03b0 67800000 		jr	ra
 672              		.cfi_endproc
 673              	.LFE15:
 675              		.align	2
 676              		.globl	_Z12allocateSlabP12kmem_cache_s
 678              	_Z12allocateSlabP12kmem_cache_s:
 679              	.LFB16:
 163:src/slabAllocator.cpp **** 
 164:src/slabAllocator.cpp **** void allocateSlab(kmem_cache_t* cachep)
 165:src/slabAllocator.cpp **** {
 680              		.loc 1 165 1 is_stmt 1
 681              		.cfi_startproc
 682              	.LVL57:
 683 03b4 130101FE 		addi	sp,sp,-32
GAS LISTING /tmp/ccM4Qgn5.s 			page 16


 684              		.cfi_def_cfa_offset 32
 685 03b8 233C1100 		sd	ra,24(sp)
 686 03bc 23388100 		sd	s0,16(sp)
 687 03c0 23349100 		sd	s1,8(sp)
 688              		.cfi_offset 1, -8
 689              		.cfi_offset 8, -16
 690              		.cfi_offset 9, -24
 691 03c4 13040102 		addi	s0,sp,32
 692              		.cfi_def_cfa 8, 0
 693 03c8 93040500 		mv	s1,a0
 166:src/slabAllocator.cpp ****     slab_t* newSlab = (slab_t*)buddy_alloc(slabAllocator->buddy,cachep->slab_size);
 694              		.loc 1 166 5
 695              		.loc 1 166 43 is_stmt 0
 696 03cc 83358505 		ld	a1,88(a0)
 697 03d0 97070000 		ld	a5,.LANCHOR0
 697      83B70700 
 698 03d8 03B50700 		ld	a0,0(a5)
 699              	.LVL58:
 700 03dc 97000000 		call	_Z11buddy_allocP14buddyAllocatorm@plt
 700      E7800000 
 701              	.LVL59:
 167:src/slabAllocator.cpp ****     newSlab->next = cachep->slabs_empty;
 702              		.loc 1 167 5 is_stmt 1
 703              		.loc 1 167 29 is_stmt 0
 704 03e4 83B70404 		ld	a5,64(s1)
 705              		.loc 1 167 19
 706 03e8 2334F500 		sd	a5,8(a0)
 168:src/slabAllocator.cpp ****     if(cachep->slabs_empty != nullptr)
 707              		.loc 1 168 5 is_stmt 1
 708 03ec 63840700 		beqz	a5,.L41
 169:src/slabAllocator.cpp ****         cachep->slabs_empty->prev = newSlab;
 709              		.loc 1 169 9
 710              		.loc 1 169 35 is_stmt 0
 711 03f0 23B0A700 		sd	a0,0(a5)
 712              	.L41:
 170:src/slabAllocator.cpp ****     cachep->slabs_empty = newSlab;
 713              		.loc 1 170 5 is_stmt 1
 714              		.loc 1 170 25 is_stmt 0
 715 03f4 23B0A404 		sd	a0,64(s1)
 171:src/slabAllocator.cpp ****     newSlab->prev = nullptr;
 716              		.loc 1 171 5 is_stmt 1
 717              		.loc 1 171 19 is_stmt 0
 718 03f8 23300500 		sd	zero,0(a0)
 172:src/slabAllocator.cpp ****     newSlab->numOfAllocatedObjects = 0;
 719              		.loc 1 172 5 is_stmt 1
 720              		.loc 1 172 36 is_stmt 0
 721 03fc 23300502 		sd	zero,32(a0)
 173:src/slabAllocator.cpp ****     newSlab->owner = cachep;
 722              		.loc 1 173 5 is_stmt 1
 723              		.loc 1 173 20 is_stmt 0
 724 0400 23389500 		sd	s1,16(a0)
 174:src/slabAllocator.cpp ****     size_t sizeInBytes = cachep->slab_size*BLOCK_SIZE;
 725              		.loc 1 174 5 is_stmt 1
 726              		.loc 1 174 34 is_stmt 0
 727 0404 83B68405 		ld	a3,88(s1)
 728              		.loc 1 174 12
 729 0408 9396C600 		slli	a3,a3,12
GAS LISTING /tmp/ccM4Qgn5.s 			page 17


 730              	.LVL60:
 175:src/slabAllocator.cpp ****     newSlab->numOfObjects = (sizeInBytes - sizeof(slab_t)) / cachep->obj_size; // TODO can this par
 731              		.loc 1 175 5 is_stmt 1
 732              		.loc 1 175 42 is_stmt 0
 733 040c 938686FB 		addi	a3,a3,-72
 734              	.LVL61:
 735              		.loc 1 175 70
 736 0410 83B70406 		ld	a5,96(s1)
 737              		.loc 1 175 60
 738 0414 B3D6F602 		divu	a3,a3,a5
 739              	.LVL62:
 740              		.loc 1 175 27
 741 0418 233CD500 		sd	a3,24(a0)
 742              	.LVL63:
 176:src/slabAllocator.cpp ****     for(size_t i = 0; i < (newSlab->numOfObjects + 7) / 8;i++)
 743              		.loc 1 176 5 is_stmt 1
 744              	.LBB6:
 745              		.loc 1 176 16 is_stmt 0
 746 041c 13070000 		li	a4,0
 747              	.LVL64:
 748              	.L43:
 749              		.loc 1 176 25 is_stmt 1 discriminator 3
 750              		.loc 1 176 50 is_stmt 0 discriminator 3
 751 0420 93877600 		addi	a5,a3,7
 752              		.loc 1 176 55 discriminator 3
 753 0424 93D73700 		srli	a5,a5,3
 754              		.loc 1 176 25 discriminator 3
 755 0428 637AF700 		bleu	a5,a4,.L40
 177:src/slabAllocator.cpp ****         newSlab->allocated[i] = 0;
 756              		.loc 1 177 9 is_stmt 1 discriminator 2
 757              		.loc 1 177 31 is_stmt 0 discriminator 2
 758 042c B307E500 		add	a5,a0,a4
 759 0430 23840702 		sb	zero,40(a5)
 176:src/slabAllocator.cpp ****     for(size_t i = 0; i < (newSlab->numOfObjects + 7) / 8;i++)
 760              		.loc 1 176 5 is_stmt 1 discriminator 2
 761 0434 13071700 		addi	a4,a4,1
 762              	.LVL65:
 763 0438 6FF09FFE 		j	.L43
 764              	.L40:
 765              	.LBE6:
 178:src/slabAllocator.cpp **** }
 766              		.loc 1 178 1 is_stmt 0
 767 043c 83308101 		ld	ra,24(sp)
 768              		.cfi_restore 1
 769 0440 03340101 		ld	s0,16(sp)
 770              		.cfi_restore 8
 771              		.cfi_def_cfa 2, 32
 772 0444 83348100 		ld	s1,8(sp)
 773              		.cfi_restore 9
 774              	.LVL66:
 775 0448 13010102 		addi	sp,sp,32
 776              		.cfi_def_cfa_offset 0
 777 044c 67800000 		jr	ra
 778              		.cfi_endproc
 779              	.LFE16:
 781              		.align	2
 782              		.globl	_Z18getOptimalSlabSizem
GAS LISTING /tmp/ccM4Qgn5.s 			page 18


 784              	_Z18getOptimalSlabSizem:
 785              	.LFB17:
 179:src/slabAllocator.cpp **** 
 180:src/slabAllocator.cpp **** size_t getOptimalSlabSize(size_t obj_size)
 181:src/slabAllocator.cpp **** {
 786              		.loc 1 181 1 is_stmt 1
 787              		.cfi_startproc
 788              	.LVL67:
 789 0450 130101FF 		addi	sp,sp,-16
 790              		.cfi_def_cfa_offset 16
 791 0454 23348100 		sd	s0,8(sp)
 792              		.cfi_offset 8, -8
 793 0458 13040101 		addi	s0,sp,16
 794              		.cfi_def_cfa 8, 0
 182:src/slabAllocator.cpp ****     size_t bestSize = BLOCK_SIZE;
 795              		.loc 1 182 5
 796              	.LVL68:
 797              		.loc 1 182 12 is_stmt 0
 798 045c B7170000 		li	a5,4096
 799              	.LVL69:
 800              	.L47:
 183:src/slabAllocator.cpp ****     while(bestSize < obj_size + sizeof(slab_t))
 801              		.loc 1 183 5 is_stmt 1
 802              		.loc 1 183 20
 803              		.loc 1 183 31 is_stmt 0
 804 0460 13078504 		addi	a4,a0,72
 805              		.loc 1 183 20
 806 0464 63F6E700 		bleu	a4,a5,.L46
 184:src/slabAllocator.cpp ****         bestSize<<=1;
 807              		.loc 1 184 9 is_stmt 1
 808              		.loc 1 184 17 is_stmt 0
 809 0468 93971700 		slli	a5,a5,1
 810              	.LVL70:
 183:src/slabAllocator.cpp ****     while(bestSize < obj_size + sizeof(slab_t))
 811              		.loc 1 183 5
 812 046c 6FF05FFF 		j	.L47
 813              	.L46:
 185:src/slabAllocator.cpp ****     size_t optimalWaste = (bestSize - sizeof(slab_t)) % obj_size;
 814              		.loc 1 185 5 is_stmt 1
 815              		.loc 1 185 37 is_stmt 0
 816 0470 938587FB 		addi	a1,a5,-72
 817              		.loc 1 185 12
 818 0474 B3F5A502 		remu	a1,a1,a0
 819              	.LVL71:
 186:src/slabAllocator.cpp **** 
 187:src/slabAllocator.cpp ****     for(int i = 1;i<=4;i++) //TODO change constants
 820              		.loc 1 187 5 is_stmt 1
 821              	.LBB7:
 822              		.loc 1 187 13 is_stmt 0
 823 0478 13071000 		li	a4,1
 824 047c 6F008000 		j	.L50
 825              	.LVL72:
 826              	.L49:
 827              		.loc 1 187 5 is_stmt 1 discriminator 2
 828 0480 1B071700 		addiw	a4,a4,1
 829              	.LVL73:
 830              	.L50:
GAS LISTING /tmp/ccM4Qgn5.s 			page 19


 831              		.loc 1 187 20 discriminator 1
 832 0484 93064000 		li	a3,4
 833 0488 63C0E602 		bgt	a4,a3,.L48
 834              	.LBB8:
 188:src/slabAllocator.cpp ****     {
 189:src/slabAllocator.cpp ****         size_t newSize = bestSize << i;
 835              		.loc 1 189 9
 836              		.loc 1 189 16 is_stmt 0
 837 048c 3396E700 		sll	a2,a5,a4
 838              	.LVL74:
 190:src/slabAllocator.cpp ****         size_t newWaste = (newSize - sizeof(slab_t)) % obj_size;
 839              		.loc 1 190 9 is_stmt 1
 840              		.loc 1 190 36 is_stmt 0
 841 0490 930686FB 		addi	a3,a2,-72
 842              		.loc 1 190 16
 843 0494 B3F6A602 		remu	a3,a3,a0
 844              	.LVL75:
 191:src/slabAllocator.cpp ****         if(newWaste < optimalWaste)
 845              		.loc 1 191 9 is_stmt 1
 846 0498 E3F4B6FE 		bleu	a1,a3,.L49
 192:src/slabAllocator.cpp ****         {
 193:src/slabAllocator.cpp ****             optimalWaste = newWaste;
 847              		.loc 1 193 26 is_stmt 0
 848 049c 93850600 		mv	a1,a3
 849              	.LVL76:
 194:src/slabAllocator.cpp ****             bestSize = newSize;
 850              		.loc 1 194 22
 851 04a0 93070600 		mv	a5,a2
 852              	.LVL77:
 853 04a4 6FF0DFFD 		j	.L49
 854              	.LVL78:
 855              	.L48:
 856              	.LBE8:
 857              	.LBE7:
 195:src/slabAllocator.cpp ****         }
 196:src/slabAllocator.cpp ****     }
 197:src/slabAllocator.cpp **** 
 198:src/slabAllocator.cpp ****     return bestSize / BLOCK_SIZE;
 858              		.loc 1 198 5 is_stmt 1
 199:src/slabAllocator.cpp **** }
 859              		.loc 1 199 1 is_stmt 0
 860 04a8 13D5C700 		srli	a0,a5,12
 861              	.LVL79:
 862 04ac 03348100 		ld	s0,8(sp)
 863              		.cfi_restore 8
 864              		.cfi_def_cfa 2, 16
 865 04b0 13010101 		addi	sp,sp,16
 866              		.cfi_def_cfa_offset 0
 867 04b4 67800000 		jr	ra
 868              		.cfi_endproc
 869              	.LFE17:
 871              		.align	2
 872              		.globl	_Z8findSlabP12kmem_cache_sPKv
 874              	_Z8findSlabP12kmem_cache_sPKv:
 875              	.LFB18:
 200:src/slabAllocator.cpp **** 
 201:src/slabAllocator.cpp **** //finds the slab where objp is
GAS LISTING /tmp/ccM4Qgn5.s 			page 20


 202:src/slabAllocator.cpp **** slab_t* findSlab(kmem_cache_t* cachep, const void* objp)
 203:src/slabAllocator.cpp **** {
 876              		.loc 1 203 1 is_stmt 1
 877              		.cfi_startproc
 878              	.LVL80:
 879 04b8 130101FF 		addi	sp,sp,-16
 880              		.cfi_def_cfa_offset 16
 881 04bc 23348100 		sd	s0,8(sp)
 882              		.cfi_offset 8, -8
 883 04c0 13040101 		addi	s0,sp,16
 884              		.cfi_def_cfa 8, 0
 885 04c4 93060500 		mv	a3,a0
 204:src/slabAllocator.cpp ****     if(cachep == nullptr || objp == nullptr)
 886              		.loc 1 204 5
 887 04c8 630C0502 		beqz	a0,.L53
 888              		.loc 1 204 26 is_stmt 0 discriminator 1
 889 04cc 638A0506 		beqz	a1,.L61
 205:src/slabAllocator.cpp ****         return nullptr;
 206:src/slabAllocator.cpp ****     slab_t* slab = cachep->slabs_full;
 890              		.loc 1 206 5 is_stmt 1
 891              		.loc 1 206 13 is_stmt 0
 892 04d0 03358504 		ld	a0,72(a0)
 893              	.LVL81:
 894 04d4 6F008000 		j	.L57
 895              	.LVL82:
 896              	.L56:
 897              	.LBB9:
 207:src/slabAllocator.cpp ****     while(slab != nullptr)
 208:src/slabAllocator.cpp ****     {
 209:src/slabAllocator.cpp ****         size_t endAddr = (size_t)slab + sizeof(slab_t) + slab->numOfObjects*slab->owner->obj_size;
 210:src/slabAllocator.cpp ****         if((size_t)objp > (size_t)slab && (size_t)objp < endAddr)
 211:src/slabAllocator.cpp ****             return slab;
 212:src/slabAllocator.cpp ****         slab = slab->next;
 898              		.loc 1 212 9 is_stmt 1
 899              		.loc 1 212 14 is_stmt 0
 900 04d8 03358500 		ld	a0,8(a0)
 901              	.LVL83:
 902              	.L57:
 903              	.LBE9:
 207:src/slabAllocator.cpp ****     while(slab != nullptr)
 904              		.loc 1 207 5 is_stmt 1
 207:src/slabAllocator.cpp ****     while(slab != nullptr)
 905              		.loc 1 207 16
 906 04dc 63080502 		beqz	a0,.L55
 907              	.LBB10:
 209:src/slabAllocator.cpp ****         if((size_t)objp > (size_t)slab && (size_t)objp < endAddr)
 908              		.loc 1 209 9
 209:src/slabAllocator.cpp ****         if((size_t)objp > (size_t)slab && (size_t)objp < endAddr)
 909              		.loc 1 209 64 is_stmt 0
 910 04e0 83378501 		ld	a5,24(a0)
 209:src/slabAllocator.cpp ****         if((size_t)objp > (size_t)slab && (size_t)objp < endAddr)
 911              		.loc 1 209 83
 912 04e4 03370501 		ld	a4,16(a0)
 209:src/slabAllocator.cpp ****         if((size_t)objp > (size_t)slab && (size_t)objp < endAddr)
 913              		.loc 1 209 90
 914 04e8 03370706 		ld	a4,96(a4)
 209:src/slabAllocator.cpp ****         if((size_t)objp > (size_t)slab && (size_t)objp < endAddr)
GAS LISTING /tmp/ccM4Qgn5.s 			page 21


 915              		.loc 1 209 76
 916 04ec B387E702 		mul	a5,a5,a4
 209:src/slabAllocator.cpp ****         if((size_t)objp > (size_t)slab && (size_t)objp < endAddr)
 917              		.loc 1 209 56
 918 04f0 B387A700 		add	a5,a5,a0
 209:src/slabAllocator.cpp ****         if((size_t)objp > (size_t)slab && (size_t)objp < endAddr)
 919              		.loc 1 209 16
 920 04f4 93878704 		addi	a5,a5,72
 921              	.LVL84:
 210:src/slabAllocator.cpp ****             return slab;
 922              		.loc 1 210 9 is_stmt 1
 923 04f8 E370B5FE 		bgeu	a0,a1,.L56
 210:src/slabAllocator.cpp ****             return slab;
 924              		.loc 1 210 40 is_stmt 0 discriminator 1
 925 04fc E3FEF5FC 		bgeu	a1,a5,.L56
 926              	.LVL85:
 927              	.L53:
 928              	.LBE10:
 213:src/slabAllocator.cpp ****     }
 214:src/slabAllocator.cpp **** 
 215:src/slabAllocator.cpp ****     slab = cachep->slabs_partial;
 216:src/slabAllocator.cpp ****     while(slab != nullptr)
 217:src/slabAllocator.cpp ****     {
 218:src/slabAllocator.cpp ****         size_t endAddr = (size_t)slab + sizeof(slab_t) + slab->numOfObjects*slab->owner->obj_size;
 219:src/slabAllocator.cpp ****         if((size_t)objp > (size_t)slab && (size_t)objp < endAddr)
 220:src/slabAllocator.cpp ****             return slab;
 221:src/slabAllocator.cpp ****         slab = slab->next;
 222:src/slabAllocator.cpp ****     }
 223:src/slabAllocator.cpp **** 
 224:src/slabAllocator.cpp ****     return nullptr;
 225:src/slabAllocator.cpp **** }
 929              		.loc 1 225 1
 930 0500 03348100 		ld	s0,8(sp)
 931              		.cfi_remember_state
 932              		.cfi_restore 8
 933              		.cfi_def_cfa 2, 16
 934 0504 13010101 		addi	sp,sp,16
 935              		.cfi_def_cfa_offset 0
 936 0508 67800000 		jr	ra
 937              	.LVL86:
 938              	.L55:
 939              		.cfi_restore_state
 215:src/slabAllocator.cpp ****     while(slab != nullptr)
 940              		.loc 1 215 5 is_stmt 1
 215:src/slabAllocator.cpp ****     while(slab != nullptr)
 941              		.loc 1 215 10 is_stmt 0
 942 050c 03B50605 		ld	a0,80(a3)
 943              	.LVL87:
 944 0510 6F008000 		j	.L59
 945              	.LVL88:
 946              	.L58:
 947              	.LBB11:
 221:src/slabAllocator.cpp ****     }
 948              		.loc 1 221 9 is_stmt 1
 221:src/slabAllocator.cpp ****     }
 949              		.loc 1 221 14 is_stmt 0
 950 0514 03358500 		ld	a0,8(a0)
GAS LISTING /tmp/ccM4Qgn5.s 			page 22


 951              	.LVL89:
 952              	.L59:
 953              	.LBE11:
 216:src/slabAllocator.cpp ****     {
 954              		.loc 1 216 5 is_stmt 1
 216:src/slabAllocator.cpp ****     {
 955              		.loc 1 216 16
 956 0518 E30405FE 		beqz	a0,.L53
 957              	.LBB12:
 218:src/slabAllocator.cpp ****         if((size_t)objp > (size_t)slab && (size_t)objp < endAddr)
 958              		.loc 1 218 9
 218:src/slabAllocator.cpp ****         if((size_t)objp > (size_t)slab && (size_t)objp < endAddr)
 959              		.loc 1 218 64 is_stmt 0
 960 051c 83378501 		ld	a5,24(a0)
 218:src/slabAllocator.cpp ****         if((size_t)objp > (size_t)slab && (size_t)objp < endAddr)
 961              		.loc 1 218 83
 962 0520 03370501 		ld	a4,16(a0)
 218:src/slabAllocator.cpp ****         if((size_t)objp > (size_t)slab && (size_t)objp < endAddr)
 963              		.loc 1 218 90
 964 0524 03370706 		ld	a4,96(a4)
 218:src/slabAllocator.cpp ****         if((size_t)objp > (size_t)slab && (size_t)objp < endAddr)
 965              		.loc 1 218 76
 966 0528 B387E702 		mul	a5,a5,a4
 218:src/slabAllocator.cpp ****         if((size_t)objp > (size_t)slab && (size_t)objp < endAddr)
 967              		.loc 1 218 56
 968 052c B387A700 		add	a5,a5,a0
 218:src/slabAllocator.cpp ****         if((size_t)objp > (size_t)slab && (size_t)objp < endAddr)
 969              		.loc 1 218 16
 970 0530 93878704 		addi	a5,a5,72
 971              	.LVL90:
 219:src/slabAllocator.cpp ****             return slab;
 972              		.loc 1 219 9 is_stmt 1
 973 0534 E370B5FE 		bgeu	a0,a1,.L58
 219:src/slabAllocator.cpp ****             return slab;
 974              		.loc 1 219 40 is_stmt 0 discriminator 1
 975 0538 E3FEF5FC 		bgeu	a1,a5,.L58
 976 053c 6FF05FFC 		j	.L53
 977              	.LVL91:
 978              	.L61:
 979              	.LBE12:
 205:src/slabAllocator.cpp ****     slab_t* slab = cachep->slabs_full;
 980              		.loc 1 205 16
 981 0540 13850500 		mv	a0,a1
 982              	.LVL92:
 983 0544 6FF0DFFB 		j	.L53
 984              		.cfi_endproc
 985              	.LFE18:
 987              		.align	2
 988              		.globl	_Z19resetAllocatedIndexP6slab_si
 990              	_Z19resetAllocatedIndexP6slab_si:
 991              	.LFB19:
 226:src/slabAllocator.cpp **** 
 227:src/slabAllocator.cpp **** void resetAllocatedIndex(slab_t* slab, int index)
 228:src/slabAllocator.cpp **** {
 992              		.loc 1 228 1 is_stmt 1
 993              		.cfi_startproc
 994              	.LVL93:
GAS LISTING /tmp/ccM4Qgn5.s 			page 23


 995 0548 130101FF 		addi	sp,sp,-16
 996              		.cfi_def_cfa_offset 16
 997 054c 23348100 		sd	s0,8(sp)
 998              		.cfi_offset 8, -8
 999 0550 13040101 		addi	s0,sp,16
 1000              		.cfi_def_cfa 8, 0
 229:src/slabAllocator.cpp ****     slab->allocated[index / 8]=(uint8)slab->allocated[index/8] & ~(1 << (index%8));
 1001              		.loc 1 229 5
 1002              		.loc 1 229 60 is_stmt 0
 1003 0554 9BD7F541 		sraiw	a5,a1,31
 1004 0558 9BD7D701 		srliw	a5,a5,29
 1005 055c BB85B700 		addw	a1,a5,a1
 1006              	.LVL94:
 1007 0560 1BD73540 		sraiw	a4,a1,3
 1008              		.loc 1 229 62
 1009 0564 3305E500 		add	a0,a0,a4
 1010              	.LVL95:
 1011              		.loc 1 229 32
 1012 0568 03078502 		lb	a4,40(a0)
 1013              		.loc 1 229 79
 1014 056c 93F57500 		andi	a1,a1,7
 1015 0570 BB85F540 		subw	a1,a1,a5
 1016              		.loc 1 229 70
 1017 0574 93071000 		li	a5,1
 1018 0578 BB95B700 		sllw	a1,a5,a1
 1019              		.loc 1 229 64
 1020 057c 93C5F5FF 		not	a1,a1
 1021 0580 B375B700 		and	a1,a4,a1
 1022              		.loc 1 229 31
 1023 0584 2304B502 		sb	a1,40(a0)
 230:src/slabAllocator.cpp **** }
 1024              		.loc 1 230 1
 1025 0588 03348100 		ld	s0,8(sp)
 1026              		.cfi_restore 8
 1027              		.cfi_def_cfa 2, 16
 1028 058c 13010101 		addi	sp,sp,16
 1029              		.cfi_def_cfa_offset 0
 1030 0590 67800000 		jr	ra
 1031              		.cfi_endproc
 1032              	.LFE19:
 1034              		.section	.rodata.str1.8
 1035              		.align	3
 1036              	.LC1:
 1037 0010 4F6E6520 		.string	"One slab info---------\n"
 1037      736C6162 
 1037      20696E66 
 1037      6F2D2D2D 
 1037      2D2D2D2D 
 1038              		.align	3
 1039              	.LC2:
 1040 0028 536C6162 		.string	"Slab address "
 1040      20616464 
 1040      72657373 
 1040      2000
 1041 0036 0000     		.align	3
 1042              	.LC3:
 1043 0038 4E756D62 		.string	"Number of allocated objects "
GAS LISTING /tmp/ccM4Qgn5.s 			page 24


 1043      6572206F 
 1043      6620616C 
 1043      6C6F6361 
 1043      74656420 
 1044 0055 000000   		.align	3
 1045              	.LC4:
 1046 0058 4E756D62 		.string	"Number of objects "
 1046      6572206F 
 1046      66206F62 
 1046      6A656374 
 1046      732000
 1047 006b 00000000 		.align	3
 1047      00
 1048              	.LC5:
 1049 0070 0A00     		.string	"\n"
 1050              		.text
 1051              		.align	2
 1052              		.globl	_Z13printSlabInfoP6slab_s
 1054              	_Z13printSlabInfoP6slab_s:
 1055              	.LFB20:
 231:src/slabAllocator.cpp **** 
 232:src/slabAllocator.cpp **** void printSlabInfo(slab_t* slab)
 233:src/slabAllocator.cpp **** {
 1056              		.loc 1 233 1 is_stmt 1
 1057              		.cfi_startproc
 1058              	.LVL96:
 1059 0594 130101FE 		addi	sp,sp,-32
 1060              		.cfi_def_cfa_offset 32
 1061 0598 233C1100 		sd	ra,24(sp)
 1062 059c 23388100 		sd	s0,16(sp)
 1063 05a0 23349100 		sd	s1,8(sp)
 1064 05a4 23302101 		sd	s2,0(sp)
 1065              		.cfi_offset 1, -8
 1066              		.cfi_offset 8, -16
 1067              		.cfi_offset 9, -24
 1068              		.cfi_offset 18, -32
 1069 05a8 13040102 		addi	s0,sp,32
 1070              		.cfi_def_cfa 8, 0
 1071 05ac 13090500 		mv	s2,a0
 234:src/slabAllocator.cpp ****     KConsole::trapPrintString("One slab info---------\n");
 1072              		.loc 1 234 5
 1073              		.loc 1 234 30 is_stmt 0
 1074 05b0 17050000 		lla	a0,.LC1
 1074      13050500 
 1075              	.LVL97:
 1076 05b8 97000000 		call	_ZN8KConsole15trapPrintStringEPKc@plt
 1076      E7800000 
 1077              	.LVL98:
 235:src/slabAllocator.cpp ****     KConsole::trapPrintStringInt("Slab address ",(size_t)slab,16);
 1078              		.loc 1 235 5 is_stmt 1
 1079              		.loc 1 235 33 is_stmt 0
 1080 05c0 13060001 		li	a2,16
 1081 05c4 93050900 		mv	a1,s2
 1082 05c8 17050000 		lla	a0,.LC2
 1082      13050500 
 1083 05d0 97000000 		call	_ZN8KConsole18trapPrintStringIntEPKcmi@plt
 1083      E7800000 
GAS LISTING /tmp/ccM4Qgn5.s 			page 25


 1084              	.LVL99:
 236:src/slabAllocator.cpp ****     KConsole::trapPrintStringInt("Number of allocated objects ",slab->numOfAllocatedObjects);
 1085              		.loc 1 236 5 is_stmt 1
 1086              		.loc 1 236 33 is_stmt 0
 1087 05d8 1306A000 		li	a2,10
 1088 05dc 83350902 		ld	a1,32(s2)
 1089 05e0 17050000 		lla	a0,.LC3
 1089      13050500 
 1090 05e8 97000000 		call	_ZN8KConsole18trapPrintStringIntEPKcmi@plt
 1090      E7800000 
 1091              	.LVL100:
 237:src/slabAllocator.cpp ****     KConsole::trapPrintStringInt("Number of objects ", slab->numOfObjects);
 1092              		.loc 1 237 5 is_stmt 1
 1093              		.loc 1 237 33 is_stmt 0
 1094 05f0 1306A000 		li	a2,10
 1095 05f4 83358901 		ld	a1,24(s2)
 1096 05f8 17050000 		lla	a0,.LC4
 1096      13050500 
 1097 0600 97000000 		call	_ZN8KConsole18trapPrintStringIntEPKcmi@plt
 1097      E7800000 
 1098              	.LVL101:
 238:src/slabAllocator.cpp ****     for(size_t i = 0;i < (slab->numOfObjects + 7) / 8;i++)
 1099              		.loc 1 238 5 is_stmt 1
 1100              	.LBB13:
 1101              		.loc 1 238 16 is_stmt 0
 1102 0608 93040000 		li	s1,0
 1103              	.LVL102:
 1104              	.L67:
 1105              		.loc 1 238 24 is_stmt 1 discriminator 3
 1106              		.loc 1 238 33 is_stmt 0 discriminator 3
 1107 060c 83378901 		ld	a5,24(s2)
 1108              		.loc 1 238 46 discriminator 3
 1109 0610 93877700 		addi	a5,a5,7
 1110              		.loc 1 238 51 discriminator 3
 1111 0614 93D73700 		srli	a5,a5,3
 1112              		.loc 1 238 24 discriminator 3
 1113 0618 63FAF402 		bleu	a5,s1,.L65
 239:src/slabAllocator.cpp ****     {
 240:src/slabAllocator.cpp ****         KConsole::trapPrintInt((size_t)slab->allocated[i], 16);
 1114              		.loc 1 240 9 is_stmt 1 discriminator 2
 1115              		.loc 1 240 57 is_stmt 0 discriminator 2
 1116 061c B3079900 		add	a5,s2,s1
 1117              		.loc 1 240 31 discriminator 2
 1118 0620 13060000 		li	a2,0
 1119 0624 93050001 		li	a1,16
 1120 0628 03C58702 		lbu	a0,40(a5)
 1121 062c 97000000 		call	_ZN8KConsole12trapPrintIntEmii@plt
 1121      E7800000 
 1122              	.LVL103:
 241:src/slabAllocator.cpp ****         KConsole::trapPrintString("\n");
 1123              		.loc 1 241 9 is_stmt 1 discriminator 2
 1124              		.loc 1 241 34 is_stmt 0 discriminator 2
 1125 0634 17050000 		lla	a0,.LC5
 1125      13050500 
 1126 063c 97000000 		call	_ZN8KConsole15trapPrintStringEPKc@plt
 1126      E7800000 
 1127              	.LVL104:
GAS LISTING /tmp/ccM4Qgn5.s 			page 26


 238:src/slabAllocator.cpp ****     for(size_t i = 0;i < (slab->numOfObjects + 7) / 8;i++)
 1128              		.loc 1 238 5 is_stmt 1 discriminator 2
 1129 0644 93841400 		addi	s1,s1,1
 1130              	.LVL105:
 1131 0648 6FF05FFC 		j	.L67
 1132              	.L65:
 1133              	.LBE13:
 242:src/slabAllocator.cpp ****     }
 243:src/slabAllocator.cpp **** }
 1134              		.loc 1 243 1 is_stmt 0
 1135 064c 83308101 		ld	ra,24(sp)
 1136              		.cfi_restore 1
 1137 0650 03340101 		ld	s0,16(sp)
 1138              		.cfi_restore 8
 1139              		.cfi_def_cfa 2, 32
 1140 0654 83348100 		ld	s1,8(sp)
 1141              		.cfi_restore 9
 1142              	.LVL106:
 1143 0658 03390100 		ld	s2,0(sp)
 1144              		.cfi_restore 18
 1145              	.LVL107:
 1146 065c 13010102 		addi	sp,sp,32
 1147              		.cfi_def_cfa_offset 0
 1148 0660 67800000 		jr	ra
 1149              		.cfi_endproc
 1150              	.LFE20:
 1152              		.align	2
 1153              		.globl	_Z16free_slab_objectP6slab_sPKv
 1155              	_Z16free_slab_objectP6slab_sPKv:
 1156              	.LFB21:
 244:src/slabAllocator.cpp **** 
 245:src/slabAllocator.cpp **** void free_slab_object(slab_t* slab, const void* objp)
 246:src/slabAllocator.cpp **** {
 1157              		.loc 1 246 1 is_stmt 1
 1158              		.cfi_startproc
 1159              	.LVL108:
 247:src/slabAllocator.cpp ****     if(slab == nullptr || objp == nullptr)
 1160              		.loc 1 247 5
 1161 0664 6304050E 		beqz	a0,.L74
 246:src/slabAllocator.cpp ****     if(slab == nullptr || objp == nullptr)
 1162              		.loc 1 246 1 is_stmt 0 discriminator 1
 1163 0668 130101FE 		addi	sp,sp,-32
 1164              		.cfi_def_cfa_offset 32
 1165 066c 233C1100 		sd	ra,24(sp)
 1166 0670 23388100 		sd	s0,16(sp)
 1167 0674 23349100 		sd	s1,8(sp)
 1168              		.cfi_offset 1, -8
 1169              		.cfi_offset 8, -16
 1170              		.cfi_offset 9, -24
 1171 0678 13040102 		addi	s0,sp,32
 1172              		.cfi_def_cfa 8, 0
 1173 067c 93040500 		mv	s1,a0
 1174 0680 93860500 		mv	a3,a1
 1175              		.loc 1 247 24 discriminator 1
 1176 0684 63860502 		beqz	a1,.L69
 248:src/slabAllocator.cpp ****         return;
 249:src/slabAllocator.cpp ****     int indexOfObject = ((size_t)objp - sizeof(slab_t) - (size_t)slab) / slab->owner->obj_size;
GAS LISTING /tmp/ccM4Qgn5.s 			page 27


 1177              		.loc 1 249 5 is_stmt 1
 1178              		.loc 1 249 56 is_stmt 0
 1179 0688 3387A540 		sub	a4,a1,a0
 1180 068c 130787FB 		addi	a4,a4,-72
 1181              		.loc 1 249 80
 1182 0690 83370501 		ld	a5,16(a0)
 1183              		.loc 1 249 87
 1184 0694 83B70706 		ld	a5,96(a5)
 1185              		.loc 1 249 72
 1186 0698 3357F702 		divu	a4,a4,a5
 1187              		.loc 1 249 9
 1188 069c 9B050700 		sext.w	a1,a4
 1189              	.LVL109:
 250:src/slabAllocator.cpp ****     if((size_t)objp != (size_t)slab + sizeof(slab_t) + indexOfObject*slab->owner->obj_size) //addre
 1190              		.loc 1 250 5 is_stmt 1
 1191              		.loc 1 250 69 is_stmt 0
 1192 06a0 B387B702 		mul	a5,a5,a1
 1193              		.loc 1 250 54
 1194 06a4 B307F500 		add	a5,a0,a5
 1195 06a8 93878704 		addi	a5,a5,72
 1196              		.loc 1 250 5
 1197 06ac 638CF600 		beq	a3,a5,.L77
 1198              	.LVL110:
 1199              	.L69:
 251:src/slabAllocator.cpp ****         return;
 252:src/slabAllocator.cpp **** 
 253:src/slabAllocator.cpp ****     //TODO
 254:src/slabAllocator.cpp ****     //test if the index was even marked as taken
 255:src/slabAllocator.cpp ****     resetAllocatedIndex(slab, indexOfObject);
 256:src/slabAllocator.cpp ****     if(slab->numOfObjects == slab->numOfAllocatedObjects)
 257:src/slabAllocator.cpp ****     {
 258:src/slabAllocator.cpp ****         removeFullSlab(slab->owner, slab);
 259:src/slabAllocator.cpp ****         slab->numOfAllocatedObjects--;
 260:src/slabAllocator.cpp ****         if(empty(slab))
 261:src/slabAllocator.cpp ****             removePartialSlab(slab->owner, slab);
 262:src/slabAllocator.cpp ****     }
 263:src/slabAllocator.cpp ****     else if(slab->numOfAllocatedObjects == 1)
 264:src/slabAllocator.cpp ****     {
 265:src/slabAllocator.cpp ****         removePartialSlab(slab->owner, slab);
 266:src/slabAllocator.cpp ****         slab->numOfAllocatedObjects--;
 267:src/slabAllocator.cpp ****     }
 268:src/slabAllocator.cpp ****     else
 269:src/slabAllocator.cpp ****         slab->numOfAllocatedObjects--;
 270:src/slabAllocator.cpp **** }
 1200              		.loc 1 270 1
 1201 06b0 83308101 		ld	ra,24(sp)
 1202              		.cfi_remember_state
 1203              		.cfi_restore 1
 1204 06b4 03340101 		ld	s0,16(sp)
 1205              		.cfi_restore 8
 1206              		.cfi_def_cfa 2, 32
 1207 06b8 83348100 		ld	s1,8(sp)
 1208              		.cfi_restore 9
 1209              	.LVL111:
 1210 06bc 13010102 		addi	sp,sp,32
 1211              		.cfi_def_cfa_offset 0
 1212 06c0 67800000 		jr	ra
GAS LISTING /tmp/ccM4Qgn5.s 			page 28


 1213              	.LVL112:
 1214              	.L77:
 1215              		.cfi_restore_state
 255:src/slabAllocator.cpp ****     if(slab->numOfObjects == slab->numOfAllocatedObjects)
 1216              		.loc 1 255 5 is_stmt 1
 255:src/slabAllocator.cpp ****     if(slab->numOfObjects == slab->numOfAllocatedObjects)
 1217              		.loc 1 255 24 is_stmt 0
 1218 06c4 97000000 		call	_Z19resetAllocatedIndexP6slab_si
 1218      E7800000 
 1219              	.LVL113:
 256:src/slabAllocator.cpp ****     {
 1220              		.loc 1 256 5 is_stmt 1
 256:src/slabAllocator.cpp ****     {
 1221              		.loc 1 256 14 is_stmt 0
 1222 06cc 03B78401 		ld	a4,24(s1)
 256:src/slabAllocator.cpp ****     {
 1223              		.loc 1 256 36
 1224 06d0 83B70402 		ld	a5,32(s1)
 256:src/slabAllocator.cpp ****     {
 1225              		.loc 1 256 5
 1226 06d4 630CF700 		beq	a4,a5,.L78
 263:src/slabAllocator.cpp ****     {
 1227              		.loc 1 263 10 is_stmt 1
 1228 06d8 13071000 		li	a4,1
 1229 06dc 6388E704 		beq	a5,a4,.L79
 269:src/slabAllocator.cpp **** }
 1230              		.loc 1 269 9
 269:src/slabAllocator.cpp **** }
 1231              		.loc 1 269 36 is_stmt 0
 1232 06e0 9387F7FF 		addi	a5,a5,-1
 1233 06e4 23B0F402 		sd	a5,32(s1)
 1234 06e8 6FF09FFC 		j	.L69
 1235              	.L78:
 258:src/slabAllocator.cpp ****         slab->numOfAllocatedObjects--;
 1236              		.loc 1 258 9 is_stmt 1
 258:src/slabAllocator.cpp ****         slab->numOfAllocatedObjects--;
 1237              		.loc 1 258 23 is_stmt 0
 1238 06ec 93850400 		mv	a1,s1
 1239 06f0 03B50401 		ld	a0,16(s1)
 1240 06f4 97000000 		call	_Z14removeFullSlabP12kmem_cache_sP6slab_s
 1240      E7800000 
 1241              	.LVL114:
 259:src/slabAllocator.cpp ****         if(empty(slab))
 1242              		.loc 1 259 9 is_stmt 1
 259:src/slabAllocator.cpp ****         if(empty(slab))
 1243              		.loc 1 259 15 is_stmt 0
 1244 06fc 83B70402 		ld	a5,32(s1)
 259:src/slabAllocator.cpp ****         if(empty(slab))
 1245              		.loc 1 259 36
 1246 0700 9387F7FF 		addi	a5,a5,-1
 1247 0704 23B0F402 		sd	a5,32(s1)
 260:src/slabAllocator.cpp ****             removePartialSlab(slab->owner, slab);
 1248              		.loc 1 260 9 is_stmt 1
 260:src/slabAllocator.cpp ****             removePartialSlab(slab->owner, slab);
 1249              		.loc 1 260 17 is_stmt 0
 1250 0708 13850400 		mv	a0,s1
 1251 070c 97000000 		call	_Z5emptyP6slab_s
GAS LISTING /tmp/ccM4Qgn5.s 			page 29


 1251      E7800000 
 1252              	.LVL115:
 260:src/slabAllocator.cpp ****             removePartialSlab(slab->owner, slab);
 1253              		.loc 1 260 9
 1254 0714 E30E05F8 		beqz	a0,.L69
 261:src/slabAllocator.cpp ****     }
 1255              		.loc 1 261 13 is_stmt 1
 261:src/slabAllocator.cpp ****     }
 1256              		.loc 1 261 30 is_stmt 0
 1257 0718 93850400 		mv	a1,s1
 1258 071c 03B50401 		ld	a0,16(s1)
 1259 0720 97000000 		call	_Z17removePartialSlabP12kmem_cache_sP6slab_s
 1259      E7800000 
 1260              	.LVL116:
 1261 0728 6FF09FF8 		j	.L69
 1262              	.L79:
 265:src/slabAllocator.cpp ****         slab->numOfAllocatedObjects--;
 1263              		.loc 1 265 9 is_stmt 1
 265:src/slabAllocator.cpp ****         slab->numOfAllocatedObjects--;
 1264              		.loc 1 265 26 is_stmt 0
 1265 072c 93850400 		mv	a1,s1
 1266 0730 03B50401 		ld	a0,16(s1)
 1267 0734 97000000 		call	_Z17removePartialSlabP12kmem_cache_sP6slab_s
 1267      E7800000 
 1268              	.LVL117:
 266:src/slabAllocator.cpp ****     }
 1269              		.loc 1 266 9 is_stmt 1
 266:src/slabAllocator.cpp ****     }
 1270              		.loc 1 266 15 is_stmt 0
 1271 073c 83B70402 		ld	a5,32(s1)
 266:src/slabAllocator.cpp ****     }
 1272              		.loc 1 266 36
 1273 0740 9387F7FF 		addi	a5,a5,-1
 1274 0744 23B0F402 		sd	a5,32(s1)
 1275 0748 6FF09FF6 		j	.L69
 1276              	.LVL118:
 1277              	.L74:
 1278              		.cfi_def_cfa_register 2
 1279              		.cfi_restore 1
 1280              		.cfi_restore 8
 1281              		.cfi_restore 9
 1282 074c 67800000 		ret
 1283              		.cfi_endproc
 1284              	.LFE21:
 1286              		.align	2
 1287              		.globl	_Z9kmem_initPvi
 1289              	_Z9kmem_initPvi:
 1290              	.LFB23:
 271:src/slabAllocator.cpp **** 
 272:src/slabAllocator.cpp **** void printSlabAllocatorInfo()
 273:src/slabAllocator.cpp **** {
 274:src/slabAllocator.cpp ****     KConsole::trapPrintString("Slab allocator info-------------------------------------------------
 275:src/slabAllocator.cpp ****     KConsole::trapPrintStringInt("Slab allocator buddy address ", (size_t)slabAllocator->buddy,16);
 276:src/slabAllocator.cpp ****     KConsole::trapPrintStringInt("Slab allocator address ", (size_t)slabAllocator, 16);
 277:src/slabAllocator.cpp ****     KConsole::trapPrintString("Cache of caches info\n");
 278:src/slabAllocator.cpp ****     kmem_cache_info(&slabAllocator->cacheOfCaches);
 279:src/slabAllocator.cpp ****     KConsole::trapPrintString("Caches for buffers\n");
GAS LISTING /tmp/ccM4Qgn5.s 			page 30


 280:src/slabAllocator.cpp ****     for(size_t i = 0;i < CACHE_BUFFER_SIZE;i++)
 281:src/slabAllocator.cpp ****     {
 282:src/slabAllocator.cpp ****         if(slabAllocator->cachesBuffers[i] != nullptr)
 283:src/slabAllocator.cpp ****         {
 284:src/slabAllocator.cpp ****             kmem_cache_info(slabAllocator->cachesBuffers[i]);
 285:src/slabAllocator.cpp ****         }
 286:src/slabAllocator.cpp ****     }
 287:src/slabAllocator.cpp **** }
 288:src/slabAllocator.cpp **** 
 289:src/slabAllocator.cpp **** //slab allocator public interface------------------------------------------------------------------
 290:src/slabAllocator.cpp **** void kmem_init(void *space, int block_num)
 291:src/slabAllocator.cpp **** {
 1291              		.loc 1 291 1 is_stmt 1
 1292              		.cfi_startproc
 1293              	.LVL119:
 1294 0750 130101FF 		addi	sp,sp,-16
 1295              		.cfi_def_cfa_offset 16
 1296 0754 23341100 		sd	ra,8(sp)
 1297 0758 23308100 		sd	s0,0(sp)
 1298              		.cfi_offset 1, -8
 1299              		.cfi_offset 8, -16
 1300 075c 13040101 		addi	s0,sp,16
 1301              		.cfi_def_cfa 8, 0
 292:src/slabAllocator.cpp ****     buddyAllocator* buddy = buddy_init(space, block_num);
 1302              		.loc 1 292 5
 1303              		.loc 1 292 39 is_stmt 0
 1304 0760 97000000 		call	_Z10buddy_initPvm@plt
 1304      E7800000 
 1305              	.LVL120:
 293:src/slabAllocator.cpp ****     slabAllocator = slab_allocator_init(buddy);
 1306              		.loc 1 293 5 is_stmt 1
 1307              		.loc 1 293 40 is_stmt 0
 1308 0768 97000000 		call	_Z19slab_allocator_initP14buddyAllocator
 1308      E7800000 
 1309              	.LVL121:
 1310              		.loc 1 293 19
 1311 0770 97070000 		sd	a0,.LANCHOR0,a5
 1311      23B0A700 
 294:src/slabAllocator.cpp ****     //printSlabAllocatorInfo();
 295:src/slabAllocator.cpp **** }
 1312              		.loc 1 295 1
 1313 0778 83308100 		ld	ra,8(sp)
 1314              		.cfi_restore 1
 1315 077c 03340100 		ld	s0,0(sp)
 1316              		.cfi_restore 8
 1317              		.cfi_def_cfa 2, 16
 1318 0780 13010101 		addi	sp,sp,16
 1319              		.cfi_def_cfa_offset 0
 1320 0784 67800000 		jr	ra
 1321              		.cfi_endproc
 1322              	.LFE23:
 1324              		.align	2
 1325              		.globl	_Z16kmem_cache_allocP12kmem_cache_s
 1327              	_Z16kmem_cache_allocP12kmem_cache_s:
 1328              	.LFB25:
 296:src/slabAllocator.cpp **** 
 297:src/slabAllocator.cpp **** //TODO
GAS LISTING /tmp/ccM4Qgn5.s 			page 31


 298:src/slabAllocator.cpp **** //protect everything from nullptrs
 299:src/slabAllocator.cpp **** kmem_cache_t *kmem_cache_create(const char *name, size_t size,
 300:src/slabAllocator.cpp ****                                 void (*ctor)(void *),
 301:src/slabAllocator.cpp ****                                 void (*dtor)(void *))
 302:src/slabAllocator.cpp **** {
 303:src/slabAllocator.cpp ****     kmem_cache_t* newCache = (kmem_cache_t*)kmem_cache_alloc(&slabAllocator->cacheOfCaches);
 304:src/slabAllocator.cpp ****     newCache->slabs_empty = nullptr;
 305:src/slabAllocator.cpp ****     newCache->slabs_partial = nullptr;
 306:src/slabAllocator.cpp ****     newCache->slabs_full = nullptr;
 307:src/slabAllocator.cpp ****     newCache->dtor = dtor;
 308:src/slabAllocator.cpp ****     newCache->ctor = ctor;
 309:src/slabAllocator.cpp ****     strcpy(name, newCache->cacheName);
 310:src/slabAllocator.cpp ****     newCache->obj_size = size;
 311:src/slabAllocator.cpp ****     newCache->slab_size = getOptimalSlabSize(size);
 312:src/slabAllocator.cpp ****     return newCache;
 313:src/slabAllocator.cpp **** }
 314:src/slabAllocator.cpp **** 
 315:src/slabAllocator.cpp **** void *kmem_cache_alloc(kmem_cache_t *cachep)
 316:src/slabAllocator.cpp **** {
 1329              		.loc 1 316 1 is_stmt 1
 1330              		.cfi_startproc
 1331              	.LVL122:
 1332 0788 130101FE 		addi	sp,sp,-32
 1333              		.cfi_def_cfa_offset 32
 1334 078c 233C1100 		sd	ra,24(sp)
 1335 0790 23388100 		sd	s0,16(sp)
 1336 0794 23349100 		sd	s1,8(sp)
 1337 0798 23302101 		sd	s2,0(sp)
 1338              		.cfi_offset 1, -8
 1339              		.cfi_offset 8, -16
 1340              		.cfi_offset 9, -24
 1341              		.cfi_offset 18, -32
 1342 079c 13040102 		addi	s0,sp,32
 1343              		.cfi_def_cfa 8, 0
 1344 07a0 93040500 		mv	s1,a0
 317:src/slabAllocator.cpp ****     if(cachep->slabs_partial != nullptr)
 1345              		.loc 1 317 5
 1346              	.LBB14:
 1347              		.loc 1 317 16 is_stmt 0
 1348 07a4 03350505 		ld	a0,80(a0)
 1349              	.LVL123:
 1350              		.loc 1 317 5
 1351 07a8 631A0504 		bnez	a0,.L90
 1352              	.LBE14:
 318:src/slabAllocator.cpp ****     {
 319:src/slabAllocator.cpp ****         void* allocatedAddr = allocateObject(cachep->slabs_partial);
 320:src/slabAllocator.cpp ****         if(full(cachep->slabs_partial))
 321:src/slabAllocator.cpp ****             putPartialToFull(cachep);
 322:src/slabAllocator.cpp ****         return allocatedAddr;
 323:src/slabAllocator.cpp ****     }
 324:src/slabAllocator.cpp ****     else if(cachep->slabs_empty != nullptr)
 1353              		.loc 1 324 10 is_stmt 1
 1354              	.LBB21:
 1355              	.LBB15:
 1356              		.loc 1 324 21 is_stmt 0
 1357 07ac 03B50404 		ld	a0,64(s1)
 1358              		.loc 1 324 10
GAS LISTING /tmp/ccM4Qgn5.s 			page 32


 1359 07b0 630A0508 		beqz	a0,.L86
 1360              	.LBB16:
 325:src/slabAllocator.cpp ****     {
 326:src/slabAllocator.cpp ****         void* allocatedAddr = allocateObject(cachep->slabs_empty);
 1361              		.loc 1 326 9 is_stmt 1
 1362              		.loc 1 326 45 is_stmt 0
 1363 07b4 97000000 		call	_Z14allocateObjectP6slab_s
 1363      E7800000 
 1364              	.LVL124:
 1365 07bc 13090500 		mv	s2,a0
 1366              	.LVL125:
 327:src/slabAllocator.cpp ****         if(!empty(cachep->slabs_empty))
 1367              		.loc 1 327 9 is_stmt 1
 1368              		.loc 1 327 18 is_stmt 0
 1369 07c0 03B50404 		ld	a0,64(s1)
 1370              	.LVL126:
 1371 07c4 97000000 		call	_Z5emptyP6slab_s
 1371      E7800000 
 1372              	.LVL127:
 1373              		.loc 1 327 9
 1374 07cc 63160504 		bnez	a0,.L82
 328:src/slabAllocator.cpp ****         {
 329:src/slabAllocator.cpp ****             putEmptyToPartial(cachep);
 1375              		.loc 1 329 13 is_stmt 1
 1376              		.loc 1 329 30 is_stmt 0
 1377 07d0 13850400 		mv	a0,s1
 1378 07d4 97000000 		call	_Z17putEmptyToPartialP12kmem_cache_s
 1378      E7800000 
 1379              	.LVL128:
 330:src/slabAllocator.cpp ****             if(full(cachep->slabs_partial))
 1380              		.loc 1 330 13 is_stmt 1
 1381              		.loc 1 330 20 is_stmt 0
 1382 07dc 03B50405 		ld	a0,80(s1)
 1383 07e0 97000000 		call	_Z4fullP6slab_s
 1383      E7800000 
 1384              	.LVL129:
 1385              		.loc 1 330 13
 1386 07e8 63080502 		beqz	a0,.L82
 331:src/slabAllocator.cpp ****                 putPartialToFull(cachep);
 1387              		.loc 1 331 17 is_stmt 1
 1388              		.loc 1 331 33 is_stmt 0
 1389 07ec 13850400 		mv	a0,s1
 1390 07f0 97000000 		call	_Z16putPartialToFullP12kmem_cache_s
 1390      E7800000 
 1391              	.LVL130:
 332:src/slabAllocator.cpp ****         }
 333:src/slabAllocator.cpp ****         return allocatedAddr;
 1392              		.loc 1 333 9 is_stmt 1
 1393              		.loc 1 333 16 is_stmt 0
 1394 07f8 6F000002 		j	.L82
 1395              	.LVL131:
 1396              	.L90:
 1397              	.LBE16:
 1398              	.LBE15:
 1399              	.LBB18:
 319:src/slabAllocator.cpp ****         if(full(cachep->slabs_partial))
 1400              		.loc 1 319 9 is_stmt 1
GAS LISTING /tmp/ccM4Qgn5.s 			page 33


 319:src/slabAllocator.cpp ****         if(full(cachep->slabs_partial))
 1401              		.loc 1 319 45 is_stmt 0
 1402 07fc 97000000 		call	_Z14allocateObjectP6slab_s
 1402      E7800000 
 1403              	.LVL132:
 1404 0804 13090500 		mv	s2,a0
 1405              	.LVL133:
 320:src/slabAllocator.cpp ****             putPartialToFull(cachep);
 1406              		.loc 1 320 9 is_stmt 1
 320:src/slabAllocator.cpp ****             putPartialToFull(cachep);
 1407              		.loc 1 320 16 is_stmt 0
 1408 0808 03B50405 		ld	a0,80(s1)
 1409              	.LVL134:
 1410 080c 97000000 		call	_Z4fullP6slab_s
 1410      E7800000 
 1411              	.LVL135:
 320:src/slabAllocator.cpp ****             putPartialToFull(cachep);
 1412              		.loc 1 320 9
 1413 0814 63100502 		bnez	a0,.L91
 1414              	.LVL136:
 1415              	.L82:
 1416              	.LBE18:
 1417              	.LBE21:
 334:src/slabAllocator.cpp ****     }
 335:src/slabAllocator.cpp ****     else
 336:src/slabAllocator.cpp ****     {
 337:src/slabAllocator.cpp ****         allocateSlab(cachep);
 338:src/slabAllocator.cpp ****         if(cachep->slabs_empty == nullptr)
 339:src/slabAllocator.cpp ****             return nullptr;
 340:src/slabAllocator.cpp ****         void* allocatedAddr = allocateObject(cachep->slabs_empty);
 341:src/slabAllocator.cpp ****         if(!empty(cachep->slabs_empty))
 342:src/slabAllocator.cpp ****         {
 343:src/slabAllocator.cpp ****             putEmptyToPartial(cachep);
 344:src/slabAllocator.cpp ****             if(full(cachep->slabs_partial))
 345:src/slabAllocator.cpp ****                 putPartialToFull(cachep);
 346:src/slabAllocator.cpp ****         }
 347:src/slabAllocator.cpp ****         return allocatedAddr;
 348:src/slabAllocator.cpp ****     }
 349:src/slabAllocator.cpp ****     return nullptr;
 350:src/slabAllocator.cpp **** }
 1418              		.loc 1 350 1
 1419 0818 13050900 		mv	a0,s2
 1420 081c 83308101 		ld	ra,24(sp)
 1421              		.cfi_remember_state
 1422              		.cfi_restore 1
 1423 0820 03340101 		ld	s0,16(sp)
 1424              		.cfi_restore 8
 1425              		.cfi_def_cfa 2, 32
 1426 0824 83348100 		ld	s1,8(sp)
 1427              		.cfi_restore 9
 1428              	.LVL137:
 1429 0828 03390100 		ld	s2,0(sp)
 1430              		.cfi_restore 18
 1431 082c 13010102 		addi	sp,sp,32
 1432              		.cfi_def_cfa_offset 0
 1433 0830 67800000 		jr	ra
 1434              	.LVL138:
GAS LISTING /tmp/ccM4Qgn5.s 			page 34


 1435              	.L91:
 1436              		.cfi_restore_state
 1437              	.LBB22:
 1438              	.LBB19:
 321:src/slabAllocator.cpp ****         return allocatedAddr;
 1439              		.loc 1 321 13 is_stmt 1
 321:src/slabAllocator.cpp ****         return allocatedAddr;
 1440              		.loc 1 321 29 is_stmt 0
 1441 0834 13850400 		mv	a0,s1
 1442 0838 97000000 		call	_Z16putPartialToFullP12kmem_cache_s
 1442      E7800000 
 1443              	.LVL139:
 322:src/slabAllocator.cpp ****     }
 1444              		.loc 1 322 9 is_stmt 1
 322:src/slabAllocator.cpp ****     }
 1445              		.loc 1 322 16 is_stmt 0
 1446 0840 6FF09FFD 		j	.L82
 1447              	.LVL140:
 1448              	.L86:
 1449              	.LBE19:
 1450              	.LBB20:
 1451              	.LBB17:
 337:src/slabAllocator.cpp ****         if(cachep->slabs_empty == nullptr)
 1452              		.loc 1 337 9 is_stmt 1
 337:src/slabAllocator.cpp ****         if(cachep->slabs_empty == nullptr)
 1453              		.loc 1 337 21 is_stmt 0
 1454 0844 13850400 		mv	a0,s1
 1455 0848 97000000 		call	_Z12allocateSlabP12kmem_cache_s
 1455      E7800000 
 1456              	.LVL141:
 338:src/slabAllocator.cpp ****             return nullptr;
 1457              		.loc 1 338 9 is_stmt 1
 338:src/slabAllocator.cpp ****             return nullptr;
 1458              		.loc 1 338 20 is_stmt 0
 1459 0850 03B90404 		ld	s2,64(s1)
 338:src/slabAllocator.cpp ****             return nullptr;
 1460              		.loc 1 338 9
 1461 0854 E30209FC 		beqz	s2,.L82
 340:src/slabAllocator.cpp ****         if(!empty(cachep->slabs_empty))
 1462              		.loc 1 340 9 is_stmt 1
 340:src/slabAllocator.cpp ****         if(!empty(cachep->slabs_empty))
 1463              		.loc 1 340 45 is_stmt 0
 1464 0858 13050900 		mv	a0,s2
 1465 085c 97000000 		call	_Z14allocateObjectP6slab_s
 1465      E7800000 
 1466              	.LVL142:
 1467 0864 13090500 		mv	s2,a0
 1468              	.LVL143:
 341:src/slabAllocator.cpp ****         {
 1469              		.loc 1 341 9 is_stmt 1
 341:src/slabAllocator.cpp ****         {
 1470              		.loc 1 341 18 is_stmt 0
 1471 0868 03B50404 		ld	a0,64(s1)
 1472              	.LVL144:
 1473 086c 97000000 		call	_Z5emptyP6slab_s
 1473      E7800000 
 1474              	.LVL145:
GAS LISTING /tmp/ccM4Qgn5.s 			page 35


 341:src/slabAllocator.cpp ****         {
 1475              		.loc 1 341 9
 1476 0874 E31205FA 		bnez	a0,.L82
 343:src/slabAllocator.cpp ****             if(full(cachep->slabs_partial))
 1477              		.loc 1 343 13 is_stmt 1
 343:src/slabAllocator.cpp ****             if(full(cachep->slabs_partial))
 1478              		.loc 1 343 30 is_stmt 0
 1479 0878 13850400 		mv	a0,s1
 1480 087c 97000000 		call	_Z17putEmptyToPartialP12kmem_cache_s
 1480      E7800000 
 1481              	.LVL146:
 344:src/slabAllocator.cpp ****                 putPartialToFull(cachep);
 1482              		.loc 1 344 13 is_stmt 1
 344:src/slabAllocator.cpp ****                 putPartialToFull(cachep);
 1483              		.loc 1 344 20 is_stmt 0
 1484 0884 03B50405 		ld	a0,80(s1)
 1485 0888 97000000 		call	_Z4fullP6slab_s
 1485      E7800000 
 1486              	.LVL147:
 344:src/slabAllocator.cpp ****                 putPartialToFull(cachep);
 1487              		.loc 1 344 13
 1488 0890 E30405F8 		beqz	a0,.L82
 345:src/slabAllocator.cpp ****         }
 1489              		.loc 1 345 17 is_stmt 1
 345:src/slabAllocator.cpp ****         }
 1490              		.loc 1 345 33 is_stmt 0
 1491 0894 13850400 		mv	a0,s1
 1492 0898 97000000 		call	_Z16putPartialToFullP12kmem_cache_s
 1492      E7800000 
 1493              	.LVL148:
 347:src/slabAllocator.cpp ****     }
 1494              		.loc 1 347 9 is_stmt 1
 347:src/slabAllocator.cpp ****     }
 1495              		.loc 1 347 16 is_stmt 0
 1496 08a0 6FF09FF7 		j	.L82
 1497              	.LBE17:
 1498              	.LBE20:
 1499              	.LBE22:
 1500              		.cfi_endproc
 1501              	.LFE25:
 1503              		.align	2
 1504              		.globl	_Z17kmem_cache_createPKcmPFvPvES3_
 1506              	_Z17kmem_cache_createPKcmPFvPvES3_:
 1507              	.LFB24:
 302:src/slabAllocator.cpp ****     kmem_cache_t* newCache = (kmem_cache_t*)kmem_cache_alloc(&slabAllocator->cacheOfCaches);
 1508              		.loc 1 302 1 is_stmt 1
 1509              		.cfi_startproc
 1510              	.LVL149:
 1511 08a4 130101FC 		addi	sp,sp,-64
 1512              		.cfi_def_cfa_offset 64
 1513 08a8 233C1102 		sd	ra,56(sp)
 1514 08ac 23388102 		sd	s0,48(sp)
 1515 08b0 23349102 		sd	s1,40(sp)
 1516 08b4 23302103 		sd	s2,32(sp)
 1517 08b8 233C3101 		sd	s3,24(sp)
 1518 08bc 23384101 		sd	s4,16(sp)
 1519 08c0 23345101 		sd	s5,8(sp)
GAS LISTING /tmp/ccM4Qgn5.s 			page 36


 1520              		.cfi_offset 1, -8
 1521              		.cfi_offset 8, -16
 1522              		.cfi_offset 9, -24
 1523              		.cfi_offset 18, -32
 1524              		.cfi_offset 19, -40
 1525              		.cfi_offset 20, -48
 1526              		.cfi_offset 21, -56
 1527 08c4 13040104 		addi	s0,sp,64
 1528              		.cfi_def_cfa 8, 0
 1529 08c8 93090500 		mv	s3,a0
 1530 08cc 13890500 		mv	s2,a1
 1531 08d0 130A0600 		mv	s4,a2
 1532 08d4 938A0600 		mv	s5,a3
 303:src/slabAllocator.cpp ****     newCache->slabs_empty = nullptr;
 1533              		.loc 1 303 5
 303:src/slabAllocator.cpp ****     newCache->slabs_empty = nullptr;
 1534              		.loc 1 303 61 is_stmt 0
 1535 08d8 17050000 		ld	a0,.LANCHOR0
 1535      03350500 
 1536              	.LVL150:
 1537 08e0 13050507 		addi	a0,a0,112
 1538 08e4 97000000 		call	_Z16kmem_cache_allocP12kmem_cache_s
 1538      E7800000 
 1539              	.LVL151:
 1540 08ec 93040500 		mv	s1,a0
 1541              	.LVL152:
 304:src/slabAllocator.cpp ****     newCache->slabs_partial = nullptr;
 1542              		.loc 1 304 5 is_stmt 1
 304:src/slabAllocator.cpp ****     newCache->slabs_partial = nullptr;
 1543              		.loc 1 304 27 is_stmt 0
 1544 08f0 23300504 		sd	zero,64(a0)
 305:src/slabAllocator.cpp ****     newCache->slabs_full = nullptr;
 1545              		.loc 1 305 5 is_stmt 1
 305:src/slabAllocator.cpp ****     newCache->slabs_full = nullptr;
 1546              		.loc 1 305 29 is_stmt 0
 1547 08f4 23380504 		sd	zero,80(a0)
 306:src/slabAllocator.cpp ****     newCache->dtor = dtor;
 1548              		.loc 1 306 5 is_stmt 1
 306:src/slabAllocator.cpp ****     newCache->dtor = dtor;
 1549              		.loc 1 306 26 is_stmt 0
 1550 08f8 23340504 		sd	zero,72(a0)
 307:src/slabAllocator.cpp ****     newCache->ctor = ctor;
 1551              		.loc 1 307 5 is_stmt 1
 307:src/slabAllocator.cpp ****     newCache->ctor = ctor;
 1552              		.loc 1 307 20 is_stmt 0
 1553 08fc 23385507 		sd	s5,112(a0)
 308:src/slabAllocator.cpp ****     strcpy(name, newCache->cacheName);
 1554              		.loc 1 308 5 is_stmt 1
 308:src/slabAllocator.cpp ****     strcpy(name, newCache->cacheName);
 1555              		.loc 1 308 20 is_stmt 0
 1556 0900 23344507 		sd	s4,104(a0)
 309:src/slabAllocator.cpp ****     newCache->obj_size = size;
 1557              		.loc 1 309 5 is_stmt 1
 309:src/slabAllocator.cpp ****     newCache->obj_size = size;
 1558              		.loc 1 309 11 is_stmt 0
 1559 0904 93050500 		mv	a1,a0
 1560 0908 13850900 		mv	a0,s3
GAS LISTING /tmp/ccM4Qgn5.s 			page 37


 1561 090c 97000000 		call	_Z6strcpyPKcPc
 1561      E7800000 
 1562              	.LVL153:
 310:src/slabAllocator.cpp ****     newCache->slab_size = getOptimalSlabSize(size);
 1563              		.loc 1 310 5 is_stmt 1
 310:src/slabAllocator.cpp ****     newCache->slab_size = getOptimalSlabSize(size);
 1564              		.loc 1 310 24 is_stmt 0
 1565 0914 23B02407 		sd	s2,96(s1)
 311:src/slabAllocator.cpp ****     return newCache;
 1566              		.loc 1 311 5 is_stmt 1
 311:src/slabAllocator.cpp ****     return newCache;
 1567              		.loc 1 311 45 is_stmt 0
 1568 0918 13050900 		mv	a0,s2
 1569 091c 97000000 		call	_Z18getOptimalSlabSizem
 1569      E7800000 
 1570              	.LVL154:
 311:src/slabAllocator.cpp ****     return newCache;
 1571              		.loc 1 311 25
 1572 0924 23BCA404 		sd	a0,88(s1)
 312:src/slabAllocator.cpp **** }
 1573              		.loc 1 312 5 is_stmt 1
 313:src/slabAllocator.cpp **** 
 1574              		.loc 1 313 1 is_stmt 0
 1575 0928 13850400 		mv	a0,s1
 1576 092c 83308103 		ld	ra,56(sp)
 1577              		.cfi_restore 1
 1578 0930 03340103 		ld	s0,48(sp)
 1579              		.cfi_restore 8
 1580              		.cfi_def_cfa 2, 64
 1581 0934 83348102 		ld	s1,40(sp)
 1582              		.cfi_restore 9
 1583              	.LVL155:
 1584 0938 03390102 		ld	s2,32(sp)
 1585              		.cfi_restore 18
 1586              	.LVL156:
 1587 093c 83398101 		ld	s3,24(sp)
 1588              		.cfi_restore 19
 1589              	.LVL157:
 1590 0940 033A0101 		ld	s4,16(sp)
 1591              		.cfi_restore 20
 1592              	.LVL158:
 1593 0944 833A8100 		ld	s5,8(sp)
 1594              		.cfi_restore 21
 1595              	.LVL159:
 1596 0948 13010104 		addi	sp,sp,64
 1597              		.cfi_def_cfa_offset 0
 1598 094c 67800000 		jr	ra
 1599              		.cfi_endproc
 1600              	.LFE24:
 1602              		.align	2
 1603              		.globl	_Z15kmem_cache_freeP12kmem_cache_sPv
 1605              	_Z15kmem_cache_freeP12kmem_cache_sPv:
 1606              	.LFB26:
 351:src/slabAllocator.cpp **** 
 352:src/slabAllocator.cpp **** void kmem_cache_free(kmem_cache_t *cachep, void *objp)
 353:src/slabAllocator.cpp **** {
 1607              		.loc 1 353 1 is_stmt 1
GAS LISTING /tmp/ccM4Qgn5.s 			page 38


 1608              		.cfi_startproc
 1609              	.LVL160:
 354:src/slabAllocator.cpp ****     if(cachep == nullptr || objp == nullptr)
 1610              		.loc 1 354 5
 1611 0950 63060504 		beqz	a0,.L97
 353:src/slabAllocator.cpp ****     if(cachep == nullptr || objp == nullptr)
 1612              		.loc 1 353 1 is_stmt 0 discriminator 1
 1613 0954 130101FE 		addi	sp,sp,-32
 1614              		.cfi_def_cfa_offset 32
 1615 0958 233C1100 		sd	ra,24(sp)
 1616 095c 23388100 		sd	s0,16(sp)
 1617 0960 23349100 		sd	s1,8(sp)
 1618              		.cfi_offset 1, -8
 1619              		.cfi_offset 8, -16
 1620              		.cfi_offset 9, -24
 1621 0964 13040102 		addi	s0,sp,32
 1622              		.cfi_def_cfa 8, 0
 1623 0968 93840500 		mv	s1,a1
 1624              		.loc 1 354 26 discriminator 1
 1625 096c 638E0500 		beqz	a1,.L94
 355:src/slabAllocator.cpp ****         return;
 356:src/slabAllocator.cpp ****     slab_t* slab = findSlab(cachep, objp);
 1626              		.loc 1 356 5 is_stmt 1
 1627              		.loc 1 356 28 is_stmt 0
 1628 0970 97000000 		call	_Z8findSlabP12kmem_cache_sPKv
 1628      E7800000 
 1629              	.LVL161:
 357:src/slabAllocator.cpp ****     if(slab == nullptr) return;
 1630              		.loc 1 357 5 is_stmt 1
 1631 0978 63080500 		beqz	a0,.L94
 358:src/slabAllocator.cpp ****     free_slab_object(slab, objp);
 1632              		.loc 1 358 5
 1633              		.loc 1 358 21 is_stmt 0
 1634 097c 93850400 		mv	a1,s1
 1635 0980 97000000 		call	_Z16free_slab_objectP6slab_sPKv
 1635      E7800000 
 1636              	.LVL162:
 1637              	.L94:
 359:src/slabAllocator.cpp **** }
 1638              		.loc 1 359 1
 1639 0988 83308101 		ld	ra,24(sp)
 1640              		.cfi_restore 1
 1641 098c 03340101 		ld	s0,16(sp)
 1642              		.cfi_restore 8
 1643              		.cfi_def_cfa 2, 32
 1644 0990 83348100 		ld	s1,8(sp)
 1645              		.cfi_restore 9
 1646              	.LVL163:
 1647 0994 13010102 		addi	sp,sp,32
 1648              		.cfi_def_cfa_offset 0
 1649 0998 67800000 		jr	ra
 1650              	.LVL164:
 1651              	.L97:
 1652 099c 67800000 		ret
 1653              		.cfi_endproc
 1654              	.LFE26:
 1656              		.section	.rodata.str1.8
GAS LISTING /tmp/ccM4Qgn5.s 			page 39


 1657 0072 00000000 		.align	3
 1657      0000
 1658              	.LC6:
 1659 0078 4B6D656D 		.string	"Kmem Cache Info-------------------------------------\n"
 1659      20436163 
 1659      68652049 
 1659      6E666F2D 
 1659      2D2D2D2D 
 1660 00ae 0000     		.align	3
 1661              	.LC7:
 1662 00b0 43616368 		.string	"Cache Name "
 1662      65204E61 
 1662      6D652000 
 1663 00bc 00000000 		.align	3
 1664              	.LC8:
 1665 00c0 43616368 		.string	"Cache slab size in blocks "
 1665      6520736C 
 1665      61622073 
 1665      697A6520 
 1665      696E2062 
 1666 00db 00000000 		.align	3
 1666      00
 1667              	.LC9:
 1668 00e0 43616368 		.string	"Cache obj size in bytes "
 1668      65206F62 
 1668      6A207369 
 1668      7A652069 
 1668      6E206279 
 1669 00f9 00000000 		.align	3
 1669      000000
 1670              	.LC10:
 1671 0100 536C6162 		.string	"Slabs info-------------------\n"
 1671      7320696E 
 1671      666F2D2D 
 1671      2D2D2D2D 
 1671      2D2D2D2D 
 1672 011f 00       		.align	3
 1673              	.LC11:
 1674 0120 46756C6C 		.string	"Full slabs\n"
 1674      20736C61 
 1674      62730A00 
 1675 012c 00000000 		.align	3
 1676              	.LC12:
 1677 0130 50617274 		.string	"Partial slabs\n"
 1677      69616C20 
 1677      736C6162 
 1677      730A00
 1678 013f 00       		.align	3
 1679              	.LC13:
 1680 0140 456D7074 		.string	"Empty slabs\n"
 1680      7920736C 
 1680      6162730A 
 1680      00
 1681              		.text
 1682              		.align	2
 1683              		.globl	_Z15kmem_cache_infoP12kmem_cache_s
 1685              	_Z15kmem_cache_infoP12kmem_cache_s:
GAS LISTING /tmp/ccM4Qgn5.s 			page 40


 1686              	.LFB27:
 360:src/slabAllocator.cpp **** 
 361:src/slabAllocator.cpp **** //TODO
 362:src/slabAllocator.cpp **** //what needs to be printed
 363:src/slabAllocator.cpp **** void kmem_cache_info(kmem_cache_t *cachep)
 364:src/slabAllocator.cpp **** {
 1687              		.loc 1 364 1 is_stmt 1
 1688              		.cfi_startproc
 1689              	.LVL165:
 1690 09a0 130101FE 		addi	sp,sp,-32
 1691              		.cfi_def_cfa_offset 32
 1692 09a4 233C1100 		sd	ra,24(sp)
 1693 09a8 23388100 		sd	s0,16(sp)
 1694 09ac 23349100 		sd	s1,8(sp)
 1695 09b0 23302101 		sd	s2,0(sp)
 1696              		.cfi_offset 1, -8
 1697              		.cfi_offset 8, -16
 1698              		.cfi_offset 9, -24
 1699              		.cfi_offset 18, -32
 1700 09b4 13040102 		addi	s0,sp,32
 1701              		.cfi_def_cfa 8, 0
 1702 09b8 13090500 		mv	s2,a0
 365:src/slabAllocator.cpp ****     KConsole::trapPrintString("Kmem Cache Info-------------------------------------\n");
 1703              		.loc 1 365 5
 1704              		.loc 1 365 30 is_stmt 0
 1705 09bc 17050000 		lla	a0,.LC6
 1705      13050500 
 1706              	.LVL166:
 1707 09c4 97000000 		call	_ZN8KConsole15trapPrintStringEPKc@plt
 1707      E7800000 
 1708              	.LVL167:
 366:src/slabAllocator.cpp ****     KConsole::trapPrintString("Cache Name ");
 1709              		.loc 1 366 5 is_stmt 1
 1710              		.loc 1 366 30 is_stmt 0
 1711 09cc 17050000 		lla	a0,.LC7
 1711      13050500 
 1712 09d4 97000000 		call	_ZN8KConsole15trapPrintStringEPKc@plt
 1712      E7800000 
 1713              	.LVL168:
 367:src/slabAllocator.cpp ****     KConsole::trapPrintString(cachep->cacheName); KConsole::trapPrintString("\n");
 1714              		.loc 1 367 5 is_stmt 1
 1715              		.loc 1 367 30 is_stmt 0
 1716 09dc 13050900 		mv	a0,s2
 1717 09e0 97000000 		call	_ZN8KConsole15trapPrintStringEPKc@plt
 1717      E7800000 
 1718              	.LVL169:
 1719              		.loc 1 367 51 is_stmt 1
 1720              		.loc 1 367 76 is_stmt 0
 1721 09e8 17050000 		lla	a0,.LC5
 1721      13050500 
 1722 09f0 97000000 		call	_ZN8KConsole15trapPrintStringEPKc@plt
 1722      E7800000 
 1723              	.LVL170:
 368:src/slabAllocator.cpp ****     KConsole::trapPrintStringInt("Cache slab size in blocks ", cachep->slab_size);
 1724              		.loc 1 368 5 is_stmt 1
 1725              		.loc 1 368 33 is_stmt 0
 1726 09f8 1306A000 		li	a2,10
GAS LISTING /tmp/ccM4Qgn5.s 			page 41


 1727 09fc 83358905 		ld	a1,88(s2)
 1728 0a00 17050000 		lla	a0,.LC8
 1728      13050500 
 1729 0a08 97000000 		call	_ZN8KConsole18trapPrintStringIntEPKcmi@plt
 1729      E7800000 
 1730              	.LVL171:
 369:src/slabAllocator.cpp ****     KConsole::trapPrintStringInt("Cache obj size in bytes ", cachep->obj_size);
 1731              		.loc 1 369 5 is_stmt 1
 1732              		.loc 1 369 33 is_stmt 0
 1733 0a10 1306A000 		li	a2,10
 1734 0a14 83350906 		ld	a1,96(s2)
 1735 0a18 17050000 		lla	a0,.LC9
 1735      13050500 
 1736 0a20 97000000 		call	_ZN8KConsole18trapPrintStringIntEPKcmi@plt
 1736      E7800000 
 1737              	.LVL172:
 370:src/slabAllocator.cpp ****     
 371:src/slabAllocator.cpp ****     KConsole::trapPrintString("Slabs info-------------------\n");
 1738              		.loc 1 371 5 is_stmt 1
 1739              		.loc 1 371 30 is_stmt 0
 1740 0a28 17050000 		lla	a0,.LC10
 1740      13050500 
 1741 0a30 97000000 		call	_ZN8KConsole15trapPrintStringEPKc@plt
 1741      E7800000 
 1742              	.LVL173:
 372:src/slabAllocator.cpp **** 
 373:src/slabAllocator.cpp ****     KConsole::trapPrintString("Full slabs\n");
 1743              		.loc 1 373 5 is_stmt 1
 1744              		.loc 1 373 30 is_stmt 0
 1745 0a38 17050000 		lla	a0,.LC11
 1745      13050500 
 1746 0a40 97000000 		call	_ZN8KConsole15trapPrintStringEPKc@plt
 1746      E7800000 
 1747              	.LVL174:
 374:src/slabAllocator.cpp ****     slab_t* slab = cachep->slabs_full;
 1748              		.loc 1 374 5 is_stmt 1
 1749              		.loc 1 374 13 is_stmt 0
 1750 0a48 83348904 		ld	s1,72(s2)
 1751              	.LVL175:
 1752              	.L102:
 375:src/slabAllocator.cpp ****     while(slab != nullptr)
 1753              		.loc 1 375 5 is_stmt 1
 1754              		.loc 1 375 16
 1755 0a4c 638C0400 		beqz	s1,.L101
 376:src/slabAllocator.cpp ****     {
 377:src/slabAllocator.cpp ****         printSlabInfo(slab);
 1756              		.loc 1 377 9
 1757              		.loc 1 377 22 is_stmt 0
 1758 0a50 13850400 		mv	a0,s1
 1759 0a54 97000000 		call	_Z13printSlabInfoP6slab_s
 1759      E7800000 
 1760              	.LVL176:
 378:src/slabAllocator.cpp ****         slab = slab->next;
 1761              		.loc 1 378 9 is_stmt 1
 1762              		.loc 1 378 14 is_stmt 0
 1763 0a5c 83B48400 		ld	s1,8(s1)
 1764              	.LVL177:
GAS LISTING /tmp/ccM4Qgn5.s 			page 42


 375:src/slabAllocator.cpp ****     while(slab != nullptr)
 1765              		.loc 1 375 5
 1766 0a60 6FF0DFFE 		j	.L102
 1767              	.L101:
 379:src/slabAllocator.cpp ****     }
 380:src/slabAllocator.cpp **** 
 381:src/slabAllocator.cpp ****     KConsole::trapPrintString("Partial slabs\n");
 1768              		.loc 1 381 5 is_stmt 1
 1769              		.loc 1 381 30 is_stmt 0
 1770 0a64 17050000 		lla	a0,.LC12
 1770      13050500 
 1771 0a6c 97000000 		call	_ZN8KConsole15trapPrintStringEPKc@plt
 1771      E7800000 
 1772              	.LVL178:
 382:src/slabAllocator.cpp ****     slab = cachep->slabs_partial;
 1773              		.loc 1 382 5 is_stmt 1
 1774              		.loc 1 382 10 is_stmt 0
 1775 0a74 83340905 		ld	s1,80(s2)
 1776              	.LVL179:
 1777              	.L104:
 383:src/slabAllocator.cpp ****     while(slab != nullptr)
 1778              		.loc 1 383 5 is_stmt 1
 1779              		.loc 1 383 16
 1780 0a78 638C0400 		beqz	s1,.L103
 384:src/slabAllocator.cpp ****     {
 385:src/slabAllocator.cpp ****         printSlabInfo(slab);
 1781              		.loc 1 385 9
 1782              		.loc 1 385 22 is_stmt 0
 1783 0a7c 13850400 		mv	a0,s1
 1784 0a80 97000000 		call	_Z13printSlabInfoP6slab_s
 1784      E7800000 
 1785              	.LVL180:
 386:src/slabAllocator.cpp ****         slab = slab->next;
 1786              		.loc 1 386 9 is_stmt 1
 1787              		.loc 1 386 14 is_stmt 0
 1788 0a88 83B48400 		ld	s1,8(s1)
 1789              	.LVL181:
 383:src/slabAllocator.cpp ****     while(slab != nullptr)
 1790              		.loc 1 383 5
 1791 0a8c 6FF0DFFE 		j	.L104
 1792              	.L103:
 387:src/slabAllocator.cpp ****     }
 388:src/slabAllocator.cpp **** 
 389:src/slabAllocator.cpp ****     KConsole::trapPrintString("Empty slabs\n");
 1793              		.loc 1 389 5 is_stmt 1
 1794              		.loc 1 389 30 is_stmt 0
 1795 0a90 17050000 		lla	a0,.LC13
 1795      13050500 
 1796 0a98 97000000 		call	_ZN8KConsole15trapPrintStringEPKc@plt
 1796      E7800000 
 1797              	.LVL182:
 390:src/slabAllocator.cpp ****     slab = cachep->slabs_empty;
 1798              		.loc 1 390 5 is_stmt 1
 1799              		.loc 1 390 10 is_stmt 0
 1800 0aa0 83340904 		ld	s1,64(s2)
 1801              	.LVL183:
 1802              	.L106:
GAS LISTING /tmp/ccM4Qgn5.s 			page 43


 391:src/slabAllocator.cpp ****     while(slab != nullptr)
 1803              		.loc 1 391 5 is_stmt 1
 1804              		.loc 1 391 16
 1805 0aa4 638C0400 		beqz	s1,.L100
 392:src/slabAllocator.cpp ****     {
 393:src/slabAllocator.cpp ****         printSlabInfo(slab);
 1806              		.loc 1 393 9
 1807              		.loc 1 393 22 is_stmt 0
 1808 0aa8 13850400 		mv	a0,s1
 1809 0aac 97000000 		call	_Z13printSlabInfoP6slab_s
 1809      E7800000 
 1810              	.LVL184:
 394:src/slabAllocator.cpp ****         slab = slab->next;
 1811              		.loc 1 394 9 is_stmt 1
 1812              		.loc 1 394 14 is_stmt 0
 1813 0ab4 83B48400 		ld	s1,8(s1)
 1814              	.LVL185:
 391:src/slabAllocator.cpp ****     while(slab != nullptr)
 1815              		.loc 1 391 5
 1816 0ab8 6FF0DFFE 		j	.L106
 1817              	.L100:
 395:src/slabAllocator.cpp ****     }
 396:src/slabAllocator.cpp **** }
 1818              		.loc 1 396 1
 1819 0abc 83308101 		ld	ra,24(sp)
 1820              		.cfi_restore 1
 1821 0ac0 03340101 		ld	s0,16(sp)
 1822              		.cfi_restore 8
 1823              		.cfi_def_cfa 2, 32
 1824 0ac4 83348100 		ld	s1,8(sp)
 1825              		.cfi_restore 9
 1826              	.LVL186:
 1827 0ac8 03390100 		ld	s2,0(sp)
 1828              		.cfi_restore 18
 1829              	.LVL187:
 1830 0acc 13010102 		addi	sp,sp,32
 1831              		.cfi_def_cfa_offset 0
 1832 0ad0 67800000 		jr	ra
 1833              		.cfi_endproc
 1834              	.LFE27:
 1836              		.section	.rodata.str1.8
 1837 014d 000000   		.align	3
 1838              	.LC14:
 1839 0150 536C6162 		.string	"Slab allocator info----------------------------------------------------------\n"
 1839      20616C6C 
 1839      6F636174 
 1839      6F722069 
 1839      6E666F2D 
 1840 019f 00       		.align	3
 1841              	.LC15:
 1842 01a0 536C6162 		.string	"Slab allocator buddy address "
 1842      20616C6C 
 1842      6F636174 
 1842      6F722062 
 1842      75646479 
 1843 01be 0000     		.align	3
 1844              	.LC16:
GAS LISTING /tmp/ccM4Qgn5.s 			page 44


 1845 01c0 536C6162 		.string	"Slab allocator address "
 1845      20616C6C 
 1845      6F636174 
 1845      6F722061 
 1845      64647265 
 1846              		.align	3
 1847              	.LC17:
 1848 01d8 43616368 		.string	"Cache of caches info\n"
 1848      65206F66 
 1848      20636163 
 1848      68657320 
 1848      696E666F 
 1849 01ee 0000     		.align	3
 1850              	.LC18:
 1851 01f0 43616368 		.string	"Caches for buffers\n"
 1851      65732066 
 1851      6F722062 
 1851      75666665 
 1851      72730A00 
 1852              		.text
 1853              		.align	2
 1854              		.globl	_Z22printSlabAllocatorInfov
 1856              	_Z22printSlabAllocatorInfov:
 1857              	.LFB22:
 273:src/slabAllocator.cpp ****     KConsole::trapPrintString("Slab allocator info-------------------------------------------------
 1858              		.loc 1 273 1 is_stmt 1
 1859              		.cfi_startproc
 1860 0ad4 130101FE 		addi	sp,sp,-32
 1861              		.cfi_def_cfa_offset 32
 1862 0ad8 233C1100 		sd	ra,24(sp)
 1863 0adc 23388100 		sd	s0,16(sp)
 1864 0ae0 23349100 		sd	s1,8(sp)
 1865              		.cfi_offset 1, -8
 1866              		.cfi_offset 8, -16
 1867              		.cfi_offset 9, -24
 1868 0ae4 13040102 		addi	s0,sp,32
 1869              		.cfi_def_cfa 8, 0
 274:src/slabAllocator.cpp ****     KConsole::trapPrintStringInt("Slab allocator buddy address ", (size_t)slabAllocator->buddy,16);
 1870              		.loc 1 274 5
 274:src/slabAllocator.cpp ****     KConsole::trapPrintStringInt("Slab allocator buddy address ", (size_t)slabAllocator->buddy,16);
 1871              		.loc 1 274 30 is_stmt 0
 1872 0ae8 17050000 		lla	a0,.LC14
 1872      13050500 
 1873 0af0 97000000 		call	_ZN8KConsole15trapPrintStringEPKc@plt
 1873      E7800000 
 1874              	.LVL188:
 275:src/slabAllocator.cpp ****     KConsole::trapPrintStringInt("Slab allocator address ", (size_t)slabAllocator, 16);
 1875              		.loc 1 275 5 is_stmt 1
 275:src/slabAllocator.cpp ****     KConsole::trapPrintStringInt("Slab allocator address ", (size_t)slabAllocator, 16);
 1876              		.loc 1 275 90 is_stmt 0
 1877 0af8 97040000 		lla	s1,.LANCHOR0
 1877      93840400 
 1878 0b00 83B70400 		ld	a5,0(s1)
 275:src/slabAllocator.cpp ****     KConsole::trapPrintStringInt("Slab allocator address ", (size_t)slabAllocator, 16);
 1879              		.loc 1 275 33
 1880 0b04 13060001 		li	a2,16
 1881 0b08 83B50700 		ld	a1,0(a5)
GAS LISTING /tmp/ccM4Qgn5.s 			page 45


 1882 0b0c 17050000 		lla	a0,.LC15
 1882      13050500 
 1883 0b14 97000000 		call	_ZN8KConsole18trapPrintStringIntEPKcmi@plt
 1883      E7800000 
 1884              	.LVL189:
 276:src/slabAllocator.cpp ****     KConsole::trapPrintString("Cache of caches info\n");
 1885              		.loc 1 276 5 is_stmt 1
 276:src/slabAllocator.cpp ****     KConsole::trapPrintString("Cache of caches info\n");
 1886              		.loc 1 276 33 is_stmt 0
 1887 0b1c 13060001 		li	a2,16
 1888 0b20 83B50400 		ld	a1,0(s1)
 1889 0b24 17050000 		lla	a0,.LC16
 1889      13050500 
 1890 0b2c 97000000 		call	_ZN8KConsole18trapPrintStringIntEPKcmi@plt
 1890      E7800000 
 1891              	.LVL190:
 277:src/slabAllocator.cpp ****     kmem_cache_info(&slabAllocator->cacheOfCaches);
 1892              		.loc 1 277 5 is_stmt 1
 277:src/slabAllocator.cpp ****     kmem_cache_info(&slabAllocator->cacheOfCaches);
 1893              		.loc 1 277 30 is_stmt 0
 1894 0b34 17050000 		lla	a0,.LC17
 1894      13050500 
 1895 0b3c 97000000 		call	_ZN8KConsole15trapPrintStringEPKc@plt
 1895      E7800000 
 1896              	.LVL191:
 278:src/slabAllocator.cpp ****     KConsole::trapPrintString("Caches for buffers\n");
 1897              		.loc 1 278 5 is_stmt 1
 278:src/slabAllocator.cpp ****     KConsole::trapPrintString("Caches for buffers\n");
 1898              		.loc 1 278 37 is_stmt 0
 1899 0b44 03B50400 		ld	a0,0(s1)
 278:src/slabAllocator.cpp ****     KConsole::trapPrintString("Caches for buffers\n");
 1900              		.loc 1 278 20
 1901 0b48 13050507 		addi	a0,a0,112
 1902 0b4c 97000000 		call	_Z15kmem_cache_infoP12kmem_cache_s
 1902      E7800000 
 1903              	.LVL192:
 279:src/slabAllocator.cpp ****     for(size_t i = 0;i < CACHE_BUFFER_SIZE;i++)
 1904              		.loc 1 279 5 is_stmt 1
 279:src/slabAllocator.cpp ****     for(size_t i = 0;i < CACHE_BUFFER_SIZE;i++)
 1905              		.loc 1 279 30 is_stmt 0
 1906 0b54 17050000 		lla	a0,.LC18
 1906      13050500 
 1907 0b5c 97000000 		call	_ZN8KConsole15trapPrintStringEPKc@plt
 1907      E7800000 
 1908              	.LVL193:
 280:src/slabAllocator.cpp ****     {
 1909              		.loc 1 280 5 is_stmt 1
 1910              	.LBB23:
 280:src/slabAllocator.cpp ****     {
 1911              		.loc 1 280 16 is_stmt 0
 1912 0b64 93040000 		li	s1,0
 1913 0b68 6F000001 		j	.L111
 1914              	.LVL194:
 1915              	.L113:
 284:src/slabAllocator.cpp ****         }
 1916              		.loc 1 284 13 is_stmt 1
 284:src/slabAllocator.cpp ****         }
GAS LISTING /tmp/ccM4Qgn5.s 			page 46


 1917              		.loc 1 284 28 is_stmt 0
 1918 0b6c 97000000 		call	_Z15kmem_cache_infoP12kmem_cache_s
 1918      E7800000 
 1919              	.LVL195:
 1920              	.L110:
 280:src/slabAllocator.cpp ****     {
 1921              		.loc 1 280 5 is_stmt 1 discriminator 2
 1922 0b74 93841400 		addi	s1,s1,1
 1923              	.LVL196:
 1924              	.L111:
 280:src/slabAllocator.cpp ****     {
 1925              		.loc 1 280 24 discriminator 1
 1926 0b78 9307C000 		li	a5,12
 1927 0b7c 63E09702 		bgtu	s1,a5,.L108
 282:src/slabAllocator.cpp ****         {
 1928              		.loc 1 282 9
 282:src/slabAllocator.cpp ****         {
 1929              		.loc 1 282 42 is_stmt 0
 1930 0b80 93973400 		slli	a5,s1,3
 1931 0b84 17070000 		ld	a4,.LANCHOR0
 1931      03370700 
 1932 0b8c B307F700 		add	a5,a4,a5
 1933 0b90 03B58700 		ld	a0,8(a5)
 282:src/slabAllocator.cpp ****         {
 1934              		.loc 1 282 9
 1935 0b94 E31C05FC 		bnez	a0,.L113
 1936 0b98 6FF0DFFD 		j	.L110
 1937              	.L108:
 1938              	.LBE23:
 287:src/slabAllocator.cpp **** 
 1939              		.loc 1 287 1
 1940 0b9c 83308101 		ld	ra,24(sp)
 1941              		.cfi_restore 1
 1942 0ba0 03340101 		ld	s0,16(sp)
 1943              		.cfi_restore 8
 1944              		.cfi_def_cfa 2, 32
 1945 0ba4 83348100 		ld	s1,8(sp)
 1946              		.cfi_restore 9
 1947              	.LVL197:
 1948 0ba8 13010102 		addi	sp,sp,32
 1949              		.cfi_def_cfa_offset 0
 1950 0bac 67800000 		jr	ra
 1951              		.cfi_endproc
 1952              	.LFE22:
 1954              		.section	.rodata.str1.8
 1955 0204 00000000 		.align	3
 1956              	.LC19:
 1957 0208 43616368 		.string	"Cache for small buffers"
 1957      6520666F 
 1957      7220736D 
 1957      616C6C20 
 1957      62756666 
 1958              		.text
 1959              		.align	2
 1960              		.globl	_Z7kmallocm
 1962              	_Z7kmallocm:
 1963              	.LFB28:
GAS LISTING /tmp/ccM4Qgn5.s 			page 47


 397:src/slabAllocator.cpp **** 
 398:src/slabAllocator.cpp **** void *kmalloc(size_t size)
 399:src/slabAllocator.cpp **** {
 1964              		.loc 1 399 1 is_stmt 1
 1965              		.cfi_startproc
 1966              	.LVL198:
 1967 0bb0 130101FD 		addi	sp,sp,-48
 1968              		.cfi_def_cfa_offset 48
 1969 0bb4 23341102 		sd	ra,40(sp)
 1970 0bb8 23308102 		sd	s0,32(sp)
 1971 0bbc 233C9100 		sd	s1,24(sp)
 1972 0bc0 23382101 		sd	s2,16(sp)
 1973 0bc4 23343101 		sd	s3,8(sp)
 1974 0bc8 23304101 		sd	s4,0(sp)
 1975              		.cfi_offset 1, -8
 1976              		.cfi_offset 8, -16
 1977              		.cfi_offset 9, -24
 1978              		.cfi_offset 18, -32
 1979              		.cfi_offset 19, -40
 1980              		.cfi_offset 20, -48
 1981 0bcc 13040103 		addi	s0,sp,48
 1982              		.cfi_def_cfa 8, 0
 1983 0bd0 93090500 		mv	s3,a0
 400:src/slabAllocator.cpp ****     size_t level = getDeg2Ceil(size);
 1984              		.loc 1 400 5
 1985              		.loc 1 400 31 is_stmt 0
 1986 0bd4 97000000 		call	_Z11getDeg2Ceilm@plt
 1986      E7800000 
 1987              	.LVL199:
 401:src/slabAllocator.cpp ****     if(level < CACHE_BUFFER_SMALL)
 1988              		.loc 1 401 5 is_stmt 1
 1989 0bdc 93074000 		li	a5,4
 1990 0be0 63FAA700 		bleu	a0,a5,.L118
 402:src/slabAllocator.cpp ****         level = CACHE_BUFFER_SMALL;
 403:src/slabAllocator.cpp ****     if(level > CACHE_BUFFER_BIG)
 1991              		.loc 1 403 5
 1992 0be4 93071001 		li	a5,17
 1993 0be8 63F8A700 		bleu	a0,a5,.L115
 404:src/slabAllocator.cpp ****         return nullptr;
 1994              		.loc 1 404 16 is_stmt 0
 1995 0bec 13050000 		li	a0,0
 1996              	.LVL200:
 1997 0bf0 6F000004 		j	.L114
 1998              	.LVL201:
 1999              	.L118:
 402:src/slabAllocator.cpp ****         level = CACHE_BUFFER_SMALL;
 2000              		.loc 1 402 15
 2001 0bf4 13055000 		li	a0,5
 2002              	.LVL202:
 2003              	.L115:
 405:src/slabAllocator.cpp ****     size_t index = level - CACHE_BUFFER_SMALL;
 2004              		.loc 1 405 5 is_stmt 1
 2005              		.loc 1 405 12 is_stmt 0
 2006 0bf8 9304B5FF 		addi	s1,a0,-5
 2007              	.LVL203:
 406:src/slabAllocator.cpp ****     if(slabAllocator->cachesBuffers[index] == nullptr)
 2008              		.loc 1 406 5 is_stmt 1
GAS LISTING /tmp/ccM4Qgn5.s 			page 48


 2009              		.loc 1 406 42 is_stmt 0
 2010 0bfc 17090000 		ld	s2,.LANCHOR0
 2010      03390900 
 2011 0c04 93973400 		slli	a5,s1,3
 2012 0c08 B307F900 		add	a5,s2,a5
 2013 0c0c 83B78700 		ld	a5,8(a5)
 2014              		.loc 1 406 5
 2015 0c10 63800704 		beqz	a5,.L121
 2016              	.L117:
 407:src/slabAllocator.cpp ****     {
 408:src/slabAllocator.cpp ****         slabAllocator->cachesBuffers[index] = (kmem_cache_t*)kmem_cache_alloc(&slabAllocator->cache
 409:src/slabAllocator.cpp ****         slabAllocator->cachesBuffers[index]->slabs_empty = nullptr;
 410:src/slabAllocator.cpp ****         slabAllocator->cachesBuffers[index]->slabs_partial = nullptr;
 411:src/slabAllocator.cpp ****         slabAllocator->cachesBuffers[index]->slabs_full = nullptr;
 412:src/slabAllocator.cpp ****         slabAllocator->cachesBuffers[index]->dtor = nullptr;
 413:src/slabAllocator.cpp ****         slabAllocator->cachesBuffers[index]->ctor = nullptr;
 414:src/slabAllocator.cpp ****         strcpy("Cache for small buffers", slabAllocator->cachesBuffers[index]->cacheName);
 415:src/slabAllocator.cpp ****         slabAllocator->cachesBuffers[index]->obj_size = size;
 416:src/slabAllocator.cpp ****         slabAllocator->cachesBuffers[index]->slab_size = getOptimalSlabSize(size);
 417:src/slabAllocator.cpp ****     }
 418:src/slabAllocator.cpp **** 
 419:src/slabAllocator.cpp ****     return kmem_cache_alloc(slabAllocator->cachesBuffers[index]);
 2017              		.loc 1 419 5 is_stmt 1
 2018              		.loc 1 419 28 is_stmt 0
 2019 0c14 13953400 		slli	a0,s1,3
 2020 0c18 97040000 		ld	s1,.LANCHOR0
 2020      83B40400 
 2021              	.LVL204:
 2022 0c20 3385A400 		add	a0,s1,a0
 2023 0c24 03358500 		ld	a0,8(a0)
 2024 0c28 97000000 		call	_Z16kmem_cache_allocP12kmem_cache_s
 2024      E7800000 
 2025              	.LVL205:
 2026              	.L114:
 420:src/slabAllocator.cpp **** }
 2027              		.loc 1 420 1
 2028 0c30 83308102 		ld	ra,40(sp)
 2029              		.cfi_remember_state
 2030              		.cfi_restore 1
 2031 0c34 03340102 		ld	s0,32(sp)
 2032              		.cfi_restore 8
 2033              		.cfi_def_cfa 2, 48
 2034 0c38 83348101 		ld	s1,24(sp)
 2035              		.cfi_restore 9
 2036 0c3c 03390101 		ld	s2,16(sp)
 2037              		.cfi_restore 18
 2038 0c40 83398100 		ld	s3,8(sp)
 2039              		.cfi_restore 19
 2040              	.LVL206:
 2041 0c44 033A0100 		ld	s4,0(sp)
 2042              		.cfi_restore 20
 2043 0c48 13010103 		addi	sp,sp,48
 2044              		.cfi_def_cfa_offset 0
 2045 0c4c 67800000 		jr	ra
 2046              	.LVL207:
 2047              	.L121:
 2048              		.cfi_restore_state
GAS LISTING /tmp/ccM4Qgn5.s 			page 49


 408:src/slabAllocator.cpp ****         slabAllocator->cachesBuffers[index]->slabs_empty = nullptr;
 2049              		.loc 1 408 9 is_stmt 1
 408:src/slabAllocator.cpp ****         slabAllocator->cachesBuffers[index]->slabs_empty = nullptr;
 2050              		.loc 1 408 78 is_stmt 0
 2051 0c50 13050907 		addi	a0,s2,112
 2052 0c54 97000000 		call	_Z16kmem_cache_allocP12kmem_cache_s
 2052      E7800000 
 2053              	.LVL208:
 408:src/slabAllocator.cpp ****         slabAllocator->cachesBuffers[index]->slabs_empty = nullptr;
 2054              		.loc 1 408 45
 2055 0c5c 139A3400 		slli	s4,s1,3
 2056 0c60 33094901 		add	s2,s2,s4
 2057 0c64 2334A900 		sd	a0,8(s2)
 409:src/slabAllocator.cpp ****         slabAllocator->cachesBuffers[index]->slabs_partial = nullptr;
 2058              		.loc 1 409 9 is_stmt 1
 409:src/slabAllocator.cpp ****         slabAllocator->cachesBuffers[index]->slabs_partial = nullptr;
 2059              		.loc 1 409 43 is_stmt 0
 2060 0c68 17090000 		lla	s2,.LANCHOR0
 2060      13090900 
 2061 0c70 83370900 		ld	a5,0(s2)
 2062 0c74 B3874701 		add	a5,a5,s4
 2063 0c78 03B78700 		ld	a4,8(a5)
 409:src/slabAllocator.cpp ****         slabAllocator->cachesBuffers[index]->slabs_partial = nullptr;
 2064              		.loc 1 409 58
 2065 0c7c 23300704 		sd	zero,64(a4)
 410:src/slabAllocator.cpp ****         slabAllocator->cachesBuffers[index]->slabs_full = nullptr;
 2066              		.loc 1 410 9 is_stmt 1
 410:src/slabAllocator.cpp ****         slabAllocator->cachesBuffers[index]->slabs_full = nullptr;
 2067              		.loc 1 410 43 is_stmt 0
 2068 0c80 03B78700 		ld	a4,8(a5)
 410:src/slabAllocator.cpp ****         slabAllocator->cachesBuffers[index]->slabs_full = nullptr;
 2069              		.loc 1 410 60
 2070 0c84 23380704 		sd	zero,80(a4)
 411:src/slabAllocator.cpp ****         slabAllocator->cachesBuffers[index]->dtor = nullptr;
 2071              		.loc 1 411 9 is_stmt 1
 411:src/slabAllocator.cpp ****         slabAllocator->cachesBuffers[index]->dtor = nullptr;
 2072              		.loc 1 411 43 is_stmt 0
 2073 0c88 03B78700 		ld	a4,8(a5)
 411:src/slabAllocator.cpp ****         slabAllocator->cachesBuffers[index]->dtor = nullptr;
 2074              		.loc 1 411 57
 2075 0c8c 23340704 		sd	zero,72(a4)
 412:src/slabAllocator.cpp ****         slabAllocator->cachesBuffers[index]->ctor = nullptr;
 2076              		.loc 1 412 9 is_stmt 1
 412:src/slabAllocator.cpp ****         slabAllocator->cachesBuffers[index]->ctor = nullptr;
 2077              		.loc 1 412 43 is_stmt 0
 2078 0c90 03B78700 		ld	a4,8(a5)
 412:src/slabAllocator.cpp ****         slabAllocator->cachesBuffers[index]->ctor = nullptr;
 2079              		.loc 1 412 51
 2080 0c94 23380706 		sd	zero,112(a4)
 413:src/slabAllocator.cpp ****         strcpy("Cache for small buffers", slabAllocator->cachesBuffers[index]->cacheName);
 2081              		.loc 1 413 9 is_stmt 1
 413:src/slabAllocator.cpp ****         strcpy("Cache for small buffers", slabAllocator->cachesBuffers[index]->cacheName);
 2082              		.loc 1 413 43 is_stmt 0
 2083 0c98 03B78700 		ld	a4,8(a5)
 413:src/slabAllocator.cpp ****         strcpy("Cache for small buffers", slabAllocator->cachesBuffers[index]->cacheName);
 2084              		.loc 1 413 51
 2085 0c9c 23340706 		sd	zero,104(a4)
GAS LISTING /tmp/ccM4Qgn5.s 			page 50


 414:src/slabAllocator.cpp ****         slabAllocator->cachesBuffers[index]->obj_size = size;
 2086              		.loc 1 414 9 is_stmt 1
 414:src/slabAllocator.cpp ****         slabAllocator->cachesBuffers[index]->obj_size = size;
 2087              		.loc 1 414 15 is_stmt 0
 2088 0ca0 83B58700 		ld	a1,8(a5)
 2089 0ca4 17050000 		lla	a0,.LC19
 2089      13050500 
 2090 0cac 97000000 		call	_Z6strcpyPKcPc
 2090      E7800000 
 2091              	.LVL209:
 415:src/slabAllocator.cpp ****         slabAllocator->cachesBuffers[index]->slab_size = getOptimalSlabSize(size);
 2092              		.loc 1 415 9 is_stmt 1
 415:src/slabAllocator.cpp ****         slabAllocator->cachesBuffers[index]->slab_size = getOptimalSlabSize(size);
 2093              		.loc 1 415 43 is_stmt 0
 2094 0cb4 83370900 		ld	a5,0(s2)
 2095 0cb8 B3874701 		add	a5,a5,s4
 2096 0cbc 03B78700 		ld	a4,8(a5)
 415:src/slabAllocator.cpp ****         slabAllocator->cachesBuffers[index]->slab_size = getOptimalSlabSize(size);
 2097              		.loc 1 415 55
 2098 0cc0 23303707 		sd	s3,96(a4)
 416:src/slabAllocator.cpp ****     }
 2099              		.loc 1 416 9 is_stmt 1
 416:src/slabAllocator.cpp ****     }
 2100              		.loc 1 416 43 is_stmt 0
 2101 0cc4 03B98700 		ld	s2,8(a5)
 416:src/slabAllocator.cpp ****     }
 2102              		.loc 1 416 76
 2103 0cc8 13850900 		mv	a0,s3
 2104 0ccc 97000000 		call	_Z18getOptimalSlabSizem
 2104      E7800000 
 2105              	.LVL210:
 416:src/slabAllocator.cpp ****     }
 2106              		.loc 1 416 56
 2107 0cd4 233CA904 		sd	a0,88(s2)
 2108 0cd8 6FF0DFF3 		j	.L117
 2109              		.cfi_endproc
 2110              	.LFE28:
 2112              		.align	2
 2113              		.globl	_Z5kfreePKv
 2115              	_Z5kfreePKv:
 2116              	.LFB29:
 421:src/slabAllocator.cpp **** 
 422:src/slabAllocator.cpp **** void kfree(const void *objp)
 423:src/slabAllocator.cpp **** {
 2117              		.loc 1 423 1 is_stmt 1
 2118              		.cfi_startproc
 2119              	.LVL211:
 424:src/slabAllocator.cpp ****     if(objp == nullptr)
 2120              		.loc 1 424 5
 2121 0cdc 63020508 		beqz	a0,.L127
 423:src/slabAllocator.cpp ****     if(objp == nullptr)
 2122              		.loc 1 423 1 is_stmt 0
 2123 0ce0 130101FE 		addi	sp,sp,-32
 2124              		.cfi_def_cfa_offset 32
 2125 0ce4 233C1100 		sd	ra,24(sp)
 2126 0ce8 23388100 		sd	s0,16(sp)
 2127 0cec 23349100 		sd	s1,8(sp)
GAS LISTING /tmp/ccM4Qgn5.s 			page 51


 2128 0cf0 23302101 		sd	s2,0(sp)
 2129              		.cfi_offset 1, -8
 2130              		.cfi_offset 8, -16
 2131              		.cfi_offset 9, -24
 2132              		.cfi_offset 18, -32
 2133 0cf4 13040102 		addi	s0,sp,32
 2134              		.cfi_def_cfa 8, 0
 2135 0cf8 13090500 		mv	s2,a0
 2136              	.LBB24:
 425:src/slabAllocator.cpp ****         return;
 426:src/slabAllocator.cpp ****     slab_t* slab = nullptr;
 427:src/slabAllocator.cpp ****     for(size_t i = 0;i < CACHE_BUFFER_SIZE;i++)
 2137              		.loc 1 427 16
 2138 0cfc 93040000 		li	s1,0
 2139              	.LBE24:
 426:src/slabAllocator.cpp ****     for(size_t i = 0;i < CACHE_BUFFER_SIZE;i++)
 2140              		.loc 1 426 13
 2141 0d00 13050000 		li	a0,0
 2142              	.LVL212:
 2143              	.L125:
 2144              	.LBB25:
 2145              		.loc 1 427 24 is_stmt 1 discriminator 1
 2146 0d04 9307C000 		li	a5,12
 2147 0d08 63E89702 		bgtu	s1,a5,.L124
 428:src/slabAllocator.cpp ****     {
 429:src/slabAllocator.cpp ****         slab = findSlab(slabAllocator->cachesBuffers[i], objp);
 2148              		.loc 1 429 9
 2149              		.loc 1 429 24 is_stmt 0
 2150 0d0c 93973400 		slli	a5,s1,3
 2151 0d10 17070000 		ld	a4,.LANCHOR0
 2151      03370700 
 2152 0d18 B307F700 		add	a5,a4,a5
 2153 0d1c 93050900 		mv	a1,s2
 2154 0d20 03B58700 		ld	a0,8(a5)
 2155              	.LVL213:
 2156 0d24 97000000 		call	_Z8findSlabP12kmem_cache_sPKv
 2156      E7800000 
 2157              	.LVL214:
 430:src/slabAllocator.cpp ****         if(slab != nullptr) break;
 2158              		.loc 1 430 9 is_stmt 1
 2159 0d2c 63160500 		bnez	a0,.L124
 427:src/slabAllocator.cpp ****     {
 2160              		.loc 1 427 5 discriminator 2
 2161 0d30 93841400 		addi	s1,s1,1
 2162              	.LVL215:
 2163 0d34 6FF01FFD 		j	.L125
 2164              	.L124:
 2165              	.LBE25:
 431:src/slabAllocator.cpp ****     }
 432:src/slabAllocator.cpp ****     if(slab != nullptr)
 2166              		.loc 1 432 5
 2167 0d38 63080500 		beqz	a0,.L122
 433:src/slabAllocator.cpp ****     {
 434:src/slabAllocator.cpp ****         free_slab_object(slab, objp);
 2168              		.loc 1 434 9
 2169              		.loc 1 434 25 is_stmt 0
 2170 0d3c 93050900 		mv	a1,s2
GAS LISTING /tmp/ccM4Qgn5.s 			page 52


 2171 0d40 97000000 		call	_Z16free_slab_objectP6slab_sPKv
 2171      E7800000 
 2172              	.LVL216:
 2173              	.L122:
 435:src/slabAllocator.cpp ****     }
 436:src/slabAllocator.cpp **** }
 2174              		.loc 1 436 1
 2175 0d48 83308101 		ld	ra,24(sp)
 2176              		.cfi_restore 1
 2177 0d4c 03340101 		ld	s0,16(sp)
 2178              		.cfi_restore 8
 2179              		.cfi_def_cfa 2, 32
 2180 0d50 83348100 		ld	s1,8(sp)
 2181              		.cfi_restore 9
 2182              	.LVL217:
 2183 0d54 03390100 		ld	s2,0(sp)
 2184              		.cfi_restore 18
 2185              	.LVL218:
 2186 0d58 13010102 		addi	sp,sp,32
 2187              		.cfi_def_cfa_offset 0
 2188 0d5c 67800000 		jr	ra
 2189              	.LVL219:
 2190              	.L127:
 2191 0d60 67800000 		ret
 2192              		.cfi_endproc
 2193              	.LFE29:
 2195              		.align	2
 2196              		.globl	_Z17destroy_slab_listP6slab_s
 2198              	_Z17destroy_slab_listP6slab_s:
 2199              	.LFB30:
 437:src/slabAllocator.cpp **** 
 438:src/slabAllocator.cpp **** int destroy_slab_list(slab_t* slab)
 439:src/slabAllocator.cpp **** {
 2200              		.loc 1 439 1 is_stmt 1
 2201              		.cfi_startproc
 2202              	.LVL220:
 2203 0d64 130101FD 		addi	sp,sp,-48
 2204              		.cfi_def_cfa_offset 48
 2205 0d68 23341102 		sd	ra,40(sp)
 2206 0d6c 23308102 		sd	s0,32(sp)
 2207 0d70 233C9100 		sd	s1,24(sp)
 2208 0d74 23382101 		sd	s2,16(sp)
 2209 0d78 23343101 		sd	s3,8(sp)
 2210              		.cfi_offset 1, -8
 2211              		.cfi_offset 8, -16
 2212              		.cfi_offset 9, -24
 2213              		.cfi_offset 18, -32
 2214              		.cfi_offset 19, -40
 2215 0d7c 13040103 		addi	s0,sp,48
 2216              		.cfi_def_cfa 8, 0
 440:src/slabAllocator.cpp ****     if(slab == nullptr) return 0;
 2217              		.loc 1 440 5
 2218 0d80 63000504 		beqz	a0,.L133
 2219 0d84 93050500 		mv	a1,a0
 441:src/slabAllocator.cpp ****     size_t sz = slab->owner->slab_size;
 2220              		.loc 1 441 5
 2221              		.loc 1 441 23 is_stmt 0
GAS LISTING /tmp/ccM4Qgn5.s 			page 53


 2222 0d88 83370501 		ld	a5,16(a0)
 2223              		.loc 1 441 12
 2224 0d8c 03B98705 		ld	s2,88(a5)
 2225              	.LVL221:
 442:src/slabAllocator.cpp ****     int totalBlocks = 0;
 2226              		.loc 1 442 5 is_stmt 1
 2227              		.loc 1 442 9 is_stmt 0
 2228 0d90 93040000 		li	s1,0
 2229              	.LVL222:
 2230              	.L132:
 443:src/slabAllocator.cpp ****     while(slab != nullptr)
 2231              		.loc 1 443 5 is_stmt 1
 2232              		.loc 1 443 16
 2233 0d94 63880502 		beqz	a1,.L131
 2234              	.LBB26:
 444:src/slabAllocator.cpp ****     {
 445:src/slabAllocator.cpp ****         slab_t* nextSlab = slab->next;
 2235              		.loc 1 445 9
 2236              		.loc 1 445 17 is_stmt 0
 2237 0d98 83B98500 		ld	s3,8(a1)
 2238              	.LVL223:
 446:src/slabAllocator.cpp ****         buddy_free(slabAllocator->buddy, slab, sz);
 2239              		.loc 1 446 9 is_stmt 1
 2240              		.loc 1 446 19 is_stmt 0
 2241 0d9c 13060900 		mv	a2,s2
 2242 0da0 97070000 		ld	a5,.LANCHOR0
 2242      83B70700 
 2243 0da8 03B50700 		ld	a0,0(a5)
 2244 0dac 97000000 		call	_Z10buddy_freeP14buddyAllocatorPvm@plt
 2244      E7800000 
 2245              	.LVL224:
 447:src/slabAllocator.cpp ****         slab = nextSlab;
 2246              		.loc 1 447 9 is_stmt 1
 448:src/slabAllocator.cpp ****         totalBlocks+=sz;
 2247              		.loc 1 448 9
 2248              		.loc 1 448 20 is_stmt 0
 2249 0db4 BB049900 		addw	s1,s2,s1
 2250              	.LVL225:
 447:src/slabAllocator.cpp ****         slab = nextSlab;
 2251              		.loc 1 447 14
 2252 0db8 93850900 		mv	a1,s3
 2253              	.LBE26:
 443:src/slabAllocator.cpp ****     {
 2254              		.loc 1 443 5
 2255 0dbc 6FF09FFD 		j	.L132
 2256              	.LVL226:
 2257              	.L133:
 440:src/slabAllocator.cpp ****     size_t sz = slab->owner->slab_size;
 2258              		.loc 1 440 32
 2259 0dc0 93040000 		li	s1,0
 2260              	.LVL227:
 2261              	.L131:
 449:src/slabAllocator.cpp ****     }
 450:src/slabAllocator.cpp ****     return totalBlocks;
 451:src/slabAllocator.cpp **** }
 2262              		.loc 1 451 1
 2263 0dc4 13850400 		mv	a0,s1
GAS LISTING /tmp/ccM4Qgn5.s 			page 54


 2264 0dc8 83308102 		ld	ra,40(sp)
 2265              		.cfi_restore 1
 2266 0dcc 03340102 		ld	s0,32(sp)
 2267              		.cfi_restore 8
 2268              		.cfi_def_cfa 2, 48
 2269 0dd0 83348101 		ld	s1,24(sp)
 2270              		.cfi_restore 9
 2271 0dd4 03390101 		ld	s2,16(sp)
 2272              		.cfi_restore 18
 2273 0dd8 83398100 		ld	s3,8(sp)
 2274              		.cfi_restore 19
 2275 0ddc 13010103 		addi	sp,sp,48
 2276              		.cfi_def_cfa_offset 0
 2277 0de0 67800000 		jr	ra
 2278              		.cfi_endproc
 2279              	.LFE30:
 2281              		.align	2
 2282              		.globl	_Z18kmem_cache_destroyP12kmem_cache_s
 2284              	_Z18kmem_cache_destroyP12kmem_cache_s:
 2285              	.LFB31:
 452:src/slabAllocator.cpp **** 
 453:src/slabAllocator.cpp **** void kmem_cache_destroy(kmem_cache_t *cachep)
 454:src/slabAllocator.cpp **** {
 2286              		.loc 1 454 1 is_stmt 1
 2287              		.cfi_startproc
 2288              	.LVL228:
 2289 0de4 130101FE 		addi	sp,sp,-32
 2290              		.cfi_def_cfa_offset 32
 2291 0de8 233C1100 		sd	ra,24(sp)
 2292 0dec 23388100 		sd	s0,16(sp)
 2293 0df0 23349100 		sd	s1,8(sp)
 2294              		.cfi_offset 1, -8
 2295              		.cfi_offset 8, -16
 2296              		.cfi_offset 9, -24
 2297 0df4 13040102 		addi	s0,sp,32
 2298              		.cfi_def_cfa 8, 0
 2299 0df8 93040500 		mv	s1,a0
 455:src/slabAllocator.cpp ****     destroy_slab_list(cachep->slabs_empty);
 2300              		.loc 1 455 5
 2301              		.loc 1 455 22 is_stmt 0
 2302 0dfc 03350504 		ld	a0,64(a0)
 2303              	.LVL229:
 2304 0e00 97000000 		call	_Z17destroy_slab_listP6slab_s
 2304      E7800000 
 2305              	.LVL230:
 456:src/slabAllocator.cpp ****     destroy_slab_list(cachep->slabs_partial);
 2306              		.loc 1 456 5 is_stmt 1
 2307              		.loc 1 456 22 is_stmt 0
 2308 0e08 03B50405 		ld	a0,80(s1)
 2309 0e0c 97000000 		call	_Z17destroy_slab_listP6slab_s
 2309      E7800000 
 2310              	.LVL231:
 457:src/slabAllocator.cpp ****     destroy_slab_list(cachep->slabs_full);
 2311              		.loc 1 457 5 is_stmt 1
 2312              		.loc 1 457 22 is_stmt 0
 2313 0e14 03B58404 		ld	a0,72(s1)
 2314 0e18 97000000 		call	_Z17destroy_slab_listP6slab_s
GAS LISTING /tmp/ccM4Qgn5.s 			page 55


 2314      E7800000 
 2315              	.LVL232:
 458:src/slabAllocator.cpp ****     kmem_cache_free(&slabAllocator->cacheOfCaches,cachep);
 2316              		.loc 1 458 5 is_stmt 1
 2317              		.loc 1 458 20 is_stmt 0
 2318 0e20 93850400 		mv	a1,s1
 2319 0e24 17050000 		ld	a0,.LANCHOR0
 2319      03350500 
 2320 0e2c 13050507 		addi	a0,a0,112
 2321 0e30 97000000 		call	_Z15kmem_cache_freeP12kmem_cache_sPv
 2321      E7800000 
 2322              	.LVL233:
 459:src/slabAllocator.cpp **** }
 2323              		.loc 1 459 1
 2324 0e38 83308101 		ld	ra,24(sp)
 2325              		.cfi_restore 1
 2326 0e3c 03340101 		ld	s0,16(sp)
 2327              		.cfi_restore 8
 2328              		.cfi_def_cfa 2, 32
 2329 0e40 83348100 		ld	s1,8(sp)
 2330              		.cfi_restore 9
 2331              	.LVL234:
 2332 0e44 13010102 		addi	sp,sp,32
 2333              		.cfi_def_cfa_offset 0
 2334 0e48 67800000 		jr	ra
 2335              		.cfi_endproc
 2336              	.LFE31:
 2338              		.align	2
 2339              		.globl	_Z17kmem_cache_shrinkP12kmem_cache_s
 2341              	_Z17kmem_cache_shrinkP12kmem_cache_s:
 2342              	.LFB32:
 460:src/slabAllocator.cpp **** 
 461:src/slabAllocator.cpp **** int kmem_cache_shrink(kmem_cache_t *cachep)
 462:src/slabAllocator.cpp **** {
 2343              		.loc 1 462 1 is_stmt 1
 2344              		.cfi_startproc
 2345              	.LVL235:
 463:src/slabAllocator.cpp ****     if(cachep == nullptr)
 2346              		.loc 1 463 5
 2347 0e4c 63000504 		beqz	a0,.L139
 462:src/slabAllocator.cpp ****     if(cachep == nullptr)
 2348              		.loc 1 462 1 is_stmt 0
 2349 0e50 130101FE 		addi	sp,sp,-32
 2350              		.cfi_def_cfa_offset 32
 2351 0e54 233C1100 		sd	ra,24(sp)
 2352 0e58 23388100 		sd	s0,16(sp)
 2353 0e5c 23349100 		sd	s1,8(sp)
 2354              		.cfi_offset 1, -8
 2355              		.cfi_offset 8, -16
 2356              		.cfi_offset 9, -24
 2357 0e60 13040102 		addi	s0,sp,32
 2358              		.cfi_def_cfa 8, 0
 2359 0e64 93040500 		mv	s1,a0
 464:src/slabAllocator.cpp ****         return 0;
 465:src/slabAllocator.cpp ****     int totalBlocks = destroy_slab_list(cachep->slabs_empty);
 2360              		.loc 1 465 5 is_stmt 1
 2361              		.loc 1 465 40 is_stmt 0
GAS LISTING /tmp/ccM4Qgn5.s 			page 56


 2362 0e68 03350504 		ld	a0,64(a0)
 2363              	.LVL236:
 2364 0e6c 97000000 		call	_Z17destroy_slab_listP6slab_s
 2364      E7800000 
 2365              	.LVL237:
 466:src/slabAllocator.cpp ****     cachep->slabs_empty = nullptr;
 2366              		.loc 1 466 5 is_stmt 1
 2367              		.loc 1 466 25 is_stmt 0
 2368 0e74 23B00404 		sd	zero,64(s1)
 467:src/slabAllocator.cpp ****     return totalBlocks;
 2369              		.loc 1 467 5 is_stmt 1
 468:src/slabAllocator.cpp **** }...
 2370              		.loc 1 468 1 is_stmt 0
 2371 0e78 83308101 		ld	ra,24(sp)
 2372              		.cfi_restore 1
 2373 0e7c 03340101 		ld	s0,16(sp)
 2374              		.cfi_restore 8
 2375              		.cfi_def_cfa 2, 32
 2376 0e80 83348100 		ld	s1,8(sp)
 2377              		.cfi_restore 9
 2378              	.LVL238:
 2379 0e84 13010102 		addi	sp,sp,32
 2380              		.cfi_def_cfa_offset 0
 2381 0e88 67800000 		jr	ra
 2382              	.LVL239:
 2383              	.L139:
 464:src/slabAllocator.cpp ****         return 0;
 2384              		.loc 1 464 16
 2385 0e8c 13050000 		li	a0,0
 2386              	.LVL240:
 2387              		.loc 1 468 1
 2388 0e90 67800000 		ret
 2389              		.cfi_endproc
 2390              	.LFE32:
 2392              		.bss
 2393              		.align	3
 2394              		.set	.LANCHOR0,. + 0
 2397              	_ZL13slabAllocator:
 2398 0000 00000000 		.zero	8
 2398      00000000 
 2399              		.text
 2400              	.Letext0:
 2401              		.file 2 "src/../h/../lib/hw.h"
 2402              		.file 3 "src/../h/slabAllocator.hpp"
 2403              		.file 4 "src/../h/buddyAllocator.hpp"
 2404              		.file 5 "src/../h/PCB.hpp"
 2405              		.file 6 "src/../h/KSemaphore.hpp"
 2406              		.file 7 "src/../h/KConsole.hpp"
GAS LISTING /tmp/ccM4Qgn5.s 			page 57


DEFINED SYMBOLS
                            *ABS*:0000000000000000 slabAllocator.cpp
     /tmp/ccM4Qgn5.s:9      .text:0000000000000000 _Z6strcpyPKcPc
     /tmp/ccM4Qgn5.s:13     .text:0000000000000000 .L0 
     /tmp/ccM4Qgn5.s:15     .text:0000000000000000 .L0 
     /tmp/ccM4Qgn5.s:16     .text:0000000000000004 .L0 
     /tmp/ccM4Qgn5.s:18     .text:0000000000000008 .L0 
     /tmp/ccM4Qgn5.s:20     .text:000000000000000c .L0 
     /tmp/ccM4Qgn5.s:23     .text:000000000000000c .L0 
     /tmp/ccM4Qgn5.s:24     .text:000000000000000c .L0 
     /tmp/ccM4Qgn5.s:25     .text:000000000000000c .L0 
     /tmp/ccM4Qgn5.s:27     .text:0000000000000010 .L0 
     /tmp/ccM4Qgn5.s:29     .text:0000000000000014 .L0 
     /tmp/ccM4Qgn5.s:30     .text:0000000000000014 .L0 
     /tmp/ccM4Qgn5.s:32     .text:0000000000000018 .L0 
     /tmp/ccM4Qgn5.s:33     .text:0000000000000018 .L0 
     /tmp/ccM4Qgn5.s:36     .text:000000000000001c .L0 
     /tmp/ccM4Qgn5.s:37     .text:000000000000001c .L0 
     /tmp/ccM4Qgn5.s:40     .text:0000000000000020 .L0 
     /tmp/ccM4Qgn5.s:43     .text:0000000000000024 .L0 
     /tmp/ccM4Qgn5.s:44     .text:0000000000000024 .L0 
     /tmp/ccM4Qgn5.s:46     .text:0000000000000028 .L0 
     /tmp/ccM4Qgn5.s:47     .text:000000000000002c .L0 
     /tmp/ccM4Qgn5.s:48     .text:000000000000002c .L0 
     /tmp/ccM4Qgn5.s:50     .text:0000000000000030 .L0 
     /tmp/ccM4Qgn5.s:52     .text:0000000000000034 .L0 
     /tmp/ccM4Qgn5.s:63     .text:0000000000000034 _Z19slab_allocator_initP14buddyAllocator
     /tmp/ccM4Qgn5.s:66     .text:0000000000000034 .L0 
     /tmp/ccM4Qgn5.s:68     .text:0000000000000034 .L0 
     /tmp/ccM4Qgn5.s:69     .text:0000000000000038 .L0 
     /tmp/ccM4Qgn5.s:74     .text:0000000000000048 .L0 
     /tmp/ccM4Qgn5.s:75     .text:0000000000000048 .L0 
     /tmp/ccM4Qgn5.s:76     .text:0000000000000048 .L0 
     /tmp/ccM4Qgn5.s:77     .text:0000000000000048 .L0 
     /tmp/ccM4Qgn5.s:79     .text:000000000000004c .L0 
     /tmp/ccM4Qgn5.s:82     .text:0000000000000050 .L0 
     /tmp/ccM4Qgn5.s:83     .text:0000000000000050 .L0 
     /tmp/ccM4Qgn5.s:86     .text:0000000000000054 .L0 
     /tmp/ccM4Qgn5.s:87     .text:0000000000000054 .L0 
     /tmp/ccM4Qgn5.s:91     .text:0000000000000058 .L0 
     /tmp/ccM4Qgn5.s:92     .text:0000000000000058 .L0 
     /tmp/ccM4Qgn5.s:97     .text:0000000000000060 .L0 
     /tmp/ccM4Qgn5.s:98     .text:0000000000000060 .L0 
     /tmp/ccM4Qgn5.s:102    .text:000000000000006c .L0 
     /tmp/ccM4Qgn5.s:106    .text:0000000000000070 .L0 
     /tmp/ccM4Qgn5.s:110    .text:0000000000000078 .L0 
     /tmp/ccM4Qgn5.s:111    .text:0000000000000078 .L0 
     /tmp/ccM4Qgn5.s:116    .text:000000000000008c .L0 
     /tmp/ccM4Qgn5.s:117    .text:000000000000008c .L0 
     /tmp/ccM4Qgn5.s:119    .text:0000000000000090 .L0 
     /tmp/ccM4Qgn5.s:120    .text:0000000000000090 .L0 
     /tmp/ccM4Qgn5.s:122    .text:0000000000000094 .L0 
     /tmp/ccM4Qgn5.s:123    .text:0000000000000094 .L0 
     /tmp/ccM4Qgn5.s:125    .text:0000000000000098 .L0 
     /tmp/ccM4Qgn5.s:126    .text:0000000000000098 .L0 
     /tmp/ccM4Qgn5.s:128    .text:000000000000009c .L0 
     /tmp/ccM4Qgn5.s:129    .text:000000000000009c .L0 
GAS LISTING /tmp/ccM4Qgn5.s 			page 58


     /tmp/ccM4Qgn5.s:131    .text:00000000000000a0 .L0 
     /tmp/ccM4Qgn5.s:132    .text:00000000000000a0 .L0 
     /tmp/ccM4Qgn5.s:135    .text:00000000000000a8 .L0 
     /tmp/ccM4Qgn5.s:136    .text:00000000000000a8 .L0 
     /tmp/ccM4Qgn5.s:139    .text:00000000000000b0 .L0 
     /tmp/ccM4Qgn5.s:140    .text:00000000000000b0 .L0 
     /tmp/ccM4Qgn5.s:142    .text:00000000000000b8 .L0 
     /tmp/ccM4Qgn5.s:144    .text:00000000000000bc .L0 
     /tmp/ccM4Qgn5.s:145    .text:00000000000000bc .L0 
     /tmp/ccM4Qgn5.s:147    .text:00000000000000c0 .L0 
     /tmp/ccM4Qgn5.s:150    .text:00000000000000c4 .L0 
     /tmp/ccM4Qgn5.s:153    .text:00000000000000c8 .L0 
     /tmp/ccM4Qgn5.s:155    .text:00000000000000cc .L0 
     /tmp/ccM4Qgn5.s:161    .text:00000000000000cc _Z14allocateObjectP6slab_s
     /tmp/ccM4Qgn5.s:164    .text:00000000000000cc .L0 
     /tmp/ccM4Qgn5.s:166    .text:00000000000000cc .L0 
     /tmp/ccM4Qgn5.s:167    .text:00000000000000d0 .L0 
     /tmp/ccM4Qgn5.s:169    .text:00000000000000d4 .L0 
     /tmp/ccM4Qgn5.s:171    .text:00000000000000d8 .L0 
     /tmp/ccM4Qgn5.s:175    .text:00000000000000dc .L0 
     /tmp/ccM4Qgn5.s:176    .text:00000000000000dc .L0 
     /tmp/ccM4Qgn5.s:178    .text:00000000000000dc .L0 
     /tmp/ccM4Qgn5.s:179    .text:00000000000000dc .L0 
     /tmp/ccM4Qgn5.s:183    .text:00000000000000e0 .L0 
     /tmp/ccM4Qgn5.s:184    .text:00000000000000e0 .L0 
     /tmp/ccM4Qgn5.s:186    .text:00000000000000e4 .L0 
     /tmp/ccM4Qgn5.s:189    .text:00000000000000e8 .L0 
     /tmp/ccM4Qgn5.s:190    .text:00000000000000e8 .L0 
     /tmp/ccM4Qgn5.s:192    .text:00000000000000ec .L0 
     /tmp/ccM4Qgn5.s:196    .text:00000000000000f4 .L0 
     /tmp/ccM4Qgn5.s:197    .text:00000000000000f4 .L0 
     /tmp/ccM4Qgn5.s:199    .text:00000000000000f8 .L0 
     /tmp/ccM4Qgn5.s:202    .text:0000000000000100 .L0 
     /tmp/ccM4Qgn5.s:204    .text:0000000000000104 .L0 
     /tmp/ccM4Qgn5.s:207    .text:0000000000000108 .L0 
     /tmp/ccM4Qgn5.s:213    .text:0000000000000110 .L0 
     /tmp/ccM4Qgn5.s:214    .text:0000000000000110 .L0 
     /tmp/ccM4Qgn5.s:216    .text:0000000000000114 .L0 
     /tmp/ccM4Qgn5.s:219    .text:0000000000000118 .L0 
     /tmp/ccM4Qgn5.s:221    .text:000000000000011c .L0 
     /tmp/ccM4Qgn5.s:225    .text:0000000000000124 .L0 
     /tmp/ccM4Qgn5.s:226    .text:0000000000000124 .L0 
     /tmp/ccM4Qgn5.s:229    .text:0000000000000128 .L0 
     /tmp/ccM4Qgn5.s:235    .text:000000000000012c .L0 
     /tmp/ccM4Qgn5.s:238    .text:0000000000000130 .L0 
     /tmp/ccM4Qgn5.s:242    .text:0000000000000134 .L0 
     /tmp/ccM4Qgn5.s:244    .text:0000000000000138 .L0 
     /tmp/ccM4Qgn5.s:245    .text:0000000000000138 .L0 
     /tmp/ccM4Qgn5.s:251    .text:0000000000000148 .L0 
     /tmp/ccM4Qgn5.s:253    .text:000000000000014c .L0 
     /tmp/ccM4Qgn5.s:255    .text:0000000000000150 .L0 
     /tmp/ccM4Qgn5.s:258    .text:0000000000000158 .L0 
     /tmp/ccM4Qgn5.s:261    .text:0000000000000160 .L0 
     /tmp/ccM4Qgn5.s:263    .text:0000000000000164 .L0 
     /tmp/ccM4Qgn5.s:265    .text:0000000000000168 .L0 
     /tmp/ccM4Qgn5.s:266    .text:0000000000000168 .L0 
     /tmp/ccM4Qgn5.s:268    .text:000000000000016c .L0 
GAS LISTING /tmp/ccM4Qgn5.s 			page 59


     /tmp/ccM4Qgn5.s:272    .text:0000000000000174 .L0 
     /tmp/ccM4Qgn5.s:273    .text:0000000000000174 .L0 
     /tmp/ccM4Qgn5.s:274    .text:0000000000000178 .L0 
     /tmp/ccM4Qgn5.s:275    .text:0000000000000178 .L0 
     /tmp/ccM4Qgn5.s:277    .text:000000000000017c .L0 
     /tmp/ccM4Qgn5.s:279    .text:0000000000000180 .L0 
     /tmp/ccM4Qgn5.s:285    .text:0000000000000180 _Z4fullP6slab_s
     /tmp/ccM4Qgn5.s:288    .text:0000000000000180 .L0 
     /tmp/ccM4Qgn5.s:290    .text:0000000000000180 .L0 
     /tmp/ccM4Qgn5.s:291    .text:0000000000000184 .L0 
     /tmp/ccM4Qgn5.s:293    .text:0000000000000188 .L0 
     /tmp/ccM4Qgn5.s:295    .text:000000000000018c .L0 
     /tmp/ccM4Qgn5.s:297    .text:000000000000018c .L0 
     /tmp/ccM4Qgn5.s:298    .text:000000000000018c .L0 
     /tmp/ccM4Qgn5.s:300    .text:0000000000000190 .L0 
     /tmp/ccM4Qgn5.s:304    .text:0000000000000198 .L0 
     /tmp/ccM4Qgn5.s:306    .text:00000000000001a0 .L0 
     /tmp/ccM4Qgn5.s:307    .text:00000000000001a0 .L0 
     /tmp/ccM4Qgn5.s:309    .text:00000000000001a4 .L0 
     /tmp/ccM4Qgn5.s:311    .text:00000000000001a8 .L0 
     /tmp/ccM4Qgn5.s:317    .text:00000000000001a8 _Z5emptyP6slab_s
     /tmp/ccM4Qgn5.s:320    .text:00000000000001a8 .L0 
     /tmp/ccM4Qgn5.s:322    .text:00000000000001a8 .L0 
     /tmp/ccM4Qgn5.s:323    .text:00000000000001ac .L0 
     /tmp/ccM4Qgn5.s:325    .text:00000000000001b0 .L0 
     /tmp/ccM4Qgn5.s:327    .text:00000000000001b4 .L0 
     /tmp/ccM4Qgn5.s:329    .text:00000000000001b4 .L0 
     /tmp/ccM4Qgn5.s:330    .text:00000000000001b4 .L0 
     /tmp/ccM4Qgn5.s:333    .text:00000000000001b8 .L0 
     /tmp/ccM4Qgn5.s:335    .text:00000000000001c0 .L0 
     /tmp/ccM4Qgn5.s:336    .text:00000000000001c0 .L0 
     /tmp/ccM4Qgn5.s:338    .text:00000000000001c4 .L0 
     /tmp/ccM4Qgn5.s:340    .text:00000000000001c8 .L0 
     /tmp/ccM4Qgn5.s:346    .text:00000000000001c8 _Z18insertIntoSlabListP6slab_sPS0_
     /tmp/ccM4Qgn5.s:349    .text:00000000000001c8 .L0 
     /tmp/ccM4Qgn5.s:351    .text:00000000000001c8 .L0 
     /tmp/ccM4Qgn5.s:352    .text:00000000000001cc .L0 
     /tmp/ccM4Qgn5.s:354    .text:00000000000001d0 .L0 
     /tmp/ccM4Qgn5.s:356    .text:00000000000001d4 .L0 
     /tmp/ccM4Qgn5.s:358    .text:00000000000001d4 .L0 
     /tmp/ccM4Qgn5.s:359    .text:00000000000001d4 .L0 
     /tmp/ccM4Qgn5.s:361    .text:00000000000001d8 .L0 
     /tmp/ccM4Qgn5.s:362    .text:00000000000001d8 .L0 
     /tmp/ccM4Qgn5.s:364    .text:00000000000001dc .L0 
     /tmp/ccM4Qgn5.s:366    .text:00000000000001e0 .L0 
     /tmp/ccM4Qgn5.s:368    .text:00000000000001e4 .L0 
     /tmp/ccM4Qgn5.s:369    .text:00000000000001e4 .L0 
     /tmp/ccM4Qgn5.s:372    .text:00000000000001e8 .L0 
     /tmp/ccM4Qgn5.s:373    .text:00000000000001e8 .L0 
     /tmp/ccM4Qgn5.s:375    .text:00000000000001ec .L0 
     /tmp/ccM4Qgn5.s:376    .text:00000000000001f0 .L0 
     /tmp/ccM4Qgn5.s:377    .text:00000000000001f0 .L0 
     /tmp/ccM4Qgn5.s:379    .text:00000000000001f4 .L0 
     /tmp/ccM4Qgn5.s:381    .text:00000000000001f8 .L0 
     /tmp/ccM4Qgn5.s:387    .text:00000000000001f8 _Z18removeFromSlabListP6slab_sPS0_
     /tmp/ccM4Qgn5.s:390    .text:00000000000001f8 .L0 
     /tmp/ccM4Qgn5.s:392    .text:00000000000001f8 .L0 
GAS LISTING /tmp/ccM4Qgn5.s 			page 60


     /tmp/ccM4Qgn5.s:393    .text:00000000000001fc .L0 
     /tmp/ccM4Qgn5.s:395    .text:0000000000000200 .L0 
     /tmp/ccM4Qgn5.s:397    .text:0000000000000204 .L0 
     /tmp/ccM4Qgn5.s:399    .text:0000000000000204 .L0 
     /tmp/ccM4Qgn5.s:400    .text:0000000000000204 .L0 
     /tmp/ccM4Qgn5.s:402    .text:0000000000000208 .L0 
     /tmp/ccM4Qgn5.s:404    .text:000000000000020c .L0 
     /tmp/ccM4Qgn5.s:405    .text:000000000000020c .L0 
     /tmp/ccM4Qgn5.s:407    .text:0000000000000210 .L0 
     /tmp/ccM4Qgn5.s:409    .text:0000000000000214 .L0 
     /tmp/ccM4Qgn5.s:411    .text:0000000000000218 .L0 
     /tmp/ccM4Qgn5.s:412    .text:0000000000000218 .L0 
     /tmp/ccM4Qgn5.s:414    .text:000000000000021c .L0 
     /tmp/ccM4Qgn5.s:417    .text:0000000000000220 .L0 
     /tmp/ccM4Qgn5.s:418    .text:0000000000000220 .L0 
     /tmp/ccM4Qgn5.s:420    .text:0000000000000224 .L0 
     /tmp/ccM4Qgn5.s:423    .text:0000000000000228 .L0 
     /tmp/ccM4Qgn5.s:424    .text:000000000000022c .L0 
     /tmp/ccM4Qgn5.s:425    .text:000000000000022c .L0 
     /tmp/ccM4Qgn5.s:426    .text:000000000000022c .L0 
     /tmp/ccM4Qgn5.s:428    .text:0000000000000230 .L0 
     /tmp/ccM4Qgn5.s:431    .text:0000000000000234 .L0 
     /tmp/ccM4Qgn5.s:433    .text:0000000000000234 .L0 
     /tmp/ccM4Qgn5.s:434    .text:0000000000000234 .L0 
     /tmp/ccM4Qgn5.s:436    .text:0000000000000238 .L0 
     /tmp/ccM4Qgn5.s:438    .text:000000000000023c .L0 
     /tmp/ccM4Qgn5.s:439    .text:000000000000023c .L0 
     /tmp/ccM4Qgn5.s:442    .text:0000000000000240 .L0 
     /tmp/ccM4Qgn5.s:443    .text:0000000000000240 .L0 
     /tmp/ccM4Qgn5.s:445    .text:0000000000000244 .L0 
     /tmp/ccM4Qgn5.s:447    .text:0000000000000248 .L0 
     /tmp/ccM4Qgn5.s:448    .text:0000000000000248 .L0 
     /tmp/ccM4Qgn5.s:450    .text:000000000000024c .L0 
     /tmp/ccM4Qgn5.s:452    .text:0000000000000254 .L0 
     /tmp/ccM4Qgn5.s:458    .text:0000000000000254 _Z16putPartialToFullP12kmem_cache_s
     /tmp/ccM4Qgn5.s:461    .text:0000000000000254 .L0 
     /tmp/ccM4Qgn5.s:463    .text:0000000000000254 .L0 
     /tmp/ccM4Qgn5.s:464    .text:0000000000000258 .L0 
     /tmp/ccM4Qgn5.s:469    .text:0000000000000268 .L0 
     /tmp/ccM4Qgn5.s:470    .text:0000000000000268 .L0 
     /tmp/ccM4Qgn5.s:471    .text:0000000000000268 .L0 
     /tmp/ccM4Qgn5.s:472    .text:0000000000000268 .L0 
     /tmp/ccM4Qgn5.s:474    .text:000000000000026c .L0 
     /tmp/ccM4Qgn5.s:477    .text:0000000000000270 .L0 
     /tmp/ccM4Qgn5.s:478    .text:0000000000000270 .L0 
     /tmp/ccM4Qgn5.s:481    .text:0000000000000274 .L0 
     /tmp/ccM4Qgn5.s:482    .text:0000000000000274 .L0 
     /tmp/ccM4Qgn5.s:488    .text:0000000000000284 .L0 
     /tmp/ccM4Qgn5.s:489    .text:0000000000000284 .L0 
     /tmp/ccM4Qgn5.s:494    .text:0000000000000294 .L0 
     /tmp/ccM4Qgn5.s:495    .text:0000000000000298 .L0 
     /tmp/ccM4Qgn5.s:497    .text:000000000000029c .L0 
     /tmp/ccM4Qgn5.s:498    .text:000000000000029c .L0 
     /tmp/ccM4Qgn5.s:500    .text:00000000000002a0 .L0 
     /tmp/ccM4Qgn5.s:503    .text:00000000000002a4 .L0 
     /tmp/ccM4Qgn5.s:506    .text:00000000000002a8 .L0 
     /tmp/ccM4Qgn5.s:508    .text:00000000000002ac .L0 
GAS LISTING /tmp/ccM4Qgn5.s 			page 61


     /tmp/ccM4Qgn5.s:514    .text:00000000000002ac _Z17putEmptyToPartialP12kmem_cache_s
     /tmp/ccM4Qgn5.s:517    .text:00000000000002ac .L0 
     /tmp/ccM4Qgn5.s:519    .text:00000000000002ac .L0 
     /tmp/ccM4Qgn5.s:520    .text:00000000000002b0 .L0 
     /tmp/ccM4Qgn5.s:525    .text:00000000000002c0 .L0 
     /tmp/ccM4Qgn5.s:526    .text:00000000000002c0 .L0 
     /tmp/ccM4Qgn5.s:527    .text:00000000000002c0 .L0 
     /tmp/ccM4Qgn5.s:528    .text:00000000000002c0 .L0 
     /tmp/ccM4Qgn5.s:530    .text:00000000000002c4 .L0 
     /tmp/ccM4Qgn5.s:533    .text:00000000000002c8 .L0 
     /tmp/ccM4Qgn5.s:534    .text:00000000000002c8 .L0 
     /tmp/ccM4Qgn5.s:537    .text:00000000000002cc .L0 
     /tmp/ccM4Qgn5.s:538    .text:00000000000002cc .L0 
     /tmp/ccM4Qgn5.s:544    .text:00000000000002dc .L0 
     /tmp/ccM4Qgn5.s:545    .text:00000000000002dc .L0 
     /tmp/ccM4Qgn5.s:550    .text:00000000000002ec .L0 
     /tmp/ccM4Qgn5.s:551    .text:00000000000002f0 .L0 
     /tmp/ccM4Qgn5.s:553    .text:00000000000002f4 .L0 
     /tmp/ccM4Qgn5.s:554    .text:00000000000002f4 .L0 
     /tmp/ccM4Qgn5.s:556    .text:00000000000002f8 .L0 
     /tmp/ccM4Qgn5.s:559    .text:00000000000002fc .L0 
     /tmp/ccM4Qgn5.s:562    .text:0000000000000300 .L0 
     /tmp/ccM4Qgn5.s:564    .text:0000000000000304 .L0 
     /tmp/ccM4Qgn5.s:570    .text:0000000000000304 _Z14removeFullSlabP12kmem_cache_sP6slab_s
     /tmp/ccM4Qgn5.s:573    .text:0000000000000304 .L0 
     /tmp/ccM4Qgn5.s:575    .text:0000000000000304 .L0 
     /tmp/ccM4Qgn5.s:576    .text:0000000000000308 .L0 
     /tmp/ccM4Qgn5.s:581    .text:0000000000000318 .L0 
     /tmp/ccM4Qgn5.s:582    .text:0000000000000318 .L0 
     /tmp/ccM4Qgn5.s:583    .text:0000000000000318 .L0 
     /tmp/ccM4Qgn5.s:584    .text:0000000000000318 .L0 
     /tmp/ccM4Qgn5.s:586    .text:000000000000031c .L0 
     /tmp/ccM4Qgn5.s:590    .text:0000000000000324 .L0 
     /tmp/ccM4Qgn5.s:591    .text:0000000000000324 .L0 
     /tmp/ccM4Qgn5.s:598    .text:0000000000000334 .L0 
     /tmp/ccM4Qgn5.s:599    .text:0000000000000334 .L0 
     /tmp/ccM4Qgn5.s:604    .text:0000000000000344 .L0 
     /tmp/ccM4Qgn5.s:605    .text:0000000000000348 .L0 
     /tmp/ccM4Qgn5.s:607    .text:000000000000034c .L0 
     /tmp/ccM4Qgn5.s:608    .text:000000000000034c .L0 
     /tmp/ccM4Qgn5.s:610    .text:0000000000000350 .L0 
     /tmp/ccM4Qgn5.s:613    .text:0000000000000354 .L0 
     /tmp/ccM4Qgn5.s:616    .text:0000000000000358 .L0 
     /tmp/ccM4Qgn5.s:618    .text:000000000000035c .L0 
     /tmp/ccM4Qgn5.s:624    .text:000000000000035c _Z17removePartialSlabP12kmem_cache_sP6slab_s
     /tmp/ccM4Qgn5.s:627    .text:000000000000035c .L0 
     /tmp/ccM4Qgn5.s:629    .text:000000000000035c .L0 
     /tmp/ccM4Qgn5.s:630    .text:0000000000000360 .L0 
     /tmp/ccM4Qgn5.s:635    .text:0000000000000370 .L0 
     /tmp/ccM4Qgn5.s:636    .text:0000000000000370 .L0 
     /tmp/ccM4Qgn5.s:637    .text:0000000000000370 .L0 
     /tmp/ccM4Qgn5.s:638    .text:0000000000000370 .L0 
     /tmp/ccM4Qgn5.s:640    .text:0000000000000374 .L0 
     /tmp/ccM4Qgn5.s:644    .text:000000000000037c .L0 
     /tmp/ccM4Qgn5.s:645    .text:000000000000037c .L0 
     /tmp/ccM4Qgn5.s:652    .text:000000000000038c .L0 
     /tmp/ccM4Qgn5.s:653    .text:000000000000038c .L0 
GAS LISTING /tmp/ccM4Qgn5.s 			page 62


     /tmp/ccM4Qgn5.s:658    .text:000000000000039c .L0 
     /tmp/ccM4Qgn5.s:659    .text:00000000000003a0 .L0 
     /tmp/ccM4Qgn5.s:661    .text:00000000000003a4 .L0 
     /tmp/ccM4Qgn5.s:662    .text:00000000000003a4 .L0 
     /tmp/ccM4Qgn5.s:664    .text:00000000000003a8 .L0 
     /tmp/ccM4Qgn5.s:667    .text:00000000000003ac .L0 
     /tmp/ccM4Qgn5.s:670    .text:00000000000003b0 .L0 
     /tmp/ccM4Qgn5.s:672    .text:00000000000003b4 .L0 
     /tmp/ccM4Qgn5.s:678    .text:00000000000003b4 _Z12allocateSlabP12kmem_cache_s
     /tmp/ccM4Qgn5.s:681    .text:00000000000003b4 .L0 
     /tmp/ccM4Qgn5.s:683    .text:00000000000003b4 .L0 
     /tmp/ccM4Qgn5.s:684    .text:00000000000003b8 .L0 
     /tmp/ccM4Qgn5.s:688    .text:00000000000003c4 .L0 
     /tmp/ccM4Qgn5.s:689    .text:00000000000003c4 .L0 
     /tmp/ccM4Qgn5.s:690    .text:00000000000003c4 .L0 
     /tmp/ccM4Qgn5.s:692    .text:00000000000003c8 .L0 
     /tmp/ccM4Qgn5.s:695    .text:00000000000003cc .L0 
     /tmp/ccM4Qgn5.s:696    .text:00000000000003cc .L0 
     /tmp/ccM4Qgn5.s:703    .text:00000000000003e4 .L0 
     /tmp/ccM4Qgn5.s:704    .text:00000000000003e4 .L0 
     /tmp/ccM4Qgn5.s:706    .text:00000000000003e8 .L0 
     /tmp/ccM4Qgn5.s:708    .text:00000000000003ec .L0 
     /tmp/ccM4Qgn5.s:710    .text:00000000000003f0 .L0 
     /tmp/ccM4Qgn5.s:711    .text:00000000000003f0 .L0 
     /tmp/ccM4Qgn5.s:714    .text:00000000000003f4 .L0 
     /tmp/ccM4Qgn5.s:715    .text:00000000000003f4 .L0 
     /tmp/ccM4Qgn5.s:717    .text:00000000000003f8 .L0 
     /tmp/ccM4Qgn5.s:718    .text:00000000000003f8 .L0 
     /tmp/ccM4Qgn5.s:720    .text:00000000000003fc .L0 
     /tmp/ccM4Qgn5.s:721    .text:00000000000003fc .L0 
     /tmp/ccM4Qgn5.s:723    .text:0000000000000400 .L0 
     /tmp/ccM4Qgn5.s:724    .text:0000000000000400 .L0 
     /tmp/ccM4Qgn5.s:726    .text:0000000000000404 .L0 
     /tmp/ccM4Qgn5.s:727    .text:0000000000000404 .L0 
     /tmp/ccM4Qgn5.s:729    .text:0000000000000408 .L0 
     /tmp/ccM4Qgn5.s:732    .text:000000000000040c .L0 
     /tmp/ccM4Qgn5.s:733    .text:000000000000040c .L0 
     /tmp/ccM4Qgn5.s:736    .text:0000000000000410 .L0 
     /tmp/ccM4Qgn5.s:738    .text:0000000000000414 .L0 
     /tmp/ccM4Qgn5.s:741    .text:0000000000000418 .L0 
     /tmp/ccM4Qgn5.s:745    .text:000000000000041c .L0 
     /tmp/ccM4Qgn5.s:746    .text:000000000000041c .L0 
     /tmp/ccM4Qgn5.s:750    .text:0000000000000420 .L0 
     /tmp/ccM4Qgn5.s:751    .text:0000000000000420 .L0 
     /tmp/ccM4Qgn5.s:753    .text:0000000000000424 .L0 
     /tmp/ccM4Qgn5.s:755    .text:0000000000000428 .L0 
     /tmp/ccM4Qgn5.s:757    .text:000000000000042c .L0 
     /tmp/ccM4Qgn5.s:758    .text:000000000000042c .L0 
     /tmp/ccM4Qgn5.s:761    .text:0000000000000434 .L0 
     /tmp/ccM4Qgn5.s:767    .text:000000000000043c .L0 
     /tmp/ccM4Qgn5.s:768    .text:0000000000000440 .L0 
     /tmp/ccM4Qgn5.s:770    .text:0000000000000444 .L0 
     /tmp/ccM4Qgn5.s:771    .text:0000000000000444 .L0 
     /tmp/ccM4Qgn5.s:773    .text:0000000000000448 .L0 
     /tmp/ccM4Qgn5.s:776    .text:000000000000044c .L0 
     /tmp/ccM4Qgn5.s:778    .text:0000000000000450 .L0 
     /tmp/ccM4Qgn5.s:784    .text:0000000000000450 _Z18getOptimalSlabSizem
GAS LISTING /tmp/ccM4Qgn5.s 			page 63


     /tmp/ccM4Qgn5.s:787    .text:0000000000000450 .L0 
     /tmp/ccM4Qgn5.s:789    .text:0000000000000450 .L0 
     /tmp/ccM4Qgn5.s:790    .text:0000000000000454 .L0 
     /tmp/ccM4Qgn5.s:792    .text:0000000000000458 .L0 
     /tmp/ccM4Qgn5.s:794    .text:000000000000045c .L0 
     /tmp/ccM4Qgn5.s:797    .text:000000000000045c .L0 
     /tmp/ccM4Qgn5.s:798    .text:000000000000045c .L0 
     /tmp/ccM4Qgn5.s:802    .text:0000000000000460 .L0 
     /tmp/ccM4Qgn5.s:803    .text:0000000000000460 .L0 
     /tmp/ccM4Qgn5.s:804    .text:0000000000000460 .L0 
     /tmp/ccM4Qgn5.s:806    .text:0000000000000464 .L0 
     /tmp/ccM4Qgn5.s:808    .text:0000000000000468 .L0 
     /tmp/ccM4Qgn5.s:809    .text:0000000000000468 .L0 
     /tmp/ccM4Qgn5.s:812    .text:000000000000046c .L0 
     /tmp/ccM4Qgn5.s:815    .text:0000000000000470 .L0 
     /tmp/ccM4Qgn5.s:816    .text:0000000000000470 .L0 
     /tmp/ccM4Qgn5.s:818    .text:0000000000000474 .L0 
     /tmp/ccM4Qgn5.s:822    .text:0000000000000478 .L0 
     /tmp/ccM4Qgn5.s:823    .text:0000000000000478 .L0 
     /tmp/ccM4Qgn5.s:828    .text:0000000000000480 .L0 
     /tmp/ccM4Qgn5.s:832    .text:0000000000000484 .L0 
     /tmp/ccM4Qgn5.s:836    .text:000000000000048c .L0 
     /tmp/ccM4Qgn5.s:837    .text:000000000000048c .L0 
     /tmp/ccM4Qgn5.s:840    .text:0000000000000490 .L0 
     /tmp/ccM4Qgn5.s:841    .text:0000000000000490 .L0 
     /tmp/ccM4Qgn5.s:843    .text:0000000000000494 .L0 
     /tmp/ccM4Qgn5.s:846    .text:0000000000000498 .L0 
     /tmp/ccM4Qgn5.s:848    .text:000000000000049c .L0 
     /tmp/ccM4Qgn5.s:851    .text:00000000000004a0 .L0 
     /tmp/ccM4Qgn5.s:859    .text:00000000000004a8 .L0 
     /tmp/ccM4Qgn5.s:860    .text:00000000000004a8 .L0 
     /tmp/ccM4Qgn5.s:863    .text:00000000000004b0 .L0 
     /tmp/ccM4Qgn5.s:864    .text:00000000000004b0 .L0 
     /tmp/ccM4Qgn5.s:866    .text:00000000000004b4 .L0 
     /tmp/ccM4Qgn5.s:868    .text:00000000000004b8 .L0 
     /tmp/ccM4Qgn5.s:874    .text:00000000000004b8 _Z8findSlabP12kmem_cache_sPKv
     /tmp/ccM4Qgn5.s:877    .text:00000000000004b8 .L0 
     /tmp/ccM4Qgn5.s:879    .text:00000000000004b8 .L0 
     /tmp/ccM4Qgn5.s:880    .text:00000000000004bc .L0 
     /tmp/ccM4Qgn5.s:882    .text:00000000000004c0 .L0 
     /tmp/ccM4Qgn5.s:884    .text:00000000000004c4 .L0 
     /tmp/ccM4Qgn5.s:887    .text:00000000000004c8 .L0 
     /tmp/ccM4Qgn5.s:889    .text:00000000000004cc .L0 
     /tmp/ccM4Qgn5.s:891    .text:00000000000004d0 .L0 
     /tmp/ccM4Qgn5.s:892    .text:00000000000004d0 .L0 
     /tmp/ccM4Qgn5.s:899    .text:00000000000004d8 .L0 
     /tmp/ccM4Qgn5.s:900    .text:00000000000004d8 .L0 
     /tmp/ccM4Qgn5.s:905    .text:00000000000004dc .L0 
     /tmp/ccM4Qgn5.s:906    .text:00000000000004dc .L0 
     /tmp/ccM4Qgn5.s:909    .text:00000000000004e0 .L0 
     /tmp/ccM4Qgn5.s:910    .text:00000000000004e0 .L0 
     /tmp/ccM4Qgn5.s:912    .text:00000000000004e4 .L0 
     /tmp/ccM4Qgn5.s:914    .text:00000000000004e8 .L0 
     /tmp/ccM4Qgn5.s:916    .text:00000000000004ec .L0 
     /tmp/ccM4Qgn5.s:918    .text:00000000000004f0 .L0 
     /tmp/ccM4Qgn5.s:920    .text:00000000000004f4 .L0 
     /tmp/ccM4Qgn5.s:923    .text:00000000000004f8 .L0 
GAS LISTING /tmp/ccM4Qgn5.s 			page 64


     /tmp/ccM4Qgn5.s:925    .text:00000000000004fc .L0 
     /tmp/ccM4Qgn5.s:930    .text:0000000000000500 .L0 
     /tmp/ccM4Qgn5.s:931    .text:0000000000000504 .L0 
     /tmp/ccM4Qgn5.s:932    .text:0000000000000504 .L0 
     /tmp/ccM4Qgn5.s:933    .text:0000000000000504 .L0 
     /tmp/ccM4Qgn5.s:935    .text:0000000000000508 .L0 
     /tmp/ccM4Qgn5.s:939    .text:000000000000050c .L0 
     /tmp/ccM4Qgn5.s:941    .text:000000000000050c .L0 
     /tmp/ccM4Qgn5.s:942    .text:000000000000050c .L0 
     /tmp/ccM4Qgn5.s:949    .text:0000000000000514 .L0 
     /tmp/ccM4Qgn5.s:950    .text:0000000000000514 .L0 
     /tmp/ccM4Qgn5.s:955    .text:0000000000000518 .L0 
     /tmp/ccM4Qgn5.s:956    .text:0000000000000518 .L0 
     /tmp/ccM4Qgn5.s:959    .text:000000000000051c .L0 
     /tmp/ccM4Qgn5.s:960    .text:000000000000051c .L0 
     /tmp/ccM4Qgn5.s:962    .text:0000000000000520 .L0 
     /tmp/ccM4Qgn5.s:964    .text:0000000000000524 .L0 
     /tmp/ccM4Qgn5.s:966    .text:0000000000000528 .L0 
     /tmp/ccM4Qgn5.s:968    .text:000000000000052c .L0 
     /tmp/ccM4Qgn5.s:970    .text:0000000000000530 .L0 
     /tmp/ccM4Qgn5.s:973    .text:0000000000000534 .L0 
     /tmp/ccM4Qgn5.s:975    .text:0000000000000538 .L0 
     /tmp/ccM4Qgn5.s:981    .text:0000000000000540 .L0 
     /tmp/ccM4Qgn5.s:984    .text:0000000000000548 .L0 
     /tmp/ccM4Qgn5.s:990    .text:0000000000000548 _Z19resetAllocatedIndexP6slab_si
     /tmp/ccM4Qgn5.s:993    .text:0000000000000548 .L0 
     /tmp/ccM4Qgn5.s:995    .text:0000000000000548 .L0 
     /tmp/ccM4Qgn5.s:996    .text:000000000000054c .L0 
     /tmp/ccM4Qgn5.s:998    .text:0000000000000550 .L0 
     /tmp/ccM4Qgn5.s:1000   .text:0000000000000554 .L0 
     /tmp/ccM4Qgn5.s:1002   .text:0000000000000554 .L0 
     /tmp/ccM4Qgn5.s:1003   .text:0000000000000554 .L0 
     /tmp/ccM4Qgn5.s:1009   .text:0000000000000564 .L0 
     /tmp/ccM4Qgn5.s:1012   .text:0000000000000568 .L0 
     /tmp/ccM4Qgn5.s:1014   .text:000000000000056c .L0 
     /tmp/ccM4Qgn5.s:1017   .text:0000000000000574 .L0 
     /tmp/ccM4Qgn5.s:1020   .text:000000000000057c .L0 
     /tmp/ccM4Qgn5.s:1023   .text:0000000000000584 .L0 
     /tmp/ccM4Qgn5.s:1025   .text:0000000000000588 .L0 
     /tmp/ccM4Qgn5.s:1026   .text:000000000000058c .L0 
     /tmp/ccM4Qgn5.s:1027   .text:000000000000058c .L0 
     /tmp/ccM4Qgn5.s:1029   .text:0000000000000590 .L0 
     /tmp/ccM4Qgn5.s:1031   .text:0000000000000594 .L0 
     /tmp/ccM4Qgn5.s:1054   .text:0000000000000594 _Z13printSlabInfoP6slab_s
     /tmp/ccM4Qgn5.s:1057   .text:0000000000000594 .L0 
     /tmp/ccM4Qgn5.s:1059   .text:0000000000000594 .L0 
     /tmp/ccM4Qgn5.s:1060   .text:0000000000000598 .L0 
     /tmp/ccM4Qgn5.s:1065   .text:00000000000005a8 .L0 
     /tmp/ccM4Qgn5.s:1066   .text:00000000000005a8 .L0 
     /tmp/ccM4Qgn5.s:1067   .text:00000000000005a8 .L0 
     /tmp/ccM4Qgn5.s:1068   .text:00000000000005a8 .L0 
     /tmp/ccM4Qgn5.s:1070   .text:00000000000005ac .L0 
     /tmp/ccM4Qgn5.s:1073   .text:00000000000005b0 .L0 
     /tmp/ccM4Qgn5.s:1074   .text:00000000000005b0 .L0 
     /tmp/ccM4Qgn5.s:1079   .text:00000000000005c0 .L0 
     /tmp/ccM4Qgn5.s:1080   .text:00000000000005c0 .L0 
     /tmp/ccM4Qgn5.s:1086   .text:00000000000005d8 .L0 
GAS LISTING /tmp/ccM4Qgn5.s 			page 65


     /tmp/ccM4Qgn5.s:1087   .text:00000000000005d8 .L0 
     /tmp/ccM4Qgn5.s:1093   .text:00000000000005f0 .L0 
     /tmp/ccM4Qgn5.s:1094   .text:00000000000005f0 .L0 
     /tmp/ccM4Qgn5.s:1101   .text:0000000000000608 .L0 
     /tmp/ccM4Qgn5.s:1102   .text:0000000000000608 .L0 
     /tmp/ccM4Qgn5.s:1106   .text:000000000000060c .L0 
     /tmp/ccM4Qgn5.s:1107   .text:000000000000060c .L0 
     /tmp/ccM4Qgn5.s:1109   .text:0000000000000610 .L0 
     /tmp/ccM4Qgn5.s:1111   .text:0000000000000614 .L0 
     /tmp/ccM4Qgn5.s:1113   .text:0000000000000618 .L0 
     /tmp/ccM4Qgn5.s:1115   .text:000000000000061c .L0 
     /tmp/ccM4Qgn5.s:1116   .text:000000000000061c .L0 
     /tmp/ccM4Qgn5.s:1118   .text:0000000000000620 .L0 
     /tmp/ccM4Qgn5.s:1124   .text:0000000000000634 .L0 
     /tmp/ccM4Qgn5.s:1125   .text:0000000000000634 .L0 
     /tmp/ccM4Qgn5.s:1129   .text:0000000000000644 .L0 
     /tmp/ccM4Qgn5.s:1135   .text:000000000000064c .L0 
     /tmp/ccM4Qgn5.s:1136   .text:0000000000000650 .L0 
     /tmp/ccM4Qgn5.s:1138   .text:0000000000000654 .L0 
     /tmp/ccM4Qgn5.s:1139   .text:0000000000000654 .L0 
     /tmp/ccM4Qgn5.s:1141   .text:0000000000000658 .L0 
     /tmp/ccM4Qgn5.s:1144   .text:000000000000065c .L0 
     /tmp/ccM4Qgn5.s:1147   .text:0000000000000660 .L0 
     /tmp/ccM4Qgn5.s:1149   .text:0000000000000664 .L0 
     /tmp/ccM4Qgn5.s:1155   .text:0000000000000664 _Z16free_slab_objectP6slab_sPKv
     /tmp/ccM4Qgn5.s:1158   .text:0000000000000664 .L0 
     /tmp/ccM4Qgn5.s:1160   .text:0000000000000664 .L0 
     /tmp/ccM4Qgn5.s:1161   .text:0000000000000664 .L0 
     /tmp/ccM4Qgn5.s:1163   .text:0000000000000668 .L0 
     /tmp/ccM4Qgn5.s:1164   .text:000000000000066c .L0 
     /tmp/ccM4Qgn5.s:1168   .text:0000000000000678 .L0 
     /tmp/ccM4Qgn5.s:1169   .text:0000000000000678 .L0 
     /tmp/ccM4Qgn5.s:1170   .text:0000000000000678 .L0 
     /tmp/ccM4Qgn5.s:1172   .text:000000000000067c .L0 
     /tmp/ccM4Qgn5.s:1176   .text:0000000000000684 .L0 
     /tmp/ccM4Qgn5.s:1178   .text:0000000000000688 .L0 
     /tmp/ccM4Qgn5.s:1179   .text:0000000000000688 .L0 
     /tmp/ccM4Qgn5.s:1182   .text:0000000000000690 .L0 
     /tmp/ccM4Qgn5.s:1184   .text:0000000000000694 .L0 
     /tmp/ccM4Qgn5.s:1186   .text:0000000000000698 .L0 
     /tmp/ccM4Qgn5.s:1188   .text:000000000000069c .L0 
     /tmp/ccM4Qgn5.s:1191   .text:00000000000006a0 .L0 
     /tmp/ccM4Qgn5.s:1192   .text:00000000000006a0 .L0 
     /tmp/ccM4Qgn5.s:1194   .text:00000000000006a4 .L0 
     /tmp/ccM4Qgn5.s:1197   .text:00000000000006ac .L0 
     /tmp/ccM4Qgn5.s:1201   .text:00000000000006b0 .L0 
     /tmp/ccM4Qgn5.s:1202   .text:00000000000006b4 .L0 
     /tmp/ccM4Qgn5.s:1203   .text:00000000000006b4 .L0 
     /tmp/ccM4Qgn5.s:1205   .text:00000000000006b8 .L0 
     /tmp/ccM4Qgn5.s:1206   .text:00000000000006b8 .L0 
     /tmp/ccM4Qgn5.s:1208   .text:00000000000006bc .L0 
     /tmp/ccM4Qgn5.s:1211   .text:00000000000006c0 .L0 
     /tmp/ccM4Qgn5.s:1215   .text:00000000000006c4 .L0 
     /tmp/ccM4Qgn5.s:1217   .text:00000000000006c4 .L0 
     /tmp/ccM4Qgn5.s:1218   .text:00000000000006c4 .L0 
     /tmp/ccM4Qgn5.s:1221   .text:00000000000006cc .L0 
     /tmp/ccM4Qgn5.s:1222   .text:00000000000006cc .L0 
GAS LISTING /tmp/ccM4Qgn5.s 			page 66


     /tmp/ccM4Qgn5.s:1224   .text:00000000000006d0 .L0 
     /tmp/ccM4Qgn5.s:1226   .text:00000000000006d4 .L0 
     /tmp/ccM4Qgn5.s:1228   .text:00000000000006d8 .L0 
     /tmp/ccM4Qgn5.s:1231   .text:00000000000006e0 .L0 
     /tmp/ccM4Qgn5.s:1232   .text:00000000000006e0 .L0 
     /tmp/ccM4Qgn5.s:1237   .text:00000000000006ec .L0 
     /tmp/ccM4Qgn5.s:1238   .text:00000000000006ec .L0 
     /tmp/ccM4Qgn5.s:1243   .text:00000000000006fc .L0 
     /tmp/ccM4Qgn5.s:1244   .text:00000000000006fc .L0 
     /tmp/ccM4Qgn5.s:1246   .text:0000000000000700 .L0 
     /tmp/ccM4Qgn5.s:1249   .text:0000000000000708 .L0 
     /tmp/ccM4Qgn5.s:1250   .text:0000000000000708 .L0 
     /tmp/ccM4Qgn5.s:1254   .text:0000000000000714 .L0 
     /tmp/ccM4Qgn5.s:1256   .text:0000000000000718 .L0 
     /tmp/ccM4Qgn5.s:1257   .text:0000000000000718 .L0 
     /tmp/ccM4Qgn5.s:1264   .text:000000000000072c .L0 
     /tmp/ccM4Qgn5.s:1265   .text:000000000000072c .L0 
     /tmp/ccM4Qgn5.s:1270   .text:000000000000073c .L0 
     /tmp/ccM4Qgn5.s:1271   .text:000000000000073c .L0 
     /tmp/ccM4Qgn5.s:1273   .text:0000000000000740 .L0 
     /tmp/ccM4Qgn5.s:1278   .text:000000000000074c .L0 
     /tmp/ccM4Qgn5.s:1279   .text:000000000000074c .L0 
     /tmp/ccM4Qgn5.s:1280   .text:000000000000074c .L0 
     /tmp/ccM4Qgn5.s:1281   .text:000000000000074c .L0 
     /tmp/ccM4Qgn5.s:1283   .text:0000000000000750 .L0 
     /tmp/ccM4Qgn5.s:1289   .text:0000000000000750 _Z9kmem_initPvi
     /tmp/ccM4Qgn5.s:1292   .text:0000000000000750 .L0 
     /tmp/ccM4Qgn5.s:1294   .text:0000000000000750 .L0 
     /tmp/ccM4Qgn5.s:1295   .text:0000000000000754 .L0 
     /tmp/ccM4Qgn5.s:1298   .text:000000000000075c .L0 
     /tmp/ccM4Qgn5.s:1299   .text:000000000000075c .L0 
     /tmp/ccM4Qgn5.s:1301   .text:0000000000000760 .L0 
     /tmp/ccM4Qgn5.s:1303   .text:0000000000000760 .L0 
     /tmp/ccM4Qgn5.s:1304   .text:0000000000000760 .L0 
     /tmp/ccM4Qgn5.s:1307   .text:0000000000000768 .L0 
     /tmp/ccM4Qgn5.s:1308   .text:0000000000000768 .L0 
     /tmp/ccM4Qgn5.s:1311   .text:0000000000000770 .L0 
     /tmp/ccM4Qgn5.s:1313   .text:0000000000000778 .L0 
     /tmp/ccM4Qgn5.s:1314   .text:000000000000077c .L0 
     /tmp/ccM4Qgn5.s:1316   .text:0000000000000780 .L0 
     /tmp/ccM4Qgn5.s:1317   .text:0000000000000780 .L0 
     /tmp/ccM4Qgn5.s:1319   .text:0000000000000784 .L0 
     /tmp/ccM4Qgn5.s:1321   .text:0000000000000788 .L0 
     /tmp/ccM4Qgn5.s:1327   .text:0000000000000788 _Z16kmem_cache_allocP12kmem_cache_s
     /tmp/ccM4Qgn5.s:1330   .text:0000000000000788 .L0 
     /tmp/ccM4Qgn5.s:1332   .text:0000000000000788 .L0 
     /tmp/ccM4Qgn5.s:1333   .text:000000000000078c .L0 
     /tmp/ccM4Qgn5.s:1338   .text:000000000000079c .L0 
     /tmp/ccM4Qgn5.s:1339   .text:000000000000079c .L0 
     /tmp/ccM4Qgn5.s:1340   .text:000000000000079c .L0 
     /tmp/ccM4Qgn5.s:1341   .text:000000000000079c .L0 
     /tmp/ccM4Qgn5.s:1343   .text:00000000000007a0 .L0 
     /tmp/ccM4Qgn5.s:1347   .text:00000000000007a4 .L0 
     /tmp/ccM4Qgn5.s:1348   .text:00000000000007a4 .L0 
     /tmp/ccM4Qgn5.s:1351   .text:00000000000007a8 .L0 
     /tmp/ccM4Qgn5.s:1356   .text:00000000000007ac .L0 
     /tmp/ccM4Qgn5.s:1357   .text:00000000000007ac .L0 
GAS LISTING /tmp/ccM4Qgn5.s 			page 67


     /tmp/ccM4Qgn5.s:1359   .text:00000000000007b0 .L0 
     /tmp/ccM4Qgn5.s:1362   .text:00000000000007b4 .L0 
     /tmp/ccM4Qgn5.s:1363   .text:00000000000007b4 .L0 
     /tmp/ccM4Qgn5.s:1368   .text:00000000000007c0 .L0 
     /tmp/ccM4Qgn5.s:1369   .text:00000000000007c0 .L0 
     /tmp/ccM4Qgn5.s:1374   .text:00000000000007cc .L0 
     /tmp/ccM4Qgn5.s:1376   .text:00000000000007d0 .L0 
     /tmp/ccM4Qgn5.s:1377   .text:00000000000007d0 .L0 
     /tmp/ccM4Qgn5.s:1381   .text:00000000000007dc .L0 
     /tmp/ccM4Qgn5.s:1382   .text:00000000000007dc .L0 
     /tmp/ccM4Qgn5.s:1386   .text:00000000000007e8 .L0 
     /tmp/ccM4Qgn5.s:1388   .text:00000000000007ec .L0 
     /tmp/ccM4Qgn5.s:1389   .text:00000000000007ec .L0 
     /tmp/ccM4Qgn5.s:1393   .text:00000000000007f8 .L0 
     /tmp/ccM4Qgn5.s:1394   .text:00000000000007f8 .L0 
     /tmp/ccM4Qgn5.s:1401   .text:00000000000007fc .L0 
     /tmp/ccM4Qgn5.s:1402   .text:00000000000007fc .L0 
     /tmp/ccM4Qgn5.s:1407   .text:0000000000000808 .L0 
     /tmp/ccM4Qgn5.s:1408   .text:0000000000000808 .L0 
     /tmp/ccM4Qgn5.s:1413   .text:0000000000000814 .L0 
     /tmp/ccM4Qgn5.s:1419   .text:0000000000000818 .L0 
     /tmp/ccM4Qgn5.s:1421   .text:0000000000000820 .L0 
     /tmp/ccM4Qgn5.s:1422   .text:0000000000000820 .L0 
     /tmp/ccM4Qgn5.s:1424   .text:0000000000000824 .L0 
     /tmp/ccM4Qgn5.s:1425   .text:0000000000000824 .L0 
     /tmp/ccM4Qgn5.s:1427   .text:0000000000000828 .L0 
     /tmp/ccM4Qgn5.s:1430   .text:000000000000082c .L0 
     /tmp/ccM4Qgn5.s:1432   .text:0000000000000830 .L0 
     /tmp/ccM4Qgn5.s:1436   .text:0000000000000834 .L0 
     /tmp/ccM4Qgn5.s:1440   .text:0000000000000834 .L0 
     /tmp/ccM4Qgn5.s:1441   .text:0000000000000834 .L0 
     /tmp/ccM4Qgn5.s:1445   .text:0000000000000840 .L0 
     /tmp/ccM4Qgn5.s:1446   .text:0000000000000840 .L0 
     /tmp/ccM4Qgn5.s:1453   .text:0000000000000844 .L0 
     /tmp/ccM4Qgn5.s:1454   .text:0000000000000844 .L0 
     /tmp/ccM4Qgn5.s:1458   .text:0000000000000850 .L0 
     /tmp/ccM4Qgn5.s:1459   .text:0000000000000850 .L0 
     /tmp/ccM4Qgn5.s:1461   .text:0000000000000854 .L0 
     /tmp/ccM4Qgn5.s:1463   .text:0000000000000858 .L0 
     /tmp/ccM4Qgn5.s:1464   .text:0000000000000858 .L0 
     /tmp/ccM4Qgn5.s:1470   .text:0000000000000868 .L0 
     /tmp/ccM4Qgn5.s:1471   .text:0000000000000868 .L0 
     /tmp/ccM4Qgn5.s:1476   .text:0000000000000874 .L0 
     /tmp/ccM4Qgn5.s:1478   .text:0000000000000878 .L0 
     /tmp/ccM4Qgn5.s:1479   .text:0000000000000878 .L0 
     /tmp/ccM4Qgn5.s:1483   .text:0000000000000884 .L0 
     /tmp/ccM4Qgn5.s:1484   .text:0000000000000884 .L0 
     /tmp/ccM4Qgn5.s:1488   .text:0000000000000890 .L0 
     /tmp/ccM4Qgn5.s:1490   .text:0000000000000894 .L0 
     /tmp/ccM4Qgn5.s:1491   .text:0000000000000894 .L0 
     /tmp/ccM4Qgn5.s:1495   .text:00000000000008a0 .L0 
     /tmp/ccM4Qgn5.s:1496   .text:00000000000008a0 .L0 
     /tmp/ccM4Qgn5.s:1500   .text:00000000000008a4 .L0 
     /tmp/ccM4Qgn5.s:1506   .text:00000000000008a4 _Z17kmem_cache_createPKcmPFvPvES3_
     /tmp/ccM4Qgn5.s:1509   .text:00000000000008a4 .L0 
     /tmp/ccM4Qgn5.s:1511   .text:00000000000008a4 .L0 
     /tmp/ccM4Qgn5.s:1512   .text:00000000000008a8 .L0 
GAS LISTING /tmp/ccM4Qgn5.s 			page 68


     /tmp/ccM4Qgn5.s:1520   .text:00000000000008c4 .L0 
     /tmp/ccM4Qgn5.s:1521   .text:00000000000008c4 .L0 
     /tmp/ccM4Qgn5.s:1522   .text:00000000000008c4 .L0 
     /tmp/ccM4Qgn5.s:1523   .text:00000000000008c4 .L0 
     /tmp/ccM4Qgn5.s:1524   .text:00000000000008c4 .L0 
     /tmp/ccM4Qgn5.s:1525   .text:00000000000008c4 .L0 
     /tmp/ccM4Qgn5.s:1526   .text:00000000000008c4 .L0 
     /tmp/ccM4Qgn5.s:1528   .text:00000000000008c8 .L0 
     /tmp/ccM4Qgn5.s:1534   .text:00000000000008d8 .L0 
     /tmp/ccM4Qgn5.s:1535   .text:00000000000008d8 .L0 
     /tmp/ccM4Qgn5.s:1543   .text:00000000000008f0 .L0 
     /tmp/ccM4Qgn5.s:1544   .text:00000000000008f0 .L0 
     /tmp/ccM4Qgn5.s:1546   .text:00000000000008f4 .L0 
     /tmp/ccM4Qgn5.s:1547   .text:00000000000008f4 .L0 
     /tmp/ccM4Qgn5.s:1549   .text:00000000000008f8 .L0 
     /tmp/ccM4Qgn5.s:1550   .text:00000000000008f8 .L0 
     /tmp/ccM4Qgn5.s:1552   .text:00000000000008fc .L0 
     /tmp/ccM4Qgn5.s:1553   .text:00000000000008fc .L0 
     /tmp/ccM4Qgn5.s:1555   .text:0000000000000900 .L0 
     /tmp/ccM4Qgn5.s:1556   .text:0000000000000900 .L0 
     /tmp/ccM4Qgn5.s:1558   .text:0000000000000904 .L0 
     /tmp/ccM4Qgn5.s:1559   .text:0000000000000904 .L0 
     /tmp/ccM4Qgn5.s:1564   .text:0000000000000914 .L0 
     /tmp/ccM4Qgn5.s:1565   .text:0000000000000914 .L0 
     /tmp/ccM4Qgn5.s:1567   .text:0000000000000918 .L0 
     /tmp/ccM4Qgn5.s:1568   .text:0000000000000918 .L0 
     /tmp/ccM4Qgn5.s:1572   .text:0000000000000924 .L0 
     /tmp/ccM4Qgn5.s:1574   .text:0000000000000928 .L0 
     /tmp/ccM4Qgn5.s:1575   .text:0000000000000928 .L0 
     /tmp/ccM4Qgn5.s:1577   .text:0000000000000930 .L0 
     /tmp/ccM4Qgn5.s:1579   .text:0000000000000934 .L0 
     /tmp/ccM4Qgn5.s:1580   .text:0000000000000934 .L0 
     /tmp/ccM4Qgn5.s:1582   .text:0000000000000938 .L0 
     /tmp/ccM4Qgn5.s:1585   .text:000000000000093c .L0 
     /tmp/ccM4Qgn5.s:1588   .text:0000000000000940 .L0 
     /tmp/ccM4Qgn5.s:1591   .text:0000000000000944 .L0 
     /tmp/ccM4Qgn5.s:1594   .text:0000000000000948 .L0 
     /tmp/ccM4Qgn5.s:1597   .text:000000000000094c .L0 
     /tmp/ccM4Qgn5.s:1599   .text:0000000000000950 .L0 
     /tmp/ccM4Qgn5.s:1605   .text:0000000000000950 _Z15kmem_cache_freeP12kmem_cache_sPv
     /tmp/ccM4Qgn5.s:1608   .text:0000000000000950 .L0 
     /tmp/ccM4Qgn5.s:1610   .text:0000000000000950 .L0 
     /tmp/ccM4Qgn5.s:1611   .text:0000000000000950 .L0 
     /tmp/ccM4Qgn5.s:1613   .text:0000000000000954 .L0 
     /tmp/ccM4Qgn5.s:1614   .text:0000000000000958 .L0 
     /tmp/ccM4Qgn5.s:1618   .text:0000000000000964 .L0 
     /tmp/ccM4Qgn5.s:1619   .text:0000000000000964 .L0 
     /tmp/ccM4Qgn5.s:1620   .text:0000000000000964 .L0 
     /tmp/ccM4Qgn5.s:1622   .text:0000000000000968 .L0 
     /tmp/ccM4Qgn5.s:1625   .text:000000000000096c .L0 
     /tmp/ccM4Qgn5.s:1627   .text:0000000000000970 .L0 
     /tmp/ccM4Qgn5.s:1628   .text:0000000000000970 .L0 
     /tmp/ccM4Qgn5.s:1631   .text:0000000000000978 .L0 
     /tmp/ccM4Qgn5.s:1633   .text:000000000000097c .L0 
     /tmp/ccM4Qgn5.s:1634   .text:000000000000097c .L0 
     /tmp/ccM4Qgn5.s:1639   .text:0000000000000988 .L0 
     /tmp/ccM4Qgn5.s:1640   .text:000000000000098c .L0 
GAS LISTING /tmp/ccM4Qgn5.s 			page 69


     /tmp/ccM4Qgn5.s:1642   .text:0000000000000990 .L0 
     /tmp/ccM4Qgn5.s:1643   .text:0000000000000990 .L0 
     /tmp/ccM4Qgn5.s:1645   .text:0000000000000994 .L0 
     /tmp/ccM4Qgn5.s:1648   .text:0000000000000998 .L0 
     /tmp/ccM4Qgn5.s:1653   .text:00000000000009a0 .L0 
     /tmp/ccM4Qgn5.s:1685   .text:00000000000009a0 _Z15kmem_cache_infoP12kmem_cache_s
     /tmp/ccM4Qgn5.s:1688   .text:00000000000009a0 .L0 
     /tmp/ccM4Qgn5.s:1690   .text:00000000000009a0 .L0 
     /tmp/ccM4Qgn5.s:1691   .text:00000000000009a4 .L0 
     /tmp/ccM4Qgn5.s:1696   .text:00000000000009b4 .L0 
     /tmp/ccM4Qgn5.s:1697   .text:00000000000009b4 .L0 
     /tmp/ccM4Qgn5.s:1698   .text:00000000000009b4 .L0 
     /tmp/ccM4Qgn5.s:1699   .text:00000000000009b4 .L0 
     /tmp/ccM4Qgn5.s:1701   .text:00000000000009b8 .L0 
     /tmp/ccM4Qgn5.s:1704   .text:00000000000009bc .L0 
     /tmp/ccM4Qgn5.s:1705   .text:00000000000009bc .L0 
     /tmp/ccM4Qgn5.s:1710   .text:00000000000009cc .L0 
     /tmp/ccM4Qgn5.s:1711   .text:00000000000009cc .L0 
     /tmp/ccM4Qgn5.s:1715   .text:00000000000009dc .L0 
     /tmp/ccM4Qgn5.s:1716   .text:00000000000009dc .L0 
     /tmp/ccM4Qgn5.s:1720   .text:00000000000009e8 .L0 
     /tmp/ccM4Qgn5.s:1721   .text:00000000000009e8 .L0 
     /tmp/ccM4Qgn5.s:1725   .text:00000000000009f8 .L0 
     /tmp/ccM4Qgn5.s:1726   .text:00000000000009f8 .L0 
     /tmp/ccM4Qgn5.s:1732   .text:0000000000000a10 .L0 
     /tmp/ccM4Qgn5.s:1733   .text:0000000000000a10 .L0 
     /tmp/ccM4Qgn5.s:1739   .text:0000000000000a28 .L0 
     /tmp/ccM4Qgn5.s:1740   .text:0000000000000a28 .L0 
     /tmp/ccM4Qgn5.s:1744   .text:0000000000000a38 .L0 
     /tmp/ccM4Qgn5.s:1745   .text:0000000000000a38 .L0 
     /tmp/ccM4Qgn5.s:1749   .text:0000000000000a48 .L0 
     /tmp/ccM4Qgn5.s:1750   .text:0000000000000a48 .L0 
     /tmp/ccM4Qgn5.s:1754   .text:0000000000000a4c .L0 
     /tmp/ccM4Qgn5.s:1755   .text:0000000000000a4c .L0 
     /tmp/ccM4Qgn5.s:1757   .text:0000000000000a50 .L0 
     /tmp/ccM4Qgn5.s:1758   .text:0000000000000a50 .L0 
     /tmp/ccM4Qgn5.s:1762   .text:0000000000000a5c .L0 
     /tmp/ccM4Qgn5.s:1763   .text:0000000000000a5c .L0 
     /tmp/ccM4Qgn5.s:1766   .text:0000000000000a60 .L0 
     /tmp/ccM4Qgn5.s:1769   .text:0000000000000a64 .L0 
     /tmp/ccM4Qgn5.s:1770   .text:0000000000000a64 .L0 
     /tmp/ccM4Qgn5.s:1774   .text:0000000000000a74 .L0 
     /tmp/ccM4Qgn5.s:1775   .text:0000000000000a74 .L0 
     /tmp/ccM4Qgn5.s:1779   .text:0000000000000a78 .L0 
     /tmp/ccM4Qgn5.s:1780   .text:0000000000000a78 .L0 
     /tmp/ccM4Qgn5.s:1782   .text:0000000000000a7c .L0 
     /tmp/ccM4Qgn5.s:1783   .text:0000000000000a7c .L0 
     /tmp/ccM4Qgn5.s:1787   .text:0000000000000a88 .L0 
     /tmp/ccM4Qgn5.s:1788   .text:0000000000000a88 .L0 
     /tmp/ccM4Qgn5.s:1791   .text:0000000000000a8c .L0 
     /tmp/ccM4Qgn5.s:1794   .text:0000000000000a90 .L0 
     /tmp/ccM4Qgn5.s:1795   .text:0000000000000a90 .L0 
     /tmp/ccM4Qgn5.s:1799   .text:0000000000000aa0 .L0 
     /tmp/ccM4Qgn5.s:1800   .text:0000000000000aa0 .L0 
     /tmp/ccM4Qgn5.s:1804   .text:0000000000000aa4 .L0 
     /tmp/ccM4Qgn5.s:1805   .text:0000000000000aa4 .L0 
     /tmp/ccM4Qgn5.s:1807   .text:0000000000000aa8 .L0 
GAS LISTING /tmp/ccM4Qgn5.s 			page 70


     /tmp/ccM4Qgn5.s:1808   .text:0000000000000aa8 .L0 
     /tmp/ccM4Qgn5.s:1812   .text:0000000000000ab4 .L0 
     /tmp/ccM4Qgn5.s:1813   .text:0000000000000ab4 .L0 
     /tmp/ccM4Qgn5.s:1816   .text:0000000000000ab8 .L0 
     /tmp/ccM4Qgn5.s:1819   .text:0000000000000abc .L0 
     /tmp/ccM4Qgn5.s:1820   .text:0000000000000ac0 .L0 
     /tmp/ccM4Qgn5.s:1822   .text:0000000000000ac4 .L0 
     /tmp/ccM4Qgn5.s:1823   .text:0000000000000ac4 .L0 
     /tmp/ccM4Qgn5.s:1825   .text:0000000000000ac8 .L0 
     /tmp/ccM4Qgn5.s:1828   .text:0000000000000acc .L0 
     /tmp/ccM4Qgn5.s:1831   .text:0000000000000ad0 .L0 
     /tmp/ccM4Qgn5.s:1833   .text:0000000000000ad4 .L0 
     /tmp/ccM4Qgn5.s:1856   .text:0000000000000ad4 _Z22printSlabAllocatorInfov
     /tmp/ccM4Qgn5.s:1859   .text:0000000000000ad4 .L0 
     /tmp/ccM4Qgn5.s:1860   .text:0000000000000ad4 .L0 
     /tmp/ccM4Qgn5.s:1861   .text:0000000000000ad8 .L0 
     /tmp/ccM4Qgn5.s:1865   .text:0000000000000ae4 .L0 
     /tmp/ccM4Qgn5.s:1866   .text:0000000000000ae4 .L0 
     /tmp/ccM4Qgn5.s:1867   .text:0000000000000ae4 .L0 
     /tmp/ccM4Qgn5.s:1869   .text:0000000000000ae8 .L0 
     /tmp/ccM4Qgn5.s:1871   .text:0000000000000ae8 .L0 
     /tmp/ccM4Qgn5.s:1872   .text:0000000000000ae8 .L0 
     /tmp/ccM4Qgn5.s:1876   .text:0000000000000af8 .L0 
     /tmp/ccM4Qgn5.s:1877   .text:0000000000000af8 .L0 
     /tmp/ccM4Qgn5.s:1880   .text:0000000000000b04 .L0 
     /tmp/ccM4Qgn5.s:1886   .text:0000000000000b1c .L0 
     /tmp/ccM4Qgn5.s:1887   .text:0000000000000b1c .L0 
     /tmp/ccM4Qgn5.s:1893   .text:0000000000000b34 .L0 
     /tmp/ccM4Qgn5.s:1894   .text:0000000000000b34 .L0 
     /tmp/ccM4Qgn5.s:1898   .text:0000000000000b44 .L0 
     /tmp/ccM4Qgn5.s:1899   .text:0000000000000b44 .L0 
     /tmp/ccM4Qgn5.s:1901   .text:0000000000000b48 .L0 
     /tmp/ccM4Qgn5.s:1905   .text:0000000000000b54 .L0 
     /tmp/ccM4Qgn5.s:1906   .text:0000000000000b54 .L0 
     /tmp/ccM4Qgn5.s:1911   .text:0000000000000b64 .L0 
     /tmp/ccM4Qgn5.s:1912   .text:0000000000000b64 .L0 
     /tmp/ccM4Qgn5.s:1917   .text:0000000000000b6c .L0 
     /tmp/ccM4Qgn5.s:1918   .text:0000000000000b6c .L0 
     /tmp/ccM4Qgn5.s:1922   .text:0000000000000b74 .L0 
     /tmp/ccM4Qgn5.s:1926   .text:0000000000000b78 .L0 
     /tmp/ccM4Qgn5.s:1929   .text:0000000000000b80 .L0 
     /tmp/ccM4Qgn5.s:1930   .text:0000000000000b80 .L0 
     /tmp/ccM4Qgn5.s:1935   .text:0000000000000b94 .L0 
     /tmp/ccM4Qgn5.s:1940   .text:0000000000000b9c .L0 
     /tmp/ccM4Qgn5.s:1941   .text:0000000000000ba0 .L0 
     /tmp/ccM4Qgn5.s:1943   .text:0000000000000ba4 .L0 
     /tmp/ccM4Qgn5.s:1944   .text:0000000000000ba4 .L0 
     /tmp/ccM4Qgn5.s:1946   .text:0000000000000ba8 .L0 
     /tmp/ccM4Qgn5.s:1949   .text:0000000000000bac .L0 
     /tmp/ccM4Qgn5.s:1951   .text:0000000000000bb0 .L0 
     /tmp/ccM4Qgn5.s:1962   .text:0000000000000bb0 _Z7kmallocm
     /tmp/ccM4Qgn5.s:1965   .text:0000000000000bb0 .L0 
     /tmp/ccM4Qgn5.s:1967   .text:0000000000000bb0 .L0 
     /tmp/ccM4Qgn5.s:1968   .text:0000000000000bb4 .L0 
     /tmp/ccM4Qgn5.s:1975   .text:0000000000000bcc .L0 
     /tmp/ccM4Qgn5.s:1976   .text:0000000000000bcc .L0 
     /tmp/ccM4Qgn5.s:1977   .text:0000000000000bcc .L0 
GAS LISTING /tmp/ccM4Qgn5.s 			page 71


     /tmp/ccM4Qgn5.s:1978   .text:0000000000000bcc .L0 
     /tmp/ccM4Qgn5.s:1979   .text:0000000000000bcc .L0 
     /tmp/ccM4Qgn5.s:1980   .text:0000000000000bcc .L0 
     /tmp/ccM4Qgn5.s:1982   .text:0000000000000bd0 .L0 
     /tmp/ccM4Qgn5.s:1985   .text:0000000000000bd4 .L0 
     /tmp/ccM4Qgn5.s:1986   .text:0000000000000bd4 .L0 
     /tmp/ccM4Qgn5.s:1989   .text:0000000000000bdc .L0 
     /tmp/ccM4Qgn5.s:1992   .text:0000000000000be4 .L0 
     /tmp/ccM4Qgn5.s:1995   .text:0000000000000bec .L0 
     /tmp/ccM4Qgn5.s:2001   .text:0000000000000bf4 .L0 
     /tmp/ccM4Qgn5.s:2005   .text:0000000000000bf8 .L0 
     /tmp/ccM4Qgn5.s:2006   .text:0000000000000bf8 .L0 
     /tmp/ccM4Qgn5.s:2009   .text:0000000000000bfc .L0 
     /tmp/ccM4Qgn5.s:2010   .text:0000000000000bfc .L0 
     /tmp/ccM4Qgn5.s:2015   .text:0000000000000c10 .L0 
     /tmp/ccM4Qgn5.s:2018   .text:0000000000000c14 .L0 
     /tmp/ccM4Qgn5.s:2019   .text:0000000000000c14 .L0 
     /tmp/ccM4Qgn5.s:2028   .text:0000000000000c30 .L0 
     /tmp/ccM4Qgn5.s:2029   .text:0000000000000c34 .L0 
     /tmp/ccM4Qgn5.s:2030   .text:0000000000000c34 .L0 
     /tmp/ccM4Qgn5.s:2032   .text:0000000000000c38 .L0 
     /tmp/ccM4Qgn5.s:2033   .text:0000000000000c38 .L0 
     /tmp/ccM4Qgn5.s:2035   .text:0000000000000c3c .L0 
     /tmp/ccM4Qgn5.s:2037   .text:0000000000000c40 .L0 
     /tmp/ccM4Qgn5.s:2039   .text:0000000000000c44 .L0 
     /tmp/ccM4Qgn5.s:2042   .text:0000000000000c48 .L0 
     /tmp/ccM4Qgn5.s:2044   .text:0000000000000c4c .L0 
     /tmp/ccM4Qgn5.s:2048   .text:0000000000000c50 .L0 
     /tmp/ccM4Qgn5.s:2050   .text:0000000000000c50 .L0 
     /tmp/ccM4Qgn5.s:2051   .text:0000000000000c50 .L0 
     /tmp/ccM4Qgn5.s:2055   .text:0000000000000c5c .L0 
     /tmp/ccM4Qgn5.s:2059   .text:0000000000000c68 .L0 
     /tmp/ccM4Qgn5.s:2060   .text:0000000000000c68 .L0 
     /tmp/ccM4Qgn5.s:2065   .text:0000000000000c7c .L0 
     /tmp/ccM4Qgn5.s:2067   .text:0000000000000c80 .L0 
     /tmp/ccM4Qgn5.s:2068   .text:0000000000000c80 .L0 
     /tmp/ccM4Qgn5.s:2070   .text:0000000000000c84 .L0 
     /tmp/ccM4Qgn5.s:2072   .text:0000000000000c88 .L0 
     /tmp/ccM4Qgn5.s:2073   .text:0000000000000c88 .L0 
     /tmp/ccM4Qgn5.s:2075   .text:0000000000000c8c .L0 
     /tmp/ccM4Qgn5.s:2077   .text:0000000000000c90 .L0 
     /tmp/ccM4Qgn5.s:2078   .text:0000000000000c90 .L0 
     /tmp/ccM4Qgn5.s:2080   .text:0000000000000c94 .L0 
     /tmp/ccM4Qgn5.s:2082   .text:0000000000000c98 .L0 
     /tmp/ccM4Qgn5.s:2083   .text:0000000000000c98 .L0 
     /tmp/ccM4Qgn5.s:2085   .text:0000000000000c9c .L0 
     /tmp/ccM4Qgn5.s:2087   .text:0000000000000ca0 .L0 
     /tmp/ccM4Qgn5.s:2088   .text:0000000000000ca0 .L0 
     /tmp/ccM4Qgn5.s:2093   .text:0000000000000cb4 .L0 
     /tmp/ccM4Qgn5.s:2094   .text:0000000000000cb4 .L0 
     /tmp/ccM4Qgn5.s:2098   .text:0000000000000cc0 .L0 
     /tmp/ccM4Qgn5.s:2100   .text:0000000000000cc4 .L0 
     /tmp/ccM4Qgn5.s:2101   .text:0000000000000cc4 .L0 
     /tmp/ccM4Qgn5.s:2103   .text:0000000000000cc8 .L0 
     /tmp/ccM4Qgn5.s:2107   .text:0000000000000cd4 .L0 
     /tmp/ccM4Qgn5.s:2109   .text:0000000000000cdc .L0 
     /tmp/ccM4Qgn5.s:2115   .text:0000000000000cdc _Z5kfreePKv
GAS LISTING /tmp/ccM4Qgn5.s 			page 72


     /tmp/ccM4Qgn5.s:2118   .text:0000000000000cdc .L0 
     /tmp/ccM4Qgn5.s:2120   .text:0000000000000cdc .L0 
     /tmp/ccM4Qgn5.s:2121   .text:0000000000000cdc .L0 
     /tmp/ccM4Qgn5.s:2123   .text:0000000000000ce0 .L0 
     /tmp/ccM4Qgn5.s:2124   .text:0000000000000ce4 .L0 
     /tmp/ccM4Qgn5.s:2129   .text:0000000000000cf4 .L0 
     /tmp/ccM4Qgn5.s:2130   .text:0000000000000cf4 .L0 
     /tmp/ccM4Qgn5.s:2131   .text:0000000000000cf4 .L0 
     /tmp/ccM4Qgn5.s:2132   .text:0000000000000cf4 .L0 
     /tmp/ccM4Qgn5.s:2134   .text:0000000000000cf8 .L0 
     /tmp/ccM4Qgn5.s:2138   .text:0000000000000cfc .L0 
     /tmp/ccM4Qgn5.s:2141   .text:0000000000000d00 .L0 
     /tmp/ccM4Qgn5.s:2146   .text:0000000000000d04 .L0 
     /tmp/ccM4Qgn5.s:2149   .text:0000000000000d0c .L0 
     /tmp/ccM4Qgn5.s:2150   .text:0000000000000d0c .L0 
     /tmp/ccM4Qgn5.s:2159   .text:0000000000000d2c .L0 
     /tmp/ccM4Qgn5.s:2161   .text:0000000000000d30 .L0 
     /tmp/ccM4Qgn5.s:2167   .text:0000000000000d38 .L0 
     /tmp/ccM4Qgn5.s:2169   .text:0000000000000d3c .L0 
     /tmp/ccM4Qgn5.s:2170   .text:0000000000000d3c .L0 
     /tmp/ccM4Qgn5.s:2175   .text:0000000000000d48 .L0 
     /tmp/ccM4Qgn5.s:2176   .text:0000000000000d4c .L0 
     /tmp/ccM4Qgn5.s:2178   .text:0000000000000d50 .L0 
     /tmp/ccM4Qgn5.s:2179   .text:0000000000000d50 .L0 
     /tmp/ccM4Qgn5.s:2181   .text:0000000000000d54 .L0 
     /tmp/ccM4Qgn5.s:2184   .text:0000000000000d58 .L0 
     /tmp/ccM4Qgn5.s:2187   .text:0000000000000d5c .L0 
     /tmp/ccM4Qgn5.s:2192   .text:0000000000000d64 .L0 
     /tmp/ccM4Qgn5.s:2198   .text:0000000000000d64 _Z17destroy_slab_listP6slab_s
     /tmp/ccM4Qgn5.s:2201   .text:0000000000000d64 .L0 
     /tmp/ccM4Qgn5.s:2203   .text:0000000000000d64 .L0 
     /tmp/ccM4Qgn5.s:2204   .text:0000000000000d68 .L0 
     /tmp/ccM4Qgn5.s:2210   .text:0000000000000d7c .L0 
     /tmp/ccM4Qgn5.s:2211   .text:0000000000000d7c .L0 
     /tmp/ccM4Qgn5.s:2212   .text:0000000000000d7c .L0 
     /tmp/ccM4Qgn5.s:2213   .text:0000000000000d7c .L0 
     /tmp/ccM4Qgn5.s:2214   .text:0000000000000d7c .L0 
     /tmp/ccM4Qgn5.s:2216   .text:0000000000000d80 .L0 
     /tmp/ccM4Qgn5.s:2218   .text:0000000000000d80 .L0 
     /tmp/ccM4Qgn5.s:2221   .text:0000000000000d88 .L0 
     /tmp/ccM4Qgn5.s:2222   .text:0000000000000d88 .L0 
     /tmp/ccM4Qgn5.s:2224   .text:0000000000000d8c .L0 
     /tmp/ccM4Qgn5.s:2227   .text:0000000000000d90 .L0 
     /tmp/ccM4Qgn5.s:2228   .text:0000000000000d90 .L0 
     /tmp/ccM4Qgn5.s:2232   .text:0000000000000d94 .L0 
     /tmp/ccM4Qgn5.s:2233   .text:0000000000000d94 .L0 
     /tmp/ccM4Qgn5.s:2236   .text:0000000000000d98 .L0 
     /tmp/ccM4Qgn5.s:2237   .text:0000000000000d98 .L0 
     /tmp/ccM4Qgn5.s:2240   .text:0000000000000d9c .L0 
     /tmp/ccM4Qgn5.s:2241   .text:0000000000000d9c .L0 
     /tmp/ccM4Qgn5.s:2247   .text:0000000000000db4 .L0 
     /tmp/ccM4Qgn5.s:2248   .text:0000000000000db4 .L0 
     /tmp/ccM4Qgn5.s:2249   .text:0000000000000db4 .L0 
     /tmp/ccM4Qgn5.s:2252   .text:0000000000000db8 .L0 
     /tmp/ccM4Qgn5.s:2255   .text:0000000000000dbc .L0 
     /tmp/ccM4Qgn5.s:2259   .text:0000000000000dc0 .L0 
     /tmp/ccM4Qgn5.s:2263   .text:0000000000000dc4 .L0 
GAS LISTING /tmp/ccM4Qgn5.s 			page 73


     /tmp/ccM4Qgn5.s:2265   .text:0000000000000dcc .L0 
     /tmp/ccM4Qgn5.s:2267   .text:0000000000000dd0 .L0 
     /tmp/ccM4Qgn5.s:2268   .text:0000000000000dd0 .L0 
     /tmp/ccM4Qgn5.s:2270   .text:0000000000000dd4 .L0 
     /tmp/ccM4Qgn5.s:2272   .text:0000000000000dd8 .L0 
     /tmp/ccM4Qgn5.s:2274   .text:0000000000000ddc .L0 
     /tmp/ccM4Qgn5.s:2276   .text:0000000000000de0 .L0 
     /tmp/ccM4Qgn5.s:2278   .text:0000000000000de4 .L0 
     /tmp/ccM4Qgn5.s:2284   .text:0000000000000de4 _Z18kmem_cache_destroyP12kmem_cache_s
     /tmp/ccM4Qgn5.s:2287   .text:0000000000000de4 .L0 
     /tmp/ccM4Qgn5.s:2289   .text:0000000000000de4 .L0 
     /tmp/ccM4Qgn5.s:2290   .text:0000000000000de8 .L0 
     /tmp/ccM4Qgn5.s:2294   .text:0000000000000df4 .L0 
     /tmp/ccM4Qgn5.s:2295   .text:0000000000000df4 .L0 
     /tmp/ccM4Qgn5.s:2296   .text:0000000000000df4 .L0 
     /tmp/ccM4Qgn5.s:2298   .text:0000000000000df8 .L0 
     /tmp/ccM4Qgn5.s:2301   .text:0000000000000dfc .L0 
     /tmp/ccM4Qgn5.s:2302   .text:0000000000000dfc .L0 
     /tmp/ccM4Qgn5.s:2307   .text:0000000000000e08 .L0 
     /tmp/ccM4Qgn5.s:2308   .text:0000000000000e08 .L0 
     /tmp/ccM4Qgn5.s:2312   .text:0000000000000e14 .L0 
     /tmp/ccM4Qgn5.s:2313   .text:0000000000000e14 .L0 
     /tmp/ccM4Qgn5.s:2317   .text:0000000000000e20 .L0 
     /tmp/ccM4Qgn5.s:2318   .text:0000000000000e20 .L0 
     /tmp/ccM4Qgn5.s:2324   .text:0000000000000e38 .L0 
     /tmp/ccM4Qgn5.s:2325   .text:0000000000000e3c .L0 
     /tmp/ccM4Qgn5.s:2327   .text:0000000000000e40 .L0 
     /tmp/ccM4Qgn5.s:2328   .text:0000000000000e40 .L0 
     /tmp/ccM4Qgn5.s:2330   .text:0000000000000e44 .L0 
     /tmp/ccM4Qgn5.s:2333   .text:0000000000000e48 .L0 
     /tmp/ccM4Qgn5.s:2335   .text:0000000000000e4c .L0 
     /tmp/ccM4Qgn5.s:2341   .text:0000000000000e4c _Z17kmem_cache_shrinkP12kmem_cache_s
     /tmp/ccM4Qgn5.s:2344   .text:0000000000000e4c .L0 
     /tmp/ccM4Qgn5.s:2346   .text:0000000000000e4c .L0 
     /tmp/ccM4Qgn5.s:2347   .text:0000000000000e4c .L0 
     /tmp/ccM4Qgn5.s:2349   .text:0000000000000e50 .L0 
     /tmp/ccM4Qgn5.s:2350   .text:0000000000000e54 .L0 
     /tmp/ccM4Qgn5.s:2354   .text:0000000000000e60 .L0 
     /tmp/ccM4Qgn5.s:2355   .text:0000000000000e60 .L0 
     /tmp/ccM4Qgn5.s:2356   .text:0000000000000e60 .L0 
     /tmp/ccM4Qgn5.s:2358   .text:0000000000000e64 .L0 
     /tmp/ccM4Qgn5.s:2361   .text:0000000000000e68 .L0 
     /tmp/ccM4Qgn5.s:2362   .text:0000000000000e68 .L0 
     /tmp/ccM4Qgn5.s:2367   .text:0000000000000e74 .L0 
     /tmp/ccM4Qgn5.s:2368   .text:0000000000000e74 .L0 
     /tmp/ccM4Qgn5.s:2370   .text:0000000000000e78 .L0 
     /tmp/ccM4Qgn5.s:2371   .text:0000000000000e78 .L0 
     /tmp/ccM4Qgn5.s:2372   .text:0000000000000e7c .L0 
     /tmp/ccM4Qgn5.s:2374   .text:0000000000000e80 .L0 
     /tmp/ccM4Qgn5.s:2375   .text:0000000000000e80 .L0 
     /tmp/ccM4Qgn5.s:2377   .text:0000000000000e84 .L0 
     /tmp/ccM4Qgn5.s:2380   .text:0000000000000e88 .L0 
     /tmp/ccM4Qgn5.s:2385   .text:0000000000000e8c .L0 
     /tmp/ccM4Qgn5.s:2388   .text:0000000000000e90 .L0 
     /tmp/ccM4Qgn5.s:2389   .text:0000000000000e94 .L0 
     /tmp/ccM4Qgn5.s:2394   .bss:0000000000000000 .LANCHOR0
     /tmp/ccM4Qgn5.s:2397   .bss:0000000000000000 _ZL13slabAllocator
GAS LISTING /tmp/ccM4Qgn5.s 			page 74


     /tmp/ccM4Qgn5.s:2407   .text:0000000000000e94 .L0 
     /tmp/ccM4Qgn5.s:57     .rodata.str1.8:0000000000000000 .LC0
     /tmp/ccM4Qgn5.s:112    .text:000000000000007c .L0 
     /tmp/ccM4Qgn5.s:697    .text:00000000000003d0 .L0 
     /tmp/ccM4Qgn5.s:1036   .rodata.str1.8:0000000000000010 .LC1
     /tmp/ccM4Qgn5.s:1074   .text:00000000000005b0 .L0 
     /tmp/ccM4Qgn5.s:1039   .rodata.str1.8:0000000000000028 .LC2
     /tmp/ccM4Qgn5.s:1082   .text:00000000000005c8 .L0 
     /tmp/ccM4Qgn5.s:1042   .rodata.str1.8:0000000000000038 .LC3
     /tmp/ccM4Qgn5.s:1089   .text:00000000000005e0 .L0 
     /tmp/ccM4Qgn5.s:1045   .rodata.str1.8:0000000000000058 .LC4
     /tmp/ccM4Qgn5.s:1096   .text:00000000000005f8 .L0 
     /tmp/ccM4Qgn5.s:1048   .rodata.str1.8:0000000000000070 .LC5
     /tmp/ccM4Qgn5.s:1125   .text:0000000000000634 .L0 
     /tmp/ccM4Qgn5.s:1311   .text:0000000000000770 .L0 
     /tmp/ccM4Qgn5.s:1535   .text:00000000000008d8 .L0 
     /tmp/ccM4Qgn5.s:1658   .rodata.str1.8:0000000000000078 .LC6
     /tmp/ccM4Qgn5.s:1705   .text:00000000000009bc .L0 
     /tmp/ccM4Qgn5.s:1661   .rodata.str1.8:00000000000000b0 .LC7
     /tmp/ccM4Qgn5.s:1711   .text:00000000000009cc .L0 
     /tmp/ccM4Qgn5.s:1721   .text:00000000000009e8 .L0 
     /tmp/ccM4Qgn5.s:1664   .rodata.str1.8:00000000000000c0 .LC8
     /tmp/ccM4Qgn5.s:1728   .text:0000000000000a00 .L0 
     /tmp/ccM4Qgn5.s:1667   .rodata.str1.8:00000000000000e0 .LC9
     /tmp/ccM4Qgn5.s:1735   .text:0000000000000a18 .L0 
     /tmp/ccM4Qgn5.s:1670   .rodata.str1.8:0000000000000100 .LC10
     /tmp/ccM4Qgn5.s:1740   .text:0000000000000a28 .L0 
     /tmp/ccM4Qgn5.s:1673   .rodata.str1.8:0000000000000120 .LC11
     /tmp/ccM4Qgn5.s:1745   .text:0000000000000a38 .L0 
     /tmp/ccM4Qgn5.s:1676   .rodata.str1.8:0000000000000130 .LC12
     /tmp/ccM4Qgn5.s:1770   .text:0000000000000a64 .L0 
     /tmp/ccM4Qgn5.s:1679   .rodata.str1.8:0000000000000140 .LC13
     /tmp/ccM4Qgn5.s:1795   .text:0000000000000a90 .L0 
     /tmp/ccM4Qgn5.s:1838   .rodata.str1.8:0000000000000150 .LC14
     /tmp/ccM4Qgn5.s:1872   .text:0000000000000ae8 .L0 
     /tmp/ccM4Qgn5.s:1877   .text:0000000000000af8 .L0 
     /tmp/ccM4Qgn5.s:1841   .rodata.str1.8:00000000000001a0 .LC15
     /tmp/ccM4Qgn5.s:1882   .text:0000000000000b0c .L0 
     /tmp/ccM4Qgn5.s:1844   .rodata.str1.8:00000000000001c0 .LC16
     /tmp/ccM4Qgn5.s:1889   .text:0000000000000b24 .L0 
     /tmp/ccM4Qgn5.s:1847   .rodata.str1.8:00000000000001d8 .LC17
     /tmp/ccM4Qgn5.s:1894   .text:0000000000000b34 .L0 
     /tmp/ccM4Qgn5.s:1850   .rodata.str1.8:00000000000001f0 .LC18
     /tmp/ccM4Qgn5.s:1906   .text:0000000000000b54 .L0 
     /tmp/ccM4Qgn5.s:1931   .text:0000000000000b84 .L0 
     /tmp/ccM4Qgn5.s:2010   .text:0000000000000bfc .L0 
     /tmp/ccM4Qgn5.s:2020   .text:0000000000000c18 .L0 
     /tmp/ccM4Qgn5.s:2060   .text:0000000000000c68 .L0 
     /tmp/ccM4Qgn5.s:1956   .rodata.str1.8:0000000000000208 .LC19
     /tmp/ccM4Qgn5.s:2089   .text:0000000000000ca4 .L0 
     /tmp/ccM4Qgn5.s:2151   .text:0000000000000d10 .L0 
     /tmp/ccM4Qgn5.s:2242   .text:0000000000000da0 .L0 
     /tmp/ccM4Qgn5.s:2319   .text:0000000000000e24 .L0 
     /tmp/ccM4Qgn5.s:41     .text:0000000000000024 .L2
     /tmp/ccM4Qgn5.s:21     .text:000000000000000c .L3
     /tmp/ccM4Qgn5.s:104    .text:0000000000000070 .L7
     /tmp/ccM4Qgn5.s:95     .text:0000000000000060 .L9
GAS LISTING /tmp/ccM4Qgn5.s 			page 75


     /tmp/ccM4Qgn5.s:231    .text:000000000000012c .L15
     /tmp/ccM4Qgn5.s:210    .text:0000000000000110 .L17
     /tmp/ccM4Qgn5.s:181    .text:00000000000000e0 .L13
     /tmp/ccM4Qgn5.s:240    .text:0000000000000134 .L11
     /tmp/ccM4Qgn5.s:271    .text:0000000000000174 .L10
     /tmp/ccM4Qgn5.s:370    .text:00000000000001e8 .L23
     /tmp/ccM4Qgn5.s:430    .text:0000000000000234 .L31
     /tmp/ccM4Qgn5.s:415    .text:0000000000000220 .L29
     /tmp/ccM4Qgn5.s:440    .text:0000000000000240 .L27
     /tmp/ccM4Qgn5.s:421    .text:0000000000000228 .L25
     /tmp/ccM4Qgn5.s:712    .text:00000000000003f4 .L41
     /tmp/ccM4Qgn5.s:764    .text:000000000000043c .L40
     /tmp/ccM4Qgn5.s:748    .text:0000000000000420 .L43
     /tmp/ccM4Qgn5.s:813    .text:0000000000000470 .L46
     /tmp/ccM4Qgn5.s:800    .text:0000000000000460 .L47
     /tmp/ccM4Qgn5.s:830    .text:0000000000000484 .L50
     /tmp/ccM4Qgn5.s:855    .text:00000000000004a8 .L48
     /tmp/ccM4Qgn5.s:826    .text:0000000000000480 .L49
     /tmp/ccM4Qgn5.s:927    .text:0000000000000500 .L53
     /tmp/ccM4Qgn5.s:978    .text:0000000000000540 .L61
     /tmp/ccM4Qgn5.s:902    .text:00000000000004dc .L57
     /tmp/ccM4Qgn5.s:938    .text:000000000000050c .L55
     /tmp/ccM4Qgn5.s:896    .text:00000000000004d8 .L56
     /tmp/ccM4Qgn5.s:952    .text:0000000000000518 .L59
     /tmp/ccM4Qgn5.s:946    .text:0000000000000514 .L58
     /tmp/ccM4Qgn5.s:1132   .text:000000000000064c .L65
     /tmp/ccM4Qgn5.s:1104   .text:000000000000060c .L67
     /tmp/ccM4Qgn5.s:1277   .text:000000000000074c .L74
     /tmp/ccM4Qgn5.s:1199   .text:00000000000006b0 .L69
     /tmp/ccM4Qgn5.s:1214   .text:00000000000006c4 .L77
     /tmp/ccM4Qgn5.s:1235   .text:00000000000006ec .L78
     /tmp/ccM4Qgn5.s:1262   .text:000000000000072c .L79
     /tmp/ccM4Qgn5.s:1396   .text:00000000000007fc .L90
     /tmp/ccM4Qgn5.s:1448   .text:0000000000000844 .L86
     /tmp/ccM4Qgn5.s:1415   .text:0000000000000818 .L82
     /tmp/ccM4Qgn5.s:1435   .text:0000000000000834 .L91
     /tmp/ccM4Qgn5.s:1651   .text:000000000000099c .L97
     /tmp/ccM4Qgn5.s:1637   .text:0000000000000988 .L94
     /tmp/ccM4Qgn5.s:1767   .text:0000000000000a64 .L101
     /tmp/ccM4Qgn5.s:1752   .text:0000000000000a4c .L102
     /tmp/ccM4Qgn5.s:1792   .text:0000000000000a90 .L103
     /tmp/ccM4Qgn5.s:1777   .text:0000000000000a78 .L104
     /tmp/ccM4Qgn5.s:1817   .text:0000000000000abc .L100
     /tmp/ccM4Qgn5.s:1802   .text:0000000000000aa4 .L106
     /tmp/ccM4Qgn5.s:1924   .text:0000000000000b78 .L111
     /tmp/ccM4Qgn5.s:1937   .text:0000000000000b9c .L108
     /tmp/ccM4Qgn5.s:1915   .text:0000000000000b6c .L113
     /tmp/ccM4Qgn5.s:1920   .text:0000000000000b74 .L110
     /tmp/ccM4Qgn5.s:1999   .text:0000000000000bf4 .L118
     /tmp/ccM4Qgn5.s:2003   .text:0000000000000bf8 .L115
     /tmp/ccM4Qgn5.s:2026   .text:0000000000000c30 .L114
     /tmp/ccM4Qgn5.s:2047   .text:0000000000000c50 .L121
     /tmp/ccM4Qgn5.s:2016   .text:0000000000000c14 .L117
     /tmp/ccM4Qgn5.s:2190   .text:0000000000000d60 .L127
     /tmp/ccM4Qgn5.s:2164   .text:0000000000000d38 .L124
     /tmp/ccM4Qgn5.s:2143   .text:0000000000000d04 .L125
     /tmp/ccM4Qgn5.s:2173   .text:0000000000000d48 .L122
GAS LISTING /tmp/ccM4Qgn5.s 			page 76


     /tmp/ccM4Qgn5.s:2257   .text:0000000000000dc0 .L133
     /tmp/ccM4Qgn5.s:2261   .text:0000000000000dc4 .L131
     /tmp/ccM4Qgn5.s:2230   .text:0000000000000d94 .L132
     /tmp/ccM4Qgn5.s:2383   .text:0000000000000e8c .L139
     /tmp/ccM4Qgn5.s:5550   .debug_abbrev:0000000000000000 .Ldebug_abbrev0
     /tmp/ccM4Qgn5.s:8063   .debug_str:0000000000000f16 .LASF298
     /tmp/ccM4Qgn5.s:7867   .debug_str:0000000000000866 .LASF299
     /tmp/ccM4Qgn5.s:7747   .debug_str:0000000000000498 .LASF300
     /tmp/ccM4Qgn5.s:5      .text:0000000000000000 .Ltext0
     /tmp/ccM4Qgn5.s:2400   .text:0000000000000e94 .Letext0
     /tmp/ccM4Qgn5.s:7603   .debug_line:0000000000000000 .Ldebug_line0
     /tmp/ccM4Qgn5.s:7819   .debug_str:00000000000006da .LASF0
     /tmp/ccM4Qgn5.s:7849   .debug_str:00000000000007e8 .LASF1
     /tmp/ccM4Qgn5.s:8001   .debug_str:0000000000000d00 .LASF2
     /tmp/ccM4Qgn5.s:7753   .debug_str:00000000000004c6 .LASF3
     /tmp/ccM4Qgn5.s:8017   .debug_str:0000000000000d7f .LASF4
     /tmp/ccM4Qgn5.s:7831   .debug_str:000000000000072f .LASF5
     /tmp/ccM4Qgn5.s:7625   .debug_str:00000000000000be .LASF6
     /tmp/ccM4Qgn5.s:7951   .debug_str:0000000000000b3e .LASF7
     /tmp/ccM4Qgn5.s:7841   .debug_str:0000000000000799 .LASF8
     /tmp/ccM4Qgn5.s:7779   .debug_str:000000000000056b .LASF9
     /tmp/ccM4Qgn5.s:7789   .debug_str:00000000000005b8 .LASF10
     /tmp/ccM4Qgn5.s:7685   .debug_str:00000000000002fd .LASF11
     /tmp/ccM4Qgn5.s:7661   .debug_str:0000000000000201 .LASF12
     /tmp/ccM4Qgn5.s:7769   .debug_str:000000000000052d .LASF13
     /tmp/ccM4Qgn5.s:7703   .debug_str:0000000000000359 .LASF14
     /tmp/ccM4Qgn5.s:7683   .debug_str:00000000000002ed .LASF15
     /tmp/ccM4Qgn5.s:8067   .debug_str:0000000000000ffc .LASF16
     /tmp/ccM4Qgn5.s:7741   .debug_str:0000000000000468 .LASF17
     /tmp/ccM4Qgn5.s:8053   .debug_str:0000000000000ea7 .LASF18
     /tmp/ccM4Qgn5.s:7765   .debug_str:000000000000050f .LASF19
     /tmp/ccM4Qgn5.s:7763   .debug_str:0000000000000502 .LASF29
     /tmp/ccM4Qgn5.s:7781   .debug_str:000000000000057b .LASF20
     /tmp/ccM4Qgn5.s:7761   .debug_str:00000000000004f6 .LASF21
     /tmp/ccM4Qgn5.s:7905   .debug_str:00000000000009b1 .LASF22
     /tmp/ccM4Qgn5.s:7783   .debug_str:0000000000000585 .LASF23
     /tmp/ccM4Qgn5.s:8045   .debug_str:0000000000000e72 .LASF24
     /tmp/ccM4Qgn5.s:8155   .debug_str:00000000000012fa .LASF25
     /tmp/ccM4Qgn5.s:7881   .debug_str:00000000000008e1 .LASF26
     /tmp/ccM4Qgn5.s:7817   .debug_str:00000000000006d5 .LASF27
     /tmp/ccM4Qgn5.s:8081   .debug_str:000000000000103c .LASF28
     /tmp/ccM4Qgn5.s:7955   .debug_str:0000000000000b59 .LASF30
     /tmp/ccM4Qgn5.s:7687   .debug_str:000000000000030c .LASF31
     /tmp/ccM4Qgn5.s:7985   .debug_str:0000000000000c74 .LASF32
     /tmp/ccM4Qgn5.s:8077   .debug_str:0000000000001030 .LASF33
     /tmp/ccM4Qgn5.s:7863   .debug_str:0000000000000845 .LASF34
     /tmp/ccM4Qgn5.s:7879   .debug_str:00000000000008d2 .LASF35
     /tmp/ccM4Qgn5.s:7887   .debug_str:00000000000008fa .LASF36
     /tmp/ccM4Qgn5.s:8093   .debug_str:0000000000001088 .LASF37
     /tmp/ccM4Qgn5.s:8131   .debug_str:0000000000001213 .LASF38
     /tmp/ccM4Qgn5.s:7853   .debug_str:0000000000000806 .LASF39
     /tmp/ccM4Qgn5.s:7757   .debug_str:00000000000004da .LASF40
     /tmp/ccM4Qgn5.s:8085   .debug_str:000000000000104c .LASF301
     /tmp/ccM4Qgn5.s:8079   .debug_str:0000000000001036 .LASF41
     /tmp/ccM4Qgn5.s:8037   .debug_str:0000000000000e1f .LASF42
     /tmp/ccM4Qgn5.s:7695   .debug_str:000000000000032f .LASF43
     /tmp/ccM4Qgn5.s:7663   .debug_str:0000000000000214 .LASF44
GAS LISTING /tmp/ccM4Qgn5.s 			page 77


     /tmp/ccM4Qgn5.s:7953   .debug_str:0000000000000b51 .LASF45
     /tmp/ccM4Qgn5.s:7693   .debug_str:0000000000000326 .LASF46
     /tmp/ccM4Qgn5.s:8075   .debug_str:0000000000001028 .LASF47
     /tmp/ccM4Qgn5.s:7807   .debug_str:0000000000000668 .LASF48
     /tmp/ccM4Qgn5.s:7627   .debug_str:00000000000000c5 .LASF54
     /tmp/ccM4Qgn5.s:8119   .debug_str:000000000000118f .LASF302
     /tmp/ccM4Qgn5.s:7937   .debug_str:0000000000000ae1 .LASF49
     /tmp/ccM4Qgn5.s:7847   .debug_str:00000000000007e3 .LASF50
     /tmp/ccM4Qgn5.s:8193   .debug_str:0000000000001411 .LASF52
     /tmp/ccM4Qgn5.s:8187   .debug_str:00000000000013f0 .LASF51
     /tmp/ccM4Qgn5.s:8103   .debug_str:00000000000010f0 .LASF53
     /tmp/ccM4Qgn5.s:7727   .debug_str:0000000000000423 .LASF77
     /tmp/ccM4Qgn5.s:7639   .debug_str:000000000000013e .LASF79
     /tmp/ccM4Qgn5.s:8091   .debug_str:0000000000001080 .LASF55
     /tmp/ccM4Qgn5.s:8025   .debug_str:0000000000000dbe .LASF56
     /tmp/ccM4Qgn5.s:7857   .debug_str:000000000000081b .LASF59
     /tmp/ccM4Qgn5.s:7871   .debug_str:0000000000000881 .LASF61
     /tmp/ccM4Qgn5.s:8199   .debug_str:0000000000001456 .LASF57
     /tmp/ccM4Qgn5.s:7749   .debug_str:00000000000004ad .LASF58
     /tmp/ccM4Qgn5.s:7617   .debug_str:000000000000007d .LASF103
     /tmp/ccM4Qgn5.s:7827   .debug_str:0000000000000710 .LASF105
     /tmp/ccM4Qgn5.s:8029   .debug_str:0000000000000ddb .LASF60
     /tmp/ccM4Qgn5.s:7909   .debug_str:00000000000009c2 .LASF62
     /tmp/ccM4Qgn5.s:8011   .debug_str:0000000000000d45 .LASF63
     /tmp/ccM4Qgn5.s:8061   .debug_str:0000000000000efa .LASF64
     /tmp/ccM4Qgn5.s:7911   .debug_str:00000000000009d5 .LASF65
     /tmp/ccM4Qgn5.s:7611   .debug_str:000000000000003f .LASF66
     /tmp/ccM4Qgn5.s:8177   .debug_str:00000000000013ac .LASF67
     /tmp/ccM4Qgn5.s:7949   .debug_str:0000000000000b24 .LASF68
     /tmp/ccM4Qgn5.s:8051   .debug_str:0000000000000e99 .LASF69
     /tmp/ccM4Qgn5.s:7967   .debug_str:0000000000000bb3 .LASF70
     /tmp/ccM4Qgn5.s:7721   .debug_str:0000000000000401 .LASF71
     /tmp/ccM4Qgn5.s:7771   .debug_str:000000000000053c .LASF72
     /tmp/ccM4Qgn5.s:7993   .debug_str:0000000000000cc7 .LASF73
     /tmp/ccM4Qgn5.s:8179   .debug_str:00000000000013bb .LASF74
     /tmp/ccM4Qgn5.s:8181   .debug_str:00000000000013ca .LASF75
     /tmp/ccM4Qgn5.s:7833   .debug_str:0000000000000741 .LASF76
     /tmp/ccM4Qgn5.s:8047   .debug_str:0000000000000e7c .LASF78
     /tmp/ccM4Qgn5.s:8191   .debug_str:00000000000013fb .LASF80
     /tmp/ccM4Qgn5.s:7793   .debug_str:00000000000005d7 .LASF81
     /tmp/ccM4Qgn5.s:7715   .debug_str:00000000000003d1 .LASF82
     /tmp/ccM4Qgn5.s:8023   .debug_str:0000000000000db6 .LASF83
     /tmp/ccM4Qgn5.s:7821   .debug_str:00000000000006e7 .LASF84
     /tmp/ccM4Qgn5.s:7919   .debug_str:0000000000000a0f .LASF85
     /tmp/ccM4Qgn5.s:7709   .debug_str:00000000000003a9 .LASF86
     /tmp/ccM4Qgn5.s:7975   .debug_str:0000000000000c05 .LASF87
     /tmp/ccM4Qgn5.s:8209   .debug_str:00000000000014b8 .LASF88
     /tmp/ccM4Qgn5.s:7925   .debug_str:0000000000000a58 .LASF89
     /tmp/ccM4Qgn5.s:8009   .debug_str:0000000000000d32 .LASF90
     /tmp/ccM4Qgn5.s:8031   .debug_str:0000000000000de4 .LASF91
     /tmp/ccM4Qgn5.s:8141   .debug_str:0000000000001255 .LASF92
     /tmp/ccM4Qgn5.s:7895   .debug_str:000000000000095b .LASF93
     /tmp/ccM4Qgn5.s:8123   .debug_str:00000000000011d1 .LASF94
     /tmp/ccM4Qgn5.s:8059   .debug_str:0000000000000eda .LASF95
     /tmp/ccM4Qgn5.s:7943   .debug_str:0000000000000af8 .LASF96
     /tmp/ccM4Qgn5.s:7927   .debug_str:0000000000000a79 .LASF97
     /tmp/ccM4Qgn5.s:7735   .debug_str:0000000000000446 .LASF98
GAS LISTING /tmp/ccM4Qgn5.s 			page 78


     /tmp/ccM4Qgn5.s:7823   .debug_str:00000000000006fb .LASF99
     /tmp/ccM4Qgn5.s:7899   .debug_str:0000000000000998 .LASF100
     /tmp/ccM4Qgn5.s:8105   .debug_str:0000000000001100 .LASF101
     /tmp/ccM4Qgn5.s:7775   .debug_str:0000000000000552 .LASF102
     /tmp/ccM4Qgn5.s:8185   .debug_str:00000000000013e2 .LASF104
     /tmp/ccM4Qgn5.s:7649   .debug_str:00000000000001a0 .LASF106
     /tmp/ccM4Qgn5.s:7759   .debug_str:00000000000004e1 .LASF107
     /tmp/ccM4Qgn5.s:7677   .debug_str:00000000000002ae .LASF108
     /tmp/ccM4Qgn5.s:8175   .debug_str:00000000000013a5 .LASF109
     /tmp/ccM4Qgn5.s:7673   .debug_str:0000000000000278 .LASF110
     /tmp/ccM4Qgn5.s:7615   .debug_str:0000000000000078 .LASF111
     /tmp/ccM4Qgn5.s:8137   .debug_str:0000000000001244 .LASF112
     /tmp/ccM4Qgn5.s:7877   .debug_str:00000000000008ca .LASF113
     /tmp/ccM4Qgn5.s:7733   .debug_str:0000000000000440 .LASF114
     /tmp/ccM4Qgn5.s:8117   .debug_str:0000000000001187 .LASF115
     /tmp/ccM4Qgn5.s:7791   .debug_str:00000000000005c6 .LASF116
     /tmp/ccM4Qgn5.s:7883   .debug_str:00000000000008e6 .LASF117
     /tmp/ccM4Qgn5.s:7981   .debug_str:0000000000000c44 .LASF118
     /tmp/ccM4Qgn5.s:7785   .debug_str:0000000000000593 .LASF119
     /tmp/ccM4Qgn5.s:8005   .debug_str:0000000000000d1a .LASF120
     /tmp/ccM4Qgn5.s:7979   .debug_str:0000000000000c30 .LASF121
     /tmp/ccM4Qgn5.s:7729   .debug_str:000000000000042c .LASF122
     /tmp/ccM4Qgn5.s:8043   .debug_str:0000000000000e5b .LASF123
     /tmp/ccM4Qgn5.s:8071   .debug_str:000000000000101b .LASF124
     /tmp/ccM4Qgn5.s:7915   .debug_str:00000000000009ed .LASF125
     /tmp/ccM4Qgn5.s:7607   .debug_str:000000000000000f .LASF126
     /tmp/ccM4Qgn5.s:8007   .debug_str:0000000000000d26 .LASF127
     /tmp/ccM4Qgn5.s:7889   .debug_str:0000000000000906 .LASF128
     /tmp/ccM4Qgn5.s:7999   .debug_str:0000000000000ceb .LASF129
     /tmp/ccM4Qgn5.s:7689   .debug_str:0000000000000311 .LASF130
     /tmp/ccM4Qgn5.s:7697   .debug_str:0000000000000339 .LASF131
     /tmp/ccM4Qgn5.s:7913   .debug_str:00000000000009e4 .LASF132
     /tmp/ccM4Qgn5.s:8015   .debug_str:0000000000000d74 .LASF133
     /tmp/ccM4Qgn5.s:7605   .debug_str:0000000000000000 .LASF134
     /tmp/ccM4Qgn5.s:7801   .debug_str:0000000000000625 .LASF135
     /tmp/ccM4Qgn5.s:8115   .debug_str:0000000000001178 .LASF136
     /tmp/ccM4Qgn5.s:8065   .debug_str:0000000000000fda .LASF137
     /tmp/ccM4Qgn5.s:8033   .debug_str:0000000000000e02 .LASF138
     /tmp/ccM4Qgn5.s:7707   .debug_str:0000000000000385 .LASF139
     /tmp/ccM4Qgn5.s:7935   .debug_str:0000000000000ad1 .LASF140
     /tmp/ccM4Qgn5.s:7971   .debug_str:0000000000000bd1 .LASF141
     /tmp/ccM4Qgn5.s:7933   .debug_str:0000000000000acb .LASF142
     /tmp/ccM4Qgn5.s:8203   .debug_str:0000000000001489 .LASF143
     /tmp/ccM4Qgn5.s:7619   .debug_str:000000000000008d .LASF144
     /tmp/ccM4Qgn5.s:7875   .debug_str:00000000000008b0 .LASF145
     /tmp/ccM4Qgn5.s:8197   .debug_str:0000000000001446 .LASF146
     /tmp/ccM4Qgn5.s:8019   .debug_str:0000000000000d86 .LASF147
     /tmp/ccM4Qgn5.s:8069   .debug_str:0000000000001008 .LASF148
     /tmp/ccM4Qgn5.s:8013   .debug_str:0000000000000d4e .LASF149
     /tmp/ccM4Qgn5.s:8205   .debug_str:00000000000014a1 .LASF150
     /tmp/ccM4Qgn5.s:7845   .debug_str:00000000000007bf .LASF151
     /tmp/ccM4Qgn5.s:7917   .debug_str:0000000000000a06 .LASF152
     /tmp/ccM4Qgn5.s:7659   .debug_str:00000000000001f1 .LASF153
     /tmp/ccM4Qgn5.s:8109   .debug_str:000000000000111d .LASF154
     /tmp/ccM4Qgn5.s:8021   .debug_str:0000000000000da9 .LASF155
     /tmp/ccM4Qgn5.s:7613   .debug_str:0000000000000059 .LASF156
     /tmp/ccM4Qgn5.s:7647   .debug_str:000000000000018d .LASF157
GAS LISTING /tmp/ccM4Qgn5.s 			page 79


     /tmp/ccM4Qgn5.s:7929   .debug_str:0000000000000a98 .LASF158
     /tmp/ccM4Qgn5.s:7945   .debug_str:0000000000000b0c .LASF159
     /tmp/ccM4Qgn5.s:7805   .debug_str:0000000000000654 .LASF160
     /tmp/ccM4Qgn5.s:7939   .debug_str:0000000000000ae6 .LASF161
     /tmp/ccM4Qgn5.s:7851   .debug_str:00000000000007fb .LASF162
     /tmp/ccM4Qgn5.s:7965   .debug_str:0000000000000ba9 .LASF163
     /tmp/ccM4Qgn5.s:8143   .debug_str:0000000000001268 .LASF164
     /tmp/ccM4Qgn5.s:8083   .debug_str:0000000000001041 .LASF165
     /tmp/ccM4Qgn5.s:8139   .debug_str:0000000000001249 .LASF166
     /tmp/ccM4Qgn5.s:8153   .debug_str:00000000000012ed .LASF167
     /tmp/ccM4Qgn5.s:7903   .debug_str:00000000000009a5 .LASF168
     /tmp/ccM4Qgn5.s:7963   .debug_str:0000000000000b9d .LASF169
     /tmp/ccM4Qgn5.s:8049   .debug_str:0000000000000e87 .LASF172
     /tmp/ccM4Qgn5.s:8039   .debug_str:0000000000000e27 .LASF174
     /tmp/ccM4Qgn5.s:8129   .debug_str:0000000000001201 .LASF170
     /tmp/ccM4Qgn5.s:8173   .debug_str:0000000000001383 .LASF171
     /tmp/ccM4Qgn5.s:8127   .debug_str:00000000000011ef .LASF173
     /tmp/ccM4Qgn5.s:7631   .debug_str:00000000000000f0 .LASF175
     /tmp/ccM4Qgn5.s:7843   .debug_str:00000000000007ac .LASF176
     /tmp/ccM4Qgn5.s:7671   .debug_str:0000000000000255 .LASF177
     /tmp/ccM4Qgn5.s:7739   .debug_str:0000000000000455 .LASF178
     /tmp/ccM4Qgn5.s:7665   .debug_str:000000000000021d .LASF179
     /tmp/ccM4Qgn5.s:7641   .debug_str:0000000000000151 .LASF180
     /tmp/ccM4Qgn5.s:8151   .debug_str:00000000000012de .LASF181
     /tmp/ccM4Qgn5.s:7897   .debug_str:0000000000000979 .LASF182
     /tmp/ccM4Qgn5.s:8171   .debug_str:000000000000136a .LASF183
     /tmp/ccM4Qgn5.s:7835   .debug_str:000000000000074e .LASF184
     /tmp/ccM4Qgn5.s:7861   .debug_str:000000000000082d .LASF185
     /tmp/ccM4Qgn5.s:8195   .debug_str:000000000000141d .LASF186
     /tmp/ccM4Qgn5.s:7767   .debug_str:000000000000051c .LASF187
     /tmp/ccM4Qgn5.s:8163   .debug_str:0000000000001332 .LASF188
     /tmp/ccM4Qgn5.s:7777   .debug_str:000000000000055e .LASF189
     /tmp/ccM4Qgn5.s:8183   .debug_str:00000000000013d5 .LASF190
     /tmp/ccM4Qgn5.s:7797   .debug_str:0000000000000603 .LASF191
     /tmp/ccM4Qgn5.s:7633   .debug_str:0000000000000112 .LASF192
     /tmp/ccM4Qgn5.s:7865   .debug_str:000000000000084a .LASF193
     /tmp/ccM4Qgn5.s:7931   .debug_str:0000000000000abf .LASF194
     /tmp/ccM4Qgn5.s:7643   .debug_str:000000000000016c .LASF195
     /tmp/ccM4Qgn5.s:8099   .debug_str:00000000000010d7 .LASF196
     /tmp/ccM4Qgn5.s:7645   .debug_str:0000000000000188 .LASF197
     /tmp/ccM4Qgn5.s:8073   .debug_str:0000000000001022 .LASF198
     /tmp/ccM4Qgn5.s:7997   .debug_str:0000000000000cde .LASF199
     /tmp/ccM4Qgn5.s:7621   .debug_str:0000000000000095 .LASF200
     /tmp/ccM4Qgn5.s:7923   .debug_str:0000000000000a4e .LASF201
     /tmp/ccM4Qgn5.s:7743   .debug_str:000000000000047e .LASF202
     /tmp/ccM4Qgn5.s:7837   .debug_str:0000000000000777 .LASF203
     /tmp/ccM4Qgn5.s:7907   .debug_str:00000000000009bc .LASF204
     /tmp/ccM4Qgn5.s:7977   .debug_str:0000000000000c22 .LASF205
     /tmp/ccM4Qgn5.s:7961   .debug_str:0000000000000b8f .LASF206
     /tmp/ccM4Qgn5.s:7839   .debug_str:0000000000000788 .LASF207
     /tmp/ccM4Qgn5.s:8165   .debug_str:0000000000001344 .LASF208
     /tmp/ccM4Qgn5.s:8041   .debug_str:0000000000000e49 .LASF211
     /tmp/ccM4Qgn5.s:8147   .debug_str:0000000000001296 .LASF213
     /tmp/ccM4Qgn5.s:2342   .text:0000000000000e4c .LFB32
     /tmp/ccM4Qgn5.s:2390   .text:0000000000000e94 .LFE32
     /tmp/ccM4Qgn5.s:7809   .debug_str:000000000000066e .LASF210
     /tmp/ccM4Qgn5.s:6499   .debug_loc:0000000000000000 .LLST69
GAS LISTING /tmp/ccM4Qgn5.s 			page 80


     /tmp/ccM4Qgn5.s:8027   .debug_str:0000000000000dcf .LASF209
     /tmp/ccM4Qgn5.s:6528   .debug_loc:0000000000000075 .LLST70
     /tmp/ccM4Qgn5.s:2365   .text:0000000000000e74 .LVL237
     /tmp/ccM4Qgn5.s:7745   .debug_str:0000000000000485 .LASF217
     /tmp/ccM4Qgn5.s:8201   .debug_str:0000000000001463 .LASF219
     /tmp/ccM4Qgn5.s:2285   .text:0000000000000de4 .LFB31
     /tmp/ccM4Qgn5.s:2336   .text:0000000000000e4c .LFE31
     /tmp/ccM4Qgn5.s:6535   .debug_loc:0000000000000098 .LLST68
     /tmp/ccM4Qgn5.s:2305   .text:0000000000000e08 .LVL230
     /tmp/ccM4Qgn5.s:2310   .text:0000000000000e14 .LVL231
     /tmp/ccM4Qgn5.s:2315   .text:0000000000000e20 .LVL232
     /tmp/ccM4Qgn5.s:2322   .text:0000000000000e38 .LVL233
     /tmp/ccM4Qgn5.s:8101   .debug_str:00000000000010de .LASF212
     /tmp/ccM4Qgn5.s:8089   .debug_str:0000000000001062 .LASF214
     /tmp/ccM4Qgn5.s:2199   .text:0000000000000d64 .LFB30
     /tmp/ccM4Qgn5.s:2279   .text:0000000000000de4 .LFE30
     /tmp/ccM4Qgn5.s:7947   .debug_str:0000000000000b1f .LASF215
     /tmp/ccM4Qgn5.s:6553   .debug_loc:00000000000000e4 .LLST64
     /tmp/ccM4Qgn5.s:6572   .debug_loc:0000000000000140 .LLST65
     /tmp/ccM4Qgn5.s:6579   .debug_loc:0000000000000163 .LLST66
     /tmp/ccM4Qgn5.s:2234   .text:0000000000000d98 .LBB26
     /tmp/ccM4Qgn5.s:2253   .text:0000000000000dbc .LBE26
     /tmp/ccM4Qgn5.s:8125   .debug_str:00000000000011e6 .LASF216
     /tmp/ccM4Qgn5.s:6591   .debug_loc:000000000000019a .LLST67
     /tmp/ccM4Qgn5.s:2245   .text:0000000000000db4 .LVL224
     /tmp/ccM4Qgn5.s:7773   .debug_str:000000000000054c .LASF218
     /tmp/ccM4Qgn5.s:7855   .debug_str:000000000000080f .LASF220
     /tmp/ccM4Qgn5.s:2116   .text:0000000000000cdc .LFB29
     /tmp/ccM4Qgn5.s:2193   .text:0000000000000d64 .LFE29
     /tmp/ccM4Qgn5.s:7869   .debug_str:000000000000087c .LASF221
     /tmp/ccM4Qgn5.s:6598   .debug_loc:00000000000001bd .LLST61
     /tmp/ccM4Qgn5.s:6620   .debug_loc:000000000000021c .LLST62
     /tmp/ccM4Qgn5.s:7571   .debug_ranges:0000000000000000 .Ldebug_ranges0
     /tmp/ccM4Qgn5.s:6631   .debug_loc:0000000000000252 .LLST63
     /tmp/ccM4Qgn5.s:2157   .text:0000000000000d2c .LVL214
     /tmp/ccM4Qgn5.s:2172   .text:0000000000000d48 .LVL216
     /tmp/ccM4Qgn5.s:8167   .debug_str:0000000000001352 .LASF222
     /tmp/ccM4Qgn5.s:8003   .debug_str:0000000000000d0e .LASF223
     /tmp/ccM4Qgn5.s:1963   .text:0000000000000bb0 .LFB28
     /tmp/ccM4Qgn5.s:2110   .text:0000000000000cdc .LFE28
     /tmp/ccM4Qgn5.s:7713   .debug_str:00000000000003cc .LASF224
     /tmp/ccM4Qgn5.s:6638   .debug_loc:0000000000000275 .LLST58
     /tmp/ccM4Qgn5.s:7737   .debug_str:000000000000044f .LASF225
     /tmp/ccM4Qgn5.s:6660   .debug_loc:00000000000002d4 .LLST59
     /tmp/ccM4Qgn5.s:7657   .debug_str:00000000000001eb .LASF226
     /tmp/ccM4Qgn5.s:6671   .debug_loc:000000000000030a .LLST60
     /tmp/ccM4Qgn5.s:1987   .text:0000000000000bdc .LVL199
     /tmp/ccM4Qgn5.s:2025   .text:0000000000000c30 .LVL205
     /tmp/ccM4Qgn5.s:2053   .text:0000000000000c5c .LVL208
     /tmp/ccM4Qgn5.s:2091   .text:0000000000000cb4 .LVL209
     /tmp/ccM4Qgn5.s:2105   .text:0000000000000cd4 .LVL210
     /tmp/ccM4Qgn5.s:8087   .debug_str:0000000000001052 .LASF227
     /tmp/ccM4Qgn5.s:7987   .debug_str:0000000000000c7f .LASF228
     /tmp/ccM4Qgn5.s:1686   .text:00000000000009a0 .LFB27
     /tmp/ccM4Qgn5.s:1834   .text:0000000000000ad4 .LFE27
     /tmp/ccM4Qgn5.s:6682   .debug_loc:0000000000000340 .LLST55
     /tmp/ccM4Qgn5.s:6700   .debug_loc:000000000000038c .LLST56
GAS LISTING /tmp/ccM4Qgn5.s 			page 81


     /tmp/ccM4Qgn5.s:1708   .text:00000000000009cc .LVL167
     /tmp/ccM4Qgn5.s:1713   .text:00000000000009dc .LVL168
     /tmp/ccM4Qgn5.s:1718   .text:00000000000009e8 .LVL169
     /tmp/ccM4Qgn5.s:1723   .text:00000000000009f8 .LVL170
     /tmp/ccM4Qgn5.s:1730   .text:0000000000000a10 .LVL171
     /tmp/ccM4Qgn5.s:1737   .text:0000000000000a28 .LVL172
     /tmp/ccM4Qgn5.s:1742   .text:0000000000000a38 .LVL173
     /tmp/ccM4Qgn5.s:1747   .text:0000000000000a48 .LVL174
     /tmp/ccM4Qgn5.s:1760   .text:0000000000000a5c .LVL176
     /tmp/ccM4Qgn5.s:1772   .text:0000000000000a74 .LVL178
     /tmp/ccM4Qgn5.s:1785   .text:0000000000000a88 .LVL180
     /tmp/ccM4Qgn5.s:1797   .text:0000000000000aa0 .LVL182
     /tmp/ccM4Qgn5.s:1810   .text:0000000000000ab4 .LVL184
     /tmp/ccM4Qgn5.s:7669   .debug_str:0000000000000245 .LASF229
     /tmp/ccM4Qgn5.s:7983   .debug_str:0000000000000c4f .LASF230
     /tmp/ccM4Qgn5.s:1606   .text:0000000000000950 .LFB26
     /tmp/ccM4Qgn5.s:1654   .text:00000000000009a0 .LFE26
     /tmp/ccM4Qgn5.s:6707   .debug_loc:00000000000003af .LLST52
     /tmp/ccM4Qgn5.s:6725   .debug_loc:00000000000003fb .LLST53
     /tmp/ccM4Qgn5.s:6747   .debug_loc:000000000000045a .LLST54
     /tmp/ccM4Qgn5.s:1629   .text:0000000000000978 .LVL161
     /tmp/ccM4Qgn5.s:1636   .text:0000000000000988 .LVL162
     /tmp/ccM4Qgn5.s:7711   .debug_str:00000000000003bb .LASF231
     /tmp/ccM4Qgn5.s:7813   .debug_str:000000000000069e .LASF232
     /tmp/ccM4Qgn5.s:1328   .text:0000000000000788 .LFB25
     /tmp/ccM4Qgn5.s:1501   .text:00000000000008a4 .LFE25
     /tmp/ccM4Qgn5.s:6754   .debug_loc:000000000000047d .LLST43
     /tmp/ccM4Qgn5.s:7755   .debug_str:00000000000004cc .LASF233
     /tmp/ccM4Qgn5.s:6776   .debug_loc:00000000000004dc .LLST46
     /tmp/ccM4Qgn5.s:1403   .text:0000000000000804 .LVL132
     /tmp/ccM4Qgn5.s:1411   .text:0000000000000814 .LVL135
     /tmp/ccM4Qgn5.s:1443   .text:0000000000000840 .LVL139
     /tmp/ccM4Qgn5.s:1360   .text:00000000000007b4 .LBB16
     /tmp/ccM4Qgn5.s:1397   .text:00000000000007fc .LBE16
     /tmp/ccM4Qgn5.s:6791   .debug_loc:0000000000000525 .LLST44
     /tmp/ccM4Qgn5.s:1364   .text:00000000000007bc .LVL124
     /tmp/ccM4Qgn5.s:1372   .text:00000000000007cc .LVL127
     /tmp/ccM4Qgn5.s:1379   .text:00000000000007dc .LVL128
     /tmp/ccM4Qgn5.s:1384   .text:00000000000007e8 .LVL129
     /tmp/ccM4Qgn5.s:1391   .text:00000000000007f8 .LVL130
     /tmp/ccM4Qgn5.s:1451   .text:0000000000000844 .LBB17
     /tmp/ccM4Qgn5.s:1497   .text:00000000000008a4 .LBE17
     /tmp/ccM4Qgn5.s:6802   .debug_loc:000000000000055b .LLST45
     /tmp/ccM4Qgn5.s:1456   .text:0000000000000850 .LVL141
     /tmp/ccM4Qgn5.s:1466   .text:0000000000000864 .LVL142
     /tmp/ccM4Qgn5.s:1474   .text:0000000000000874 .LVL145
     /tmp/ccM4Qgn5.s:1481   .text:0000000000000884 .LVL146
     /tmp/ccM4Qgn5.s:1486   .text:0000000000000890 .LVL147
     /tmp/ccM4Qgn5.s:1493   .text:00000000000008a0 .LVL148
     /tmp/ccM4Qgn5.s:7991   .debug_str:0000000000000cb5 .LASF234
     /tmp/ccM4Qgn5.s:8145   .debug_str:0000000000001273 .LASF235
     /tmp/ccM4Qgn5.s:1507   .text:00000000000008a4 .LFB24
     /tmp/ccM4Qgn5.s:1600   .text:0000000000000950 .LFE24
     /tmp/ccM4Qgn5.s:7859   .debug_str:0000000000000828 .LASF236
     /tmp/ccM4Qgn5.s:6813   .debug_loc:0000000000000591 .LLST47
     /tmp/ccM4Qgn5.s:6831   .debug_loc:00000000000005dd .LLST48
     /tmp/ccM4Qgn5.s:6849   .debug_loc:0000000000000629 .LLST49
GAS LISTING /tmp/ccM4Qgn5.s 			page 82


     /tmp/ccM4Qgn5.s:6867   .debug_loc:0000000000000675 .LLST50
     /tmp/ccM4Qgn5.s:8055   .debug_str:0000000000000ebd .LASF237
     /tmp/ccM4Qgn5.s:6885   .debug_loc:00000000000006c1 .LLST51
     /tmp/ccM4Qgn5.s:1539   .text:00000000000008ec .LVL151
     /tmp/ccM4Qgn5.s:1562   .text:0000000000000914 .LVL153
     /tmp/ccM4Qgn5.s:1570   .text:0000000000000924 .LVL154
     /tmp/ccM4Qgn5.s:7995   .debug_str:0000000000000cd4 .LASF238
     /tmp/ccM4Qgn5.s:8169   .debug_str:000000000000135a .LASF239
     /tmp/ccM4Qgn5.s:1290   .text:0000000000000750 .LFB23
     /tmp/ccM4Qgn5.s:1322   .text:0000000000000788 .LFE23
     /tmp/ccM4Qgn5.s:7655   .debug_str:00000000000001e5 .LASF240
     /tmp/ccM4Qgn5.s:6896   .debug_loc:00000000000006f7 .LLST40
     /tmp/ccM4Qgn5.s:8207   .debug_str:00000000000014ae .LASF241
     /tmp/ccM4Qgn5.s:6910   .debug_loc:0000000000000730 .LLST41
     /tmp/ccM4Qgn5.s:6924   .debug_loc:0000000000000769 .LLST42
     /tmp/ccM4Qgn5.s:1305   .text:0000000000000768 .LVL120
     /tmp/ccM4Qgn5.s:1309   .text:0000000000000770 .LVL121
     /tmp/ccM4Qgn5.s:7873   .debug_str:0000000000000899 .LASF242
     /tmp/ccM4Qgn5.s:7705   .debug_str:0000000000000369 .LASF243
     /tmp/ccM4Qgn5.s:1857   .text:0000000000000ad4 .LFB22
     /tmp/ccM4Qgn5.s:1952   .text:0000000000000bb0 .LFE22
     /tmp/ccM4Qgn5.s:1910   .text:0000000000000b64 .LBB23
     /tmp/ccM4Qgn5.s:1938   .text:0000000000000b9c .LBE23
     /tmp/ccM4Qgn5.s:6931   .debug_loc:000000000000078c .LLST57
     /tmp/ccM4Qgn5.s:1919   .text:0000000000000b74 .LVL195
     /tmp/ccM4Qgn5.s:1874   .text:0000000000000af8 .LVL188
     /tmp/ccM4Qgn5.s:1884   .text:0000000000000b1c .LVL189
     /tmp/ccM4Qgn5.s:1891   .text:0000000000000b34 .LVL190
     /tmp/ccM4Qgn5.s:1896   .text:0000000000000b44 .LVL191
     /tmp/ccM4Qgn5.s:1903   .text:0000000000000b54 .LVL192
     /tmp/ccM4Qgn5.s:1908   .text:0000000000000b64 .LVL193
     /tmp/ccM4Qgn5.s:7799   .debug_str:0000000000000614 .LASF244
     /tmp/ccM4Qgn5.s:7921   .debug_str:0000000000000a2e .LASF247
     /tmp/ccM4Qgn5.s:1156   .text:0000000000000664 .LFB21
     /tmp/ccM4Qgn5.s:1284   .text:0000000000000750 .LFE21
     /tmp/ccM4Qgn5.s:6943   .debug_loc:00000000000007c3 .LLST37
     /tmp/ccM4Qgn5.s:6969   .debug_loc:0000000000000835 .LLST38
     /tmp/ccM4Qgn5.s:8157   .debug_str:0000000000001303 .LASF245
     /tmp/ccM4Qgn5.s:7002   .debug_loc:00000000000008bd .LLST39
     /tmp/ccM4Qgn5.s:1219   .text:00000000000006cc .LVL113
     /tmp/ccM4Qgn5.s:1241   .text:00000000000006fc .LVL114
     /tmp/ccM4Qgn5.s:1252   .text:0000000000000714 .LVL115
     /tmp/ccM4Qgn5.s:1260   .text:0000000000000728 .LVL116
     /tmp/ccM4Qgn5.s:1268   .text:000000000000073c .LVL117
     /tmp/ccM4Qgn5.s:7637   .debug_str:0000000000000130 .LASF246
     /tmp/ccM4Qgn5.s:8133   .debug_str:0000000000001223 .LASF248
     /tmp/ccM4Qgn5.s:1055   .text:0000000000000594 .LFB20
     /tmp/ccM4Qgn5.s:1150   .text:0000000000000664 .LFE20
     /tmp/ccM4Qgn5.s:7013   .debug_loc:00000000000008f3 .LLST35
     /tmp/ccM4Qgn5.s:1100   .text:0000000000000608 .LBB13
     /tmp/ccM4Qgn5.s:1133   .text:000000000000064c .LBE13
     /tmp/ccM4Qgn5.s:7031   .debug_loc:000000000000093f .LLST36
     /tmp/ccM4Qgn5.s:1122   .text:0000000000000634 .LVL103
     /tmp/ccM4Qgn5.s:1127   .text:0000000000000644 .LVL104
     /tmp/ccM4Qgn5.s:1077   .text:00000000000005c0 .LVL98
     /tmp/ccM4Qgn5.s:1084   .text:00000000000005d8 .LVL99
     /tmp/ccM4Qgn5.s:1091   .text:00000000000005f0 .LVL100
GAS LISTING /tmp/ccM4Qgn5.s 			page 83


     /tmp/ccM4Qgn5.s:1098   .text:0000000000000608 .LVL101
     /tmp/ccM4Qgn5.s:8057   .debug_str:0000000000000ec6 .LASF249
     /tmp/ccM4Qgn5.s:7795   .debug_str:00000000000005e2 .LASF250
     /tmp/ccM4Qgn5.s:991    .text:0000000000000548 .LFB19
     /tmp/ccM4Qgn5.s:1032   .text:0000000000000594 .LFE19
     /tmp/ccM4Qgn5.s:7043   .debug_loc:0000000000000976 .LLST33
     /tmp/ccM4Qgn5.s:7057   .debug_loc:00000000000009af .LLST34
     /tmp/ccM4Qgn5.s:8159   .debug_str:0000000000001311 .LASF251
     /tmp/ccM4Qgn5.s:8113   .debug_str:000000000000115a .LASF254
     /tmp/ccM4Qgn5.s:875    .text:00000000000004b8 .LFB18
     /tmp/ccM4Qgn5.s:985    .text:0000000000000548 .LFE18
     /tmp/ccM4Qgn5.s:7071   .debug_loc:00000000000009e8 .LLST29
     /tmp/ccM4Qgn5.s:7090   .debug_loc:0000000000000a44 .LLST30
     /tmp/ccM4Qgn5.s:7679   .debug_str:00000000000002da .LASF252
     /tmp/ccM4Qgn5.s:7101   .debug_loc:0000000000000a7a .LLST31
     /tmp/ccM4Qgn5.s:7112   .debug_loc:0000000000000ab0 .LLST32
     /tmp/ccM4Qgn5.s:7989   .debug_str:0000000000000ca2 .LASF253
     /tmp/ccM4Qgn5.s:8161   .debug_str:000000000000131a .LASF255
     /tmp/ccM4Qgn5.s:785    .text:0000000000000450 .LFB17
     /tmp/ccM4Qgn5.s:869    .text:00000000000004b8 .LFE17
     /tmp/ccM4Qgn5.s:7123   .debug_loc:0000000000000ae6 .LLST23
     /tmp/ccM4Qgn5.s:7723   .debug_str:0000000000000411 .LASF256
     /tmp/ccM4Qgn5.s:7137   .debug_loc:0000000000000b1f .LLST24
     /tmp/ccM4Qgn5.s:7751   .debug_str:00000000000004b9 .LASF257
     /tmp/ccM4Qgn5.s:7154   .debug_loc:0000000000000b6b .LLST25
     /tmp/ccM4Qgn5.s:821    .text:0000000000000478 .LBB7
     /tmp/ccM4Qgn5.s:857    .text:00000000000004a8 .LBE7
     /tmp/ccM4Qgn5.s:7165   .debug_loc:0000000000000ba1 .LLST26
     /tmp/ccM4Qgn5.s:834    .text:000000000000048c .LBB8
     /tmp/ccM4Qgn5.s:856    .text:00000000000004a8 .LBE8
     /tmp/ccM4Qgn5.s:7957   .debug_str:0000000000000b64 .LASF258
     /tmp/ccM4Qgn5.s:7177   .debug_loc:0000000000000bd8 .LLST27
     /tmp/ccM4Qgn5.s:7725   .debug_str:000000000000041a .LASF259
     /tmp/ccM4Qgn5.s:7188   .debug_loc:0000000000000c0e .LLST28
     /tmp/ccM4Qgn5.s:7803   .debug_str:0000000000000647 .LASF260
     /tmp/ccM4Qgn5.s:7629   .debug_str:00000000000000d0 .LASF261
     /tmp/ccM4Qgn5.s:679    .text:00000000000003b4 .LFB16
     /tmp/ccM4Qgn5.s:779    .text:0000000000000450 .LFE16
     /tmp/ccM4Qgn5.s:7199   .debug_loc:0000000000000c44 .LLST20
     /tmp/ccM4Qgn5.s:7941   .debug_str:0000000000000af0 .LASF262
     /tmp/ccM4Qgn5.s:7691   .debug_str:000000000000031a .LASF263
     /tmp/ccM4Qgn5.s:7217   .debug_loc:0000000000000c90 .LLST21
     /tmp/ccM4Qgn5.s:744    .text:000000000000041c .LBB6
     /tmp/ccM4Qgn5.s:765    .text:000000000000043c .LBE6
     /tmp/ccM4Qgn5.s:7242   .debug_loc:0000000000000ce4 .LLST22
     /tmp/ccM4Qgn5.s:701    .text:00000000000003e4 .LVL59
     /tmp/ccM4Qgn5.s:7969   .debug_str:0000000000000bbf .LASF264
     /tmp/ccM4Qgn5.s:7893   .debug_str:000000000000092e .LASF265
     /tmp/ccM4Qgn5.s:625    .text:000000000000035c .LFB15
     /tmp/ccM4Qgn5.s:673    .text:00000000000003b4 .LFE15
     /tmp/ccM4Qgn5.s:7254   .debug_loc:0000000000000d1b .LLST18
     /tmp/ccM4Qgn5.s:7272   .debug_loc:0000000000000d67 .LLST19
     /tmp/ccM4Qgn5.s:650    .text:000000000000038c .LVL53
     /tmp/ccM4Qgn5.s:656    .text:000000000000039c .LVL54
     /tmp/ccM4Qgn5.s:7731   .debug_str:0000000000000431 .LASF266
     /tmp/ccM4Qgn5.s:8121   .debug_str:00000000000011a7 .LASF267
     /tmp/ccM4Qgn5.s:571    .text:0000000000000304 .LFB14
GAS LISTING /tmp/ccM4Qgn5.s 			page 84


     /tmp/ccM4Qgn5.s:619    .text:000000000000035c .LFE14
     /tmp/ccM4Qgn5.s:7290   .debug_loc:0000000000000db3 .LLST16
     /tmp/ccM4Qgn5.s:7308   .debug_loc:0000000000000dff .LLST17
     /tmp/ccM4Qgn5.s:596    .text:0000000000000334 .LVL46
     /tmp/ccM4Qgn5.s:602    .text:0000000000000344 .LVL47
     /tmp/ccM4Qgn5.s:7829   .debug_str:000000000000071d .LASF268
     /tmp/ccM4Qgn5.s:7675   .debug_str:0000000000000289 .LASF269
     /tmp/ccM4Qgn5.s:515    .text:00000000000002ac .LFB13
     /tmp/ccM4Qgn5.s:565    .text:0000000000000304 .LFE13
     /tmp/ccM4Qgn5.s:7326   .debug_loc:0000000000000e4b .LLST14
     /tmp/ccM4Qgn5.s:7344   .debug_loc:0000000000000e97 .LLST15
     /tmp/ccM4Qgn5.s:542    .text:00000000000002dc .LVL39
     /tmp/ccM4Qgn5.s:548    .text:00000000000002ec .LVL40
     /tmp/ccM4Qgn5.s:7653   .debug_str:00000000000001d4 .LASF270
     /tmp/ccM4Qgn5.s:7609   .debug_str:000000000000001b .LASF271
     /tmp/ccM4Qgn5.s:459    .text:0000000000000254 .LFB12
     /tmp/ccM4Qgn5.s:509    .text:00000000000002ac .LFE12
     /tmp/ccM4Qgn5.s:7351   .debug_loc:0000000000000eba .LLST12
     /tmp/ccM4Qgn5.s:7369   .debug_loc:0000000000000f06 .LLST13
     /tmp/ccM4Qgn5.s:486    .text:0000000000000284 .LVL32
     /tmp/ccM4Qgn5.s:492    .text:0000000000000294 .LVL33
     /tmp/ccM4Qgn5.s:7623   .debug_str:00000000000000ab .LASF272
     /tmp/ccM4Qgn5.s:8149   .debug_str:00000000000012bb .LASF273
     /tmp/ccM4Qgn5.s:388    .text:00000000000001f8 .LFB11
     /tmp/ccM4Qgn5.s:453    .text:0000000000000254 .LFE11
     /tmp/ccM4Qgn5.s:7825   .debug_str:0000000000000706 .LASF274
     /tmp/ccM4Qgn5.s:7815   .debug_str:00000000000006c2 .LASF275
     /tmp/ccM4Qgn5.s:8097   .debug_str:00000000000010b4 .LASF276
     /tmp/ccM4Qgn5.s:347    .text:00000000000001c8 .LFB10
     /tmp/ccM4Qgn5.s:382    .text:00000000000001f8 .LFE10
     /tmp/ccM4Qgn5.s:7699   .debug_str:0000000000000343 .LASF277
     /tmp/ccM4Qgn5.s:7787   .debug_str:00000000000005a7 .LASF278
     /tmp/ccM4Qgn5.s:318    .text:00000000000001a8 .LFB9
     /tmp/ccM4Qgn5.s:341    .text:00000000000001c8 .LFE9
     /tmp/ccM4Qgn5.s:7376   .debug_loc:0000000000000f29 .LLST11
     /tmp/ccM4Qgn5.s:8189   .debug_str:00000000000013f6 .LASF279
     /tmp/ccM4Qgn5.s:7701   .debug_str:0000000000000349 .LASF280
     /tmp/ccM4Qgn5.s:286    .text:0000000000000180 .LFB8
     /tmp/ccM4Qgn5.s:312    .text:00000000000001a8 .LFE8
     /tmp/ccM4Qgn5.s:7390   .debug_loc:0000000000000f62 .LLST10
     /tmp/ccM4Qgn5.s:7885   .debug_str:00000000000008eb .LASF281
     /tmp/ccM4Qgn5.s:8111   .debug_str:000000000000113f .LASF282
     /tmp/ccM4Qgn5.s:162    .text:00000000000000cc .LFB7
     /tmp/ccM4Qgn5.s:280    .text:0000000000000180 .LFE7
     /tmp/ccM4Qgn5.s:7404   .debug_loc:0000000000000f9b .LLST5
     /tmp/ccM4Qgn5.s:7423   .debug_loc:0000000000000ff7 .LLST6
     /tmp/ccM4Qgn5.s:7667   .debug_str:0000000000000240 .LASF283
     /tmp/ccM4Qgn5.s:7446   .debug_loc:0000000000001057 .LLST7
     /tmp/ccM4Qgn5.s:177    .text:00000000000000dc .LBB3
     /tmp/ccM4Qgn5.s:233    .text:000000000000012c .LBE3
     /tmp/ccM4Qgn5.s:7467   .debug_loc:00000000000010b5 .LLST8
     /tmp/ccM4Qgn5.s:7901   .debug_str:00000000000009a0 .LASF284
     /tmp/ccM4Qgn5.s:7483   .debug_loc:00000000000010ff .LLST9
     /tmp/ccM4Qgn5.s:7891   .debug_str:000000000000091a .LASF285
     /tmp/ccM4Qgn5.s:7811   .debug_str:0000000000000675 .LASF286
     /tmp/ccM4Qgn5.s:64     .text:0000000000000034 .LFB6
     /tmp/ccM4Qgn5.s:156    .text:00000000000000cc .LFE6
GAS LISTING /tmp/ccM4Qgn5.s 			page 85


     /tmp/ccM4Qgn5.s:7490   .debug_loc:0000000000001122 .LLST2
     /tmp/ccM4Qgn5.s:8107   .debug_str:000000000000110a .LASF287
     /tmp/ccM4Qgn5.s:7513   .debug_loc:0000000000001184 .LLST3
     /tmp/ccM4Qgn5.s:90     .text:0000000000000058 .LBB2
     /tmp/ccM4Qgn5.s:108    .text:0000000000000078 .LBE2
     /tmp/ccM4Qgn5.s:7524   .debug_loc:00000000000011ba .LLST4
     /tmp/ccM4Qgn5.s:114    .text:000000000000008c .LVL8
     /tmp/ccM4Qgn5.s:8135   .debug_str:000000000000123d .LASF288
     /tmp/ccM4Qgn5.s:7719   .debug_str:00000000000003f2 .LASF289
     /tmp/ccM4Qgn5.s:10     .text:0000000000000000 .LFB5
     /tmp/ccM4Qgn5.s:53     .text:0000000000000034 .LFE5
     /tmp/ccM4Qgn5.s:7536   .debug_loc:00000000000011f1 .LLST0
     /tmp/ccM4Qgn5.s:7547   .debug_loc:0000000000001227 .LLST1
     /tmp/ccM4Qgn5.s:7959   .debug_str:0000000000000b6c .LASF290
     /tmp/ccM4Qgn5.s:7717   .debug_str:00000000000003e7 .LASF292
     /tmp/ccM4Qgn5.s:7973   .debug_str:0000000000000bf4 .LASF291
     /tmp/ccM4Qgn5.s:7651   .debug_str:00000000000001c8 .LASF293
     /tmp/ccM4Qgn5.s:7635   .debug_str:000000000000011e .LASF294
     /tmp/ccM4Qgn5.s:7681   .debug_str:00000000000002e2 .LASF295
     /tmp/ccM4Qgn5.s:8095   .debug_str:0000000000001092 .LASF296
     /tmp/ccM4Qgn5.s:8035   .debug_str:0000000000000e13 .LASF297
     /tmp/ccM4Qgn5.s:2345   .text:0000000000000e4c .LVL235
     /tmp/ccM4Qgn5.s:2363   .text:0000000000000e6c .LVL236
     /tmp/ccM4Qgn5.s:2378   .text:0000000000000e84 .LVL238
     /tmp/ccM4Qgn5.s:2382   .text:0000000000000e8c .LVL239
     /tmp/ccM4Qgn5.s:2386   .text:0000000000000e90 .LVL240
     /tmp/ccM4Qgn5.s:2288   .text:0000000000000de4 .LVL228
     /tmp/ccM4Qgn5.s:2303   .text:0000000000000e00 .LVL229
     /tmp/ccM4Qgn5.s:2331   .text:0000000000000e44 .LVL234
     /tmp/ccM4Qgn5.s:2202   .text:0000000000000d64 .LVL220
     /tmp/ccM4Qgn5.s:2229   .text:0000000000000d94 .LVL222
     /tmp/ccM4Qgn5.s:2256   .text:0000000000000dc0 .LVL226
     /tmp/ccM4Qgn5.s:2260   .text:0000000000000dc4 .LVL227
     /tmp/ccM4Qgn5.s:2225   .text:0000000000000d90 .LVL221
     /tmp/ccM4Qgn5.s:2250   .text:0000000000000db8 .LVL225
     /tmp/ccM4Qgn5.s:2238   .text:0000000000000d9c .LVL223
     /tmp/ccM4Qgn5.s:2119   .text:0000000000000cdc .LVL211
     /tmp/ccM4Qgn5.s:2142   .text:0000000000000d04 .LVL212
     /tmp/ccM4Qgn5.s:2185   .text:0000000000000d58 .LVL218
     /tmp/ccM4Qgn5.s:2189   .text:0000000000000d60 .LVL219
     /tmp/ccM4Qgn5.s:2155   .text:0000000000000d24 .LVL213
     /tmp/ccM4Qgn5.s:2182   .text:0000000000000d54 .LVL217
     /tmp/ccM4Qgn5.s:1966   .text:0000000000000bb0 .LVL198
     /tmp/ccM4Qgn5.s:2040   .text:0000000000000c44 .LVL206
     /tmp/ccM4Qgn5.s:2046   .text:0000000000000c50 .LVL207
     /tmp/ccM4Qgn5.s:1996   .text:0000000000000bf0 .LVL200
     /tmp/ccM4Qgn5.s:1998   .text:0000000000000bf4 .LVL201
     /tmp/ccM4Qgn5.s:2002   .text:0000000000000bf8 .LVL202
     /tmp/ccM4Qgn5.s:2007   .text:0000000000000bfc .LVL203
     /tmp/ccM4Qgn5.s:2021   .text:0000000000000c20 .LVL204
     /tmp/ccM4Qgn5.s:1689   .text:00000000000009a0 .LVL165
     /tmp/ccM4Qgn5.s:1706   .text:00000000000009c4 .LVL166
     /tmp/ccM4Qgn5.s:1829   .text:0000000000000acc .LVL187
     /tmp/ccM4Qgn5.s:1751   .text:0000000000000a4c .LVL175
     /tmp/ccM4Qgn5.s:1826   .text:0000000000000ac8 .LVL186
     /tmp/ccM4Qgn5.s:1609   .text:0000000000000950 .LVL160
     /tmp/ccM4Qgn5.s:1650   .text:000000000000099c .LVL164
GAS LISTING /tmp/ccM4Qgn5.s 			page 86


     /tmp/ccM4Qgn5.s:1646   .text:0000000000000994 .LVL163
     /tmp/ccM4Qgn5.s:1331   .text:0000000000000788 .LVL122
     /tmp/ccM4Qgn5.s:1349   .text:00000000000007a8 .LVL123
     /tmp/ccM4Qgn5.s:1428   .text:0000000000000828 .LVL137
     /tmp/ccM4Qgn5.s:1434   .text:0000000000000834 .LVL138
     /tmp/ccM4Qgn5.s:1405   .text:0000000000000808 .LVL133
     /tmp/ccM4Qgn5.s:1409   .text:000000000000080c .LVL134
     /tmp/ccM4Qgn5.s:1414   .text:0000000000000818 .LVL136
     /tmp/ccM4Qgn5.s:1447   .text:0000000000000844 .LVL140
     /tmp/ccM4Qgn5.s:1366   .text:00000000000007c0 .LVL125
     /tmp/ccM4Qgn5.s:1370   .text:00000000000007c4 .LVL126
     /tmp/ccM4Qgn5.s:1395   .text:00000000000007fc .LVL131
     /tmp/ccM4Qgn5.s:1468   .text:0000000000000868 .LVL143
     /tmp/ccM4Qgn5.s:1472   .text:000000000000086c .LVL144
     /tmp/ccM4Qgn5.s:1510   .text:00000000000008a4 .LVL149
     /tmp/ccM4Qgn5.s:1536   .text:00000000000008e0 .LVL150
     /tmp/ccM4Qgn5.s:1589   .text:0000000000000940 .LVL157
     /tmp/ccM4Qgn5.s:1586   .text:000000000000093c .LVL156
     /tmp/ccM4Qgn5.s:1592   .text:0000000000000944 .LVL158
     /tmp/ccM4Qgn5.s:1595   .text:0000000000000948 .LVL159
     /tmp/ccM4Qgn5.s:1541   .text:00000000000008f0 .LVL152
     /tmp/ccM4Qgn5.s:1583   .text:0000000000000938 .LVL155
     /tmp/ccM4Qgn5.s:1293   .text:0000000000000750 .LVL119
     /tmp/ccM4Qgn5.s:1914   .text:0000000000000b6c .LVL194
     /tmp/ccM4Qgn5.s:1947   .text:0000000000000ba8 .LVL197
     /tmp/ccM4Qgn5.s:1159   .text:0000000000000664 .LVL108
     /tmp/ccM4Qgn5.s:1198   .text:00000000000006b0 .LVL110
     /tmp/ccM4Qgn5.s:1209   .text:00000000000006bc .LVL111
     /tmp/ccM4Qgn5.s:1213   .text:00000000000006c4 .LVL112
     /tmp/ccM4Qgn5.s:1276   .text:000000000000074c .LVL118
     /tmp/ccM4Qgn5.s:1189   .text:00000000000006a0 .LVL109
     /tmp/ccM4Qgn5.s:1058   .text:0000000000000594 .LVL96
     /tmp/ccM4Qgn5.s:1075   .text:00000000000005b8 .LVL97
     /tmp/ccM4Qgn5.s:1145   .text:000000000000065c .LVL107
     /tmp/ccM4Qgn5.s:1103   .text:000000000000060c .LVL102
     /tmp/ccM4Qgn5.s:1142   .text:0000000000000658 .LVL106
     /tmp/ccM4Qgn5.s:994    .text:0000000000000548 .LVL93
     /tmp/ccM4Qgn5.s:1010   .text:0000000000000568 .LVL95
     /tmp/ccM4Qgn5.s:1006   .text:0000000000000560 .LVL94
     /tmp/ccM4Qgn5.s:878    .text:00000000000004b8 .LVL80
     /tmp/ccM4Qgn5.s:893    .text:00000000000004d4 .LVL81
     /tmp/ccM4Qgn5.s:977    .text:0000000000000540 .LVL91
     /tmp/ccM4Qgn5.s:982    .text:0000000000000544 .LVL92
     /tmp/ccM4Qgn5.s:926    .text:0000000000000500 .LVL85
     /tmp/ccM4Qgn5.s:937    .text:000000000000050c .LVL86
     /tmp/ccM4Qgn5.s:895    .text:00000000000004d8 .LVL82
     /tmp/ccM4Qgn5.s:901    .text:00000000000004dc .LVL83
     /tmp/ccM4Qgn5.s:921    .text:00000000000004f8 .LVL84
     /tmp/ccM4Qgn5.s:945    .text:0000000000000514 .LVL88
     /tmp/ccM4Qgn5.s:951    .text:0000000000000518 .LVL89
     /tmp/ccM4Qgn5.s:971    .text:0000000000000534 .LVL90
     /tmp/ccM4Qgn5.s:788    .text:0000000000000450 .LVL67
     /tmp/ccM4Qgn5.s:861    .text:00000000000004ac .LVL79
     /tmp/ccM4Qgn5.s:796    .text:000000000000045c .LVL68
     /tmp/ccM4Qgn5.s:799    .text:0000000000000460 .LVL69
     /tmp/ccM4Qgn5.s:852    .text:00000000000004a4 .LVL77
     /tmp/ccM4Qgn5.s:854    .text:00000000000004a8 .LVL78
GAS LISTING /tmp/ccM4Qgn5.s 			page 87


     /tmp/ccM4Qgn5.s:819    .text:0000000000000478 .LVL71
     /tmp/ccM4Qgn5.s:849    .text:00000000000004a0 .LVL76
     /tmp/ccM4Qgn5.s:825    .text:0000000000000480 .LVL72
     /tmp/ccM4Qgn5.s:829    .text:0000000000000484 .LVL73
     /tmp/ccM4Qgn5.s:838    .text:0000000000000490 .LVL74
     /tmp/ccM4Qgn5.s:844    .text:0000000000000498 .LVL75
     /tmp/ccM4Qgn5.s:682    .text:00000000000003b4 .LVL57
     /tmp/ccM4Qgn5.s:699    .text:00000000000003dc .LVL58
     /tmp/ccM4Qgn5.s:774    .text:0000000000000448 .LVL66
     /tmp/ccM4Qgn5.s:730    .text:000000000000040c .LVL60
     /tmp/ccM4Qgn5.s:734    .text:0000000000000410 .LVL61
     /tmp/ccM4Qgn5.s:739    .text:0000000000000418 .LVL62
     /tmp/ccM4Qgn5.s:742    .text:000000000000041c .LVL63
     /tmp/ccM4Qgn5.s:747    .text:0000000000000420 .LVL64
     /tmp/ccM4Qgn5.s:628    .text:000000000000035c .LVL50
     /tmp/ccM4Qgn5.s:648    .text:0000000000000384 .LVL52
     /tmp/ccM4Qgn5.s:668    .text:00000000000003ac .LVL56
     /tmp/ccM4Qgn5.s:646    .text:0000000000000380 .LVL51
     /tmp/ccM4Qgn5.s:665    .text:00000000000003a8 .LVL55
     /tmp/ccM4Qgn5.s:574    .text:0000000000000304 .LVL43
     /tmp/ccM4Qgn5.s:594    .text:000000000000032c .LVL45
     /tmp/ccM4Qgn5.s:614    .text:0000000000000354 .LVL49
     /tmp/ccM4Qgn5.s:592    .text:0000000000000328 .LVL44
     /tmp/ccM4Qgn5.s:611    .text:0000000000000350 .LVL48
     /tmp/ccM4Qgn5.s:518    .text:00000000000002ac .LVL36
     /tmp/ccM4Qgn5.s:540    .text:00000000000002d4 .LVL38
     /tmp/ccM4Qgn5.s:557    .text:00000000000002f8 .LVL41
     /tmp/ccM4Qgn5.s:535    .text:00000000000002cc .LVL37
     /tmp/ccM4Qgn5.s:560    .text:00000000000002fc .LVL42
     /tmp/ccM4Qgn5.s:462    .text:0000000000000254 .LVL29
     /tmp/ccM4Qgn5.s:484    .text:000000000000027c .LVL31
     /tmp/ccM4Qgn5.s:501    .text:00000000000002a0 .LVL34
     /tmp/ccM4Qgn5.s:479    .text:0000000000000274 .LVL30
     /tmp/ccM4Qgn5.s:504    .text:00000000000002a4 .LVL35
     /tmp/ccM4Qgn5.s:321    .text:00000000000001a8 .LVL25
     /tmp/ccM4Qgn5.s:331    .text:00000000000001b8 .LVL26
     /tmp/ccM4Qgn5.s:289    .text:0000000000000180 .LVL23
     /tmp/ccM4Qgn5.s:301    .text:0000000000000194 .LVL24
     /tmp/ccM4Qgn5.s:165    .text:00000000000000cc .LVL11
     /tmp/ccM4Qgn5.s:217    .text:0000000000000118 .LVL16
     /tmp/ccM4Qgn5.s:230    .text:000000000000012c .LVL19
     /tmp/ccM4Qgn5.s:236    .text:0000000000000130 .LVL20
     /tmp/ccM4Qgn5.s:174    .text:00000000000000dc .LVL12
     /tmp/ccM4Qgn5.s:227    .text:0000000000000128 .LVL18
     /tmp/ccM4Qgn5.s:239    .text:0000000000000134 .LVL21
     /tmp/ccM4Qgn5.s:248    .text:0000000000000144 .LVL22
     /tmp/ccM4Qgn5.s:223    .text:0000000000000124 .LVL17
     /tmp/ccM4Qgn5.s:180    .text:00000000000000e0 .LVL13
     /tmp/ccM4Qgn5.s:194    .text:00000000000000f4 .LVL14
     /tmp/ccM4Qgn5.s:67     .text:0000000000000034 .LVL3
     /tmp/ccM4Qgn5.s:94     .text:0000000000000060 .LVL6
     /tmp/ccM4Qgn5.s:148    .text:00000000000000c0 .LVL9
     /tmp/ccM4Qgn5.s:151    .text:00000000000000c4 .LVL10
     /tmp/ccM4Qgn5.s:84     .text:0000000000000054 .LVL4
     /tmp/ccM4Qgn5.s:89     .text:0000000000000058 .LVL5
     /tmp/ccM4Qgn5.s:14     .text:0000000000000000 .LVL0
     /tmp/ccM4Qgn5.s:34     .text:000000000000001c .LVL1
GAS LISTING /tmp/ccM4Qgn5.s 			page 88


     /tmp/ccM4Qgn5.s:38     .text:0000000000000020 .LVL2
     /tmp/ccM4Qgn5.s:2408   .debug_info:0000000000000000 .Ldebug_info0
     /tmp/ccM4Qgn5.s:187    .text:00000000000000e8 .LBB4
     /tmp/ccM4Qgn5.s:205    .text:0000000000000108 .LBE4
     /tmp/ccM4Qgn5.s:211    .text:0000000000000110 .LBB5
     /tmp/ccM4Qgn5.s:232    .text:000000000000012c .LBE5
     /tmp/ccM4Qgn5.s:897    .text:00000000000004d8 .LBB9
     /tmp/ccM4Qgn5.s:903    .text:00000000000004dc .LBE9
     /tmp/ccM4Qgn5.s:907    .text:00000000000004e0 .LBB10
     /tmp/ccM4Qgn5.s:928    .text:0000000000000500 .LBE10
     /tmp/ccM4Qgn5.s:947    .text:0000000000000514 .LBB11
     /tmp/ccM4Qgn5.s:953    .text:0000000000000518 .LBE11
     /tmp/ccM4Qgn5.s:957    .text:000000000000051c .LBB12
     /tmp/ccM4Qgn5.s:979    .text:0000000000000540 .LBE12
     /tmp/ccM4Qgn5.s:1399   .text:00000000000007fc .LBB18
     /tmp/ccM4Qgn5.s:1416   .text:0000000000000818 .LBE18
     /tmp/ccM4Qgn5.s:1438   .text:0000000000000834 .LBB19
     /tmp/ccM4Qgn5.s:1449   .text:0000000000000844 .LBE19
     /tmp/ccM4Qgn5.s:2136   .text:0000000000000cfc .LBB24
     /tmp/ccM4Qgn5.s:2139   .text:0000000000000d00 .LBE24
     /tmp/ccM4Qgn5.s:2144   .text:0000000000000d04 .LBB25
     /tmp/ccM4Qgn5.s:2165   .text:0000000000000d38 .LBE25

UNDEFINED SYMBOLS
_Z11buddy_allocP14buddyAllocatorm
_ZN8KConsole15trapPrintStringEPKc
_ZN8KConsole18trapPrintStringIntEPKcmi
_ZN8KConsole12trapPrintIntEmii
_Z10buddy_initPvm
_Z11getDeg2Ceilm
_Z10buddy_freeP14buddyAllocatorPvm
