GAS LISTING /tmp/ccdjN2FA.s 			page 1


   1              		.file	"slabAllocator.cpp"
   2              		.option pic
   3              		.option norelax
   4              		.text
   5              	.Ltext0:
   6              		.align	2
   7              		.globl	_Z6strcpyPKcPc
   9              	_Z6strcpyPKcPc:
  10              	.LFB5:
  11              		.file 1 "src/slabAllocator.cpp"
   1:src/slabAllocator.cpp **** #include "../h/slabAllocator.hpp"
   2:src/slabAllocator.cpp **** #include "../h/buddyAllocator.hpp"
   3:src/slabAllocator.cpp **** #include "../h/KConsole.hpp"
   4:src/slabAllocator.cpp **** 
   5:src/slabAllocator.cpp **** #define SLAB_ALLOCATED_LOOKUP 32
   6:src/slabAllocator.cpp **** #define CACHE_NAME_SIZE 64
   7:src/slabAllocator.cpp **** #define CACHE_BUFFER_SMALL 5
   8:src/slabAllocator.cpp **** #define CACHE_BUFFER_BIG 17
   9:src/slabAllocator.cpp **** #define CACHE_BUFFER_SIZE CACHE_BUFFER_BIG - CACHE_BUFFER_SMALL + 1
  10:src/slabAllocator.cpp **** #define CACHE_OF_CACHES_SLAB_SIZE 2
  11:src/slabAllocator.cpp **** 
  12:src/slabAllocator.cpp **** typedef struct slab_s
  13:src/slabAllocator.cpp **** {
  14:src/slabAllocator.cpp ****     slab_s* prev;
  15:src/slabAllocator.cpp ****     slab_s* next;
  16:src/slabAllocator.cpp ****     kmem_cache_t* owner;
  17:src/slabAllocator.cpp ****     size_t numOfObjects;
  18:src/slabAllocator.cpp ****     size_t numOfAllocatedObjects;
  19:src/slabAllocator.cpp ****     void* startAddress;
  20:src/slabAllocator.cpp ****     unsigned char allocated[SLAB_ALLOCATED_LOOKUP];
  21:src/slabAllocator.cpp **** }slab_t;
  22:src/slabAllocator.cpp **** 
  23:src/slabAllocator.cpp **** typedef struct kmem_cache_s
  24:src/slabAllocator.cpp **** {
  25:src/slabAllocator.cpp ****     char cacheName[CACHE_NAME_SIZE];
  26:src/slabAllocator.cpp ****     kmem_cache_s* next;
  27:src/slabAllocator.cpp ****     kmem_cache_s* prev;
  28:src/slabAllocator.cpp ****     slab_t* slabs_empty;
  29:src/slabAllocator.cpp ****     slab_t* slabs_full;
  30:src/slabAllocator.cpp ****     slab_t* slabs_partial;
  31:src/slabAllocator.cpp ****     size_t slab_size;
  32:src/slabAllocator.cpp ****     size_t obj_size;
  33:src/slabAllocator.cpp ****     void (*ctor)(void*);
  34:src/slabAllocator.cpp ****     void (*dtor)(void*);
  35:src/slabAllocator.cpp **** }kmem_cache_t;
  36:src/slabAllocator.cpp **** 
  37:src/slabAllocator.cpp **** typedef struct slab_allocator_s
  38:src/slabAllocator.cpp **** {
  39:src/slabAllocator.cpp ****     buddyAllocator* buddy;
  40:src/slabAllocator.cpp ****     kmem_cache_t* cacheList;
  41:src/slabAllocator.cpp ****     kmem_cache_t* cachesBuffers[CACHE_BUFFER_SIZE];
  42:src/slabAllocator.cpp ****     kmem_cache_t cacheOfCaches;
  43:src/slabAllocator.cpp **** }slab_allocator_t;
  44:src/slabAllocator.cpp **** 
  45:src/slabAllocator.cpp **** //singleton slab allocator
  46:src/slabAllocator.cpp **** static slab_allocator_t* slabAllocator = nullptr;
  47:src/slabAllocator.cpp **** 
GAS LISTING /tmp/ccdjN2FA.s 			page 2


  48:src/slabAllocator.cpp **** //helping functions
  49:src/slabAllocator.cpp **** void strcpy(const char* src, char* dst)
  50:src/slabAllocator.cpp **** {
  12              		.loc 1 50 1
  13              		.cfi_startproc
  14              	.LVL0:
  15 0000 130101FF 		addi	sp,sp,-16
  16              		.cfi_def_cfa_offset 16
  17 0004 23348100 		sd	s0,8(sp)
  18              		.cfi_offset 8, -8
  19 0008 13040101 		addi	s0,sp,16
  20              		.cfi_def_cfa 8, 0
  21              	.L3:
  51:src/slabAllocator.cpp ****     while(*src != '\0')
  22              		.loc 1 51 5
  23              		.loc 1 51 16
  24              		.loc 1 51 11 is_stmt 0
  25 000c 83470500 		lbu	a5,0(a0)
  26              		.loc 1 51 16
  27 0010 638A0700 		beqz	a5,.L2
  52:src/slabAllocator.cpp ****     {
  53:src/slabAllocator.cpp ****         *dst = *src;
  28              		.loc 1 53 9 is_stmt 1
  29              		.loc 1 53 14 is_stmt 0
  30 0014 2380F500 		sb	a5,0(a1)
  54:src/slabAllocator.cpp ****         src++;
  31              		.loc 1 54 9 is_stmt 1
  32              		.loc 1 54 12 is_stmt 0
  33 0018 13051500 		addi	a0,a0,1
  34              	.LVL1:
  55:src/slabAllocator.cpp ****         dst++;
  35              		.loc 1 55 9 is_stmt 1
  36              		.loc 1 55 12 is_stmt 0
  37 001c 93851500 		addi	a1,a1,1
  38              	.LVL2:
  51:src/slabAllocator.cpp ****     {
  39              		.loc 1 51 5
  40 0020 6FF0DFFE 		j	.L3
  41              	.L2:
  56:src/slabAllocator.cpp ****     }
  57:src/slabAllocator.cpp ****     *dst = *src;
  42              		.loc 1 57 5 is_stmt 1
  43              		.loc 1 57 10 is_stmt 0
  44 0024 2380F500 		sb	a5,0(a1)
  58:src/slabAllocator.cpp **** }
  45              		.loc 1 58 1
  46 0028 03348100 		ld	s0,8(sp)
  47              		.cfi_restore 8
  48              		.cfi_def_cfa 2, 16
  49 002c 13010101 		addi	sp,sp,16
  50              		.cfi_def_cfa_offset 0
  51 0030 67800000 		jr	ra
  52              		.cfi_endproc
  53              	.LFE5:
  55              		.section	.rodata.str1.8,"aMS",@progbits,1
  56              		.align	3
  57              	.LC0:
GAS LISTING /tmp/ccdjN2FA.s 			page 3


  58 0000 43616368 		.string	"Cache of caches"
  58      65206F66 
  58      20636163 
  58      68657300 
  59              		.text
  60              		.align	2
  61              		.globl	_Z19slab_allocator_initP14buddyAllocator
  63              	_Z19slab_allocator_initP14buddyAllocator:
  64              	.LFB6:
  59:src/slabAllocator.cpp **** 
  60:src/slabAllocator.cpp **** slab_allocator_t* slab_allocator_init(buddyAllocator *buddy)
  61:src/slabAllocator.cpp **** {
  65              		.loc 1 61 1 is_stmt 1
  66              		.cfi_startproc
  67              	.LVL3:
  68 0034 130101FE 		addi	sp,sp,-32
  69              		.cfi_def_cfa_offset 32
  70 0038 233C1100 		sd	ra,24(sp)
  71 003c 23388100 		sd	s0,16(sp)
  72 0040 23349100 		sd	s1,8(sp)
  73 0044 23302101 		sd	s2,0(sp)
  74              		.cfi_offset 1, -8
  75              		.cfi_offset 8, -16
  76              		.cfi_offset 9, -24
  77              		.cfi_offset 18, -32
  78 0048 13040102 		addi	s0,sp,32
  79              		.cfi_def_cfa 8, 0
  80 004c 93040500 		mv	s1,a0
  62:src/slabAllocator.cpp ****     slab_allocator_t* slabAllocatorLocal = (slab_allocator_t*)(buddy + 1);
  81              		.loc 1 62 5
  82              		.loc 1 62 23 is_stmt 0
  83 0050 1309050E 		addi	s2,a0,224
  84              	.LVL4:
  63:src/slabAllocator.cpp **** 
  64:src/slabAllocator.cpp ****     slabAllocatorLocal->buddy = buddy;
  85              		.loc 1 64 5 is_stmt 1
  86              		.loc 1 64 31 is_stmt 0
  87 0054 2330A50E 		sd	a0,224(a0)
  65:src/slabAllocator.cpp ****     slabAllocatorLocal->cacheList = nullptr;
  88              		.loc 1 65 5 is_stmt 1
  89              		.loc 1 65 35 is_stmt 0
  90 0058 2334050E 		sd	zero,232(a0)
  66:src/slabAllocator.cpp ****     for(size_t i = 0; i < CACHE_BUFFER_SIZE;i++)
  91              		.loc 1 66 5 is_stmt 1
  92              	.LVL5:
  93              	.LBB2:
  94              		.loc 1 66 16 is_stmt 0
  95 005c 13070000 		li	a4,0
  96 0060 6F008001 		j	.L7
  97              	.LVL6:
  98              	.L9:
  67:src/slabAllocator.cpp ****         slabAllocatorLocal->cachesBuffers[i] = nullptr;
  99              		.loc 1 67 9 is_stmt 1 discriminator 2
 100              		.loc 1 67 46 is_stmt 0 discriminator 2
 101 0064 93072700 		addi	a5,a4,2
 102 0068 93973700 		slli	a5,a5,3
 103 006c B387F400 		add	a5,s1,a5
GAS LISTING /tmp/ccdjN2FA.s 			page 4


 104 0070 23B0070E 		sd	zero,224(a5)
  66:src/slabAllocator.cpp ****     for(size_t i = 0; i < CACHE_BUFFER_SIZE;i++)
 105              		.loc 1 66 5 is_stmt 1 discriminator 2
 106 0074 13071700 		addi	a4,a4,1
 107              	.LVL7:
 108              	.L7:
  66:src/slabAllocator.cpp ****     for(size_t i = 0; i < CACHE_BUFFER_SIZE;i++)
 109              		.loc 1 66 25 discriminator 3
 110 0078 9307C000 		li	a5,12
 111 007c E3F4E7FE 		bleu	a4,a5,.L9
 112              	.LBE2:
  68:src/slabAllocator.cpp **** 
  69:src/slabAllocator.cpp ****     strcpy("Cache of caches", slabAllocatorLocal->cacheOfCaches.cacheName);
 113              		.loc 1 69 5
 114              		.loc 1 69 11 is_stmt 0
 115 0080 93858415 		addi	a1,s1,344
 116 0084 17050000 		lla	a0,.LC0
 116      13050500 
 117 008c 97000000 		call	_Z6strcpyPKcPc
 117      E7800000 
 118              	.LVL8:
  70:src/slabAllocator.cpp ****     slabAllocatorLocal->cacheOfCaches.next = nullptr;
 119              		.loc 1 70 5 is_stmt 1
 120              		.loc 1 70 44 is_stmt 0
 121 0094 23BC0418 		sd	zero,408(s1)
  71:src/slabAllocator.cpp ****     slabAllocatorLocal->cacheOfCaches.prev = nullptr;
 122              		.loc 1 71 5 is_stmt 1
 123              		.loc 1 71 44 is_stmt 0
 124 0098 23B0041A 		sd	zero,416(s1)
  72:src/slabAllocator.cpp ****     slabAllocatorLocal->cacheOfCaches.ctor = nullptr;
 125              		.loc 1 72 5 is_stmt 1
 126              		.loc 1 72 44 is_stmt 0
 127 009c 23B8041C 		sd	zero,464(s1)
  73:src/slabAllocator.cpp ****     slabAllocatorLocal->cacheOfCaches.dtor = nullptr;
 128              		.loc 1 73 5 is_stmt 1
 129              		.loc 1 73 44 is_stmt 0
 130 00a0 23BC041C 		sd	zero,472(s1)
  74:src/slabAllocator.cpp ****     slabAllocatorLocal->cacheOfCaches.slabs_empty = nullptr;
 131              		.loc 1 74 5 is_stmt 1
 132              		.loc 1 74 51 is_stmt 0
 133 00a4 23B4041A 		sd	zero,424(s1)
  75:src/slabAllocator.cpp ****     slabAllocatorLocal->cacheOfCaches.slabs_full = nullptr;
 134              		.loc 1 75 5 is_stmt 1
 135              		.loc 1 75 50 is_stmt 0
 136 00a8 23B8041A 		sd	zero,432(s1)
  76:src/slabAllocator.cpp ****     slabAllocatorLocal->cacheOfCaches.slabs_partial = nullptr;
 137              		.loc 1 76 5 is_stmt 1
 138              		.loc 1 76 53 is_stmt 0
 139 00ac 23BC041A 		sd	zero,440(s1)
  77:src/slabAllocator.cpp ****     slabAllocatorLocal->cacheOfCaches.slab_size = CACHE_OF_CACHES_SLAB_SIZE;
 140              		.loc 1 77 5 is_stmt 1
 141              		.loc 1 77 49 is_stmt 0
 142 00b0 93072000 		li	a5,2
 143 00b4 23B0F41C 		sd	a5,448(s1)
  78:src/slabAllocator.cpp ****     slabAllocatorLocal->cacheOfCaches.obj_size = sizeof(kmem_cache_t);
 144              		.loc 1 78 5 is_stmt 1
 145              		.loc 1 78 48 is_stmt 0
GAS LISTING /tmp/ccdjN2FA.s 			page 5


 146 00b8 93078008 		li	a5,136
 147 00bc 23B4F41C 		sd	a5,456(s1)
  79:src/slabAllocator.cpp ****     return slabAllocatorLocal;
 148              		.loc 1 79 5 is_stmt 1
  80:src/slabAllocator.cpp **** }
 149              		.loc 1 80 1 is_stmt 0
 150 00c0 13050900 		mv	a0,s2
 151 00c4 83308101 		ld	ra,24(sp)
 152              		.cfi_restore 1
 153 00c8 03340101 		ld	s0,16(sp)
 154              		.cfi_restore 8
 155              		.cfi_def_cfa 2, 32
 156 00cc 83348100 		ld	s1,8(sp)
 157              		.cfi_restore 9
 158              	.LVL9:
 159 00d0 03390100 		ld	s2,0(sp)
 160              		.cfi_restore 18
 161              	.LVL10:
 162 00d4 13010102 		addi	sp,sp,32
 163              		.cfi_def_cfa_offset 0
 164 00d8 67800000 		jr	ra
 165              		.cfi_endproc
 166              	.LFE6:
 168              		.align	2
 169              		.globl	_Z14allocateObjectP6slab_s
 171              	_Z14allocateObjectP6slab_s:
 172              	.LFB7:
  81:src/slabAllocator.cpp **** 
  82:src/slabAllocator.cpp **** void* allocateObject(slab_t* slab)
  83:src/slabAllocator.cpp **** {
 173              		.loc 1 83 1 is_stmt 1
 174              		.cfi_startproc
 175              	.LVL11:
 176 00dc 130101FF 		addi	sp,sp,-16
 177              		.cfi_def_cfa_offset 16
 178 00e0 23348100 		sd	s0,8(sp)
 179              		.cfi_offset 8, -8
 180 00e4 13040101 		addi	s0,sp,16
 181              		.cfi_def_cfa 8, 0
 182 00e8 93050500 		mv	a1,a0
  84:src/slabAllocator.cpp ****     int index = -1;
 183              		.loc 1 84 5
 184              	.LVL12:
  85:src/slabAllocator.cpp ****     void* addr = nullptr;
 185              		.loc 1 85 5
  86:src/slabAllocator.cpp ****     for(size_t i = 0;i < slab->numOfObjects;i++)
 186              		.loc 1 86 5
 187              	.LBB3:
 188              		.loc 1 86 16 is_stmt 0
 189 00ec 93070000 		li	a5,0
 190              	.LVL13:
 191              	.L13:
 192              		.loc 1 86 24 is_stmt 1 discriminator 1
 193              		.loc 1 86 32 is_stmt 0 discriminator 1
 194 00f0 03B78501 		ld	a4,24(a1)
 195              		.loc 1 86 24 discriminator 1
 196 00f4 63F6E704 		bleu	a4,a5,.L15
GAS LISTING /tmp/ccdjN2FA.s 			page 6


 197              	.LBB4:
  87:src/slabAllocator.cpp ****     {
  88:src/slabAllocator.cpp ****         size_t mask = 1 << (i%8);
 198              		.loc 1 88 9 is_stmt 1
 199              		.loc 1 88 30 is_stmt 0
 200 00f8 13F77700 		andi	a4,a5,7
 201              		.loc 1 88 25
 202 00fc 13061000 		li	a2,1
 203 0100 BB16E600 		sllw	a3,a2,a4
 204              	.LVL14:
  89:src/slabAllocator.cpp ****         if((uint8)slab->allocated[i/8] & mask)
 205              		.loc 1 89 9 is_stmt 1
 206              		.loc 1 89 36 is_stmt 0
 207 0104 13D73700 		srli	a4,a5,3
 208              		.loc 1 89 38
 209 0108 3387E500 		add	a4,a1,a4
 210 010c 03470703 		lbu	a4,48(a4)
 211              		.loc 1 89 40
 212 0110 3377D700 		and	a4,a4,a3
 213              		.loc 1 89 9
 214 0114 63160700 		bnez	a4,.L17
 215              	.LBE4:
  86:src/slabAllocator.cpp ****     for(size_t i = 0;i < slab->numOfObjects;i++)
 216              		.loc 1 86 5 is_stmt 1 discriminator 2
 217 0118 93871700 		addi	a5,a5,1
 218              	.LVL15:
 219 011c 6FF05FFD 		j	.L13
 220              	.L17:
 221              	.LBB5:
  90:src/slabAllocator.cpp ****         {
  91:src/slabAllocator.cpp ****             addr = (void*)((size_t)slab->startAddress + sizeof(slab_t)+ i*slab->owner->obj_size);
 222              		.loc 1 91 13
 223              		.loc 1 91 42 is_stmt 0
 224 0120 03B58502 		ld	a0,40(a1)
 225              	.LVL16:
 226              		.loc 1 91 81
 227 0124 03B70501 		ld	a4,16(a1)
 228              		.loc 1 91 88
 229 0128 03370707 		ld	a4,112(a4)
 230              		.loc 1 91 74
 231 012c 3307F702 		mul	a4,a4,a5
 232              		.loc 1 91 71
 233 0130 3305E500 		add	a0,a0,a4
 234 0134 13050505 		addi	a0,a0,80
 235              	.LVL17:
  92:src/slabAllocator.cpp ****             index = i;
 236              		.loc 1 92 13 is_stmt 1
 237              		.loc 1 92 19 is_stmt 0
 238 0138 9B870700 		sext.w	a5,a5
 239              	.LVL18:
  93:src/slabAllocator.cpp ****             break;
 240              		.loc 1 93 13 is_stmt 1
 241 013c 6F00C000 		j	.L11
 242              	.LVL19:
 243              	.L15:
 244              	.LBE5:
 245              	.LBE3:
GAS LISTING /tmp/ccdjN2FA.s 			page 7


  85:src/slabAllocator.cpp ****     for(size_t i = 0;i < slab->numOfObjects;i++)
 246              		.loc 1 85 11 is_stmt 0
 247 0140 13050000 		li	a0,0
 248              	.LVL20:
  84:src/slabAllocator.cpp ****     void* addr = nullptr;
 249              		.loc 1 84 9
 250 0144 9307F0FF 		li	a5,-1
 251              	.LVL21:
 252              	.L11:
  94:src/slabAllocator.cpp ****         }
  95:src/slabAllocator.cpp ****     }
  96:src/slabAllocator.cpp ****     if(addr == nullptr)
 253              		.loc 1 96 5 is_stmt 1
 254 0148 63000504 		beqz	a0,.L10
  97:src/slabAllocator.cpp ****         return nullptr;
  98:src/slabAllocator.cpp **** 
  99:src/slabAllocator.cpp ****     slab->allocated[index / 8]=(uint8)slab->allocated[index/8] | (1 << (index%8));
 255              		.loc 1 99 5
 256              		.loc 1 99 60 is_stmt 0
 257 014c 9BD6F741 		sraiw	a3,a5,31
 258 0150 9BD6D601 		srliw	a3,a3,29
 259 0154 BB87F600 		addw	a5,a3,a5
 260              	.LVL22:
 261 0158 1BD73740 		sraiw	a4,a5,3
 262              		.loc 1 99 62
 263 015c 3387E500 		add	a4,a1,a4
 264              		.loc 1 99 32
 265 0160 03060703 		lb	a2,48(a4)
 266              		.loc 1 99 78
 267 0164 93F77700 		andi	a5,a5,7
 268 0168 BB87D740 		subw	a5,a5,a3
 269              		.loc 1 99 69
 270 016c 93061000 		li	a3,1
 271 0170 BB97F600 		sllw	a5,a3,a5
 272              		.loc 1 99 64
 273 0174 B367F600 		or	a5,a2,a5
 274              		.loc 1 99 31
 275 0178 2308F702 		sb	a5,48(a4)
 100:src/slabAllocator.cpp ****     slab->numOfAllocatedObjects++;
 276              		.loc 1 100 5 is_stmt 1
 277              		.loc 1 100 11 is_stmt 0
 278 017c 83B70502 		ld	a5,32(a1)
 279              		.loc 1 100 32
 280 0180 93871700 		addi	a5,a5,1
 281 0184 23B0F502 		sd	a5,32(a1)
 101:src/slabAllocator.cpp **** 
 102:src/slabAllocator.cpp ****     return addr;
 282              		.loc 1 102 5 is_stmt 1
 283              	.L10:
 103:src/slabAllocator.cpp **** }
 284              		.loc 1 103 1 is_stmt 0
 285 0188 03348100 		ld	s0,8(sp)
 286              		.cfi_restore 8
 287              		.cfi_def_cfa 2, 16
 288 018c 13010101 		addi	sp,sp,16
 289              		.cfi_def_cfa_offset 0
 290 0190 67800000 		jr	ra
GAS LISTING /tmp/ccdjN2FA.s 			page 8


 291              		.cfi_endproc
 292              	.LFE7:
 294              		.align	2
 295              		.globl	_Z4fullP6slab_s
 297              	_Z4fullP6slab_s:
 298              	.LFB8:
 104:src/slabAllocator.cpp **** bool full(slab_t* slab)
 105:src/slabAllocator.cpp **** {
 299              		.loc 1 105 1 is_stmt 1
 300              		.cfi_startproc
 301              	.LVL23:
 302 0194 130101FF 		addi	sp,sp,-16
 303              		.cfi_def_cfa_offset 16
 304 0198 23348100 		sd	s0,8(sp)
 305              		.cfi_offset 8, -8
 306 019c 13040101 		addi	s0,sp,16
 307              		.cfi_def_cfa 8, 0
 106:src/slabAllocator.cpp ****     return slab->numOfAllocatedObjects == slab->numOfObjects;
 308              		.loc 1 106 5
 309              		.loc 1 106 18 is_stmt 0
 310 01a0 83370502 		ld	a5,32(a0)
 311              		.loc 1 106 49
 312 01a4 03358501 		ld	a0,24(a0)
 313              	.LVL24:
 314 01a8 3305F540 		sub	a0,a0,a5
 107:src/slabAllocator.cpp **** }
 315              		.loc 1 107 1
 316 01ac 13351500 		seqz	a0,a0
 317 01b0 03348100 		ld	s0,8(sp)
 318              		.cfi_restore 8
 319              		.cfi_def_cfa 2, 16
 320 01b4 13010101 		addi	sp,sp,16
 321              		.cfi_def_cfa_offset 0
 322 01b8 67800000 		jr	ra
 323              		.cfi_endproc
 324              	.LFE8:
 326              		.align	2
 327              		.globl	_Z5emptyP6slab_s
 329              	_Z5emptyP6slab_s:
 330              	.LFB9:
 108:src/slabAllocator.cpp **** 
 109:src/slabAllocator.cpp **** bool empty(slab_t* slab)
 110:src/slabAllocator.cpp **** {
 331              		.loc 1 110 1 is_stmt 1
 332              		.cfi_startproc
 333              	.LVL25:
 334 01bc 130101FF 		addi	sp,sp,-16
 335              		.cfi_def_cfa_offset 16
 336 01c0 23348100 		sd	s0,8(sp)
 337              		.cfi_offset 8, -8
 338 01c4 13040101 		addi	s0,sp,16
 339              		.cfi_def_cfa 8, 0
 111:src/slabAllocator.cpp ****     return slab->numOfAllocatedObjects == 0;
 340              		.loc 1 111 5
 341              		.loc 1 111 18 is_stmt 0
 342 01c8 03350502 		ld	a0,32(a0)
 343              	.LVL26:
GAS LISTING /tmp/ccdjN2FA.s 			page 9


 112:src/slabAllocator.cpp **** }
 344              		.loc 1 112 1
 345 01cc 13351500 		seqz	a0,a0
 346 01d0 03348100 		ld	s0,8(sp)
 347              		.cfi_restore 8
 348              		.cfi_def_cfa 2, 16
 349 01d4 13010101 		addi	sp,sp,16
 350              		.cfi_def_cfa_offset 0
 351 01d8 67800000 		jr	ra
 352              		.cfi_endproc
 353              	.LFE9:
 355              		.align	2
 356              		.globl	_Z16putPartialToFullP12kmem_cache_s
 358              	_Z16putPartialToFullP12kmem_cache_s:
 359              	.LFB10:
 113:src/slabAllocator.cpp **** 
 114:src/slabAllocator.cpp **** void putPartialToFull(kmem_cache_t* cachep)
 115:src/slabAllocator.cpp **** {
 360              		.loc 1 115 1 is_stmt 1
 361              		.cfi_startproc
 362              	.LVL27:
 363 01dc 130101FF 		addi	sp,sp,-16
 364              		.cfi_def_cfa_offset 16
 365 01e0 23348100 		sd	s0,8(sp)
 366              		.cfi_offset 8, -8
 367 01e4 13040101 		addi	s0,sp,16
 368              		.cfi_def_cfa 8, 0
 116:src/slabAllocator.cpp ****     slab_t* slab = cachep->slabs_partial;
 369              		.loc 1 116 5
 370              		.loc 1 116 13 is_stmt 0
 371 01e8 83370506 		ld	a5,96(a0)
 372              	.LVL28:
 117:src/slabAllocator.cpp ****     cachep->slabs_partial = cachep->slabs_partial->next;
 373              		.loc 1 117 5 is_stmt 1
 374              		.loc 1 117 52 is_stmt 0
 375 01ec 03B78700 		ld	a4,8(a5)
 376              		.loc 1 117 27
 377 01f0 2330E506 		sd	a4,96(a0)
 118:src/slabAllocator.cpp ****     if(cachep->slabs_partial!=nullptr)
 378              		.loc 1 118 5 is_stmt 1
 379 01f4 63040700 		beqz	a4,.L23
 119:src/slabAllocator.cpp ****         cachep->slabs_partial = nullptr;
 380              		.loc 1 119 9
 381              		.loc 1 119 31 is_stmt 0
 382 01f8 23300506 		sd	zero,96(a0)
 383              	.L23:
 120:src/slabAllocator.cpp ****     slab->next = cachep->slabs_full;
 384              		.loc 1 120 5 is_stmt 1
 385              		.loc 1 120 26 is_stmt 0
 386 01fc 03378505 		ld	a4,88(a0)
 387              		.loc 1 120 16
 388 0200 23B4E700 		sd	a4,8(a5)
 121:src/slabAllocator.cpp ****     if(cachep->slabs_full != nullptr)
 389              		.loc 1 121 5 is_stmt 1
 390              		.loc 1 121 16 is_stmt 0
 391 0204 03378505 		ld	a4,88(a0)
 392              		.loc 1 121 5
GAS LISTING /tmp/ccdjN2FA.s 			page 10


 393 0208 63040700 		beqz	a4,.L24
 122:src/slabAllocator.cpp ****         cachep->slabs_full->prev = slab;
 394              		.loc 1 122 9 is_stmt 1
 395              		.loc 1 122 34 is_stmt 0
 396 020c 2330F700 		sd	a5,0(a4)
 397              	.L24:
 123:src/slabAllocator.cpp ****     cachep->slabs_full = slab;
 398              		.loc 1 123 5 is_stmt 1
 399              		.loc 1 123 24 is_stmt 0
 400 0210 233CF504 		sd	a5,88(a0)
 124:src/slabAllocator.cpp ****     slab->prev = nullptr;
 401              		.loc 1 124 5 is_stmt 1
 402              		.loc 1 124 16 is_stmt 0
 403 0214 23B00700 		sd	zero,0(a5)
 125:src/slabAllocator.cpp **** }
 404              		.loc 1 125 1
 405 0218 03348100 		ld	s0,8(sp)
 406              		.cfi_restore 8
 407              		.cfi_def_cfa 2, 16
 408 021c 13010101 		addi	sp,sp,16
 409              		.cfi_def_cfa_offset 0
 410 0220 67800000 		jr	ra
 411              		.cfi_endproc
 412              	.LFE10:
 414              		.align	2
 415              		.globl	_Z17putEmptyToPartialP12kmem_cache_s
 417              	_Z17putEmptyToPartialP12kmem_cache_s:
 418              	.LFB11:
 126:src/slabAllocator.cpp **** 
 127:src/slabAllocator.cpp **** void putEmptyToPartial(kmem_cache_t* cachep)
 128:src/slabAllocator.cpp **** {
 419              		.loc 1 128 1 is_stmt 1
 420              		.cfi_startproc
 421              	.LVL29:
 422 0224 130101FF 		addi	sp,sp,-16
 423              		.cfi_def_cfa_offset 16
 424 0228 23348100 		sd	s0,8(sp)
 425              		.cfi_offset 8, -8
 426 022c 13040101 		addi	s0,sp,16
 427              		.cfi_def_cfa 8, 0
 129:src/slabAllocator.cpp ****     slab_t* slab = cachep->slabs_empty;
 428              		.loc 1 129 5
 429              		.loc 1 129 13 is_stmt 0
 430 0230 83370505 		ld	a5,80(a0)
 431              	.LVL30:
 130:src/slabAllocator.cpp ****     cachep->slabs_empty = cachep->slabs_empty->next;
 432              		.loc 1 130 5 is_stmt 1
 433              		.loc 1 130 48 is_stmt 0
 434 0234 03B78700 		ld	a4,8(a5)
 435              		.loc 1 130 25
 436 0238 2338E504 		sd	a4,80(a0)
 131:src/slabAllocator.cpp ****     if(cachep->slabs_empty != nullptr)
 437              		.loc 1 131 5 is_stmt 1
 438 023c 63040700 		beqz	a4,.L27
 132:src/slabAllocator.cpp ****         cachep->slabs_empty = nullptr;
 439              		.loc 1 132 9
 440              		.loc 1 132 29 is_stmt 0
GAS LISTING /tmp/ccdjN2FA.s 			page 11


 441 0240 23380504 		sd	zero,80(a0)
 442              	.L27:
 133:src/slabAllocator.cpp ****     slab->next = cachep->slabs_partial;
 443              		.loc 1 133 5 is_stmt 1
 444              		.loc 1 133 26 is_stmt 0
 445 0244 03370506 		ld	a4,96(a0)
 446              		.loc 1 133 16
 447 0248 23B4E700 		sd	a4,8(a5)
 134:src/slabAllocator.cpp ****     if(cachep->slabs_partial != nullptr)
 448              		.loc 1 134 5 is_stmt 1
 449              		.loc 1 134 16 is_stmt 0
 450 024c 03370506 		ld	a4,96(a0)
 451              		.loc 1 134 5
 452 0250 63040700 		beqz	a4,.L28
 135:src/slabAllocator.cpp ****         cachep->slabs_partial->prev = slab;
 453              		.loc 1 135 9 is_stmt 1
 454              		.loc 1 135 37 is_stmt 0
 455 0254 2330F700 		sd	a5,0(a4)
 456              	.L28:
 136:src/slabAllocator.cpp ****     cachep->slabs_partial = slab;
 457              		.loc 1 136 5 is_stmt 1
 458              		.loc 1 136 27 is_stmt 0
 459 0258 2330F506 		sd	a5,96(a0)
 137:src/slabAllocator.cpp ****     slab->prev = nullptr;
 460              		.loc 1 137 5 is_stmt 1
 461              		.loc 1 137 16 is_stmt 0
 462 025c 23B00700 		sd	zero,0(a5)
 138:src/slabAllocator.cpp **** }
 463              		.loc 1 138 1
 464 0260 03348100 		ld	s0,8(sp)
 465              		.cfi_restore 8
 466              		.cfi_def_cfa 2, 16
 467 0264 13010101 		addi	sp,sp,16
 468              		.cfi_def_cfa_offset 0
 469 0268 67800000 		jr	ra
 470              		.cfi_endproc
 471              	.LFE11:
 473              		.align	2
 474              		.globl	_Z12allocateSlabP12kmem_cache_s
 476              	_Z12allocateSlabP12kmem_cache_s:
 477              	.LFB12:
 139:src/slabAllocator.cpp **** 
 140:src/slabAllocator.cpp **** void allocateSlab(kmem_cache_t* cachep)
 141:src/slabAllocator.cpp **** {
 478              		.loc 1 141 1 is_stmt 1
 479              		.cfi_startproc
 480              	.LVL31:
 481 026c 130101FE 		addi	sp,sp,-32
 482              		.cfi_def_cfa_offset 32
 483 0270 233C1100 		sd	ra,24(sp)
 484 0274 23388100 		sd	s0,16(sp)
 485 0278 23349100 		sd	s1,8(sp)
 486              		.cfi_offset 1, -8
 487              		.cfi_offset 8, -16
 488              		.cfi_offset 9, -24
 489 027c 13040102 		addi	s0,sp,32
 490              		.cfi_def_cfa 8, 0
GAS LISTING /tmp/ccdjN2FA.s 			page 12


 491 0280 93040500 		mv	s1,a0
 142:src/slabAllocator.cpp ****     slab_t* newSlab = (slab_t*)buddy_alloc(slabAllocator->buddy,cachep->slab_size);
 492              		.loc 1 142 5
 493              		.loc 1 142 43 is_stmt 0
 494 0284 83358506 		ld	a1,104(a0)
 495 0288 97070000 		ld	a5,.LANCHOR0
 495      83B70700 
 496 0290 03B50700 		ld	a0,0(a5)
 497              	.LVL32:
 498 0294 97000000 		call	_Z11buddy_allocP14buddyAllocatorm@plt
 498      E7800000 
 499              	.LVL33:
 143:src/slabAllocator.cpp ****     newSlab->next = cachep->slabs_empty;
 500              		.loc 1 143 5 is_stmt 1
 501              		.loc 1 143 29 is_stmt 0
 502 029c 83B70405 		ld	a5,80(s1)
 503              		.loc 1 143 19
 504 02a0 2334F500 		sd	a5,8(a0)
 144:src/slabAllocator.cpp ****     if(cachep->slabs_empty != nullptr)
 505              		.loc 1 144 5 is_stmt 1
 506 02a4 63840700 		beqz	a5,.L31
 145:src/slabAllocator.cpp ****         cachep->slabs_empty->prev = newSlab;
 507              		.loc 1 145 9
 508              		.loc 1 145 35 is_stmt 0
 509 02a8 23B0A700 		sd	a0,0(a5)
 510              	.L31:
 146:src/slabAllocator.cpp ****     cachep->slabs_empty = newSlab;
 511              		.loc 1 146 5 is_stmt 1
 512              		.loc 1 146 25 is_stmt 0
 513 02ac 23B8A404 		sd	a0,80(s1)
 147:src/slabAllocator.cpp ****     newSlab->prev = nullptr;
 514              		.loc 1 147 5 is_stmt 1
 515              		.loc 1 147 19 is_stmt 0
 516 02b0 23300500 		sd	zero,0(a0)
 148:src/slabAllocator.cpp ****     newSlab->numOfAllocatedObjects = 0;
 517              		.loc 1 148 5 is_stmt 1
 518              		.loc 1 148 36 is_stmt 0
 519 02b4 23300502 		sd	zero,32(a0)
 149:src/slabAllocator.cpp ****     newSlab->owner = cachep;
 520              		.loc 1 149 5 is_stmt 1
 521              		.loc 1 149 20 is_stmt 0
 522 02b8 23389500 		sd	s1,16(a0)
 150:src/slabAllocator.cpp ****     newSlab->startAddress = (void*)newSlab;
 523              		.loc 1 150 5 is_stmt 1
 524              		.loc 1 150 27 is_stmt 0
 525 02bc 2334A502 		sd	a0,40(a0)
 151:src/slabAllocator.cpp ****     size_t sizeInBytes = cachep->slab_size*BLOCK_SIZE;
 526              		.loc 1 151 5 is_stmt 1
 527              		.loc 1 151 34 is_stmt 0
 528 02c0 83B68406 		ld	a3,104(s1)
 529              		.loc 1 151 12
 530 02c4 9396C600 		slli	a3,a3,12
 531              	.LVL34:
 152:src/slabAllocator.cpp ****     newSlab->numOfObjects = (sizeInBytes - sizeof(slab_t)) / cachep->obj_size; // TODO can this par
 532              		.loc 1 152 5 is_stmt 1
 533              		.loc 1 152 42 is_stmt 0
 534 02c8 938606FB 		addi	a3,a3,-80
GAS LISTING /tmp/ccdjN2FA.s 			page 13


 535              	.LVL35:
 536              		.loc 1 152 70
 537 02cc 83B70407 		ld	a5,112(s1)
 538              		.loc 1 152 60
 539 02d0 B3D6F602 		divu	a3,a3,a5
 540              	.LVL36:
 541              		.loc 1 152 27
 542 02d4 233CD500 		sd	a3,24(a0)
 543              	.LVL37:
 153:src/slabAllocator.cpp ****     for(size_t i = 0; i < newSlab->numOfObjects / 8;i++)
 544              		.loc 1 153 5 is_stmt 1
 545              	.LBB6:
 546              		.loc 1 153 16 is_stmt 0
 547 02d8 93070000 		li	a5,0
 548              	.LVL38:
 549              	.L33:
 550              		.loc 1 153 25 is_stmt 1 discriminator 3
 551              		.loc 1 153 49 is_stmt 0 discriminator 3
 552 02dc 13D73600 		srli	a4,a3,3
 553              		.loc 1 153 25 discriminator 3
 554 02e0 63FAE700 		bleu	a4,a5,.L30
 154:src/slabAllocator.cpp ****         newSlab->allocated[i] = 0;
 555              		.loc 1 154 9 is_stmt 1 discriminator 2
 556              		.loc 1 154 31 is_stmt 0 discriminator 2
 557 02e4 3307F500 		add	a4,a0,a5
 558 02e8 23080702 		sb	zero,48(a4)
 153:src/slabAllocator.cpp ****     for(size_t i = 0; i < newSlab->numOfObjects / 8;i++)
 559              		.loc 1 153 5 is_stmt 1 discriminator 2
 560 02ec 93871700 		addi	a5,a5,1
 561              	.LVL39:
 562 02f0 6FF0DFFE 		j	.L33
 563              	.L30:
 564              	.LBE6:
 155:src/slabAllocator.cpp **** }
 565              		.loc 1 155 1 is_stmt 0
 566 02f4 83308101 		ld	ra,24(sp)
 567              		.cfi_restore 1
 568 02f8 03340101 		ld	s0,16(sp)
 569              		.cfi_restore 8
 570              		.cfi_def_cfa 2, 32
 571 02fc 83348100 		ld	s1,8(sp)
 572              		.cfi_restore 9
 573              	.LVL40:
 574 0300 13010102 		addi	sp,sp,32
 575              		.cfi_def_cfa_offset 0
 576 0304 67800000 		jr	ra
 577              		.cfi_endproc
 578              	.LFE12:
 580              		.align	2
 581              		.globl	_Z18getOptimalSlabSizem
 583              	_Z18getOptimalSlabSizem:
 584              	.LFB13:
 156:src/slabAllocator.cpp **** 
 157:src/slabAllocator.cpp **** size_t getOptimalSlabSize(size_t obj_size)
 158:src/slabAllocator.cpp **** {
 585              		.loc 1 158 1 is_stmt 1
 586              		.cfi_startproc
GAS LISTING /tmp/ccdjN2FA.s 			page 14


 587              	.LVL41:
 588 0308 130101FF 		addi	sp,sp,-16
 589              		.cfi_def_cfa_offset 16
 590 030c 23348100 		sd	s0,8(sp)
 591              		.cfi_offset 8, -8
 592 0310 13040101 		addi	s0,sp,16
 593              		.cfi_def_cfa 8, 0
 159:src/slabAllocator.cpp ****     size_t bestSize = BLOCK_SIZE;
 594              		.loc 1 159 5
 595              	.LVL42:
 596              		.loc 1 159 12 is_stmt 0
 597 0314 B7170000 		li	a5,4096
 598              	.LVL43:
 599              	.L37:
 160:src/slabAllocator.cpp ****     while(bestSize < obj_size + sizeof(slab_t))
 600              		.loc 1 160 5 is_stmt 1
 601              		.loc 1 160 20
 602              		.loc 1 160 31 is_stmt 0
 603 0318 13070505 		addi	a4,a0,80
 604              		.loc 1 160 20
 605 031c 63F6E700 		bleu	a4,a5,.L36
 161:src/slabAllocator.cpp ****         bestSize<<=1;
 606              		.loc 1 161 9 is_stmt 1
 607              		.loc 1 161 17 is_stmt 0
 608 0320 93971700 		slli	a5,a5,1
 609              	.LVL44:
 160:src/slabAllocator.cpp ****     while(bestSize < obj_size + sizeof(slab_t))
 610              		.loc 1 160 5
 611 0324 6FF05FFF 		j	.L37
 612              	.L36:
 162:src/slabAllocator.cpp ****     size_t optimalWaste = (bestSize - sizeof(slab_t)) % obj_size;
 613              		.loc 1 162 5 is_stmt 1
 614              		.loc 1 162 37 is_stmt 0
 615 0328 938507FB 		addi	a1,a5,-80
 616              		.loc 1 162 12
 617 032c B3F5A502 		remu	a1,a1,a0
 618              	.LVL45:
 163:src/slabAllocator.cpp **** 
 164:src/slabAllocator.cpp ****     for(int i = 1;i<=4;i++) //change constants
 619              		.loc 1 164 5 is_stmt 1
 620              	.LBB7:
 621              		.loc 1 164 13 is_stmt 0
 622 0330 13071000 		li	a4,1
 623 0334 6F008000 		j	.L40
 624              	.LVL46:
 625              	.L39:
 626              		.loc 1 164 5 is_stmt 1 discriminator 2
 627 0338 1B071700 		addiw	a4,a4,1
 628              	.LVL47:
 629              	.L40:
 630              		.loc 1 164 20 discriminator 1
 631 033c 93064000 		li	a3,4
 632 0340 63C0E602 		bgt	a4,a3,.L38
 633              	.LBB8:
 165:src/slabAllocator.cpp ****     {
 166:src/slabAllocator.cpp ****         size_t newSize = bestSize << i;
 634              		.loc 1 166 9
GAS LISTING /tmp/ccdjN2FA.s 			page 15


 635              		.loc 1 166 16 is_stmt 0
 636 0344 3396E700 		sll	a2,a5,a4
 637              	.LVL48:
 167:src/slabAllocator.cpp ****         size_t newWaste = (newSize - sizeof(slab_t)) % obj_size;
 638              		.loc 1 167 9 is_stmt 1
 639              		.loc 1 167 36 is_stmt 0
 640 0348 930606FB 		addi	a3,a2,-80
 641              		.loc 1 167 16
 642 034c B3F6A602 		remu	a3,a3,a0
 643              	.LVL49:
 168:src/slabAllocator.cpp ****         if(newWaste < optimalWaste)
 644              		.loc 1 168 9 is_stmt 1
 645 0350 E3F4B6FE 		bleu	a1,a3,.L39
 169:src/slabAllocator.cpp ****         {
 170:src/slabAllocator.cpp ****             optimalWaste = newWaste;
 646              		.loc 1 170 26 is_stmt 0
 647 0354 93850600 		mv	a1,a3
 648              	.LVL50:
 171:src/slabAllocator.cpp ****             bestSize = newSize;
 649              		.loc 1 171 22
 650 0358 93070600 		mv	a5,a2
 651              	.LVL51:
 652 035c 6FF0DFFD 		j	.L39
 653              	.LVL52:
 654              	.L38:
 655              	.LBE8:
 656              	.LBE7:
 172:src/slabAllocator.cpp ****         }
 173:src/slabAllocator.cpp ****     }
 174:src/slabAllocator.cpp **** 
 175:src/slabAllocator.cpp ****     return bestSize / BLOCK_SIZE;
 657              		.loc 1 175 5 is_stmt 1
 176:src/slabAllocator.cpp **** }
 658              		.loc 1 176 1 is_stmt 0
 659 0360 13D5C700 		srli	a0,a5,12
 660              	.LVL53:
 661 0364 03348100 		ld	s0,8(sp)
 662              		.cfi_restore 8
 663              		.cfi_def_cfa 2, 16
 664 0368 13010101 		addi	sp,sp,16
 665              		.cfi_def_cfa_offset 0
 666 036c 67800000 		jr	ra
 667              		.cfi_endproc
 668              	.LFE13:
 670              		.align	2
 671              		.globl	_Z8findSlabP12kmem_cache_sPKv
 673              	_Z8findSlabP12kmem_cache_sPKv:
 674              	.LFB14:
 177:src/slabAllocator.cpp **** 
 178:src/slabAllocator.cpp **** //finds the slab where objp is
 179:src/slabAllocator.cpp **** slab_t* findSlab(kmem_cache_t* cachep, const void* objp)
 180:src/slabAllocator.cpp **** {
 675              		.loc 1 180 1 is_stmt 1
 676              		.cfi_startproc
 677              	.LVL54:
 678 0370 130101FF 		addi	sp,sp,-16
 679              		.cfi_def_cfa_offset 16
GAS LISTING /tmp/ccdjN2FA.s 			page 16


 680 0374 23348100 		sd	s0,8(sp)
 681              		.cfi_offset 8, -8
 682 0378 13040101 		addi	s0,sp,16
 683              		.cfi_def_cfa 8, 0
 684 037c 93060500 		mv	a3,a0
 181:src/slabAllocator.cpp ****     slab_t* slab = cachep->slabs_full;
 685              		.loc 1 181 5
 686              		.loc 1 181 13 is_stmt 0
 687 0380 03358505 		ld	a0,88(a0)
 688              	.LVL55:
 689 0384 6F008000 		j	.L47
 690              	.LVL56:
 691              	.L45:
 692              	.LBB9:
 182:src/slabAllocator.cpp ****     while(slab != nullptr)
 183:src/slabAllocator.cpp ****     {
 184:src/slabAllocator.cpp ****         size_t endAddr = (size_t)slab + sizeof(slab_t) + slab->numOfObjects*slab->owner->obj_size;
 185:src/slabAllocator.cpp ****         if((size_t)objp > (size_t)slab && (size_t)objp < endAddr)
 186:src/slabAllocator.cpp ****             return slab;
 187:src/slabAllocator.cpp ****         slab = slab->next;
 693              		.loc 1 187 9 is_stmt 1
 694              		.loc 1 187 14 is_stmt 0
 695 0388 03358500 		ld	a0,8(a0)
 696              	.LVL57:
 697              	.L47:
 698              	.LBE9:
 182:src/slabAllocator.cpp ****     while(slab != nullptr)
 699              		.loc 1 182 5 is_stmt 1
 182:src/slabAllocator.cpp ****     while(slab != nullptr)
 700              		.loc 1 182 16
 701 038c 63080502 		beqz	a0,.L44
 702              	.LBB10:
 184:src/slabAllocator.cpp ****         if((size_t)objp > (size_t)slab && (size_t)objp < endAddr)
 703              		.loc 1 184 9
 184:src/slabAllocator.cpp ****         if((size_t)objp > (size_t)slab && (size_t)objp < endAddr)
 704              		.loc 1 184 64 is_stmt 0
 705 0390 83378501 		ld	a5,24(a0)
 184:src/slabAllocator.cpp ****         if((size_t)objp > (size_t)slab && (size_t)objp < endAddr)
 706              		.loc 1 184 83
 707 0394 03370501 		ld	a4,16(a0)
 184:src/slabAllocator.cpp ****         if((size_t)objp > (size_t)slab && (size_t)objp < endAddr)
 708              		.loc 1 184 90
 709 0398 03370707 		ld	a4,112(a4)
 184:src/slabAllocator.cpp ****         if((size_t)objp > (size_t)slab && (size_t)objp < endAddr)
 710              		.loc 1 184 76
 711 039c B387E702 		mul	a5,a5,a4
 184:src/slabAllocator.cpp ****         if((size_t)objp > (size_t)slab && (size_t)objp < endAddr)
 712              		.loc 1 184 56
 713 03a0 B387A700 		add	a5,a5,a0
 184:src/slabAllocator.cpp ****         if((size_t)objp > (size_t)slab && (size_t)objp < endAddr)
 714              		.loc 1 184 16
 715 03a4 93870705 		addi	a5,a5,80
 716              	.LVL58:
 185:src/slabAllocator.cpp ****             return slab;
 717              		.loc 1 185 9 is_stmt 1
 718 03a8 E370B5FE 		bgeu	a0,a1,.L45
 185:src/slabAllocator.cpp ****             return slab;
GAS LISTING /tmp/ccdjN2FA.s 			page 17


 719              		.loc 1 185 40 is_stmt 0 discriminator 1
 720 03ac E3FEF5FC 		bgeu	a1,a5,.L45
 721              	.LVL59:
 722              	.L43:
 723              	.LBE10:
 188:src/slabAllocator.cpp ****     }
 189:src/slabAllocator.cpp **** 
 190:src/slabAllocator.cpp ****     slab = cachep->slabs_partial;
 191:src/slabAllocator.cpp ****     while(slab != nullptr)
 192:src/slabAllocator.cpp ****     {
 193:src/slabAllocator.cpp ****         size_t endAddr = (size_t)slab + sizeof(slab_t) + slab->numOfObjects*slab->owner->obj_size;
 194:src/slabAllocator.cpp ****         if((size_t)objp > (size_t)slab && (size_t)objp < endAddr)
 195:src/slabAllocator.cpp ****             return slab;
 196:src/slabAllocator.cpp ****         slab = slab->next;
 197:src/slabAllocator.cpp ****     }
 198:src/slabAllocator.cpp **** 
 199:src/slabAllocator.cpp ****     return nullptr;
 200:src/slabAllocator.cpp **** }
 724              		.loc 1 200 1
 725 03b0 03348100 		ld	s0,8(sp)
 726              		.cfi_remember_state
 727              		.cfi_restore 8
 728              		.cfi_def_cfa 2, 16
 729 03b4 13010101 		addi	sp,sp,16
 730              		.cfi_def_cfa_offset 0
 731 03b8 67800000 		jr	ra
 732              	.L44:
 733              		.cfi_restore_state
 190:src/slabAllocator.cpp ****     while(slab != nullptr)
 734              		.loc 1 190 5 is_stmt 1
 190:src/slabAllocator.cpp ****     while(slab != nullptr)
 735              		.loc 1 190 10 is_stmt 0
 736 03bc 03B50606 		ld	a0,96(a3)
 737              	.LVL60:
 738 03c0 6F008000 		j	.L49
 739              	.LVL61:
 740              	.L48:
 741              	.LBB11:
 196:src/slabAllocator.cpp ****     }
 742              		.loc 1 196 9 is_stmt 1
 196:src/slabAllocator.cpp ****     }
 743              		.loc 1 196 14 is_stmt 0
 744 03c4 03358500 		ld	a0,8(a0)
 745              	.LVL62:
 746              	.L49:
 747              	.LBE11:
 191:src/slabAllocator.cpp ****     {
 748              		.loc 1 191 5 is_stmt 1
 191:src/slabAllocator.cpp ****     {
 749              		.loc 1 191 16
 750 03c8 E30405FE 		beqz	a0,.L43
 751              	.LBB12:
 193:src/slabAllocator.cpp ****         if((size_t)objp > (size_t)slab && (size_t)objp < endAddr)
 752              		.loc 1 193 9
 193:src/slabAllocator.cpp ****         if((size_t)objp > (size_t)slab && (size_t)objp < endAddr)
 753              		.loc 1 193 64 is_stmt 0
 754 03cc 83378501 		ld	a5,24(a0)
GAS LISTING /tmp/ccdjN2FA.s 			page 18


 193:src/slabAllocator.cpp ****         if((size_t)objp > (size_t)slab && (size_t)objp < endAddr)
 755              		.loc 1 193 83
 756 03d0 03370501 		ld	a4,16(a0)
 193:src/slabAllocator.cpp ****         if((size_t)objp > (size_t)slab && (size_t)objp < endAddr)
 757              		.loc 1 193 90
 758 03d4 03370707 		ld	a4,112(a4)
 193:src/slabAllocator.cpp ****         if((size_t)objp > (size_t)slab && (size_t)objp < endAddr)
 759              		.loc 1 193 76
 760 03d8 B387E702 		mul	a5,a5,a4
 193:src/slabAllocator.cpp ****         if((size_t)objp > (size_t)slab && (size_t)objp < endAddr)
 761              		.loc 1 193 56
 762 03dc B387A700 		add	a5,a5,a0
 193:src/slabAllocator.cpp ****         if((size_t)objp > (size_t)slab && (size_t)objp < endAddr)
 763              		.loc 1 193 16
 764 03e0 93870705 		addi	a5,a5,80
 765              	.LVL63:
 194:src/slabAllocator.cpp ****             return slab;
 766              		.loc 1 194 9 is_stmt 1
 767 03e4 E370B5FE 		bgeu	a0,a1,.L48
 194:src/slabAllocator.cpp ****             return slab;
 768              		.loc 1 194 40 is_stmt 0 discriminator 1
 769 03e8 E3FEF5FC 		bgeu	a1,a5,.L48
 770 03ec 6FF05FFC 		j	.L43
 771              	.LBE12:
 772              		.cfi_endproc
 773              	.LFE14:
 775              		.align	2
 776              		.globl	_Z19resetAllocatedIndexP6slab_si
 778              	_Z19resetAllocatedIndexP6slab_si:
 779              	.LFB15:
 201:src/slabAllocator.cpp **** 
 202:src/slabAllocator.cpp **** void resetAllocatedIndex(slab_t* slab, int index)
 203:src/slabAllocator.cpp **** {
 780              		.loc 1 203 1 is_stmt 1
 781              		.cfi_startproc
 782              	.LVL64:
 783 03f0 130101FF 		addi	sp,sp,-16
 784              		.cfi_def_cfa_offset 16
 785 03f4 23348100 		sd	s0,8(sp)
 786              		.cfi_offset 8, -8
 787 03f8 13040101 		addi	s0,sp,16
 788              		.cfi_def_cfa 8, 0
 204:src/slabAllocator.cpp ****     //TODO test it
 205:src/slabAllocator.cpp ****     slab->allocated[index / 8]=(uint8)slab->allocated[index/8] & ~(1 << (index%8));
 789              		.loc 1 205 5
 790              		.loc 1 205 60 is_stmt 0
 791 03fc 9BD7F541 		sraiw	a5,a1,31
 792 0400 9BD7D701 		srliw	a5,a5,29
 793 0404 BB85B700 		addw	a1,a5,a1
 794              	.LVL65:
 795 0408 1BD73540 		sraiw	a4,a1,3
 796              		.loc 1 205 62
 797 040c 3305E500 		add	a0,a0,a4
 798              	.LVL66:
 799              		.loc 1 205 32
 800 0410 03070503 		lb	a4,48(a0)
 801              		.loc 1 205 79
GAS LISTING /tmp/ccdjN2FA.s 			page 19


 802 0414 93F57500 		andi	a1,a1,7
 803 0418 BB85F540 		subw	a1,a1,a5
 804              		.loc 1 205 70
 805 041c 93071000 		li	a5,1
 806 0420 BB95B700 		sllw	a1,a5,a1
 807              		.loc 1 205 64
 808 0424 93C5F5FF 		not	a1,a1
 809 0428 B375B700 		and	a1,a4,a1
 810              		.loc 1 205 31
 811 042c 2308B502 		sb	a1,48(a0)
 206:src/slabAllocator.cpp **** }
 812              		.loc 1 206 1
 813 0430 03348100 		ld	s0,8(sp)
 814              		.cfi_restore 8
 815              		.cfi_def_cfa 2, 16
 816 0434 13010101 		addi	sp,sp,16
 817              		.cfi_def_cfa_offset 0
 818 0438 67800000 		jr	ra
 819              		.cfi_endproc
 820              	.LFE15:
 822              		.align	2
 823              		.globl	_Z14removeFullSlabP12kmem_cache_sP6slab_s
 825              	_Z14removeFullSlabP12kmem_cache_sP6slab_s:
 826              	.LFB16:
 207:src/slabAllocator.cpp **** 
 208:src/slabAllocator.cpp **** void removeFullSlab(kmem_cache_t * cachep, slab_t* slab)
 209:src/slabAllocator.cpp **** {
 827              		.loc 1 209 1 is_stmt 1
 828              		.cfi_startproc
 829              	.LVL67:
 830 043c 130101FF 		addi	sp,sp,-16
 831              		.cfi_def_cfa_offset 16
 832 0440 23348100 		sd	s0,8(sp)
 833              		.cfi_offset 8, -8
 834 0444 13040101 		addi	s0,sp,16
 835              		.cfi_def_cfa 8, 0
 210:src/slabAllocator.cpp ****     if(slab->prev)
 836              		.loc 1 210 5
 837              		.loc 1 210 14 is_stmt 0
 838 0448 83B70500 		ld	a5,0(a1)
 839              		.loc 1 210 5
 840 044c 63800704 		beqz	a5,.L54
 211:src/slabAllocator.cpp ****     {
 212:src/slabAllocator.cpp ****         slab->prev->next = slab->next;
 841              		.loc 1 212 9 is_stmt 1
 842              		.loc 1 212 34 is_stmt 0
 843 0450 03B78500 		ld	a4,8(a1)
 844              		.loc 1 212 26
 845 0454 23B4E700 		sd	a4,8(a5)
 213:src/slabAllocator.cpp ****         slab->next->prev = slab->prev;
 846              		.loc 1 213 9 is_stmt 1
 847              		.loc 1 213 15 is_stmt 0
 848 0458 83B78500 		ld	a5,8(a1)
 849              		.loc 1 213 34
 850 045c 03B70500 		ld	a4,0(a1)
 851              		.loc 1 213 26
 852 0460 23B0E700 		sd	a4,0(a5)
GAS LISTING /tmp/ccdjN2FA.s 			page 20


 853              	.L55:
 214:src/slabAllocator.cpp ****     }
 215:src/slabAllocator.cpp ****     else
 216:src/slabAllocator.cpp ****     {
 217:src/slabAllocator.cpp ****         slab->next->prev = nullptr;
 218:src/slabAllocator.cpp ****         cachep->slabs_full = slab->next;
 219:src/slabAllocator.cpp ****     }
 220:src/slabAllocator.cpp ****     slab->next = cachep->slabs_partial;
 854              		.loc 1 220 5 is_stmt 1
 855              		.loc 1 220 26 is_stmt 0
 856 0464 83370506 		ld	a5,96(a0)
 857              		.loc 1 220 16
 858 0468 23B4F500 		sd	a5,8(a1)
 221:src/slabAllocator.cpp ****     slab->prev = nullptr;
 859              		.loc 1 221 5 is_stmt 1
 860              		.loc 1 221 16 is_stmt 0
 861 046c 23B00500 		sd	zero,0(a1)
 222:src/slabAllocator.cpp ****     if(cachep->slabs_partial)
 862              		.loc 1 222 5 is_stmt 1
 863              		.loc 1 222 16 is_stmt 0
 864 0470 83370506 		ld	a5,96(a0)
 865              		.loc 1 222 5
 866 0474 63840700 		beqz	a5,.L56
 223:src/slabAllocator.cpp ****         cachep->slabs_partial->prev = slab;
 867              		.loc 1 223 9 is_stmt 1
 868              		.loc 1 223 37 is_stmt 0
 869 0478 23B0B700 		sd	a1,0(a5)
 870              	.L56:
 224:src/slabAllocator.cpp ****     cachep->slabs_partial = slab;
 871              		.loc 1 224 5 is_stmt 1
 872              		.loc 1 224 27 is_stmt 0
 873 047c 2330B506 		sd	a1,96(a0)
 225:src/slabAllocator.cpp **** }
 874              		.loc 1 225 1
 875 0480 03348100 		ld	s0,8(sp)
 876              		.cfi_remember_state
 877              		.cfi_restore 8
 878              		.cfi_def_cfa 2, 16
 879 0484 13010101 		addi	sp,sp,16
 880              		.cfi_def_cfa_offset 0
 881 0488 67800000 		jr	ra
 882              	.L54:
 883              		.cfi_restore_state
 217:src/slabAllocator.cpp ****         cachep->slabs_full = slab->next;
 884              		.loc 1 217 9 is_stmt 1
 217:src/slabAllocator.cpp ****         cachep->slabs_full = slab->next;
 885              		.loc 1 217 15 is_stmt 0
 886 048c 83B78500 		ld	a5,8(a1)
 217:src/slabAllocator.cpp ****         cachep->slabs_full = slab->next;
 887              		.loc 1 217 26
 888 0490 23B00700 		sd	zero,0(a5)
 218:src/slabAllocator.cpp ****     }
 889              		.loc 1 218 9 is_stmt 1
 218:src/slabAllocator.cpp ****     }
 890              		.loc 1 218 36 is_stmt 0
 891 0494 83B78500 		ld	a5,8(a1)
 218:src/slabAllocator.cpp ****     }
GAS LISTING /tmp/ccdjN2FA.s 			page 21


 892              		.loc 1 218 28
 893 0498 233CF504 		sd	a5,88(a0)
 894 049c 6FF09FFC 		j	.L55
 895              		.cfi_endproc
 896              	.LFE16:
 898              		.align	2
 899              		.globl	_Z17removePartialSlabP12kmem_cache_sP6slab_s
 901              	_Z17removePartialSlabP12kmem_cache_sP6slab_s:
 902              	.LFB17:
 226:src/slabAllocator.cpp **** 
 227:src/slabAllocator.cpp **** void removePartialSlab(kmem_cache_t * cachep, slab_t* slab)
 228:src/slabAllocator.cpp **** {
 903              		.loc 1 228 1 is_stmt 1
 904              		.cfi_startproc
 905              	.LVL68:
 906 04a0 130101FF 		addi	sp,sp,-16
 907              		.cfi_def_cfa_offset 16
 908 04a4 23348100 		sd	s0,8(sp)
 909              		.cfi_offset 8, -8
 910 04a8 13040101 		addi	s0,sp,16
 911              		.cfi_def_cfa 8, 0
 229:src/slabAllocator.cpp ****     if(slab->prev)
 912              		.loc 1 229 5
 913              		.loc 1 229 14 is_stmt 0
 914 04ac 83B70500 		ld	a5,0(a1)
 915              		.loc 1 229 5
 916 04b0 63800704 		beqz	a5,.L59
 230:src/slabAllocator.cpp ****     {
 231:src/slabAllocator.cpp ****         slab->prev->next = slab->next;
 917              		.loc 1 231 9 is_stmt 1
 918              		.loc 1 231 34 is_stmt 0
 919 04b4 03B78500 		ld	a4,8(a1)
 920              		.loc 1 231 26
 921 04b8 23B4E700 		sd	a4,8(a5)
 232:src/slabAllocator.cpp ****         slab->next->prev = slab->prev;
 922              		.loc 1 232 9 is_stmt 1
 923              		.loc 1 232 15 is_stmt 0
 924 04bc 83B78500 		ld	a5,8(a1)
 925              		.loc 1 232 34
 926 04c0 03B70500 		ld	a4,0(a1)
 927              		.loc 1 232 26
 928 04c4 23B0E700 		sd	a4,0(a5)
 929              	.L60:
 233:src/slabAllocator.cpp ****     }
 234:src/slabAllocator.cpp ****     else
 235:src/slabAllocator.cpp ****     {
 236:src/slabAllocator.cpp ****         slab->next->prev = nullptr;
 237:src/slabAllocator.cpp ****         cachep->slabs_partial = slab->next;
 238:src/slabAllocator.cpp ****     }
 239:src/slabAllocator.cpp ****     slab->next = cachep->slabs_empty;
 930              		.loc 1 239 5 is_stmt 1
 931              		.loc 1 239 26 is_stmt 0
 932 04c8 83370505 		ld	a5,80(a0)
 933              		.loc 1 239 16
 934 04cc 23B4F500 		sd	a5,8(a1)
 240:src/slabAllocator.cpp ****     slab->prev = nullptr;
 935              		.loc 1 240 5 is_stmt 1
GAS LISTING /tmp/ccdjN2FA.s 			page 22


 936              		.loc 1 240 16 is_stmt 0
 937 04d0 23B00500 		sd	zero,0(a1)
 241:src/slabAllocator.cpp ****     if(cachep->slabs_empty)
 938              		.loc 1 241 5 is_stmt 1
 939              		.loc 1 241 16 is_stmt 0
 940 04d4 83370505 		ld	a5,80(a0)
 941              		.loc 1 241 5
 942 04d8 63840700 		beqz	a5,.L61
 242:src/slabAllocator.cpp ****         cachep->slabs_empty->prev = slab;
 943              		.loc 1 242 9 is_stmt 1
 944              		.loc 1 242 35 is_stmt 0
 945 04dc 23B0B700 		sd	a1,0(a5)
 946              	.L61:
 243:src/slabAllocator.cpp ****     cachep->slabs_empty = slab;
 947              		.loc 1 243 5 is_stmt 1
 948              		.loc 1 243 25 is_stmt 0
 949 04e0 2338B504 		sd	a1,80(a0)
 244:src/slabAllocator.cpp **** }
 950              		.loc 1 244 1
 951 04e4 03348100 		ld	s0,8(sp)
 952              		.cfi_remember_state
 953              		.cfi_restore 8
 954              		.cfi_def_cfa 2, 16
 955 04e8 13010101 		addi	sp,sp,16
 956              		.cfi_def_cfa_offset 0
 957 04ec 67800000 		jr	ra
 958              	.L59:
 959              		.cfi_restore_state
 236:src/slabAllocator.cpp ****         cachep->slabs_partial = slab->next;
 960              		.loc 1 236 9 is_stmt 1
 236:src/slabAllocator.cpp ****         cachep->slabs_partial = slab->next;
 961              		.loc 1 236 15 is_stmt 0
 962 04f0 83B78500 		ld	a5,8(a1)
 236:src/slabAllocator.cpp ****         cachep->slabs_partial = slab->next;
 963              		.loc 1 236 26
 964 04f4 23B00700 		sd	zero,0(a5)
 237:src/slabAllocator.cpp ****     }
 965              		.loc 1 237 9 is_stmt 1
 237:src/slabAllocator.cpp ****     }
 966              		.loc 1 237 39 is_stmt 0
 967 04f8 83B78500 		ld	a5,8(a1)
 237:src/slabAllocator.cpp ****     }
 968              		.loc 1 237 31
 969 04fc 2330F506 		sd	a5,96(a0)
 970 0500 6FF09FFC 		j	.L60
 971              		.cfi_endproc
 972              	.LFE17:
 974              		.section	.rodata.str1.8
 975              		.align	3
 976              	.LC1:
 977 0010 4F6E6520 		.string	"One slab info---------\n"
 977      736C6162 
 977      20696E66 
 977      6F2D2D2D 
 977      2D2D2D2D 
 978              		.align	3
 979              	.LC2:
GAS LISTING /tmp/ccdjN2FA.s 			page 23


 980 0028 536C6162 		.string	"Slab address "
 980      20616464 
 980      72657373 
 980      2000
 981 0036 0000     		.align	3
 982              	.LC3:
 983 0038 0A00     		.string	"\n"
 984 003a 00000000 		.align	3
 984      0000
 985              	.LC4:
 986 0040 4E756D62 		.string	"Number of allocated objects "
 986      6572206F 
 986      6620616C 
 986      6C6F6361 
 986      74656420 
 987 005d 000000   		.align	3
 988              	.LC5:
 989 0060 4E756D62 		.string	"Number of objects "
 989      6572206F 
 989      66206F62 
 989      6A656374 
 989      732000
 990              		.text
 991              		.align	2
 992              		.globl	_Z13printSlabInfoP6slab_s
 994              	_Z13printSlabInfoP6slab_s:
 995              	.LFB18:
 245:src/slabAllocator.cpp **** 
 246:src/slabAllocator.cpp **** void printSlabInfo(slab_t* slab)
 247:src/slabAllocator.cpp **** {
 996              		.loc 1 247 1 is_stmt 1
 997              		.cfi_startproc
 998              	.LVL69:
 999 0504 130101FE 		addi	sp,sp,-32
 1000              		.cfi_def_cfa_offset 32
 1001 0508 233C1100 		sd	ra,24(sp)
 1002 050c 23388100 		sd	s0,16(sp)
 1003 0510 23349100 		sd	s1,8(sp)
 1004              		.cfi_offset 1, -8
 1005              		.cfi_offset 8, -16
 1006              		.cfi_offset 9, -24
 1007 0514 13040102 		addi	s0,sp,32
 1008              		.cfi_def_cfa 8, 0
 1009 0518 93040500 		mv	s1,a0
 248:src/slabAllocator.cpp ****     KConsole::trapPrintString("One slab info---------\n");
 1010              		.loc 1 248 5
 1011              		.loc 1 248 30 is_stmt 0
 1012 051c 17050000 		lla	a0,.LC1
 1012      13050500 
 1013              	.LVL70:
 1014 0524 97000000 		call	_ZN8KConsole15trapPrintStringEPKc@plt
 1014      E7800000 
 1015              	.LVL71:
 249:src/slabAllocator.cpp ****     KConsole::trapPrintString("Slab address ");
 1016              		.loc 1 249 5 is_stmt 1
 1017              		.loc 1 249 30 is_stmt 0
 1018 052c 17050000 		lla	a0,.LC2
GAS LISTING /tmp/ccdjN2FA.s 			page 24


 1018      13050500 
 1019 0534 97000000 		call	_ZN8KConsole15trapPrintStringEPKc@plt
 1019      E7800000 
 1020              	.LVL72:
 250:src/slabAllocator.cpp ****     KConsole::trapPrintInt((size_t)slab, 16);KConsole::trapPrintString("\n");
 1021              		.loc 1 250 5 is_stmt 1
 1022              		.loc 1 250 27 is_stmt 0
 1023 053c 13060000 		li	a2,0
 1024 0540 93050001 		li	a1,16
 1025 0544 13850400 		mv	a0,s1
 1026 0548 97000000 		call	_ZN8KConsole12trapPrintIntEmii@plt
 1026      E7800000 
 1027              	.LVL73:
 1028              		.loc 1 250 46 is_stmt 1
 1029              		.loc 1 250 71 is_stmt 0
 1030 0550 17050000 		lla	a0,.LC3
 1030      13050500 
 1031 0558 97000000 		call	_ZN8KConsole15trapPrintStringEPKc@plt
 1031      E7800000 
 1032              	.LVL74:
 251:src/slabAllocator.cpp ****     KConsole::trapPrintString("Number of allocated objects ");
 1033              		.loc 1 251 5 is_stmt 1
 1034              		.loc 1 251 30 is_stmt 0
 1035 0560 17050000 		lla	a0,.LC4
 1035      13050500 
 1036 0568 97000000 		call	_ZN8KConsole15trapPrintStringEPKc@plt
 1036      E7800000 
 1037              	.LVL75:
 252:src/slabAllocator.cpp ****     KConsole::trapPrintInt(slab->numOfAllocatedObjects);KConsole::trapPrintString("\n");
 1038              		.loc 1 252 5 is_stmt 1
 1039              		.loc 1 252 27 is_stmt 0
 1040 0570 13060000 		li	a2,0
 1041 0574 9305A000 		li	a1,10
 1042 0578 03B50402 		ld	a0,32(s1)
 1043 057c 97000000 		call	_ZN8KConsole12trapPrintIntEmii@plt
 1043      E7800000 
 1044              	.LVL76:
 1045              		.loc 1 252 57 is_stmt 1
 1046              		.loc 1 252 82 is_stmt 0
 1047 0584 17050000 		lla	a0,.LC3
 1047      13050500 
 1048 058c 97000000 		call	_ZN8KConsole15trapPrintStringEPKc@plt
 1048      E7800000 
 1049              	.LVL77:
 253:src/slabAllocator.cpp ****     KConsole::trapPrintString("Number of objects ");
 1050              		.loc 1 253 5 is_stmt 1
 1051              		.loc 1 253 30 is_stmt 0
 1052 0594 17050000 		lla	a0,.LC5
 1052      13050500 
 1053 059c 97000000 		call	_ZN8KConsole15trapPrintStringEPKc@plt
 1053      E7800000 
 1054              	.LVL78:
 254:src/slabAllocator.cpp ****     KConsole::trapPrintInt(slab->numOfObjects);KConsole::trapPrintString("\n");
 1055              		.loc 1 254 5 is_stmt 1
 1056              		.loc 1 254 27 is_stmt 0
 1057 05a4 13060000 		li	a2,0
 1058 05a8 9305A000 		li	a1,10
GAS LISTING /tmp/ccdjN2FA.s 			page 25


 1059 05ac 03B58401 		ld	a0,24(s1)
 1060 05b0 97000000 		call	_ZN8KConsole12trapPrintIntEmii@plt
 1060      E7800000 
 1061              	.LVL79:
 1062              		.loc 1 254 48 is_stmt 1
 1063              		.loc 1 254 73 is_stmt 0
 1064 05b8 17050000 		lla	a0,.LC3
 1064      13050500 
 1065 05c0 97000000 		call	_ZN8KConsole15trapPrintStringEPKc@plt
 1065      E7800000 
 1066              	.LVL80:
 255:src/slabAllocator.cpp **** }
 1067              		.loc 1 255 1
 1068 05c8 83308101 		ld	ra,24(sp)
 1069              		.cfi_restore 1
 1070 05cc 03340101 		ld	s0,16(sp)
 1071              		.cfi_restore 8
 1072              		.cfi_def_cfa 2, 32
 1073 05d0 83348100 		ld	s1,8(sp)
 1074              		.cfi_restore 9
 1075              	.LVL81:
 1076 05d4 13010102 		addi	sp,sp,32
 1077              		.cfi_def_cfa_offset 0
 1078 05d8 67800000 		jr	ra
 1079              		.cfi_endproc
 1080              	.LFE18:
 1082              		.section	.rodata.str1.8
 1083 0073 00000000 		.align	3
 1083      00
 1084              	.LC6:
 1085 0078 6F6B206A 		.string	"ok je index\n"
 1085      6520696E 
 1085      6465780A 
 1085      00
 1086              		.text
 1087              		.align	2
 1088              		.globl	_Z16free_slab_objectP6slab_sPKv
 1090              	_Z16free_slab_objectP6slab_sPKv:
 1091              	.LFB19:
 256:src/slabAllocator.cpp **** 
 257:src/slabAllocator.cpp **** void free_slab_object(slab_t* slab, const void* objp)
 258:src/slabAllocator.cpp **** {
 1092              		.loc 1 258 1 is_stmt 1
 1093              		.cfi_startproc
 1094              	.LVL82:
 1095 05dc 130101FE 		addi	sp,sp,-32
 1096              		.cfi_def_cfa_offset 32
 1097 05e0 233C1100 		sd	ra,24(sp)
 1098 05e4 23388100 		sd	s0,16(sp)
 1099 05e8 23349100 		sd	s1,8(sp)
 1100 05ec 23302101 		sd	s2,0(sp)
 1101              		.cfi_offset 1, -8
 1102              		.cfi_offset 8, -16
 1103              		.cfi_offset 9, -24
 1104              		.cfi_offset 18, -32
 1105 05f0 13040102 		addi	s0,sp,32
 1106              		.cfi_def_cfa 8, 0
GAS LISTING /tmp/ccdjN2FA.s 			page 26


 259:src/slabAllocator.cpp ****     int indexOfObject = ((size_t)objp - sizeof(slab_t) - (size_t)slab) / slab->owner->obj_size;
 1107              		.loc 1 259 5
 1108              		.loc 1 259 56 is_stmt 0
 1109 05f4 B384A540 		sub	s1,a1,a0
 1110 05f8 938404FB 		addi	s1,s1,-80
 1111              		.loc 1 259 80
 1112 05fc 83370501 		ld	a5,16(a0)
 1113              		.loc 1 259 87
 1114 0600 83B70707 		ld	a5,112(a5)
 1115              		.loc 1 259 72
 1116 0604 B3D4F402 		divu	s1,s1,a5
 1117              		.loc 1 259 9
 1118 0608 9B840400 		sext.w	s1,s1
 1119              	.LVL83:
 260:src/slabAllocator.cpp ****     if((size_t)objp != (size_t)slab + sizeof(slab_t) + indexOfObject*slab->owner->obj_size) //addre
 1120              		.loc 1 260 5 is_stmt 1
 1121              		.loc 1 260 69 is_stmt 0
 1122 060c B3879702 		mul	a5,a5,s1
 1123              		.loc 1 260 54
 1124 0610 B307F500 		add	a5,a0,a5
 1125 0614 93870705 		addi	a5,a5,80
 1126              		.loc 1 260 5
 1127 0618 638EF500 		beq	a1,a5,.L70
 1128              	.LVL84:
 1129              	.L65:
 261:src/slabAllocator.cpp ****         return;
 262:src/slabAllocator.cpp ****     KConsole::trapPrintString("ok je index\n"); KConsole::trapPrintInt(indexOfObject);
 263:src/slabAllocator.cpp ****     KConsole::trapPrintString("\n");
 264:src/slabAllocator.cpp ****     resetAllocatedIndex(slab, indexOfObject);
 265:src/slabAllocator.cpp ****     if(slab->numOfObjects == slab->numOfAllocatedObjects)
 266:src/slabAllocator.cpp ****         removeFullSlab(slab->owner, slab);
 267:src/slabAllocator.cpp ****     else if(slab->numOfAllocatedObjects == 1)
 268:src/slabAllocator.cpp ****         removePartialSlab(slab->owner, slab);
 269:src/slabAllocator.cpp ****     slab->numOfAllocatedObjects--;
 270:src/slabAllocator.cpp **** }
 1130              		.loc 1 270 1
 1131 061c 83308101 		ld	ra,24(sp)
 1132              		.cfi_remember_state
 1133              		.cfi_restore 1
 1134 0620 03340101 		ld	s0,16(sp)
 1135              		.cfi_restore 8
 1136              		.cfi_def_cfa 2, 32
 1137 0624 83348100 		ld	s1,8(sp)
 1138              		.cfi_restore 9
 1139              	.LVL85:
 1140 0628 03390100 		ld	s2,0(sp)
 1141              		.cfi_restore 18
 1142 062c 13010102 		addi	sp,sp,32
 1143              		.cfi_def_cfa_offset 0
 1144 0630 67800000 		jr	ra
 1145              	.LVL86:
 1146              	.L70:
 1147              		.cfi_restore_state
 1148 0634 13090500 		mv	s2,a0
 262:src/slabAllocator.cpp ****     KConsole::trapPrintString("\n");
 1149              		.loc 1 262 5 is_stmt 1
 262:src/slabAllocator.cpp ****     KConsole::trapPrintString("\n");
GAS LISTING /tmp/ccdjN2FA.s 			page 27


 1150              		.loc 1 262 30 is_stmt 0
 1151 0638 17050000 		lla	a0,.LC6
 1151      13050500 
 1152              	.LVL87:
 1153 0640 97000000 		call	_ZN8KConsole15trapPrintStringEPKc@plt
 1153      E7800000 
 1154              	.LVL88:
 262:src/slabAllocator.cpp ****     KConsole::trapPrintString("\n");
 1155              		.loc 1 262 49 is_stmt 1
 262:src/slabAllocator.cpp ****     KConsole::trapPrintString("\n");
 1156              		.loc 1 262 71 is_stmt 0
 1157 0648 13060000 		li	a2,0
 1158 064c 9305A000 		li	a1,10
 1159 0650 13850400 		mv	a0,s1
 1160 0654 97000000 		call	_ZN8KConsole12trapPrintIntEmii@plt
 1160      E7800000 
 1161              	.LVL89:
 263:src/slabAllocator.cpp ****     resetAllocatedIndex(slab, indexOfObject);
 1162              		.loc 1 263 5 is_stmt 1
 263:src/slabAllocator.cpp ****     resetAllocatedIndex(slab, indexOfObject);
 1163              		.loc 1 263 30 is_stmt 0
 1164 065c 17050000 		lla	a0,.LC3
 1164      13050500 
 1165 0664 97000000 		call	_ZN8KConsole15trapPrintStringEPKc@plt
 1165      E7800000 
 1166              	.LVL90:
 264:src/slabAllocator.cpp ****     if(slab->numOfObjects == slab->numOfAllocatedObjects)
 1167              		.loc 1 264 5 is_stmt 1
 264:src/slabAllocator.cpp ****     if(slab->numOfObjects == slab->numOfAllocatedObjects)
 1168              		.loc 1 264 24 is_stmt 0
 1169 066c 93850400 		mv	a1,s1
 1170 0670 13050900 		mv	a0,s2
 1171 0674 97000000 		call	_Z19resetAllocatedIndexP6slab_si
 1171      E7800000 
 1172              	.LVL91:
 265:src/slabAllocator.cpp ****         removeFullSlab(slab->owner, slab);
 1173              		.loc 1 265 5 is_stmt 1
 265:src/slabAllocator.cpp ****         removeFullSlab(slab->owner, slab);
 1174              		.loc 1 265 14 is_stmt 0
 1175 067c 03378901 		ld	a4,24(s2)
 265:src/slabAllocator.cpp ****         removeFullSlab(slab->owner, slab);
 1176              		.loc 1 265 36
 1177 0680 83370902 		ld	a5,32(s2)
 265:src/slabAllocator.cpp ****         removeFullSlab(slab->owner, slab);
 1178              		.loc 1 265 5
 1179 0684 630EF700 		beq	a4,a5,.L71
 267:src/slabAllocator.cpp ****         removePartialSlab(slab->owner, slab);
 1180              		.loc 1 267 10 is_stmt 1
 1181 0688 13071000 		li	a4,1
 1182 068c 6384E702 		beq	a5,a4,.L72
 1183              	.L68:
 269:src/slabAllocator.cpp **** }
 1184              		.loc 1 269 5
 269:src/slabAllocator.cpp **** }
 1185              		.loc 1 269 11 is_stmt 0
 1186 0690 83370902 		ld	a5,32(s2)
 269:src/slabAllocator.cpp **** }
GAS LISTING /tmp/ccdjN2FA.s 			page 28


 1187              		.loc 1 269 32
 1188 0694 9387F7FF 		addi	a5,a5,-1
 1189 0698 2330F902 		sd	a5,32(s2)
 1190 069c 6FF01FF8 		j	.L65
 1191              	.L71:
 266:src/slabAllocator.cpp ****     else if(slab->numOfAllocatedObjects == 1)
 1192              		.loc 1 266 9 is_stmt 1
 266:src/slabAllocator.cpp ****     else if(slab->numOfAllocatedObjects == 1)
 1193              		.loc 1 266 23 is_stmt 0
 1194 06a0 93050900 		mv	a1,s2
 1195 06a4 03350901 		ld	a0,16(s2)
 1196 06a8 97000000 		call	_Z14removeFullSlabP12kmem_cache_sP6slab_s
 1196      E7800000 
 1197              	.LVL92:
 1198 06b0 6FF01FFE 		j	.L68
 1199              	.L72:
 268:src/slabAllocator.cpp ****     slab->numOfAllocatedObjects--;
 1200              		.loc 1 268 9 is_stmt 1
 268:src/slabAllocator.cpp ****     slab->numOfAllocatedObjects--;
 1201              		.loc 1 268 26 is_stmt 0
 1202 06b4 93050900 		mv	a1,s2
 1203 06b8 03350901 		ld	a0,16(s2)
 1204 06bc 97000000 		call	_Z17removePartialSlabP12kmem_cache_sP6slab_s
 1204      E7800000 
 1205              	.LVL93:
 1206 06c4 6FF0DFFC 		j	.L68
 1207              		.cfi_endproc
 1208              	.LFE19:
 1210              		.align	2
 1211              		.globl	_Z9kmem_initPvi
 1213              	_Z9kmem_initPvi:
 1214              	.LFB21:
 271:src/slabAllocator.cpp **** 
 272:src/slabAllocator.cpp **** void printSlabAllocatorInfo()
 273:src/slabAllocator.cpp **** {
 274:src/slabAllocator.cpp ****     KConsole::trapPrintString("Slab allocator info-------------------------------------------------
 275:src/slabAllocator.cpp ****     KConsole::trapPrintString("Slab allocator buddy address ");
 276:src/slabAllocator.cpp ****     KConsole::trapPrintInt((size_t)slabAllocator->buddy,16);KConsole::trapPrintString("\n");
 277:src/slabAllocator.cpp ****     KConsole::trapPrintString("Buddy allocator sizeof ");
 278:src/slabAllocator.cpp ****     KConsole::trapPrintInt(sizeof(buddyAllocator), 16); KConsole::trapPrintString("\n");
 279:src/slabAllocator.cpp ****     KConsole::trapPrintString("Slab allocator address ");
 280:src/slabAllocator.cpp ****     KConsole::trapPrintInt((size_t)slabAllocator,16); KConsole::trapPrintString("\n");
 281:src/slabAllocator.cpp ****     KConsole::trapPrintString("Cache of caches info\n");
 282:src/slabAllocator.cpp ****     kmem_cache_info(&slabAllocator->cacheOfCaches);
 283:src/slabAllocator.cpp ****     KConsole::trapPrintString("Caches for buffers\n");
 284:src/slabAllocator.cpp ****     for(size_t i = 0;i < CACHE_BUFFER_SIZE;i++)
 285:src/slabAllocator.cpp ****     {
 286:src/slabAllocator.cpp ****         if(slabAllocator->cachesBuffers[i] != nullptr)
 287:src/slabAllocator.cpp ****         {
 288:src/slabAllocator.cpp ****             kmem_cache_info(slabAllocator->cachesBuffers[i]);
 289:src/slabAllocator.cpp ****         }
 290:src/slabAllocator.cpp ****     }
 291:src/slabAllocator.cpp **** }
 292:src/slabAllocator.cpp **** 
 293:src/slabAllocator.cpp **** //slab allocator public interface------------------------------------------------------------------
 294:src/slabAllocator.cpp **** void kmem_init(void *space, int block_num)
 295:src/slabAllocator.cpp **** {
GAS LISTING /tmp/ccdjN2FA.s 			page 29


 1215              		.loc 1 295 1 is_stmt 1
 1216              		.cfi_startproc
 1217              	.LVL94:
 1218 06c8 130101FF 		addi	sp,sp,-16
 1219              		.cfi_def_cfa_offset 16
 1220 06cc 23341100 		sd	ra,8(sp)
 1221 06d0 23308100 		sd	s0,0(sp)
 1222              		.cfi_offset 1, -8
 1223              		.cfi_offset 8, -16
 1224 06d4 13040101 		addi	s0,sp,16
 1225              		.cfi_def_cfa 8, 0
 296:src/slabAllocator.cpp ****     buddyAllocator* buddy = buddy_init(space, block_num);
 1226              		.loc 1 296 5
 1227              		.loc 1 296 39 is_stmt 0
 1228 06d8 97000000 		call	_Z10buddy_initPvm@plt
 1228      E7800000 
 1229              	.LVL95:
 297:src/slabAllocator.cpp ****     slabAllocator = slab_allocator_init(buddy);
 1230              		.loc 1 297 5 is_stmt 1
 1231              		.loc 1 297 40 is_stmt 0
 1232 06e0 97000000 		call	_Z19slab_allocator_initP14buddyAllocator
 1232      E7800000 
 1233              	.LVL96:
 1234              		.loc 1 297 19
 1235 06e8 97070000 		sd	a0,.LANCHOR0,a5
 1235      23B0A700 
 298:src/slabAllocator.cpp ****     //printSlabAllocatorInfo();
 299:src/slabAllocator.cpp **** }
 1236              		.loc 1 299 1
 1237 06f0 83308100 		ld	ra,8(sp)
 1238              		.cfi_restore 1
 1239 06f4 03340100 		ld	s0,0(sp)
 1240              		.cfi_restore 8
 1241              		.cfi_def_cfa 2, 16
 1242 06f8 13010101 		addi	sp,sp,16
 1243              		.cfi_def_cfa_offset 0
 1244 06fc 67800000 		jr	ra
 1245              		.cfi_endproc
 1246              	.LFE21:
 1248              		.align	2
 1249              		.globl	_Z16kmem_cache_allocP12kmem_cache_s
 1251              	_Z16kmem_cache_allocP12kmem_cache_s:
 1252              	.LFB23:
 300:src/slabAllocator.cpp **** 
 301:src/slabAllocator.cpp **** kmem_cache_t *kmem_cache_create(const char *name, size_t size,
 302:src/slabAllocator.cpp ****                                 void (*ctor)(void *),
 303:src/slabAllocator.cpp ****                                 void (*dtor)(void *))
 304:src/slabAllocator.cpp **** {
 305:src/slabAllocator.cpp ****     kmem_cache_t* newCache = (kmem_cache_t*)kmem_cache_alloc(&slabAllocator->cacheOfCaches);
 306:src/slabAllocator.cpp ****     newCache->slabs_empty = nullptr;
 307:src/slabAllocator.cpp ****     newCache->slabs_partial = nullptr;
 308:src/slabAllocator.cpp ****     newCache->slabs_full = nullptr;
 309:src/slabAllocator.cpp ****     newCache->next = newCache->prev = nullptr;
 310:src/slabAllocator.cpp ****     newCache->dtor = dtor;
 311:src/slabAllocator.cpp ****     newCache->ctor = ctor;
 312:src/slabAllocator.cpp ****     strcpy(name, newCache->cacheName);
 313:src/slabAllocator.cpp ****     newCache->obj_size = size;
GAS LISTING /tmp/ccdjN2FA.s 			page 30


 314:src/slabAllocator.cpp ****     newCache->slab_size = getOptimalSlabSize(size);
 315:src/slabAllocator.cpp ****     return newCache;
 316:src/slabAllocator.cpp **** }
 317:src/slabAllocator.cpp **** 
 318:src/slabAllocator.cpp **** void *kmem_cache_alloc(kmem_cache_t *cachep)
 319:src/slabAllocator.cpp **** {
 1253              		.loc 1 319 1 is_stmt 1
 1254              		.cfi_startproc
 1255              	.LVL97:
 1256 0700 130101FE 		addi	sp,sp,-32
 1257              		.cfi_def_cfa_offset 32
 1258 0704 233C1100 		sd	ra,24(sp)
 1259 0708 23388100 		sd	s0,16(sp)
 1260 070c 23349100 		sd	s1,8(sp)
 1261 0710 23302101 		sd	s2,0(sp)
 1262              		.cfi_offset 1, -8
 1263              		.cfi_offset 8, -16
 1264              		.cfi_offset 9, -24
 1265              		.cfi_offset 18, -32
 1266 0714 13040102 		addi	s0,sp,32
 1267              		.cfi_def_cfa 8, 0
 1268 0718 93040500 		mv	s1,a0
 320:src/slabAllocator.cpp ****     if(cachep->slabs_partial != nullptr)
 1269              		.loc 1 320 5
 1270              	.LBB13:
 1271              		.loc 1 320 16 is_stmt 0
 1272 071c 03350506 		ld	a0,96(a0)
 1273              	.LVL98:
 1274              		.loc 1 320 5
 1275 0720 631C0502 		bnez	a0,.L83
 1276              	.LBE13:
 321:src/slabAllocator.cpp ****     {
 322:src/slabAllocator.cpp ****         void* allocatedAddr = allocateObject(cachep->slabs_partial);
 323:src/slabAllocator.cpp ****         if(full(cachep->slabs_partial))
 324:src/slabAllocator.cpp ****             putPartialToFull(cachep);
 325:src/slabAllocator.cpp ****         return allocatedAddr;
 326:src/slabAllocator.cpp ****     }
 327:src/slabAllocator.cpp ****     else if(cachep->slabs_empty != nullptr)
 1277              		.loc 1 327 10 is_stmt 1
 1278              	.LBB20:
 1279              	.LBB14:
 1280              		.loc 1 327 21 is_stmt 0
 1281 0724 03B50405 		ld	a0,80(s1)
 1282              		.loc 1 327 10
 1283 0728 630C0506 		beqz	a0,.L79
 1284              	.LBB15:
 328:src/slabAllocator.cpp ****     {
 329:src/slabAllocator.cpp ****         void* allocatedAddr = allocateObject(cachep->slabs_empty);
 1285              		.loc 1 329 9 is_stmt 1
 1286              		.loc 1 329 45 is_stmt 0
 1287 072c 97000000 		call	_Z14allocateObjectP6slab_s
 1287      E7800000 
 1288              	.LVL99:
 1289 0734 13090500 		mv	s2,a0
 1290              	.LVL100:
 330:src/slabAllocator.cpp ****         if(!empty(cachep->slabs_empty))
 1291              		.loc 1 330 9 is_stmt 1
GAS LISTING /tmp/ccdjN2FA.s 			page 31


 1292              		.loc 1 330 18 is_stmt 0
 1293 0738 03B50405 		ld	a0,80(s1)
 1294              	.LVL101:
 1295 073c 97000000 		call	_Z5emptyP6slab_s
 1295      E7800000 
 1296              	.LVL102:
 1297              		.loc 1 330 9
 1298 0744 63180502 		bnez	a0,.L75
 331:src/slabAllocator.cpp ****             putEmptyToPartial(cachep);
 1299              		.loc 1 331 13 is_stmt 1
 1300              		.loc 1 331 30 is_stmt 0
 1301 0748 13850400 		mv	a0,s1
 1302 074c 97000000 		call	_Z17putEmptyToPartialP12kmem_cache_s
 1302      E7800000 
 1303              	.LVL103:
 332:src/slabAllocator.cpp ****         return allocatedAddr;
 1304              		.loc 1 332 9 is_stmt 1
 1305              		.loc 1 332 16 is_stmt 0
 1306 0754 6F000002 		j	.L75
 1307              	.LVL104:
 1308              	.L83:
 1309              	.LBE15:
 1310              	.LBE14:
 1311              	.LBB17:
 322:src/slabAllocator.cpp ****         if(full(cachep->slabs_partial))
 1312              		.loc 1 322 9 is_stmt 1
 322:src/slabAllocator.cpp ****         if(full(cachep->slabs_partial))
 1313              		.loc 1 322 45 is_stmt 0
 1314 0758 97000000 		call	_Z14allocateObjectP6slab_s
 1314      E7800000 
 1315              	.LVL105:
 1316 0760 13090500 		mv	s2,a0
 1317              	.LVL106:
 323:src/slabAllocator.cpp ****             putPartialToFull(cachep);
 1318              		.loc 1 323 9 is_stmt 1
 323:src/slabAllocator.cpp ****             putPartialToFull(cachep);
 1319              		.loc 1 323 16 is_stmt 0
 1320 0764 03B50406 		ld	a0,96(s1)
 1321              	.LVL107:
 1322 0768 97000000 		call	_Z4fullP6slab_s
 1322      E7800000 
 1323              	.LVL108:
 323:src/slabAllocator.cpp ****             putPartialToFull(cachep);
 1324              		.loc 1 323 9
 1325 0770 63100502 		bnez	a0,.L84
 1326              	.LVL109:
 1327              	.L75:
 1328              	.LBE17:
 1329              	.LBE20:
 333:src/slabAllocator.cpp ****     }
 334:src/slabAllocator.cpp ****     else
 335:src/slabAllocator.cpp ****     {
 336:src/slabAllocator.cpp ****         allocateSlab(cachep);
 337:src/slabAllocator.cpp ****         if(cachep->slabs_empty == nullptr)
 338:src/slabAllocator.cpp ****             return nullptr;
 339:src/slabAllocator.cpp ****         void* allocatedAddr = allocateObject(cachep->slabs_empty);
 340:src/slabAllocator.cpp ****         if(!empty(cachep->slabs_empty))
GAS LISTING /tmp/ccdjN2FA.s 			page 32


 341:src/slabAllocator.cpp ****             putEmptyToPartial(cachep);
 342:src/slabAllocator.cpp ****         return allocatedAddr;
 343:src/slabAllocator.cpp ****     }
 344:src/slabAllocator.cpp ****     return nullptr;
 345:src/slabAllocator.cpp **** }
 1330              		.loc 1 345 1
 1331 0774 13050900 		mv	a0,s2
 1332 0778 83308101 		ld	ra,24(sp)
 1333              		.cfi_remember_state
 1334              		.cfi_restore 1
 1335 077c 03340101 		ld	s0,16(sp)
 1336              		.cfi_restore 8
 1337              		.cfi_def_cfa 2, 32
 1338 0780 83348100 		ld	s1,8(sp)
 1339              		.cfi_restore 9
 1340              	.LVL110:
 1341 0784 03390100 		ld	s2,0(sp)
 1342              		.cfi_restore 18
 1343 0788 13010102 		addi	sp,sp,32
 1344              		.cfi_def_cfa_offset 0
 1345 078c 67800000 		jr	ra
 1346              	.LVL111:
 1347              	.L84:
 1348              		.cfi_restore_state
 1349              	.LBB21:
 1350              	.LBB18:
 324:src/slabAllocator.cpp ****         return allocatedAddr;
 1351              		.loc 1 324 13 is_stmt 1
 324:src/slabAllocator.cpp ****         return allocatedAddr;
 1352              		.loc 1 324 29 is_stmt 0
 1353 0790 13850400 		mv	a0,s1
 1354 0794 97000000 		call	_Z16putPartialToFullP12kmem_cache_s
 1354      E7800000 
 1355              	.LVL112:
 325:src/slabAllocator.cpp ****     }
 1356              		.loc 1 325 9 is_stmt 1
 325:src/slabAllocator.cpp ****     }
 1357              		.loc 1 325 16 is_stmt 0
 1358 079c 6FF09FFD 		j	.L75
 1359              	.LVL113:
 1360              	.L79:
 1361              	.LBE18:
 1362              	.LBB19:
 1363              	.LBB16:
 336:src/slabAllocator.cpp ****         if(cachep->slabs_empty == nullptr)
 1364              		.loc 1 336 9 is_stmt 1
 336:src/slabAllocator.cpp ****         if(cachep->slabs_empty == nullptr)
 1365              		.loc 1 336 21 is_stmt 0
 1366 07a0 13850400 		mv	a0,s1
 1367 07a4 97000000 		call	_Z12allocateSlabP12kmem_cache_s
 1367      E7800000 
 1368              	.LVL114:
 337:src/slabAllocator.cpp ****             return nullptr;
 1369              		.loc 1 337 9 is_stmt 1
 337:src/slabAllocator.cpp ****             return nullptr;
 1370              		.loc 1 337 20 is_stmt 0
 1371 07ac 03B90405 		ld	s2,80(s1)
GAS LISTING /tmp/ccdjN2FA.s 			page 33


 337:src/slabAllocator.cpp ****             return nullptr;
 1372              		.loc 1 337 9
 1373 07b0 E30209FC 		beqz	s2,.L75
 339:src/slabAllocator.cpp ****         if(!empty(cachep->slabs_empty))
 1374              		.loc 1 339 9 is_stmt 1
 339:src/slabAllocator.cpp ****         if(!empty(cachep->slabs_empty))
 1375              		.loc 1 339 45 is_stmt 0
 1376 07b4 13050900 		mv	a0,s2
 1377 07b8 97000000 		call	_Z14allocateObjectP6slab_s
 1377      E7800000 
 1378              	.LVL115:
 1379 07c0 13090500 		mv	s2,a0
 1380              	.LVL116:
 340:src/slabAllocator.cpp ****             putEmptyToPartial(cachep);
 1381              		.loc 1 340 9 is_stmt 1
 340:src/slabAllocator.cpp ****             putEmptyToPartial(cachep);
 1382              		.loc 1 340 18 is_stmt 0
 1383 07c4 03B50405 		ld	a0,80(s1)
 1384              	.LVL117:
 1385 07c8 97000000 		call	_Z5emptyP6slab_s
 1385      E7800000 
 1386              	.LVL118:
 340:src/slabAllocator.cpp ****             putEmptyToPartial(cachep);
 1387              		.loc 1 340 9
 1388 07d0 E31205FA 		bnez	a0,.L75
 341:src/slabAllocator.cpp ****         return allocatedAddr;
 1389              		.loc 1 341 13 is_stmt 1
 341:src/slabAllocator.cpp ****         return allocatedAddr;
 1390              		.loc 1 341 30 is_stmt 0
 1391 07d4 13850400 		mv	a0,s1
 1392 07d8 97000000 		call	_Z17putEmptyToPartialP12kmem_cache_s
 1392      E7800000 
 1393              	.LVL119:
 342:src/slabAllocator.cpp ****     }
 1394              		.loc 1 342 9 is_stmt 1
 342:src/slabAllocator.cpp ****     }
 1395              		.loc 1 342 16 is_stmt 0
 1396 07e0 6FF05FF9 		j	.L75
 1397              	.LBE16:
 1398              	.LBE19:
 1399              	.LBE21:
 1400              		.cfi_endproc
 1401              	.LFE23:
 1403              		.align	2
 1404              		.globl	_Z17kmem_cache_createPKcmPFvPvES3_
 1406              	_Z17kmem_cache_createPKcmPFvPvES3_:
 1407              	.LFB22:
 304:src/slabAllocator.cpp ****     kmem_cache_t* newCache = (kmem_cache_t*)kmem_cache_alloc(&slabAllocator->cacheOfCaches);
 1408              		.loc 1 304 1 is_stmt 1
 1409              		.cfi_startproc
 1410              	.LVL120:
 1411 07e4 130101FC 		addi	sp,sp,-64
 1412              		.cfi_def_cfa_offset 64
 1413 07e8 233C1102 		sd	ra,56(sp)
 1414 07ec 23388102 		sd	s0,48(sp)
 1415 07f0 23349102 		sd	s1,40(sp)
 1416 07f4 23302103 		sd	s2,32(sp)
GAS LISTING /tmp/ccdjN2FA.s 			page 34


 1417 07f8 233C3101 		sd	s3,24(sp)
 1418 07fc 23384101 		sd	s4,16(sp)
 1419 0800 23345101 		sd	s5,8(sp)
 1420              		.cfi_offset 1, -8
 1421              		.cfi_offset 8, -16
 1422              		.cfi_offset 9, -24
 1423              		.cfi_offset 18, -32
 1424              		.cfi_offset 19, -40
 1425              		.cfi_offset 20, -48
 1426              		.cfi_offset 21, -56
 1427 0804 13040104 		addi	s0,sp,64
 1428              		.cfi_def_cfa 8, 0
 1429 0808 93090500 		mv	s3,a0
 1430 080c 13890500 		mv	s2,a1
 1431 0810 130A0600 		mv	s4,a2
 1432 0814 938A0600 		mv	s5,a3
 305:src/slabAllocator.cpp ****     newCache->slabs_empty = nullptr;
 1433              		.loc 1 305 5
 305:src/slabAllocator.cpp ****     newCache->slabs_empty = nullptr;
 1434              		.loc 1 305 61 is_stmt 0
 1435 0818 17050000 		ld	a0,.LANCHOR0
 1435      03350500 
 1436              	.LVL121:
 1437 0820 13058507 		addi	a0,a0,120
 1438 0824 97000000 		call	_Z16kmem_cache_allocP12kmem_cache_s
 1438      E7800000 
 1439              	.LVL122:
 1440 082c 93040500 		mv	s1,a0
 1441              	.LVL123:
 306:src/slabAllocator.cpp ****     newCache->slabs_partial = nullptr;
 1442              		.loc 1 306 5 is_stmt 1
 306:src/slabAllocator.cpp ****     newCache->slabs_partial = nullptr;
 1443              		.loc 1 306 27 is_stmt 0
 1444 0830 23380504 		sd	zero,80(a0)
 307:src/slabAllocator.cpp ****     newCache->slabs_full = nullptr;
 1445              		.loc 1 307 5 is_stmt 1
 307:src/slabAllocator.cpp ****     newCache->slabs_full = nullptr;
 1446              		.loc 1 307 29 is_stmt 0
 1447 0834 23300506 		sd	zero,96(a0)
 308:src/slabAllocator.cpp ****     newCache->next = newCache->prev = nullptr;
 1448              		.loc 1 308 5 is_stmt 1
 308:src/slabAllocator.cpp ****     newCache->next = newCache->prev = nullptr;
 1449              		.loc 1 308 26 is_stmt 0
 1450 0838 233C0504 		sd	zero,88(a0)
 309:src/slabAllocator.cpp ****     newCache->dtor = dtor;
 1451              		.loc 1 309 5 is_stmt 1
 309:src/slabAllocator.cpp ****     newCache->dtor = dtor;
 1452              		.loc 1 309 37 is_stmt 0
 1453 083c 23340504 		sd	zero,72(a0)
 309:src/slabAllocator.cpp ****     newCache->dtor = dtor;
 1454              		.loc 1 309 20
 1455 0840 23300504 		sd	zero,64(a0)
 310:src/slabAllocator.cpp ****     newCache->ctor = ctor;
 1456              		.loc 1 310 5 is_stmt 1
 310:src/slabAllocator.cpp ****     newCache->ctor = ctor;
 1457              		.loc 1 310 20 is_stmt 0
 1458 0844 23305509 		sd	s5,128(a0)
GAS LISTING /tmp/ccdjN2FA.s 			page 35


 311:src/slabAllocator.cpp ****     strcpy(name, newCache->cacheName);
 1459              		.loc 1 311 5 is_stmt 1
 311:src/slabAllocator.cpp ****     strcpy(name, newCache->cacheName);
 1460              		.loc 1 311 20 is_stmt 0
 1461 0848 233C4507 		sd	s4,120(a0)
 312:src/slabAllocator.cpp ****     newCache->obj_size = size;
 1462              		.loc 1 312 5 is_stmt 1
 312:src/slabAllocator.cpp ****     newCache->obj_size = size;
 1463              		.loc 1 312 11 is_stmt 0
 1464 084c 93050500 		mv	a1,a0
 1465 0850 13850900 		mv	a0,s3
 1466 0854 97000000 		call	_Z6strcpyPKcPc
 1466      E7800000 
 1467              	.LVL124:
 313:src/slabAllocator.cpp ****     newCache->slab_size = getOptimalSlabSize(size);
 1468              		.loc 1 313 5 is_stmt 1
 313:src/slabAllocator.cpp ****     newCache->slab_size = getOptimalSlabSize(size);
 1469              		.loc 1 313 24 is_stmt 0
 1470 085c 23B82407 		sd	s2,112(s1)
 314:src/slabAllocator.cpp ****     return newCache;
 1471              		.loc 1 314 5 is_stmt 1
 314:src/slabAllocator.cpp ****     return newCache;
 1472              		.loc 1 314 45 is_stmt 0
 1473 0860 13050900 		mv	a0,s2
 1474 0864 97000000 		call	_Z18getOptimalSlabSizem
 1474      E7800000 
 1475              	.LVL125:
 314:src/slabAllocator.cpp ****     return newCache;
 1476              		.loc 1 314 25
 1477 086c 23B4A406 		sd	a0,104(s1)
 315:src/slabAllocator.cpp **** }
 1478              		.loc 1 315 5 is_stmt 1
 316:src/slabAllocator.cpp **** 
 1479              		.loc 1 316 1 is_stmt 0
 1480 0870 13850400 		mv	a0,s1
 1481 0874 83308103 		ld	ra,56(sp)
 1482              		.cfi_restore 1
 1483 0878 03340103 		ld	s0,48(sp)
 1484              		.cfi_restore 8
 1485              		.cfi_def_cfa 2, 64
 1486 087c 83348102 		ld	s1,40(sp)
 1487              		.cfi_restore 9
 1488              	.LVL126:
 1489 0880 03390102 		ld	s2,32(sp)
 1490              		.cfi_restore 18
 1491              	.LVL127:
 1492 0884 83398101 		ld	s3,24(sp)
 1493              		.cfi_restore 19
 1494              	.LVL128:
 1495 0888 033A0101 		ld	s4,16(sp)
 1496              		.cfi_restore 20
 1497              	.LVL129:
 1498 088c 833A8100 		ld	s5,8(sp)
 1499              		.cfi_restore 21
 1500              	.LVL130:
 1501 0890 13010104 		addi	sp,sp,64
 1502              		.cfi_def_cfa_offset 0
GAS LISTING /tmp/ccdjN2FA.s 			page 36


 1503 0894 67800000 		jr	ra
 1504              		.cfi_endproc
 1505              	.LFE22:
 1507              		.section	.rodata.str1.8
 1508 0085 000000   		.align	3
 1509              	.LC7:
 1510 0088 46696E64 		.string	"Finding slab........\n"
 1510      696E6720 
 1510      736C6162 
 1510      2E2E2E2E 
 1510      2E2E2E2E 
 1511 009e 0000     		.align	3
 1512              	.LC8:
 1513 00a0 466F756E 		.string	"Found slab "
 1513      6420736C 
 1513      61622000 
 1514              		.text
 1515              		.align	2
 1516              		.globl	_Z15kmem_cache_freeP12kmem_cache_sPv
 1518              	_Z15kmem_cache_freeP12kmem_cache_sPv:
 1519              	.LFB24:
 346:src/slabAllocator.cpp **** 
 347:src/slabAllocator.cpp **** void kmem_cache_free(kmem_cache_t *cachep, void *objp)
 348:src/slabAllocator.cpp **** {
 1520              		.loc 1 348 1 is_stmt 1
 1521              		.cfi_startproc
 1522              	.LVL131:
 1523 0898 130101FE 		addi	sp,sp,-32
 1524              		.cfi_def_cfa_offset 32
 1525 089c 233C1100 		sd	ra,24(sp)
 1526 08a0 23388100 		sd	s0,16(sp)
 1527 08a4 23349100 		sd	s1,8(sp)
 1528 08a8 23302101 		sd	s2,0(sp)
 1529              		.cfi_offset 1, -8
 1530              		.cfi_offset 8, -16
 1531              		.cfi_offset 9, -24
 1532              		.cfi_offset 18, -32
 1533 08ac 13040102 		addi	s0,sp,32
 1534              		.cfi_def_cfa 8, 0
 1535 08b0 13890500 		mv	s2,a1
 349:src/slabAllocator.cpp ****     slab_t* slab = findSlab(cachep, objp);
 1536              		.loc 1 349 5
 1537              		.loc 1 349 28 is_stmt 0
 1538 08b4 97000000 		call	_Z8findSlabP12kmem_cache_sPKv
 1538      E7800000 
 1539              	.LVL132:
 1540 08bc 93040500 		mv	s1,a0
 1541              	.LVL133:
 350:src/slabAllocator.cpp ****     KConsole::trapPrintString("Finding slab........\n");
 1542              		.loc 1 350 5 is_stmt 1
 1543              		.loc 1 350 30 is_stmt 0
 1544 08c0 17050000 		lla	a0,.LC7
 1544      13050500 
 1545 08c8 97000000 		call	_ZN8KConsole15trapPrintStringEPKc@plt
 1545      E7800000 
 1546              	.LVL134:
 351:src/slabAllocator.cpp ****     if(slab == nullptr) return;
GAS LISTING /tmp/ccdjN2FA.s 			page 37


 1547              		.loc 1 351 5 is_stmt 1
 1548 08d0 63840404 		beqz	s1,.L87
 352:src/slabAllocator.cpp ****     KConsole::trapPrintString("Found slab ");
 1549              		.loc 1 352 5
 1550              		.loc 1 352 30 is_stmt 0
 1551 08d4 17050000 		lla	a0,.LC8
 1551      13050500 
 1552 08dc 97000000 		call	_ZN8KConsole15trapPrintStringEPKc@plt
 1552      E7800000 
 1553              	.LVL135:
 353:src/slabAllocator.cpp ****     KConsole::trapPrintInt((size_t)slab, 16); KConsole::trapPrintString("\n");
 1554              		.loc 1 353 5 is_stmt 1
 1555              		.loc 1 353 27 is_stmt 0
 1556 08e4 13060000 		li	a2,0
 1557 08e8 93050001 		li	a1,16
 1558 08ec 13850400 		mv	a0,s1
 1559 08f0 97000000 		call	_ZN8KConsole12trapPrintIntEmii@plt
 1559      E7800000 
 1560              	.LVL136:
 1561              		.loc 1 353 47 is_stmt 1
 1562              		.loc 1 353 72 is_stmt 0
 1563 08f8 17050000 		lla	a0,.LC3
 1563      13050500 
 1564 0900 97000000 		call	_ZN8KConsole15trapPrintStringEPKc@plt
 1564      E7800000 
 1565              	.LVL137:
 354:src/slabAllocator.cpp ****     free_slab_object(slab, objp);
 1566              		.loc 1 354 5 is_stmt 1
 1567              		.loc 1 354 21 is_stmt 0
 1568 0908 93050900 		mv	a1,s2
 1569 090c 13850400 		mv	a0,s1
 1570 0910 97000000 		call	_Z16free_slab_objectP6slab_sPKv
 1570      E7800000 
 1571              	.LVL138:
 1572              	.L87:
 355:src/slabAllocator.cpp **** }
 1573              		.loc 1 355 1
 1574 0918 83308101 		ld	ra,24(sp)
 1575              		.cfi_restore 1
 1576 091c 03340101 		ld	s0,16(sp)
 1577              		.cfi_restore 8
 1578              		.cfi_def_cfa 2, 32
 1579 0920 83348100 		ld	s1,8(sp)
 1580              		.cfi_restore 9
 1581              	.LVL139:
 1582 0924 03390100 		ld	s2,0(sp)
 1583              		.cfi_restore 18
 1584              	.LVL140:
 1585 0928 13010102 		addi	sp,sp,32
 1586              		.cfi_def_cfa_offset 0
 1587 092c 67800000 		jr	ra
 1588              		.cfi_endproc
 1589              	.LFE24:
 1591              		.section	.rodata.str1.8
 1592 00ac 00000000 		.align	3
 1593              	.LC9:
 1594 00b0 4B6D656D 		.string	"Kmem Cache Info-------------------------------------\n"
GAS LISTING /tmp/ccdjN2FA.s 			page 38


 1594      20436163 
 1594      68652049 
 1594      6E666F2D 
 1594      2D2D2D2D 
 1595 00e6 0000     		.align	3
 1596              	.LC10:
 1597 00e8 43616368 		.string	"Cache Name "
 1597      65204E61 
 1597      6D652000 
 1598 00f4 00000000 		.align	3
 1599              	.LC11:
 1600 00f8 43616368 		.string	"Cache slab size in blocks "
 1600      6520736C 
 1600      61622073 
 1600      697A6520 
 1600      696E2062 
 1601 0113 00000000 		.align	3
 1601      00
 1602              	.LC12:
 1603 0118 43616368 		.string	"Cache obj size in bytes "
 1603      65206F62 
 1603      6A207369 
 1603      7A652069 
 1603      6E206279 
 1604 0131 00000000 		.align	3
 1604      000000
 1605              	.LC13:
 1606 0138 536C6162 		.string	"Slabs info-------------------\n"
 1606      7320696E 
 1606      666F2D2D 
 1606      2D2D2D2D 
 1606      2D2D2D2D 
 1607 0157 00       		.align	3
 1608              	.LC14:
 1609 0158 46756C6C 		.string	"Full slabs\n"
 1609      20736C61 
 1609      62730A00 
 1610 0164 00000000 		.align	3
 1611              	.LC15:
 1612 0168 50617274 		.string	"Partial slabs\n"
 1612      69616C20 
 1612      736C6162 
 1612      730A00
 1613 0177 00       		.align	3
 1614              	.LC16:
 1615 0178 456D7074 		.string	"Empty slabs\n"
 1615      7920736C 
 1615      6162730A 
 1615      00
 1616              		.text
 1617              		.align	2
 1618              		.globl	_Z15kmem_cache_infoP12kmem_cache_s
 1620              	_Z15kmem_cache_infoP12kmem_cache_s:
 1621              	.LFB25:
 356:src/slabAllocator.cpp **** 
 357:src/slabAllocator.cpp **** //TODO
 358:src/slabAllocator.cpp **** //what needs to be printed
GAS LISTING /tmp/ccdjN2FA.s 			page 39


 359:src/slabAllocator.cpp **** void kmem_cache_info(kmem_cache_t *cachep)
 360:src/slabAllocator.cpp **** {
 1622              		.loc 1 360 1 is_stmt 1
 1623              		.cfi_startproc
 1624              	.LVL141:
 1625 0930 130101FE 		addi	sp,sp,-32
 1626              		.cfi_def_cfa_offset 32
 1627 0934 233C1100 		sd	ra,24(sp)
 1628 0938 23388100 		sd	s0,16(sp)
 1629 093c 23349100 		sd	s1,8(sp)
 1630 0940 23302101 		sd	s2,0(sp)
 1631              		.cfi_offset 1, -8
 1632              		.cfi_offset 8, -16
 1633              		.cfi_offset 9, -24
 1634              		.cfi_offset 18, -32
 1635 0944 13040102 		addi	s0,sp,32
 1636              		.cfi_def_cfa 8, 0
 1637 0948 13090500 		mv	s2,a0
 361:src/slabAllocator.cpp ****     KConsole::trapPrintString("Kmem Cache Info-------------------------------------\n");
 1638              		.loc 1 361 5
 1639              		.loc 1 361 30 is_stmt 0
 1640 094c 17050000 		lla	a0,.LC9
 1640      13050500 
 1641              	.LVL142:
 1642 0954 97000000 		call	_ZN8KConsole15trapPrintStringEPKc@plt
 1642      E7800000 
 1643              	.LVL143:
 362:src/slabAllocator.cpp ****     KConsole::trapPrintString("Cache Name ");
 1644              		.loc 1 362 5 is_stmt 1
 1645              		.loc 1 362 30 is_stmt 0
 1646 095c 17050000 		lla	a0,.LC10
 1646      13050500 
 1647 0964 97000000 		call	_ZN8KConsole15trapPrintStringEPKc@plt
 1647      E7800000 
 1648              	.LVL144:
 363:src/slabAllocator.cpp ****     KConsole::trapPrintString(cachep->cacheName); KConsole::trapPrintString("\n");
 1649              		.loc 1 363 5 is_stmt 1
 1650              		.loc 1 363 30 is_stmt 0
 1651 096c 13050900 		mv	a0,s2
 1652 0970 97000000 		call	_ZN8KConsole15trapPrintStringEPKc@plt
 1652      E7800000 
 1653              	.LVL145:
 1654              		.loc 1 363 51 is_stmt 1
 1655              		.loc 1 363 76 is_stmt 0
 1656 0978 17050000 		lla	a0,.LC3
 1656      13050500 
 1657 0980 97000000 		call	_ZN8KConsole15trapPrintStringEPKc@plt
 1657      E7800000 
 1658              	.LVL146:
 364:src/slabAllocator.cpp ****     KConsole::trapPrintString("Cache slab size in blocks ");
 1659              		.loc 1 364 5 is_stmt 1
 1660              		.loc 1 364 30 is_stmt 0
 1661 0988 17050000 		lla	a0,.LC11
 1661      13050500 
 1662 0990 97000000 		call	_ZN8KConsole15trapPrintStringEPKc@plt
 1662      E7800000 
 1663              	.LVL147:
GAS LISTING /tmp/ccdjN2FA.s 			page 40


 365:src/slabAllocator.cpp ****     KConsole::trapPrintInt(cachep->slab_size); KConsole::trapPrintString("\n");
 1664              		.loc 1 365 5 is_stmt 1
 1665              		.loc 1 365 27 is_stmt 0
 1666 0998 13060000 		li	a2,0
 1667 099c 9305A000 		li	a1,10
 1668 09a0 03358906 		ld	a0,104(s2)
 1669 09a4 97000000 		call	_ZN8KConsole12trapPrintIntEmii@plt
 1669      E7800000 
 1670              	.LVL148:
 1671              		.loc 1 365 48 is_stmt 1
 1672              		.loc 1 365 73 is_stmt 0
 1673 09ac 17050000 		lla	a0,.LC3
 1673      13050500 
 1674 09b4 97000000 		call	_ZN8KConsole15trapPrintStringEPKc@plt
 1674      E7800000 
 1675              	.LVL149:
 366:src/slabAllocator.cpp ****     KConsole::trapPrintString("Cache obj size in bytes ");
 1676              		.loc 1 366 5 is_stmt 1
 1677              		.loc 1 366 30 is_stmt 0
 1678 09bc 17050000 		lla	a0,.LC12
 1678      13050500 
 1679 09c4 97000000 		call	_ZN8KConsole15trapPrintStringEPKc@plt
 1679      E7800000 
 1680              	.LVL150:
 367:src/slabAllocator.cpp ****     KConsole::trapPrintInt(cachep->obj_size); KConsole::trapPrintString("\n");
 1681              		.loc 1 367 5 is_stmt 1
 1682              		.loc 1 367 27 is_stmt 0
 1683 09cc 13060000 		li	a2,0
 1684 09d0 9305A000 		li	a1,10
 1685 09d4 03350907 		ld	a0,112(s2)
 1686 09d8 97000000 		call	_ZN8KConsole12trapPrintIntEmii@plt
 1686      E7800000 
 1687              	.LVL151:
 1688              		.loc 1 367 47 is_stmt 1
 1689              		.loc 1 367 72 is_stmt 0
 1690 09e0 17050000 		lla	a0,.LC3
 1690      13050500 
 1691 09e8 97000000 		call	_ZN8KConsole15trapPrintStringEPKc@plt
 1691      E7800000 
 1692              	.LVL152:
 368:src/slabAllocator.cpp ****     KConsole::trapPrintString("Slabs info-------------------\n");
 1693              		.loc 1 368 5 is_stmt 1
 1694              		.loc 1 368 30 is_stmt 0
 1695 09f0 17050000 		lla	a0,.LC13
 1695      13050500 
 1696 09f8 97000000 		call	_ZN8KConsole15trapPrintStringEPKc@plt
 1696      E7800000 
 1697              	.LVL153:
 369:src/slabAllocator.cpp **** 
 370:src/slabAllocator.cpp ****     KConsole::trapPrintString("Full slabs\n");
 1698              		.loc 1 370 5 is_stmt 1
 1699              		.loc 1 370 30 is_stmt 0
 1700 0a00 17050000 		lla	a0,.LC14
 1700      13050500 
 1701 0a08 97000000 		call	_ZN8KConsole15trapPrintStringEPKc@plt
 1701      E7800000 
 1702              	.LVL154:
GAS LISTING /tmp/ccdjN2FA.s 			page 41


 371:src/slabAllocator.cpp ****     slab_t* slab = cachep->slabs_full;
 1703              		.loc 1 371 5 is_stmt 1
 1704              		.loc 1 371 13 is_stmt 0
 1705 0a10 83348905 		ld	s1,88(s2)
 1706              	.LVL155:
 1707              	.L92:
 372:src/slabAllocator.cpp ****     while(slab != nullptr)
 1708              		.loc 1 372 5 is_stmt 1
 1709              		.loc 1 372 16
 1710 0a14 638C0400 		beqz	s1,.L91
 373:src/slabAllocator.cpp ****     {
 374:src/slabAllocator.cpp ****         printSlabInfo(slab);
 1711              		.loc 1 374 9
 1712              		.loc 1 374 22 is_stmt 0
 1713 0a18 13850400 		mv	a0,s1
 1714 0a1c 97000000 		call	_Z13printSlabInfoP6slab_s
 1714      E7800000 
 1715              	.LVL156:
 375:src/slabAllocator.cpp ****         slab = slab->next;
 1716              		.loc 1 375 9 is_stmt 1
 1717              		.loc 1 375 14 is_stmt 0
 1718 0a24 83B48400 		ld	s1,8(s1)
 1719              	.LVL157:
 372:src/slabAllocator.cpp ****     while(slab != nullptr)
 1720              		.loc 1 372 5
 1721 0a28 6FF0DFFE 		j	.L92
 1722              	.L91:
 376:src/slabAllocator.cpp ****     }
 377:src/slabAllocator.cpp **** 
 378:src/slabAllocator.cpp ****     KConsole::trapPrintString("Partial slabs\n");
 1723              		.loc 1 378 5 is_stmt 1
 1724              		.loc 1 378 30 is_stmt 0
 1725 0a2c 17050000 		lla	a0,.LC15
 1725      13050500 
 1726 0a34 97000000 		call	_ZN8KConsole15trapPrintStringEPKc@plt
 1726      E7800000 
 1727              	.LVL158:
 379:src/slabAllocator.cpp ****     slab = cachep->slabs_partial;
 1728              		.loc 1 379 5 is_stmt 1
 1729              		.loc 1 379 10 is_stmt 0
 1730 0a3c 83340906 		ld	s1,96(s2)
 1731              	.LVL159:
 1732              	.L94:
 380:src/slabAllocator.cpp ****     while(slab != nullptr)
 1733              		.loc 1 380 5 is_stmt 1
 1734              		.loc 1 380 16
 1735 0a40 638C0400 		beqz	s1,.L93
 381:src/slabAllocator.cpp ****     {
 382:src/slabAllocator.cpp ****         printSlabInfo(slab);
 1736              		.loc 1 382 9
 1737              		.loc 1 382 22 is_stmt 0
 1738 0a44 13850400 		mv	a0,s1
 1739 0a48 97000000 		call	_Z13printSlabInfoP6slab_s
 1739      E7800000 
 1740              	.LVL160:
 383:src/slabAllocator.cpp ****         slab = slab->next;
 1741              		.loc 1 383 9 is_stmt 1
GAS LISTING /tmp/ccdjN2FA.s 			page 42


 1742              		.loc 1 383 14 is_stmt 0
 1743 0a50 83B48400 		ld	s1,8(s1)
 1744              	.LVL161:
 380:src/slabAllocator.cpp ****     while(slab != nullptr)
 1745              		.loc 1 380 5
 1746 0a54 6FF0DFFE 		j	.L94
 1747              	.L93:
 384:src/slabAllocator.cpp ****     }
 385:src/slabAllocator.cpp **** 
 386:src/slabAllocator.cpp ****     KConsole::trapPrintString("Empty slabs\n");
 1748              		.loc 1 386 5 is_stmt 1
 1749              		.loc 1 386 30 is_stmt 0
 1750 0a58 17050000 		lla	a0,.LC16
 1750      13050500 
 1751 0a60 97000000 		call	_ZN8KConsole15trapPrintStringEPKc@plt
 1751      E7800000 
 1752              	.LVL162:
 387:src/slabAllocator.cpp ****     slab = cachep->slabs_empty;
 1753              		.loc 1 387 5 is_stmt 1
 1754              		.loc 1 387 10 is_stmt 0
 1755 0a68 83340905 		ld	s1,80(s2)
 1756              	.LVL163:
 1757              	.L96:
 388:src/slabAllocator.cpp ****     while(slab != nullptr)
 1758              		.loc 1 388 5 is_stmt 1
 1759              		.loc 1 388 16
 1760 0a6c 638C0400 		beqz	s1,.L90
 389:src/slabAllocator.cpp ****     {
 390:src/slabAllocator.cpp ****         printSlabInfo(slab);
 1761              		.loc 1 390 9
 1762              		.loc 1 390 22 is_stmt 0
 1763 0a70 13850400 		mv	a0,s1
 1764 0a74 97000000 		call	_Z13printSlabInfoP6slab_s
 1764      E7800000 
 1765              	.LVL164:
 391:src/slabAllocator.cpp ****         slab = slab->next;
 1766              		.loc 1 391 9 is_stmt 1
 1767              		.loc 1 391 14 is_stmt 0
 1768 0a7c 83B48400 		ld	s1,8(s1)
 1769              	.LVL165:
 388:src/slabAllocator.cpp ****     while(slab != nullptr)
 1770              		.loc 1 388 5
 1771 0a80 6FF0DFFE 		j	.L96
 1772              	.L90:
 392:src/slabAllocator.cpp ****     }
 393:src/slabAllocator.cpp **** }
 1773              		.loc 1 393 1
 1774 0a84 83308101 		ld	ra,24(sp)
 1775              		.cfi_restore 1
 1776 0a88 03340101 		ld	s0,16(sp)
 1777              		.cfi_restore 8
 1778              		.cfi_def_cfa 2, 32
 1779 0a8c 83348100 		ld	s1,8(sp)
 1780              		.cfi_restore 9
 1781              	.LVL166:
 1782 0a90 03390100 		ld	s2,0(sp)
 1783              		.cfi_restore 18
GAS LISTING /tmp/ccdjN2FA.s 			page 43


 1784              	.LVL167:
 1785 0a94 13010102 		addi	sp,sp,32
 1786              		.cfi_def_cfa_offset 0
 1787 0a98 67800000 		jr	ra
 1788              		.cfi_endproc
 1789              	.LFE25:
 1791              		.section	.rodata.str1.8
 1792 0185 000000   		.align	3
 1793              	.LC17:
 1794 0188 536C6162 		.string	"Slab allocator info----------------------------------------------------------\n"
 1794      20616C6C 
 1794      6F636174 
 1794      6F722069 
 1794      6E666F2D 
 1795 01d7 00       		.align	3
 1796              	.LC18:
 1797 01d8 536C6162 		.string	"Slab allocator buddy address "
 1797      20616C6C 
 1797      6F636174 
 1797      6F722062 
 1797      75646479 
 1798 01f6 0000     		.align	3
 1799              	.LC19:
 1800 01f8 42756464 		.string	"Buddy allocator sizeof "
 1800      7920616C 
 1800      6C6F6361 
 1800      746F7220 
 1800      73697A65 
 1801              		.align	3
 1802              	.LC20:
 1803 0210 536C6162 		.string	"Slab allocator address "
 1803      20616C6C 
 1803      6F636174 
 1803      6F722061 
 1803      64647265 
 1804              		.align	3
 1805              	.LC21:
 1806 0228 43616368 		.string	"Cache of caches info\n"
 1806      65206F66 
 1806      20636163 
 1806      68657320 
 1806      696E666F 
 1807 023e 0000     		.align	3
 1808              	.LC22:
 1809 0240 43616368 		.string	"Caches for buffers\n"
 1809      65732066 
 1809      6F722062 
 1809      75666665 
 1809      72730A00 
 1810              		.text
 1811              		.align	2
 1812              		.globl	_Z22printSlabAllocatorInfov
 1814              	_Z22printSlabAllocatorInfov:
 1815              	.LFB20:
 273:src/slabAllocator.cpp ****     KConsole::trapPrintString("Slab allocator info-------------------------------------------------
 1816              		.loc 1 273 1 is_stmt 1
 1817              		.cfi_startproc
GAS LISTING /tmp/ccdjN2FA.s 			page 44


 1818 0a9c 130101FE 		addi	sp,sp,-32
 1819              		.cfi_def_cfa_offset 32
 1820 0aa0 233C1100 		sd	ra,24(sp)
 1821 0aa4 23388100 		sd	s0,16(sp)
 1822 0aa8 23349100 		sd	s1,8(sp)
 1823              		.cfi_offset 1, -8
 1824              		.cfi_offset 8, -16
 1825              		.cfi_offset 9, -24
 1826 0aac 13040102 		addi	s0,sp,32
 1827              		.cfi_def_cfa 8, 0
 274:src/slabAllocator.cpp ****     KConsole::trapPrintString("Slab allocator buddy address ");
 1828              		.loc 1 274 5
 274:src/slabAllocator.cpp ****     KConsole::trapPrintString("Slab allocator buddy address ");
 1829              		.loc 1 274 30 is_stmt 0
 1830 0ab0 17050000 		lla	a0,.LC17
 1830      13050500 
 1831 0ab8 97000000 		call	_ZN8KConsole15trapPrintStringEPKc@plt
 1831      E7800000 
 1832              	.LVL168:
 275:src/slabAllocator.cpp ****     KConsole::trapPrintInt((size_t)slabAllocator->buddy,16);KConsole::trapPrintString("\n");
 1833              		.loc 1 275 5 is_stmt 1
 275:src/slabAllocator.cpp ****     KConsole::trapPrintInt((size_t)slabAllocator->buddy,16);KConsole::trapPrintString("\n");
 1834              		.loc 1 275 30 is_stmt 0
 1835 0ac0 17050000 		lla	a0,.LC18
 1835      13050500 
 1836 0ac8 97000000 		call	_ZN8KConsole15trapPrintStringEPKc@plt
 1836      E7800000 
 1837              	.LVL169:
 276:src/slabAllocator.cpp ****     KConsole::trapPrintString("Buddy allocator sizeof ");
 1838              		.loc 1 276 5 is_stmt 1
 276:src/slabAllocator.cpp ****     KConsole::trapPrintString("Buddy allocator sizeof ");
 1839              		.loc 1 276 51 is_stmt 0
 1840 0ad0 97040000 		lla	s1,.LANCHOR0
 1840      93840400 
 1841 0ad8 83B70400 		ld	a5,0(s1)
 276:src/slabAllocator.cpp ****     KConsole::trapPrintString("Buddy allocator sizeof ");
 1842              		.loc 1 276 27
 1843 0adc 13060000 		li	a2,0
 1844 0ae0 93050001 		li	a1,16
 1845 0ae4 03B50700 		ld	a0,0(a5)
 1846 0ae8 97000000 		call	_ZN8KConsole12trapPrintIntEmii@plt
 1846      E7800000 
 1847              	.LVL170:
 276:src/slabAllocator.cpp ****     KConsole::trapPrintString("Buddy allocator sizeof ");
 1848              		.loc 1 276 61 is_stmt 1
 276:src/slabAllocator.cpp ****     KConsole::trapPrintString("Buddy allocator sizeof ");
 1849              		.loc 1 276 86 is_stmt 0
 1850 0af0 17050000 		lla	a0,.LC3
 1850      13050500 
 1851 0af8 97000000 		call	_ZN8KConsole15trapPrintStringEPKc@plt
 1851      E7800000 
 1852              	.LVL171:
 277:src/slabAllocator.cpp ****     KConsole::trapPrintInt(sizeof(buddyAllocator), 16); KConsole::trapPrintString("\n");
 1853              		.loc 1 277 5 is_stmt 1
 277:src/slabAllocator.cpp ****     KConsole::trapPrintInt(sizeof(buddyAllocator), 16); KConsole::trapPrintString("\n");
 1854              		.loc 1 277 30 is_stmt 0
 1855 0b00 17050000 		lla	a0,.LC19
GAS LISTING /tmp/ccdjN2FA.s 			page 45


 1855      13050500 
 1856 0b08 97000000 		call	_ZN8KConsole15trapPrintStringEPKc@plt
 1856      E7800000 
 1857              	.LVL172:
 278:src/slabAllocator.cpp ****     KConsole::trapPrintString("Slab allocator address ");
 1858              		.loc 1 278 5 is_stmt 1
 278:src/slabAllocator.cpp ****     KConsole::trapPrintString("Slab allocator address ");
 1859              		.loc 1 278 27 is_stmt 0
 1860 0b10 13060000 		li	a2,0
 1861 0b14 93050001 		li	a1,16
 1862 0b18 1305000E 		li	a0,224
 1863 0b1c 97000000 		call	_ZN8KConsole12trapPrintIntEmii@plt
 1863      E7800000 
 1864              	.LVL173:
 278:src/slabAllocator.cpp ****     KConsole::trapPrintString("Slab allocator address ");
 1865              		.loc 1 278 57 is_stmt 1
 278:src/slabAllocator.cpp ****     KConsole::trapPrintString("Slab allocator address ");
 1866              		.loc 1 278 82 is_stmt 0
 1867 0b24 17050000 		lla	a0,.LC3
 1867      13050500 
 1868 0b2c 97000000 		call	_ZN8KConsole15trapPrintStringEPKc@plt
 1868      E7800000 
 1869              	.LVL174:
 279:src/slabAllocator.cpp ****     KConsole::trapPrintInt((size_t)slabAllocator,16); KConsole::trapPrintString("\n");
 1870              		.loc 1 279 5 is_stmt 1
 279:src/slabAllocator.cpp ****     KConsole::trapPrintInt((size_t)slabAllocator,16); KConsole::trapPrintString("\n");
 1871              		.loc 1 279 30 is_stmt 0
 1872 0b34 17050000 		lla	a0,.LC20
 1872      13050500 
 1873 0b3c 97000000 		call	_ZN8KConsole15trapPrintStringEPKc@plt
 1873      E7800000 
 1874              	.LVL175:
 280:src/slabAllocator.cpp ****     KConsole::trapPrintString("Cache of caches info\n");
 1875              		.loc 1 280 5 is_stmt 1
 280:src/slabAllocator.cpp ****     KConsole::trapPrintString("Cache of caches info\n");
 1876              		.loc 1 280 27 is_stmt 0
 1877 0b44 13060000 		li	a2,0
 1878 0b48 93050001 		li	a1,16
 1879 0b4c 03B50400 		ld	a0,0(s1)
 1880 0b50 97000000 		call	_ZN8KConsole12trapPrintIntEmii@plt
 1880      E7800000 
 1881              	.LVL176:
 280:src/slabAllocator.cpp ****     KConsole::trapPrintString("Cache of caches info\n");
 1882              		.loc 1 280 55 is_stmt 1
 280:src/slabAllocator.cpp ****     KConsole::trapPrintString("Cache of caches info\n");
 1883              		.loc 1 280 80 is_stmt 0
 1884 0b58 17050000 		lla	a0,.LC3
 1884      13050500 
 1885 0b60 97000000 		call	_ZN8KConsole15trapPrintStringEPKc@plt
 1885      E7800000 
 1886              	.LVL177:
 281:src/slabAllocator.cpp ****     kmem_cache_info(&slabAllocator->cacheOfCaches);
 1887              		.loc 1 281 5 is_stmt 1
 281:src/slabAllocator.cpp ****     kmem_cache_info(&slabAllocator->cacheOfCaches);
 1888              		.loc 1 281 30 is_stmt 0
 1889 0b68 17050000 		lla	a0,.LC21
 1889      13050500 
GAS LISTING /tmp/ccdjN2FA.s 			page 46


 1890 0b70 97000000 		call	_ZN8KConsole15trapPrintStringEPKc@plt
 1890      E7800000 
 1891              	.LVL178:
 282:src/slabAllocator.cpp ****     KConsole::trapPrintString("Caches for buffers\n");
 1892              		.loc 1 282 5 is_stmt 1
 282:src/slabAllocator.cpp ****     KConsole::trapPrintString("Caches for buffers\n");
 1893              		.loc 1 282 37 is_stmt 0
 1894 0b78 03B50400 		ld	a0,0(s1)
 282:src/slabAllocator.cpp ****     KConsole::trapPrintString("Caches for buffers\n");
 1895              		.loc 1 282 20
 1896 0b7c 13058507 		addi	a0,a0,120
 1897 0b80 97000000 		call	_Z15kmem_cache_infoP12kmem_cache_s
 1897      E7800000 
 1898              	.LVL179:
 283:src/slabAllocator.cpp ****     for(size_t i = 0;i < CACHE_BUFFER_SIZE;i++)
 1899              		.loc 1 283 5 is_stmt 1
 283:src/slabAllocator.cpp ****     for(size_t i = 0;i < CACHE_BUFFER_SIZE;i++)
 1900              		.loc 1 283 30 is_stmt 0
 1901 0b88 17050000 		lla	a0,.LC22
 1901      13050500 
 1902 0b90 97000000 		call	_ZN8KConsole15trapPrintStringEPKc@plt
 1902      E7800000 
 1903              	.LVL180:
 284:src/slabAllocator.cpp ****     {
 1904              		.loc 1 284 5 is_stmt 1
 1905              	.LBB22:
 284:src/slabAllocator.cpp ****     {
 1906              		.loc 1 284 16 is_stmt 0
 1907 0b98 93040000 		li	s1,0
 1908 0b9c 6F000001 		j	.L101
 1909              	.LVL181:
 1910              	.L103:
 288:src/slabAllocator.cpp ****         }
 1911              		.loc 1 288 13 is_stmt 1
 288:src/slabAllocator.cpp ****         }
 1912              		.loc 1 288 28 is_stmt 0
 1913 0ba0 97000000 		call	_Z15kmem_cache_infoP12kmem_cache_s
 1913      E7800000 
 1914              	.LVL182:
 1915              	.L100:
 284:src/slabAllocator.cpp ****     {
 1916              		.loc 1 284 5 is_stmt 1 discriminator 2
 1917 0ba8 93841400 		addi	s1,s1,1
 1918              	.LVL183:
 1919              	.L101:
 284:src/slabAllocator.cpp ****     {
 1920              		.loc 1 284 24 discriminator 1
 1921 0bac 9307C000 		li	a5,12
 1922 0bb0 63E29702 		bgtu	s1,a5,.L98
 286:src/slabAllocator.cpp ****         {
 1923              		.loc 1 286 9
 286:src/slabAllocator.cpp ****         {
 1924              		.loc 1 286 42 is_stmt 0
 1925 0bb4 93872400 		addi	a5,s1,2
 1926 0bb8 13973700 		slli	a4,a5,3
 1927 0bbc 97070000 		ld	a5,.LANCHOR0
 1927      83B70700 
GAS LISTING /tmp/ccdjN2FA.s 			page 47


 1928 0bc4 B387E700 		add	a5,a5,a4
 1929 0bc8 03B50700 		ld	a0,0(a5)
 286:src/slabAllocator.cpp ****         {
 1930              		.loc 1 286 9
 1931 0bcc E31A05FC 		bnez	a0,.L103
 1932 0bd0 6FF09FFD 		j	.L100
 1933              	.L98:
 1934              	.LBE22:
 291:src/slabAllocator.cpp **** 
 1935              		.loc 1 291 1
 1936 0bd4 83308101 		ld	ra,24(sp)
 1937              		.cfi_restore 1
 1938 0bd8 03340101 		ld	s0,16(sp)
 1939              		.cfi_restore 8
 1940              		.cfi_def_cfa 2, 32
 1941 0bdc 83348100 		ld	s1,8(sp)
 1942              		.cfi_restore 9
 1943              	.LVL184:
 1944 0be0 13010102 		addi	sp,sp,32
 1945              		.cfi_def_cfa_offset 0
 1946 0be4 67800000 		jr	ra
 1947              		.cfi_endproc
 1948              	.LFE20:
 1950              		.align	2
 1951              		.globl	_Z7kmallocm
 1953              	_Z7kmallocm:
 1954              	.LFB26:
 394:src/slabAllocator.cpp **** 
 395:src/slabAllocator.cpp **** void *kmalloc(size_t size)
 396:src/slabAllocator.cpp **** {
 1955              		.loc 1 396 1 is_stmt 1
 1956              		.cfi_startproc
 1957              	.LVL185:
 1958 0be8 130101FE 		addi	sp,sp,-32
 1959              		.cfi_def_cfa_offset 32
 1960 0bec 233C1100 		sd	ra,24(sp)
 1961 0bf0 23388100 		sd	s0,16(sp)
 1962 0bf4 23349100 		sd	s1,8(sp)
 1963 0bf8 23302101 		sd	s2,0(sp)
 1964              		.cfi_offset 1, -8
 1965              		.cfi_offset 8, -16
 1966              		.cfi_offset 9, -24
 1967              		.cfi_offset 18, -32
 1968 0bfc 13040102 		addi	s0,sp,32
 1969              		.cfi_def_cfa 8, 0
 397:src/slabAllocator.cpp ****     size_t level = getDeg2Ceil(size);
 1970              		.loc 1 397 5
 1971              		.loc 1 397 31 is_stmt 0
 1972 0c00 97000000 		call	_Z11getDeg2Ceilm@plt
 1972      E7800000 
 1973              	.LVL186:
 398:src/slabAllocator.cpp ****     size_t index = level - CACHE_BUFFER_SMALL;
 1974              		.loc 1 398 5 is_stmt 1
 1975              		.loc 1 398 12 is_stmt 0
 1976 0c08 9304B5FF 		addi	s1,a0,-5
 1977              	.LVL187:
 399:src/slabAllocator.cpp ****     if(slabAllocator->cachesBuffers[index] == nullptr)
GAS LISTING /tmp/ccdjN2FA.s 			page 48


 1978              		.loc 1 399 5 is_stmt 1
 1979              		.loc 1 399 42 is_stmt 0
 1980 0c0c 17090000 		ld	s2,.LANCHOR0
 1980      03390900 
 1981 0c14 1305D5FF 		addi	a0,a0,-3
 1982              	.LVL188:
 1983 0c18 13153500 		slli	a0,a0,3
 1984              	.LVL189:
 1985 0c1c 3305A900 		add	a0,s2,a0
 1986 0c20 83370500 		ld	a5,0(a0)
 1987              		.loc 1 399 5
 1988 0c24 638E0702 		beqz	a5,.L107
 1989              	.L105:
 400:src/slabAllocator.cpp ****         slabAllocator->cachesBuffers[index] = (kmem_cache_t*)kmem_cache_alloc(&slabAllocator->cache
 401:src/slabAllocator.cpp **** 
 402:src/slabAllocator.cpp ****     return kmem_cache_alloc(slabAllocator->cachesBuffers[index]);
 1990              		.loc 1 402 5 is_stmt 1
 1991              		.loc 1 402 28 is_stmt 0
 1992 0c28 93842400 		addi	s1,s1,2
 1993              	.LVL190:
 1994 0c2c 93943400 		slli	s1,s1,3
 1995              	.LVL191:
 1996 0c30 97070000 		ld	a5,.LANCHOR0
 1996      83B70700 
 1997 0c38 B3849700 		add	s1,a5,s1
 1998 0c3c 03B50400 		ld	a0,0(s1)
 1999 0c40 97000000 		call	_Z16kmem_cache_allocP12kmem_cache_s
 1999      E7800000 
 2000              	.LVL192:
 403:src/slabAllocator.cpp **** }
 2001              		.loc 1 403 1
 2002 0c48 83308101 		ld	ra,24(sp)
 2003              		.cfi_remember_state
 2004              		.cfi_restore 1
 2005 0c4c 03340101 		ld	s0,16(sp)
 2006              		.cfi_restore 8
 2007              		.cfi_def_cfa 2, 32
 2008 0c50 83348100 		ld	s1,8(sp)
 2009              		.cfi_restore 9
 2010 0c54 03390100 		ld	s2,0(sp)
 2011              		.cfi_restore 18
 2012 0c58 13010102 		addi	sp,sp,32
 2013              		.cfi_def_cfa_offset 0
 2014 0c5c 67800000 		jr	ra
 2015              	.LVL193:
 2016              	.L107:
 2017              		.cfi_restore_state
 400:src/slabAllocator.cpp ****         slabAllocator->cachesBuffers[index] = (kmem_cache_t*)kmem_cache_alloc(&slabAllocator->cache
 2018              		.loc 1 400 9 is_stmt 1
 400:src/slabAllocator.cpp ****         slabAllocator->cachesBuffers[index] = (kmem_cache_t*)kmem_cache_alloc(&slabAllocator->cache
 2019              		.loc 1 400 78 is_stmt 0
 2020 0c60 13058907 		addi	a0,s2,120
 2021 0c64 97000000 		call	_Z16kmem_cache_allocP12kmem_cache_s
 2021      E7800000 
 2022              	.LVL194:
 400:src/slabAllocator.cpp ****         slabAllocator->cachesBuffers[index] = (kmem_cache_t*)kmem_cache_alloc(&slabAllocator->cache
 2023              		.loc 1 400 45
GAS LISTING /tmp/ccdjN2FA.s 			page 49


 2024 0c6c 93872400 		addi	a5,s1,2
 2025 0c70 93973700 		slli	a5,a5,3
 2026 0c74 3309F900 		add	s2,s2,a5
 2027 0c78 2330A900 		sd	a0,0(s2)
 2028 0c7c 6FF0DFFA 		j	.L105
 2029              		.cfi_endproc
 2030              	.LFE26:
 2032              		.align	2
 2033              		.globl	_Z5kfreePKv
 2035              	_Z5kfreePKv:
 2036              	.LFB27:
 404:src/slabAllocator.cpp **** 
 405:src/slabAllocator.cpp **** void kfree(const void *objp)
 406:src/slabAllocator.cpp **** {
 2037              		.loc 1 406 1 is_stmt 1
 2038              		.cfi_startproc
 2039              	.LVL195:
 2040 0c80 130101FE 		addi	sp,sp,-32
 2041              		.cfi_def_cfa_offset 32
 2042 0c84 233C1100 		sd	ra,24(sp)
 2043 0c88 23388100 		sd	s0,16(sp)
 2044 0c8c 23349100 		sd	s1,8(sp)
 2045 0c90 23302101 		sd	s2,0(sp)
 2046              		.cfi_offset 1, -8
 2047              		.cfi_offset 8, -16
 2048              		.cfi_offset 9, -24
 2049              		.cfi_offset 18, -32
 2050 0c94 13040102 		addi	s0,sp,32
 2051              		.cfi_def_cfa 8, 0
 2052 0c98 13090500 		mv	s2,a0
 407:src/slabAllocator.cpp ****     slab_t* slab = nullptr;
 2053              		.loc 1 407 5
 2054              	.LVL196:
 408:src/slabAllocator.cpp ****     for(size_t i = 0;i < CACHE_BUFFER_SIZE;i++)
 2055              		.loc 1 408 5
 2056              	.LBB23:
 2057              		.loc 1 408 16 is_stmt 0
 2058 0c9c 93040000 		li	s1,0
 2059              	.LBE23:
 407:src/slabAllocator.cpp ****     slab_t* slab = nullptr;
 2060              		.loc 1 407 13
 2061 0ca0 13050000 		li	a0,0
 2062              	.LVL197:
 2063              	.L110:
 2064              	.LBB24:
 2065              		.loc 1 408 24 is_stmt 1 discriminator 1
 2066 0ca4 9307C000 		li	a5,12
 2067 0ca8 63EA9702 		bgtu	s1,a5,.L109
 409:src/slabAllocator.cpp ****     {
 410:src/slabAllocator.cpp ****         slab = findSlab(slabAllocator->cachesBuffers[i], objp);
 2068              		.loc 1 410 9
 2069              		.loc 1 410 24 is_stmt 0
 2070 0cac 93872400 		addi	a5,s1,2
 2071 0cb0 13973700 		slli	a4,a5,3
 2072 0cb4 97070000 		ld	a5,.LANCHOR0
 2072      83B70700 
 2073 0cbc B387E700 		add	a5,a5,a4
GAS LISTING /tmp/ccdjN2FA.s 			page 50


 2074 0cc0 93050900 		mv	a1,s2
 2075 0cc4 03B50700 		ld	a0,0(a5)
 2076              	.LVL198:
 2077 0cc8 97000000 		call	_Z8findSlabP12kmem_cache_sPKv
 2077      E7800000 
 2078              	.LVL199:
 411:src/slabAllocator.cpp ****         if(slab != nullptr) break;
 2079              		.loc 1 411 9 is_stmt 1
 2080 0cd0 63160500 		bnez	a0,.L109
 408:src/slabAllocator.cpp ****     for(size_t i = 0;i < CACHE_BUFFER_SIZE;i++)
 2081              		.loc 1 408 5 discriminator 2
 2082 0cd4 93841400 		addi	s1,s1,1
 2083              	.LVL200:
 2084 0cd8 6FF0DFFC 		j	.L110
 2085              	.L109:
 2086              	.LBE24:
 412:src/slabAllocator.cpp ****     }
 413:src/slabAllocator.cpp ****     if(slab != nullptr)
 2087              		.loc 1 413 5
 2088 0cdc 63080500 		beqz	a0,.L108
 414:src/slabAllocator.cpp ****     {
 415:src/slabAllocator.cpp ****         free_slab_object(slab, objp);
 2089              		.loc 1 415 9
 2090              		.loc 1 415 25 is_stmt 0
 2091 0ce0 93050900 		mv	a1,s2
 2092 0ce4 97000000 		call	_Z16free_slab_objectP6slab_sPKv
 2092      E7800000 
 2093              	.LVL201:
 2094              	.L108:
 416:src/slabAllocator.cpp ****     }
 417:src/slabAllocator.cpp **** }
 2095              		.loc 1 417 1
 2096 0cec 83308101 		ld	ra,24(sp)
 2097              		.cfi_restore 1
 2098 0cf0 03340101 		ld	s0,16(sp)
 2099              		.cfi_restore 8
 2100              		.cfi_def_cfa 2, 32
 2101 0cf4 83348100 		ld	s1,8(sp)
 2102              		.cfi_restore 9
 2103              	.LVL202:
 2104 0cf8 03390100 		ld	s2,0(sp)
 2105              		.cfi_restore 18
 2106              	.LVL203:
 2107 0cfc 13010102 		addi	sp,sp,32
 2108              		.cfi_def_cfa_offset 0
 2109 0d00 67800000 		jr	ra
 2110              		.cfi_endproc
 2111              	.LFE27:
 2113              		.align	2
 2114              		.globl	_Z17destroy_slab_listP6slab_s
 2116              	_Z17destroy_slab_listP6slab_s:
 2117              	.LFB28:
 418:src/slabAllocator.cpp **** 
 419:src/slabAllocator.cpp **** void destroy_slab_list(slab_t* slab)
 420:src/slabAllocator.cpp **** {
 2118              		.loc 1 420 1 is_stmt 1
 2119              		.cfi_startproc
GAS LISTING /tmp/ccdjN2FA.s 			page 51


 2120              	.LVL204:
 421:src/slabAllocator.cpp ****     if(slab == nullptr) return;
 2121              		.loc 1 421 5
 2122 0d04 630A0506 		beqz	a0,.L117
 420:src/slabAllocator.cpp ****     if(slab == nullptr) return;
 2123              		.loc 1 420 1 is_stmt 0
 2124 0d08 130101FE 		addi	sp,sp,-32
 2125              		.cfi_def_cfa_offset 32
 2126 0d0c 233C1100 		sd	ra,24(sp)
 2127 0d10 23388100 		sd	s0,16(sp)
 2128 0d14 23349100 		sd	s1,8(sp)
 2129 0d18 23302101 		sd	s2,0(sp)
 2130              		.cfi_offset 1, -8
 2131              		.cfi_offset 8, -16
 2132              		.cfi_offset 9, -24
 2133              		.cfi_offset 18, -32
 2134 0d1c 13040102 		addi	s0,sp,32
 2135              		.cfi_def_cfa 8, 0
 2136 0d20 93050500 		mv	a1,a0
 422:src/slabAllocator.cpp ****     size_t sz = sizeof(slab_t) + slab->numOfObjects*slab->owner->obj_size;
 2137              		.loc 1 422 5 is_stmt 1
 2138              		.loc 1 422 40 is_stmt 0
 2139 0d24 03398501 		ld	s2,24(a0)
 2140              		.loc 1 422 59
 2141 0d28 83370501 		ld	a5,16(a0)
 2142              		.loc 1 422 66
 2143 0d2c 83B70707 		ld	a5,112(a5)
 2144              		.loc 1 422 52
 2145 0d30 3309F902 		mul	s2,s2,a5
 2146              		.loc 1 422 12
 2147 0d34 13090905 		addi	s2,s2,80
 2148              	.LVL205:
 2149              	.L115:
 423:src/slabAllocator.cpp ****     while(slab != nullptr)
 2150              		.loc 1 423 5 is_stmt 1
 2151              		.loc 1 423 16
 2152 0d38 63840502 		beqz	a1,.L113
 2153              	.LBB25:
 424:src/slabAllocator.cpp ****     {
 425:src/slabAllocator.cpp ****         slab_t* nextSlab = slab->next;
 2154              		.loc 1 425 9
 2155              		.loc 1 425 17 is_stmt 0
 2156 0d3c 83B48500 		ld	s1,8(a1)
 2157              	.LVL206:
 426:src/slabAllocator.cpp ****         buddy_free(slabAllocator->buddy, slab, sz);
 2158              		.loc 1 426 9 is_stmt 1
 2159              		.loc 1 426 19 is_stmt 0
 2160 0d40 13060900 		mv	a2,s2
 2161 0d44 97070000 		ld	a5,.LANCHOR0
 2161      83B70700 
 2162 0d4c 03B50700 		ld	a0,0(a5)
 2163 0d50 97000000 		call	_Z10buddy_freeP14buddyAllocatorPvm@plt
 2163      E7800000 
 2164              	.LVL207:
 427:src/slabAllocator.cpp ****         slab = nextSlab;
 2165              		.loc 1 427 9 is_stmt 1
 2166              		.loc 1 427 14 is_stmt 0
GAS LISTING /tmp/ccdjN2FA.s 			page 52


 2167 0d58 93850400 		mv	a1,s1
 2168              	.LBE25:
 423:src/slabAllocator.cpp ****     {
 2169              		.loc 1 423 5
 2170 0d5c 6FF0DFFD 		j	.L115
 2171              	.LVL208:
 2172              	.L113:
 428:src/slabAllocator.cpp ****     }
 429:src/slabAllocator.cpp **** }
 2173              		.loc 1 429 1
 2174 0d60 83308101 		ld	ra,24(sp)
 2175              		.cfi_restore 1
 2176 0d64 03340101 		ld	s0,16(sp)
 2177              		.cfi_restore 8
 2178              		.cfi_def_cfa 2, 32
 2179 0d68 83348100 		ld	s1,8(sp)
 2180              		.cfi_restore 9
 2181 0d6c 03390100 		ld	s2,0(sp)
 2182              		.cfi_restore 18
 2183              	.LVL209:
 2184 0d70 13010102 		addi	sp,sp,32
 2185              		.cfi_def_cfa_offset 0
 2186 0d74 67800000 		jr	ra
 2187              	.LVL210:
 2188              	.L117:
 2189 0d78 67800000 		ret
 2190              		.cfi_endproc
 2191              	.LFE28:
 2193              		.align	2
 2194              		.globl	_Z18kmem_cache_destroyP12kmem_cache_s
 2196              	_Z18kmem_cache_destroyP12kmem_cache_s:
 2197              	.LFB29:
 430:src/slabAllocator.cpp **** 
 431:src/slabAllocator.cpp **** void kmem_cache_destroy(kmem_cache_t *cachep)
 432:src/slabAllocator.cpp **** {
 2198              		.loc 1 432 1 is_stmt 1
 2199              		.cfi_startproc
 2200              	.LVL211:
 2201 0d7c 130101FE 		addi	sp,sp,-32
 2202              		.cfi_def_cfa_offset 32
 2203 0d80 233C1100 		sd	ra,24(sp)
 2204 0d84 23388100 		sd	s0,16(sp)
 2205 0d88 23349100 		sd	s1,8(sp)
 2206              		.cfi_offset 1, -8
 2207              		.cfi_offset 8, -16
 2208              		.cfi_offset 9, -24
 2209 0d8c 13040102 		addi	s0,sp,32
 2210              		.cfi_def_cfa 8, 0
 2211 0d90 93040500 		mv	s1,a0
 433:src/slabAllocator.cpp ****     destroy_slab_list(cachep->slabs_empty);
 2212              		.loc 1 433 5
 2213              		.loc 1 433 22 is_stmt 0
 2214 0d94 03350505 		ld	a0,80(a0)
 2215              	.LVL212:
 2216 0d98 97000000 		call	_Z17destroy_slab_listP6slab_s
 2216      E7800000 
 2217              	.LVL213:
GAS LISTING /tmp/ccdjN2FA.s 			page 53


 434:src/slabAllocator.cpp ****     destroy_slab_list(cachep->slabs_partial);
 2218              		.loc 1 434 5 is_stmt 1
 2219              		.loc 1 434 22 is_stmt 0
 2220 0da0 03B50406 		ld	a0,96(s1)
 2221 0da4 97000000 		call	_Z17destroy_slab_listP6slab_s
 2221      E7800000 
 2222              	.LVL214:
 435:src/slabAllocator.cpp ****     destroy_slab_list(cachep->slabs_full);
 2223              		.loc 1 435 5 is_stmt 1
 2224              		.loc 1 435 22 is_stmt 0
 2225 0dac 03B58405 		ld	a0,88(s1)
 2226 0db0 97000000 		call	_Z17destroy_slab_listP6slab_s
 2226      E7800000 
 2227              	.LVL215:
 436:src/slabAllocator.cpp ****     kmem_cache_free(&slabAllocator->cacheOfCaches,cachep);
 2228              		.loc 1 436 5 is_stmt 1
 2229              		.loc 1 436 20 is_stmt 0
 2230 0db8 93850400 		mv	a1,s1
 2231 0dbc 17050000 		ld	a0,.LANCHOR0
 2231      03350500 
 2232 0dc4 13058507 		addi	a0,a0,120
 2233 0dc8 97000000 		call	_Z15kmem_cache_freeP12kmem_cache_sPv
 2233      E7800000 
 2234              	.LVL216:
 437:src/slabAllocator.cpp **** }
 2235              		.loc 1 437 1
 2236 0dd0 83308101 		ld	ra,24(sp)
 2237              		.cfi_restore 1
 2238 0dd4 03340101 		ld	s0,16(sp)
 2239              		.cfi_restore 8
 2240              		.cfi_def_cfa 2, 32
 2241 0dd8 83348100 		ld	s1,8(sp)
 2242              		.cfi_restore 9
 2243              	.LVL217:
 2244 0ddc 13010102 		addi	sp,sp,32
 2245              		.cfi_def_cfa_offset 0
 2246 0de0 67800000 		jr	ra
 2247              		.cfi_endproc
 2248              	.LFE29:
 2250              		.bss
 2251              		.align	3
 2252              		.set	.LANCHOR0,. + 0
 2255              	_ZL13slabAllocator:
 2256 0000 00000000 		.zero	8
 2256      00000000 
 2257              		.text
 2258              	.Letext0:
 2259              		.file 2 "src/../h/../lib/hw.h"
 2260              		.file 3 "src/../h/slabAllocator.hpp"
 2261              		.file 4 "src/../h/buddyAllocator.hpp"
 2262              		.file 5 "src/../h/PCB.hpp"
 2263              		.file 6 "src/../h/KSemaphore.hpp"
 2264              		.file 7 "src/../h/KConsole.hpp"
GAS LISTING /tmp/ccdjN2FA.s 			page 54


DEFINED SYMBOLS
                            *ABS*:0000000000000000 slabAllocator.cpp
     /tmp/ccdjN2FA.s:9      .text:0000000000000000 _Z6strcpyPKcPc
     /tmp/ccdjN2FA.s:13     .text:0000000000000000 .L0 
     /tmp/ccdjN2FA.s:15     .text:0000000000000000 .L0 
     /tmp/ccdjN2FA.s:16     .text:0000000000000004 .L0 
     /tmp/ccdjN2FA.s:18     .text:0000000000000008 .L0 
     /tmp/ccdjN2FA.s:20     .text:000000000000000c .L0 
     /tmp/ccdjN2FA.s:23     .text:000000000000000c .L0 
     /tmp/ccdjN2FA.s:24     .text:000000000000000c .L0 
     /tmp/ccdjN2FA.s:25     .text:000000000000000c .L0 
     /tmp/ccdjN2FA.s:27     .text:0000000000000010 .L0 
     /tmp/ccdjN2FA.s:29     .text:0000000000000014 .L0 
     /tmp/ccdjN2FA.s:30     .text:0000000000000014 .L0 
     /tmp/ccdjN2FA.s:32     .text:0000000000000018 .L0 
     /tmp/ccdjN2FA.s:33     .text:0000000000000018 .L0 
     /tmp/ccdjN2FA.s:36     .text:000000000000001c .L0 
     /tmp/ccdjN2FA.s:37     .text:000000000000001c .L0 
     /tmp/ccdjN2FA.s:40     .text:0000000000000020 .L0 
     /tmp/ccdjN2FA.s:43     .text:0000000000000024 .L0 
     /tmp/ccdjN2FA.s:44     .text:0000000000000024 .L0 
     /tmp/ccdjN2FA.s:46     .text:0000000000000028 .L0 
     /tmp/ccdjN2FA.s:47     .text:000000000000002c .L0 
     /tmp/ccdjN2FA.s:48     .text:000000000000002c .L0 
     /tmp/ccdjN2FA.s:50     .text:0000000000000030 .L0 
     /tmp/ccdjN2FA.s:52     .text:0000000000000034 .L0 
     /tmp/ccdjN2FA.s:63     .text:0000000000000034 _Z19slab_allocator_initP14buddyAllocator
     /tmp/ccdjN2FA.s:66     .text:0000000000000034 .L0 
     /tmp/ccdjN2FA.s:68     .text:0000000000000034 .L0 
     /tmp/ccdjN2FA.s:69     .text:0000000000000038 .L0 
     /tmp/ccdjN2FA.s:74     .text:0000000000000048 .L0 
     /tmp/ccdjN2FA.s:75     .text:0000000000000048 .L0 
     /tmp/ccdjN2FA.s:76     .text:0000000000000048 .L0 
     /tmp/ccdjN2FA.s:77     .text:0000000000000048 .L0 
     /tmp/ccdjN2FA.s:79     .text:000000000000004c .L0 
     /tmp/ccdjN2FA.s:82     .text:0000000000000050 .L0 
     /tmp/ccdjN2FA.s:83     .text:0000000000000050 .L0 
     /tmp/ccdjN2FA.s:86     .text:0000000000000054 .L0 
     /tmp/ccdjN2FA.s:87     .text:0000000000000054 .L0 
     /tmp/ccdjN2FA.s:89     .text:0000000000000058 .L0 
     /tmp/ccdjN2FA.s:90     .text:0000000000000058 .L0 
     /tmp/ccdjN2FA.s:94     .text:000000000000005c .L0 
     /tmp/ccdjN2FA.s:95     .text:000000000000005c .L0 
     /tmp/ccdjN2FA.s:100    .text:0000000000000064 .L0 
     /tmp/ccdjN2FA.s:101    .text:0000000000000064 .L0 
     /tmp/ccdjN2FA.s:106    .text:0000000000000074 .L0 
     /tmp/ccdjN2FA.s:110    .text:0000000000000078 .L0 
     /tmp/ccdjN2FA.s:114    .text:0000000000000080 .L0 
     /tmp/ccdjN2FA.s:115    .text:0000000000000080 .L0 
     /tmp/ccdjN2FA.s:120    .text:0000000000000094 .L0 
     /tmp/ccdjN2FA.s:121    .text:0000000000000094 .L0 
     /tmp/ccdjN2FA.s:123    .text:0000000000000098 .L0 
     /tmp/ccdjN2FA.s:124    .text:0000000000000098 .L0 
     /tmp/ccdjN2FA.s:126    .text:000000000000009c .L0 
     /tmp/ccdjN2FA.s:127    .text:000000000000009c .L0 
     /tmp/ccdjN2FA.s:129    .text:00000000000000a0 .L0 
     /tmp/ccdjN2FA.s:130    .text:00000000000000a0 .L0 
GAS LISTING /tmp/ccdjN2FA.s 			page 55


     /tmp/ccdjN2FA.s:132    .text:00000000000000a4 .L0 
     /tmp/ccdjN2FA.s:133    .text:00000000000000a4 .L0 
     /tmp/ccdjN2FA.s:135    .text:00000000000000a8 .L0 
     /tmp/ccdjN2FA.s:136    .text:00000000000000a8 .L0 
     /tmp/ccdjN2FA.s:138    .text:00000000000000ac .L0 
     /tmp/ccdjN2FA.s:139    .text:00000000000000ac .L0 
     /tmp/ccdjN2FA.s:141    .text:00000000000000b0 .L0 
     /tmp/ccdjN2FA.s:142    .text:00000000000000b0 .L0 
     /tmp/ccdjN2FA.s:145    .text:00000000000000b8 .L0 
     /tmp/ccdjN2FA.s:146    .text:00000000000000b8 .L0 
     /tmp/ccdjN2FA.s:149    .text:00000000000000c0 .L0 
     /tmp/ccdjN2FA.s:150    .text:00000000000000c0 .L0 
     /tmp/ccdjN2FA.s:152    .text:00000000000000c8 .L0 
     /tmp/ccdjN2FA.s:154    .text:00000000000000cc .L0 
     /tmp/ccdjN2FA.s:155    .text:00000000000000cc .L0 
     /tmp/ccdjN2FA.s:157    .text:00000000000000d0 .L0 
     /tmp/ccdjN2FA.s:160    .text:00000000000000d4 .L0 
     /tmp/ccdjN2FA.s:163    .text:00000000000000d8 .L0 
     /tmp/ccdjN2FA.s:165    .text:00000000000000dc .L0 
     /tmp/ccdjN2FA.s:171    .text:00000000000000dc _Z14allocateObjectP6slab_s
     /tmp/ccdjN2FA.s:174    .text:00000000000000dc .L0 
     /tmp/ccdjN2FA.s:176    .text:00000000000000dc .L0 
     /tmp/ccdjN2FA.s:177    .text:00000000000000e0 .L0 
     /tmp/ccdjN2FA.s:179    .text:00000000000000e4 .L0 
     /tmp/ccdjN2FA.s:181    .text:00000000000000e8 .L0 
     /tmp/ccdjN2FA.s:185    .text:00000000000000ec .L0 
     /tmp/ccdjN2FA.s:186    .text:00000000000000ec .L0 
     /tmp/ccdjN2FA.s:188    .text:00000000000000ec .L0 
     /tmp/ccdjN2FA.s:189    .text:00000000000000ec .L0 
     /tmp/ccdjN2FA.s:193    .text:00000000000000f0 .L0 
     /tmp/ccdjN2FA.s:194    .text:00000000000000f0 .L0 
     /tmp/ccdjN2FA.s:196    .text:00000000000000f4 .L0 
     /tmp/ccdjN2FA.s:199    .text:00000000000000f8 .L0 
     /tmp/ccdjN2FA.s:200    .text:00000000000000f8 .L0 
     /tmp/ccdjN2FA.s:202    .text:00000000000000fc .L0 
     /tmp/ccdjN2FA.s:206    .text:0000000000000104 .L0 
     /tmp/ccdjN2FA.s:207    .text:0000000000000104 .L0 
     /tmp/ccdjN2FA.s:209    .text:0000000000000108 .L0 
     /tmp/ccdjN2FA.s:212    .text:0000000000000110 .L0 
     /tmp/ccdjN2FA.s:214    .text:0000000000000114 .L0 
     /tmp/ccdjN2FA.s:217    .text:0000000000000118 .L0 
     /tmp/ccdjN2FA.s:223    .text:0000000000000120 .L0 
     /tmp/ccdjN2FA.s:224    .text:0000000000000120 .L0 
     /tmp/ccdjN2FA.s:227    .text:0000000000000124 .L0 
     /tmp/ccdjN2FA.s:229    .text:0000000000000128 .L0 
     /tmp/ccdjN2FA.s:231    .text:000000000000012c .L0 
     /tmp/ccdjN2FA.s:233    .text:0000000000000130 .L0 
     /tmp/ccdjN2FA.s:237    .text:0000000000000138 .L0 
     /tmp/ccdjN2FA.s:238    .text:0000000000000138 .L0 
     /tmp/ccdjN2FA.s:241    .text:000000000000013c .L0 
     /tmp/ccdjN2FA.s:247    .text:0000000000000140 .L0 
     /tmp/ccdjN2FA.s:250    .text:0000000000000144 .L0 
     /tmp/ccdjN2FA.s:254    .text:0000000000000148 .L0 
     /tmp/ccdjN2FA.s:256    .text:000000000000014c .L0 
     /tmp/ccdjN2FA.s:257    .text:000000000000014c .L0 
     /tmp/ccdjN2FA.s:263    .text:000000000000015c .L0 
     /tmp/ccdjN2FA.s:265    .text:0000000000000160 .L0 
GAS LISTING /tmp/ccdjN2FA.s 			page 56


     /tmp/ccdjN2FA.s:267    .text:0000000000000164 .L0 
     /tmp/ccdjN2FA.s:270    .text:000000000000016c .L0 
     /tmp/ccdjN2FA.s:273    .text:0000000000000174 .L0 
     /tmp/ccdjN2FA.s:275    .text:0000000000000178 .L0 
     /tmp/ccdjN2FA.s:277    .text:000000000000017c .L0 
     /tmp/ccdjN2FA.s:278    .text:000000000000017c .L0 
     /tmp/ccdjN2FA.s:280    .text:0000000000000180 .L0 
     /tmp/ccdjN2FA.s:284    .text:0000000000000188 .L0 
     /tmp/ccdjN2FA.s:285    .text:0000000000000188 .L0 
     /tmp/ccdjN2FA.s:286    .text:000000000000018c .L0 
     /tmp/ccdjN2FA.s:287    .text:000000000000018c .L0 
     /tmp/ccdjN2FA.s:289    .text:0000000000000190 .L0 
     /tmp/ccdjN2FA.s:291    .text:0000000000000194 .L0 
     /tmp/ccdjN2FA.s:297    .text:0000000000000194 _Z4fullP6slab_s
     /tmp/ccdjN2FA.s:300    .text:0000000000000194 .L0 
     /tmp/ccdjN2FA.s:302    .text:0000000000000194 .L0 
     /tmp/ccdjN2FA.s:303    .text:0000000000000198 .L0 
     /tmp/ccdjN2FA.s:305    .text:000000000000019c .L0 
     /tmp/ccdjN2FA.s:307    .text:00000000000001a0 .L0 
     /tmp/ccdjN2FA.s:309    .text:00000000000001a0 .L0 
     /tmp/ccdjN2FA.s:310    .text:00000000000001a0 .L0 
     /tmp/ccdjN2FA.s:312    .text:00000000000001a4 .L0 
     /tmp/ccdjN2FA.s:316    .text:00000000000001ac .L0 
     /tmp/ccdjN2FA.s:318    .text:00000000000001b4 .L0 
     /tmp/ccdjN2FA.s:319    .text:00000000000001b4 .L0 
     /tmp/ccdjN2FA.s:321    .text:00000000000001b8 .L0 
     /tmp/ccdjN2FA.s:323    .text:00000000000001bc .L0 
     /tmp/ccdjN2FA.s:329    .text:00000000000001bc _Z5emptyP6slab_s
     /tmp/ccdjN2FA.s:332    .text:00000000000001bc .L0 
     /tmp/ccdjN2FA.s:334    .text:00000000000001bc .L0 
     /tmp/ccdjN2FA.s:335    .text:00000000000001c0 .L0 
     /tmp/ccdjN2FA.s:337    .text:00000000000001c4 .L0 
     /tmp/ccdjN2FA.s:339    .text:00000000000001c8 .L0 
     /tmp/ccdjN2FA.s:341    .text:00000000000001c8 .L0 
     /tmp/ccdjN2FA.s:342    .text:00000000000001c8 .L0 
     /tmp/ccdjN2FA.s:345    .text:00000000000001cc .L0 
     /tmp/ccdjN2FA.s:347    .text:00000000000001d4 .L0 
     /tmp/ccdjN2FA.s:348    .text:00000000000001d4 .L0 
     /tmp/ccdjN2FA.s:350    .text:00000000000001d8 .L0 
     /tmp/ccdjN2FA.s:352    .text:00000000000001dc .L0 
     /tmp/ccdjN2FA.s:358    .text:00000000000001dc _Z16putPartialToFullP12kmem_cache_s
     /tmp/ccdjN2FA.s:361    .text:00000000000001dc .L0 
     /tmp/ccdjN2FA.s:363    .text:00000000000001dc .L0 
     /tmp/ccdjN2FA.s:364    .text:00000000000001e0 .L0 
     /tmp/ccdjN2FA.s:366    .text:00000000000001e4 .L0 
     /tmp/ccdjN2FA.s:368    .text:00000000000001e8 .L0 
     /tmp/ccdjN2FA.s:370    .text:00000000000001e8 .L0 
     /tmp/ccdjN2FA.s:371    .text:00000000000001e8 .L0 
     /tmp/ccdjN2FA.s:374    .text:00000000000001ec .L0 
     /tmp/ccdjN2FA.s:375    .text:00000000000001ec .L0 
     /tmp/ccdjN2FA.s:377    .text:00000000000001f0 .L0 
     /tmp/ccdjN2FA.s:379    .text:00000000000001f4 .L0 
     /tmp/ccdjN2FA.s:381    .text:00000000000001f8 .L0 
     /tmp/ccdjN2FA.s:382    .text:00000000000001f8 .L0 
     /tmp/ccdjN2FA.s:385    .text:00000000000001fc .L0 
     /tmp/ccdjN2FA.s:386    .text:00000000000001fc .L0 
     /tmp/ccdjN2FA.s:388    .text:0000000000000200 .L0 
GAS LISTING /tmp/ccdjN2FA.s 			page 57


     /tmp/ccdjN2FA.s:390    .text:0000000000000204 .L0 
     /tmp/ccdjN2FA.s:391    .text:0000000000000204 .L0 
     /tmp/ccdjN2FA.s:393    .text:0000000000000208 .L0 
     /tmp/ccdjN2FA.s:395    .text:000000000000020c .L0 
     /tmp/ccdjN2FA.s:396    .text:000000000000020c .L0 
     /tmp/ccdjN2FA.s:399    .text:0000000000000210 .L0 
     /tmp/ccdjN2FA.s:400    .text:0000000000000210 .L0 
     /tmp/ccdjN2FA.s:402    .text:0000000000000214 .L0 
     /tmp/ccdjN2FA.s:403    .text:0000000000000214 .L0 
     /tmp/ccdjN2FA.s:405    .text:0000000000000218 .L0 
     /tmp/ccdjN2FA.s:406    .text:000000000000021c .L0 
     /tmp/ccdjN2FA.s:407    .text:000000000000021c .L0 
     /tmp/ccdjN2FA.s:409    .text:0000000000000220 .L0 
     /tmp/ccdjN2FA.s:411    .text:0000000000000224 .L0 
     /tmp/ccdjN2FA.s:417    .text:0000000000000224 _Z17putEmptyToPartialP12kmem_cache_s
     /tmp/ccdjN2FA.s:420    .text:0000000000000224 .L0 
     /tmp/ccdjN2FA.s:422    .text:0000000000000224 .L0 
     /tmp/ccdjN2FA.s:423    .text:0000000000000228 .L0 
     /tmp/ccdjN2FA.s:425    .text:000000000000022c .L0 
     /tmp/ccdjN2FA.s:427    .text:0000000000000230 .L0 
     /tmp/ccdjN2FA.s:429    .text:0000000000000230 .L0 
     /tmp/ccdjN2FA.s:430    .text:0000000000000230 .L0 
     /tmp/ccdjN2FA.s:433    .text:0000000000000234 .L0 
     /tmp/ccdjN2FA.s:434    .text:0000000000000234 .L0 
     /tmp/ccdjN2FA.s:436    .text:0000000000000238 .L0 
     /tmp/ccdjN2FA.s:438    .text:000000000000023c .L0 
     /tmp/ccdjN2FA.s:440    .text:0000000000000240 .L0 
     /tmp/ccdjN2FA.s:441    .text:0000000000000240 .L0 
     /tmp/ccdjN2FA.s:444    .text:0000000000000244 .L0 
     /tmp/ccdjN2FA.s:445    .text:0000000000000244 .L0 
     /tmp/ccdjN2FA.s:447    .text:0000000000000248 .L0 
     /tmp/ccdjN2FA.s:449    .text:000000000000024c .L0 
     /tmp/ccdjN2FA.s:450    .text:000000000000024c .L0 
     /tmp/ccdjN2FA.s:452    .text:0000000000000250 .L0 
     /tmp/ccdjN2FA.s:454    .text:0000000000000254 .L0 
     /tmp/ccdjN2FA.s:455    .text:0000000000000254 .L0 
     /tmp/ccdjN2FA.s:458    .text:0000000000000258 .L0 
     /tmp/ccdjN2FA.s:459    .text:0000000000000258 .L0 
     /tmp/ccdjN2FA.s:461    .text:000000000000025c .L0 
     /tmp/ccdjN2FA.s:462    .text:000000000000025c .L0 
     /tmp/ccdjN2FA.s:464    .text:0000000000000260 .L0 
     /tmp/ccdjN2FA.s:465    .text:0000000000000264 .L0 
     /tmp/ccdjN2FA.s:466    .text:0000000000000264 .L0 
     /tmp/ccdjN2FA.s:468    .text:0000000000000268 .L0 
     /tmp/ccdjN2FA.s:470    .text:000000000000026c .L0 
     /tmp/ccdjN2FA.s:476    .text:000000000000026c _Z12allocateSlabP12kmem_cache_s
     /tmp/ccdjN2FA.s:479    .text:000000000000026c .L0 
     /tmp/ccdjN2FA.s:481    .text:000000000000026c .L0 
     /tmp/ccdjN2FA.s:482    .text:0000000000000270 .L0 
     /tmp/ccdjN2FA.s:486    .text:000000000000027c .L0 
     /tmp/ccdjN2FA.s:487    .text:000000000000027c .L0 
     /tmp/ccdjN2FA.s:488    .text:000000000000027c .L0 
     /tmp/ccdjN2FA.s:490    .text:0000000000000280 .L0 
     /tmp/ccdjN2FA.s:493    .text:0000000000000284 .L0 
     /tmp/ccdjN2FA.s:494    .text:0000000000000284 .L0 
     /tmp/ccdjN2FA.s:501    .text:000000000000029c .L0 
     /tmp/ccdjN2FA.s:502    .text:000000000000029c .L0 
GAS LISTING /tmp/ccdjN2FA.s 			page 58


     /tmp/ccdjN2FA.s:504    .text:00000000000002a0 .L0 
     /tmp/ccdjN2FA.s:506    .text:00000000000002a4 .L0 
     /tmp/ccdjN2FA.s:508    .text:00000000000002a8 .L0 
     /tmp/ccdjN2FA.s:509    .text:00000000000002a8 .L0 
     /tmp/ccdjN2FA.s:512    .text:00000000000002ac .L0 
     /tmp/ccdjN2FA.s:513    .text:00000000000002ac .L0 
     /tmp/ccdjN2FA.s:515    .text:00000000000002b0 .L0 
     /tmp/ccdjN2FA.s:516    .text:00000000000002b0 .L0 
     /tmp/ccdjN2FA.s:518    .text:00000000000002b4 .L0 
     /tmp/ccdjN2FA.s:519    .text:00000000000002b4 .L0 
     /tmp/ccdjN2FA.s:521    .text:00000000000002b8 .L0 
     /tmp/ccdjN2FA.s:522    .text:00000000000002b8 .L0 
     /tmp/ccdjN2FA.s:524    .text:00000000000002bc .L0 
     /tmp/ccdjN2FA.s:525    .text:00000000000002bc .L0 
     /tmp/ccdjN2FA.s:527    .text:00000000000002c0 .L0 
     /tmp/ccdjN2FA.s:528    .text:00000000000002c0 .L0 
     /tmp/ccdjN2FA.s:530    .text:00000000000002c4 .L0 
     /tmp/ccdjN2FA.s:533    .text:00000000000002c8 .L0 
     /tmp/ccdjN2FA.s:534    .text:00000000000002c8 .L0 
     /tmp/ccdjN2FA.s:537    .text:00000000000002cc .L0 
     /tmp/ccdjN2FA.s:539    .text:00000000000002d0 .L0 
     /tmp/ccdjN2FA.s:542    .text:00000000000002d4 .L0 
     /tmp/ccdjN2FA.s:546    .text:00000000000002d8 .L0 
     /tmp/ccdjN2FA.s:547    .text:00000000000002d8 .L0 
     /tmp/ccdjN2FA.s:551    .text:00000000000002dc .L0 
     /tmp/ccdjN2FA.s:552    .text:00000000000002dc .L0 
     /tmp/ccdjN2FA.s:554    .text:00000000000002e0 .L0 
     /tmp/ccdjN2FA.s:556    .text:00000000000002e4 .L0 
     /tmp/ccdjN2FA.s:557    .text:00000000000002e4 .L0 
     /tmp/ccdjN2FA.s:560    .text:00000000000002ec .L0 
     /tmp/ccdjN2FA.s:566    .text:00000000000002f4 .L0 
     /tmp/ccdjN2FA.s:567    .text:00000000000002f8 .L0 
     /tmp/ccdjN2FA.s:569    .text:00000000000002fc .L0 
     /tmp/ccdjN2FA.s:570    .text:00000000000002fc .L0 
     /tmp/ccdjN2FA.s:572    .text:0000000000000300 .L0 
     /tmp/ccdjN2FA.s:575    .text:0000000000000304 .L0 
     /tmp/ccdjN2FA.s:577    .text:0000000000000308 .L0 
     /tmp/ccdjN2FA.s:583    .text:0000000000000308 _Z18getOptimalSlabSizem
     /tmp/ccdjN2FA.s:586    .text:0000000000000308 .L0 
     /tmp/ccdjN2FA.s:588    .text:0000000000000308 .L0 
     /tmp/ccdjN2FA.s:589    .text:000000000000030c .L0 
     /tmp/ccdjN2FA.s:591    .text:0000000000000310 .L0 
     /tmp/ccdjN2FA.s:593    .text:0000000000000314 .L0 
     /tmp/ccdjN2FA.s:596    .text:0000000000000314 .L0 
     /tmp/ccdjN2FA.s:597    .text:0000000000000314 .L0 
     /tmp/ccdjN2FA.s:601    .text:0000000000000318 .L0 
     /tmp/ccdjN2FA.s:602    .text:0000000000000318 .L0 
     /tmp/ccdjN2FA.s:603    .text:0000000000000318 .L0 
     /tmp/ccdjN2FA.s:605    .text:000000000000031c .L0 
     /tmp/ccdjN2FA.s:607    .text:0000000000000320 .L0 
     /tmp/ccdjN2FA.s:608    .text:0000000000000320 .L0 
     /tmp/ccdjN2FA.s:611    .text:0000000000000324 .L0 
     /tmp/ccdjN2FA.s:614    .text:0000000000000328 .L0 
     /tmp/ccdjN2FA.s:615    .text:0000000000000328 .L0 
     /tmp/ccdjN2FA.s:617    .text:000000000000032c .L0 
     /tmp/ccdjN2FA.s:621    .text:0000000000000330 .L0 
     /tmp/ccdjN2FA.s:622    .text:0000000000000330 .L0 
GAS LISTING /tmp/ccdjN2FA.s 			page 59


     /tmp/ccdjN2FA.s:627    .text:0000000000000338 .L0 
     /tmp/ccdjN2FA.s:631    .text:000000000000033c .L0 
     /tmp/ccdjN2FA.s:635    .text:0000000000000344 .L0 
     /tmp/ccdjN2FA.s:636    .text:0000000000000344 .L0 
     /tmp/ccdjN2FA.s:639    .text:0000000000000348 .L0 
     /tmp/ccdjN2FA.s:640    .text:0000000000000348 .L0 
     /tmp/ccdjN2FA.s:642    .text:000000000000034c .L0 
     /tmp/ccdjN2FA.s:645    .text:0000000000000350 .L0 
     /tmp/ccdjN2FA.s:647    .text:0000000000000354 .L0 
     /tmp/ccdjN2FA.s:650    .text:0000000000000358 .L0 
     /tmp/ccdjN2FA.s:658    .text:0000000000000360 .L0 
     /tmp/ccdjN2FA.s:659    .text:0000000000000360 .L0 
     /tmp/ccdjN2FA.s:662    .text:0000000000000368 .L0 
     /tmp/ccdjN2FA.s:663    .text:0000000000000368 .L0 
     /tmp/ccdjN2FA.s:665    .text:000000000000036c .L0 
     /tmp/ccdjN2FA.s:667    .text:0000000000000370 .L0 
     /tmp/ccdjN2FA.s:673    .text:0000000000000370 _Z8findSlabP12kmem_cache_sPKv
     /tmp/ccdjN2FA.s:676    .text:0000000000000370 .L0 
     /tmp/ccdjN2FA.s:678    .text:0000000000000370 .L0 
     /tmp/ccdjN2FA.s:679    .text:0000000000000374 .L0 
     /tmp/ccdjN2FA.s:681    .text:0000000000000378 .L0 
     /tmp/ccdjN2FA.s:683    .text:000000000000037c .L0 
     /tmp/ccdjN2FA.s:686    .text:0000000000000380 .L0 
     /tmp/ccdjN2FA.s:687    .text:0000000000000380 .L0 
     /tmp/ccdjN2FA.s:694    .text:0000000000000388 .L0 
     /tmp/ccdjN2FA.s:695    .text:0000000000000388 .L0 
     /tmp/ccdjN2FA.s:700    .text:000000000000038c .L0 
     /tmp/ccdjN2FA.s:701    .text:000000000000038c .L0 
     /tmp/ccdjN2FA.s:704    .text:0000000000000390 .L0 
     /tmp/ccdjN2FA.s:705    .text:0000000000000390 .L0 
     /tmp/ccdjN2FA.s:707    .text:0000000000000394 .L0 
     /tmp/ccdjN2FA.s:709    .text:0000000000000398 .L0 
     /tmp/ccdjN2FA.s:711    .text:000000000000039c .L0 
     /tmp/ccdjN2FA.s:713    .text:00000000000003a0 .L0 
     /tmp/ccdjN2FA.s:715    .text:00000000000003a4 .L0 
     /tmp/ccdjN2FA.s:718    .text:00000000000003a8 .L0 
     /tmp/ccdjN2FA.s:720    .text:00000000000003ac .L0 
     /tmp/ccdjN2FA.s:725    .text:00000000000003b0 .L0 
     /tmp/ccdjN2FA.s:726    .text:00000000000003b4 .L0 
     /tmp/ccdjN2FA.s:727    .text:00000000000003b4 .L0 
     /tmp/ccdjN2FA.s:728    .text:00000000000003b4 .L0 
     /tmp/ccdjN2FA.s:730    .text:00000000000003b8 .L0 
     /tmp/ccdjN2FA.s:733    .text:00000000000003bc .L0 
     /tmp/ccdjN2FA.s:735    .text:00000000000003bc .L0 
     /tmp/ccdjN2FA.s:736    .text:00000000000003bc .L0 
     /tmp/ccdjN2FA.s:743    .text:00000000000003c4 .L0 
     /tmp/ccdjN2FA.s:744    .text:00000000000003c4 .L0 
     /tmp/ccdjN2FA.s:749    .text:00000000000003c8 .L0 
     /tmp/ccdjN2FA.s:750    .text:00000000000003c8 .L0 
     /tmp/ccdjN2FA.s:753    .text:00000000000003cc .L0 
     /tmp/ccdjN2FA.s:754    .text:00000000000003cc .L0 
     /tmp/ccdjN2FA.s:756    .text:00000000000003d0 .L0 
     /tmp/ccdjN2FA.s:758    .text:00000000000003d4 .L0 
     /tmp/ccdjN2FA.s:760    .text:00000000000003d8 .L0 
     /tmp/ccdjN2FA.s:762    .text:00000000000003dc .L0 
     /tmp/ccdjN2FA.s:764    .text:00000000000003e0 .L0 
     /tmp/ccdjN2FA.s:767    .text:00000000000003e4 .L0 
GAS LISTING /tmp/ccdjN2FA.s 			page 60


     /tmp/ccdjN2FA.s:769    .text:00000000000003e8 .L0 
     /tmp/ccdjN2FA.s:772    .text:00000000000003f0 .L0 
     /tmp/ccdjN2FA.s:778    .text:00000000000003f0 _Z19resetAllocatedIndexP6slab_si
     /tmp/ccdjN2FA.s:781    .text:00000000000003f0 .L0 
     /tmp/ccdjN2FA.s:783    .text:00000000000003f0 .L0 
     /tmp/ccdjN2FA.s:784    .text:00000000000003f4 .L0 
     /tmp/ccdjN2FA.s:786    .text:00000000000003f8 .L0 
     /tmp/ccdjN2FA.s:788    .text:00000000000003fc .L0 
     /tmp/ccdjN2FA.s:790    .text:00000000000003fc .L0 
     /tmp/ccdjN2FA.s:791    .text:00000000000003fc .L0 
     /tmp/ccdjN2FA.s:797    .text:000000000000040c .L0 
     /tmp/ccdjN2FA.s:800    .text:0000000000000410 .L0 
     /tmp/ccdjN2FA.s:802    .text:0000000000000414 .L0 
     /tmp/ccdjN2FA.s:805    .text:000000000000041c .L0 
     /tmp/ccdjN2FA.s:808    .text:0000000000000424 .L0 
     /tmp/ccdjN2FA.s:811    .text:000000000000042c .L0 
     /tmp/ccdjN2FA.s:813    .text:0000000000000430 .L0 
     /tmp/ccdjN2FA.s:814    .text:0000000000000434 .L0 
     /tmp/ccdjN2FA.s:815    .text:0000000000000434 .L0 
     /tmp/ccdjN2FA.s:817    .text:0000000000000438 .L0 
     /tmp/ccdjN2FA.s:819    .text:000000000000043c .L0 
     /tmp/ccdjN2FA.s:825    .text:000000000000043c _Z14removeFullSlabP12kmem_cache_sP6slab_s
     /tmp/ccdjN2FA.s:828    .text:000000000000043c .L0 
     /tmp/ccdjN2FA.s:830    .text:000000000000043c .L0 
     /tmp/ccdjN2FA.s:831    .text:0000000000000440 .L0 
     /tmp/ccdjN2FA.s:833    .text:0000000000000444 .L0 
     /tmp/ccdjN2FA.s:835    .text:0000000000000448 .L0 
     /tmp/ccdjN2FA.s:837    .text:0000000000000448 .L0 
     /tmp/ccdjN2FA.s:838    .text:0000000000000448 .L0 
     /tmp/ccdjN2FA.s:840    .text:000000000000044c .L0 
     /tmp/ccdjN2FA.s:842    .text:0000000000000450 .L0 
     /tmp/ccdjN2FA.s:843    .text:0000000000000450 .L0 
     /tmp/ccdjN2FA.s:845    .text:0000000000000454 .L0 
     /tmp/ccdjN2FA.s:847    .text:0000000000000458 .L0 
     /tmp/ccdjN2FA.s:848    .text:0000000000000458 .L0 
     /tmp/ccdjN2FA.s:850    .text:000000000000045c .L0 
     /tmp/ccdjN2FA.s:852    .text:0000000000000460 .L0 
     /tmp/ccdjN2FA.s:855    .text:0000000000000464 .L0 
     /tmp/ccdjN2FA.s:856    .text:0000000000000464 .L0 
     /tmp/ccdjN2FA.s:858    .text:0000000000000468 .L0 
     /tmp/ccdjN2FA.s:860    .text:000000000000046c .L0 
     /tmp/ccdjN2FA.s:861    .text:000000000000046c .L0 
     /tmp/ccdjN2FA.s:863    .text:0000000000000470 .L0 
     /tmp/ccdjN2FA.s:864    .text:0000000000000470 .L0 
     /tmp/ccdjN2FA.s:866    .text:0000000000000474 .L0 
     /tmp/ccdjN2FA.s:868    .text:0000000000000478 .L0 
     /tmp/ccdjN2FA.s:869    .text:0000000000000478 .L0 
     /tmp/ccdjN2FA.s:872    .text:000000000000047c .L0 
     /tmp/ccdjN2FA.s:873    .text:000000000000047c .L0 
     /tmp/ccdjN2FA.s:875    .text:0000000000000480 .L0 
     /tmp/ccdjN2FA.s:876    .text:0000000000000484 .L0 
     /tmp/ccdjN2FA.s:877    .text:0000000000000484 .L0 
     /tmp/ccdjN2FA.s:878    .text:0000000000000484 .L0 
     /tmp/ccdjN2FA.s:880    .text:0000000000000488 .L0 
     /tmp/ccdjN2FA.s:883    .text:000000000000048c .L0 
     /tmp/ccdjN2FA.s:885    .text:000000000000048c .L0 
     /tmp/ccdjN2FA.s:886    .text:000000000000048c .L0 
GAS LISTING /tmp/ccdjN2FA.s 			page 61


     /tmp/ccdjN2FA.s:888    .text:0000000000000490 .L0 
     /tmp/ccdjN2FA.s:890    .text:0000000000000494 .L0 
     /tmp/ccdjN2FA.s:891    .text:0000000000000494 .L0 
     /tmp/ccdjN2FA.s:893    .text:0000000000000498 .L0 
     /tmp/ccdjN2FA.s:895    .text:00000000000004a0 .L0 
     /tmp/ccdjN2FA.s:901    .text:00000000000004a0 _Z17removePartialSlabP12kmem_cache_sP6slab_s
     /tmp/ccdjN2FA.s:904    .text:00000000000004a0 .L0 
     /tmp/ccdjN2FA.s:906    .text:00000000000004a0 .L0 
     /tmp/ccdjN2FA.s:907    .text:00000000000004a4 .L0 
     /tmp/ccdjN2FA.s:909    .text:00000000000004a8 .L0 
     /tmp/ccdjN2FA.s:911    .text:00000000000004ac .L0 
     /tmp/ccdjN2FA.s:913    .text:00000000000004ac .L0 
     /tmp/ccdjN2FA.s:914    .text:00000000000004ac .L0 
     /tmp/ccdjN2FA.s:916    .text:00000000000004b0 .L0 
     /tmp/ccdjN2FA.s:918    .text:00000000000004b4 .L0 
     /tmp/ccdjN2FA.s:919    .text:00000000000004b4 .L0 
     /tmp/ccdjN2FA.s:921    .text:00000000000004b8 .L0 
     /tmp/ccdjN2FA.s:923    .text:00000000000004bc .L0 
     /tmp/ccdjN2FA.s:924    .text:00000000000004bc .L0 
     /tmp/ccdjN2FA.s:926    .text:00000000000004c0 .L0 
     /tmp/ccdjN2FA.s:928    .text:00000000000004c4 .L0 
     /tmp/ccdjN2FA.s:931    .text:00000000000004c8 .L0 
     /tmp/ccdjN2FA.s:932    .text:00000000000004c8 .L0 
     /tmp/ccdjN2FA.s:934    .text:00000000000004cc .L0 
     /tmp/ccdjN2FA.s:936    .text:00000000000004d0 .L0 
     /tmp/ccdjN2FA.s:937    .text:00000000000004d0 .L0 
     /tmp/ccdjN2FA.s:939    .text:00000000000004d4 .L0 
     /tmp/ccdjN2FA.s:940    .text:00000000000004d4 .L0 
     /tmp/ccdjN2FA.s:942    .text:00000000000004d8 .L0 
     /tmp/ccdjN2FA.s:944    .text:00000000000004dc .L0 
     /tmp/ccdjN2FA.s:945    .text:00000000000004dc .L0 
     /tmp/ccdjN2FA.s:948    .text:00000000000004e0 .L0 
     /tmp/ccdjN2FA.s:949    .text:00000000000004e0 .L0 
     /tmp/ccdjN2FA.s:951    .text:00000000000004e4 .L0 
     /tmp/ccdjN2FA.s:952    .text:00000000000004e8 .L0 
     /tmp/ccdjN2FA.s:953    .text:00000000000004e8 .L0 
     /tmp/ccdjN2FA.s:954    .text:00000000000004e8 .L0 
     /tmp/ccdjN2FA.s:956    .text:00000000000004ec .L0 
     /tmp/ccdjN2FA.s:959    .text:00000000000004f0 .L0 
     /tmp/ccdjN2FA.s:961    .text:00000000000004f0 .L0 
     /tmp/ccdjN2FA.s:962    .text:00000000000004f0 .L0 
     /tmp/ccdjN2FA.s:964    .text:00000000000004f4 .L0 
     /tmp/ccdjN2FA.s:966    .text:00000000000004f8 .L0 
     /tmp/ccdjN2FA.s:967    .text:00000000000004f8 .L0 
     /tmp/ccdjN2FA.s:969    .text:00000000000004fc .L0 
     /tmp/ccdjN2FA.s:971    .text:0000000000000504 .L0 
     /tmp/ccdjN2FA.s:994    .text:0000000000000504 _Z13printSlabInfoP6slab_s
     /tmp/ccdjN2FA.s:997    .text:0000000000000504 .L0 
     /tmp/ccdjN2FA.s:999    .text:0000000000000504 .L0 
     /tmp/ccdjN2FA.s:1000   .text:0000000000000508 .L0 
     /tmp/ccdjN2FA.s:1004   .text:0000000000000514 .L0 
     /tmp/ccdjN2FA.s:1005   .text:0000000000000514 .L0 
     /tmp/ccdjN2FA.s:1006   .text:0000000000000514 .L0 
     /tmp/ccdjN2FA.s:1008   .text:0000000000000518 .L0 
     /tmp/ccdjN2FA.s:1011   .text:000000000000051c .L0 
     /tmp/ccdjN2FA.s:1012   .text:000000000000051c .L0 
     /tmp/ccdjN2FA.s:1017   .text:000000000000052c .L0 
GAS LISTING /tmp/ccdjN2FA.s 			page 62


     /tmp/ccdjN2FA.s:1018   .text:000000000000052c .L0 
     /tmp/ccdjN2FA.s:1022   .text:000000000000053c .L0 
     /tmp/ccdjN2FA.s:1023   .text:000000000000053c .L0 
     /tmp/ccdjN2FA.s:1029   .text:0000000000000550 .L0 
     /tmp/ccdjN2FA.s:1030   .text:0000000000000550 .L0 
     /tmp/ccdjN2FA.s:1034   .text:0000000000000560 .L0 
     /tmp/ccdjN2FA.s:1035   .text:0000000000000560 .L0 
     /tmp/ccdjN2FA.s:1039   .text:0000000000000570 .L0 
     /tmp/ccdjN2FA.s:1040   .text:0000000000000570 .L0 
     /tmp/ccdjN2FA.s:1046   .text:0000000000000584 .L0 
     /tmp/ccdjN2FA.s:1047   .text:0000000000000584 .L0 
     /tmp/ccdjN2FA.s:1051   .text:0000000000000594 .L0 
     /tmp/ccdjN2FA.s:1052   .text:0000000000000594 .L0 
     /tmp/ccdjN2FA.s:1056   .text:00000000000005a4 .L0 
     /tmp/ccdjN2FA.s:1057   .text:00000000000005a4 .L0 
     /tmp/ccdjN2FA.s:1063   .text:00000000000005b8 .L0 
     /tmp/ccdjN2FA.s:1064   .text:00000000000005b8 .L0 
     /tmp/ccdjN2FA.s:1068   .text:00000000000005c8 .L0 
     /tmp/ccdjN2FA.s:1069   .text:00000000000005cc .L0 
     /tmp/ccdjN2FA.s:1071   .text:00000000000005d0 .L0 
     /tmp/ccdjN2FA.s:1072   .text:00000000000005d0 .L0 
     /tmp/ccdjN2FA.s:1074   .text:00000000000005d4 .L0 
     /tmp/ccdjN2FA.s:1077   .text:00000000000005d8 .L0 
     /tmp/ccdjN2FA.s:1079   .text:00000000000005dc .L0 
     /tmp/ccdjN2FA.s:1090   .text:00000000000005dc _Z16free_slab_objectP6slab_sPKv
     /tmp/ccdjN2FA.s:1093   .text:00000000000005dc .L0 
     /tmp/ccdjN2FA.s:1095   .text:00000000000005dc .L0 
     /tmp/ccdjN2FA.s:1096   .text:00000000000005e0 .L0 
     /tmp/ccdjN2FA.s:1101   .text:00000000000005f0 .L0 
     /tmp/ccdjN2FA.s:1102   .text:00000000000005f0 .L0 
     /tmp/ccdjN2FA.s:1103   .text:00000000000005f0 .L0 
     /tmp/ccdjN2FA.s:1104   .text:00000000000005f0 .L0 
     /tmp/ccdjN2FA.s:1106   .text:00000000000005f4 .L0 
     /tmp/ccdjN2FA.s:1108   .text:00000000000005f4 .L0 
     /tmp/ccdjN2FA.s:1109   .text:00000000000005f4 .L0 
     /tmp/ccdjN2FA.s:1112   .text:00000000000005fc .L0 
     /tmp/ccdjN2FA.s:1114   .text:0000000000000600 .L0 
     /tmp/ccdjN2FA.s:1116   .text:0000000000000604 .L0 
     /tmp/ccdjN2FA.s:1118   .text:0000000000000608 .L0 
     /tmp/ccdjN2FA.s:1121   .text:000000000000060c .L0 
     /tmp/ccdjN2FA.s:1122   .text:000000000000060c .L0 
     /tmp/ccdjN2FA.s:1124   .text:0000000000000610 .L0 
     /tmp/ccdjN2FA.s:1127   .text:0000000000000618 .L0 
     /tmp/ccdjN2FA.s:1131   .text:000000000000061c .L0 
     /tmp/ccdjN2FA.s:1132   .text:0000000000000620 .L0 
     /tmp/ccdjN2FA.s:1133   .text:0000000000000620 .L0 
     /tmp/ccdjN2FA.s:1135   .text:0000000000000624 .L0 
     /tmp/ccdjN2FA.s:1136   .text:0000000000000624 .L0 
     /tmp/ccdjN2FA.s:1138   .text:0000000000000628 .L0 
     /tmp/ccdjN2FA.s:1141   .text:000000000000062c .L0 
     /tmp/ccdjN2FA.s:1143   .text:0000000000000630 .L0 
     /tmp/ccdjN2FA.s:1147   .text:0000000000000634 .L0 
     /tmp/ccdjN2FA.s:1150   .text:0000000000000638 .L0 
     /tmp/ccdjN2FA.s:1151   .text:0000000000000638 .L0 
     /tmp/ccdjN2FA.s:1156   .text:0000000000000648 .L0 
     /tmp/ccdjN2FA.s:1157   .text:0000000000000648 .L0 
     /tmp/ccdjN2FA.s:1163   .text:000000000000065c .L0 
GAS LISTING /tmp/ccdjN2FA.s 			page 63


     /tmp/ccdjN2FA.s:1164   .text:000000000000065c .L0 
     /tmp/ccdjN2FA.s:1168   .text:000000000000066c .L0 
     /tmp/ccdjN2FA.s:1169   .text:000000000000066c .L0 
     /tmp/ccdjN2FA.s:1174   .text:000000000000067c .L0 
     /tmp/ccdjN2FA.s:1175   .text:000000000000067c .L0 
     /tmp/ccdjN2FA.s:1177   .text:0000000000000680 .L0 
     /tmp/ccdjN2FA.s:1179   .text:0000000000000684 .L0 
     /tmp/ccdjN2FA.s:1181   .text:0000000000000688 .L0 
     /tmp/ccdjN2FA.s:1185   .text:0000000000000690 .L0 
     /tmp/ccdjN2FA.s:1186   .text:0000000000000690 .L0 
     /tmp/ccdjN2FA.s:1188   .text:0000000000000694 .L0 
     /tmp/ccdjN2FA.s:1193   .text:00000000000006a0 .L0 
     /tmp/ccdjN2FA.s:1194   .text:00000000000006a0 .L0 
     /tmp/ccdjN2FA.s:1201   .text:00000000000006b4 .L0 
     /tmp/ccdjN2FA.s:1202   .text:00000000000006b4 .L0 
     /tmp/ccdjN2FA.s:1207   .text:00000000000006c8 .L0 
     /tmp/ccdjN2FA.s:1213   .text:00000000000006c8 _Z9kmem_initPvi
     /tmp/ccdjN2FA.s:1216   .text:00000000000006c8 .L0 
     /tmp/ccdjN2FA.s:1218   .text:00000000000006c8 .L0 
     /tmp/ccdjN2FA.s:1219   .text:00000000000006cc .L0 
     /tmp/ccdjN2FA.s:1222   .text:00000000000006d4 .L0 
     /tmp/ccdjN2FA.s:1223   .text:00000000000006d4 .L0 
     /tmp/ccdjN2FA.s:1225   .text:00000000000006d8 .L0 
     /tmp/ccdjN2FA.s:1227   .text:00000000000006d8 .L0 
     /tmp/ccdjN2FA.s:1228   .text:00000000000006d8 .L0 
     /tmp/ccdjN2FA.s:1231   .text:00000000000006e0 .L0 
     /tmp/ccdjN2FA.s:1232   .text:00000000000006e0 .L0 
     /tmp/ccdjN2FA.s:1235   .text:00000000000006e8 .L0 
     /tmp/ccdjN2FA.s:1237   .text:00000000000006f0 .L0 
     /tmp/ccdjN2FA.s:1238   .text:00000000000006f4 .L0 
     /tmp/ccdjN2FA.s:1240   .text:00000000000006f8 .L0 
     /tmp/ccdjN2FA.s:1241   .text:00000000000006f8 .L0 
     /tmp/ccdjN2FA.s:1243   .text:00000000000006fc .L0 
     /tmp/ccdjN2FA.s:1245   .text:0000000000000700 .L0 
     /tmp/ccdjN2FA.s:1251   .text:0000000000000700 _Z16kmem_cache_allocP12kmem_cache_s
     /tmp/ccdjN2FA.s:1254   .text:0000000000000700 .L0 
     /tmp/ccdjN2FA.s:1256   .text:0000000000000700 .L0 
     /tmp/ccdjN2FA.s:1257   .text:0000000000000704 .L0 
     /tmp/ccdjN2FA.s:1262   .text:0000000000000714 .L0 
     /tmp/ccdjN2FA.s:1263   .text:0000000000000714 .L0 
     /tmp/ccdjN2FA.s:1264   .text:0000000000000714 .L0 
     /tmp/ccdjN2FA.s:1265   .text:0000000000000714 .L0 
     /tmp/ccdjN2FA.s:1267   .text:0000000000000718 .L0 
     /tmp/ccdjN2FA.s:1271   .text:000000000000071c .L0 
     /tmp/ccdjN2FA.s:1272   .text:000000000000071c .L0 
     /tmp/ccdjN2FA.s:1275   .text:0000000000000720 .L0 
     /tmp/ccdjN2FA.s:1280   .text:0000000000000724 .L0 
     /tmp/ccdjN2FA.s:1281   .text:0000000000000724 .L0 
     /tmp/ccdjN2FA.s:1283   .text:0000000000000728 .L0 
     /tmp/ccdjN2FA.s:1286   .text:000000000000072c .L0 
     /tmp/ccdjN2FA.s:1287   .text:000000000000072c .L0 
     /tmp/ccdjN2FA.s:1292   .text:0000000000000738 .L0 
     /tmp/ccdjN2FA.s:1293   .text:0000000000000738 .L0 
     /tmp/ccdjN2FA.s:1298   .text:0000000000000744 .L0 
     /tmp/ccdjN2FA.s:1300   .text:0000000000000748 .L0 
     /tmp/ccdjN2FA.s:1301   .text:0000000000000748 .L0 
     /tmp/ccdjN2FA.s:1305   .text:0000000000000754 .L0 
GAS LISTING /tmp/ccdjN2FA.s 			page 64


     /tmp/ccdjN2FA.s:1306   .text:0000000000000754 .L0 
     /tmp/ccdjN2FA.s:1313   .text:0000000000000758 .L0 
     /tmp/ccdjN2FA.s:1314   .text:0000000000000758 .L0 
     /tmp/ccdjN2FA.s:1319   .text:0000000000000764 .L0 
     /tmp/ccdjN2FA.s:1320   .text:0000000000000764 .L0 
     /tmp/ccdjN2FA.s:1325   .text:0000000000000770 .L0 
     /tmp/ccdjN2FA.s:1331   .text:0000000000000774 .L0 
     /tmp/ccdjN2FA.s:1333   .text:000000000000077c .L0 
     /tmp/ccdjN2FA.s:1334   .text:000000000000077c .L0 
     /tmp/ccdjN2FA.s:1336   .text:0000000000000780 .L0 
     /tmp/ccdjN2FA.s:1337   .text:0000000000000780 .L0 
     /tmp/ccdjN2FA.s:1339   .text:0000000000000784 .L0 
     /tmp/ccdjN2FA.s:1342   .text:0000000000000788 .L0 
     /tmp/ccdjN2FA.s:1344   .text:000000000000078c .L0 
     /tmp/ccdjN2FA.s:1348   .text:0000000000000790 .L0 
     /tmp/ccdjN2FA.s:1352   .text:0000000000000790 .L0 
     /tmp/ccdjN2FA.s:1353   .text:0000000000000790 .L0 
     /tmp/ccdjN2FA.s:1357   .text:000000000000079c .L0 
     /tmp/ccdjN2FA.s:1358   .text:000000000000079c .L0 
     /tmp/ccdjN2FA.s:1365   .text:00000000000007a0 .L0 
     /tmp/ccdjN2FA.s:1366   .text:00000000000007a0 .L0 
     /tmp/ccdjN2FA.s:1370   .text:00000000000007ac .L0 
     /tmp/ccdjN2FA.s:1371   .text:00000000000007ac .L0 
     /tmp/ccdjN2FA.s:1373   .text:00000000000007b0 .L0 
     /tmp/ccdjN2FA.s:1375   .text:00000000000007b4 .L0 
     /tmp/ccdjN2FA.s:1376   .text:00000000000007b4 .L0 
     /tmp/ccdjN2FA.s:1382   .text:00000000000007c4 .L0 
     /tmp/ccdjN2FA.s:1383   .text:00000000000007c4 .L0 
     /tmp/ccdjN2FA.s:1388   .text:00000000000007d0 .L0 
     /tmp/ccdjN2FA.s:1390   .text:00000000000007d4 .L0 
     /tmp/ccdjN2FA.s:1391   .text:00000000000007d4 .L0 
     /tmp/ccdjN2FA.s:1395   .text:00000000000007e0 .L0 
     /tmp/ccdjN2FA.s:1396   .text:00000000000007e0 .L0 
     /tmp/ccdjN2FA.s:1400   .text:00000000000007e4 .L0 
     /tmp/ccdjN2FA.s:1406   .text:00000000000007e4 _Z17kmem_cache_createPKcmPFvPvES3_
     /tmp/ccdjN2FA.s:1409   .text:00000000000007e4 .L0 
     /tmp/ccdjN2FA.s:1411   .text:00000000000007e4 .L0 
     /tmp/ccdjN2FA.s:1412   .text:00000000000007e8 .L0 
     /tmp/ccdjN2FA.s:1420   .text:0000000000000804 .L0 
     /tmp/ccdjN2FA.s:1421   .text:0000000000000804 .L0 
     /tmp/ccdjN2FA.s:1422   .text:0000000000000804 .L0 
     /tmp/ccdjN2FA.s:1423   .text:0000000000000804 .L0 
     /tmp/ccdjN2FA.s:1424   .text:0000000000000804 .L0 
     /tmp/ccdjN2FA.s:1425   .text:0000000000000804 .L0 
     /tmp/ccdjN2FA.s:1426   .text:0000000000000804 .L0 
     /tmp/ccdjN2FA.s:1428   .text:0000000000000808 .L0 
     /tmp/ccdjN2FA.s:1434   .text:0000000000000818 .L0 
     /tmp/ccdjN2FA.s:1435   .text:0000000000000818 .L0 
     /tmp/ccdjN2FA.s:1443   .text:0000000000000830 .L0 
     /tmp/ccdjN2FA.s:1444   .text:0000000000000830 .L0 
     /tmp/ccdjN2FA.s:1446   .text:0000000000000834 .L0 
     /tmp/ccdjN2FA.s:1447   .text:0000000000000834 .L0 
     /tmp/ccdjN2FA.s:1449   .text:0000000000000838 .L0 
     /tmp/ccdjN2FA.s:1450   .text:0000000000000838 .L0 
     /tmp/ccdjN2FA.s:1452   .text:000000000000083c .L0 
     /tmp/ccdjN2FA.s:1453   .text:000000000000083c .L0 
     /tmp/ccdjN2FA.s:1455   .text:0000000000000840 .L0 
GAS LISTING /tmp/ccdjN2FA.s 			page 65


     /tmp/ccdjN2FA.s:1457   .text:0000000000000844 .L0 
     /tmp/ccdjN2FA.s:1458   .text:0000000000000844 .L0 
     /tmp/ccdjN2FA.s:1460   .text:0000000000000848 .L0 
     /tmp/ccdjN2FA.s:1461   .text:0000000000000848 .L0 
     /tmp/ccdjN2FA.s:1463   .text:000000000000084c .L0 
     /tmp/ccdjN2FA.s:1464   .text:000000000000084c .L0 
     /tmp/ccdjN2FA.s:1469   .text:000000000000085c .L0 
     /tmp/ccdjN2FA.s:1470   .text:000000000000085c .L0 
     /tmp/ccdjN2FA.s:1472   .text:0000000000000860 .L0 
     /tmp/ccdjN2FA.s:1473   .text:0000000000000860 .L0 
     /tmp/ccdjN2FA.s:1477   .text:000000000000086c .L0 
     /tmp/ccdjN2FA.s:1479   .text:0000000000000870 .L0 
     /tmp/ccdjN2FA.s:1480   .text:0000000000000870 .L0 
     /tmp/ccdjN2FA.s:1482   .text:0000000000000878 .L0 
     /tmp/ccdjN2FA.s:1484   .text:000000000000087c .L0 
     /tmp/ccdjN2FA.s:1485   .text:000000000000087c .L0 
     /tmp/ccdjN2FA.s:1487   .text:0000000000000880 .L0 
     /tmp/ccdjN2FA.s:1490   .text:0000000000000884 .L0 
     /tmp/ccdjN2FA.s:1493   .text:0000000000000888 .L0 
     /tmp/ccdjN2FA.s:1496   .text:000000000000088c .L0 
     /tmp/ccdjN2FA.s:1499   .text:0000000000000890 .L0 
     /tmp/ccdjN2FA.s:1502   .text:0000000000000894 .L0 
     /tmp/ccdjN2FA.s:1504   .text:0000000000000898 .L0 
     /tmp/ccdjN2FA.s:1518   .text:0000000000000898 _Z15kmem_cache_freeP12kmem_cache_sPv
     /tmp/ccdjN2FA.s:1521   .text:0000000000000898 .L0 
     /tmp/ccdjN2FA.s:1523   .text:0000000000000898 .L0 
     /tmp/ccdjN2FA.s:1524   .text:000000000000089c .L0 
     /tmp/ccdjN2FA.s:1529   .text:00000000000008ac .L0 
     /tmp/ccdjN2FA.s:1530   .text:00000000000008ac .L0 
     /tmp/ccdjN2FA.s:1531   .text:00000000000008ac .L0 
     /tmp/ccdjN2FA.s:1532   .text:00000000000008ac .L0 
     /tmp/ccdjN2FA.s:1534   .text:00000000000008b0 .L0 
     /tmp/ccdjN2FA.s:1537   .text:00000000000008b4 .L0 
     /tmp/ccdjN2FA.s:1538   .text:00000000000008b4 .L0 
     /tmp/ccdjN2FA.s:1543   .text:00000000000008c0 .L0 
     /tmp/ccdjN2FA.s:1544   .text:00000000000008c0 .L0 
     /tmp/ccdjN2FA.s:1548   .text:00000000000008d0 .L0 
     /tmp/ccdjN2FA.s:1550   .text:00000000000008d4 .L0 
     /tmp/ccdjN2FA.s:1551   .text:00000000000008d4 .L0 
     /tmp/ccdjN2FA.s:1555   .text:00000000000008e4 .L0 
     /tmp/ccdjN2FA.s:1556   .text:00000000000008e4 .L0 
     /tmp/ccdjN2FA.s:1562   .text:00000000000008f8 .L0 
     /tmp/ccdjN2FA.s:1563   .text:00000000000008f8 .L0 
     /tmp/ccdjN2FA.s:1567   .text:0000000000000908 .L0 
     /tmp/ccdjN2FA.s:1568   .text:0000000000000908 .L0 
     /tmp/ccdjN2FA.s:1574   .text:0000000000000918 .L0 
     /tmp/ccdjN2FA.s:1575   .text:000000000000091c .L0 
     /tmp/ccdjN2FA.s:1577   .text:0000000000000920 .L0 
     /tmp/ccdjN2FA.s:1578   .text:0000000000000920 .L0 
     /tmp/ccdjN2FA.s:1580   .text:0000000000000924 .L0 
     /tmp/ccdjN2FA.s:1583   .text:0000000000000928 .L0 
     /tmp/ccdjN2FA.s:1586   .text:000000000000092c .L0 
     /tmp/ccdjN2FA.s:1588   .text:0000000000000930 .L0 
     /tmp/ccdjN2FA.s:1620   .text:0000000000000930 _Z15kmem_cache_infoP12kmem_cache_s
     /tmp/ccdjN2FA.s:1623   .text:0000000000000930 .L0 
     /tmp/ccdjN2FA.s:1625   .text:0000000000000930 .L0 
     /tmp/ccdjN2FA.s:1626   .text:0000000000000934 .L0 
GAS LISTING /tmp/ccdjN2FA.s 			page 66


     /tmp/ccdjN2FA.s:1631   .text:0000000000000944 .L0 
     /tmp/ccdjN2FA.s:1632   .text:0000000000000944 .L0 
     /tmp/ccdjN2FA.s:1633   .text:0000000000000944 .L0 
     /tmp/ccdjN2FA.s:1634   .text:0000000000000944 .L0 
     /tmp/ccdjN2FA.s:1636   .text:0000000000000948 .L0 
     /tmp/ccdjN2FA.s:1639   .text:000000000000094c .L0 
     /tmp/ccdjN2FA.s:1640   .text:000000000000094c .L0 
     /tmp/ccdjN2FA.s:1645   .text:000000000000095c .L0 
     /tmp/ccdjN2FA.s:1646   .text:000000000000095c .L0 
     /tmp/ccdjN2FA.s:1650   .text:000000000000096c .L0 
     /tmp/ccdjN2FA.s:1651   .text:000000000000096c .L0 
     /tmp/ccdjN2FA.s:1655   .text:0000000000000978 .L0 
     /tmp/ccdjN2FA.s:1656   .text:0000000000000978 .L0 
     /tmp/ccdjN2FA.s:1660   .text:0000000000000988 .L0 
     /tmp/ccdjN2FA.s:1661   .text:0000000000000988 .L0 
     /tmp/ccdjN2FA.s:1665   .text:0000000000000998 .L0 
     /tmp/ccdjN2FA.s:1666   .text:0000000000000998 .L0 
     /tmp/ccdjN2FA.s:1672   .text:00000000000009ac .L0 
     /tmp/ccdjN2FA.s:1673   .text:00000000000009ac .L0 
     /tmp/ccdjN2FA.s:1677   .text:00000000000009bc .L0 
     /tmp/ccdjN2FA.s:1678   .text:00000000000009bc .L0 
     /tmp/ccdjN2FA.s:1682   .text:00000000000009cc .L0 
     /tmp/ccdjN2FA.s:1683   .text:00000000000009cc .L0 
     /tmp/ccdjN2FA.s:1689   .text:00000000000009e0 .L0 
     /tmp/ccdjN2FA.s:1690   .text:00000000000009e0 .L0 
     /tmp/ccdjN2FA.s:1694   .text:00000000000009f0 .L0 
     /tmp/ccdjN2FA.s:1695   .text:00000000000009f0 .L0 
     /tmp/ccdjN2FA.s:1699   .text:0000000000000a00 .L0 
     /tmp/ccdjN2FA.s:1700   .text:0000000000000a00 .L0 
     /tmp/ccdjN2FA.s:1704   .text:0000000000000a10 .L0 
     /tmp/ccdjN2FA.s:1705   .text:0000000000000a10 .L0 
     /tmp/ccdjN2FA.s:1709   .text:0000000000000a14 .L0 
     /tmp/ccdjN2FA.s:1710   .text:0000000000000a14 .L0 
     /tmp/ccdjN2FA.s:1712   .text:0000000000000a18 .L0 
     /tmp/ccdjN2FA.s:1713   .text:0000000000000a18 .L0 
     /tmp/ccdjN2FA.s:1717   .text:0000000000000a24 .L0 
     /tmp/ccdjN2FA.s:1718   .text:0000000000000a24 .L0 
     /tmp/ccdjN2FA.s:1721   .text:0000000000000a28 .L0 
     /tmp/ccdjN2FA.s:1724   .text:0000000000000a2c .L0 
     /tmp/ccdjN2FA.s:1725   .text:0000000000000a2c .L0 
     /tmp/ccdjN2FA.s:1729   .text:0000000000000a3c .L0 
     /tmp/ccdjN2FA.s:1730   .text:0000000000000a3c .L0 
     /tmp/ccdjN2FA.s:1734   .text:0000000000000a40 .L0 
     /tmp/ccdjN2FA.s:1735   .text:0000000000000a40 .L0 
     /tmp/ccdjN2FA.s:1737   .text:0000000000000a44 .L0 
     /tmp/ccdjN2FA.s:1738   .text:0000000000000a44 .L0 
     /tmp/ccdjN2FA.s:1742   .text:0000000000000a50 .L0 
     /tmp/ccdjN2FA.s:1743   .text:0000000000000a50 .L0 
     /tmp/ccdjN2FA.s:1746   .text:0000000000000a54 .L0 
     /tmp/ccdjN2FA.s:1749   .text:0000000000000a58 .L0 
     /tmp/ccdjN2FA.s:1750   .text:0000000000000a58 .L0 
     /tmp/ccdjN2FA.s:1754   .text:0000000000000a68 .L0 
     /tmp/ccdjN2FA.s:1755   .text:0000000000000a68 .L0 
     /tmp/ccdjN2FA.s:1759   .text:0000000000000a6c .L0 
     /tmp/ccdjN2FA.s:1760   .text:0000000000000a6c .L0 
     /tmp/ccdjN2FA.s:1762   .text:0000000000000a70 .L0 
     /tmp/ccdjN2FA.s:1763   .text:0000000000000a70 .L0 
GAS LISTING /tmp/ccdjN2FA.s 			page 67


     /tmp/ccdjN2FA.s:1767   .text:0000000000000a7c .L0 
     /tmp/ccdjN2FA.s:1768   .text:0000000000000a7c .L0 
     /tmp/ccdjN2FA.s:1771   .text:0000000000000a80 .L0 
     /tmp/ccdjN2FA.s:1774   .text:0000000000000a84 .L0 
     /tmp/ccdjN2FA.s:1775   .text:0000000000000a88 .L0 
     /tmp/ccdjN2FA.s:1777   .text:0000000000000a8c .L0 
     /tmp/ccdjN2FA.s:1778   .text:0000000000000a8c .L0 
     /tmp/ccdjN2FA.s:1780   .text:0000000000000a90 .L0 
     /tmp/ccdjN2FA.s:1783   .text:0000000000000a94 .L0 
     /tmp/ccdjN2FA.s:1786   .text:0000000000000a98 .L0 
     /tmp/ccdjN2FA.s:1788   .text:0000000000000a9c .L0 
     /tmp/ccdjN2FA.s:1814   .text:0000000000000a9c _Z22printSlabAllocatorInfov
     /tmp/ccdjN2FA.s:1817   .text:0000000000000a9c .L0 
     /tmp/ccdjN2FA.s:1818   .text:0000000000000a9c .L0 
     /tmp/ccdjN2FA.s:1819   .text:0000000000000aa0 .L0 
     /tmp/ccdjN2FA.s:1823   .text:0000000000000aac .L0 
     /tmp/ccdjN2FA.s:1824   .text:0000000000000aac .L0 
     /tmp/ccdjN2FA.s:1825   .text:0000000000000aac .L0 
     /tmp/ccdjN2FA.s:1827   .text:0000000000000ab0 .L0 
     /tmp/ccdjN2FA.s:1829   .text:0000000000000ab0 .L0 
     /tmp/ccdjN2FA.s:1830   .text:0000000000000ab0 .L0 
     /tmp/ccdjN2FA.s:1834   .text:0000000000000ac0 .L0 
     /tmp/ccdjN2FA.s:1835   .text:0000000000000ac0 .L0 
     /tmp/ccdjN2FA.s:1839   .text:0000000000000ad0 .L0 
     /tmp/ccdjN2FA.s:1840   .text:0000000000000ad0 .L0 
     /tmp/ccdjN2FA.s:1843   .text:0000000000000adc .L0 
     /tmp/ccdjN2FA.s:1849   .text:0000000000000af0 .L0 
     /tmp/ccdjN2FA.s:1850   .text:0000000000000af0 .L0 
     /tmp/ccdjN2FA.s:1854   .text:0000000000000b00 .L0 
     /tmp/ccdjN2FA.s:1855   .text:0000000000000b00 .L0 
     /tmp/ccdjN2FA.s:1859   .text:0000000000000b10 .L0 
     /tmp/ccdjN2FA.s:1860   .text:0000000000000b10 .L0 
     /tmp/ccdjN2FA.s:1866   .text:0000000000000b24 .L0 
     /tmp/ccdjN2FA.s:1867   .text:0000000000000b24 .L0 
     /tmp/ccdjN2FA.s:1871   .text:0000000000000b34 .L0 
     /tmp/ccdjN2FA.s:1872   .text:0000000000000b34 .L0 
     /tmp/ccdjN2FA.s:1876   .text:0000000000000b44 .L0 
     /tmp/ccdjN2FA.s:1877   .text:0000000000000b44 .L0 
     /tmp/ccdjN2FA.s:1883   .text:0000000000000b58 .L0 
     /tmp/ccdjN2FA.s:1884   .text:0000000000000b58 .L0 
     /tmp/ccdjN2FA.s:1888   .text:0000000000000b68 .L0 
     /tmp/ccdjN2FA.s:1889   .text:0000000000000b68 .L0 
     /tmp/ccdjN2FA.s:1893   .text:0000000000000b78 .L0 
     /tmp/ccdjN2FA.s:1894   .text:0000000000000b78 .L0 
     /tmp/ccdjN2FA.s:1896   .text:0000000000000b7c .L0 
     /tmp/ccdjN2FA.s:1900   .text:0000000000000b88 .L0 
     /tmp/ccdjN2FA.s:1901   .text:0000000000000b88 .L0 
     /tmp/ccdjN2FA.s:1906   .text:0000000000000b98 .L0 
     /tmp/ccdjN2FA.s:1907   .text:0000000000000b98 .L0 
     /tmp/ccdjN2FA.s:1912   .text:0000000000000ba0 .L0 
     /tmp/ccdjN2FA.s:1913   .text:0000000000000ba0 .L0 
     /tmp/ccdjN2FA.s:1917   .text:0000000000000ba8 .L0 
     /tmp/ccdjN2FA.s:1921   .text:0000000000000bac .L0 
     /tmp/ccdjN2FA.s:1924   .text:0000000000000bb4 .L0 
     /tmp/ccdjN2FA.s:1925   .text:0000000000000bb4 .L0 
     /tmp/ccdjN2FA.s:1931   .text:0000000000000bcc .L0 
     /tmp/ccdjN2FA.s:1936   .text:0000000000000bd4 .L0 
GAS LISTING /tmp/ccdjN2FA.s 			page 68


     /tmp/ccdjN2FA.s:1937   .text:0000000000000bd8 .L0 
     /tmp/ccdjN2FA.s:1939   .text:0000000000000bdc .L0 
     /tmp/ccdjN2FA.s:1940   .text:0000000000000bdc .L0 
     /tmp/ccdjN2FA.s:1942   .text:0000000000000be0 .L0 
     /tmp/ccdjN2FA.s:1945   .text:0000000000000be4 .L0 
     /tmp/ccdjN2FA.s:1947   .text:0000000000000be8 .L0 
     /tmp/ccdjN2FA.s:1953   .text:0000000000000be8 _Z7kmallocm
     /tmp/ccdjN2FA.s:1956   .text:0000000000000be8 .L0 
     /tmp/ccdjN2FA.s:1958   .text:0000000000000be8 .L0 
     /tmp/ccdjN2FA.s:1959   .text:0000000000000bec .L0 
     /tmp/ccdjN2FA.s:1964   .text:0000000000000bfc .L0 
     /tmp/ccdjN2FA.s:1965   .text:0000000000000bfc .L0 
     /tmp/ccdjN2FA.s:1966   .text:0000000000000bfc .L0 
     /tmp/ccdjN2FA.s:1967   .text:0000000000000bfc .L0 
     /tmp/ccdjN2FA.s:1969   .text:0000000000000c00 .L0 
     /tmp/ccdjN2FA.s:1971   .text:0000000000000c00 .L0 
     /tmp/ccdjN2FA.s:1972   .text:0000000000000c00 .L0 
     /tmp/ccdjN2FA.s:1975   .text:0000000000000c08 .L0 
     /tmp/ccdjN2FA.s:1976   .text:0000000000000c08 .L0 
     /tmp/ccdjN2FA.s:1979   .text:0000000000000c0c .L0 
     /tmp/ccdjN2FA.s:1980   .text:0000000000000c0c .L0 
     /tmp/ccdjN2FA.s:1988   .text:0000000000000c24 .L0 
     /tmp/ccdjN2FA.s:1991   .text:0000000000000c28 .L0 
     /tmp/ccdjN2FA.s:1992   .text:0000000000000c28 .L0 
     /tmp/ccdjN2FA.s:2002   .text:0000000000000c48 .L0 
     /tmp/ccdjN2FA.s:2003   .text:0000000000000c4c .L0 
     /tmp/ccdjN2FA.s:2004   .text:0000000000000c4c .L0 
     /tmp/ccdjN2FA.s:2006   .text:0000000000000c50 .L0 
     /tmp/ccdjN2FA.s:2007   .text:0000000000000c50 .L0 
     /tmp/ccdjN2FA.s:2009   .text:0000000000000c54 .L0 
     /tmp/ccdjN2FA.s:2011   .text:0000000000000c58 .L0 
     /tmp/ccdjN2FA.s:2013   .text:0000000000000c5c .L0 
     /tmp/ccdjN2FA.s:2017   .text:0000000000000c60 .L0 
     /tmp/ccdjN2FA.s:2019   .text:0000000000000c60 .L0 
     /tmp/ccdjN2FA.s:2020   .text:0000000000000c60 .L0 
     /tmp/ccdjN2FA.s:2024   .text:0000000000000c6c .L0 
     /tmp/ccdjN2FA.s:2029   .text:0000000000000c80 .L0 
     /tmp/ccdjN2FA.s:2035   .text:0000000000000c80 _Z5kfreePKv
     /tmp/ccdjN2FA.s:2038   .text:0000000000000c80 .L0 
     /tmp/ccdjN2FA.s:2040   .text:0000000000000c80 .L0 
     /tmp/ccdjN2FA.s:2041   .text:0000000000000c84 .L0 
     /tmp/ccdjN2FA.s:2046   .text:0000000000000c94 .L0 
     /tmp/ccdjN2FA.s:2047   .text:0000000000000c94 .L0 
     /tmp/ccdjN2FA.s:2048   .text:0000000000000c94 .L0 
     /tmp/ccdjN2FA.s:2049   .text:0000000000000c94 .L0 
     /tmp/ccdjN2FA.s:2051   .text:0000000000000c98 .L0 
     /tmp/ccdjN2FA.s:2055   .text:0000000000000c9c .L0 
     /tmp/ccdjN2FA.s:2057   .text:0000000000000c9c .L0 
     /tmp/ccdjN2FA.s:2058   .text:0000000000000c9c .L0 
     /tmp/ccdjN2FA.s:2061   .text:0000000000000ca0 .L0 
     /tmp/ccdjN2FA.s:2066   .text:0000000000000ca4 .L0 
     /tmp/ccdjN2FA.s:2069   .text:0000000000000cac .L0 
     /tmp/ccdjN2FA.s:2070   .text:0000000000000cac .L0 
     /tmp/ccdjN2FA.s:2080   .text:0000000000000cd0 .L0 
     /tmp/ccdjN2FA.s:2082   .text:0000000000000cd4 .L0 
     /tmp/ccdjN2FA.s:2088   .text:0000000000000cdc .L0 
     /tmp/ccdjN2FA.s:2090   .text:0000000000000ce0 .L0 
GAS LISTING /tmp/ccdjN2FA.s 			page 69


     /tmp/ccdjN2FA.s:2091   .text:0000000000000ce0 .L0 
     /tmp/ccdjN2FA.s:2096   .text:0000000000000cec .L0 
     /tmp/ccdjN2FA.s:2097   .text:0000000000000cf0 .L0 
     /tmp/ccdjN2FA.s:2099   .text:0000000000000cf4 .L0 
     /tmp/ccdjN2FA.s:2100   .text:0000000000000cf4 .L0 
     /tmp/ccdjN2FA.s:2102   .text:0000000000000cf8 .L0 
     /tmp/ccdjN2FA.s:2105   .text:0000000000000cfc .L0 
     /tmp/ccdjN2FA.s:2108   .text:0000000000000d00 .L0 
     /tmp/ccdjN2FA.s:2110   .text:0000000000000d04 .L0 
     /tmp/ccdjN2FA.s:2116   .text:0000000000000d04 _Z17destroy_slab_listP6slab_s
     /tmp/ccdjN2FA.s:2119   .text:0000000000000d04 .L0 
     /tmp/ccdjN2FA.s:2121   .text:0000000000000d04 .L0 
     /tmp/ccdjN2FA.s:2122   .text:0000000000000d04 .L0 
     /tmp/ccdjN2FA.s:2124   .text:0000000000000d08 .L0 
     /tmp/ccdjN2FA.s:2125   .text:0000000000000d0c .L0 
     /tmp/ccdjN2FA.s:2130   .text:0000000000000d1c .L0 
     /tmp/ccdjN2FA.s:2131   .text:0000000000000d1c .L0 
     /tmp/ccdjN2FA.s:2132   .text:0000000000000d1c .L0 
     /tmp/ccdjN2FA.s:2133   .text:0000000000000d1c .L0 
     /tmp/ccdjN2FA.s:2135   .text:0000000000000d20 .L0 
     /tmp/ccdjN2FA.s:2138   .text:0000000000000d24 .L0 
     /tmp/ccdjN2FA.s:2139   .text:0000000000000d24 .L0 
     /tmp/ccdjN2FA.s:2141   .text:0000000000000d28 .L0 
     /tmp/ccdjN2FA.s:2143   .text:0000000000000d2c .L0 
     /tmp/ccdjN2FA.s:2145   .text:0000000000000d30 .L0 
     /tmp/ccdjN2FA.s:2147   .text:0000000000000d34 .L0 
     /tmp/ccdjN2FA.s:2151   .text:0000000000000d38 .L0 
     /tmp/ccdjN2FA.s:2152   .text:0000000000000d38 .L0 
     /tmp/ccdjN2FA.s:2155   .text:0000000000000d3c .L0 
     /tmp/ccdjN2FA.s:2156   .text:0000000000000d3c .L0 
     /tmp/ccdjN2FA.s:2159   .text:0000000000000d40 .L0 
     /tmp/ccdjN2FA.s:2160   .text:0000000000000d40 .L0 
     /tmp/ccdjN2FA.s:2166   .text:0000000000000d58 .L0 
     /tmp/ccdjN2FA.s:2167   .text:0000000000000d58 .L0 
     /tmp/ccdjN2FA.s:2170   .text:0000000000000d5c .L0 
     /tmp/ccdjN2FA.s:2174   .text:0000000000000d60 .L0 
     /tmp/ccdjN2FA.s:2175   .text:0000000000000d64 .L0 
     /tmp/ccdjN2FA.s:2177   .text:0000000000000d68 .L0 
     /tmp/ccdjN2FA.s:2178   .text:0000000000000d68 .L0 
     /tmp/ccdjN2FA.s:2180   .text:0000000000000d6c .L0 
     /tmp/ccdjN2FA.s:2182   .text:0000000000000d70 .L0 
     /tmp/ccdjN2FA.s:2185   .text:0000000000000d74 .L0 
     /tmp/ccdjN2FA.s:2190   .text:0000000000000d7c .L0 
     /tmp/ccdjN2FA.s:2196   .text:0000000000000d7c _Z18kmem_cache_destroyP12kmem_cache_s
     /tmp/ccdjN2FA.s:2199   .text:0000000000000d7c .L0 
     /tmp/ccdjN2FA.s:2201   .text:0000000000000d7c .L0 
     /tmp/ccdjN2FA.s:2202   .text:0000000000000d80 .L0 
     /tmp/ccdjN2FA.s:2206   .text:0000000000000d8c .L0 
     /tmp/ccdjN2FA.s:2207   .text:0000000000000d8c .L0 
     /tmp/ccdjN2FA.s:2208   .text:0000000000000d8c .L0 
     /tmp/ccdjN2FA.s:2210   .text:0000000000000d90 .L0 
     /tmp/ccdjN2FA.s:2213   .text:0000000000000d94 .L0 
     /tmp/ccdjN2FA.s:2214   .text:0000000000000d94 .L0 
     /tmp/ccdjN2FA.s:2219   .text:0000000000000da0 .L0 
     /tmp/ccdjN2FA.s:2220   .text:0000000000000da0 .L0 
     /tmp/ccdjN2FA.s:2224   .text:0000000000000dac .L0 
     /tmp/ccdjN2FA.s:2225   .text:0000000000000dac .L0 
GAS LISTING /tmp/ccdjN2FA.s 			page 70


     /tmp/ccdjN2FA.s:2229   .text:0000000000000db8 .L0 
     /tmp/ccdjN2FA.s:2230   .text:0000000000000db8 .L0 
     /tmp/ccdjN2FA.s:2236   .text:0000000000000dd0 .L0 
     /tmp/ccdjN2FA.s:2237   .text:0000000000000dd4 .L0 
     /tmp/ccdjN2FA.s:2239   .text:0000000000000dd8 .L0 
     /tmp/ccdjN2FA.s:2240   .text:0000000000000dd8 .L0 
     /tmp/ccdjN2FA.s:2242   .text:0000000000000ddc .L0 
     /tmp/ccdjN2FA.s:2245   .text:0000000000000de0 .L0 
     /tmp/ccdjN2FA.s:2247   .text:0000000000000de4 .L0 
     /tmp/ccdjN2FA.s:2252   .bss:0000000000000000 .LANCHOR0
     /tmp/ccdjN2FA.s:2255   .bss:0000000000000000 _ZL13slabAllocator
     /tmp/ccdjN2FA.s:2265   .text:0000000000000de4 .L0 
     /tmp/ccdjN2FA.s:57     .rodata.str1.8:0000000000000000 .LC0
     /tmp/ccdjN2FA.s:116    .text:0000000000000084 .L0 
     /tmp/ccdjN2FA.s:495    .text:0000000000000288 .L0 
     /tmp/ccdjN2FA.s:976    .rodata.str1.8:0000000000000010 .LC1
     /tmp/ccdjN2FA.s:1012   .text:000000000000051c .L0 
     /tmp/ccdjN2FA.s:979    .rodata.str1.8:0000000000000028 .LC2
     /tmp/ccdjN2FA.s:1018   .text:000000000000052c .L0 
     /tmp/ccdjN2FA.s:982    .rodata.str1.8:0000000000000038 .LC3
     /tmp/ccdjN2FA.s:1030   .text:0000000000000550 .L0 
     /tmp/ccdjN2FA.s:985    .rodata.str1.8:0000000000000040 .LC4
     /tmp/ccdjN2FA.s:1035   .text:0000000000000560 .L0 
     /tmp/ccdjN2FA.s:1047   .text:0000000000000584 .L0 
     /tmp/ccdjN2FA.s:988    .rodata.str1.8:0000000000000060 .LC5
     /tmp/ccdjN2FA.s:1052   .text:0000000000000594 .L0 
     /tmp/ccdjN2FA.s:1064   .text:00000000000005b8 .L0 
     /tmp/ccdjN2FA.s:1084   .rodata.str1.8:0000000000000078 .LC6
     /tmp/ccdjN2FA.s:1151   .text:0000000000000638 .L0 
     /tmp/ccdjN2FA.s:1164   .text:000000000000065c .L0 
     /tmp/ccdjN2FA.s:1235   .text:00000000000006e8 .L0 
     /tmp/ccdjN2FA.s:1435   .text:0000000000000818 .L0 
     /tmp/ccdjN2FA.s:1509   .rodata.str1.8:0000000000000088 .LC7
     /tmp/ccdjN2FA.s:1544   .text:00000000000008c0 .L0 
     /tmp/ccdjN2FA.s:1512   .rodata.str1.8:00000000000000a0 .LC8
     /tmp/ccdjN2FA.s:1551   .text:00000000000008d4 .L0 
     /tmp/ccdjN2FA.s:1563   .text:00000000000008f8 .L0 
     /tmp/ccdjN2FA.s:1593   .rodata.str1.8:00000000000000b0 .LC9
     /tmp/ccdjN2FA.s:1640   .text:000000000000094c .L0 
     /tmp/ccdjN2FA.s:1596   .rodata.str1.8:00000000000000e8 .LC10
     /tmp/ccdjN2FA.s:1646   .text:000000000000095c .L0 
     /tmp/ccdjN2FA.s:1656   .text:0000000000000978 .L0 
     /tmp/ccdjN2FA.s:1599   .rodata.str1.8:00000000000000f8 .LC11
     /tmp/ccdjN2FA.s:1661   .text:0000000000000988 .L0 
     /tmp/ccdjN2FA.s:1673   .text:00000000000009ac .L0 
     /tmp/ccdjN2FA.s:1602   .rodata.str1.8:0000000000000118 .LC12
     /tmp/ccdjN2FA.s:1678   .text:00000000000009bc .L0 
     /tmp/ccdjN2FA.s:1690   .text:00000000000009e0 .L0 
     /tmp/ccdjN2FA.s:1605   .rodata.str1.8:0000000000000138 .LC13
     /tmp/ccdjN2FA.s:1695   .text:00000000000009f0 .L0 
     /tmp/ccdjN2FA.s:1608   .rodata.str1.8:0000000000000158 .LC14
     /tmp/ccdjN2FA.s:1700   .text:0000000000000a00 .L0 
     /tmp/ccdjN2FA.s:1611   .rodata.str1.8:0000000000000168 .LC15
     /tmp/ccdjN2FA.s:1725   .text:0000000000000a2c .L0 
     /tmp/ccdjN2FA.s:1614   .rodata.str1.8:0000000000000178 .LC16
     /tmp/ccdjN2FA.s:1750   .text:0000000000000a58 .L0 
     /tmp/ccdjN2FA.s:1793   .rodata.str1.8:0000000000000188 .LC17
GAS LISTING /tmp/ccdjN2FA.s 			page 71


     /tmp/ccdjN2FA.s:1830   .text:0000000000000ab0 .L0 
     /tmp/ccdjN2FA.s:1796   .rodata.str1.8:00000000000001d8 .LC18
     /tmp/ccdjN2FA.s:1835   .text:0000000000000ac0 .L0 
     /tmp/ccdjN2FA.s:1840   .text:0000000000000ad0 .L0 
     /tmp/ccdjN2FA.s:1850   .text:0000000000000af0 .L0 
     /tmp/ccdjN2FA.s:1799   .rodata.str1.8:00000000000001f8 .LC19
     /tmp/ccdjN2FA.s:1855   .text:0000000000000b00 .L0 
     /tmp/ccdjN2FA.s:1867   .text:0000000000000b24 .L0 
     /tmp/ccdjN2FA.s:1802   .rodata.str1.8:0000000000000210 .LC20
     /tmp/ccdjN2FA.s:1872   .text:0000000000000b34 .L0 
     /tmp/ccdjN2FA.s:1884   .text:0000000000000b58 .L0 
     /tmp/ccdjN2FA.s:1805   .rodata.str1.8:0000000000000228 .LC21
     /tmp/ccdjN2FA.s:1889   .text:0000000000000b68 .L0 
     /tmp/ccdjN2FA.s:1808   .rodata.str1.8:0000000000000240 .LC22
     /tmp/ccdjN2FA.s:1901   .text:0000000000000b88 .L0 
     /tmp/ccdjN2FA.s:1927   .text:0000000000000bbc .L0 
     /tmp/ccdjN2FA.s:1980   .text:0000000000000c0c .L0 
     /tmp/ccdjN2FA.s:1996   .text:0000000000000c30 .L0 
     /tmp/ccdjN2FA.s:2072   .text:0000000000000cb4 .L0 
     /tmp/ccdjN2FA.s:2161   .text:0000000000000d44 .L0 
     /tmp/ccdjN2FA.s:2231   .text:0000000000000dbc .L0 
     /tmp/ccdjN2FA.s:41     .text:0000000000000024 .L2
     /tmp/ccdjN2FA.s:21     .text:000000000000000c .L3
     /tmp/ccdjN2FA.s:108    .text:0000000000000078 .L7
     /tmp/ccdjN2FA.s:98     .text:0000000000000064 .L9
     /tmp/ccdjN2FA.s:243    .text:0000000000000140 .L15
     /tmp/ccdjN2FA.s:220    .text:0000000000000120 .L17
     /tmp/ccdjN2FA.s:191    .text:00000000000000f0 .L13
     /tmp/ccdjN2FA.s:252    .text:0000000000000148 .L11
     /tmp/ccdjN2FA.s:283    .text:0000000000000188 .L10
     /tmp/ccdjN2FA.s:383    .text:00000000000001fc .L23
     /tmp/ccdjN2FA.s:397    .text:0000000000000210 .L24
     /tmp/ccdjN2FA.s:442    .text:0000000000000244 .L27
     /tmp/ccdjN2FA.s:456    .text:0000000000000258 .L28
     /tmp/ccdjN2FA.s:510    .text:00000000000002ac .L31
     /tmp/ccdjN2FA.s:563    .text:00000000000002f4 .L30
     /tmp/ccdjN2FA.s:549    .text:00000000000002dc .L33
     /tmp/ccdjN2FA.s:612    .text:0000000000000328 .L36
     /tmp/ccdjN2FA.s:599    .text:0000000000000318 .L37
     /tmp/ccdjN2FA.s:629    .text:000000000000033c .L40
     /tmp/ccdjN2FA.s:654    .text:0000000000000360 .L38
     /tmp/ccdjN2FA.s:625    .text:0000000000000338 .L39
     /tmp/ccdjN2FA.s:697    .text:000000000000038c .L47
     /tmp/ccdjN2FA.s:732    .text:00000000000003bc .L44
     /tmp/ccdjN2FA.s:691    .text:0000000000000388 .L45
     /tmp/ccdjN2FA.s:746    .text:00000000000003c8 .L49
     /tmp/ccdjN2FA.s:722    .text:00000000000003b0 .L43
     /tmp/ccdjN2FA.s:740    .text:00000000000003c4 .L48
     /tmp/ccdjN2FA.s:882    .text:000000000000048c .L54
     /tmp/ccdjN2FA.s:870    .text:000000000000047c .L56
     /tmp/ccdjN2FA.s:853    .text:0000000000000464 .L55
     /tmp/ccdjN2FA.s:958    .text:00000000000004f0 .L59
     /tmp/ccdjN2FA.s:946    .text:00000000000004e0 .L61
     /tmp/ccdjN2FA.s:929    .text:00000000000004c8 .L60
     /tmp/ccdjN2FA.s:1146   .text:0000000000000634 .L70
     /tmp/ccdjN2FA.s:1191   .text:00000000000006a0 .L71
     /tmp/ccdjN2FA.s:1199   .text:00000000000006b4 .L72
GAS LISTING /tmp/ccdjN2FA.s 			page 72


     /tmp/ccdjN2FA.s:1129   .text:000000000000061c .L65
     /tmp/ccdjN2FA.s:1183   .text:0000000000000690 .L68
     /tmp/ccdjN2FA.s:1308   .text:0000000000000758 .L83
     /tmp/ccdjN2FA.s:1360   .text:00000000000007a0 .L79
     /tmp/ccdjN2FA.s:1327   .text:0000000000000774 .L75
     /tmp/ccdjN2FA.s:1347   .text:0000000000000790 .L84
     /tmp/ccdjN2FA.s:1572   .text:0000000000000918 .L87
     /tmp/ccdjN2FA.s:1722   .text:0000000000000a2c .L91
     /tmp/ccdjN2FA.s:1707   .text:0000000000000a14 .L92
     /tmp/ccdjN2FA.s:1747   .text:0000000000000a58 .L93
     /tmp/ccdjN2FA.s:1732   .text:0000000000000a40 .L94
     /tmp/ccdjN2FA.s:1772   .text:0000000000000a84 .L90
     /tmp/ccdjN2FA.s:1757   .text:0000000000000a6c .L96
     /tmp/ccdjN2FA.s:1919   .text:0000000000000bac .L101
     /tmp/ccdjN2FA.s:1933   .text:0000000000000bd4 .L98
     /tmp/ccdjN2FA.s:1910   .text:0000000000000ba0 .L103
     /tmp/ccdjN2FA.s:1915   .text:0000000000000ba8 .L100
     /tmp/ccdjN2FA.s:2016   .text:0000000000000c60 .L107
     /tmp/ccdjN2FA.s:1989   .text:0000000000000c28 .L105
     /tmp/ccdjN2FA.s:2085   .text:0000000000000cdc .L109
     /tmp/ccdjN2FA.s:2063   .text:0000000000000ca4 .L110
     /tmp/ccdjN2FA.s:2094   .text:0000000000000cec .L108
     /tmp/ccdjN2FA.s:2188   .text:0000000000000d78 .L117
     /tmp/ccdjN2FA.s:2172   .text:0000000000000d60 .L113
     /tmp/ccdjN2FA.s:2149   .text:0000000000000d38 .L115
     /tmp/ccdjN2FA.s:5396   .debug_abbrev:0000000000000000 .Ldebug_abbrev0
     /tmp/ccdjN2FA.s:7753   .debug_str:0000000000000f57 .LASF289
     /tmp/ccdjN2FA.s:7529   .debug_str:000000000000081e .LASF290
     /tmp/ccdjN2FA.s:7447   .debug_str:0000000000000548 .LASF291
     /tmp/ccdjN2FA.s:5      .text:0000000000000000 .Ltext0
     /tmp/ccdjN2FA.s:2258   .text:0000000000000de4 .Letext0
     /tmp/ccdjN2FA.s:7273   .debug_line:0000000000000000 .Ldebug_line0
     /tmp/ccdjN2FA.s:7481   .debug_str:0000000000000697 .LASF0
     /tmp/ccdjN2FA.s:7511   .debug_str:00000000000007a0 .LASF1
     /tmp/ccdjN2FA.s:7665   .debug_str:0000000000000ca7 .LASF2
     /tmp/ccdjN2FA.s:7417   .debug_str:0000000000000489 .LASF3
     /tmp/ccdjN2FA.s:7681   .debug_str:0000000000000d26 .LASF4
     /tmp/ccdjN2FA.s:7493   .debug_str:00000000000006e7 .LASF5
     /tmp/ccdjN2FA.s:7293   .debug_str:00000000000000ab .LASF6
     /tmp/ccdjN2FA.s:7613   .debug_str:0000000000000ad8 .LASF7
     /tmp/ccdjN2FA.s:7503   .debug_str:0000000000000751 .LASF8
     /tmp/ccdjN2FA.s:7443   .debug_str:000000000000052e .LASF9
     /tmp/ccdjN2FA.s:7455   .debug_str:0000000000000599 .LASF10
     /tmp/ccdjN2FA.s:7351   .debug_str:00000000000002d5 .LASF11
     /tmp/ccdjN2FA.s:7433   .debug_str:00000000000004f0 .LASF12
     /tmp/ccdjN2FA.s:7369   .debug_str:0000000000000331 .LASF13
     /tmp/ccdjN2FA.s:7349   .debug_str:00000000000002c5 .LASF14
     /tmp/ccdjN2FA.s:7725   .debug_str:0000000000000ec1 .LASF15
     /tmp/ccdjN2FA.s:7407   .debug_str:0000000000000440 .LASF16
     /tmp/ccdjN2FA.s:7713   .debug_str:0000000000000e30 .LASF17
     /tmp/ccdjN2FA.s:7429   .debug_str:00000000000004d2 .LASF18
     /tmp/ccdjN2FA.s:7427   .debug_str:00000000000004c5 .LASF30
     /tmp/ccdjN2FA.s:7445   .debug_str:000000000000053e .LASF19
     /tmp/ccdjN2FA.s:7353   .debug_str:00000000000002e4 .LASF20
     /tmp/ccdjN2FA.s:7313   .debug_str:0000000000000175 .LASF21
     /tmp/ccdjN2FA.s:7425   .debug_str:00000000000004b9 .LASF22
     /tmp/ccdjN2FA.s:7567   .debug_str:0000000000000969 .LASF23
GAS LISTING /tmp/ccdjN2FA.s 			page 73


     /tmp/ccdjN2FA.s:7449   .debug_str:0000000000000566 .LASF24
     /tmp/ccdjN2FA.s:7705   .debug_str:0000000000000dfb .LASF25
     /tmp/ccdjN2FA.s:7811   .debug_str:0000000000001222 .LASF26
     /tmp/ccdjN2FA.s:7543   .debug_str:0000000000000899 .LASF27
     /tmp/ccdjN2FA.s:7479   .debug_str:0000000000000692 .LASF28
     /tmp/ccdjN2FA.s:7739   .debug_str:0000000000000f01 .LASF29
     /tmp/ccdjN2FA.s:7617   .debug_str:0000000000000af3 .LASF31
     /tmp/ccdjN2FA.s:7649   .debug_str:0000000000000c1b .LASF32
     /tmp/ccdjN2FA.s:7735   .debug_str:0000000000000ef5 .LASF33
     /tmp/ccdjN2FA.s:7525   .debug_str:00000000000007fd .LASF34
     /tmp/ccdjN2FA.s:7541   .debug_str:000000000000088a .LASF35
     /tmp/ccdjN2FA.s:7549   .debug_str:00000000000008b2 .LASF36
     /tmp/ccdjN2FA.s:7751   .debug_str:0000000000000f4d .LASF37
     /tmp/ccdjN2FA.s:7789   .debug_str:0000000000001179 .LASF38
     /tmp/ccdjN2FA.s:7515   .debug_str:00000000000007be .LASF39
     /tmp/ccdjN2FA.s:7421   .debug_str:000000000000049d .LASF40
     /tmp/ccdjN2FA.s:7743   .debug_str:0000000000000f11 .LASF292
     /tmp/ccdjN2FA.s:7737   .debug_str:0000000000000efb .LASF41
     /tmp/ccdjN2FA.s:7699   .debug_str:0000000000000dba .LASF42
     /tmp/ccdjN2FA.s:7361   .debug_str:0000000000000307 .LASF43
     /tmp/ccdjN2FA.s:7329   .debug_str:00000000000001ec .LASF44
     /tmp/ccdjN2FA.s:7615   .debug_str:0000000000000aeb .LASF45
     /tmp/ccdjN2FA.s:7359   .debug_str:00000000000002fe .LASF46
     /tmp/ccdjN2FA.s:7733   .debug_str:0000000000000eed .LASF47
     /tmp/ccdjN2FA.s:7473   .debug_str:0000000000000661 .LASF48
     /tmp/ccdjN2FA.s:7295   .debug_str:00000000000000b2 .LASF54
     /tmp/ccdjN2FA.s:7777   .debug_str:00000000000010f5 .LASF293
     /tmp/ccdjN2FA.s:7599   .debug_str:0000000000000a7b .LASF49
     /tmp/ccdjN2FA.s:7509   .debug_str:000000000000079b .LASF50
     /tmp/ccdjN2FA.s:7845   .debug_str:000000000000132b .LASF52
     /tmp/ccdjN2FA.s:7841   .debug_str:000000000000130f .LASF51
     /tmp/ccdjN2FA.s:7759   .debug_str:0000000000001034 .LASF53
     /tmp/ccdjN2FA.s:7393   .debug_str:00000000000003fb .LASF77
     /tmp/ccdjN2FA.s:7307   .debug_str:000000000000012b .LASF79
     /tmp/ccdjN2FA.s:7749   .debug_str:0000000000000f45 .LASF55
     /tmp/ccdjN2FA.s:7689   .debug_str:0000000000000d65 .LASF56
     /tmp/ccdjN2FA.s:7519   .debug_str:00000000000007d3 .LASF59
     /tmp/ccdjN2FA.s:7533   .debug_str:0000000000000839 .LASF61
     /tmp/ccdjN2FA.s:7851   .debug_str:0000000000001370 .LASF57
     /tmp/ccdjN2FA.s:7413   .debug_str:0000000000000470 .LASF58
     /tmp/ccdjN2FA.s:7287   .debug_str:000000000000007d .LASF103
     /tmp/ccdjN2FA.s:7489   .debug_str:00000000000006c8 .LASF105
     /tmp/ccdjN2FA.s:7691   .debug_str:0000000000000d76 .LASF60
     /tmp/ccdjN2FA.s:7571   .debug_str:000000000000097a .LASF62
     /tmp/ccdjN2FA.s:7675   .debug_str:0000000000000cec .LASF63
     /tmp/ccdjN2FA.s:7721   .debug_str:0000000000000e83 .LASF64
     /tmp/ccdjN2FA.s:7573   .debug_str:000000000000098d .LASF65
     /tmp/ccdjN2FA.s:7281   .debug_str:000000000000003f .LASF66
     /tmp/ccdjN2FA.s:7831   .debug_str:00000000000012cb .LASF67
     /tmp/ccdjN2FA.s:7611   .debug_str:0000000000000abe .LASF68
     /tmp/ccdjN2FA.s:7711   .debug_str:0000000000000e22 .LASF69
     /tmp/ccdjN2FA.s:7629   .debug_str:0000000000000b4d .LASF70
     /tmp/ccdjN2FA.s:7387   .debug_str:00000000000003d9 .LASF71
     /tmp/ccdjN2FA.s:7435   .debug_str:00000000000004ff .LASF72
     /tmp/ccdjN2FA.s:7657   .debug_str:0000000000000c6e .LASF73
     /tmp/ccdjN2FA.s:7833   .debug_str:00000000000012da .LASF74
     /tmp/ccdjN2FA.s:7835   .debug_str:00000000000012e9 .LASF75
GAS LISTING /tmp/ccdjN2FA.s 			page 74


     /tmp/ccdjN2FA.s:7495   .debug_str:00000000000006f9 .LASF76
     /tmp/ccdjN2FA.s:7707   .debug_str:0000000000000e05 .LASF78
     /tmp/ccdjN2FA.s:7843   .debug_str:0000000000001315 .LASF80
     /tmp/ccdjN2FA.s:7459   .debug_str:00000000000005d0 .LASF81
     /tmp/ccdjN2FA.s:7381   .debug_str:00000000000003a9 .LASF82
     /tmp/ccdjN2FA.s:7687   .debug_str:0000000000000d5d .LASF83
     /tmp/ccdjN2FA.s:7483   .debug_str:00000000000006a4 .LASF84
     /tmp/ccdjN2FA.s:7581   .debug_str:00000000000009c7 .LASF85
     /tmp/ccdjN2FA.s:7375   .debug_str:0000000000000381 .LASF86
     /tmp/ccdjN2FA.s:7637   .debug_str:0000000000000b9f .LASF87
     /tmp/ccdjN2FA.s:7861   .debug_str:00000000000013d2 .LASF88
     /tmp/ccdjN2FA.s:7587   .debug_str:0000000000000a10 .LASF89
     /tmp/ccdjN2FA.s:7673   .debug_str:0000000000000cd9 .LASF90
     /tmp/ccdjN2FA.s:7693   .debug_str:0000000000000d7f .LASF91
     /tmp/ccdjN2FA.s:7799   .debug_str:00000000000011bb .LASF92
     /tmp/ccdjN2FA.s:7557   .debug_str:0000000000000913 .LASF93
     /tmp/ccdjN2FA.s:7781   .debug_str:0000000000001137 .LASF94
     /tmp/ccdjN2FA.s:7719   .debug_str:0000000000000e63 .LASF95
     /tmp/ccdjN2FA.s:7605   .debug_str:0000000000000a92 .LASF96
     /tmp/ccdjN2FA.s:7589   .debug_str:0000000000000a31 .LASF97
     /tmp/ccdjN2FA.s:7401   .debug_str:000000000000041e .LASF98
     /tmp/ccdjN2FA.s:7485   .debug_str:00000000000006b8 .LASF99
     /tmp/ccdjN2FA.s:7561   .debug_str:0000000000000950 .LASF100
     /tmp/ccdjN2FA.s:7761   .debug_str:0000000000001044 .LASF101
     /tmp/ccdjN2FA.s:7439   .debug_str:0000000000000515 .LASF102
     /tmp/ccdjN2FA.s:7839   .debug_str:0000000000001301 .LASF104
     /tmp/ccdjN2FA.s:7315   .debug_str:000000000000017a .LASF106
     /tmp/ccdjN2FA.s:7423   .debug_str:00000000000004a4 .LASF107
     /tmp/ccdjN2FA.s:7343   .debug_str:0000000000000286 .LASF108
     /tmp/ccdjN2FA.s:7829   .debug_str:00000000000012c4 .LASF109
     /tmp/ccdjN2FA.s:7339   .debug_str:0000000000000250 .LASF110
     /tmp/ccdjN2FA.s:7285   .debug_str:0000000000000078 .LASF111
     /tmp/ccdjN2FA.s:7795   .debug_str:00000000000011aa .LASF112
     /tmp/ccdjN2FA.s:7539   .debug_str:0000000000000882 .LASF113
     /tmp/ccdjN2FA.s:7399   .debug_str:0000000000000418 .LASF114
     /tmp/ccdjN2FA.s:7775   .debug_str:00000000000010ed .LASF115
     /tmp/ccdjN2FA.s:7327   .debug_str:00000000000001db .LASF116
     /tmp/ccdjN2FA.s:7545   .debug_str:000000000000089e .LASF117
     /tmp/ccdjN2FA.s:7645   .debug_str:0000000000000beb .LASF118
     /tmp/ccdjN2FA.s:7451   .debug_str:0000000000000574 .LASF119
     /tmp/ccdjN2FA.s:7669   .debug_str:0000000000000cc1 .LASF120
     /tmp/ccdjN2FA.s:7643   .debug_str:0000000000000bd7 .LASF121
     /tmp/ccdjN2FA.s:7395   .debug_str:0000000000000404 .LASF122
     /tmp/ccdjN2FA.s:7703   .debug_str:0000000000000de4 .LASF123
     /tmp/ccdjN2FA.s:7729   .debug_str:0000000000000ee0 .LASF124
     /tmp/ccdjN2FA.s:7577   .debug_str:00000000000009a5 .LASF125
     /tmp/ccdjN2FA.s:7277   .debug_str:000000000000000f .LASF126
     /tmp/ccdjN2FA.s:7671   .debug_str:0000000000000ccd .LASF127
     /tmp/ccdjN2FA.s:7551   .debug_str:00000000000008be .LASF128
     /tmp/ccdjN2FA.s:7663   .debug_str:0000000000000c92 .LASF129
     /tmp/ccdjN2FA.s:7355   .debug_str:00000000000002e9 .LASF130
     /tmp/ccdjN2FA.s:7363   .debug_str:0000000000000311 .LASF131
     /tmp/ccdjN2FA.s:7575   .debug_str:000000000000099c .LASF132
     /tmp/ccdjN2FA.s:7679   .debug_str:0000000000000d1b .LASF133
     /tmp/ccdjN2FA.s:7275   .debug_str:0000000000000000 .LASF134
     /tmp/ccdjN2FA.s:7467   .debug_str:000000000000061e .LASF135
     /tmp/ccdjN2FA.s:7773   .debug_str:00000000000010de .LASF136
GAS LISTING /tmp/ccdjN2FA.s 			page 75


     /tmp/ccdjN2FA.s:7723   .debug_str:0000000000000e9f .LASF137
     /tmp/ccdjN2FA.s:7695   .debug_str:0000000000000d9d .LASF138
     /tmp/ccdjN2FA.s:7373   .debug_str:000000000000035d .LASF139
     /tmp/ccdjN2FA.s:7597   .debug_str:0000000000000a6b .LASF140
     /tmp/ccdjN2FA.s:7633   .debug_str:0000000000000b6b .LASF141
     /tmp/ccdjN2FA.s:7595   .debug_str:0000000000000a65 .LASF142
     /tmp/ccdjN2FA.s:7855   .debug_str:00000000000013a3 .LASF143
     /tmp/ccdjN2FA.s:7289   .debug_str:000000000000008d .LASF144
     /tmp/ccdjN2FA.s:7537   .debug_str:0000000000000868 .LASF145
     /tmp/ccdjN2FA.s:7849   .debug_str:0000000000001360 .LASF146
     /tmp/ccdjN2FA.s:7683   .debug_str:0000000000000d2d .LASF147
     /tmp/ccdjN2FA.s:7727   .debug_str:0000000000000ecd .LASF148
     /tmp/ccdjN2FA.s:7677   .debug_str:0000000000000cf5 .LASF149
     /tmp/ccdjN2FA.s:7857   .debug_str:00000000000013bb .LASF150
     /tmp/ccdjN2FA.s:7507   .debug_str:0000000000000777 .LASF151
     /tmp/ccdjN2FA.s:7579   .debug_str:00000000000009be .LASF152
     /tmp/ccdjN2FA.s:7325   .debug_str:00000000000001cb .LASF153
     /tmp/ccdjN2FA.s:7767   .debug_str:0000000000001083 .LASF154
     /tmp/ccdjN2FA.s:7685   .debug_str:0000000000000d50 .LASF155
     /tmp/ccdjN2FA.s:7283   .debug_str:0000000000000059 .LASF156
     /tmp/ccdjN2FA.s:7607   .debug_str:0000000000000aa6 .LASF157
     /tmp/ccdjN2FA.s:7471   .debug_str:000000000000064d .LASF158
     /tmp/ccdjN2FA.s:7601   .debug_str:0000000000000a80 .LASF159
     /tmp/ccdjN2FA.s:7513   .debug_str:00000000000007b3 .LASF160
     /tmp/ccdjN2FA.s:7627   .debug_str:0000000000000b43 .LASF161
     /tmp/ccdjN2FA.s:7801   .debug_str:00000000000011ce .LASF162
     /tmp/ccdjN2FA.s:7741   .debug_str:0000000000000f06 .LASF163
     /tmp/ccdjN2FA.s:7797   .debug_str:00000000000011af .LASF164
     /tmp/ccdjN2FA.s:7809   .debug_str:0000000000001215 .LASF165
     /tmp/ccdjN2FA.s:7565   .debug_str:000000000000095d .LASF166
     /tmp/ccdjN2FA.s:7625   .debug_str:0000000000000b37 .LASF167
     /tmp/ccdjN2FA.s:7709   .debug_str:0000000000000e10 .LASF170
     /tmp/ccdjN2FA.s:7701   .debug_str:0000000000000dc2 .LASF172
     /tmp/ccdjN2FA.s:7787   .debug_str:0000000000001167 .LASF168
     /tmp/ccdjN2FA.s:7827   .debug_str:00000000000012a2 .LASF169
     /tmp/ccdjN2FA.s:7785   .debug_str:0000000000001155 .LASF171
     /tmp/ccdjN2FA.s:7299   .debug_str:00000000000000dd .LASF173
     /tmp/ccdjN2FA.s:7505   .debug_str:0000000000000764 .LASF174
     /tmp/ccdjN2FA.s:7337   .debug_str:000000000000022d .LASF175
     /tmp/ccdjN2FA.s:7405   .debug_str:000000000000042d .LASF176
     /tmp/ccdjN2FA.s:7331   .debug_str:00000000000001f5 .LASF177
     /tmp/ccdjN2FA.s:7309   .debug_str:000000000000013e .LASF178
     /tmp/ccdjN2FA.s:7807   .debug_str:0000000000001206 .LASF179
     /tmp/ccdjN2FA.s:7559   .debug_str:0000000000000931 .LASF180
     /tmp/ccdjN2FA.s:7825   .debug_str:0000000000001289 .LASF181
     /tmp/ccdjN2FA.s:7497   .debug_str:0000000000000706 .LASF182
     /tmp/ccdjN2FA.s:7523   .debug_str:00000000000007e5 .LASF183
     /tmp/ccdjN2FA.s:7847   .debug_str:0000000000001337 .LASF184
     /tmp/ccdjN2FA.s:7431   .debug_str:00000000000004df .LASF185
     /tmp/ccdjN2FA.s:7817   .debug_str:0000000000001251 .LASF186
     /tmp/ccdjN2FA.s:7441   .debug_str:0000000000000521 .LASF187
     /tmp/ccdjN2FA.s:7837   .debug_str:00000000000012f4 .LASF188
     /tmp/ccdjN2FA.s:7463   .debug_str:00000000000005fc .LASF189
     /tmp/ccdjN2FA.s:7301   .debug_str:00000000000000ff .LASF190
     /tmp/ccdjN2FA.s:7527   .debug_str:0000000000000802 .LASF191
     /tmp/ccdjN2FA.s:7593   .debug_str:0000000000000a59 .LASF192
     /tmp/ccdjN2FA.s:7311   .debug_str:0000000000000159 .LASF193
GAS LISTING /tmp/ccdjN2FA.s 			page 76


     /tmp/ccdjN2FA.s:7755   .debug_str:000000000000101b .LASF194
     /tmp/ccdjN2FA.s:7731   .debug_str:0000000000000ee7 .LASF195
     /tmp/ccdjN2FA.s:7661   .debug_str:0000000000000c85 .LASF196
     /tmp/ccdjN2FA.s:7291   .debug_str:0000000000000095 .LASF197
     /tmp/ccdjN2FA.s:7639   .debug_str:0000000000000bbc .LASF198
     /tmp/ccdjN2FA.s:7585   .debug_str:0000000000000a06 .LASF199
     /tmp/ccdjN2FA.s:7409   .debug_str:0000000000000456 .LASF200
     /tmp/ccdjN2FA.s:7499   .debug_str:000000000000072f .LASF201
     /tmp/ccdjN2FA.s:7569   .debug_str:0000000000000974 .LASF202
     /tmp/ccdjN2FA.s:7805   .debug_str:00000000000011fc .LASF203
     /tmp/ccdjN2FA.s:7641   .debug_str:0000000000000bc9 .LASF204
     /tmp/ccdjN2FA.s:7623   .debug_str:0000000000000b29 .LASF205
     /tmp/ccdjN2FA.s:7501   .debug_str:0000000000000740 .LASF206
     /tmp/ccdjN2FA.s:7819   .debug_str:0000000000001263 .LASF207
     /tmp/ccdjN2FA.s:7411   .debug_str:000000000000045d .LASF208
     /tmp/ccdjN2FA.s:7853   .debug_str:000000000000137d .LASF210
     /tmp/ccdjN2FA.s:2197   .text:0000000000000d7c .LFB29
     /tmp/ccdjN2FA.s:2248   .text:0000000000000de4 .LFE29
     /tmp/ccdjN2FA.s:7475   .debug_str:0000000000000667 .LASF212
     /tmp/ccdjN2FA.s:6362   .debug_loc:0000000000000000 .LLST57
     /tmp/ccdjN2FA.s:2217   .text:0000000000000da0 .LVL213
     /tmp/ccdjN2FA.s:2222   .text:0000000000000dac .LVL214
     /tmp/ccdjN2FA.s:2227   .text:0000000000000db8 .LVL215
     /tmp/ccdjN2FA.s:2234   .text:0000000000000dd0 .LVL216
     /tmp/ccdjN2FA.s:7757   .debug_str:0000000000001022 .LASF209
     /tmp/ccdjN2FA.s:7747   .debug_str:0000000000000f27 .LASF211
     /tmp/ccdjN2FA.s:2117   .text:0000000000000d04 .LFB28
     /tmp/ccdjN2FA.s:2191   .text:0000000000000d7c .LFE28
     /tmp/ccdjN2FA.s:7609   .debug_str:0000000000000ab9 .LASF213
     /tmp/ccdjN2FA.s:6380   .debug_loc:000000000000004c .LLST54
     /tmp/ccdjN2FA.s:6403   .debug_loc:00000000000000bb .LLST55
     /tmp/ccdjN2FA.s:2153   .text:0000000000000d3c .LBB25
     /tmp/ccdjN2FA.s:2168   .text:0000000000000d5c .LBE25
     /tmp/ccdjN2FA.s:7783   .debug_str:000000000000114c .LASF214
     /tmp/ccdjN2FA.s:6410   .debug_loc:00000000000000de .LLST56
     /tmp/ccdjN2FA.s:2164   .text:0000000000000d58 .LVL207
     /tmp/ccdjN2FA.s:7437   .debug_str:000000000000050f .LASF215
     /tmp/ccdjN2FA.s:7517   .debug_str:00000000000007c7 .LASF216
     /tmp/ccdjN2FA.s:2036   .text:0000000000000c80 .LFB27
     /tmp/ccdjN2FA.s:2111   .text:0000000000000d04 .LFE27
     /tmp/ccdjN2FA.s:7531   .debug_str:0000000000000834 .LASF217
     /tmp/ccdjN2FA.s:6417   .debug_loc:0000000000000101 .LLST51
     /tmp/ccdjN2FA.s:6435   .debug_loc:000000000000014d .LLST52
     /tmp/ccdjN2FA.s:7241   .debug_ranges:0000000000000000 .Ldebug_ranges0
     /tmp/ccdjN2FA.s:6451   .debug_loc:0000000000000197 .LLST53
     /tmp/ccdjN2FA.s:2078   .text:0000000000000cd0 .LVL199
     /tmp/ccdjN2FA.s:2093   .text:0000000000000cec .LVL201
     /tmp/ccdjN2FA.s:7821   .debug_str:0000000000001271 .LASF225
     /tmp/ccdjN2FA.s:7667   .debug_str:0000000000000cb5 .LASF227
     /tmp/ccdjN2FA.s:1954   .text:0000000000000be8 .LFB26
     /tmp/ccdjN2FA.s:2030   .text:0000000000000c80 .LFE26
     /tmp/ccdjN2FA.s:7379   .debug_str:00000000000003a4 .LASF218
     /tmp/ccdjN2FA.s:6463   .debug_loc:00000000000001ce .LLST48
     /tmp/ccdjN2FA.s:7403   .debug_str:0000000000000427 .LASF219
     /tmp/ccdjN2FA.s:6477   .debug_loc:0000000000000207 .LLST49
     /tmp/ccdjN2FA.s:7323   .debug_str:00000000000001c5 .LASF220
     /tmp/ccdjN2FA.s:6508   .debug_loc:000000000000027e .LLST50
GAS LISTING /tmp/ccdjN2FA.s 			page 77


     /tmp/ccdjN2FA.s:1973   .text:0000000000000c08 .LVL186
     /tmp/ccdjN2FA.s:2000   .text:0000000000000c48 .LVL192
     /tmp/ccdjN2FA.s:2022   .text:0000000000000c6c .LVL194
     /tmp/ccdjN2FA.s:7745   .debug_str:0000000000000f17 .LASF221
     /tmp/ccdjN2FA.s:7651   .debug_str:0000000000000c26 .LASF222
     /tmp/ccdjN2FA.s:1621   .text:0000000000000930 .LFB25
     /tmp/ccdjN2FA.s:1789   .text:0000000000000a9c .LFE25
     /tmp/ccdjN2FA.s:6525   .debug_loc:00000000000002c9 .LLST45
     /tmp/ccdjN2FA.s:6543   .debug_loc:0000000000000315 .LLST46
     /tmp/ccdjN2FA.s:1643   .text:000000000000095c .LVL143
     /tmp/ccdjN2FA.s:1648   .text:000000000000096c .LVL144
     /tmp/ccdjN2FA.s:1653   .text:0000000000000978 .LVL145
     /tmp/ccdjN2FA.s:1658   .text:0000000000000988 .LVL146
     /tmp/ccdjN2FA.s:1663   .text:0000000000000998 .LVL147
     /tmp/ccdjN2FA.s:1670   .text:00000000000009ac .LVL148
     /tmp/ccdjN2FA.s:1675   .text:00000000000009bc .LVL149
     /tmp/ccdjN2FA.s:1680   .text:00000000000009cc .LVL150
     /tmp/ccdjN2FA.s:1687   .text:00000000000009e0 .LVL151
     /tmp/ccdjN2FA.s:1692   .text:00000000000009f0 .LVL152
     /tmp/ccdjN2FA.s:1697   .text:0000000000000a00 .LVL153
     /tmp/ccdjN2FA.s:1702   .text:0000000000000a10 .LVL154
     /tmp/ccdjN2FA.s:1715   .text:0000000000000a24 .LVL156
     /tmp/ccdjN2FA.s:1727   .text:0000000000000a3c .LVL158
     /tmp/ccdjN2FA.s:1740   .text:0000000000000a50 .LVL160
     /tmp/ccdjN2FA.s:1752   .text:0000000000000a68 .LVL162
     /tmp/ccdjN2FA.s:1765   .text:0000000000000a7c .LVL164
     /tmp/ccdjN2FA.s:7335   .debug_str:000000000000021d .LASF223
     /tmp/ccdjN2FA.s:7647   .debug_str:0000000000000bf6 .LASF224
     /tmp/ccdjN2FA.s:1519   .text:0000000000000898 .LFB24
     /tmp/ccdjN2FA.s:1589   .text:0000000000000930 .LFE24
     /tmp/ccdjN2FA.s:6550   .debug_loc:0000000000000338 .LLST42
     /tmp/ccdjN2FA.s:6564   .debug_loc:0000000000000371 .LLST43
     /tmp/ccdjN2FA.s:6582   .debug_loc:00000000000003bd .LLST44
     /tmp/ccdjN2FA.s:1539   .text:00000000000008bc .LVL132
     /tmp/ccdjN2FA.s:1546   .text:00000000000008d0 .LVL134
     /tmp/ccdjN2FA.s:1553   .text:00000000000008e4 .LVL135
     /tmp/ccdjN2FA.s:1560   .text:00000000000008f8 .LVL136
     /tmp/ccdjN2FA.s:1565   .text:0000000000000908 .LVL137
     /tmp/ccdjN2FA.s:1571   .text:0000000000000918 .LVL138
     /tmp/ccdjN2FA.s:7377   .debug_str:0000000000000393 .LASF226
     /tmp/ccdjN2FA.s:7477   .debug_str:000000000000066e .LASF228
     /tmp/ccdjN2FA.s:1252   .text:0000000000000700 .LFB23
     /tmp/ccdjN2FA.s:1401   .text:00000000000007e4 .LFE23
     /tmp/ccdjN2FA.s:6589   .debug_loc:00000000000003e0 .LLST33
     /tmp/ccdjN2FA.s:7419   .debug_str:000000000000048f .LASF229
     /tmp/ccdjN2FA.s:6611   .debug_loc:000000000000043f .LLST36
     /tmp/ccdjN2FA.s:1315   .text:0000000000000760 .LVL105
     /tmp/ccdjN2FA.s:1323   .text:0000000000000770 .LVL108
     /tmp/ccdjN2FA.s:1355   .text:000000000000079c .LVL112
     /tmp/ccdjN2FA.s:1284   .text:000000000000072c .LBB15
     /tmp/ccdjN2FA.s:1309   .text:0000000000000758 .LBE15
     /tmp/ccdjN2FA.s:6626   .debug_loc:0000000000000488 .LLST34
     /tmp/ccdjN2FA.s:1288   .text:0000000000000734 .LVL99
     /tmp/ccdjN2FA.s:1296   .text:0000000000000744 .LVL102
     /tmp/ccdjN2FA.s:1303   .text:0000000000000754 .LVL103
     /tmp/ccdjN2FA.s:1363   .text:00000000000007a0 .LBB16
     /tmp/ccdjN2FA.s:1397   .text:00000000000007e4 .LBE16
GAS LISTING /tmp/ccdjN2FA.s 			page 78


     /tmp/ccdjN2FA.s:6637   .debug_loc:00000000000004be .LLST35
     /tmp/ccdjN2FA.s:1368   .text:00000000000007ac .LVL114
     /tmp/ccdjN2FA.s:1378   .text:00000000000007c0 .LVL115
     /tmp/ccdjN2FA.s:1386   .text:00000000000007d0 .LVL118
     /tmp/ccdjN2FA.s:1393   .text:00000000000007e0 .LVL119
     /tmp/ccdjN2FA.s:7655   .debug_str:0000000000000c5c .LASF230
     /tmp/ccdjN2FA.s:7803   .debug_str:00000000000011d9 .LASF231
     /tmp/ccdjN2FA.s:1407   .text:00000000000007e4 .LFB22
     /tmp/ccdjN2FA.s:1505   .text:0000000000000898 .LFE22
     /tmp/ccdjN2FA.s:7521   .debug_str:00000000000007e0 .LASF232
     /tmp/ccdjN2FA.s:6648   .debug_loc:00000000000004f4 .LLST37
     /tmp/ccdjN2FA.s:6666   .debug_loc:0000000000000540 .LLST38
     /tmp/ccdjN2FA.s:6684   .debug_loc:000000000000058c .LLST39
     /tmp/ccdjN2FA.s:6702   .debug_loc:00000000000005d8 .LLST40
     /tmp/ccdjN2FA.s:7715   .debug_str:0000000000000e46 .LASF233
     /tmp/ccdjN2FA.s:6720   .debug_loc:0000000000000624 .LLST41
     /tmp/ccdjN2FA.s:1439   .text:000000000000082c .LVL122
     /tmp/ccdjN2FA.s:1467   .text:000000000000085c .LVL124
     /tmp/ccdjN2FA.s:1475   .text:000000000000086c .LVL125
     /tmp/ccdjN2FA.s:7659   .debug_str:0000000000000c7b .LASF234
     /tmp/ccdjN2FA.s:7823   .debug_str:0000000000001279 .LASF235
     /tmp/ccdjN2FA.s:1214   .text:00000000000006c8 .LFB21
     /tmp/ccdjN2FA.s:1246   .text:0000000000000700 .LFE21
     /tmp/ccdjN2FA.s:7321   .debug_str:00000000000001bf .LASF236
     /tmp/ccdjN2FA.s:6731   .debug_loc:000000000000065a .LLST30
     /tmp/ccdjN2FA.s:7859   .debug_str:00000000000013c8 .LASF237
     /tmp/ccdjN2FA.s:6745   .debug_loc:0000000000000693 .LLST31
     /tmp/ccdjN2FA.s:6759   .debug_loc:00000000000006cc .LLST32
     /tmp/ccdjN2FA.s:1229   .text:00000000000006e0 .LVL95
     /tmp/ccdjN2FA.s:1233   .text:00000000000006e8 .LVL96
     /tmp/ccdjN2FA.s:7535   .debug_str:0000000000000851 .LASF238
     /tmp/ccdjN2FA.s:7371   .debug_str:0000000000000341 .LASF239
     /tmp/ccdjN2FA.s:1815   .text:0000000000000a9c .LFB20
     /tmp/ccdjN2FA.s:1948   .text:0000000000000be8 .LFE20
     /tmp/ccdjN2FA.s:1905   .text:0000000000000b98 .LBB22
     /tmp/ccdjN2FA.s:1934   .text:0000000000000bd4 .LBE22
     /tmp/ccdjN2FA.s:6766   .debug_loc:00000000000006ef .LLST47
     /tmp/ccdjN2FA.s:1914   .text:0000000000000ba8 .LVL182
     /tmp/ccdjN2FA.s:1832   .text:0000000000000ac0 .LVL168
     /tmp/ccdjN2FA.s:1837   .text:0000000000000ad0 .LVL169
     /tmp/ccdjN2FA.s:1847   .text:0000000000000af0 .LVL170
     /tmp/ccdjN2FA.s:1852   .text:0000000000000b00 .LVL171
     /tmp/ccdjN2FA.s:1857   .text:0000000000000b10 .LVL172
     /tmp/ccdjN2FA.s:1864   .text:0000000000000b24 .LVL173
     /tmp/ccdjN2FA.s:1869   .text:0000000000000b34 .LVL174
     /tmp/ccdjN2FA.s:1874   .text:0000000000000b44 .LVL175
     /tmp/ccdjN2FA.s:1881   .text:0000000000000b58 .LVL176
     /tmp/ccdjN2FA.s:1886   .text:0000000000000b68 .LVL177
     /tmp/ccdjN2FA.s:1891   .text:0000000000000b78 .LVL178
     /tmp/ccdjN2FA.s:1898   .text:0000000000000b88 .LVL179
     /tmp/ccdjN2FA.s:1903   .text:0000000000000b98 .LVL180
     /tmp/ccdjN2FA.s:7465   .debug_str:000000000000060d .LASF240
     /tmp/ccdjN2FA.s:7583   .debug_str:00000000000009e6 .LASF241
     /tmp/ccdjN2FA.s:1091   .text:00000000000005dc .LFB19
     /tmp/ccdjN2FA.s:1208   .text:00000000000006c8 .LFE19
     /tmp/ccdjN2FA.s:6778   .debug_loc:0000000000000726 .LLST27
     /tmp/ccdjN2FA.s:6800   .debug_loc:0000000000000785 .LLST28
GAS LISTING /tmp/ccdjN2FA.s 			page 79


     /tmp/ccdjN2FA.s:7813   .debug_str:000000000000122b .LASF242
     /tmp/ccdjN2FA.s:6825   .debug_loc:00000000000007e7 .LLST29
     /tmp/ccdjN2FA.s:1154   .text:0000000000000648 .LVL88
     /tmp/ccdjN2FA.s:1161   .text:000000000000065c .LVL89
     /tmp/ccdjN2FA.s:1166   .text:000000000000066c .LVL90
     /tmp/ccdjN2FA.s:1172   .text:000000000000067c .LVL91
     /tmp/ccdjN2FA.s:1197   .text:00000000000006b0 .LVL92
     /tmp/ccdjN2FA.s:1205   .text:00000000000006c4 .LVL93
     /tmp/ccdjN2FA.s:7305   .debug_str:000000000000011d .LASF243
     /tmp/ccdjN2FA.s:7791   .debug_str:0000000000001189 .LASF245
     /tmp/ccdjN2FA.s:995    .text:0000000000000504 .LFB18
     /tmp/ccdjN2FA.s:1080   .text:00000000000005dc .LFE18
     /tmp/ccdjN2FA.s:6836   .debug_loc:000000000000081d .LLST26
     /tmp/ccdjN2FA.s:1015   .text:000000000000052c .LVL71
     /tmp/ccdjN2FA.s:1020   .text:000000000000053c .LVL72
     /tmp/ccdjN2FA.s:1027   .text:0000000000000550 .LVL73
     /tmp/ccdjN2FA.s:1032   .text:0000000000000560 .LVL74
     /tmp/ccdjN2FA.s:1037   .text:0000000000000570 .LVL75
     /tmp/ccdjN2FA.s:1044   .text:0000000000000584 .LVL76
     /tmp/ccdjN2FA.s:1049   .text:0000000000000594 .LVL77
     /tmp/ccdjN2FA.s:1054   .text:00000000000005a4 .LVL78
     /tmp/ccdjN2FA.s:1061   .text:00000000000005b8 .LVL79
     /tmp/ccdjN2FA.s:1066   .text:00000000000005c8 .LVL80
     /tmp/ccdjN2FA.s:7631   .debug_str:0000000000000b59 .LASF244
     /tmp/ccdjN2FA.s:7555   .debug_str:00000000000008e6 .LASF246
     /tmp/ccdjN2FA.s:902    .text:00000000000004a0 .LFB17
     /tmp/ccdjN2FA.s:972    .text:0000000000000504 .LFE17
     /tmp/ccdjN2FA.s:7397   .debug_str:0000000000000409 .LASF247
     /tmp/ccdjN2FA.s:7779   .debug_str:000000000000110d .LASF248
     /tmp/ccdjN2FA.s:826    .text:000000000000043c .LFB16
     /tmp/ccdjN2FA.s:896    .text:00000000000004a0 .LFE16
     /tmp/ccdjN2FA.s:7717   .debug_str:0000000000000e4f .LASF249
     /tmp/ccdjN2FA.s:7461   .debug_str:00000000000005db .LASF250
     /tmp/ccdjN2FA.s:779    .text:00000000000003f0 .LFB15
     /tmp/ccdjN2FA.s:820    .text:000000000000043c .LFE15
     /tmp/ccdjN2FA.s:6854   .debug_loc:0000000000000869 .LLST24
     /tmp/ccdjN2FA.s:6868   .debug_loc:00000000000008a2 .LLST25
     /tmp/ccdjN2FA.s:7591   .debug_str:0000000000000a50 .LASF251
     /tmp/ccdjN2FA.s:7771   .debug_str:00000000000010c0 .LASF254
     /tmp/ccdjN2FA.s:674    .text:0000000000000370 .LFB14
     /tmp/ccdjN2FA.s:773    .text:00000000000003f0 .LFE14
     /tmp/ccdjN2FA.s:6882   .debug_loc:00000000000008db .LLST21
     /tmp/ccdjN2FA.s:7345   .debug_str:00000000000002b2 .LASF252
     /tmp/ccdjN2FA.s:6893   .debug_loc:0000000000000911 .LLST22
     /tmp/ccdjN2FA.s:6904   .debug_loc:0000000000000947 .LLST23
     /tmp/ccdjN2FA.s:7653   .debug_str:0000000000000c49 .LASF253
     /tmp/ccdjN2FA.s:7815   .debug_str:0000000000001239 .LASF255
     /tmp/ccdjN2FA.s:584    .text:0000000000000308 .LFB13
     /tmp/ccdjN2FA.s:668    .text:0000000000000370 .LFE13
     /tmp/ccdjN2FA.s:6915   .debug_loc:000000000000097d .LLST15
     /tmp/ccdjN2FA.s:7389   .debug_str:00000000000003e9 .LASF256
     /tmp/ccdjN2FA.s:6929   .debug_loc:00000000000009b6 .LLST16
     /tmp/ccdjN2FA.s:7415   .debug_str:000000000000047c .LASF257
     /tmp/ccdjN2FA.s:6946   .debug_loc:0000000000000a02 .LLST17
     /tmp/ccdjN2FA.s:620    .text:0000000000000330 .LBB7
     /tmp/ccdjN2FA.s:656    .text:0000000000000360 .LBE7
     /tmp/ccdjN2FA.s:6957   .debug_loc:0000000000000a38 .LLST18
GAS LISTING /tmp/ccdjN2FA.s 			page 80


     /tmp/ccdjN2FA.s:633    .text:0000000000000344 .LBB8
     /tmp/ccdjN2FA.s:655    .text:0000000000000360 .LBE8
     /tmp/ccdjN2FA.s:7619   .debug_str:0000000000000afe .LASF258
     /tmp/ccdjN2FA.s:6969   .debug_loc:0000000000000a6f .LLST19
     /tmp/ccdjN2FA.s:7391   .debug_str:00000000000003f2 .LASF259
     /tmp/ccdjN2FA.s:6980   .debug_loc:0000000000000aa5 .LLST20
     /tmp/ccdjN2FA.s:7469   .debug_str:0000000000000640 .LASF260
     /tmp/ccdjN2FA.s:7297   .debug_str:00000000000000bd .LASF261
     /tmp/ccdjN2FA.s:477    .text:000000000000026c .LFB12
     /tmp/ccdjN2FA.s:578    .text:0000000000000308 .LFE12
     /tmp/ccdjN2FA.s:6991   .debug_loc:0000000000000adb .LLST12
     /tmp/ccdjN2FA.s:7603   .debug_str:0000000000000a8a .LASF262
     /tmp/ccdjN2FA.s:7357   .debug_str:00000000000002f2 .LASF263
     /tmp/ccdjN2FA.s:7009   .debug_loc:0000000000000b27 .LLST13
     /tmp/ccdjN2FA.s:545    .text:00000000000002d8 .LBB6
     /tmp/ccdjN2FA.s:564    .text:00000000000002f4 .LBE6
     /tmp/ccdjN2FA.s:7034   .debug_loc:0000000000000b7b .LLST14
     /tmp/ccdjN2FA.s:499    .text:000000000000029c .LVL33
     /tmp/ccdjN2FA.s:7491   .debug_str:00000000000006d5 .LASF264
     /tmp/ccdjN2FA.s:7341   .debug_str:0000000000000261 .LASF265
     /tmp/ccdjN2FA.s:418    .text:0000000000000224 .LFB11
     /tmp/ccdjN2FA.s:471    .text:000000000000026c .LFE11
     /tmp/ccdjN2FA.s:7319   .debug_str:00000000000001ae .LASF266
     /tmp/ccdjN2FA.s:7279   .debug_str:000000000000001b .LASF267
     /tmp/ccdjN2FA.s:359    .text:00000000000001dc .LFB10
     /tmp/ccdjN2FA.s:412    .text:0000000000000224 .LFE10
     /tmp/ccdjN2FA.s:7365   .debug_str:000000000000031b .LASF268
     /tmp/ccdjN2FA.s:7453   .debug_str:0000000000000588 .LASF269
     /tmp/ccdjN2FA.s:330    .text:00000000000001bc .LFB9
     /tmp/ccdjN2FA.s:353    .text:00000000000001dc .LFE9
     /tmp/ccdjN2FA.s:7046   .debug_loc:0000000000000bb2 .LLST11
     /tmp/ccdjN2FA.s:7487   .debug_str:00000000000006c3 .LASF270
     /tmp/ccdjN2FA.s:7367   .debug_str:0000000000000321 .LASF271
     /tmp/ccdjN2FA.s:298    .text:0000000000000194 .LFB8
     /tmp/ccdjN2FA.s:324    .text:00000000000001bc .LFE8
     /tmp/ccdjN2FA.s:7060   .debug_loc:0000000000000beb .LLST10
     /tmp/ccdjN2FA.s:7547   .debug_str:00000000000008a3 .LASF272
     /tmp/ccdjN2FA.s:7769   .debug_str:00000000000010a5 .LASF273
     /tmp/ccdjN2FA.s:172    .text:00000000000000dc .LFB7
     /tmp/ccdjN2FA.s:292    .text:0000000000000194 .LFE7
     /tmp/ccdjN2FA.s:7074   .debug_loc:0000000000000c24 .LLST5
     /tmp/ccdjN2FA.s:7093   .debug_loc:0000000000000c80 .LLST6
     /tmp/ccdjN2FA.s:7333   .debug_str:0000000000000218 .LASF274
     /tmp/ccdjN2FA.s:7116   .debug_loc:0000000000000ce0 .LLST7
     /tmp/ccdjN2FA.s:187    .text:00000000000000ec .LBB3
     /tmp/ccdjN2FA.s:245    .text:0000000000000140 .LBE3
     /tmp/ccdjN2FA.s:7137   .debug_loc:0000000000000d3e .LLST8
     /tmp/ccdjN2FA.s:7563   .debug_str:0000000000000958 .LASF275
     /tmp/ccdjN2FA.s:7153   .debug_loc:0000000000000d88 .LLST9
     /tmp/ccdjN2FA.s:7553   .debug_str:00000000000008d2 .LASF276
     /tmp/ccdjN2FA.s:7457   .debug_str:00000000000005a7 .LASF277
     /tmp/ccdjN2FA.s:64     .text:0000000000000034 .LFB6
     /tmp/ccdjN2FA.s:166    .text:00000000000000dc .LFE6
     /tmp/ccdjN2FA.s:7160   .debug_loc:0000000000000dab .LLST2
     /tmp/ccdjN2FA.s:7763   .debug_str:000000000000104e .LASF278
     /tmp/ccdjN2FA.s:7183   .debug_loc:0000000000000e0d .LLST3
     /tmp/ccdjN2FA.s:93     .text:000000000000005c .LBB2
GAS LISTING /tmp/ccdjN2FA.s 			page 81


     /tmp/ccdjN2FA.s:112    .text:0000000000000080 .LBE2
     /tmp/ccdjN2FA.s:7194   .debug_loc:0000000000000e43 .LLST4
     /tmp/ccdjN2FA.s:118    .text:0000000000000094 .LVL8
     /tmp/ccdjN2FA.s:7793   .debug_str:00000000000011a3 .LASF279
     /tmp/ccdjN2FA.s:7385   .debug_str:00000000000003ca .LASF280
     /tmp/ccdjN2FA.s:10     .text:0000000000000000 .LFB5
     /tmp/ccdjN2FA.s:53     .text:0000000000000034 .LFE5
     /tmp/ccdjN2FA.s:7206   .debug_loc:0000000000000e7a .LLST0
     /tmp/ccdjN2FA.s:7217   .debug_loc:0000000000000eb0 .LLST1
     /tmp/ccdjN2FA.s:7621   .debug_str:0000000000000b06 .LASF281
     /tmp/ccdjN2FA.s:7383   .debug_str:00000000000003bf .LASF283
     /tmp/ccdjN2FA.s:7635   .debug_str:0000000000000b8e .LASF282
     /tmp/ccdjN2FA.s:7317   .debug_str:00000000000001a2 .LASF284
     /tmp/ccdjN2FA.s:7303   .debug_str:000000000000010b .LASF285
     /tmp/ccdjN2FA.s:7347   .debug_str:00000000000002ba .LASF286
     /tmp/ccdjN2FA.s:7765   .debug_str:0000000000001061 .LASF287
     /tmp/ccdjN2FA.s:7697   .debug_str:0000000000000dae .LASF288
     /tmp/ccdjN2FA.s:2200   .text:0000000000000d7c .LVL211
     /tmp/ccdjN2FA.s:2215   .text:0000000000000d98 .LVL212
     /tmp/ccdjN2FA.s:2243   .text:0000000000000ddc .LVL217
     /tmp/ccdjN2FA.s:2120   .text:0000000000000d04 .LVL204
     /tmp/ccdjN2FA.s:2148   .text:0000000000000d38 .LVL205
     /tmp/ccdjN2FA.s:2171   .text:0000000000000d60 .LVL208
     /tmp/ccdjN2FA.s:2187   .text:0000000000000d78 .LVL210
     /tmp/ccdjN2FA.s:2183   .text:0000000000000d70 .LVL209
     /tmp/ccdjN2FA.s:2157   .text:0000000000000d40 .LVL206
     /tmp/ccdjN2FA.s:2039   .text:0000000000000c80 .LVL195
     /tmp/ccdjN2FA.s:2062   .text:0000000000000ca4 .LVL197
     /tmp/ccdjN2FA.s:2106   .text:0000000000000cfc .LVL203
     /tmp/ccdjN2FA.s:2054   .text:0000000000000c9c .LVL196
     /tmp/ccdjN2FA.s:2076   .text:0000000000000cc8 .LVL198
     /tmp/ccdjN2FA.s:2103   .text:0000000000000cf8 .LVL202
     /tmp/ccdjN2FA.s:1957   .text:0000000000000be8 .LVL185
     /tmp/ccdjN2FA.s:1982   .text:0000000000000c18 .LVL188
     /tmp/ccdjN2FA.s:1984   .text:0000000000000c1c .LVL189
     /tmp/ccdjN2FA.s:1993   .text:0000000000000c2c .LVL190
     /tmp/ccdjN2FA.s:1995   .text:0000000000000c30 .LVL191
     /tmp/ccdjN2FA.s:2015   .text:0000000000000c60 .LVL193
     /tmp/ccdjN2FA.s:1977   .text:0000000000000c0c .LVL187
     /tmp/ccdjN2FA.s:1624   .text:0000000000000930 .LVL141
     /tmp/ccdjN2FA.s:1641   .text:0000000000000954 .LVL142
     /tmp/ccdjN2FA.s:1784   .text:0000000000000a94 .LVL167
     /tmp/ccdjN2FA.s:1706   .text:0000000000000a14 .LVL155
     /tmp/ccdjN2FA.s:1781   .text:0000000000000a90 .LVL166
     /tmp/ccdjN2FA.s:1522   .text:0000000000000898 .LVL131
     /tmp/ccdjN2FA.s:1584   .text:0000000000000928 .LVL140
     /tmp/ccdjN2FA.s:1541   .text:00000000000008c0 .LVL133
     /tmp/ccdjN2FA.s:1581   .text:0000000000000924 .LVL139
     /tmp/ccdjN2FA.s:1255   .text:0000000000000700 .LVL97
     /tmp/ccdjN2FA.s:1273   .text:0000000000000720 .LVL98
     /tmp/ccdjN2FA.s:1340   .text:0000000000000784 .LVL110
     /tmp/ccdjN2FA.s:1346   .text:0000000000000790 .LVL111
     /tmp/ccdjN2FA.s:1317   .text:0000000000000764 .LVL106
     /tmp/ccdjN2FA.s:1321   .text:0000000000000768 .LVL107
     /tmp/ccdjN2FA.s:1326   .text:0000000000000774 .LVL109
     /tmp/ccdjN2FA.s:1359   .text:00000000000007a0 .LVL113
     /tmp/ccdjN2FA.s:1290   .text:0000000000000738 .LVL100
GAS LISTING /tmp/ccdjN2FA.s 			page 82


     /tmp/ccdjN2FA.s:1294   .text:000000000000073c .LVL101
     /tmp/ccdjN2FA.s:1307   .text:0000000000000758 .LVL104
     /tmp/ccdjN2FA.s:1380   .text:00000000000007c4 .LVL116
     /tmp/ccdjN2FA.s:1384   .text:00000000000007c8 .LVL117
     /tmp/ccdjN2FA.s:1410   .text:00000000000007e4 .LVL120
     /tmp/ccdjN2FA.s:1436   .text:0000000000000820 .LVL121
     /tmp/ccdjN2FA.s:1494   .text:0000000000000888 .LVL128
     /tmp/ccdjN2FA.s:1491   .text:0000000000000884 .LVL127
     /tmp/ccdjN2FA.s:1497   .text:000000000000088c .LVL129
     /tmp/ccdjN2FA.s:1500   .text:0000000000000890 .LVL130
     /tmp/ccdjN2FA.s:1441   .text:0000000000000830 .LVL123
     /tmp/ccdjN2FA.s:1488   .text:0000000000000880 .LVL126
     /tmp/ccdjN2FA.s:1217   .text:00000000000006c8 .LVL94
     /tmp/ccdjN2FA.s:1909   .text:0000000000000ba0 .LVL181
     /tmp/ccdjN2FA.s:1943   .text:0000000000000be0 .LVL184
     /tmp/ccdjN2FA.s:1094   .text:00000000000005dc .LVL82
     /tmp/ccdjN2FA.s:1128   .text:000000000000061c .LVL84
     /tmp/ccdjN2FA.s:1145   .text:0000000000000634 .LVL86
     /tmp/ccdjN2FA.s:1152   .text:0000000000000640 .LVL87
     /tmp/ccdjN2FA.s:1119   .text:000000000000060c .LVL83
     /tmp/ccdjN2FA.s:1139   .text:0000000000000628 .LVL85
     /tmp/ccdjN2FA.s:998    .text:0000000000000504 .LVL69
     /tmp/ccdjN2FA.s:1013   .text:0000000000000524 .LVL70
     /tmp/ccdjN2FA.s:1075   .text:00000000000005d4 .LVL81
     /tmp/ccdjN2FA.s:782    .text:00000000000003f0 .LVL64
     /tmp/ccdjN2FA.s:798    .text:0000000000000410 .LVL66
     /tmp/ccdjN2FA.s:794    .text:0000000000000408 .LVL65
     /tmp/ccdjN2FA.s:677    .text:0000000000000370 .LVL54
     /tmp/ccdjN2FA.s:688    .text:0000000000000384 .LVL55
     /tmp/ccdjN2FA.s:690    .text:0000000000000388 .LVL56
     /tmp/ccdjN2FA.s:696    .text:000000000000038c .LVL57
     /tmp/ccdjN2FA.s:716    .text:00000000000003a8 .LVL58
     /tmp/ccdjN2FA.s:721    .text:00000000000003b0 .LVL59
     /tmp/ccdjN2FA.s:739    .text:00000000000003c4 .LVL61
     /tmp/ccdjN2FA.s:745    .text:00000000000003c8 .LVL62
     /tmp/ccdjN2FA.s:765    .text:00000000000003e4 .LVL63
     /tmp/ccdjN2FA.s:587    .text:0000000000000308 .LVL41
     /tmp/ccdjN2FA.s:660    .text:0000000000000364 .LVL53
     /tmp/ccdjN2FA.s:595    .text:0000000000000314 .LVL42
     /tmp/ccdjN2FA.s:598    .text:0000000000000318 .LVL43
     /tmp/ccdjN2FA.s:651    .text:000000000000035c .LVL51
     /tmp/ccdjN2FA.s:653    .text:0000000000000360 .LVL52
     /tmp/ccdjN2FA.s:618    .text:0000000000000330 .LVL45
     /tmp/ccdjN2FA.s:648    .text:0000000000000358 .LVL50
     /tmp/ccdjN2FA.s:624    .text:0000000000000338 .LVL46
     /tmp/ccdjN2FA.s:628    .text:000000000000033c .LVL47
     /tmp/ccdjN2FA.s:637    .text:0000000000000348 .LVL48
     /tmp/ccdjN2FA.s:643    .text:0000000000000350 .LVL49
     /tmp/ccdjN2FA.s:480    .text:000000000000026c .LVL31
     /tmp/ccdjN2FA.s:497    .text:0000000000000294 .LVL32
     /tmp/ccdjN2FA.s:573    .text:0000000000000300 .LVL40
     /tmp/ccdjN2FA.s:531    .text:00000000000002c8 .LVL34
     /tmp/ccdjN2FA.s:535    .text:00000000000002cc .LVL35
     /tmp/ccdjN2FA.s:540    .text:00000000000002d4 .LVL36
     /tmp/ccdjN2FA.s:543    .text:00000000000002d8 .LVL37
     /tmp/ccdjN2FA.s:548    .text:00000000000002dc .LVL38
     /tmp/ccdjN2FA.s:333    .text:00000000000001bc .LVL25
GAS LISTING /tmp/ccdjN2FA.s 			page 83


     /tmp/ccdjN2FA.s:343    .text:00000000000001cc .LVL26
     /tmp/ccdjN2FA.s:301    .text:0000000000000194 .LVL23
     /tmp/ccdjN2FA.s:313    .text:00000000000001a8 .LVL24
     /tmp/ccdjN2FA.s:175    .text:00000000000000dc .LVL11
     /tmp/ccdjN2FA.s:225    .text:0000000000000124 .LVL16
     /tmp/ccdjN2FA.s:242    .text:0000000000000140 .LVL19
     /tmp/ccdjN2FA.s:248    .text:0000000000000144 .LVL20
     /tmp/ccdjN2FA.s:184    .text:00000000000000ec .LVL12
     /tmp/ccdjN2FA.s:239    .text:000000000000013c .LVL18
     /tmp/ccdjN2FA.s:251    .text:0000000000000148 .LVL21
     /tmp/ccdjN2FA.s:260    .text:0000000000000158 .LVL22
     /tmp/ccdjN2FA.s:235    .text:0000000000000138 .LVL17
     /tmp/ccdjN2FA.s:190    .text:00000000000000f0 .LVL13
     /tmp/ccdjN2FA.s:204    .text:0000000000000104 .LVL14
     /tmp/ccdjN2FA.s:67     .text:0000000000000034 .LVL3
     /tmp/ccdjN2FA.s:97     .text:0000000000000064 .LVL6
     /tmp/ccdjN2FA.s:158    .text:00000000000000d0 .LVL9
     /tmp/ccdjN2FA.s:161    .text:00000000000000d4 .LVL10
     /tmp/ccdjN2FA.s:84     .text:0000000000000054 .LVL4
     /tmp/ccdjN2FA.s:92     .text:000000000000005c .LVL5
     /tmp/ccdjN2FA.s:14     .text:0000000000000000 .LVL0
     /tmp/ccdjN2FA.s:34     .text:000000000000001c .LVL1
     /tmp/ccdjN2FA.s:38     .text:0000000000000020 .LVL2
     /tmp/ccdjN2FA.s:2266   .debug_info:0000000000000000 .Ldebug_info0
     /tmp/ccdjN2FA.s:197    .text:00000000000000f8 .LBB4
     /tmp/ccdjN2FA.s:215    .text:0000000000000118 .LBE4
     /tmp/ccdjN2FA.s:221    .text:0000000000000120 .LBB5
     /tmp/ccdjN2FA.s:244    .text:0000000000000140 .LBE5
     /tmp/ccdjN2FA.s:692    .text:0000000000000388 .LBB9
     /tmp/ccdjN2FA.s:698    .text:000000000000038c .LBE9
     /tmp/ccdjN2FA.s:702    .text:0000000000000390 .LBB10
     /tmp/ccdjN2FA.s:723    .text:00000000000003b0 .LBE10
     /tmp/ccdjN2FA.s:741    .text:00000000000003c4 .LBB11
     /tmp/ccdjN2FA.s:747    .text:00000000000003c8 .LBE11
     /tmp/ccdjN2FA.s:751    .text:00000000000003cc .LBB12
     /tmp/ccdjN2FA.s:771    .text:00000000000003f0 .LBE12
     /tmp/ccdjN2FA.s:1311   .text:0000000000000758 .LBB17
     /tmp/ccdjN2FA.s:1328   .text:0000000000000774 .LBE17
     /tmp/ccdjN2FA.s:1350   .text:0000000000000790 .LBB18
     /tmp/ccdjN2FA.s:1361   .text:00000000000007a0 .LBE18
     /tmp/ccdjN2FA.s:2056   .text:0000000000000c9c .LBB23
     /tmp/ccdjN2FA.s:2059   .text:0000000000000ca0 .LBE23
     /tmp/ccdjN2FA.s:2064   .text:0000000000000ca4 .LBB24
     /tmp/ccdjN2FA.s:2086   .text:0000000000000cdc .LBE24

UNDEFINED SYMBOLS
_Z11buddy_allocP14buddyAllocatorm
_ZN8KConsole15trapPrintStringEPKc
_ZN8KConsole12trapPrintIntEmii
_Z10buddy_initPvm
_Z11getDeg2Ceilm
_Z10buddy_freeP14buddyAllocatorPvm
