GAS LISTING /tmp/cceDUpe5.s 			page 1


   1              		.file	"slabAllocator.cpp"
   2              		.option pic
   3              		.option norelax
   4              		.text
   5              	.Ltext0:
   6              		.align	2
   7              		.globl	_Z6strcpyPKcPc
   9              	_Z6strcpyPKcPc:
  10              	.LFB5:
  11              		.file 1 "src/slabAllocator.cpp"
   1:src/slabAllocator.cpp **** #include "../h/slabAllocator.hpp"
   2:src/slabAllocator.cpp **** #include "../h/buddyAllocator.hpp"
   3:src/slabAllocator.cpp **** #include "../h/KConsole.hpp"
   4:src/slabAllocator.cpp **** 
   5:src/slabAllocator.cpp **** //TODO
   6:src/slabAllocator.cpp **** //check values of the constants
   7:src/slabAllocator.cpp **** #define SLAB_ALLOCATED_LOOKUP 1024
   8:src/slabAllocator.cpp **** #define CACHE_NAME_SIZE 64
   9:src/slabAllocator.cpp **** #define CACHE_BUFFER_SMALL 5
  10:src/slabAllocator.cpp **** #define CACHE_BUFFER_BIG 17
  11:src/slabAllocator.cpp **** #define CACHE_BUFFER_SIZE CACHE_BUFFER_BIG - CACHE_BUFFER_SMALL + 1
  12:src/slabAllocator.cpp **** #define CACHE_OF_CACHES_SLAB_SIZE 2
  13:src/slabAllocator.cpp **** #define NO_ERROR 0
  14:src/slabAllocator.cpp **** #define EXPAND_ERROR 0b1
  15:src/slabAllocator.cpp **** #define DESTROY_ERROR 0b10
  16:src/slabAllocator.cpp **** #define FREE_ERROR 0b100
  17:src/slabAllocator.cpp **** 
  18:src/slabAllocator.cpp **** //TODO
  19:src/slabAllocator.cpp **** //do i need to clear the errors
  20:src/slabAllocator.cpp **** 
  21:src/slabAllocator.cpp **** typedef struct slab_s
  22:src/slabAllocator.cpp **** {
  23:src/slabAllocator.cpp ****     slab_s* prev;
  24:src/slabAllocator.cpp ****     slab_s* next;
  25:src/slabAllocator.cpp ****     kmem_cache_t* owner;
  26:src/slabAllocator.cpp ****     size_t numOfObjects;
  27:src/slabAllocator.cpp ****     size_t numOfAllocatedObjects;
  28:src/slabAllocator.cpp ****     unsigned char allocated[SLAB_ALLOCATED_LOOKUP];
  29:src/slabAllocator.cpp **** }slab_t;
  30:src/slabAllocator.cpp **** 
  31:src/slabAllocator.cpp **** typedef struct kmem_cache_s
  32:src/slabAllocator.cpp **** {
  33:src/slabAllocator.cpp ****     char cacheName[CACHE_NAME_SIZE];
  34:src/slabAllocator.cpp ****     slab_t* slabs_empty;
  35:src/slabAllocator.cpp ****     slab_t* slabs_full;
  36:src/slabAllocator.cpp ****     slab_t* slabs_partial;
  37:src/slabAllocator.cpp ****     size_t slab_size;
  38:src/slabAllocator.cpp ****     size_t obj_size;
  39:src/slabAllocator.cpp ****     void (*ctor)(void*);
  40:src/slabAllocator.cpp ****     void (*dtor)(void*);
  41:src/slabAllocator.cpp ****     int errors;
  42:src/slabAllocator.cpp **** }kmem_cache_t;
  43:src/slabAllocator.cpp **** 
  44:src/slabAllocator.cpp **** typedef struct slab_allocator_s
  45:src/slabAllocator.cpp **** {
  46:src/slabAllocator.cpp ****     buddyAllocator* buddy;
  47:src/slabAllocator.cpp ****     kmem_cache_t* cachesBuffers[CACHE_BUFFER_SIZE];
GAS LISTING /tmp/cceDUpe5.s 			page 2


  48:src/slabAllocator.cpp ****     kmem_cache_t cacheOfCaches;
  49:src/slabAllocator.cpp **** }slab_allocator_t;
  50:src/slabAllocator.cpp **** 
  51:src/slabAllocator.cpp **** //singleton slab allocator
  52:src/slabAllocator.cpp **** static slab_allocator_t* slabAllocator = nullptr;
  53:src/slabAllocator.cpp **** 
  54:src/slabAllocator.cpp **** //helping functions
  55:src/slabAllocator.cpp **** void strcpy(const char* src, char* dst)
  56:src/slabAllocator.cpp **** {
  12              		.loc 1 56 1
  13              		.cfi_startproc
  14              	.LVL0:
  15 0000 130101FF 		addi	sp,sp,-16
  16              		.cfi_def_cfa_offset 16
  17 0004 23348100 		sd	s0,8(sp)
  18              		.cfi_offset 8, -8
  19 0008 13040101 		addi	s0,sp,16
  20              		.cfi_def_cfa 8, 0
  21              	.L3:
  57:src/slabAllocator.cpp ****     while(*src != '\0')
  22              		.loc 1 57 5
  23              		.loc 1 57 16
  24              		.loc 1 57 11 is_stmt 0
  25 000c 83470500 		lbu	a5,0(a0)
  26              		.loc 1 57 16
  27 0010 638A0700 		beqz	a5,.L2
  58:src/slabAllocator.cpp ****     {
  59:src/slabAllocator.cpp ****         *dst = *src;
  28              		.loc 1 59 9 is_stmt 1
  29              		.loc 1 59 14 is_stmt 0
  30 0014 2380F500 		sb	a5,0(a1)
  60:src/slabAllocator.cpp ****         src++; dst++;
  31              		.loc 1 60 9 is_stmt 1
  32              		.loc 1 60 12 is_stmt 0
  33 0018 13051500 		addi	a0,a0,1
  34              	.LVL1:
  35              		.loc 1 60 16 is_stmt 1
  36              		.loc 1 60 19 is_stmt 0
  37 001c 93851500 		addi	a1,a1,1
  38              	.LVL2:
  57:src/slabAllocator.cpp ****     while(*src != '\0')
  39              		.loc 1 57 5
  40 0020 6FF0DFFE 		j	.L3
  41              	.L2:
  61:src/slabAllocator.cpp ****     }
  62:src/slabAllocator.cpp ****     *dst = *src;
  42              		.loc 1 62 5 is_stmt 1
  43              		.loc 1 62 10 is_stmt 0
  44 0024 2380F500 		sb	a5,0(a1)
  63:src/slabAllocator.cpp **** }
  45              		.loc 1 63 1
  46 0028 03348100 		ld	s0,8(sp)
  47              		.cfi_restore 8
  48              		.cfi_def_cfa 2, 16
  49 002c 13010101 		addi	sp,sp,16
  50              		.cfi_def_cfa_offset 0
  51 0030 67800000 		jr	ra
GAS LISTING /tmp/cceDUpe5.s 			page 3


  52              		.cfi_endproc
  53              	.LFE5:
  55              		.align	2
  56              		.globl	_Z17destroy_slab_listPP6slab_s
  58              	_Z17destroy_slab_listPP6slab_s:
  59              	.LFB6:
  64:src/slabAllocator.cpp **** 
  65:src/slabAllocator.cpp **** int destroy_slab_list(slab_t** slab)
  66:src/slabAllocator.cpp **** {
  60              		.loc 1 66 1 is_stmt 1
  61              		.cfi_startproc
  62              	.LVL3:
  63 0034 130101FD 		addi	sp,sp,-48
  64              		.cfi_def_cfa_offset 48
  65 0038 23341102 		sd	ra,40(sp)
  66 003c 23308102 		sd	s0,32(sp)
  67 0040 233C9100 		sd	s1,24(sp)
  68 0044 23382101 		sd	s2,16(sp)
  69 0048 23343101 		sd	s3,8(sp)
  70 004c 23304101 		sd	s4,0(sp)
  71              		.cfi_offset 1, -8
  72              		.cfi_offset 8, -16
  73              		.cfi_offset 9, -24
  74              		.cfi_offset 18, -32
  75              		.cfi_offset 19, -40
  76              		.cfi_offset 20, -48
  77 0050 13040103 		addi	s0,sp,48
  78              		.cfi_def_cfa 8, 0
  67:src/slabAllocator.cpp ****     if(*slab == nullptr) return 0;
  79              		.loc 1 67 5
  80              		.loc 1 67 8 is_stmt 0
  81 0054 83370500 		ld	a5,0(a0)
  82              		.loc 1 67 5
  83 0058 63820704 		beqz	a5,.L8
  84 005c 93040500 		mv	s1,a0
  68:src/slabAllocator.cpp ****     size_t sz = (*slab)->owner->slab_size;
  85              		.loc 1 68 5 is_stmt 1
  86              		.loc 1 68 26 is_stmt 0
  87 0060 83B70701 		ld	a5,16(a5)
  88              		.loc 1 68 12
  89 0064 83B98705 		ld	s3,88(a5)
  90              	.LVL4:
  69:src/slabAllocator.cpp ****     int totalBlocks = 0;
  91              		.loc 1 69 5 is_stmt 1
  92              		.loc 1 69 9 is_stmt 0
  93 0068 13090000 		li	s2,0
  94              	.LVL5:
  95              	.L7:
  70:src/slabAllocator.cpp ****     while(*slab != nullptr)
  96              		.loc 1 70 5 is_stmt 1
  97              		.loc 1 70 17
  98              		.loc 1 70 11 is_stmt 0
  99 006c 83B50400 		ld	a1,0(s1)
 100              		.loc 1 70 17
 101 0070 63880502 		beqz	a1,.L6
 102              	.LBB2:
  71:src/slabAllocator.cpp ****     {
GAS LISTING /tmp/cceDUpe5.s 			page 4


  72:src/slabAllocator.cpp ****         slab_t* nextSlab = (*slab)->next;
 103              		.loc 1 72 9 is_stmt 1
 104              		.loc 1 72 17 is_stmt 0
 105 0074 03BA8500 		ld	s4,8(a1)
 106              	.LVL6:
  73:src/slabAllocator.cpp ****         buddy_free(slabAllocator->buddy, *slab, sz);
 107              		.loc 1 73 9 is_stmt 1
 108              		.loc 1 73 19 is_stmt 0
 109 0078 13860900 		mv	a2,s3
 110 007c 97070000 		ld	a5,.LANCHOR0
 110      83B70700 
 111 0084 03B50700 		ld	a0,0(a5)
 112 0088 97000000 		call	_Z10buddy_freeP14buddyAllocatorPvm@plt
 112      E7800000 
 113              	.LVL7:
  74:src/slabAllocator.cpp ****         *slab = nextSlab;
 114              		.loc 1 74 9 is_stmt 1
 115              		.loc 1 74 15 is_stmt 0
 116 0090 23B04401 		sd	s4,0(s1)
  75:src/slabAllocator.cpp ****         totalBlocks+=sz;
 117              		.loc 1 75 9 is_stmt 1
 118              		.loc 1 75 20 is_stmt 0
 119 0094 3B892901 		addw	s2,s3,s2
 120              	.LVL8:
 121              	.LBE2:
  70:src/slabAllocator.cpp ****     {
 122              		.loc 1 70 5
 123 0098 6FF05FFD 		j	.L7
 124              	.LVL9:
 125              	.L8:
  67:src/slabAllocator.cpp ****     size_t sz = (*slab)->owner->slab_size;
 126              		.loc 1 67 33
 127 009c 13090000 		li	s2,0
 128              	.LVL10:
 129              	.L6:
  76:src/slabAllocator.cpp ****     }
  77:src/slabAllocator.cpp ****     return totalBlocks;
  78:src/slabAllocator.cpp **** }
 130              		.loc 1 78 1
 131 00a0 13050900 		mv	a0,s2
 132 00a4 83308102 		ld	ra,40(sp)
 133              		.cfi_restore 1
 134 00a8 03340102 		ld	s0,32(sp)
 135              		.cfi_restore 8
 136              		.cfi_def_cfa 2, 48
 137 00ac 83348101 		ld	s1,24(sp)
 138              		.cfi_restore 9
 139 00b0 03390101 		ld	s2,16(sp)
 140              		.cfi_restore 18
 141 00b4 83398100 		ld	s3,8(sp)
 142              		.cfi_restore 19
 143 00b8 033A0100 		ld	s4,0(sp)
 144              		.cfi_restore 20
 145 00bc 13010103 		addi	sp,sp,48
 146              		.cfi_def_cfa_offset 0
 147 00c0 67800000 		jr	ra
 148              		.cfi_endproc
GAS LISTING /tmp/cceDUpe5.s 			page 5


 149              	.LFE6:
 151              		.align	2
 152              		.globl	_Z10init_cacheP12kmem_cache_sPKcmmPFvPvES5_
 154              	_Z10init_cacheP12kmem_cache_sPKcmmPFvPvES5_:
 155              	.LFB7:
  79:src/slabAllocator.cpp **** 
  80:src/slabAllocator.cpp **** void init_cache(kmem_cache_t* cachep, const char* cache_name, size_t slab_size, size_t obj_size, vo
  81:src/slabAllocator.cpp **** {
 156              		.loc 1 81 1 is_stmt 1
 157              		.cfi_startproc
 158              	.LVL11:
 159 00c4 130101FC 		addi	sp,sp,-64
 160              		.cfi_def_cfa_offset 64
 161 00c8 233C1102 		sd	ra,56(sp)
 162 00cc 23388102 		sd	s0,48(sp)
 163 00d0 23349102 		sd	s1,40(sp)
 164 00d4 23302103 		sd	s2,32(sp)
 165 00d8 233C3101 		sd	s3,24(sp)
 166 00dc 23384101 		sd	s4,16(sp)
 167 00e0 23345101 		sd	s5,8(sp)
 168              		.cfi_offset 1, -8
 169              		.cfi_offset 8, -16
 170              		.cfi_offset 9, -24
 171              		.cfi_offset 18, -32
 172              		.cfi_offset 19, -40
 173              		.cfi_offset 20, -48
 174              		.cfi_offset 21, -56
 175 00e4 13040104 		addi	s0,sp,64
 176              		.cfi_def_cfa 8, 0
 177 00e8 93040500 		mv	s1,a0
 178 00ec 13850500 		mv	a0,a1
 179              	.LVL12:
 180 00f0 930A0600 		mv	s5,a2
 181 00f4 138A0600 		mv	s4,a3
 182 00f8 93090700 		mv	s3,a4
 183 00fc 13890700 		mv	s2,a5
  82:src/slabAllocator.cpp ****     strcpy(cache_name, cachep->cacheName);
 184              		.loc 1 82 5
 185              		.loc 1 82 11 is_stmt 0
 186 0100 93850400 		mv	a1,s1
 187              	.LVL13:
 188 0104 97000000 		call	_Z6strcpyPKcPc
 188      E7800000 
 189              	.LVL14:
  83:src/slabAllocator.cpp ****     cachep->slab_size = slab_size;
 190              		.loc 1 83 5 is_stmt 1
 191              		.loc 1 83 23 is_stmt 0
 192 010c 23BC5405 		sd	s5,88(s1)
  84:src/slabAllocator.cpp ****     cachep->obj_size = obj_size;
 193              		.loc 1 84 5 is_stmt 1
 194              		.loc 1 84 22 is_stmt 0
 195 0110 23B04407 		sd	s4,96(s1)
  85:src/slabAllocator.cpp ****     cachep->ctor = ctor;
 196              		.loc 1 85 5 is_stmt 1
 197              		.loc 1 85 18 is_stmt 0
 198 0114 23B43407 		sd	s3,104(s1)
  86:src/slabAllocator.cpp ****     cachep->dtor = dtor;
GAS LISTING /tmp/cceDUpe5.s 			page 6


 199              		.loc 1 86 5 is_stmt 1
 200              		.loc 1 86 18 is_stmt 0
 201 0118 23B82407 		sd	s2,112(s1)
  87:src/slabAllocator.cpp **** 
  88:src/slabAllocator.cpp ****     cachep->slabs_empty = cachep->slabs_partial = cachep->slabs_full = nullptr;
 202              		.loc 1 88 5 is_stmt 1
 203              		.loc 1 88 70 is_stmt 0
 204 011c 23B40404 		sd	zero,72(s1)
 205              		.loc 1 88 49
 206 0120 23B80404 		sd	zero,80(s1)
 207              		.loc 1 88 25
 208 0124 23B00404 		sd	zero,64(s1)
  89:src/slabAllocator.cpp ****     cachep->errors = NO_ERROR;
 209              		.loc 1 89 5 is_stmt 1
 210              		.loc 1 89 20 is_stmt 0
 211 0128 23AC0406 		sw	zero,120(s1)
  90:src/slabAllocator.cpp **** }
 212              		.loc 1 90 1
 213 012c 83308103 		ld	ra,56(sp)
 214              		.cfi_restore 1
 215 0130 03340103 		ld	s0,48(sp)
 216              		.cfi_restore 8
 217              		.cfi_def_cfa 2, 64
 218 0134 83348102 		ld	s1,40(sp)
 219              		.cfi_restore 9
 220              	.LVL15:
 221 0138 03390102 		ld	s2,32(sp)
 222              		.cfi_restore 18
 223              	.LVL16:
 224 013c 83398101 		ld	s3,24(sp)
 225              		.cfi_restore 19
 226              	.LVL17:
 227 0140 033A0101 		ld	s4,16(sp)
 228              		.cfi_restore 20
 229              	.LVL18:
 230 0144 833A8100 		ld	s5,8(sp)
 231              		.cfi_restore 21
 232              	.LVL19:
 233 0148 13010104 		addi	sp,sp,64
 234              		.cfi_def_cfa_offset 0
 235 014c 67800000 		jr	ra
 236              		.cfi_endproc
 237              	.LFE7:
 239              		.section	.rodata.str1.8,"aMS",@progbits,1
 240              		.align	3
 241              	.LC0:
 242 0000 43616368 		.string	"Cache of caches"
 242      65206F66 
 242      20636163 
 242      68657300 
 243              		.text
 244              		.align	2
 245              		.globl	_Z19slab_allocator_initP14buddyAllocator
 247              	_Z19slab_allocator_initP14buddyAllocator:
 248              	.LFB8:
  91:src/slabAllocator.cpp **** 
  92:src/slabAllocator.cpp **** slab_allocator_t* slab_allocator_init(buddyAllocator *buddy)
GAS LISTING /tmp/cceDUpe5.s 			page 7


  93:src/slabAllocator.cpp **** {
 249              		.loc 1 93 1 is_stmt 1
 250              		.cfi_startproc
 251              	.LVL20:
 252 0150 130101FE 		addi	sp,sp,-32
 253              		.cfi_def_cfa_offset 32
 254 0154 233C1100 		sd	ra,24(sp)
 255 0158 23388100 		sd	s0,16(sp)
 256 015c 23349100 		sd	s1,8(sp)
 257              		.cfi_offset 1, -8
 258              		.cfi_offset 8, -16
 259              		.cfi_offset 9, -24
 260 0160 13040102 		addi	s0,sp,32
 261              		.cfi_def_cfa 8, 0
  94:src/slabAllocator.cpp ****     slab_allocator_t* slabAllocatorLocal = (slab_allocator_t*)(buddy + 1);
 262              		.loc 1 94 5
 263              		.loc 1 94 23 is_stmt 0
 264 0164 9304050E 		addi	s1,a0,224
 265              	.LVL21:
  95:src/slabAllocator.cpp **** 
  96:src/slabAllocator.cpp ****     slabAllocatorLocal->buddy = buddy;
 266              		.loc 1 96 5 is_stmt 1
 267              		.loc 1 96 31 is_stmt 0
 268 0168 2330A50E 		sd	a0,224(a0)
  97:src/slabAllocator.cpp ****     for(size_t i = 0; i < CACHE_BUFFER_SIZE;i++)
 269              		.loc 1 97 5 is_stmt 1
 270              	.LVL22:
 271              	.LBB3:
 272              		.loc 1 97 16 is_stmt 0
 273 016c 93070000 		li	a5,0
 274 0170 6F004001 		j	.L14
 275              	.LVL23:
 276              	.L16:
  98:src/slabAllocator.cpp ****         slabAllocatorLocal->cachesBuffers[i] = nullptr;
 277              		.loc 1 98 9 is_stmt 1 discriminator 2
 278              		.loc 1 98 46 is_stmt 0 discriminator 2
 279 0174 13973700 		slli	a4,a5,3
 280 0178 3307E500 		add	a4,a0,a4
 281 017c 2334070E 		sd	zero,232(a4)
  97:src/slabAllocator.cpp ****     for(size_t i = 0; i < CACHE_BUFFER_SIZE;i++)
 282              		.loc 1 97 5 is_stmt 1 discriminator 2
 283 0180 93871700 		addi	a5,a5,1
 284              	.LVL24:
 285              	.L14:
  97:src/slabAllocator.cpp ****     for(size_t i = 0; i < CACHE_BUFFER_SIZE;i++)
 286              		.loc 1 97 25 discriminator 3
 287 0184 1307C000 		li	a4,12
 288 0188 E376F7FE 		bleu	a5,a4,.L16
 289              	.LBE3:
  99:src/slabAllocator.cpp **** 
 100:src/slabAllocator.cpp ****     init_cache(&slabAllocatorLocal->cacheOfCaches, "Cache of caches", CACHE_OF_CACHES_SLAB_SIZE, si
 290              		.loc 1 100 5
 291              		.loc 1 100 15 is_stmt 0
 292 018c 93070000 		li	a5,0
 293              	.LVL25:
 294 0190 13070000 		li	a4,0
 295 0194 93060008 		li	a3,128
GAS LISTING /tmp/cceDUpe5.s 			page 8


 296 0198 13062000 		li	a2,2
 297 019c 97050000 		lla	a1,.LC0
 297      93850500 
 298 01a4 13050515 		addi	a0,a0,336
 299              	.LVL26:
 300 01a8 97000000 		call	_Z10init_cacheP12kmem_cache_sPKcmmPFvPvES5_
 300      E7800000 
 301              	.LVL27:
 101:src/slabAllocator.cpp **** 
 102:src/slabAllocator.cpp ****     return slabAllocatorLocal;
 302              		.loc 1 102 5 is_stmt 1
 103:src/slabAllocator.cpp **** }
 303              		.loc 1 103 1 is_stmt 0
 304 01b0 13850400 		mv	a0,s1
 305 01b4 83308101 		ld	ra,24(sp)
 306              		.cfi_restore 1
 307 01b8 03340101 		ld	s0,16(sp)
 308              		.cfi_restore 8
 309              		.cfi_def_cfa 2, 32
 310 01bc 83348100 		ld	s1,8(sp)
 311              		.cfi_restore 9
 312              	.LVL28:
 313 01c0 13010102 		addi	sp,sp,32
 314              		.cfi_def_cfa_offset 0
 315 01c4 67800000 		jr	ra
 316              		.cfi_endproc
 317              	.LFE8:
 319              		.align	2
 320              		.globl	_Z13checkSetIndexP6slab_si
 322              	_Z13checkSetIndexP6slab_si:
 323              	.LFB9:
 104:src/slabAllocator.cpp **** 
 105:src/slabAllocator.cpp **** bool checkSetIndex(slab_t* slab, int index)
 106:src/slabAllocator.cpp **** {
 324              		.loc 1 106 1 is_stmt 1
 325              		.cfi_startproc
 326              	.LVL29:
 327 01c8 130101FF 		addi	sp,sp,-16
 328              		.cfi_def_cfa_offset 16
 329 01cc 23348100 		sd	s0,8(sp)
 330              		.cfi_offset 8, -8
 331 01d0 13040101 		addi	s0,sp,16
 332              		.cfi_def_cfa 8, 0
 107:src/slabAllocator.cpp ****     return (uint8)slab->allocated[index / 8] & (1 << (index%8));
 333              		.loc 1 107 5
 334              		.loc 1 107 41 is_stmt 0
 335 01d4 9BD7F541 		sraiw	a5,a1,31
 336 01d8 9BD7D701 		srliw	a5,a5,29
 337 01dc BB85B700 		addw	a1,a5,a1
 338              	.LVL30:
 339 01e0 1BD73540 		sraiw	a4,a1,3
 340              		.loc 1 107 44
 341 01e4 3305E500 		add	a0,a0,a4
 342              	.LVL31:
 343              		.loc 1 107 12
 344 01e8 03458502 		lbu	a0,40(a0)
 345              		.loc 1 107 60
GAS LISTING /tmp/cceDUpe5.s 			page 9


 346 01ec 93F57500 		andi	a1,a1,7
 347 01f0 BB85F540 		subw	a1,a1,a5
 348              		.loc 1 107 63
 349 01f4 3B55B540 		sraw	a0,a0,a1
 108:src/slabAllocator.cpp **** }
 350              		.loc 1 108 1
 351 01f8 13751500 		andi	a0,a0,1
 352 01fc 03348100 		ld	s0,8(sp)
 353              		.cfi_restore 8
 354              		.cfi_def_cfa 2, 16
 355 0200 13010101 		addi	sp,sp,16
 356              		.cfi_def_cfa_offset 0
 357 0204 67800000 		jr	ra
 358              		.cfi_endproc
 359              	.LFE9:
 361              		.align	2
 362              		.globl	_Z17setAllocatedIndexP6slab_si
 364              	_Z17setAllocatedIndexP6slab_si:
 365              	.LFB10:
 109:src/slabAllocator.cpp **** 
 110:src/slabAllocator.cpp **** void setAllocatedIndex(slab_t* slab, int index)
 111:src/slabAllocator.cpp **** {
 366              		.loc 1 111 1 is_stmt 1
 367              		.cfi_startproc
 368              	.LVL32:
 369 0208 130101FF 		addi	sp,sp,-16
 370              		.cfi_def_cfa_offset 16
 371 020c 23348100 		sd	s0,8(sp)
 372              		.cfi_offset 8, -8
 373 0210 13040101 		addi	s0,sp,16
 374              		.cfi_def_cfa 8, 0
 112:src/slabAllocator.cpp ****     slab->allocated[index / 8]=(uint8)slab->allocated[index/8] | (1 << (index%8));
 375              		.loc 1 112 5
 376              		.loc 1 112 60 is_stmt 0
 377 0214 9BD7F541 		sraiw	a5,a1,31
 378 0218 9BD7D701 		srliw	a5,a5,29
 379 021c BB85B700 		addw	a1,a5,a1
 380              	.LVL33:
 381 0220 1BD73540 		sraiw	a4,a1,3
 382              		.loc 1 112 62
 383 0224 3305E500 		add	a0,a0,a4
 384              	.LVL34:
 385              		.loc 1 112 32
 386 0228 03078502 		lb	a4,40(a0)
 387              		.loc 1 112 78
 388 022c 93F57500 		andi	a1,a1,7
 389 0230 BB85F540 		subw	a1,a1,a5
 390              		.loc 1 112 69
 391 0234 93071000 		li	a5,1
 392 0238 BB95B700 		sllw	a1,a5,a1
 393              		.loc 1 112 64
 394 023c B365B700 		or	a1,a4,a1
 395              		.loc 1 112 31
 396 0240 2304B502 		sb	a1,40(a0)
 113:src/slabAllocator.cpp **** }
 397              		.loc 1 113 1
 398 0244 03348100 		ld	s0,8(sp)
GAS LISTING /tmp/cceDUpe5.s 			page 10


 399              		.cfi_restore 8
 400              		.cfi_def_cfa 2, 16
 401 0248 13010101 		addi	sp,sp,16
 402              		.cfi_def_cfa_offset 0
 403 024c 67800000 		jr	ra
 404              		.cfi_endproc
 405              	.LFE10:
 407              		.align	2
 408              		.globl	_Z14allocateObjectP6slab_s
 410              	_Z14allocateObjectP6slab_s:
 411              	.LFB11:
 114:src/slabAllocator.cpp **** 
 115:src/slabAllocator.cpp **** void* allocateObject(slab_t* slab)
 116:src/slabAllocator.cpp **** {
 412              		.loc 1 116 1 is_stmt 1
 413              		.cfi_startproc
 414              	.LVL35:
 415 0250 130101FD 		addi	sp,sp,-48
 416              		.cfi_def_cfa_offset 48
 417 0254 23341102 		sd	ra,40(sp)
 418 0258 23308102 		sd	s0,32(sp)
 419 025c 233C9100 		sd	s1,24(sp)
 420 0260 23382101 		sd	s2,16(sp)
 421 0264 23343101 		sd	s3,8(sp)
 422              		.cfi_offset 1, -8
 423              		.cfi_offset 8, -16
 424              		.cfi_offset 9, -24
 425              		.cfi_offset 18, -32
 426              		.cfi_offset 19, -40
 427 0268 13040103 		addi	s0,sp,48
 428              		.cfi_def_cfa 8, 0
 429 026c 13090500 		mv	s2,a0
 117:src/slabAllocator.cpp ****     if(slab == nullptr)
 430              		.loc 1 117 5
 431 0270 63080508 		beqz	a0,.L26
 432              	.LBB4:
 118:src/slabAllocator.cpp ****         return nullptr;
 119:src/slabAllocator.cpp ****     int index = -1;
 120:src/slabAllocator.cpp ****     void* addr = nullptr;
 121:src/slabAllocator.cpp ****     for(size_t i = 0;i < slab->numOfObjects;i++)
 433              		.loc 1 121 16 is_stmt 0
 434 0274 93040000 		li	s1,0
 435              	.LVL36:
 436              	.L25:
 437              		.loc 1 121 24 is_stmt 1 discriminator 1
 438              		.loc 1 121 32 is_stmt 0 discriminator 1
 439 0278 83378901 		ld	a5,24(s2)
 440              		.loc 1 121 24 discriminator 1
 441 027c 63FEF402 		bleu	a5,s1,.L27
 122:src/slabAllocator.cpp ****     {
 123:src/slabAllocator.cpp ****         if(!checkSetIndex(slab, i))
 442              		.loc 1 123 9 is_stmt 1
 443              		.loc 1 123 26 is_stmt 0
 444 0280 9B890400 		sext.w	s3,s1
 445 0284 93850900 		mv	a1,s3
 446 0288 13050900 		mv	a0,s2
 447 028c 97000000 		call	_Z13checkSetIndexP6slab_si
GAS LISTING /tmp/cceDUpe5.s 			page 11


 447      E7800000 
 448              	.LVL37:
 449              		.loc 1 123 9
 450 0294 63060500 		beqz	a0,.L29
 121:src/slabAllocator.cpp ****     {
 451              		.loc 1 121 5 is_stmt 1 discriminator 2
 452 0298 93841400 		addi	s1,s1,1
 453              	.LVL38:
 454 029c 6FF0DFFD 		j	.L25
 455              	.L29:
 124:src/slabAllocator.cpp ****         {
 125:src/slabAllocator.cpp ****             addr = (void*)((size_t)slab + sizeof(slab_t)+ i*slab->owner->obj_size);
 456              		.loc 1 125 13
 457              		.loc 1 125 67 is_stmt 0
 458 02a0 83370901 		ld	a5,16(s2)
 459              		.loc 1 125 74
 460 02a4 83B70706 		ld	a5,96(a5)
 461              		.loc 1 125 60
 462 02a8 B3849702 		mul	s1,a5,s1
 463              	.LVL39:
 464              		.loc 1 125 57
 465 02ac B3049900 		add	s1,s2,s1
 466 02b0 93848442 		addi	s1,s1,1064
 467              	.LVL40:
 126:src/slabAllocator.cpp ****             index = i;
 468              		.loc 1 126 13 is_stmt 1
 127:src/slabAllocator.cpp ****             break;
 469              		.loc 1 127 13
 470 02b4 6F00C000 		j	.L23
 471              	.LVL41:
 472              	.L27:
 473              	.LBE4:
 120:src/slabAllocator.cpp ****     for(size_t i = 0;i < slab->numOfObjects;i++)
 474              		.loc 1 120 11 is_stmt 0
 475 02b8 93040000 		li	s1,0
 476              	.LVL42:
 119:src/slabAllocator.cpp ****     void* addr = nullptr;
 477              		.loc 1 119 9
 478 02bc 9309F0FF 		li	s3,-1
 479              	.L23:
 480              	.LVL43:
 128:src/slabAllocator.cpp ****         }
 129:src/slabAllocator.cpp ****     }
 130:src/slabAllocator.cpp ****     if(addr == nullptr)
 481              		.loc 1 130 5 is_stmt 1
 482 02c0 63800402 		beqz	s1,.L21
 131:src/slabAllocator.cpp ****         return nullptr;
 132:src/slabAllocator.cpp **** 
 133:src/slabAllocator.cpp ****     setAllocatedIndex(slab, index);
 483              		.loc 1 133 5
 484              		.loc 1 133 22 is_stmt 0
 485 02c4 93850900 		mv	a1,s3
 486 02c8 13050900 		mv	a0,s2
 487 02cc 97000000 		call	_Z17setAllocatedIndexP6slab_si
 487      E7800000 
 488              	.LVL44:
 134:src/slabAllocator.cpp ****     slab->numOfAllocatedObjects++;
GAS LISTING /tmp/cceDUpe5.s 			page 12


 489              		.loc 1 134 5 is_stmt 1
 490              		.loc 1 134 11 is_stmt 0
 491 02d4 83370902 		ld	a5,32(s2)
 492              		.loc 1 134 32
 493 02d8 93871700 		addi	a5,a5,1
 494 02dc 2330F902 		sd	a5,32(s2)
 135:src/slabAllocator.cpp **** 
 136:src/slabAllocator.cpp ****     return addr;
 495              		.loc 1 136 5 is_stmt 1
 496              	.LVL45:
 497              	.L21:
 137:src/slabAllocator.cpp **** }
 498              		.loc 1 137 1 is_stmt 0
 499 02e0 13850400 		mv	a0,s1
 500 02e4 83308102 		ld	ra,40(sp)
 501              		.cfi_remember_state
 502              		.cfi_restore 1
 503 02e8 03340102 		ld	s0,32(sp)
 504              		.cfi_restore 8
 505              		.cfi_def_cfa 2, 48
 506 02ec 83348101 		ld	s1,24(sp)
 507              		.cfi_restore 9
 508 02f0 03390101 		ld	s2,16(sp)
 509              		.cfi_restore 18
 510              	.LVL46:
 511 02f4 83398100 		ld	s3,8(sp)
 512              		.cfi_restore 19
 513 02f8 13010103 		addi	sp,sp,48
 514              		.cfi_def_cfa_offset 0
 515 02fc 67800000 		jr	ra
 516              	.LVL47:
 517              	.L26:
 518              		.cfi_restore_state
 118:src/slabAllocator.cpp ****     int index = -1;
 519              		.loc 1 118 16
 520 0300 93040500 		mv	s1,a0
 521 0304 6FF0DFFD 		j	.L21
 522              		.cfi_endproc
 523              	.LFE11:
 525              		.align	2
 526              		.globl	_Z4fullP6slab_s
 528              	_Z4fullP6slab_s:
 529              	.LFB12:
 138:src/slabAllocator.cpp **** 
 139:src/slabAllocator.cpp **** bool full(slab_t* slab)
 140:src/slabAllocator.cpp **** {
 530              		.loc 1 140 1 is_stmt 1
 531              		.cfi_startproc
 532              	.LVL48:
 533 0308 130101FF 		addi	sp,sp,-16
 534              		.cfi_def_cfa_offset 16
 535 030c 23348100 		sd	s0,8(sp)
 536              		.cfi_offset 8, -8
 537 0310 13040101 		addi	s0,sp,16
 538              		.cfi_def_cfa 8, 0
 141:src/slabAllocator.cpp ****     return slab->numOfAllocatedObjects == slab->numOfObjects;
 539              		.loc 1 141 5
GAS LISTING /tmp/cceDUpe5.s 			page 13


 540              		.loc 1 141 18 is_stmt 0
 541 0314 83370502 		ld	a5,32(a0)
 542              		.loc 1 141 49
 543 0318 03358501 		ld	a0,24(a0)
 544              	.LVL49:
 545 031c 3305F540 		sub	a0,a0,a5
 142:src/slabAllocator.cpp **** }
 546              		.loc 1 142 1
 547 0320 13351500 		seqz	a0,a0
 548 0324 03348100 		ld	s0,8(sp)
 549              		.cfi_restore 8
 550              		.cfi_def_cfa 2, 16
 551 0328 13010101 		addi	sp,sp,16
 552              		.cfi_def_cfa_offset 0
 553 032c 67800000 		jr	ra
 554              		.cfi_endproc
 555              	.LFE12:
 557              		.align	2
 558              		.globl	_Z5emptyP6slab_s
 560              	_Z5emptyP6slab_s:
 561              	.LFB13:
 143:src/slabAllocator.cpp **** 
 144:src/slabAllocator.cpp **** bool empty(slab_t* slab)
 145:src/slabAllocator.cpp **** {
 562              		.loc 1 145 1 is_stmt 1
 563              		.cfi_startproc
 564              	.LVL50:
 565 0330 130101FF 		addi	sp,sp,-16
 566              		.cfi_def_cfa_offset 16
 567 0334 23348100 		sd	s0,8(sp)
 568              		.cfi_offset 8, -8
 569 0338 13040101 		addi	s0,sp,16
 570              		.cfi_def_cfa 8, 0
 146:src/slabAllocator.cpp ****     return slab->numOfAllocatedObjects == 0;
 571              		.loc 1 146 5
 572              		.loc 1 146 18 is_stmt 0
 573 033c 03350502 		ld	a0,32(a0)
 574              	.LVL51:
 147:src/slabAllocator.cpp **** }
 575              		.loc 1 147 1
 576 0340 13351500 		seqz	a0,a0
 577 0344 03348100 		ld	s0,8(sp)
 578              		.cfi_restore 8
 579              		.cfi_def_cfa 2, 16
 580 0348 13010101 		addi	sp,sp,16
 581              		.cfi_def_cfa_offset 0
 582 034c 67800000 		jr	ra
 583              		.cfi_endproc
 584              	.LFE13:
 586              		.align	2
 587              		.globl	_Z18insertIntoSlabListP6slab_sPS0_
 589              	_Z18insertIntoSlabListP6slab_sPS0_:
 590              	.LFB14:
 148:src/slabAllocator.cpp **** 
 149:src/slabAllocator.cpp **** void insertIntoSlabList(slab_t* slab, slab_t** slab_head)
 150:src/slabAllocator.cpp **** {
 591              		.loc 1 150 1 is_stmt 1
GAS LISTING /tmp/cceDUpe5.s 			page 14


 592              		.cfi_startproc
 593              	.LVL52:
 594 0350 130101FF 		addi	sp,sp,-16
 595              		.cfi_def_cfa_offset 16
 596 0354 23348100 		sd	s0,8(sp)
 597              		.cfi_offset 8, -8
 598 0358 13040101 		addi	s0,sp,16
 599              		.cfi_def_cfa 8, 0
 151:src/slabAllocator.cpp ****     if(slab == nullptr)
 600              		.loc 1 151 5
 601 035c 630E0500 		beqz	a0,.L34
 152:src/slabAllocator.cpp ****         return;
 153:src/slabAllocator.cpp ****     slab->prev = nullptr;
 602              		.loc 1 153 5
 603              		.loc 1 153 16 is_stmt 0
 604 0360 23300500 		sd	zero,0(a0)
 154:src/slabAllocator.cpp ****     slab->next = *slab_head;
 605              		.loc 1 154 5 is_stmt 1
 606              		.loc 1 154 18 is_stmt 0
 607 0364 83B70500 		ld	a5,0(a1)
 608              		.loc 1 154 16
 609 0368 2334F500 		sd	a5,8(a0)
 155:src/slabAllocator.cpp ****     if(*slab_head != nullptr)
 610              		.loc 1 155 5 is_stmt 1
 611 036c 63840700 		beqz	a5,.L36
 156:src/slabAllocator.cpp ****         (*slab_head)->prev = slab;
 612              		.loc 1 156 9
 613              		.loc 1 156 28 is_stmt 0
 614 0370 23B0A700 		sd	a0,0(a5)
 615              	.L36:
 157:src/slabAllocator.cpp ****     *slab_head = slab;
 616              		.loc 1 157 5 is_stmt 1
 617              		.loc 1 157 16 is_stmt 0
 618 0374 23B0A500 		sd	a0,0(a1)
 619              	.L34:
 158:src/slabAllocator.cpp **** }
 620              		.loc 1 158 1
 621 0378 03348100 		ld	s0,8(sp)
 622              		.cfi_restore 8
 623              		.cfi_def_cfa 2, 16
 624 037c 13010101 		addi	sp,sp,16
 625              		.cfi_def_cfa_offset 0
 626 0380 67800000 		jr	ra
 627              		.cfi_endproc
 628              	.LFE14:
 630              		.align	2
 631              		.globl	_Z18removeFromSlabListP6slab_sPS0_
 633              	_Z18removeFromSlabListP6slab_sPS0_:
 634              	.LFB15:
 159:src/slabAllocator.cpp **** 
 160:src/slabAllocator.cpp **** void removeFromSlabList(slab_t* slab, slab_t** slab_head)
 161:src/slabAllocator.cpp **** {
 635              		.loc 1 161 1 is_stmt 1
 636              		.cfi_startproc
 637              	.LVL53:
 638 0384 130101FF 		addi	sp,sp,-16
 639              		.cfi_def_cfa_offset 16
GAS LISTING /tmp/cceDUpe5.s 			page 15


 640 0388 23348100 		sd	s0,8(sp)
 641              		.cfi_offset 8, -8
 642 038c 13040101 		addi	s0,sp,16
 643              		.cfi_def_cfa 8, 0
 162:src/slabAllocator.cpp ****     if(slab->prev == nullptr) //same as slab == *slab_head
 644              		.loc 1 162 5
 645              		.loc 1 162 14 is_stmt 0
 646 0390 83370500 		ld	a5,0(a0)
 647              		.loc 1 162 5
 648 0394 63860702 		beqz	a5,.L44
 163:src/slabAllocator.cpp ****     {
 164:src/slabAllocator.cpp ****         if(slab->next) slab->next->prev = nullptr;
 165:src/slabAllocator.cpp ****         (*slab_head) = slab->next;
 166:src/slabAllocator.cpp ****         slab->next = slab->prev = nullptr;
 167:src/slabAllocator.cpp ****     }
 168:src/slabAllocator.cpp ****     else
 169:src/slabAllocator.cpp ****     {
 170:src/slabAllocator.cpp ****         slab->prev->next = slab->next;
 649              		.loc 1 170 9 is_stmt 1
 650              		.loc 1 170 34 is_stmt 0
 651 0398 03378500 		ld	a4,8(a0)
 652              		.loc 1 170 26
 653 039c 23B4E700 		sd	a4,8(a5)
 171:src/slabAllocator.cpp ****         if(slab->next) slab->next->prev = slab->prev;
 654              		.loc 1 171 9 is_stmt 1
 655 03a0 63060700 		beqz	a4,.L42
 656              		.loc 1 171 24 discriminator 1
 657              		.loc 1 171 49 is_stmt 0 discriminator 1
 658 03a4 83370500 		ld	a5,0(a0)
 659              		.loc 1 171 41 discriminator 1
 660 03a8 2330F700 		sd	a5,0(a4)
 661              	.L42:
 172:src/slabAllocator.cpp ****         slab->next = slab->prev = nullptr;
 662              		.loc 1 172 9 is_stmt 1
 663              		.loc 1 172 33 is_stmt 0
 664 03ac 23300500 		sd	zero,0(a0)
 665              		.loc 1 172 20
 666 03b0 23340500 		sd	zero,8(a0)
 667              	.L38:
 173:src/slabAllocator.cpp ****     }
 174:src/slabAllocator.cpp **** }
 668              		.loc 1 174 1
 669 03b4 03348100 		ld	s0,8(sp)
 670              		.cfi_remember_state
 671              		.cfi_restore 8
 672              		.cfi_def_cfa 2, 16
 673 03b8 13010101 		addi	sp,sp,16
 674              		.cfi_def_cfa_offset 0
 675 03bc 67800000 		jr	ra
 676              	.L44:
 677              		.cfi_restore_state
 164:src/slabAllocator.cpp ****         (*slab_head) = slab->next;
 678              		.loc 1 164 9 is_stmt 1
 164:src/slabAllocator.cpp ****         (*slab_head) = slab->next;
 679              		.loc 1 164 18 is_stmt 0
 680 03c0 83378500 		ld	a5,8(a0)
 164:src/slabAllocator.cpp ****         (*slab_head) = slab->next;
GAS LISTING /tmp/cceDUpe5.s 			page 16


 681              		.loc 1 164 9
 682 03c4 63840700 		beqz	a5,.L40
 164:src/slabAllocator.cpp ****         (*slab_head) = slab->next;
 683              		.loc 1 164 24 is_stmt 1 discriminator 1
 164:src/slabAllocator.cpp ****         (*slab_head) = slab->next;
 684              		.loc 1 164 41 is_stmt 0 discriminator 1
 685 03c8 23B00700 		sd	zero,0(a5)
 686              	.L40:
 165:src/slabAllocator.cpp ****         slab->next = slab->prev = nullptr;
 687              		.loc 1 165 9 is_stmt 1
 165:src/slabAllocator.cpp ****         slab->next = slab->prev = nullptr;
 688              		.loc 1 165 30 is_stmt 0
 689 03cc 83378500 		ld	a5,8(a0)
 165:src/slabAllocator.cpp ****         slab->next = slab->prev = nullptr;
 690              		.loc 1 165 22
 691 03d0 23B0F500 		sd	a5,0(a1)
 166:src/slabAllocator.cpp ****     }
 692              		.loc 1 166 9 is_stmt 1
 166:src/slabAllocator.cpp ****     }
 693              		.loc 1 166 33 is_stmt 0
 694 03d4 23300500 		sd	zero,0(a0)
 166:src/slabAllocator.cpp ****     }
 695              		.loc 1 166 20
 696 03d8 23340500 		sd	zero,8(a0)
 697 03dc 6FF09FFD 		j	.L38
 698              		.cfi_endproc
 699              	.LFE15:
 701              		.align	2
 702              		.globl	_Z16putPartialToFullP12kmem_cache_s
 704              	_Z16putPartialToFullP12kmem_cache_s:
 705              	.LFB16:
 175:src/slabAllocator.cpp **** 
 176:src/slabAllocator.cpp **** void putPartialToFull(kmem_cache_t* cachep)
 177:src/slabAllocator.cpp **** {
 706              		.loc 1 177 1 is_stmt 1
 707              		.cfi_startproc
 708              	.LVL54:
 709 03e0 130101FE 		addi	sp,sp,-32
 710              		.cfi_def_cfa_offset 32
 711 03e4 233C1100 		sd	ra,24(sp)
 712 03e8 23388100 		sd	s0,16(sp)
 713 03ec 23349100 		sd	s1,8(sp)
 714 03f0 23302101 		sd	s2,0(sp)
 715              		.cfi_offset 1, -8
 716              		.cfi_offset 8, -16
 717              		.cfi_offset 9, -24
 718              		.cfi_offset 18, -32
 719 03f4 13040102 		addi	s0,sp,32
 720              		.cfi_def_cfa 8, 0
 721 03f8 93040500 		mv	s1,a0
 178:src/slabAllocator.cpp ****     slab_t* slab = cachep->slabs_partial;
 722              		.loc 1 178 5
 723              		.loc 1 178 13 is_stmt 0
 724 03fc 03390505 		ld	s2,80(a0)
 725              	.LVL55:
 179:src/slabAllocator.cpp ****     removeFromSlabList(slab, &cachep->slabs_partial);
 726              		.loc 1 179 5 is_stmt 1
GAS LISTING /tmp/cceDUpe5.s 			page 17


 727              		.loc 1 179 23 is_stmt 0
 728 0400 93050505 		addi	a1,a0,80
 729 0404 13050900 		mv	a0,s2
 730              	.LVL56:
 731 0408 97000000 		call	_Z18removeFromSlabListP6slab_sPS0_
 731      E7800000 
 732              	.LVL57:
 180:src/slabAllocator.cpp ****     insertIntoSlabList(slab, &cachep->slabs_full);
 733              		.loc 1 180 5 is_stmt 1
 734              		.loc 1 180 23 is_stmt 0
 735 0410 93858404 		addi	a1,s1,72
 736 0414 13050900 		mv	a0,s2
 737 0418 97000000 		call	_Z18insertIntoSlabListP6slab_sPS0_
 737      E7800000 
 738              	.LVL58:
 181:src/slabAllocator.cpp **** }
 739              		.loc 1 181 1
 740 0420 83308101 		ld	ra,24(sp)
 741              		.cfi_restore 1
 742 0424 03340101 		ld	s0,16(sp)
 743              		.cfi_restore 8
 744              		.cfi_def_cfa 2, 32
 745 0428 83348100 		ld	s1,8(sp)
 746              		.cfi_restore 9
 747              	.LVL59:
 748 042c 03390100 		ld	s2,0(sp)
 749              		.cfi_restore 18
 750              	.LVL60:
 751 0430 13010102 		addi	sp,sp,32
 752              		.cfi_def_cfa_offset 0
 753 0434 67800000 		jr	ra
 754              		.cfi_endproc
 755              	.LFE16:
 757              		.align	2
 758              		.globl	_Z17putEmptyToPartialP12kmem_cache_s
 760              	_Z17putEmptyToPartialP12kmem_cache_s:
 761              	.LFB17:
 182:src/slabAllocator.cpp **** 
 183:src/slabAllocator.cpp **** void putEmptyToPartial(kmem_cache_t* cachep)
 184:src/slabAllocator.cpp **** {
 762              		.loc 1 184 1 is_stmt 1
 763              		.cfi_startproc
 764              	.LVL61:
 765 0438 130101FE 		addi	sp,sp,-32
 766              		.cfi_def_cfa_offset 32
 767 043c 233C1100 		sd	ra,24(sp)
 768 0440 23388100 		sd	s0,16(sp)
 769 0444 23349100 		sd	s1,8(sp)
 770 0448 23302101 		sd	s2,0(sp)
 771              		.cfi_offset 1, -8
 772              		.cfi_offset 8, -16
 773              		.cfi_offset 9, -24
 774              		.cfi_offset 18, -32
 775 044c 13040102 		addi	s0,sp,32
 776              		.cfi_def_cfa 8, 0
 777 0450 93040500 		mv	s1,a0
 185:src/slabAllocator.cpp ****     slab_t* slab = cachep->slabs_empty;
GAS LISTING /tmp/cceDUpe5.s 			page 18


 778              		.loc 1 185 5
 779              		.loc 1 185 13 is_stmt 0
 780 0454 03390504 		ld	s2,64(a0)
 781              	.LVL62:
 186:src/slabAllocator.cpp ****     removeFromSlabList(slab, &cachep->slabs_empty);
 782              		.loc 1 186 5 is_stmt 1
 783              		.loc 1 186 23 is_stmt 0
 784 0458 93050504 		addi	a1,a0,64
 785 045c 13050900 		mv	a0,s2
 786              	.LVL63:
 787 0460 97000000 		call	_Z18removeFromSlabListP6slab_sPS0_
 787      E7800000 
 788              	.LVL64:
 187:src/slabAllocator.cpp ****     insertIntoSlabList(slab, &cachep->slabs_partial);
 789              		.loc 1 187 5 is_stmt 1
 790              		.loc 1 187 23 is_stmt 0
 791 0468 93850405 		addi	a1,s1,80
 792 046c 13050900 		mv	a0,s2
 793 0470 97000000 		call	_Z18insertIntoSlabListP6slab_sPS0_
 793      E7800000 
 794              	.LVL65:
 188:src/slabAllocator.cpp **** }
 795              		.loc 1 188 1
 796 0478 83308101 		ld	ra,24(sp)
 797              		.cfi_restore 1
 798 047c 03340101 		ld	s0,16(sp)
 799              		.cfi_restore 8
 800              		.cfi_def_cfa 2, 32
 801 0480 83348100 		ld	s1,8(sp)
 802              		.cfi_restore 9
 803              	.LVL66:
 804 0484 03390100 		ld	s2,0(sp)
 805              		.cfi_restore 18
 806              	.LVL67:
 807 0488 13010102 		addi	sp,sp,32
 808              		.cfi_def_cfa_offset 0
 809 048c 67800000 		jr	ra
 810              		.cfi_endproc
 811              	.LFE17:
 813              		.align	2
 814              		.globl	_Z14removeFullSlabP12kmem_cache_sP6slab_s
 816              	_Z14removeFullSlabP12kmem_cache_sP6slab_s:
 817              	.LFB18:
 189:src/slabAllocator.cpp **** 
 190:src/slabAllocator.cpp **** void removeFullSlab(kmem_cache_t* cachep, slab_t* slab)
 191:src/slabAllocator.cpp **** {
 818              		.loc 1 191 1 is_stmt 1
 819              		.cfi_startproc
 820              	.LVL68:
 821 0490 130101FE 		addi	sp,sp,-32
 822              		.cfi_def_cfa_offset 32
 823 0494 233C1100 		sd	ra,24(sp)
 824 0498 23388100 		sd	s0,16(sp)
 825 049c 23349100 		sd	s1,8(sp)
 826 04a0 23302101 		sd	s2,0(sp)
 827              		.cfi_offset 1, -8
 828              		.cfi_offset 8, -16
GAS LISTING /tmp/cceDUpe5.s 			page 19


 829              		.cfi_offset 9, -24
 830              		.cfi_offset 18, -32
 831 04a4 13040102 		addi	s0,sp,32
 832              		.cfi_def_cfa 8, 0
 833 04a8 13090500 		mv	s2,a0
 834 04ac 93840500 		mv	s1,a1
 192:src/slabAllocator.cpp ****     removeFromSlabList(slab, &cachep->slabs_full);
 835              		.loc 1 192 5
 836              		.loc 1 192 23 is_stmt 0
 837 04b0 93058504 		addi	a1,a0,72
 838              	.LVL69:
 839 04b4 13850400 		mv	a0,s1
 840              	.LVL70:
 841 04b8 97000000 		call	_Z18removeFromSlabListP6slab_sPS0_
 841      E7800000 
 842              	.LVL71:
 193:src/slabAllocator.cpp ****     insertIntoSlabList(slab, &cachep->slabs_partial);
 843              		.loc 1 193 5 is_stmt 1
 844              		.loc 1 193 23 is_stmt 0
 845 04c0 93050905 		addi	a1,s2,80
 846 04c4 13850400 		mv	a0,s1
 847 04c8 97000000 		call	_Z18insertIntoSlabListP6slab_sPS0_
 847      E7800000 
 848              	.LVL72:
 194:src/slabAllocator.cpp **** }
 849              		.loc 1 194 1
 850 04d0 83308101 		ld	ra,24(sp)
 851              		.cfi_restore 1
 852 04d4 03340101 		ld	s0,16(sp)
 853              		.cfi_restore 8
 854              		.cfi_def_cfa 2, 32
 855 04d8 83348100 		ld	s1,8(sp)
 856              		.cfi_restore 9
 857              	.LVL73:
 858 04dc 03390100 		ld	s2,0(sp)
 859              		.cfi_restore 18
 860              	.LVL74:
 861 04e0 13010102 		addi	sp,sp,32
 862              		.cfi_def_cfa_offset 0
 863 04e4 67800000 		jr	ra
 864              		.cfi_endproc
 865              	.LFE18:
 867              		.align	2
 868              		.globl	_Z17removePartialSlabP12kmem_cache_sP6slab_s
 870              	_Z17removePartialSlabP12kmem_cache_sP6slab_s:
 871              	.LFB19:
 195:src/slabAllocator.cpp **** 
 196:src/slabAllocator.cpp **** void removePartialSlab(kmem_cache_t * cachep, slab_t* slab)
 197:src/slabAllocator.cpp **** {
 872              		.loc 1 197 1 is_stmt 1
 873              		.cfi_startproc
 874              	.LVL75:
 875 04e8 130101FE 		addi	sp,sp,-32
 876              		.cfi_def_cfa_offset 32
 877 04ec 233C1100 		sd	ra,24(sp)
 878 04f0 23388100 		sd	s0,16(sp)
 879 04f4 23349100 		sd	s1,8(sp)
GAS LISTING /tmp/cceDUpe5.s 			page 20


 880 04f8 23302101 		sd	s2,0(sp)
 881              		.cfi_offset 1, -8
 882              		.cfi_offset 8, -16
 883              		.cfi_offset 9, -24
 884              		.cfi_offset 18, -32
 885 04fc 13040102 		addi	s0,sp,32
 886              		.cfi_def_cfa 8, 0
 887 0500 13090500 		mv	s2,a0
 888 0504 93840500 		mv	s1,a1
 198:src/slabAllocator.cpp ****     removeFromSlabList(slab, &cachep->slabs_partial);
 889              		.loc 1 198 5
 890              		.loc 1 198 23 is_stmt 0
 891 0508 93050505 		addi	a1,a0,80
 892              	.LVL76:
 893 050c 13850400 		mv	a0,s1
 894              	.LVL77:
 895 0510 97000000 		call	_Z18removeFromSlabListP6slab_sPS0_
 895      E7800000 
 896              	.LVL78:
 199:src/slabAllocator.cpp ****     insertIntoSlabList(slab, &cachep->slabs_empty);
 897              		.loc 1 199 5 is_stmt 1
 898              		.loc 1 199 23 is_stmt 0
 899 0518 93050904 		addi	a1,s2,64
 900 051c 13850400 		mv	a0,s1
 901 0520 97000000 		call	_Z18insertIntoSlabListP6slab_sPS0_
 901      E7800000 
 902              	.LVL79:
 200:src/slabAllocator.cpp **** }
 903              		.loc 1 200 1
 904 0528 83308101 		ld	ra,24(sp)
 905              		.cfi_restore 1
 906 052c 03340101 		ld	s0,16(sp)
 907              		.cfi_restore 8
 908              		.cfi_def_cfa 2, 32
 909 0530 83348100 		ld	s1,8(sp)
 910              		.cfi_restore 9
 911              	.LVL80:
 912 0534 03390100 		ld	s2,0(sp)
 913              		.cfi_restore 18
 914              	.LVL81:
 915 0538 13010102 		addi	sp,sp,32
 916              		.cfi_def_cfa_offset 0
 917 053c 67800000 		jr	ra
 918              		.cfi_endproc
 919              	.LFE19:
 921              		.align	2
 922              		.globl	_Z12allocateSlabP12kmem_cache_s
 924              	_Z12allocateSlabP12kmem_cache_s:
 925              	.LFB20:
 201:src/slabAllocator.cpp **** 
 202:src/slabAllocator.cpp **** void allocateSlab(kmem_cache_t* cachep)
 203:src/slabAllocator.cpp **** {
 926              		.loc 1 203 1 is_stmt 1
 927              		.cfi_startproc
 928              	.LVL82:
 929 0540 130101FD 		addi	sp,sp,-48
 930              		.cfi_def_cfa_offset 48
GAS LISTING /tmp/cceDUpe5.s 			page 21


 931 0544 23341102 		sd	ra,40(sp)
 932 0548 23308102 		sd	s0,32(sp)
 933 054c 233C9100 		sd	s1,24(sp)
 934 0550 23382101 		sd	s2,16(sp)
 935 0554 23343101 		sd	s3,8(sp)
 936              		.cfi_offset 1, -8
 937              		.cfi_offset 8, -16
 938              		.cfi_offset 9, -24
 939              		.cfi_offset 18, -32
 940              		.cfi_offset 19, -40
 941 0558 13040103 		addi	s0,sp,48
 942              		.cfi_def_cfa 8, 0
 943 055c 93090500 		mv	s3,a0
 204:src/slabAllocator.cpp ****     slab_t* newSlab = (slab_t*)buddy_alloc(slabAllocator->buddy,cachep->slab_size);
 944              		.loc 1 204 5
 945              		.loc 1 204 43 is_stmt 0
 946 0560 83358505 		ld	a1,88(a0)
 947 0564 97070000 		ld	a5,.LANCHOR0
 947      83B70700 
 948 056c 03B50700 		ld	a0,0(a5)
 949              	.LVL83:
 950 0570 97000000 		call	_Z11buddy_allocP14buddyAllocatorm@plt
 950      E7800000 
 951              	.LVL84:
 205:src/slabAllocator.cpp ****     if(newSlab == nullptr)
 952              		.loc 1 205 5 is_stmt 1
 953 0578 630C0508 		beqz	a0,.L53
 954 057c 93040500 		mv	s1,a0
 206:src/slabAllocator.cpp ****         return;
 207:src/slabAllocator.cpp ****     newSlab->next = cachep->slabs_empty;
 955              		.loc 1 207 5
 956              		.loc 1 207 29 is_stmt 0
 957 0580 83B70904 		ld	a5,64(s3)
 958              		.loc 1 207 19
 959 0584 2334F500 		sd	a5,8(a0)
 208:src/slabAllocator.cpp ****     if(cachep->slabs_empty != nullptr)
 960              		.loc 1 208 5 is_stmt 1
 961 0588 63840700 		beqz	a5,.L55
 209:src/slabAllocator.cpp ****         cachep->slabs_empty->prev = newSlab;
 962              		.loc 1 209 9
 963              		.loc 1 209 35 is_stmt 0
 964 058c 23B0A700 		sd	a0,0(a5)
 965              	.LVL85:
 966              	.L55:
 210:src/slabAllocator.cpp ****     cachep->slabs_empty = newSlab;
 967              		.loc 1 210 5 is_stmt 1
 968              		.loc 1 210 25 is_stmt 0
 969 0590 23B09904 		sd	s1,64(s3)
 211:src/slabAllocator.cpp ****     newSlab->prev = nullptr;
 970              		.loc 1 211 5 is_stmt 1
 971              		.loc 1 211 19 is_stmt 0
 972 0594 23B00400 		sd	zero,0(s1)
 212:src/slabAllocator.cpp **** 
 213:src/slabAllocator.cpp ****     newSlab->numOfAllocatedObjects = 0;
 973              		.loc 1 213 5 is_stmt 1
 974              		.loc 1 213 36 is_stmt 0
 975 0598 23B00402 		sd	zero,32(s1)
GAS LISTING /tmp/cceDUpe5.s 			page 22


 214:src/slabAllocator.cpp ****     newSlab->owner = cachep;
 976              		.loc 1 214 5 is_stmt 1
 977              		.loc 1 214 20 is_stmt 0
 978 059c 23B83401 		sd	s3,16(s1)
 215:src/slabAllocator.cpp ****     size_t sizeInBytes = cachep->slab_size*BLOCK_SIZE;
 979              		.loc 1 215 5 is_stmt 1
 980              		.loc 1 215 34 is_stmt 0
 981 05a0 83B68905 		ld	a3,88(s3)
 982              		.loc 1 215 12
 983 05a4 9396C600 		slli	a3,a3,12
 984              	.LVL86:
 216:src/slabAllocator.cpp ****     newSlab->numOfObjects = (sizeInBytes - sizeof(slab_t)) / cachep->obj_size; // TODO can this par
 985              		.loc 1 216 5 is_stmt 1
 986              		.loc 1 216 42 is_stmt 0
 987 05a8 938686BD 		addi	a3,a3,-1064
 988              	.LVL87:
 989              		.loc 1 216 70
 990 05ac 83B70906 		ld	a5,96(s3)
 991              		.loc 1 216 60
 992 05b0 B3D6F602 		divu	a3,a3,a5
 993              	.LVL88:
 994              		.loc 1 216 27
 995 05b4 23BCD400 		sd	a3,24(s1)
 996              	.LVL89:
 217:src/slabAllocator.cpp ****     for(size_t i = 0; i < (newSlab->numOfObjects + 7) / 8;i++)
 997              		.loc 1 217 5 is_stmt 1
 998              	.LBB5:
 999              		.loc 1 217 16 is_stmt 0
 1000 05b8 13070000 		li	a4,0
 1001              	.LVL90:
 1002              	.L57:
 1003              		.loc 1 217 25 is_stmt 1 discriminator 3
 1004              		.loc 1 217 50 is_stmt 0 discriminator 3
 1005 05bc 93877600 		addi	a5,a3,7
 1006              		.loc 1 217 55 discriminator 3
 1007 05c0 93D73700 		srli	a5,a5,3
 1008              		.loc 1 217 25 discriminator 3
 1009 05c4 637AF700 		bleu	a5,a4,.L56
 218:src/slabAllocator.cpp ****         newSlab->allocated[i] = 0;
 1010              		.loc 1 218 9 is_stmt 1 discriminator 2
 1011              		.loc 1 218 31 is_stmt 0 discriminator 2
 1012 05c8 B387E400 		add	a5,s1,a4
 1013 05cc 23840702 		sb	zero,40(a5)
 217:src/slabAllocator.cpp ****     for(size_t i = 0; i < (newSlab->numOfObjects + 7) / 8;i++)
 1014              		.loc 1 217 5 is_stmt 1 discriminator 2
 1015 05d0 13071700 		addi	a4,a4,1
 1016              	.LVL91:
 1017 05d4 6FF09FFE 		j	.L57
 1018              	.L56:
 1019              	.LBE5:
 219:src/slabAllocator.cpp **** 
 220:src/slabAllocator.cpp ****     if(cachep->ctor != nullptr)
 1020              		.loc 1 220 5
 1021              	.LBB6:
 1022              		.loc 1 220 16 is_stmt 0
 1023 05d8 83B78906 		ld	a5,104(s3)
 1024              		.loc 1 220 5
GAS LISTING /tmp/cceDUpe5.s 			page 23


 1025 05dc 638A0702 		beqz	a5,.L53
 1026              	.LBB7:
 221:src/slabAllocator.cpp ****     {
 222:src/slabAllocator.cpp ****         for(size_t i = 0;i < newSlab->numOfObjects;i++)
 1027              		.loc 1 222 20
 1028 05e0 13090000 		li	s2,0
 1029              	.LVL92:
 1030              	.L58:
 1031              		.loc 1 222 28 is_stmt 1 discriminator 3
 1032              		.loc 1 222 39 is_stmt 0 discriminator 3
 1033 05e4 83B78401 		ld	a5,24(s1)
 1034              		.loc 1 222 28 discriminator 3
 1035 05e8 6374F902 		bleu	a5,s2,.L53
 223:src/slabAllocator.cpp ****             cachep->ctor((void*)((size_t)newSlab + sizeof(slab_t) + i*newSlab->owner->obj_size));
 1036              		.loc 1 223 13 is_stmt 1 discriminator 2
 1037              		.loc 1 223 21 is_stmt 0 discriminator 2
 1038 05ec 83B78906 		ld	a5,104(s3)
 1039              		.loc 1 223 80 discriminator 2
 1040 05f0 03B70401 		ld	a4,16(s1)
 1041              		.loc 1 223 87 discriminator 2
 1042 05f4 03350706 		ld	a0,96(a4)
 1043              		.loc 1 223 70 discriminator 2
 1044 05f8 33052503 		mul	a0,a0,s2
 1045              		.loc 1 223 67 discriminator 2
 1046 05fc 3385A400 		add	a0,s1,a0
 1047              		.loc 1 223 25 discriminator 2
 1048 0600 13058542 		addi	a0,a0,1064
 1049 0604 E7800700 		jalr	a5
 1050              	.LVL93:
 222:src/slabAllocator.cpp ****             cachep->ctor((void*)((size_t)newSlab + sizeof(slab_t) + i*newSlab->owner->obj_size));
 1051              		.loc 1 222 9 is_stmt 1 discriminator 2
 1052 0608 13091900 		addi	s2,s2,1
 1053              	.LVL94:
 1054 060c 6FF09FFD 		j	.L58
 1055              	.LVL95:
 1056              	.L53:
 1057              	.LBE7:
 1058              	.LBE6:
 224:src/slabAllocator.cpp ****     }
 225:src/slabAllocator.cpp **** }
 1059              		.loc 1 225 1 is_stmt 0
 1060 0610 83308102 		ld	ra,40(sp)
 1061              		.cfi_restore 1
 1062 0614 03340102 		ld	s0,32(sp)
 1063              		.cfi_restore 8
 1064              		.cfi_def_cfa 2, 48
 1065 0618 83348101 		ld	s1,24(sp)
 1066              		.cfi_restore 9
 1067 061c 03390101 		ld	s2,16(sp)
 1068              		.cfi_restore 18
 1069 0620 83398100 		ld	s3,8(sp)
 1070              		.cfi_restore 19
 1071              	.LVL96:
 1072 0624 13010103 		addi	sp,sp,48
 1073              		.cfi_def_cfa_offset 0
 1074 0628 67800000 		jr	ra
 1075              		.cfi_endproc
GAS LISTING /tmp/cceDUpe5.s 			page 24


 1076              	.LFE20:
 1078              		.align	2
 1079              		.globl	_Z18getOptimalSlabSizem
 1081              	_Z18getOptimalSlabSizem:
 1082              	.LFB21:
 226:src/slabAllocator.cpp **** 
 227:src/slabAllocator.cpp **** size_t getOptimalSlabSize(size_t obj_size)
 228:src/slabAllocator.cpp **** {
 1083              		.loc 1 228 1 is_stmt 1
 1084              		.cfi_startproc
 1085              	.LVL97:
 1086 062c 130101FF 		addi	sp,sp,-16
 1087              		.cfi_def_cfa_offset 16
 1088 0630 23348100 		sd	s0,8(sp)
 1089              		.cfi_offset 8, -8
 1090 0634 13040101 		addi	s0,sp,16
 1091              		.cfi_def_cfa 8, 0
 229:src/slabAllocator.cpp ****     size_t bestSize = BLOCK_SIZE;
 1092              		.loc 1 229 5
 1093              	.LVL98:
 1094              		.loc 1 229 12 is_stmt 0
 1095 0638 B7170000 		li	a5,4096
 1096              	.LVL99:
 1097              	.L62:
 230:src/slabAllocator.cpp ****     while(bestSize < obj_size + sizeof(slab_t))
 1098              		.loc 1 230 5 is_stmt 1
 1099              		.loc 1 230 20
 1100              		.loc 1 230 31 is_stmt 0
 1101 063c 13078542 		addi	a4,a0,1064
 1102              		.loc 1 230 20
 1103 0640 63F6E700 		bleu	a4,a5,.L61
 231:src/slabAllocator.cpp ****         bestSize<<=1;
 1104              		.loc 1 231 9 is_stmt 1
 1105              		.loc 1 231 17 is_stmt 0
 1106 0644 93971700 		slli	a5,a5,1
 1107              	.LVL100:
 230:src/slabAllocator.cpp ****     while(bestSize < obj_size + sizeof(slab_t))
 1108              		.loc 1 230 5
 1109 0648 6FF05FFF 		j	.L62
 1110              	.L61:
 232:src/slabAllocator.cpp ****     size_t optimalWaste = (bestSize - sizeof(slab_t)) % obj_size;
 1111              		.loc 1 232 5 is_stmt 1
 1112              		.loc 1 232 37 is_stmt 0
 1113 064c 938587BD 		addi	a1,a5,-1064
 1114              		.loc 1 232 12
 1115 0650 B3F5A502 		remu	a1,a1,a0
 1116              	.LVL101:
 233:src/slabAllocator.cpp **** 
 234:src/slabAllocator.cpp ****     //return bestSize / BLOCK_SIZE;
 235:src/slabAllocator.cpp **** 
 236:src/slabAllocator.cpp ****     static size_t lowerConst = 1;
 1117              		.loc 1 236 5 is_stmt 1
 237:src/slabAllocator.cpp ****     static size_t highConst = 4;
 1118              		.loc 1 237 5
 238:src/slabAllocator.cpp ****     for(size_t i = lowerConst;i<=highConst;i++)
 1119              		.loc 1 238 5
 1120              	.LBB8:
GAS LISTING /tmp/cceDUpe5.s 			page 25


 1121              		.loc 1 238 16 is_stmt 0
 1122 0654 93061000 		li	a3,1
 1123 0658 6F008000 		j	.L65
 1124              	.LVL102:
 1125              	.L64:
 1126              		.loc 1 238 5 is_stmt 1 discriminator 2
 1127 065c 93861600 		addi	a3,a3,1
 1128              	.LVL103:
 1129              	.L65:
 1130              		.loc 1 238 32 discriminator 1
 1131 0660 13074000 		li	a4,4
 1132 0664 6360D702 		bgtu	a3,a4,.L63
 1133              	.LBB9:
 239:src/slabAllocator.cpp ****     {
 240:src/slabAllocator.cpp ****         size_t newSize = bestSize << i;
 1134              		.loc 1 240 9
 1135              		.loc 1 240 16 is_stmt 0
 1136 0668 3396D700 		sll	a2,a5,a3
 1137              	.LVL104:
 241:src/slabAllocator.cpp ****         size_t newWaste = (newSize - sizeof(slab_t)) % obj_size;
 1138              		.loc 1 241 9 is_stmt 1
 1139              		.loc 1 241 36 is_stmt 0
 1140 066c 130786BD 		addi	a4,a2,-1064
 1141              		.loc 1 241 16
 1142 0670 3377A702 		remu	a4,a4,a0
 1143              	.LVL105:
 242:src/slabAllocator.cpp ****         if(newWaste < optimalWaste)
 1144              		.loc 1 242 9 is_stmt 1
 1145 0674 E374B7FE 		bleu	a1,a4,.L64
 243:src/slabAllocator.cpp ****         {
 244:src/slabAllocator.cpp ****             optimalWaste = newWaste;
 1146              		.loc 1 244 26 is_stmt 0
 1147 0678 93050700 		mv	a1,a4
 1148              	.LVL106:
 245:src/slabAllocator.cpp ****             bestSize = newSize;
 1149              		.loc 1 245 22
 1150 067c 93070600 		mv	a5,a2
 1151              	.LVL107:
 1152 0680 6FF0DFFD 		j	.L64
 1153              	.LVL108:
 1154              	.L63:
 1155              	.LBE9:
 1156              	.LBE8:
 246:src/slabAllocator.cpp ****         }
 247:src/slabAllocator.cpp ****     }
 248:src/slabAllocator.cpp **** 
 249:src/slabAllocator.cpp ****     return bestSize / BLOCK_SIZE;
 1157              		.loc 1 249 5 is_stmt 1
 250:src/slabAllocator.cpp **** }
 1158              		.loc 1 250 1 is_stmt 0
 1159 0684 13D5C700 		srli	a0,a5,12
 1160              	.LVL109:
 1161 0688 03348100 		ld	s0,8(sp)
 1162              		.cfi_restore 8
 1163              		.cfi_def_cfa 2, 16
 1164 068c 13010101 		addi	sp,sp,16
 1165              		.cfi_def_cfa_offset 0
GAS LISTING /tmp/cceDUpe5.s 			page 26


 1166 0690 67800000 		jr	ra
 1167              		.cfi_endproc
 1168              	.LFE21:
 1170              		.align	2
 1171              		.globl	_Z8findSlabP12kmem_cache_sPKv
 1173              	_Z8findSlabP12kmem_cache_sPKv:
 1174              	.LFB22:
 251:src/slabAllocator.cpp **** 
 252:src/slabAllocator.cpp **** //finds the slab where objp is
 253:src/slabAllocator.cpp **** slab_t* findSlab(kmem_cache_t* cachep, const void* objp)
 254:src/slabAllocator.cpp **** {
 1175              		.loc 1 254 1 is_stmt 1
 1176              		.cfi_startproc
 1177              	.LVL110:
 1178 0694 130101FF 		addi	sp,sp,-16
 1179              		.cfi_def_cfa_offset 16
 1180 0698 23348100 		sd	s0,8(sp)
 1181              		.cfi_offset 8, -8
 1182 069c 13040101 		addi	s0,sp,16
 1183              		.cfi_def_cfa 8, 0
 1184 06a0 93060500 		mv	a3,a0
 255:src/slabAllocator.cpp ****     if(cachep == nullptr || objp == nullptr)
 1185              		.loc 1 255 5
 1186 06a4 630C0502 		beqz	a0,.L68
 1187              		.loc 1 255 26 is_stmt 0 discriminator 1
 1188 06a8 638A0506 		beqz	a1,.L76
 256:src/slabAllocator.cpp ****         return nullptr;
 257:src/slabAllocator.cpp ****     slab_t* slab = cachep->slabs_full;
 1189              		.loc 1 257 5 is_stmt 1
 1190              		.loc 1 257 13 is_stmt 0
 1191 06ac 03358504 		ld	a0,72(a0)
 1192              	.LVL111:
 1193 06b0 6F008000 		j	.L72
 1194              	.LVL112:
 1195              	.L71:
 1196              	.LBB10:
 258:src/slabAllocator.cpp ****     while(slab != nullptr)
 259:src/slabAllocator.cpp ****     {
 260:src/slabAllocator.cpp ****         size_t endAddr = (size_t)slab + sizeof(slab_t) + slab->numOfObjects*slab->owner->obj_size;
 261:src/slabAllocator.cpp ****         if((size_t)objp > (size_t)slab && (size_t)objp < endAddr)
 262:src/slabAllocator.cpp ****             return slab;
 263:src/slabAllocator.cpp ****         slab = slab->next;
 1197              		.loc 1 263 9 is_stmt 1
 1198              		.loc 1 263 14 is_stmt 0
 1199 06b4 03358500 		ld	a0,8(a0)
 1200              	.LVL113:
 1201              	.L72:
 1202              	.LBE10:
 258:src/slabAllocator.cpp ****     while(slab != nullptr)
 1203              		.loc 1 258 5 is_stmt 1
 258:src/slabAllocator.cpp ****     while(slab != nullptr)
 1204              		.loc 1 258 16
 1205 06b8 63080502 		beqz	a0,.L70
 1206              	.LBB11:
 260:src/slabAllocator.cpp ****         if((size_t)objp > (size_t)slab && (size_t)objp < endAddr)
 1207              		.loc 1 260 9
 260:src/slabAllocator.cpp ****         if((size_t)objp > (size_t)slab && (size_t)objp < endAddr)
GAS LISTING /tmp/cceDUpe5.s 			page 27


 1208              		.loc 1 260 64 is_stmt 0
 1209 06bc 83378501 		ld	a5,24(a0)
 260:src/slabAllocator.cpp ****         if((size_t)objp > (size_t)slab && (size_t)objp < endAddr)
 1210              		.loc 1 260 83
 1211 06c0 03370501 		ld	a4,16(a0)
 260:src/slabAllocator.cpp ****         if((size_t)objp > (size_t)slab && (size_t)objp < endAddr)
 1212              		.loc 1 260 90
 1213 06c4 03370706 		ld	a4,96(a4)
 260:src/slabAllocator.cpp ****         if((size_t)objp > (size_t)slab && (size_t)objp < endAddr)
 1214              		.loc 1 260 76
 1215 06c8 B387E702 		mul	a5,a5,a4
 260:src/slabAllocator.cpp ****         if((size_t)objp > (size_t)slab && (size_t)objp < endAddr)
 1216              		.loc 1 260 56
 1217 06cc B387A700 		add	a5,a5,a0
 260:src/slabAllocator.cpp ****         if((size_t)objp > (size_t)slab && (size_t)objp < endAddr)
 1218              		.loc 1 260 16
 1219 06d0 93878742 		addi	a5,a5,1064
 1220              	.LVL114:
 261:src/slabAllocator.cpp ****             return slab;
 1221              		.loc 1 261 9 is_stmt 1
 1222 06d4 E370B5FE 		bgeu	a0,a1,.L71
 261:src/slabAllocator.cpp ****             return slab;
 1223              		.loc 1 261 40 is_stmt 0 discriminator 1
 1224 06d8 E3FEF5FC 		bgeu	a1,a5,.L71
 1225              	.LVL115:
 1226              	.L68:
 1227              	.LBE11:
 264:src/slabAllocator.cpp ****     }
 265:src/slabAllocator.cpp **** 
 266:src/slabAllocator.cpp ****     slab = cachep->slabs_partial;
 267:src/slabAllocator.cpp ****     while(slab != nullptr)
 268:src/slabAllocator.cpp ****     {
 269:src/slabAllocator.cpp ****         size_t endAddr = (size_t)slab + sizeof(slab_t) + slab->numOfObjects*slab->owner->obj_size;
 270:src/slabAllocator.cpp ****         if((size_t)objp > (size_t)slab && (size_t)objp < endAddr)
 271:src/slabAllocator.cpp ****             return slab;
 272:src/slabAllocator.cpp ****         slab = slab->next;
 273:src/slabAllocator.cpp ****     }
 274:src/slabAllocator.cpp **** 
 275:src/slabAllocator.cpp ****     return nullptr;
 276:src/slabAllocator.cpp **** }
 1228              		.loc 1 276 1
 1229 06dc 03348100 		ld	s0,8(sp)
 1230              		.cfi_remember_state
 1231              		.cfi_restore 8
 1232              		.cfi_def_cfa 2, 16
 1233 06e0 13010101 		addi	sp,sp,16
 1234              		.cfi_def_cfa_offset 0
 1235 06e4 67800000 		jr	ra
 1236              	.LVL116:
 1237              	.L70:
 1238              		.cfi_restore_state
 266:src/slabAllocator.cpp ****     while(slab != nullptr)
 1239              		.loc 1 266 5 is_stmt 1
 266:src/slabAllocator.cpp ****     while(slab != nullptr)
 1240              		.loc 1 266 10 is_stmt 0
 1241 06e8 03B50605 		ld	a0,80(a3)
 1242              	.LVL117:
GAS LISTING /tmp/cceDUpe5.s 			page 28


 1243 06ec 6F008000 		j	.L74
 1244              	.LVL118:
 1245              	.L73:
 1246              	.LBB12:
 272:src/slabAllocator.cpp ****     }
 1247              		.loc 1 272 9 is_stmt 1
 272:src/slabAllocator.cpp ****     }
 1248              		.loc 1 272 14 is_stmt 0
 1249 06f0 03358500 		ld	a0,8(a0)
 1250              	.LVL119:
 1251              	.L74:
 1252              	.LBE12:
 267:src/slabAllocator.cpp ****     {
 1253              		.loc 1 267 5 is_stmt 1
 267:src/slabAllocator.cpp ****     {
 1254              		.loc 1 267 16
 1255 06f4 E30405FE 		beqz	a0,.L68
 1256              	.LBB13:
 269:src/slabAllocator.cpp ****         if((size_t)objp > (size_t)slab && (size_t)objp < endAddr)
 1257              		.loc 1 269 9
 269:src/slabAllocator.cpp ****         if((size_t)objp > (size_t)slab && (size_t)objp < endAddr)
 1258              		.loc 1 269 64 is_stmt 0
 1259 06f8 83378501 		ld	a5,24(a0)
 269:src/slabAllocator.cpp ****         if((size_t)objp > (size_t)slab && (size_t)objp < endAddr)
 1260              		.loc 1 269 83
 1261 06fc 03370501 		ld	a4,16(a0)
 269:src/slabAllocator.cpp ****         if((size_t)objp > (size_t)slab && (size_t)objp < endAddr)
 1262              		.loc 1 269 90
 1263 0700 03370706 		ld	a4,96(a4)
 269:src/slabAllocator.cpp ****         if((size_t)objp > (size_t)slab && (size_t)objp < endAddr)
 1264              		.loc 1 269 76
 1265 0704 B387E702 		mul	a5,a5,a4
 269:src/slabAllocator.cpp ****         if((size_t)objp > (size_t)slab && (size_t)objp < endAddr)
 1266              		.loc 1 269 56
 1267 0708 B387A700 		add	a5,a5,a0
 269:src/slabAllocator.cpp ****         if((size_t)objp > (size_t)slab && (size_t)objp < endAddr)
 1268              		.loc 1 269 16
 1269 070c 93878742 		addi	a5,a5,1064
 1270              	.LVL120:
 270:src/slabAllocator.cpp ****             return slab;
 1271              		.loc 1 270 9 is_stmt 1
 1272 0710 E370B5FE 		bgeu	a0,a1,.L73
 270:src/slabAllocator.cpp ****             return slab;
 1273              		.loc 1 270 40 is_stmt 0 discriminator 1
 1274 0714 E3FEF5FC 		bgeu	a1,a5,.L73
 1275 0718 6FF05FFC 		j	.L68
 1276              	.LVL121:
 1277              	.L76:
 1278              	.LBE13:
 256:src/slabAllocator.cpp ****     slab_t* slab = cachep->slabs_full;
 1279              		.loc 1 256 16
 1280 071c 13850500 		mv	a0,a1
 1281              	.LVL122:
 1282 0720 6FF0DFFB 		j	.L68
 1283              		.cfi_endproc
 1284              	.LFE22:
 1286              		.align	2
GAS LISTING /tmp/cceDUpe5.s 			page 29


 1287              		.globl	_Z19resetAllocatedIndexP6slab_si
 1289              	_Z19resetAllocatedIndexP6slab_si:
 1290              	.LFB23:
 277:src/slabAllocator.cpp **** 
 278:src/slabAllocator.cpp **** void resetAllocatedIndex(slab_t* slab, int index)
 279:src/slabAllocator.cpp **** {
 1291              		.loc 1 279 1 is_stmt 1
 1292              		.cfi_startproc
 1293              	.LVL123:
 1294 0724 130101FF 		addi	sp,sp,-16
 1295              		.cfi_def_cfa_offset 16
 1296 0728 23348100 		sd	s0,8(sp)
 1297              		.cfi_offset 8, -8
 1298 072c 13040101 		addi	s0,sp,16
 1299              		.cfi_def_cfa 8, 0
 280:src/slabAllocator.cpp ****     slab->allocated[index / 8]=(uint8)slab->allocated[index/8] & ~(1 << (index%8));
 1300              		.loc 1 280 5
 1301              		.loc 1 280 60 is_stmt 0
 1302 0730 9BD7F541 		sraiw	a5,a1,31
 1303 0734 9BD7D701 		srliw	a5,a5,29
 1304 0738 BB85B700 		addw	a1,a5,a1
 1305              	.LVL124:
 1306 073c 1BD73540 		sraiw	a4,a1,3
 1307              		.loc 1 280 62
 1308 0740 3305E500 		add	a0,a0,a4
 1309              	.LVL125:
 1310              		.loc 1 280 32
 1311 0744 03078502 		lb	a4,40(a0)
 1312              		.loc 1 280 79
 1313 0748 93F57500 		andi	a1,a1,7
 1314 074c BB85F540 		subw	a1,a1,a5
 1315              		.loc 1 280 70
 1316 0750 93071000 		li	a5,1
 1317 0754 BB95B700 		sllw	a1,a5,a1
 1318              		.loc 1 280 64
 1319 0758 93C5F5FF 		not	a1,a1
 1320 075c B375B700 		and	a1,a4,a1
 1321              		.loc 1 280 31
 1322 0760 2304B502 		sb	a1,40(a0)
 281:src/slabAllocator.cpp **** }
 1323              		.loc 1 281 1
 1324 0764 03348100 		ld	s0,8(sp)
 1325              		.cfi_restore 8
 1326              		.cfi_def_cfa 2, 16
 1327 0768 13010101 		addi	sp,sp,16
 1328              		.cfi_def_cfa_offset 0
 1329 076c 67800000 		jr	ra
 1330              		.cfi_endproc
 1331              	.LFE23:
 1333              		.section	.rodata.str1.8
 1334              		.align	3
 1335              	.LC1:
 1336 0010 4F6E6520 		.string	"One slab info---------\n"
 1336      736C6162 
 1336      20696E66 
 1336      6F2D2D2D 
 1336      2D2D2D2D 
GAS LISTING /tmp/cceDUpe5.s 			page 30


 1337              		.align	3
 1338              	.LC2:
 1339 0028 536C6162 		.string	"Slab address "
 1339      20616464 
 1339      72657373 
 1339      2000
 1340 0036 0000     		.align	3
 1341              	.LC3:
 1342 0038 4E756D62 		.string	"Number of allocated objects "
 1342      6572206F 
 1342      6620616C 
 1342      6C6F6361 
 1342      74656420 
 1343 0055 000000   		.align	3
 1344              	.LC4:
 1345 0058 4E756D62 		.string	"Number of objects "
 1345      6572206F 
 1345      66206F62 
 1345      6A656374 
 1345      732000
 1346              		.text
 1347              		.align	2
 1348              		.globl	_Z13printSlabInfoP6slab_s
 1350              	_Z13printSlabInfoP6slab_s:
 1351              	.LFB24:
 282:src/slabAllocator.cpp **** 
 283:src/slabAllocator.cpp **** void printSlabInfo(slab_t* slab)
 284:src/slabAllocator.cpp **** {
 1352              		.loc 1 284 1 is_stmt 1
 1353              		.cfi_startproc
 1354              	.LVL126:
 1355 0770 130101FE 		addi	sp,sp,-32
 1356              		.cfi_def_cfa_offset 32
 1357 0774 233C1100 		sd	ra,24(sp)
 1358 0778 23388100 		sd	s0,16(sp)
 1359 077c 23349100 		sd	s1,8(sp)
 1360              		.cfi_offset 1, -8
 1361              		.cfi_offset 8, -16
 1362              		.cfi_offset 9, -24
 1363 0780 13040102 		addi	s0,sp,32
 1364              		.cfi_def_cfa 8, 0
 1365 0784 93040500 		mv	s1,a0
 285:src/slabAllocator.cpp ****     KConsole::trapPrintString("One slab info---------\n");
 1366              		.loc 1 285 5
 1367              		.loc 1 285 30 is_stmt 0
 1368 0788 17050000 		lla	a0,.LC1
 1368      13050500 
 1369              	.LVL127:
 1370 0790 97000000 		call	_ZN8KConsole15trapPrintStringEPKc@plt
 1370      E7800000 
 1371              	.LVL128:
 286:src/slabAllocator.cpp ****     KConsole::trapPrintStringInt("Slab address ",(size_t)slab,16);
 1372              		.loc 1 286 5 is_stmt 1
 1373              		.loc 1 286 33 is_stmt 0
 1374 0798 13060001 		li	a2,16
 1375 079c 93850400 		mv	a1,s1
 1376 07a0 17050000 		lla	a0,.LC2
GAS LISTING /tmp/cceDUpe5.s 			page 31


 1376      13050500 
 1377 07a8 97000000 		call	_ZN8KConsole18trapPrintStringIntEPKcmi@plt
 1377      E7800000 
 1378              	.LVL129:
 287:src/slabAllocator.cpp ****     KConsole::trapPrintStringInt("Number of allocated objects ",slab->numOfAllocatedObjects);
 1379              		.loc 1 287 5 is_stmt 1
 1380              		.loc 1 287 33 is_stmt 0
 1381 07b0 1306A000 		li	a2,10
 1382 07b4 83B50402 		ld	a1,32(s1)
 1383 07b8 17050000 		lla	a0,.LC3
 1383      13050500 
 1384 07c0 97000000 		call	_ZN8KConsole18trapPrintStringIntEPKcmi@plt
 1384      E7800000 
 1385              	.LVL130:
 288:src/slabAllocator.cpp ****     KConsole::trapPrintStringInt("Number of objects ", slab->numOfObjects);
 1386              		.loc 1 288 5 is_stmt 1
 1387              		.loc 1 288 33 is_stmt 0
 1388 07c8 1306A000 		li	a2,10
 1389 07cc 83B58401 		ld	a1,24(s1)
 1390 07d0 17050000 		lla	a0,.LC4
 1390      13050500 
 1391 07d8 97000000 		call	_ZN8KConsole18trapPrintStringIntEPKcmi@plt
 1391      E7800000 
 1392              	.LVL131:
 289:src/slabAllocator.cpp ****     /*for(size_t i = 0;i < (slab->numOfObjects + 7) / 8;i++)
 290:src/slabAllocator.cpp ****     {
 291:src/slabAllocator.cpp ****         KConsole::trapPrintInt(i);
 292:src/slabAllocator.cpp ****         KConsole::trapPrintString(" : ");
 293:src/slabAllocator.cpp ****         KConsole::trapPrintInt((size_t)slab->allocated[i], 16);
 294:src/slabAllocator.cpp ****         KConsole::trapPrintString("\n");
 295:src/slabAllocator.cpp ****     }*/
 296:src/slabAllocator.cpp **** }
 1393              		.loc 1 296 1
 1394 07e0 83308101 		ld	ra,24(sp)
 1395              		.cfi_restore 1
 1396 07e4 03340101 		ld	s0,16(sp)
 1397              		.cfi_restore 8
 1398              		.cfi_def_cfa 2, 32
 1399 07e8 83348100 		ld	s1,8(sp)
 1400              		.cfi_restore 9
 1401              	.LVL132:
 1402 07ec 13010102 		addi	sp,sp,32
 1403              		.cfi_def_cfa_offset 0
 1404 07f0 67800000 		jr	ra
 1405              		.cfi_endproc
 1406              	.LFE24:
 1408              		.align	2
 1409              		.globl	_Z16free_slab_objectP6slab_sPKv
 1411              	_Z16free_slab_objectP6slab_sPKv:
 1412              	.LFB25:
 297:src/slabAllocator.cpp **** 
 298:src/slabAllocator.cpp **** void free_slab_object(slab_t* slab, const void* objp)
 299:src/slabAllocator.cpp **** {
 1413              		.loc 1 299 1 is_stmt 1
 1414              		.cfi_startproc
 1415              	.LVL133:
 300:src/slabAllocator.cpp ****     if(slab == nullptr || objp == nullptr)
GAS LISTING /tmp/cceDUpe5.s 			page 32


 1416              		.loc 1 300 5
 1417 07f4 630A0512 		beqz	a0,.L89
 299:src/slabAllocator.cpp ****     if(slab == nullptr || objp == nullptr)
 1418              		.loc 1 299 1 is_stmt 0 discriminator 1
 1419 07f8 130101FD 		addi	sp,sp,-48
 1420              		.cfi_def_cfa_offset 48
 1421 07fc 23341102 		sd	ra,40(sp)
 1422 0800 23308102 		sd	s0,32(sp)
 1423 0804 233C9100 		sd	s1,24(sp)
 1424 0808 23382101 		sd	s2,16(sp)
 1425 080c 23343101 		sd	s3,8(sp)
 1426 0810 23304101 		sd	s4,0(sp)
 1427              		.cfi_offset 1, -8
 1428              		.cfi_offset 8, -16
 1429              		.cfi_offset 9, -24
 1430              		.cfi_offset 18, -32
 1431              		.cfi_offset 19, -40
 1432              		.cfi_offset 20, -48
 1433 0814 13040103 		addi	s0,sp,48
 1434              		.cfi_def_cfa 8, 0
 1435 0818 93040500 		mv	s1,a0
 1436 081c 93890500 		mv	s3,a1
 1437              		.loc 1 300 24 discriminator 1
 1438 0820 63840508 		beqz	a1,.L82
 301:src/slabAllocator.cpp ****         return;
 302:src/slabAllocator.cpp ****     int indexOfObject = ((size_t)objp - sizeof(slab_t) - (size_t)slab) / slab->owner->obj_size;
 1439              		.loc 1 302 5 is_stmt 1
 1440              		.loc 1 302 56 is_stmt 0
 1441 0824 3389A540 		sub	s2,a1,a0
 1442 0828 130989BD 		addi	s2,s2,-1064
 1443              		.loc 1 302 80
 1444 082c 033A0501 		ld	s4,16(a0)
 1445              		.loc 1 302 87
 1446 0830 83370A06 		ld	a5,96(s4)
 1447              		.loc 1 302 72
 1448 0834 3359F902 		divu	s2,s2,a5
 1449              		.loc 1 302 9
 1450 0838 1B090900 		sext.w	s2,s2
 1451              	.LVL134:
 303:src/slabAllocator.cpp ****     if((size_t)objp != (size_t)slab + sizeof(slab_t) + indexOfObject*slab->owner->obj_size) //addre
 1452              		.loc 1 303 5 is_stmt 1
 1453              		.loc 1 303 69 is_stmt 0
 1454 083c B3872703 		mul	a5,a5,s2
 1455              		.loc 1 303 54
 1456 0840 B307F500 		add	a5,a0,a5
 1457 0844 93878742 		addi	a5,a5,1064
 1458              		.loc 1 303 5
 1459 0848 6390F506 		bne	a1,a5,.L82
 304:src/slabAllocator.cpp ****         return;
 305:src/slabAllocator.cpp **** 
 306:src/slabAllocator.cpp ****     if(!checkSetIndex(slab, indexOfObject))
 1460              		.loc 1 306 5 is_stmt 1
 1461              		.loc 1 306 22 is_stmt 0
 1462 084c 93050900 		mv	a1,s2
 1463              	.LVL135:
 1464 0850 97000000 		call	_Z13checkSetIndexP6slab_si
 1464      E7800000 
GAS LISTING /tmp/cceDUpe5.s 			page 33


 1465              	.LVL136:
 1466              		.loc 1 306 5
 1467 0858 63080504 		beqz	a0,.L82
 307:src/slabAllocator.cpp ****         return;
 308:src/slabAllocator.cpp **** 
 309:src/slabAllocator.cpp ****     kmem_cache_t* cachep = slab->owner;
 1468              		.loc 1 309 5 is_stmt 1
 1469              	.LVL137:
 310:src/slabAllocator.cpp ****     if(cachep->dtor != nullptr)
 1470              		.loc 1 310 5
 1471              		.loc 1 310 16 is_stmt 0
 1472 085c 83370A07 		ld	a5,112(s4)
 1473              		.loc 1 310 5
 1474 0860 63860700 		beqz	a5,.L84
 311:src/slabAllocator.cpp ****         cachep->dtor((void*)objp);
 1475              		.loc 1 311 9 is_stmt 1
 1476              		.loc 1 311 21 is_stmt 0
 1477 0864 13850900 		mv	a0,s3
 1478 0868 E7800700 		jalr	a5
 1479              	.LVL138:
 1480              	.L84:
 312:src/slabAllocator.cpp ****     if(cachep->ctor != nullptr)
 1481              		.loc 1 312 5 is_stmt 1
 1482              		.loc 1 312 16 is_stmt 0
 1483 086c 83378A06 		ld	a5,104(s4)
 1484              		.loc 1 312 5
 1485 0870 63860700 		beqz	a5,.L85
 313:src/slabAllocator.cpp ****         cachep->ctor((void*)objp);
 1486              		.loc 1 313 9 is_stmt 1
 1487              		.loc 1 313 21 is_stmt 0
 1488 0874 13850900 		mv	a0,s3
 1489 0878 E7800700 		jalr	a5
 1490              	.LVL139:
 1491              	.L85:
 314:src/slabAllocator.cpp **** 
 315:src/slabAllocator.cpp ****     resetAllocatedIndex(slab, indexOfObject);
 1492              		.loc 1 315 5 is_stmt 1
 1493              		.loc 1 315 24 is_stmt 0
 1494 087c 93050900 		mv	a1,s2
 1495 0880 13850400 		mv	a0,s1
 1496 0884 97000000 		call	_Z19resetAllocatedIndexP6slab_si
 1496      E7800000 
 1497              	.LVL140:
 316:src/slabAllocator.cpp ****     if(slab->numOfObjects == slab->numOfAllocatedObjects)
 1498              		.loc 1 316 5 is_stmt 1
 1499              		.loc 1 316 14 is_stmt 0
 1500 088c 03B78401 		ld	a4,24(s1)
 1501              		.loc 1 316 36
 1502 0890 83B70402 		ld	a5,32(s1)
 1503              		.loc 1 316 5
 1504 0894 630AF702 		beq	a4,a5,.L92
 317:src/slabAllocator.cpp ****     {
 318:src/slabAllocator.cpp ****         removeFullSlab(slab->owner, slab);
 319:src/slabAllocator.cpp ****         slab->numOfAllocatedObjects--;
 320:src/slabAllocator.cpp ****         if(empty(slab))
 321:src/slabAllocator.cpp ****             removePartialSlab(slab->owner, slab);
 322:src/slabAllocator.cpp ****     }
GAS LISTING /tmp/cceDUpe5.s 			page 34


 323:src/slabAllocator.cpp ****     else if(slab->numOfAllocatedObjects == 1)
 1505              		.loc 1 323 10 is_stmt 1
 1506 0898 13071000 		li	a4,1
 1507 089c 6386E706 		beq	a5,a4,.L93
 324:src/slabAllocator.cpp ****     {
 325:src/slabAllocator.cpp ****         removePartialSlab(slab->owner, slab);
 326:src/slabAllocator.cpp ****         slab->numOfAllocatedObjects--;
 327:src/slabAllocator.cpp ****     }
 328:src/slabAllocator.cpp ****     else
 329:src/slabAllocator.cpp ****         slab->numOfAllocatedObjects--;
 1508              		.loc 1 329 9
 1509              		.loc 1 329 36 is_stmt 0
 1510 08a0 9387F7FF 		addi	a5,a5,-1
 1511 08a4 23B0F402 		sd	a5,32(s1)
 1512              	.LVL141:
 1513              	.L82:
 330:src/slabAllocator.cpp **** }
 1514              		.loc 1 330 1
 1515 08a8 83308102 		ld	ra,40(sp)
 1516              		.cfi_remember_state
 1517              		.cfi_restore 1
 1518 08ac 03340102 		ld	s0,32(sp)
 1519              		.cfi_restore 8
 1520              		.cfi_def_cfa 2, 48
 1521 08b0 83348101 		ld	s1,24(sp)
 1522              		.cfi_restore 9
 1523              	.LVL142:
 1524 08b4 03390101 		ld	s2,16(sp)
 1525              		.cfi_restore 18
 1526 08b8 83398100 		ld	s3,8(sp)
 1527              		.cfi_restore 19
 1528              	.LVL143:
 1529 08bc 033A0100 		ld	s4,0(sp)
 1530              		.cfi_restore 20
 1531 08c0 13010103 		addi	sp,sp,48
 1532              		.cfi_def_cfa_offset 0
 1533 08c4 67800000 		jr	ra
 1534              	.LVL144:
 1535              	.L92:
 1536              		.cfi_restore_state
 318:src/slabAllocator.cpp ****         slab->numOfAllocatedObjects--;
 1537              		.loc 1 318 9 is_stmt 1
 318:src/slabAllocator.cpp ****         slab->numOfAllocatedObjects--;
 1538              		.loc 1 318 23 is_stmt 0
 1539 08c8 93850400 		mv	a1,s1
 1540 08cc 03B50401 		ld	a0,16(s1)
 1541 08d0 97000000 		call	_Z14removeFullSlabP12kmem_cache_sP6slab_s
 1541      E7800000 
 1542              	.LVL145:
 319:src/slabAllocator.cpp ****         if(empty(slab))
 1543              		.loc 1 319 9 is_stmt 1
 319:src/slabAllocator.cpp ****         if(empty(slab))
 1544              		.loc 1 319 15 is_stmt 0
 1545 08d8 83B70402 		ld	a5,32(s1)
 319:src/slabAllocator.cpp ****         if(empty(slab))
 1546              		.loc 1 319 36
 1547 08dc 9387F7FF 		addi	a5,a5,-1
GAS LISTING /tmp/cceDUpe5.s 			page 35


 1548 08e0 23B0F402 		sd	a5,32(s1)
 320:src/slabAllocator.cpp ****             removePartialSlab(slab->owner, slab);
 1549              		.loc 1 320 9 is_stmt 1
 320:src/slabAllocator.cpp ****             removePartialSlab(slab->owner, slab);
 1550              		.loc 1 320 17 is_stmt 0
 1551 08e4 13850400 		mv	a0,s1
 1552 08e8 97000000 		call	_Z5emptyP6slab_s
 1552      E7800000 
 1553              	.LVL146:
 320:src/slabAllocator.cpp ****             removePartialSlab(slab->owner, slab);
 1554              		.loc 1 320 9
 1555 08f0 E30C05FA 		beqz	a0,.L82
 321:src/slabAllocator.cpp ****     }
 1556              		.loc 1 321 13 is_stmt 1
 321:src/slabAllocator.cpp ****     }
 1557              		.loc 1 321 30 is_stmt 0
 1558 08f4 93850400 		mv	a1,s1
 1559 08f8 03B50401 		ld	a0,16(s1)
 1560 08fc 97000000 		call	_Z17removePartialSlabP12kmem_cache_sP6slab_s
 1560      E7800000 
 1561              	.LVL147:
 1562 0904 6FF05FFA 		j	.L82
 1563              	.L93:
 325:src/slabAllocator.cpp ****         slab->numOfAllocatedObjects--;
 1564              		.loc 1 325 9 is_stmt 1
 325:src/slabAllocator.cpp ****         slab->numOfAllocatedObjects--;
 1565              		.loc 1 325 26 is_stmt 0
 1566 0908 93850400 		mv	a1,s1
 1567 090c 03B50401 		ld	a0,16(s1)
 1568 0910 97000000 		call	_Z17removePartialSlabP12kmem_cache_sP6slab_s
 1568      E7800000 
 1569              	.LVL148:
 326:src/slabAllocator.cpp ****     }
 1570              		.loc 1 326 9 is_stmt 1
 326:src/slabAllocator.cpp ****     }
 1571              		.loc 1 326 15 is_stmt 0
 1572 0918 83B70402 		ld	a5,32(s1)
 326:src/slabAllocator.cpp ****     }
 1573              		.loc 1 326 36
 1574 091c 9387F7FF 		addi	a5,a5,-1
 1575 0920 23B0F402 		sd	a5,32(s1)
 1576 0924 6FF05FF8 		j	.L82
 1577              	.LVL149:
 1578              	.L89:
 1579              		.cfi_def_cfa_register 2
 1580              		.cfi_restore 1
 1581              		.cfi_restore 8
 1582              		.cfi_restore 9
 1583              		.cfi_restore 18
 1584              		.cfi_restore 19
 1585              		.cfi_restore 20
 1586 0928 67800000 		ret
 1587              		.cfi_endproc
 1588              	.LFE25:
 1590              		.align	2
 1591              		.globl	_Z9kmem_initPvi
 1593              	_Z9kmem_initPvi:
GAS LISTING /tmp/cceDUpe5.s 			page 36


 1594              	.LFB27:
 331:src/slabAllocator.cpp **** 
 332:src/slabAllocator.cpp **** void printSlabAllocatorInfo()
 333:src/slabAllocator.cpp **** {
 334:src/slabAllocator.cpp ****     KConsole::trapPrintString("\n\n\n\n\n\n\n\n\n");
 335:src/slabAllocator.cpp ****     KConsole::trapPrintString("Slab allocator info-------------------------------------------------
 336:src/slabAllocator.cpp ****     KConsole::trapPrintStringInt("Slab allocator buddy address ", (size_t)slabAllocator->buddy,16);
 337:src/slabAllocator.cpp ****     KConsole::trapPrintStringInt("Slab allocator address ", (size_t)slabAllocator, 16);
 338:src/slabAllocator.cpp ****     KConsole::trapPrintString("Cache of caches info\n");
 339:src/slabAllocator.cpp ****     kmem_cache_info(&slabAllocator->cacheOfCaches);
 340:src/slabAllocator.cpp ****     KConsole::trapPrintString("Caches for buffers\n");
 341:src/slabAllocator.cpp ****     for(size_t i = 0;i < CACHE_BUFFER_SIZE;i++)
 342:src/slabAllocator.cpp ****     {
 343:src/slabAllocator.cpp ****         if(slabAllocator->cachesBuffers[i] != nullptr)
 344:src/slabAllocator.cpp ****         {
 345:src/slabAllocator.cpp ****             kmem_cache_info(slabAllocator->cachesBuffers[i]);
 346:src/slabAllocator.cpp ****         }
 347:src/slabAllocator.cpp ****     }
 348:src/slabAllocator.cpp ****     KConsole::trapPrintString("\n\n\n\n\n\n\n\n\n");
 349:src/slabAllocator.cpp **** }
 350:src/slabAllocator.cpp **** 
 351:src/slabAllocator.cpp **** //slab allocator public interface------------------------------------------------------------------
 352:src/slabAllocator.cpp **** void kmem_init(void *space, int block_num)
 353:src/slabAllocator.cpp **** {
 1595              		.loc 1 353 1 is_stmt 1
 1596              		.cfi_startproc
 1597              	.LVL150:
 1598 092c 130101FF 		addi	sp,sp,-16
 1599              		.cfi_def_cfa_offset 16
 1600 0930 23341100 		sd	ra,8(sp)
 1601 0934 23308100 		sd	s0,0(sp)
 1602              		.cfi_offset 1, -8
 1603              		.cfi_offset 8, -16
 1604 0938 13040101 		addi	s0,sp,16
 1605              		.cfi_def_cfa 8, 0
 354:src/slabAllocator.cpp ****     buddyAllocator* buddy = buddy_init(space, block_num);
 1606              		.loc 1 354 5
 1607              		.loc 1 354 39 is_stmt 0
 1608 093c 97000000 		call	_Z10buddy_initPvm@plt
 1608      E7800000 
 1609              	.LVL151:
 355:src/slabAllocator.cpp ****     slabAllocator = slab_allocator_init(buddy);
 1610              		.loc 1 355 5 is_stmt 1
 1611              		.loc 1 355 40 is_stmt 0
 1612 0944 97000000 		call	_Z19slab_allocator_initP14buddyAllocator
 1612      E7800000 
 1613              	.LVL152:
 1614              		.loc 1 355 19
 1615 094c 97070000 		sd	a0,.LANCHOR0,a5
 1615      23B0A700 
 356:src/slabAllocator.cpp **** }
 1616              		.loc 1 356 1
 1617 0954 83308100 		ld	ra,8(sp)
 1618              		.cfi_restore 1
 1619 0958 03340100 		ld	s0,0(sp)
 1620              		.cfi_restore 8
 1621              		.cfi_def_cfa 2, 16
GAS LISTING /tmp/cceDUpe5.s 			page 37


 1622 095c 13010101 		addi	sp,sp,16
 1623              		.cfi_def_cfa_offset 0
 1624 0960 67800000 		jr	ra
 1625              		.cfi_endproc
 1626              	.LFE27:
 1628              		.align	2
 1629              		.globl	_Z16kmem_cache_allocP12kmem_cache_s
 1631              	_Z16kmem_cache_allocP12kmem_cache_s:
 1632              	.LFB29:
 357:src/slabAllocator.cpp **** 
 358:src/slabAllocator.cpp **** kmem_cache_t *kmem_cache_create(const char *name, size_t size,
 359:src/slabAllocator.cpp ****                                 void (*ctor)(void *),
 360:src/slabAllocator.cpp ****                                 void (*dtor)(void *))
 361:src/slabAllocator.cpp **** {
 362:src/slabAllocator.cpp ****     kmem_cache_t* newCache = (kmem_cache_t*)kmem_cache_alloc(&slabAllocator->cacheOfCaches);
 363:src/slabAllocator.cpp ****     if(newCache == nullptr)
 364:src/slabAllocator.cpp ****         return nullptr;
 365:src/slabAllocator.cpp ****     init_cache(newCache, name, getOptimalSlabSize(size), size, ctor,dtor);
 366:src/slabAllocator.cpp ****     return newCache;
 367:src/slabAllocator.cpp **** }
 368:src/slabAllocator.cpp **** 
 369:src/slabAllocator.cpp **** void *kmem_cache_alloc(kmem_cache_t *cachep)
 370:src/slabAllocator.cpp **** {
 1633              		.loc 1 370 1 is_stmt 1
 1634              		.cfi_startproc
 1635              	.LVL153:
 1636 0964 130101FE 		addi	sp,sp,-32
 1637              		.cfi_def_cfa_offset 32
 1638 0968 233C1100 		sd	ra,24(sp)
 1639 096c 23388100 		sd	s0,16(sp)
 1640 0970 23349100 		sd	s1,8(sp)
 1641 0974 23302101 		sd	s2,0(sp)
 1642              		.cfi_offset 1, -8
 1643              		.cfi_offset 8, -16
 1644              		.cfi_offset 9, -24
 1645              		.cfi_offset 18, -32
 1646 0978 13040102 		addi	s0,sp,32
 1647              		.cfi_def_cfa 8, 0
 1648 097c 93040500 		mv	s1,a0
 371:src/slabAllocator.cpp ****     if(cachep == nullptr)
 1649              		.loc 1 371 5
 1650 0980 630A0510 		beqz	a0,.L104
 372:src/slabAllocator.cpp ****         return nullptr;
 373:src/slabAllocator.cpp **** 
 374:src/slabAllocator.cpp ****     if(cachep->slabs_partial != nullptr)
 1651              		.loc 1 374 5
 1652              	.LBB14:
 1653              		.loc 1 374 16 is_stmt 0
 1654 0984 03350505 		ld	a0,80(a0)
 1655              	.LVL154:
 1656              		.loc 1 374 5
 1657 0988 631A0504 		bnez	a0,.L106
 1658              	.LBE14:
 375:src/slabAllocator.cpp ****     {
 376:src/slabAllocator.cpp ****         void* allocatedAddr = allocateObject(cachep->slabs_partial);
 377:src/slabAllocator.cpp ****         if(full(cachep->slabs_partial))
 378:src/slabAllocator.cpp ****             putPartialToFull(cachep);
GAS LISTING /tmp/cceDUpe5.s 			page 38


 379:src/slabAllocator.cpp ****         return allocatedAddr;
 380:src/slabAllocator.cpp ****     }
 381:src/slabAllocator.cpp ****     else if(cachep->slabs_empty != nullptr)
 1659              		.loc 1 381 10 is_stmt 1
 1660              	.LBB21:
 1661              	.LBB15:
 1662              		.loc 1 381 21 is_stmt 0
 1663 098c 03B50404 		ld	a0,64(s1)
 1664              		.loc 1 381 10
 1665 0990 630A0508 		beqz	a0,.L100
 1666              	.LBB16:
 382:src/slabAllocator.cpp ****     {
 383:src/slabAllocator.cpp ****         void* allocatedAddr = allocateObject(cachep->slabs_empty);
 1667              		.loc 1 383 9 is_stmt 1
 1668              		.loc 1 383 45 is_stmt 0
 1669 0994 97000000 		call	_Z14allocateObjectP6slab_s
 1669      E7800000 
 1670              	.LVL155:
 1671 099c 13090500 		mv	s2,a0
 1672              	.LVL156:
 384:src/slabAllocator.cpp ****         if(!empty(cachep->slabs_empty))
 1673              		.loc 1 384 9 is_stmt 1
 1674              		.loc 1 384 18 is_stmt 0
 1675 09a0 03B50404 		ld	a0,64(s1)
 1676              	.LVL157:
 1677 09a4 97000000 		call	_Z5emptyP6slab_s
 1677      E7800000 
 1678              	.LVL158:
 1679              		.loc 1 384 9
 1680 09ac 63160504 		bnez	a0,.L96
 385:src/slabAllocator.cpp ****         {
 386:src/slabAllocator.cpp ****             putEmptyToPartial(cachep);
 1681              		.loc 1 386 13 is_stmt 1
 1682              		.loc 1 386 30 is_stmt 0
 1683 09b0 13850400 		mv	a0,s1
 1684 09b4 97000000 		call	_Z17putEmptyToPartialP12kmem_cache_s
 1684      E7800000 
 1685              	.LVL159:
 387:src/slabAllocator.cpp ****             if(full(cachep->slabs_partial))
 1686              		.loc 1 387 13 is_stmt 1
 1687              		.loc 1 387 20 is_stmt 0
 1688 09bc 03B50405 		ld	a0,80(s1)
 1689 09c0 97000000 		call	_Z4fullP6slab_s
 1689      E7800000 
 1690              	.LVL160:
 1691              		.loc 1 387 13
 1692 09c8 63080502 		beqz	a0,.L96
 388:src/slabAllocator.cpp ****                 putPartialToFull(cachep);
 1693              		.loc 1 388 17 is_stmt 1
 1694              		.loc 1 388 33 is_stmt 0
 1695 09cc 13850400 		mv	a0,s1
 1696 09d0 97000000 		call	_Z16putPartialToFullP12kmem_cache_s
 1696      E7800000 
 1697              	.LVL161:
 389:src/slabAllocator.cpp ****         }
 390:src/slabAllocator.cpp ****         return allocatedAddr;
 1698              		.loc 1 390 9 is_stmt 1
GAS LISTING /tmp/cceDUpe5.s 			page 39


 1699              		.loc 1 390 16 is_stmt 0
 1700 09d8 6F000002 		j	.L96
 1701              	.LVL162:
 1702              	.L106:
 1703              	.LBE16:
 1704              	.LBE15:
 1705              	.LBB18:
 376:src/slabAllocator.cpp ****         if(full(cachep->slabs_partial))
 1706              		.loc 1 376 9 is_stmt 1
 376:src/slabAllocator.cpp ****         if(full(cachep->slabs_partial))
 1707              		.loc 1 376 45 is_stmt 0
 1708 09dc 97000000 		call	_Z14allocateObjectP6slab_s
 1708      E7800000 
 1709              	.LVL163:
 1710 09e4 13090500 		mv	s2,a0
 1711              	.LVL164:
 377:src/slabAllocator.cpp ****             putPartialToFull(cachep);
 1712              		.loc 1 377 9 is_stmt 1
 377:src/slabAllocator.cpp ****             putPartialToFull(cachep);
 1713              		.loc 1 377 16 is_stmt 0
 1714 09e8 03B50405 		ld	a0,80(s1)
 1715              	.LVL165:
 1716 09ec 97000000 		call	_Z4fullP6slab_s
 1716      E7800000 
 1717              	.LVL166:
 377:src/slabAllocator.cpp ****             putPartialToFull(cachep);
 1718              		.loc 1 377 9
 1719 09f4 63100502 		bnez	a0,.L107
 1720              	.LVL167:
 1721              	.L96:
 1722              	.LBE18:
 1723              	.LBE21:
 391:src/slabAllocator.cpp ****     }
 392:src/slabAllocator.cpp ****     else
 393:src/slabAllocator.cpp ****     {
 394:src/slabAllocator.cpp ****         allocateSlab(cachep);
 395:src/slabAllocator.cpp ****         if(cachep->slabs_empty == nullptr)
 396:src/slabAllocator.cpp ****         {
 397:src/slabAllocator.cpp ****             cachep->errors|=EXPAND_ERROR;
 398:src/slabAllocator.cpp ****             return nullptr;
 399:src/slabAllocator.cpp ****         }
 400:src/slabAllocator.cpp ****         void* allocatedAddr = allocateObject(cachep->slabs_empty);
 401:src/slabAllocator.cpp ****         if(!empty(cachep->slabs_empty))
 402:src/slabAllocator.cpp ****         {
 403:src/slabAllocator.cpp ****             putEmptyToPartial(cachep);
 404:src/slabAllocator.cpp ****             if(full(cachep->slabs_partial))
 405:src/slabAllocator.cpp ****                 putPartialToFull(cachep);
 406:src/slabAllocator.cpp ****         }
 407:src/slabAllocator.cpp ****         return allocatedAddr;
 408:src/slabAllocator.cpp ****     }
 409:src/slabAllocator.cpp ****     return nullptr;
 410:src/slabAllocator.cpp **** }
 1724              		.loc 1 410 1
 1725 09f8 13050900 		mv	a0,s2
 1726 09fc 83308101 		ld	ra,24(sp)
 1727              		.cfi_remember_state
 1728              		.cfi_restore 1
GAS LISTING /tmp/cceDUpe5.s 			page 40


 1729 0a00 03340101 		ld	s0,16(sp)
 1730              		.cfi_restore 8
 1731              		.cfi_def_cfa 2, 32
 1732 0a04 83348100 		ld	s1,8(sp)
 1733              		.cfi_restore 9
 1734              	.LVL168:
 1735 0a08 03390100 		ld	s2,0(sp)
 1736              		.cfi_restore 18
 1737 0a0c 13010102 		addi	sp,sp,32
 1738              		.cfi_def_cfa_offset 0
 1739 0a10 67800000 		jr	ra
 1740              	.LVL169:
 1741              	.L107:
 1742              		.cfi_restore_state
 1743              	.LBB22:
 1744              	.LBB19:
 378:src/slabAllocator.cpp ****         return allocatedAddr;
 1745              		.loc 1 378 13 is_stmt 1
 378:src/slabAllocator.cpp ****         return allocatedAddr;
 1746              		.loc 1 378 29 is_stmt 0
 1747 0a14 13850400 		mv	a0,s1
 1748 0a18 97000000 		call	_Z16putPartialToFullP12kmem_cache_s
 1748      E7800000 
 1749              	.LVL170:
 379:src/slabAllocator.cpp ****     }
 1750              		.loc 1 379 9 is_stmt 1
 379:src/slabAllocator.cpp ****     }
 1751              		.loc 1 379 16 is_stmt 0
 1752 0a20 6FF09FFD 		j	.L96
 1753              	.LVL171:
 1754              	.L100:
 1755              	.LBE19:
 1756              	.LBB20:
 1757              	.LBB17:
 394:src/slabAllocator.cpp ****         if(cachep->slabs_empty == nullptr)
 1758              		.loc 1 394 9 is_stmt 1
 394:src/slabAllocator.cpp ****         if(cachep->slabs_empty == nullptr)
 1759              		.loc 1 394 21 is_stmt 0
 1760 0a24 13850400 		mv	a0,s1
 1761 0a28 97000000 		call	_Z12allocateSlabP12kmem_cache_s
 1761      E7800000 
 1762              	.LVL172:
 395:src/slabAllocator.cpp ****         {
 1763              		.loc 1 395 9 is_stmt 1
 395:src/slabAllocator.cpp ****         {
 1764              		.loc 1 395 20 is_stmt 0
 1765 0a30 03B90404 		ld	s2,64(s1)
 395:src/slabAllocator.cpp ****         {
 1766              		.loc 1 395 9
 1767 0a34 63080904 		beqz	s2,.L108
 400:src/slabAllocator.cpp ****         if(!empty(cachep->slabs_empty))
 1768              		.loc 1 400 9 is_stmt 1
 400:src/slabAllocator.cpp ****         if(!empty(cachep->slabs_empty))
 1769              		.loc 1 400 45 is_stmt 0
 1770 0a38 13050900 		mv	a0,s2
 1771 0a3c 97000000 		call	_Z14allocateObjectP6slab_s
 1771      E7800000 
GAS LISTING /tmp/cceDUpe5.s 			page 41


 1772              	.LVL173:
 1773 0a44 13090500 		mv	s2,a0
 1774              	.LVL174:
 401:src/slabAllocator.cpp ****         {
 1775              		.loc 1 401 9 is_stmt 1
 401:src/slabAllocator.cpp ****         {
 1776              		.loc 1 401 18 is_stmt 0
 1777 0a48 03B50404 		ld	a0,64(s1)
 1778              	.LVL175:
 1779 0a4c 97000000 		call	_Z5emptyP6slab_s
 1779      E7800000 
 1780              	.LVL176:
 401:src/slabAllocator.cpp ****         {
 1781              		.loc 1 401 9
 1782 0a54 E31205FA 		bnez	a0,.L96
 403:src/slabAllocator.cpp ****             if(full(cachep->slabs_partial))
 1783              		.loc 1 403 13 is_stmt 1
 403:src/slabAllocator.cpp ****             if(full(cachep->slabs_partial))
 1784              		.loc 1 403 30 is_stmt 0
 1785 0a58 13850400 		mv	a0,s1
 1786 0a5c 97000000 		call	_Z17putEmptyToPartialP12kmem_cache_s
 1786      E7800000 
 1787              	.LVL177:
 404:src/slabAllocator.cpp ****                 putPartialToFull(cachep);
 1788              		.loc 1 404 13 is_stmt 1
 404:src/slabAllocator.cpp ****                 putPartialToFull(cachep);
 1789              		.loc 1 404 20 is_stmt 0
 1790 0a64 03B50405 		ld	a0,80(s1)
 1791 0a68 97000000 		call	_Z4fullP6slab_s
 1791      E7800000 
 1792              	.LVL178:
 404:src/slabAllocator.cpp ****                 putPartialToFull(cachep);
 1793              		.loc 1 404 13
 1794 0a70 E30405F8 		beqz	a0,.L96
 405:src/slabAllocator.cpp ****         }
 1795              		.loc 1 405 17 is_stmt 1
 405:src/slabAllocator.cpp ****         }
 1796              		.loc 1 405 33 is_stmt 0
 1797 0a74 13850400 		mv	a0,s1
 1798 0a78 97000000 		call	_Z16putPartialToFullP12kmem_cache_s
 1798      E7800000 
 1799              	.LVL179:
 407:src/slabAllocator.cpp ****     }
 1800              		.loc 1 407 9 is_stmt 1
 407:src/slabAllocator.cpp ****     }
 1801              		.loc 1 407 16 is_stmt 0
 1802 0a80 6FF09FF7 		j	.L96
 1803              	.LVL180:
 1804              	.L108:
 397:src/slabAllocator.cpp ****             return nullptr;
 1805              		.loc 1 397 13 is_stmt 1
 397:src/slabAllocator.cpp ****             return nullptr;
 1806              		.loc 1 397 27 is_stmt 0
 1807 0a84 83A78407 		lw	a5,120(s1)
 1808 0a88 93E71700 		ori	a5,a5,1
 1809 0a8c 23ACF406 		sw	a5,120(s1)
 398:src/slabAllocator.cpp ****         }
GAS LISTING /tmp/cceDUpe5.s 			page 42


 1810              		.loc 1 398 13 is_stmt 1
 398:src/slabAllocator.cpp ****         }
 1811              		.loc 1 398 20 is_stmt 0
 1812 0a90 6FF09FF6 		j	.L96
 1813              	.L104:
 1814              	.LBE17:
 1815              	.LBE20:
 1816              	.LBE22:
 372:src/slabAllocator.cpp **** 
 1817              		.loc 1 372 16
 1818 0a94 13090500 		mv	s2,a0
 1819 0a98 6FF01FF6 		j	.L96
 1820              		.cfi_endproc
 1821              	.LFE29:
 1823              		.align	2
 1824              		.globl	_Z17kmem_cache_createPKcmPFvPvES3_
 1826              	_Z17kmem_cache_createPKcmPFvPvES3_:
 1827              	.LFB28:
 361:src/slabAllocator.cpp ****     kmem_cache_t* newCache = (kmem_cache_t*)kmem_cache_alloc(&slabAllocator->cacheOfCaches);
 1828              		.loc 1 361 1 is_stmt 1
 1829              		.cfi_startproc
 1830              	.LVL181:
 1831 0a9c 130101FC 		addi	sp,sp,-64
 1832              		.cfi_def_cfa_offset 64
 1833 0aa0 233C1102 		sd	ra,56(sp)
 1834 0aa4 23388102 		sd	s0,48(sp)
 1835 0aa8 23349102 		sd	s1,40(sp)
 1836 0aac 23302103 		sd	s2,32(sp)
 1837 0ab0 233C3101 		sd	s3,24(sp)
 1838 0ab4 23384101 		sd	s4,16(sp)
 1839 0ab8 23345101 		sd	s5,8(sp)
 1840              		.cfi_offset 1, -8
 1841              		.cfi_offset 8, -16
 1842              		.cfi_offset 9, -24
 1843              		.cfi_offset 18, -32
 1844              		.cfi_offset 19, -40
 1845              		.cfi_offset 20, -48
 1846              		.cfi_offset 21, -56
 1847 0abc 13040104 		addi	s0,sp,64
 1848              		.cfi_def_cfa 8, 0
 1849 0ac0 93090500 		mv	s3,a0
 1850 0ac4 13890500 		mv	s2,a1
 1851 0ac8 130A0600 		mv	s4,a2
 1852 0acc 938A0600 		mv	s5,a3
 362:src/slabAllocator.cpp ****     if(newCache == nullptr)
 1853              		.loc 1 362 5
 362:src/slabAllocator.cpp ****     if(newCache == nullptr)
 1854              		.loc 1 362 61 is_stmt 0
 1855 0ad0 17050000 		ld	a0,.LANCHOR0
 1855      03350500 
 1856              	.LVL182:
 1857 0ad8 13050507 		addi	a0,a0,112
 1858 0adc 97000000 		call	_Z16kmem_cache_allocP12kmem_cache_s
 1858      E7800000 
 1859              	.LVL183:
 1860 0ae4 93040500 		mv	s1,a0
 1861              	.LVL184:
GAS LISTING /tmp/cceDUpe5.s 			page 43


 363:src/slabAllocator.cpp ****         return nullptr;
 1862              		.loc 1 363 5 is_stmt 1
 1863 0ae8 63080502 		beqz	a0,.L109
 365:src/slabAllocator.cpp ****     return newCache;
 1864              		.loc 1 365 5
 365:src/slabAllocator.cpp ****     return newCache;
 1865              		.loc 1 365 15 is_stmt 0
 1866 0aec 13050900 		mv	a0,s2
 1867 0af0 97000000 		call	_Z18getOptimalSlabSizem
 1867      E7800000 
 1868              	.LVL185:
 1869 0af8 13060500 		mv	a2,a0
 1870 0afc 93870A00 		mv	a5,s5
 1871 0b00 13070A00 		mv	a4,s4
 1872 0b04 93060900 		mv	a3,s2
 1873 0b08 93850900 		mv	a1,s3
 1874 0b0c 13850400 		mv	a0,s1
 1875 0b10 97000000 		call	_Z10init_cacheP12kmem_cache_sPKcmmPFvPvES5_
 1875      E7800000 
 1876              	.LVL186:
 366:src/slabAllocator.cpp **** }
 1877              		.loc 1 366 5 is_stmt 1
 1878              	.L109:
 367:src/slabAllocator.cpp **** 
 1879              		.loc 1 367 1 is_stmt 0
 1880 0b18 13850400 		mv	a0,s1
 1881 0b1c 83308103 		ld	ra,56(sp)
 1882              		.cfi_restore 1
 1883 0b20 03340103 		ld	s0,48(sp)
 1884              		.cfi_restore 8
 1885              		.cfi_def_cfa 2, 64
 1886 0b24 83348102 		ld	s1,40(sp)
 1887              		.cfi_restore 9
 1888              	.LVL187:
 1889 0b28 03390102 		ld	s2,32(sp)
 1890              		.cfi_restore 18
 1891              	.LVL188:
 1892 0b2c 83398101 		ld	s3,24(sp)
 1893              		.cfi_restore 19
 1894              	.LVL189:
 1895 0b30 033A0101 		ld	s4,16(sp)
 1896              		.cfi_restore 20
 1897              	.LVL190:
 1898 0b34 833A8100 		ld	s5,8(sp)
 1899              		.cfi_restore 21
 1900              	.LVL191:
 1901 0b38 13010104 		addi	sp,sp,64
 1902              		.cfi_def_cfa_offset 0
 1903 0b3c 67800000 		jr	ra
 1904              		.cfi_endproc
 1905              	.LFE28:
 1907              		.align	2
 1908              		.globl	_Z15kmem_cache_freeP12kmem_cache_sPv
 1910              	_Z15kmem_cache_freeP12kmem_cache_sPv:
 1911              	.LFB30:
 411:src/slabAllocator.cpp **** 
 412:src/slabAllocator.cpp **** void kmem_cache_free(kmem_cache_t *cachep, void *objp)
GAS LISTING /tmp/cceDUpe5.s 			page 44


 413:src/slabAllocator.cpp **** {
 1912              		.loc 1 413 1 is_stmt 1
 1913              		.cfi_startproc
 1914              	.LVL192:
 414:src/slabAllocator.cpp ****     if(cachep == nullptr || objp == nullptr)
 1915              		.loc 1 414 5
 1916 0b40 63060504 		beqz	a0,.L115
 413:src/slabAllocator.cpp ****     if(cachep == nullptr || objp == nullptr)
 1917              		.loc 1 413 1 is_stmt 0 discriminator 1
 1918 0b44 130101FE 		addi	sp,sp,-32
 1919              		.cfi_def_cfa_offset 32
 1920 0b48 233C1100 		sd	ra,24(sp)
 1921 0b4c 23388100 		sd	s0,16(sp)
 1922 0b50 23349100 		sd	s1,8(sp)
 1923              		.cfi_offset 1, -8
 1924              		.cfi_offset 8, -16
 1925              		.cfi_offset 9, -24
 1926 0b54 13040102 		addi	s0,sp,32
 1927              		.cfi_def_cfa 8, 0
 1928 0b58 93840500 		mv	s1,a1
 1929              		.loc 1 414 26 discriminator 1
 1930 0b5c 638E0500 		beqz	a1,.L112
 415:src/slabAllocator.cpp ****         return;
 416:src/slabAllocator.cpp ****     slab_t* slab = findSlab(cachep, objp);
 1931              		.loc 1 416 5 is_stmt 1
 1932              		.loc 1 416 28 is_stmt 0
 1933 0b60 97000000 		call	_Z8findSlabP12kmem_cache_sPKv
 1933      E7800000 
 1934              	.LVL193:
 417:src/slabAllocator.cpp ****     if(slab == nullptr) return;
 1935              		.loc 1 417 5 is_stmt 1
 1936 0b68 63080500 		beqz	a0,.L112
 418:src/slabAllocator.cpp **** 
 419:src/slabAllocator.cpp ****     free_slab_object(slab, objp);
 1937              		.loc 1 419 5
 1938              		.loc 1 419 21 is_stmt 0
 1939 0b6c 93850400 		mv	a1,s1
 1940 0b70 97000000 		call	_Z16free_slab_objectP6slab_sPKv
 1940      E7800000 
 1941              	.LVL194:
 1942              	.L112:
 420:src/slabAllocator.cpp **** }
 1943              		.loc 1 420 1
 1944 0b78 83308101 		ld	ra,24(sp)
 1945              		.cfi_restore 1
 1946 0b7c 03340101 		ld	s0,16(sp)
 1947              		.cfi_restore 8
 1948              		.cfi_def_cfa 2, 32
 1949 0b80 83348100 		ld	s1,8(sp)
 1950              		.cfi_restore 9
 1951              	.LVL195:
 1952 0b84 13010102 		addi	sp,sp,32
 1953              		.cfi_def_cfa_offset 0
 1954 0b88 67800000 		jr	ra
 1955              	.LVL196:
 1956              	.L115:
 1957 0b8c 67800000 		ret
GAS LISTING /tmp/cceDUpe5.s 			page 45


 1958              		.cfi_endproc
 1959              	.LFE30:
 1961              		.section	.rodata.str1.8
 1962 006b 00000000 		.align	3
 1962      00
 1963              	.LC5:
 1964 0070 0A0A0A0A 		.string	"\n\n\n\n\n\n\n\n"
 1964      0A0A0A0A 
 1964      00
 1965 0079 00000000 		.align	3
 1965      000000
 1966              	.LC6:
 1967 0080 4B6D656D 		.string	"Kmem Cache Info-------------------------------------\n"
 1967      20436163 
 1967      68652049 
 1967      6E666F2D 
 1967      2D2D2D2D 
 1968 00b6 0000     		.align	3
 1969              	.LC7:
 1970 00b8 43616368 		.string	"Cache Name "
 1970      65204E61 
 1970      6D652000 
 1971 00c4 00000000 		.align	3
 1972              	.LC8:
 1973 00c8 0A00     		.string	"\n"
 1974 00ca 00000000 		.align	3
 1974      0000
 1975              	.LC9:
 1976 00d0 43616368 		.string	"Cache slab size in blocks "
 1976      6520736C 
 1976      61622073 
 1976      697A6520 
 1976      696E2062 
 1977 00eb 00000000 		.align	3
 1977      00
 1978              	.LC10:
 1979 00f0 43616368 		.string	"Cache obj size in bytes "
 1979      65206F62 
 1979      6A207369 
 1979      7A652069 
 1979      6E206279 
 1980 0109 00000000 		.align	3
 1980      000000
 1981              	.LC11:
 1982 0110 536C6162 		.string	"Slabs info-------------------\n"
 1982      7320696E 
 1982      666F2D2D 
 1982      2D2D2D2D 
 1982      2D2D2D2D 
 1983 012f 00       		.align	3
 1984              	.LC12:
 1985 0130 46756C6C 		.string	"Full slabs\n"
 1985      20736C61 
 1985      62730A00 
 1986 013c 00000000 		.align	3
 1987              	.LC13:
 1988 0140 50617274 		.string	"Partial slabs\n"
GAS LISTING /tmp/cceDUpe5.s 			page 46


 1988      69616C20 
 1988      736C6162 
 1988      730A00
 1989 014f 00       		.align	3
 1990              	.LC14:
 1991 0150 456D7074 		.string	"Empty slabs\n"
 1991      7920736C 
 1991      6162730A 
 1991      00
 1992              		.text
 1993              		.align	2
 1994              		.globl	_Z15kmem_cache_infoP12kmem_cache_s
 1996              	_Z15kmem_cache_infoP12kmem_cache_s:
 1997              	.LFB31:
 421:src/slabAllocator.cpp **** 
 422:src/slabAllocator.cpp **** //TODO what needs to be printed
 423:src/slabAllocator.cpp **** void kmem_cache_info(kmem_cache_t *cachep)
 424:src/slabAllocator.cpp **** {
 1998              		.loc 1 424 1 is_stmt 1
 1999              		.cfi_startproc
 2000              	.LVL197:
 425:src/slabAllocator.cpp ****     if(cachep == nullptr)
 2001              		.loc 1 425 5
 2002 0b90 630C0514 		beqz	a0,.L127
 424:src/slabAllocator.cpp ****     if(cachep == nullptr)
 2003              		.loc 1 424 1 is_stmt 0
 2004 0b94 130101FE 		addi	sp,sp,-32
 2005              		.cfi_def_cfa_offset 32
 2006 0b98 233C1100 		sd	ra,24(sp)
 2007 0b9c 23388100 		sd	s0,16(sp)
 2008 0ba0 23349100 		sd	s1,8(sp)
 2009 0ba4 23302101 		sd	s2,0(sp)
 2010              		.cfi_offset 1, -8
 2011              		.cfi_offset 8, -16
 2012              		.cfi_offset 9, -24
 2013              		.cfi_offset 18, -32
 2014 0ba8 13040102 		addi	s0,sp,32
 2015              		.cfi_def_cfa 8, 0
 2016 0bac 13090500 		mv	s2,a0
 426:src/slabAllocator.cpp ****         return;
 427:src/slabAllocator.cpp ****     KConsole::trapPrintString("\n\n\n\n\n\n\n\n");
 2017              		.loc 1 427 5 is_stmt 1
 2018              		.loc 1 427 30 is_stmt 0
 2019 0bb0 17050000 		lla	a0,.LC5
 2019      13050500 
 2020              	.LVL198:
 2021 0bb8 97000000 		call	_ZN8KConsole15trapPrintStringEPKc@plt
 2021      E7800000 
 2022              	.LVL199:
 428:src/slabAllocator.cpp ****     KConsole::trapPrintString("Kmem Cache Info-------------------------------------\n");
 2023              		.loc 1 428 5 is_stmt 1
 2024              		.loc 1 428 30 is_stmt 0
 2025 0bc0 17050000 		lla	a0,.LC6
 2025      13050500 
 2026 0bc8 97000000 		call	_ZN8KConsole15trapPrintStringEPKc@plt
 2026      E7800000 
 2027              	.LVL200:
GAS LISTING /tmp/cceDUpe5.s 			page 47


 429:src/slabAllocator.cpp ****     KConsole::trapPrintString("Cache Name ");
 2028              		.loc 1 429 5 is_stmt 1
 2029              		.loc 1 429 30 is_stmt 0
 2030 0bd0 17050000 		lla	a0,.LC7
 2030      13050500 
 2031 0bd8 97000000 		call	_ZN8KConsole15trapPrintStringEPKc@plt
 2031      E7800000 
 2032              	.LVL201:
 430:src/slabAllocator.cpp ****     KConsole::trapPrintString(cachep->cacheName); KConsole::trapPrintString("\n");
 2033              		.loc 1 430 5 is_stmt 1
 2034              		.loc 1 430 30 is_stmt 0
 2035 0be0 13050900 		mv	a0,s2
 2036 0be4 97000000 		call	_ZN8KConsole15trapPrintStringEPKc@plt
 2036      E7800000 
 2037              	.LVL202:
 2038              		.loc 1 430 51 is_stmt 1
 2039              		.loc 1 430 76 is_stmt 0
 2040 0bec 17050000 		lla	a0,.LC8
 2040      13050500 
 2041 0bf4 97000000 		call	_ZN8KConsole15trapPrintStringEPKc@plt
 2041      E7800000 
 2042              	.LVL203:
 431:src/slabAllocator.cpp ****     KConsole::trapPrintStringInt("Cache slab size in blocks ", cachep->slab_size);
 2043              		.loc 1 431 5 is_stmt 1
 2044              		.loc 1 431 33 is_stmt 0
 2045 0bfc 1306A000 		li	a2,10
 2046 0c00 83358905 		ld	a1,88(s2)
 2047 0c04 17050000 		lla	a0,.LC9
 2047      13050500 
 2048 0c0c 97000000 		call	_ZN8KConsole18trapPrintStringIntEPKcmi@plt
 2048      E7800000 
 2049              	.LVL204:
 432:src/slabAllocator.cpp ****     KConsole::trapPrintStringInt("Cache obj size in bytes ", cachep->obj_size);
 2050              		.loc 1 432 5 is_stmt 1
 2051              		.loc 1 432 33 is_stmt 0
 2052 0c14 1306A000 		li	a2,10
 2053 0c18 83350906 		ld	a1,96(s2)
 2054 0c1c 17050000 		lla	a0,.LC10
 2054      13050500 
 2055 0c24 97000000 		call	_ZN8KConsole18trapPrintStringIntEPKcmi@plt
 2055      E7800000 
 2056              	.LVL205:
 433:src/slabAllocator.cpp ****     
 434:src/slabAllocator.cpp ****     KConsole::trapPrintString("Slabs info-------------------\n");
 2057              		.loc 1 434 5 is_stmt 1
 2058              		.loc 1 434 30 is_stmt 0
 2059 0c2c 17050000 		lla	a0,.LC11
 2059      13050500 
 2060 0c34 97000000 		call	_ZN8KConsole15trapPrintStringEPKc@plt
 2060      E7800000 
 2061              	.LVL206:
 435:src/slabAllocator.cpp **** 
 436:src/slabAllocator.cpp ****     KConsole::trapPrintString("Full slabs\n");
 2062              		.loc 1 436 5 is_stmt 1
 2063              		.loc 1 436 30 is_stmt 0
 2064 0c3c 17050000 		lla	a0,.LC12
 2064      13050500 
GAS LISTING /tmp/cceDUpe5.s 			page 48


 2065 0c44 97000000 		call	_ZN8KConsole15trapPrintStringEPKc@plt
 2065      E7800000 
 2066              	.LVL207:
 437:src/slabAllocator.cpp ****     slab_t* slab = cachep->slabs_full;
 2067              		.loc 1 437 5 is_stmt 1
 2068              		.loc 1 437 13 is_stmt 0
 2069 0c4c 83348904 		ld	s1,72(s2)
 2070              	.LVL208:
 2071              	.L121:
 438:src/slabAllocator.cpp ****     while(slab != nullptr)
 2072              		.loc 1 438 5 is_stmt 1
 2073              		.loc 1 438 16
 2074 0c50 638C0400 		beqz	s1,.L120
 439:src/slabAllocator.cpp ****     {
 440:src/slabAllocator.cpp ****         printSlabInfo(slab);
 2075              		.loc 1 440 9
 2076              		.loc 1 440 22 is_stmt 0
 2077 0c54 13850400 		mv	a0,s1
 2078 0c58 97000000 		call	_Z13printSlabInfoP6slab_s
 2078      E7800000 
 2079              	.LVL209:
 441:src/slabAllocator.cpp ****         slab = slab->next;
 2080              		.loc 1 441 9 is_stmt 1
 2081              		.loc 1 441 14 is_stmt 0
 2082 0c60 83B48400 		ld	s1,8(s1)
 2083              	.LVL210:
 438:src/slabAllocator.cpp ****     while(slab != nullptr)
 2084              		.loc 1 438 5
 2085 0c64 6FF0DFFE 		j	.L121
 2086              	.L120:
 442:src/slabAllocator.cpp ****     }
 443:src/slabAllocator.cpp **** 
 444:src/slabAllocator.cpp ****     KConsole::trapPrintString("Partial slabs\n");
 2087              		.loc 1 444 5 is_stmt 1
 2088              		.loc 1 444 30 is_stmt 0
 2089 0c68 17050000 		lla	a0,.LC13
 2089      13050500 
 2090 0c70 97000000 		call	_ZN8KConsole15trapPrintStringEPKc@plt
 2090      E7800000 
 2091              	.LVL211:
 445:src/slabAllocator.cpp ****     slab = cachep->slabs_partial;
 2092              		.loc 1 445 5 is_stmt 1
 2093              		.loc 1 445 10 is_stmt 0
 2094 0c78 83340905 		ld	s1,80(s2)
 2095              	.LVL212:
 2096              	.L123:
 446:src/slabAllocator.cpp ****     while(slab != nullptr)
 2097              		.loc 1 446 5 is_stmt 1
 2098              		.loc 1 446 16
 2099 0c7c 638C0400 		beqz	s1,.L122
 447:src/slabAllocator.cpp ****     {
 448:src/slabAllocator.cpp ****         printSlabInfo(slab);
 2100              		.loc 1 448 9
 2101              		.loc 1 448 22 is_stmt 0
 2102 0c80 13850400 		mv	a0,s1
 2103 0c84 97000000 		call	_Z13printSlabInfoP6slab_s
 2103      E7800000 
GAS LISTING /tmp/cceDUpe5.s 			page 49


 2104              	.LVL213:
 449:src/slabAllocator.cpp ****         slab = slab->next;
 2105              		.loc 1 449 9 is_stmt 1
 2106              		.loc 1 449 14 is_stmt 0
 2107 0c8c 83B48400 		ld	s1,8(s1)
 2108              	.LVL214:
 446:src/slabAllocator.cpp ****     while(slab != nullptr)
 2109              		.loc 1 446 5
 2110 0c90 6FF0DFFE 		j	.L123
 2111              	.L122:
 450:src/slabAllocator.cpp ****     }
 451:src/slabAllocator.cpp **** 
 452:src/slabAllocator.cpp ****     KConsole::trapPrintString("Empty slabs\n");
 2112              		.loc 1 452 5 is_stmt 1
 2113              		.loc 1 452 30 is_stmt 0
 2114 0c94 17050000 		lla	a0,.LC14
 2114      13050500 
 2115 0c9c 97000000 		call	_ZN8KConsole15trapPrintStringEPKc@plt
 2115      E7800000 
 2116              	.LVL215:
 453:src/slabAllocator.cpp ****     slab = cachep->slabs_empty;
 2117              		.loc 1 453 5 is_stmt 1
 2118              		.loc 1 453 10 is_stmt 0
 2119 0ca4 83340904 		ld	s1,64(s2)
 2120              	.LVL216:
 2121              	.L125:
 454:src/slabAllocator.cpp ****     while(slab != nullptr)
 2122              		.loc 1 454 5 is_stmt 1
 2123              		.loc 1 454 16
 2124 0ca8 638C0400 		beqz	s1,.L124
 455:src/slabAllocator.cpp ****     {
 456:src/slabAllocator.cpp ****         printSlabInfo(slab);
 2125              		.loc 1 456 9
 2126              		.loc 1 456 22 is_stmt 0
 2127 0cac 13850400 		mv	a0,s1
 2128 0cb0 97000000 		call	_Z13printSlabInfoP6slab_s
 2128      E7800000 
 2129              	.LVL217:
 457:src/slabAllocator.cpp ****         slab = slab->next;
 2130              		.loc 1 457 9 is_stmt 1
 2131              		.loc 1 457 14 is_stmt 0
 2132 0cb8 83B48400 		ld	s1,8(s1)
 2133              	.LVL218:
 454:src/slabAllocator.cpp ****     while(slab != nullptr)
 2134              		.loc 1 454 5
 2135 0cbc 6FF0DFFE 		j	.L125
 2136              	.L124:
 458:src/slabAllocator.cpp ****     }
 459:src/slabAllocator.cpp **** 
 460:src/slabAllocator.cpp ****     KConsole::trapPrintString("\n\n\n\n\n\n\n\n");
 2137              		.loc 1 460 5 is_stmt 1
 2138              		.loc 1 460 30 is_stmt 0
 2139 0cc0 17050000 		lla	a0,.LC5
 2139      13050500 
 2140 0cc8 97000000 		call	_ZN8KConsole15trapPrintStringEPKc@plt
 2140      E7800000 
 2141              	.LVL219:
GAS LISTING /tmp/cceDUpe5.s 			page 50


 461:src/slabAllocator.cpp **** }
 2142              		.loc 1 461 1
 2143 0cd0 83308101 		ld	ra,24(sp)
 2144              		.cfi_restore 1
 2145 0cd4 03340101 		ld	s0,16(sp)
 2146              		.cfi_restore 8
 2147              		.cfi_def_cfa 2, 32
 2148 0cd8 83348100 		ld	s1,8(sp)
 2149              		.cfi_restore 9
 2150              	.LVL220:
 2151 0cdc 03390100 		ld	s2,0(sp)
 2152              		.cfi_restore 18
 2153              	.LVL221:
 2154 0ce0 13010102 		addi	sp,sp,32
 2155              		.cfi_def_cfa_offset 0
 2156 0ce4 67800000 		jr	ra
 2157              	.LVL222:
 2158              	.L127:
 2159 0ce8 67800000 		ret
 2160              		.cfi_endproc
 2161              	.LFE31:
 2163              		.section	.rodata.str1.8
 2164 015d 000000   		.align	3
 2165              	.LC15:
 2166 0160 0A0A0A0A 		.string	"\n\n\n\n\n\n\n\n\n"
 2166      0A0A0A0A 
 2166      0A00
 2167 016a 00000000 		.align	3
 2167      0000
 2168              	.LC16:
 2169 0170 536C6162 		.string	"Slab allocator info----------------------------------------------------------\n"
 2169      20616C6C 
 2169      6F636174 
 2169      6F722069 
 2169      6E666F2D 
 2170 01bf 00       		.align	3
 2171              	.LC17:
 2172 01c0 536C6162 		.string	"Slab allocator buddy address "
 2172      20616C6C 
 2172      6F636174 
 2172      6F722062 
 2172      75646479 
 2173 01de 0000     		.align	3
 2174              	.LC18:
 2175 01e0 536C6162 		.string	"Slab allocator address "
 2175      20616C6C 
 2175      6F636174 
 2175      6F722061 
 2175      64647265 
 2176              		.align	3
 2177              	.LC19:
 2178 01f8 43616368 		.string	"Cache of caches info\n"
 2178      65206F66 
 2178      20636163 
 2178      68657320 
 2178      696E666F 
 2179 020e 0000     		.align	3
GAS LISTING /tmp/cceDUpe5.s 			page 51


 2180              	.LC20:
 2181 0210 43616368 		.string	"Caches for buffers\n"
 2181      65732066 
 2181      6F722062 
 2181      75666665 
 2181      72730A00 
 2182              		.text
 2183              		.align	2
 2184              		.globl	_Z22printSlabAllocatorInfov
 2186              	_Z22printSlabAllocatorInfov:
 2187              	.LFB26:
 333:src/slabAllocator.cpp ****     KConsole::trapPrintString("\n\n\n\n\n\n\n\n\n");
 2188              		.loc 1 333 1 is_stmt 1
 2189              		.cfi_startproc
 2190 0cec 130101FE 		addi	sp,sp,-32
 2191              		.cfi_def_cfa_offset 32
 2192 0cf0 233C1100 		sd	ra,24(sp)
 2193 0cf4 23388100 		sd	s0,16(sp)
 2194 0cf8 23349100 		sd	s1,8(sp)
 2195              		.cfi_offset 1, -8
 2196              		.cfi_offset 8, -16
 2197              		.cfi_offset 9, -24
 2198 0cfc 13040102 		addi	s0,sp,32
 2199              		.cfi_def_cfa 8, 0
 334:src/slabAllocator.cpp ****     KConsole::trapPrintString("Slab allocator info-------------------------------------------------
 2200              		.loc 1 334 5
 334:src/slabAllocator.cpp ****     KConsole::trapPrintString("Slab allocator info-------------------------------------------------
 2201              		.loc 1 334 30 is_stmt 0
 2202 0d00 17050000 		lla	a0,.LC15
 2202      13050500 
 2203 0d08 97000000 		call	_ZN8KConsole15trapPrintStringEPKc@plt
 2203      E7800000 
 2204              	.LVL223:
 335:src/slabAllocator.cpp ****     KConsole::trapPrintStringInt("Slab allocator buddy address ", (size_t)slabAllocator->buddy,16);
 2205              		.loc 1 335 5 is_stmt 1
 335:src/slabAllocator.cpp ****     KConsole::trapPrintStringInt("Slab allocator buddy address ", (size_t)slabAllocator->buddy,16);
 2206              		.loc 1 335 30 is_stmt 0
 2207 0d10 17050000 		lla	a0,.LC16
 2207      13050500 
 2208 0d18 97000000 		call	_ZN8KConsole15trapPrintStringEPKc@plt
 2208      E7800000 
 2209              	.LVL224:
 336:src/slabAllocator.cpp ****     KConsole::trapPrintStringInt("Slab allocator address ", (size_t)slabAllocator, 16);
 2210              		.loc 1 336 5 is_stmt 1
 336:src/slabAllocator.cpp ****     KConsole::trapPrintStringInt("Slab allocator address ", (size_t)slabAllocator, 16);
 2211              		.loc 1 336 90 is_stmt 0
 2212 0d20 97040000 		lla	s1,.LANCHOR0
 2212      93840400 
 2213 0d28 83B70400 		ld	a5,0(s1)
 336:src/slabAllocator.cpp ****     KConsole::trapPrintStringInt("Slab allocator address ", (size_t)slabAllocator, 16);
 2214              		.loc 1 336 33
 2215 0d2c 13060001 		li	a2,16
 2216 0d30 83B50700 		ld	a1,0(a5)
 2217 0d34 17050000 		lla	a0,.LC17
 2217      13050500 
 2218 0d3c 97000000 		call	_ZN8KConsole18trapPrintStringIntEPKcmi@plt
 2218      E7800000 
GAS LISTING /tmp/cceDUpe5.s 			page 52


 2219              	.LVL225:
 337:src/slabAllocator.cpp ****     KConsole::trapPrintString("Cache of caches info\n");
 2220              		.loc 1 337 5 is_stmt 1
 337:src/slabAllocator.cpp ****     KConsole::trapPrintString("Cache of caches info\n");
 2221              		.loc 1 337 33 is_stmt 0
 2222 0d44 13060001 		li	a2,16
 2223 0d48 83B50400 		ld	a1,0(s1)
 2224 0d4c 17050000 		lla	a0,.LC18
 2224      13050500 
 2225 0d54 97000000 		call	_ZN8KConsole18trapPrintStringIntEPKcmi@plt
 2225      E7800000 
 2226              	.LVL226:
 338:src/slabAllocator.cpp ****     kmem_cache_info(&slabAllocator->cacheOfCaches);
 2227              		.loc 1 338 5 is_stmt 1
 338:src/slabAllocator.cpp ****     kmem_cache_info(&slabAllocator->cacheOfCaches);
 2228              		.loc 1 338 30 is_stmt 0
 2229 0d5c 17050000 		lla	a0,.LC19
 2229      13050500 
 2230 0d64 97000000 		call	_ZN8KConsole15trapPrintStringEPKc@plt
 2230      E7800000 
 2231              	.LVL227:
 339:src/slabAllocator.cpp ****     KConsole::trapPrintString("Caches for buffers\n");
 2232              		.loc 1 339 5 is_stmt 1
 339:src/slabAllocator.cpp ****     KConsole::trapPrintString("Caches for buffers\n");
 2233              		.loc 1 339 37 is_stmt 0
 2234 0d6c 03B50400 		ld	a0,0(s1)
 339:src/slabAllocator.cpp ****     KConsole::trapPrintString("Caches for buffers\n");
 2235              		.loc 1 339 20
 2236 0d70 13050507 		addi	a0,a0,112
 2237 0d74 97000000 		call	_Z15kmem_cache_infoP12kmem_cache_s
 2237      E7800000 
 2238              	.LVL228:
 340:src/slabAllocator.cpp ****     for(size_t i = 0;i < CACHE_BUFFER_SIZE;i++)
 2239              		.loc 1 340 5 is_stmt 1
 340:src/slabAllocator.cpp ****     for(size_t i = 0;i < CACHE_BUFFER_SIZE;i++)
 2240              		.loc 1 340 30 is_stmt 0
 2241 0d7c 17050000 		lla	a0,.LC20
 2241      13050500 
 2242 0d84 97000000 		call	_ZN8KConsole15trapPrintStringEPKc@plt
 2242      E7800000 
 2243              	.LVL229:
 341:src/slabAllocator.cpp ****     {
 2244              		.loc 1 341 5 is_stmt 1
 2245              	.LBB23:
 341:src/slabAllocator.cpp ****     {
 2246              		.loc 1 341 16 is_stmt 0
 2247 0d8c 93040000 		li	s1,0
 2248 0d90 6F000001 		j	.L133
 2249              	.LVL230:
 2250              	.L135:
 345:src/slabAllocator.cpp ****         }
 2251              		.loc 1 345 13 is_stmt 1
 345:src/slabAllocator.cpp ****         }
 2252              		.loc 1 345 28 is_stmt 0
 2253 0d94 97000000 		call	_Z15kmem_cache_infoP12kmem_cache_s
 2253      E7800000 
 2254              	.LVL231:
GAS LISTING /tmp/cceDUpe5.s 			page 53


 2255              	.L132:
 341:src/slabAllocator.cpp ****     {
 2256              		.loc 1 341 5 is_stmt 1 discriminator 2
 2257 0d9c 93841400 		addi	s1,s1,1
 2258              	.LVL232:
 2259              	.L133:
 341:src/slabAllocator.cpp ****     {
 2260              		.loc 1 341 24 discriminator 1
 2261 0da0 9307C000 		li	a5,12
 2262 0da4 63E09702 		bgtu	s1,a5,.L131
 343:src/slabAllocator.cpp ****         {
 2263              		.loc 1 343 9
 343:src/slabAllocator.cpp ****         {
 2264              		.loc 1 343 42 is_stmt 0
 2265 0da8 93973400 		slli	a5,s1,3
 2266 0dac 17070000 		ld	a4,.LANCHOR0
 2266      03370700 
 2267 0db4 B307F700 		add	a5,a4,a5
 2268 0db8 03B58700 		ld	a0,8(a5)
 343:src/slabAllocator.cpp ****         {
 2269              		.loc 1 343 9
 2270 0dbc E31C05FC 		bnez	a0,.L135
 2271 0dc0 6FF0DFFD 		j	.L132
 2272              	.L131:
 2273              	.LBE23:
 348:src/slabAllocator.cpp **** }
 2274              		.loc 1 348 5 is_stmt 1
 348:src/slabAllocator.cpp **** }
 2275              		.loc 1 348 30 is_stmt 0
 2276 0dc4 17050000 		lla	a0,.LC15
 2276      13050500 
 2277 0dcc 97000000 		call	_ZN8KConsole15trapPrintStringEPKc@plt
 2277      E7800000 
 2278              	.LVL233:
 349:src/slabAllocator.cpp **** 
 2279              		.loc 1 349 1
 2280 0dd4 83308101 		ld	ra,24(sp)
 2281              		.cfi_restore 1
 2282 0dd8 03340101 		ld	s0,16(sp)
 2283              		.cfi_restore 8
 2284              		.cfi_def_cfa 2, 32
 2285 0ddc 83348100 		ld	s1,8(sp)
 2286              		.cfi_restore 9
 2287              	.LVL234:
 2288 0de0 13010102 		addi	sp,sp,32
 2289              		.cfi_def_cfa_offset 0
 2290 0de4 67800000 		jr	ra
 2291              		.cfi_endproc
 2292              	.LFE26:
 2294              		.section	.rodata.str1.8
 2295 0224 00000000 		.align	3
 2296              	.LC21:
 2297 0228 43616368 		.string	"Cache for small buffers"
 2297      6520666F 
 2297      7220736D 
 2297      616C6C20 
 2297      62756666 
GAS LISTING /tmp/cceDUpe5.s 			page 54


 2298              		.text
 2299              		.align	2
 2300              		.globl	_Z7kmallocm
 2302              	_Z7kmallocm:
 2303              	.LFB32:
 462:src/slabAllocator.cpp **** 
 463:src/slabAllocator.cpp **** void *kmalloc(size_t size)
 464:src/slabAllocator.cpp **** {
 2304              		.loc 1 464 1 is_stmt 1
 2305              		.cfi_startproc
 2306              	.LVL235:
 2307 0de8 130101FD 		addi	sp,sp,-48
 2308              		.cfi_def_cfa_offset 48
 2309 0dec 23341102 		sd	ra,40(sp)
 2310 0df0 23308102 		sd	s0,32(sp)
 2311 0df4 233C9100 		sd	s1,24(sp)
 2312 0df8 23382101 		sd	s2,16(sp)
 2313 0dfc 23343101 		sd	s3,8(sp)
 2314              		.cfi_offset 1, -8
 2315              		.cfi_offset 8, -16
 2316              		.cfi_offset 9, -24
 2317              		.cfi_offset 18, -32
 2318              		.cfi_offset 19, -40
 2319 0e00 13040103 		addi	s0,sp,48
 2320              		.cfi_def_cfa 8, 0
 465:src/slabAllocator.cpp ****     size_t level = getDeg2Ceil(size);
 2321              		.loc 1 465 5
 2322              		.loc 1 465 31 is_stmt 0
 2323 0e04 97000000 		call	_Z11getDeg2Ceilm@plt
 2323      E7800000 
 2324              	.LVL236:
 466:src/slabAllocator.cpp ****     if(level < CACHE_BUFFER_SMALL)
 2325              		.loc 1 466 5 is_stmt 1
 2326 0e0c 93074000 		li	a5,4
 2327 0e10 63FAA700 		bleu	a0,a5,.L140
 467:src/slabAllocator.cpp ****         level = CACHE_BUFFER_SMALL;
 468:src/slabAllocator.cpp ****     if(level > CACHE_BUFFER_BIG)
 2328              		.loc 1 468 5
 2329 0e14 93071001 		li	a5,17
 2330 0e18 63F8A700 		bleu	a0,a5,.L137
 469:src/slabAllocator.cpp ****         return nullptr;
 2331              		.loc 1 469 16 is_stmt 0
 2332 0e1c 13090000 		li	s2,0
 2333 0e20 6F00C004 		j	.L136
 2334              	.L140:
 467:src/slabAllocator.cpp ****         level = CACHE_BUFFER_SMALL;
 2335              		.loc 1 467 15
 2336 0e24 13055000 		li	a0,5
 2337              	.LVL237:
 2338              	.L137:
 470:src/slabAllocator.cpp ****     size = (1 << level);
 2339              		.loc 1 470 5 is_stmt 1
 2340              		.loc 1 470 15 is_stmt 0
 2341 0e28 93061000 		li	a3,1
 2342 0e2c BB99A600 		sllw	s3,a3,a0
 2343              	.LVL238:
 471:src/slabAllocator.cpp ****     size_t index = level - CACHE_BUFFER_SMALL;
GAS LISTING /tmp/cceDUpe5.s 			page 55


 2344              		.loc 1 471 5 is_stmt 1
 2345              		.loc 1 471 12 is_stmt 0
 2346 0e30 9304B5FF 		addi	s1,a0,-5
 2347              	.LVL239:
 472:src/slabAllocator.cpp ****     if(slabAllocator->cachesBuffers[index] == nullptr)
 2348              		.loc 1 472 5 is_stmt 1
 2349              		.loc 1 472 42 is_stmt 0
 2350 0e34 17090000 		ld	s2,.LANCHOR0
 2350      03390900 
 2351 0e3c 93973400 		slli	a5,s1,3
 2352 0e40 B307F900 		add	a5,s2,a5
 2353 0e44 83B78700 		ld	a5,8(a5)
 2354              		.loc 1 472 5
 2355 0e48 63820704 		beqz	a5,.L143
 2356              	.L139:
 473:src/slabAllocator.cpp ****     {
 474:src/slabAllocator.cpp ****         slabAllocator->cachesBuffers[index] = (kmem_cache_t*)kmem_cache_alloc(&slabAllocator->cache
 475:src/slabAllocator.cpp ****         if(slabAllocator->cachesBuffers[index] == nullptr)
 476:src/slabAllocator.cpp ****             return nullptr;
 477:src/slabAllocator.cpp ****         init_cache(slabAllocator->cachesBuffers[index], "Cache for small buffers", getOptimalSlabSi
 478:src/slabAllocator.cpp ****     }
 479:src/slabAllocator.cpp **** 
 480:src/slabAllocator.cpp ****     return kmem_cache_alloc(slabAllocator->cachesBuffers[index]);
 2357              		.loc 1 480 5 is_stmt 1
 2358              		.loc 1 480 28 is_stmt 0
 2359 0e4c 13953400 		slli	a0,s1,3
 2360 0e50 97040000 		ld	s1,.LANCHOR0
 2360      83B40400 
 2361              	.LVL240:
 2362 0e58 3385A400 		add	a0,s1,a0
 2363 0e5c 03358500 		ld	a0,8(a0)
 2364 0e60 97000000 		call	_Z16kmem_cache_allocP12kmem_cache_s
 2364      E7800000 
 2365              	.LVL241:
 2366 0e68 13090500 		mv	s2,a0
 2367              	.LVL242:
 2368              	.L136:
 481:src/slabAllocator.cpp **** }
 2369              		.loc 1 481 1
 2370 0e6c 13050900 		mv	a0,s2
 2371 0e70 83308102 		ld	ra,40(sp)
 2372              		.cfi_remember_state
 2373              		.cfi_restore 1
 2374 0e74 03340102 		ld	s0,32(sp)
 2375              		.cfi_restore 8
 2376              		.cfi_def_cfa 2, 48
 2377 0e78 83348101 		ld	s1,24(sp)
 2378              		.cfi_restore 9
 2379 0e7c 03390101 		ld	s2,16(sp)
 2380              		.cfi_restore 18
 2381 0e80 83398100 		ld	s3,8(sp)
 2382              		.cfi_restore 19
 2383 0e84 13010103 		addi	sp,sp,48
 2384              		.cfi_def_cfa_offset 0
 2385 0e88 67800000 		jr	ra
 2386              	.LVL243:
 2387              	.L143:
GAS LISTING /tmp/cceDUpe5.s 			page 56


 2388              		.cfi_restore_state
 474:src/slabAllocator.cpp ****         if(slabAllocator->cachesBuffers[index] == nullptr)
 2389              		.loc 1 474 9 is_stmt 1
 474:src/slabAllocator.cpp ****         if(slabAllocator->cachesBuffers[index] == nullptr)
 2390              		.loc 1 474 78 is_stmt 0
 2391 0e8c 13050907 		addi	a0,s2,112
 2392 0e90 97000000 		call	_Z16kmem_cache_allocP12kmem_cache_s
 2392      E7800000 
 2393              	.LVL244:
 474:src/slabAllocator.cpp ****         if(slabAllocator->cachesBuffers[index] == nullptr)
 2394              		.loc 1 474 45
 2395 0e98 13973400 		slli	a4,s1,3
 2396 0e9c 3309E900 		add	s2,s2,a4
 2397 0ea0 2334A900 		sd	a0,8(s2)
 475:src/slabAllocator.cpp ****             return nullptr;
 2398              		.loc 1 475 9 is_stmt 1
 475:src/slabAllocator.cpp ****             return nullptr;
 2399              		.loc 1 475 46 is_stmt 0
 2400 0ea4 97070000 		ld	a5,.LANCHOR0
 2400      83B70700 
 2401 0eac B387E700 		add	a5,a5,a4
 2402 0eb0 03B98700 		ld	s2,8(a5)
 475:src/slabAllocator.cpp ****             return nullptr;
 2403              		.loc 1 475 9
 2404 0eb4 E30C09FA 		beqz	s2,.L136
 477:src/slabAllocator.cpp ****     }
 2405              		.loc 1 477 9 is_stmt 1
 477:src/slabAllocator.cpp ****     }
 2406              		.loc 1 477 19 is_stmt 0
 2407 0eb8 13850900 		mv	a0,s3
 2408 0ebc 97000000 		call	_Z18getOptimalSlabSizem
 2408      E7800000 
 2409              	.LVL245:
 2410 0ec4 13060500 		mv	a2,a0
 2411 0ec8 93070000 		li	a5,0
 2412 0ecc 13070000 		li	a4,0
 2413 0ed0 93860900 		mv	a3,s3
 2414 0ed4 97050000 		lla	a1,.LC21
 2414      93850500 
 2415 0edc 13050900 		mv	a0,s2
 2416 0ee0 97000000 		call	_Z10init_cacheP12kmem_cache_sPKcmmPFvPvES5_
 2416      E7800000 
 2417              	.LVL246:
 2418 0ee8 6FF05FF6 		j	.L139
 2419              		.cfi_endproc
 2420              	.LFE32:
 2422              		.align	2
 2423              		.globl	_Z5kfreePKv
 2425              	_Z5kfreePKv:
 2426              	.LFB33:
 482:src/slabAllocator.cpp **** 
 483:src/slabAllocator.cpp **** void kfree(const void *objp)
 484:src/slabAllocator.cpp **** {
 2427              		.loc 1 484 1 is_stmt 1
 2428              		.cfi_startproc
 2429              	.LVL247:
 485:src/slabAllocator.cpp ****     if(objp == nullptr)
GAS LISTING /tmp/cceDUpe5.s 			page 57


 2430              		.loc 1 485 5
 2431 0eec 63020508 		beqz	a0,.L149
 484:src/slabAllocator.cpp ****     if(objp == nullptr)
 2432              		.loc 1 484 1 is_stmt 0
 2433 0ef0 130101FE 		addi	sp,sp,-32
 2434              		.cfi_def_cfa_offset 32
 2435 0ef4 233C1100 		sd	ra,24(sp)
 2436 0ef8 23388100 		sd	s0,16(sp)
 2437 0efc 23349100 		sd	s1,8(sp)
 2438 0f00 23302101 		sd	s2,0(sp)
 2439              		.cfi_offset 1, -8
 2440              		.cfi_offset 8, -16
 2441              		.cfi_offset 9, -24
 2442              		.cfi_offset 18, -32
 2443 0f04 13040102 		addi	s0,sp,32
 2444              		.cfi_def_cfa 8, 0
 2445 0f08 13090500 		mv	s2,a0
 2446              	.LBB24:
 486:src/slabAllocator.cpp ****         return;
 487:src/slabAllocator.cpp ****     slab_t* slab = nullptr;
 488:src/slabAllocator.cpp ****     for(size_t i = 0;i < CACHE_BUFFER_SIZE;i++)
 2447              		.loc 1 488 16
 2448 0f0c 93040000 		li	s1,0
 2449              	.LBE24:
 487:src/slabAllocator.cpp ****     for(size_t i = 0;i < CACHE_BUFFER_SIZE;i++)
 2450              		.loc 1 487 13
 2451 0f10 13050000 		li	a0,0
 2452              	.LVL248:
 2453              	.L147:
 2454              	.LBB25:
 2455              		.loc 1 488 24 is_stmt 1 discriminator 1
 2456 0f14 9307C000 		li	a5,12
 2457 0f18 63E89702 		bgtu	s1,a5,.L146
 489:src/slabAllocator.cpp ****     {
 490:src/slabAllocator.cpp ****         slab = findSlab(slabAllocator->cachesBuffers[i], objp);
 2458              		.loc 1 490 9
 2459              		.loc 1 490 24 is_stmt 0
 2460 0f1c 93973400 		slli	a5,s1,3
 2461 0f20 17070000 		ld	a4,.LANCHOR0
 2461      03370700 
 2462 0f28 B307F700 		add	a5,a4,a5
 2463 0f2c 93050900 		mv	a1,s2
 2464 0f30 03B58700 		ld	a0,8(a5)
 2465              	.LVL249:
 2466 0f34 97000000 		call	_Z8findSlabP12kmem_cache_sPKv
 2466      E7800000 
 2467              	.LVL250:
 491:src/slabAllocator.cpp ****         if(slab != nullptr) break;
 2468              		.loc 1 491 9 is_stmt 1
 2469 0f3c 63160500 		bnez	a0,.L146
 488:src/slabAllocator.cpp ****     {
 2470              		.loc 1 488 5 discriminator 2
 2471 0f40 93841400 		addi	s1,s1,1
 2472              	.LVL251:
 2473 0f44 6FF01FFD 		j	.L147
 2474              	.L146:
 2475              	.LBE25:
GAS LISTING /tmp/cceDUpe5.s 			page 58


 492:src/slabAllocator.cpp ****     }
 493:src/slabAllocator.cpp ****     if(slab != nullptr)
 2476              		.loc 1 493 5
 2477 0f48 63080500 		beqz	a0,.L144
 494:src/slabAllocator.cpp ****     {
 495:src/slabAllocator.cpp ****         free_slab_object(slab, objp);
 2478              		.loc 1 495 9
 2479              		.loc 1 495 25 is_stmt 0
 2480 0f4c 93050900 		mv	a1,s2
 2481 0f50 97000000 		call	_Z16free_slab_objectP6slab_sPKv
 2481      E7800000 
 2482              	.LVL252:
 2483              	.L144:
 496:src/slabAllocator.cpp ****     }
 497:src/slabAllocator.cpp **** }
 2484              		.loc 1 497 1
 2485 0f58 83308101 		ld	ra,24(sp)
 2486              		.cfi_restore 1
 2487 0f5c 03340101 		ld	s0,16(sp)
 2488              		.cfi_restore 8
 2489              		.cfi_def_cfa 2, 32
 2490 0f60 83348100 		ld	s1,8(sp)
 2491              		.cfi_restore 9
 2492              	.LVL253:
 2493 0f64 03390100 		ld	s2,0(sp)
 2494              		.cfi_restore 18
 2495              	.LVL254:
 2496 0f68 13010102 		addi	sp,sp,32
 2497              		.cfi_def_cfa_offset 0
 2498 0f6c 67800000 		jr	ra
 2499              	.LVL255:
 2500              	.L149:
 2501 0f70 67800000 		ret
 2502              		.cfi_endproc
 2503              	.LFE33:
 2505              		.align	2
 2506              		.globl	_Z18kmem_cache_destroyP12kmem_cache_s
 2508              	_Z18kmem_cache_destroyP12kmem_cache_s:
 2509              	.LFB34:
 498:src/slabAllocator.cpp **** 
 499:src/slabAllocator.cpp **** void kmem_cache_destroy(kmem_cache_t *cachep)
 500:src/slabAllocator.cpp **** {
 2510              		.loc 1 500 1 is_stmt 1
 2511              		.cfi_startproc
 2512              	.LVL256:
 2513 0f74 130101FE 		addi	sp,sp,-32
 2514              		.cfi_def_cfa_offset 32
 2515 0f78 233C1100 		sd	ra,24(sp)
 2516 0f7c 23388100 		sd	s0,16(sp)
 2517 0f80 23349100 		sd	s1,8(sp)
 2518              		.cfi_offset 1, -8
 2519              		.cfi_offset 8, -16
 2520              		.cfi_offset 9, -24
 2521 0f84 13040102 		addi	s0,sp,32
 2522              		.cfi_def_cfa 8, 0
 2523 0f88 93040500 		mv	s1,a0
 501:src/slabAllocator.cpp ****     //if(cachep->slabs_partial != nullptr || cachep->slabs_full != nullptr)
GAS LISTING /tmp/cceDUpe5.s 			page 59


 502:src/slabAllocator.cpp ****     //{
 503:src/slabAllocator.cpp ****     //    cachep->errors|=DESTROY_ERROR;
 504:src/slabAllocator.cpp ****     //    return;
 505:src/slabAllocator.cpp ****     //}
 506:src/slabAllocator.cpp ****     destroy_slab_list(&cachep->slabs_empty);
 2524              		.loc 1 506 5
 2525              		.loc 1 506 22 is_stmt 0
 2526 0f8c 13050504 		addi	a0,a0,64
 2527              	.LVL257:
 2528 0f90 97000000 		call	_Z17destroy_slab_listPP6slab_s
 2528      E7800000 
 2529              	.LVL258:
 507:src/slabAllocator.cpp ****     destroy_slab_list(&cachep->slabs_partial);
 2530              		.loc 1 507 5 is_stmt 1
 2531              		.loc 1 507 22 is_stmt 0
 2532 0f98 13850405 		addi	a0,s1,80
 2533 0f9c 97000000 		call	_Z17destroy_slab_listPP6slab_s
 2533      E7800000 
 2534              	.LVL259:
 508:src/slabAllocator.cpp ****     destroy_slab_list(&cachep->slabs_full);
 2535              		.loc 1 508 5 is_stmt 1
 2536              		.loc 1 508 22 is_stmt 0
 2537 0fa4 13858404 		addi	a0,s1,72
 2538 0fa8 97000000 		call	_Z17destroy_slab_listPP6slab_s
 2538      E7800000 
 2539              	.LVL260:
 509:src/slabAllocator.cpp ****     kmem_cache_free(&slabAllocator->cacheOfCaches,cachep);
 2540              		.loc 1 509 5 is_stmt 1
 2541              		.loc 1 509 20 is_stmt 0
 2542 0fb0 93850400 		mv	a1,s1
 2543 0fb4 17050000 		ld	a0,.LANCHOR0
 2543      03350500 
 2544 0fbc 13050507 		addi	a0,a0,112
 2545 0fc0 97000000 		call	_Z15kmem_cache_freeP12kmem_cache_sPv
 2545      E7800000 
 2546              	.LVL261:
 510:src/slabAllocator.cpp **** }
 2547              		.loc 1 510 1
 2548 0fc8 83308101 		ld	ra,24(sp)
 2549              		.cfi_restore 1
 2550 0fcc 03340101 		ld	s0,16(sp)
 2551              		.cfi_restore 8
 2552              		.cfi_def_cfa 2, 32
 2553 0fd0 83348100 		ld	s1,8(sp)
 2554              		.cfi_restore 9
 2555              	.LVL262:
 2556 0fd4 13010102 		addi	sp,sp,32
 2557              		.cfi_def_cfa_offset 0
 2558 0fd8 67800000 		jr	ra
 2559              		.cfi_endproc
 2560              	.LFE34:
 2562              		.align	2
 2563              		.globl	_Z17kmem_cache_shrinkP12kmem_cache_s
 2565              	_Z17kmem_cache_shrinkP12kmem_cache_s:
 2566              	.LFB35:
 511:src/slabAllocator.cpp **** 
 512:src/slabAllocator.cpp **** int kmem_cache_shrink(kmem_cache_t *cachep)
GAS LISTING /tmp/cceDUpe5.s 			page 60


 513:src/slabAllocator.cpp **** {
 2567              		.loc 1 513 1 is_stmt 1
 2568              		.cfi_startproc
 2569              	.LVL263:
 514:src/slabAllocator.cpp ****     if(cachep == nullptr)
 2570              		.loc 1 514 5
 2571 0fdc 63080502 		beqz	a0,.L156
 513:src/slabAllocator.cpp ****     if(cachep == nullptr)
 2572              		.loc 1 513 1 is_stmt 0
 2573 0fe0 130101FF 		addi	sp,sp,-16
 2574              		.cfi_def_cfa_offset 16
 2575 0fe4 23341100 		sd	ra,8(sp)
 2576 0fe8 23308100 		sd	s0,0(sp)
 2577              		.cfi_offset 1, -8
 2578              		.cfi_offset 8, -16
 2579 0fec 13040101 		addi	s0,sp,16
 2580              		.cfi_def_cfa 8, 0
 515:src/slabAllocator.cpp ****         return 0;
 516:src/slabAllocator.cpp ****     int totalBlocks = destroy_slab_list(&cachep->slabs_empty);
 2581              		.loc 1 516 5 is_stmt 1
 2582              		.loc 1 516 40 is_stmt 0
 2583 0ff0 13050504 		addi	a0,a0,64
 2584              	.LVL264:
 2585 0ff4 97000000 		call	_Z17destroy_slab_listPP6slab_s
 2585      E7800000 
 2586              	.LVL265:
 517:src/slabAllocator.cpp ****     return totalBlocks;
 2587              		.loc 1 517 5 is_stmt 1
 518:src/slabAllocator.cpp **** }
 2588              		.loc 1 518 1 is_stmt 0
 2589 0ffc 83308100 		ld	ra,8(sp)
 2590              		.cfi_restore 1
 2591 1000 03340100 		ld	s0,0(sp)
 2592              		.cfi_restore 8
 2593              		.cfi_def_cfa 2, 16
 2594 1004 13010101 		addi	sp,sp,16
 2595              		.cfi_def_cfa_offset 0
 2596 1008 67800000 		jr	ra
 2597              	.LVL266:
 2598              	.L156:
 515:src/slabAllocator.cpp ****         return 0;
 2599              		.loc 1 515 16
 2600 100c 13050000 		li	a0,0
 2601              	.LVL267:
 2602              		.loc 1 518 1
 2603 1010 67800000 		ret
 2604              		.cfi_endproc
 2605              	.LFE35:
 2607              		.section	.rodata.str1.8
 2608              		.align	3
 2609              	.LC22:
 2610 0240 45585041 		.string	"EXPAND ERROR\n"
 2610      4E442045 
 2610      52524F52 
 2610      0A00
 2611 024e 0000     		.align	3
 2612              	.LC23:
GAS LISTING /tmp/cceDUpe5.s 			page 61


 2613 0250 44455354 		.string	"DESTROY ERROR"
 2613      524F5920 
 2613      4552524F 
 2613      5200
 2614              		.text
 2615              		.align	2
 2616              		.globl	_Z16kmem_cache_errorP12kmem_cache_s
 2618              	_Z16kmem_cache_errorP12kmem_cache_s:
 2619              	.LFB36:
 519:src/slabAllocator.cpp **** 
 520:src/slabAllocator.cpp **** int kmem_cache_error(kmem_cache_t *cachep)
 521:src/slabAllocator.cpp **** {
 2620              		.loc 1 521 1 is_stmt 1
 2621              		.cfi_startproc
 2622              	.LVL268:
 522:src/slabAllocator.cpp ****     if(cachep == nullptr)
 2623              		.loc 1 522 5
 2624 1014 630A0506 		beqz	a0,.L165
 521:src/slabAllocator.cpp ****     if(cachep == nullptr)
 2625              		.loc 1 521 1 is_stmt 0
 2626 1018 130101FE 		addi	sp,sp,-32
 2627              		.cfi_def_cfa_offset 32
 2628 101c 233C1100 		sd	ra,24(sp)
 2629 1020 23388100 		sd	s0,16(sp)
 2630 1024 23349100 		sd	s1,8(sp)
 2631              		.cfi_offset 1, -8
 2632              		.cfi_offset 8, -16
 2633              		.cfi_offset 9, -24
 2634 1028 13040102 		addi	s0,sp,32
 2635              		.cfi_def_cfa 8, 0
 2636 102c 93040500 		mv	s1,a0
 523:src/slabAllocator.cpp ****         return 0;
 524:src/slabAllocator.cpp **** 
 525:src/slabAllocator.cpp ****     if(cachep->errors & EXPAND_ERROR)
 2637              		.loc 1 525 5 is_stmt 1
 2638              		.loc 1 525 16 is_stmt 0
 2639 1030 83278507 		lw	a5,120(a0)
 2640              		.loc 1 525 23
 2641 1034 93F71700 		andi	a5,a5,1
 2642              		.loc 1 525 5
 2643 1038 63940702 		bnez	a5,.L170
 2644              	.LVL269:
 2645              	.L163:
 526:src/slabAllocator.cpp ****         KConsole::trapPrintString("EXPAND ERROR\n");
 527:src/slabAllocator.cpp ****     if(cachep->errors & DESTROY_ERROR)
 2646              		.loc 1 527 5 is_stmt 1
 2647              		.loc 1 527 16 is_stmt 0
 2648 103c 83A78407 		lw	a5,120(s1)
 2649              		.loc 1 527 23
 2650 1040 93F72700 		andi	a5,a5,2
 2651              		.loc 1 527 5
 2652 1044 63980702 		bnez	a5,.L171
 2653              	.L164:
 528:src/slabAllocator.cpp ****         KConsole::trapPrintString("DESTROY ERROR");
 529:src/slabAllocator.cpp **** 
 530:src/slabAllocator.cpp ****     return cachep->errors;
 2654              		.loc 1 530 5 is_stmt 1
GAS LISTING /tmp/cceDUpe5.s 			page 62


 2655              		.loc 1 530 20 is_stmt 0
 2656 1048 03A58407 		lw	a0,120(s1)
 531:src/slabAllocator.cpp **** }
 2657              		.loc 1 531 1
 2658 104c 83308101 		ld	ra,24(sp)
 2659              		.cfi_remember_state
 2660              		.cfi_restore 1
 2661 1050 03340101 		ld	s0,16(sp)
 2662              		.cfi_restore 8
 2663              		.cfi_def_cfa 2, 32
 2664 1054 83348100 		ld	s1,8(sp)
 2665              		.cfi_restore 9
 2666              	.LVL270:
 2667 1058 13010102 		addi	sp,sp,32
 2668              		.cfi_def_cfa_offset 0
 2669 105c 67800000 		jr	ra
 2670              	.LVL271:
 2671              	.L170:
 2672              		.cfi_restore_state
 526:src/slabAllocator.cpp ****         KConsole::trapPrintString("EXPAND ERROR\n");
 2673              		.loc 1 526 9 is_stmt 1
 526:src/slabAllocator.cpp ****         KConsole::trapPrintString("EXPAND ERROR\n");
 2674              		.loc 1 526 34 is_stmt 0
 2675 1060 17050000 		lla	a0,.LC22
 2675      13050500 
 2676 1068 97000000 		call	_ZN8KConsole15trapPrintStringEPKc@plt
 2676      E7800000 
 2677              	.LVL272:
 2678 1070 6FF0DFFC 		j	.L163
 2679              	.L171:
 528:src/slabAllocator.cpp ****         KConsole::trapPrintString("DESTROY ERROR");
 2680              		.loc 1 528 9 is_stmt 1
 528:src/slabAllocator.cpp ****         KConsole::trapPrintString("DESTROY ERROR");
 2681              		.loc 1 528 34 is_stmt 0
 2682 1074 17050000 		lla	a0,.LC23
 2682      13050500 
 2683 107c 97000000 		call	_ZN8KConsole15trapPrintStringEPKc@plt
 2683      E7800000 
 2684              	.LVL273:
 2685 1084 6FF05FFC 		j	.L164
 2686              	.LVL274:
 2687              	.L165:
 2688              		.cfi_def_cfa_register 2
 2689              		.cfi_restore 1
 2690              		.cfi_restore 8
 2691              		.cfi_restore 9
 523:src/slabAllocator.cpp **** 
 2692              		.loc 1 523 16
 2693 1088 13050000 		li	a0,0
 2694              	.LVL275:
 2695              		.loc 1 531 1
 2696 108c 67800000 		ret
 2697              		.cfi_endproc
 2698              	.LFE36:
 2700              		.bss
 2701              		.align	3
 2702              		.set	.LANCHOR0,. + 0
GAS LISTING /tmp/cceDUpe5.s 			page 63


 2705              	_ZL13slabAllocator:
 2706 0000 00000000 		.zero	8
 2706      00000000 
 2707              		.text
 2708              	.Letext0:
 2709              		.file 2 "src/../h/../lib/hw.h"
 2710              		.file 3 "src/../h/slabAllocator.hpp"
 2711              		.file 4 "src/../h/buddyAllocator.hpp"
 2712              		.file 5 "src/../h/PCB.hpp"
 2713              		.file 6 "src/../h/KSemaphore.hpp"
 2714              		.file 7 "src/../h/KConsole.hpp"
GAS LISTING /tmp/cceDUpe5.s 			page 64


DEFINED SYMBOLS
                            *ABS*:0000000000000000 slabAllocator.cpp
     /tmp/cceDUpe5.s:9      .text:0000000000000000 _Z6strcpyPKcPc
     /tmp/cceDUpe5.s:13     .text:0000000000000000 .L0 
     /tmp/cceDUpe5.s:15     .text:0000000000000000 .L0 
     /tmp/cceDUpe5.s:16     .text:0000000000000004 .L0 
     /tmp/cceDUpe5.s:18     .text:0000000000000008 .L0 
     /tmp/cceDUpe5.s:20     .text:000000000000000c .L0 
     /tmp/cceDUpe5.s:23     .text:000000000000000c .L0 
     /tmp/cceDUpe5.s:24     .text:000000000000000c .L0 
     /tmp/cceDUpe5.s:25     .text:000000000000000c .L0 
     /tmp/cceDUpe5.s:27     .text:0000000000000010 .L0 
     /tmp/cceDUpe5.s:29     .text:0000000000000014 .L0 
     /tmp/cceDUpe5.s:30     .text:0000000000000014 .L0 
     /tmp/cceDUpe5.s:32     .text:0000000000000018 .L0 
     /tmp/cceDUpe5.s:33     .text:0000000000000018 .L0 
     /tmp/cceDUpe5.s:36     .text:000000000000001c .L0 
     /tmp/cceDUpe5.s:37     .text:000000000000001c .L0 
     /tmp/cceDUpe5.s:40     .text:0000000000000020 .L0 
     /tmp/cceDUpe5.s:43     .text:0000000000000024 .L0 
     /tmp/cceDUpe5.s:44     .text:0000000000000024 .L0 
     /tmp/cceDUpe5.s:46     .text:0000000000000028 .L0 
     /tmp/cceDUpe5.s:47     .text:000000000000002c .L0 
     /tmp/cceDUpe5.s:48     .text:000000000000002c .L0 
     /tmp/cceDUpe5.s:50     .text:0000000000000030 .L0 
     /tmp/cceDUpe5.s:52     .text:0000000000000034 .L0 
     /tmp/cceDUpe5.s:58     .text:0000000000000034 _Z17destroy_slab_listPP6slab_s
     /tmp/cceDUpe5.s:61     .text:0000000000000034 .L0 
     /tmp/cceDUpe5.s:63     .text:0000000000000034 .L0 
     /tmp/cceDUpe5.s:64     .text:0000000000000038 .L0 
     /tmp/cceDUpe5.s:71     .text:0000000000000050 .L0 
     /tmp/cceDUpe5.s:72     .text:0000000000000050 .L0 
     /tmp/cceDUpe5.s:73     .text:0000000000000050 .L0 
     /tmp/cceDUpe5.s:74     .text:0000000000000050 .L0 
     /tmp/cceDUpe5.s:75     .text:0000000000000050 .L0 
     /tmp/cceDUpe5.s:76     .text:0000000000000050 .L0 
     /tmp/cceDUpe5.s:78     .text:0000000000000054 .L0 
     /tmp/cceDUpe5.s:80     .text:0000000000000054 .L0 
     /tmp/cceDUpe5.s:81     .text:0000000000000054 .L0 
     /tmp/cceDUpe5.s:83     .text:0000000000000058 .L0 
     /tmp/cceDUpe5.s:86     .text:0000000000000060 .L0 
     /tmp/cceDUpe5.s:87     .text:0000000000000060 .L0 
     /tmp/cceDUpe5.s:89     .text:0000000000000064 .L0 
     /tmp/cceDUpe5.s:92     .text:0000000000000068 .L0 
     /tmp/cceDUpe5.s:93     .text:0000000000000068 .L0 
     /tmp/cceDUpe5.s:97     .text:000000000000006c .L0 
     /tmp/cceDUpe5.s:98     .text:000000000000006c .L0 
     /tmp/cceDUpe5.s:99     .text:000000000000006c .L0 
     /tmp/cceDUpe5.s:101    .text:0000000000000070 .L0 
     /tmp/cceDUpe5.s:104    .text:0000000000000074 .L0 
     /tmp/cceDUpe5.s:105    .text:0000000000000074 .L0 
     /tmp/cceDUpe5.s:108    .text:0000000000000078 .L0 
     /tmp/cceDUpe5.s:109    .text:0000000000000078 .L0 
     /tmp/cceDUpe5.s:115    .text:0000000000000090 .L0 
     /tmp/cceDUpe5.s:116    .text:0000000000000090 .L0 
     /tmp/cceDUpe5.s:118    .text:0000000000000094 .L0 
     /tmp/cceDUpe5.s:119    .text:0000000000000094 .L0 
GAS LISTING /tmp/cceDUpe5.s 			page 65


     /tmp/cceDUpe5.s:123    .text:0000000000000098 .L0 
     /tmp/cceDUpe5.s:127    .text:000000000000009c .L0 
     /tmp/cceDUpe5.s:131    .text:00000000000000a0 .L0 
     /tmp/cceDUpe5.s:133    .text:00000000000000a8 .L0 
     /tmp/cceDUpe5.s:135    .text:00000000000000ac .L0 
     /tmp/cceDUpe5.s:136    .text:00000000000000ac .L0 
     /tmp/cceDUpe5.s:138    .text:00000000000000b0 .L0 
     /tmp/cceDUpe5.s:140    .text:00000000000000b4 .L0 
     /tmp/cceDUpe5.s:142    .text:00000000000000b8 .L0 
     /tmp/cceDUpe5.s:144    .text:00000000000000bc .L0 
     /tmp/cceDUpe5.s:146    .text:00000000000000c0 .L0 
     /tmp/cceDUpe5.s:148    .text:00000000000000c4 .L0 
     /tmp/cceDUpe5.s:154    .text:00000000000000c4 _Z10init_cacheP12kmem_cache_sPKcmmPFvPvES5_
     /tmp/cceDUpe5.s:157    .text:00000000000000c4 .L0 
     /tmp/cceDUpe5.s:159    .text:00000000000000c4 .L0 
     /tmp/cceDUpe5.s:160    .text:00000000000000c8 .L0 
     /tmp/cceDUpe5.s:168    .text:00000000000000e4 .L0 
     /tmp/cceDUpe5.s:169    .text:00000000000000e4 .L0 
     /tmp/cceDUpe5.s:170    .text:00000000000000e4 .L0 
     /tmp/cceDUpe5.s:171    .text:00000000000000e4 .L0 
     /tmp/cceDUpe5.s:172    .text:00000000000000e4 .L0 
     /tmp/cceDUpe5.s:173    .text:00000000000000e4 .L0 
     /tmp/cceDUpe5.s:174    .text:00000000000000e4 .L0 
     /tmp/cceDUpe5.s:176    .text:00000000000000e8 .L0 
     /tmp/cceDUpe5.s:185    .text:0000000000000100 .L0 
     /tmp/cceDUpe5.s:186    .text:0000000000000100 .L0 
     /tmp/cceDUpe5.s:191    .text:000000000000010c .L0 
     /tmp/cceDUpe5.s:192    .text:000000000000010c .L0 
     /tmp/cceDUpe5.s:194    .text:0000000000000110 .L0 
     /tmp/cceDUpe5.s:195    .text:0000000000000110 .L0 
     /tmp/cceDUpe5.s:197    .text:0000000000000114 .L0 
     /tmp/cceDUpe5.s:198    .text:0000000000000114 .L0 
     /tmp/cceDUpe5.s:200    .text:0000000000000118 .L0 
     /tmp/cceDUpe5.s:201    .text:0000000000000118 .L0 
     /tmp/cceDUpe5.s:203    .text:000000000000011c .L0 
     /tmp/cceDUpe5.s:204    .text:000000000000011c .L0 
     /tmp/cceDUpe5.s:206    .text:0000000000000120 .L0 
     /tmp/cceDUpe5.s:208    .text:0000000000000124 .L0 
     /tmp/cceDUpe5.s:210    .text:0000000000000128 .L0 
     /tmp/cceDUpe5.s:211    .text:0000000000000128 .L0 
     /tmp/cceDUpe5.s:213    .text:000000000000012c .L0 
     /tmp/cceDUpe5.s:214    .text:0000000000000130 .L0 
     /tmp/cceDUpe5.s:216    .text:0000000000000134 .L0 
     /tmp/cceDUpe5.s:217    .text:0000000000000134 .L0 
     /tmp/cceDUpe5.s:219    .text:0000000000000138 .L0 
     /tmp/cceDUpe5.s:222    .text:000000000000013c .L0 
     /tmp/cceDUpe5.s:225    .text:0000000000000140 .L0 
     /tmp/cceDUpe5.s:228    .text:0000000000000144 .L0 
     /tmp/cceDUpe5.s:231    .text:0000000000000148 .L0 
     /tmp/cceDUpe5.s:234    .text:000000000000014c .L0 
     /tmp/cceDUpe5.s:236    .text:0000000000000150 .L0 
     /tmp/cceDUpe5.s:247    .text:0000000000000150 _Z19slab_allocator_initP14buddyAllocator
     /tmp/cceDUpe5.s:250    .text:0000000000000150 .L0 
     /tmp/cceDUpe5.s:252    .text:0000000000000150 .L0 
     /tmp/cceDUpe5.s:253    .text:0000000000000154 .L0 
     /tmp/cceDUpe5.s:257    .text:0000000000000160 .L0 
     /tmp/cceDUpe5.s:258    .text:0000000000000160 .L0 
GAS LISTING /tmp/cceDUpe5.s 			page 66


     /tmp/cceDUpe5.s:259    .text:0000000000000160 .L0 
     /tmp/cceDUpe5.s:261    .text:0000000000000164 .L0 
     /tmp/cceDUpe5.s:263    .text:0000000000000164 .L0 
     /tmp/cceDUpe5.s:264    .text:0000000000000164 .L0 
     /tmp/cceDUpe5.s:267    .text:0000000000000168 .L0 
     /tmp/cceDUpe5.s:268    .text:0000000000000168 .L0 
     /tmp/cceDUpe5.s:272    .text:000000000000016c .L0 
     /tmp/cceDUpe5.s:273    .text:000000000000016c .L0 
     /tmp/cceDUpe5.s:278    .text:0000000000000174 .L0 
     /tmp/cceDUpe5.s:279    .text:0000000000000174 .L0 
     /tmp/cceDUpe5.s:283    .text:0000000000000180 .L0 
     /tmp/cceDUpe5.s:287    .text:0000000000000184 .L0 
     /tmp/cceDUpe5.s:291    .text:000000000000018c .L0 
     /tmp/cceDUpe5.s:292    .text:000000000000018c .L0 
     /tmp/cceDUpe5.s:303    .text:00000000000001b0 .L0 
     /tmp/cceDUpe5.s:304    .text:00000000000001b0 .L0 
     /tmp/cceDUpe5.s:306    .text:00000000000001b8 .L0 
     /tmp/cceDUpe5.s:308    .text:00000000000001bc .L0 
     /tmp/cceDUpe5.s:309    .text:00000000000001bc .L0 
     /tmp/cceDUpe5.s:311    .text:00000000000001c0 .L0 
     /tmp/cceDUpe5.s:314    .text:00000000000001c4 .L0 
     /tmp/cceDUpe5.s:316    .text:00000000000001c8 .L0 
     /tmp/cceDUpe5.s:322    .text:00000000000001c8 _Z13checkSetIndexP6slab_si
     /tmp/cceDUpe5.s:325    .text:00000000000001c8 .L0 
     /tmp/cceDUpe5.s:327    .text:00000000000001c8 .L0 
     /tmp/cceDUpe5.s:328    .text:00000000000001cc .L0 
     /tmp/cceDUpe5.s:330    .text:00000000000001d0 .L0 
     /tmp/cceDUpe5.s:332    .text:00000000000001d4 .L0 
     /tmp/cceDUpe5.s:334    .text:00000000000001d4 .L0 
     /tmp/cceDUpe5.s:335    .text:00000000000001d4 .L0 
     /tmp/cceDUpe5.s:341    .text:00000000000001e4 .L0 
     /tmp/cceDUpe5.s:344    .text:00000000000001e8 .L0 
     /tmp/cceDUpe5.s:346    .text:00000000000001ec .L0 
     /tmp/cceDUpe5.s:349    .text:00000000000001f4 .L0 
     /tmp/cceDUpe5.s:351    .text:00000000000001f8 .L0 
     /tmp/cceDUpe5.s:353    .text:0000000000000200 .L0 
     /tmp/cceDUpe5.s:354    .text:0000000000000200 .L0 
     /tmp/cceDUpe5.s:356    .text:0000000000000204 .L0 
     /tmp/cceDUpe5.s:358    .text:0000000000000208 .L0 
     /tmp/cceDUpe5.s:364    .text:0000000000000208 _Z17setAllocatedIndexP6slab_si
     /tmp/cceDUpe5.s:367    .text:0000000000000208 .L0 
     /tmp/cceDUpe5.s:369    .text:0000000000000208 .L0 
     /tmp/cceDUpe5.s:370    .text:000000000000020c .L0 
     /tmp/cceDUpe5.s:372    .text:0000000000000210 .L0 
     /tmp/cceDUpe5.s:374    .text:0000000000000214 .L0 
     /tmp/cceDUpe5.s:376    .text:0000000000000214 .L0 
     /tmp/cceDUpe5.s:377    .text:0000000000000214 .L0 
     /tmp/cceDUpe5.s:383    .text:0000000000000224 .L0 
     /tmp/cceDUpe5.s:386    .text:0000000000000228 .L0 
     /tmp/cceDUpe5.s:388    .text:000000000000022c .L0 
     /tmp/cceDUpe5.s:391    .text:0000000000000234 .L0 
     /tmp/cceDUpe5.s:394    .text:000000000000023c .L0 
     /tmp/cceDUpe5.s:396    .text:0000000000000240 .L0 
     /tmp/cceDUpe5.s:398    .text:0000000000000244 .L0 
     /tmp/cceDUpe5.s:399    .text:0000000000000248 .L0 
     /tmp/cceDUpe5.s:400    .text:0000000000000248 .L0 
     /tmp/cceDUpe5.s:402    .text:000000000000024c .L0 
GAS LISTING /tmp/cceDUpe5.s 			page 67


     /tmp/cceDUpe5.s:404    .text:0000000000000250 .L0 
     /tmp/cceDUpe5.s:410    .text:0000000000000250 _Z14allocateObjectP6slab_s
     /tmp/cceDUpe5.s:413    .text:0000000000000250 .L0 
     /tmp/cceDUpe5.s:415    .text:0000000000000250 .L0 
     /tmp/cceDUpe5.s:416    .text:0000000000000254 .L0 
     /tmp/cceDUpe5.s:422    .text:0000000000000268 .L0 
     /tmp/cceDUpe5.s:423    .text:0000000000000268 .L0 
     /tmp/cceDUpe5.s:424    .text:0000000000000268 .L0 
     /tmp/cceDUpe5.s:425    .text:0000000000000268 .L0 
     /tmp/cceDUpe5.s:426    .text:0000000000000268 .L0 
     /tmp/cceDUpe5.s:428    .text:000000000000026c .L0 
     /tmp/cceDUpe5.s:431    .text:0000000000000270 .L0 
     /tmp/cceDUpe5.s:434    .text:0000000000000274 .L0 
     /tmp/cceDUpe5.s:438    .text:0000000000000278 .L0 
     /tmp/cceDUpe5.s:439    .text:0000000000000278 .L0 
     /tmp/cceDUpe5.s:441    .text:000000000000027c .L0 
     /tmp/cceDUpe5.s:443    .text:0000000000000280 .L0 
     /tmp/cceDUpe5.s:444    .text:0000000000000280 .L0 
     /tmp/cceDUpe5.s:450    .text:0000000000000294 .L0 
     /tmp/cceDUpe5.s:452    .text:0000000000000298 .L0 
     /tmp/cceDUpe5.s:457    .text:00000000000002a0 .L0 
     /tmp/cceDUpe5.s:458    .text:00000000000002a0 .L0 
     /tmp/cceDUpe5.s:460    .text:00000000000002a4 .L0 
     /tmp/cceDUpe5.s:462    .text:00000000000002a8 .L0 
     /tmp/cceDUpe5.s:465    .text:00000000000002ac .L0 
     /tmp/cceDUpe5.s:469    .text:00000000000002b4 .L0 
     /tmp/cceDUpe5.s:470    .text:00000000000002b4 .L0 
     /tmp/cceDUpe5.s:475    .text:00000000000002b8 .L0 
     /tmp/cceDUpe5.s:478    .text:00000000000002bc .L0 
     /tmp/cceDUpe5.s:482    .text:00000000000002c0 .L0 
     /tmp/cceDUpe5.s:484    .text:00000000000002c4 .L0 
     /tmp/cceDUpe5.s:485    .text:00000000000002c4 .L0 
     /tmp/cceDUpe5.s:490    .text:00000000000002d4 .L0 
     /tmp/cceDUpe5.s:491    .text:00000000000002d4 .L0 
     /tmp/cceDUpe5.s:493    .text:00000000000002d8 .L0 
     /tmp/cceDUpe5.s:498    .text:00000000000002e0 .L0 
     /tmp/cceDUpe5.s:499    .text:00000000000002e0 .L0 
     /tmp/cceDUpe5.s:501    .text:00000000000002e8 .L0 
     /tmp/cceDUpe5.s:502    .text:00000000000002e8 .L0 
     /tmp/cceDUpe5.s:504    .text:00000000000002ec .L0 
     /tmp/cceDUpe5.s:505    .text:00000000000002ec .L0 
     /tmp/cceDUpe5.s:507    .text:00000000000002f0 .L0 
     /tmp/cceDUpe5.s:509    .text:00000000000002f4 .L0 
     /tmp/cceDUpe5.s:512    .text:00000000000002f8 .L0 
     /tmp/cceDUpe5.s:514    .text:00000000000002fc .L0 
     /tmp/cceDUpe5.s:518    .text:0000000000000300 .L0 
     /tmp/cceDUpe5.s:520    .text:0000000000000300 .L0 
     /tmp/cceDUpe5.s:522    .text:0000000000000308 .L0 
     /tmp/cceDUpe5.s:528    .text:0000000000000308 _Z4fullP6slab_s
     /tmp/cceDUpe5.s:531    .text:0000000000000308 .L0 
     /tmp/cceDUpe5.s:533    .text:0000000000000308 .L0 
     /tmp/cceDUpe5.s:534    .text:000000000000030c .L0 
     /tmp/cceDUpe5.s:536    .text:0000000000000310 .L0 
     /tmp/cceDUpe5.s:538    .text:0000000000000314 .L0 
     /tmp/cceDUpe5.s:540    .text:0000000000000314 .L0 
     /tmp/cceDUpe5.s:541    .text:0000000000000314 .L0 
     /tmp/cceDUpe5.s:543    .text:0000000000000318 .L0 
GAS LISTING /tmp/cceDUpe5.s 			page 68


     /tmp/cceDUpe5.s:547    .text:0000000000000320 .L0 
     /tmp/cceDUpe5.s:549    .text:0000000000000328 .L0 
     /tmp/cceDUpe5.s:550    .text:0000000000000328 .L0 
     /tmp/cceDUpe5.s:552    .text:000000000000032c .L0 
     /tmp/cceDUpe5.s:554    .text:0000000000000330 .L0 
     /tmp/cceDUpe5.s:560    .text:0000000000000330 _Z5emptyP6slab_s
     /tmp/cceDUpe5.s:563    .text:0000000000000330 .L0 
     /tmp/cceDUpe5.s:565    .text:0000000000000330 .L0 
     /tmp/cceDUpe5.s:566    .text:0000000000000334 .L0 
     /tmp/cceDUpe5.s:568    .text:0000000000000338 .L0 
     /tmp/cceDUpe5.s:570    .text:000000000000033c .L0 
     /tmp/cceDUpe5.s:572    .text:000000000000033c .L0 
     /tmp/cceDUpe5.s:573    .text:000000000000033c .L0 
     /tmp/cceDUpe5.s:576    .text:0000000000000340 .L0 
     /tmp/cceDUpe5.s:578    .text:0000000000000348 .L0 
     /tmp/cceDUpe5.s:579    .text:0000000000000348 .L0 
     /tmp/cceDUpe5.s:581    .text:000000000000034c .L0 
     /tmp/cceDUpe5.s:583    .text:0000000000000350 .L0 
     /tmp/cceDUpe5.s:589    .text:0000000000000350 _Z18insertIntoSlabListP6slab_sPS0_
     /tmp/cceDUpe5.s:592    .text:0000000000000350 .L0 
     /tmp/cceDUpe5.s:594    .text:0000000000000350 .L0 
     /tmp/cceDUpe5.s:595    .text:0000000000000354 .L0 
     /tmp/cceDUpe5.s:597    .text:0000000000000358 .L0 
     /tmp/cceDUpe5.s:599    .text:000000000000035c .L0 
     /tmp/cceDUpe5.s:601    .text:000000000000035c .L0 
     /tmp/cceDUpe5.s:603    .text:0000000000000360 .L0 
     /tmp/cceDUpe5.s:604    .text:0000000000000360 .L0 
     /tmp/cceDUpe5.s:606    .text:0000000000000364 .L0 
     /tmp/cceDUpe5.s:607    .text:0000000000000364 .L0 
     /tmp/cceDUpe5.s:609    .text:0000000000000368 .L0 
     /tmp/cceDUpe5.s:611    .text:000000000000036c .L0 
     /tmp/cceDUpe5.s:613    .text:0000000000000370 .L0 
     /tmp/cceDUpe5.s:614    .text:0000000000000370 .L0 
     /tmp/cceDUpe5.s:617    .text:0000000000000374 .L0 
     /tmp/cceDUpe5.s:618    .text:0000000000000374 .L0 
     /tmp/cceDUpe5.s:621    .text:0000000000000378 .L0 
     /tmp/cceDUpe5.s:622    .text:000000000000037c .L0 
     /tmp/cceDUpe5.s:623    .text:000000000000037c .L0 
     /tmp/cceDUpe5.s:625    .text:0000000000000380 .L0 
     /tmp/cceDUpe5.s:627    .text:0000000000000384 .L0 
     /tmp/cceDUpe5.s:633    .text:0000000000000384 _Z18removeFromSlabListP6slab_sPS0_
     /tmp/cceDUpe5.s:636    .text:0000000000000384 .L0 
     /tmp/cceDUpe5.s:638    .text:0000000000000384 .L0 
     /tmp/cceDUpe5.s:639    .text:0000000000000388 .L0 
     /tmp/cceDUpe5.s:641    .text:000000000000038c .L0 
     /tmp/cceDUpe5.s:643    .text:0000000000000390 .L0 
     /tmp/cceDUpe5.s:645    .text:0000000000000390 .L0 
     /tmp/cceDUpe5.s:646    .text:0000000000000390 .L0 
     /tmp/cceDUpe5.s:648    .text:0000000000000394 .L0 
     /tmp/cceDUpe5.s:650    .text:0000000000000398 .L0 
     /tmp/cceDUpe5.s:651    .text:0000000000000398 .L0 
     /tmp/cceDUpe5.s:653    .text:000000000000039c .L0 
     /tmp/cceDUpe5.s:655    .text:00000000000003a0 .L0 
     /tmp/cceDUpe5.s:657    .text:00000000000003a4 .L0 
     /tmp/cceDUpe5.s:658    .text:00000000000003a4 .L0 
     /tmp/cceDUpe5.s:660    .text:00000000000003a8 .L0 
     /tmp/cceDUpe5.s:663    .text:00000000000003ac .L0 
GAS LISTING /tmp/cceDUpe5.s 			page 69


     /tmp/cceDUpe5.s:664    .text:00000000000003ac .L0 
     /tmp/cceDUpe5.s:666    .text:00000000000003b0 .L0 
     /tmp/cceDUpe5.s:669    .text:00000000000003b4 .L0 
     /tmp/cceDUpe5.s:670    .text:00000000000003b8 .L0 
     /tmp/cceDUpe5.s:671    .text:00000000000003b8 .L0 
     /tmp/cceDUpe5.s:672    .text:00000000000003b8 .L0 
     /tmp/cceDUpe5.s:674    .text:00000000000003bc .L0 
     /tmp/cceDUpe5.s:677    .text:00000000000003c0 .L0 
     /tmp/cceDUpe5.s:679    .text:00000000000003c0 .L0 
     /tmp/cceDUpe5.s:680    .text:00000000000003c0 .L0 
     /tmp/cceDUpe5.s:682    .text:00000000000003c4 .L0 
     /tmp/cceDUpe5.s:684    .text:00000000000003c8 .L0 
     /tmp/cceDUpe5.s:685    .text:00000000000003c8 .L0 
     /tmp/cceDUpe5.s:688    .text:00000000000003cc .L0 
     /tmp/cceDUpe5.s:689    .text:00000000000003cc .L0 
     /tmp/cceDUpe5.s:691    .text:00000000000003d0 .L0 
     /tmp/cceDUpe5.s:693    .text:00000000000003d4 .L0 
     /tmp/cceDUpe5.s:694    .text:00000000000003d4 .L0 
     /tmp/cceDUpe5.s:696    .text:00000000000003d8 .L0 
     /tmp/cceDUpe5.s:698    .text:00000000000003e0 .L0 
     /tmp/cceDUpe5.s:704    .text:00000000000003e0 _Z16putPartialToFullP12kmem_cache_s
     /tmp/cceDUpe5.s:707    .text:00000000000003e0 .L0 
     /tmp/cceDUpe5.s:709    .text:00000000000003e0 .L0 
     /tmp/cceDUpe5.s:710    .text:00000000000003e4 .L0 
     /tmp/cceDUpe5.s:715    .text:00000000000003f4 .L0 
     /tmp/cceDUpe5.s:716    .text:00000000000003f4 .L0 
     /tmp/cceDUpe5.s:717    .text:00000000000003f4 .L0 
     /tmp/cceDUpe5.s:718    .text:00000000000003f4 .L0 
     /tmp/cceDUpe5.s:720    .text:00000000000003f8 .L0 
     /tmp/cceDUpe5.s:723    .text:00000000000003fc .L0 
     /tmp/cceDUpe5.s:724    .text:00000000000003fc .L0 
     /tmp/cceDUpe5.s:727    .text:0000000000000400 .L0 
     /tmp/cceDUpe5.s:728    .text:0000000000000400 .L0 
     /tmp/cceDUpe5.s:734    .text:0000000000000410 .L0 
     /tmp/cceDUpe5.s:735    .text:0000000000000410 .L0 
     /tmp/cceDUpe5.s:740    .text:0000000000000420 .L0 
     /tmp/cceDUpe5.s:741    .text:0000000000000424 .L0 
     /tmp/cceDUpe5.s:743    .text:0000000000000428 .L0 
     /tmp/cceDUpe5.s:744    .text:0000000000000428 .L0 
     /tmp/cceDUpe5.s:746    .text:000000000000042c .L0 
     /tmp/cceDUpe5.s:749    .text:0000000000000430 .L0 
     /tmp/cceDUpe5.s:752    .text:0000000000000434 .L0 
     /tmp/cceDUpe5.s:754    .text:0000000000000438 .L0 
     /tmp/cceDUpe5.s:760    .text:0000000000000438 _Z17putEmptyToPartialP12kmem_cache_s
     /tmp/cceDUpe5.s:763    .text:0000000000000438 .L0 
     /tmp/cceDUpe5.s:765    .text:0000000000000438 .L0 
     /tmp/cceDUpe5.s:766    .text:000000000000043c .L0 
     /tmp/cceDUpe5.s:771    .text:000000000000044c .L0 
     /tmp/cceDUpe5.s:772    .text:000000000000044c .L0 
     /tmp/cceDUpe5.s:773    .text:000000000000044c .L0 
     /tmp/cceDUpe5.s:774    .text:000000000000044c .L0 
     /tmp/cceDUpe5.s:776    .text:0000000000000450 .L0 
     /tmp/cceDUpe5.s:779    .text:0000000000000454 .L0 
     /tmp/cceDUpe5.s:780    .text:0000000000000454 .L0 
     /tmp/cceDUpe5.s:783    .text:0000000000000458 .L0 
     /tmp/cceDUpe5.s:784    .text:0000000000000458 .L0 
     /tmp/cceDUpe5.s:790    .text:0000000000000468 .L0 
GAS LISTING /tmp/cceDUpe5.s 			page 70


     /tmp/cceDUpe5.s:791    .text:0000000000000468 .L0 
     /tmp/cceDUpe5.s:796    .text:0000000000000478 .L0 
     /tmp/cceDUpe5.s:797    .text:000000000000047c .L0 
     /tmp/cceDUpe5.s:799    .text:0000000000000480 .L0 
     /tmp/cceDUpe5.s:800    .text:0000000000000480 .L0 
     /tmp/cceDUpe5.s:802    .text:0000000000000484 .L0 
     /tmp/cceDUpe5.s:805    .text:0000000000000488 .L0 
     /tmp/cceDUpe5.s:808    .text:000000000000048c .L0 
     /tmp/cceDUpe5.s:810    .text:0000000000000490 .L0 
     /tmp/cceDUpe5.s:816    .text:0000000000000490 _Z14removeFullSlabP12kmem_cache_sP6slab_s
     /tmp/cceDUpe5.s:819    .text:0000000000000490 .L0 
     /tmp/cceDUpe5.s:821    .text:0000000000000490 .L0 
     /tmp/cceDUpe5.s:822    .text:0000000000000494 .L0 
     /tmp/cceDUpe5.s:827    .text:00000000000004a4 .L0 
     /tmp/cceDUpe5.s:828    .text:00000000000004a4 .L0 
     /tmp/cceDUpe5.s:829    .text:00000000000004a4 .L0 
     /tmp/cceDUpe5.s:830    .text:00000000000004a4 .L0 
     /tmp/cceDUpe5.s:832    .text:00000000000004a8 .L0 
     /tmp/cceDUpe5.s:836    .text:00000000000004b0 .L0 
     /tmp/cceDUpe5.s:837    .text:00000000000004b0 .L0 
     /tmp/cceDUpe5.s:844    .text:00000000000004c0 .L0 
     /tmp/cceDUpe5.s:845    .text:00000000000004c0 .L0 
     /tmp/cceDUpe5.s:850    .text:00000000000004d0 .L0 
     /tmp/cceDUpe5.s:851    .text:00000000000004d4 .L0 
     /tmp/cceDUpe5.s:853    .text:00000000000004d8 .L0 
     /tmp/cceDUpe5.s:854    .text:00000000000004d8 .L0 
     /tmp/cceDUpe5.s:856    .text:00000000000004dc .L0 
     /tmp/cceDUpe5.s:859    .text:00000000000004e0 .L0 
     /tmp/cceDUpe5.s:862    .text:00000000000004e4 .L0 
     /tmp/cceDUpe5.s:864    .text:00000000000004e8 .L0 
     /tmp/cceDUpe5.s:870    .text:00000000000004e8 _Z17removePartialSlabP12kmem_cache_sP6slab_s
     /tmp/cceDUpe5.s:873    .text:00000000000004e8 .L0 
     /tmp/cceDUpe5.s:875    .text:00000000000004e8 .L0 
     /tmp/cceDUpe5.s:876    .text:00000000000004ec .L0 
     /tmp/cceDUpe5.s:881    .text:00000000000004fc .L0 
     /tmp/cceDUpe5.s:882    .text:00000000000004fc .L0 
     /tmp/cceDUpe5.s:883    .text:00000000000004fc .L0 
     /tmp/cceDUpe5.s:884    .text:00000000000004fc .L0 
     /tmp/cceDUpe5.s:886    .text:0000000000000500 .L0 
     /tmp/cceDUpe5.s:890    .text:0000000000000508 .L0 
     /tmp/cceDUpe5.s:891    .text:0000000000000508 .L0 
     /tmp/cceDUpe5.s:898    .text:0000000000000518 .L0 
     /tmp/cceDUpe5.s:899    .text:0000000000000518 .L0 
     /tmp/cceDUpe5.s:904    .text:0000000000000528 .L0 
     /tmp/cceDUpe5.s:905    .text:000000000000052c .L0 
     /tmp/cceDUpe5.s:907    .text:0000000000000530 .L0 
     /tmp/cceDUpe5.s:908    .text:0000000000000530 .L0 
     /tmp/cceDUpe5.s:910    .text:0000000000000534 .L0 
     /tmp/cceDUpe5.s:913    .text:0000000000000538 .L0 
     /tmp/cceDUpe5.s:916    .text:000000000000053c .L0 
     /tmp/cceDUpe5.s:918    .text:0000000000000540 .L0 
     /tmp/cceDUpe5.s:924    .text:0000000000000540 _Z12allocateSlabP12kmem_cache_s
     /tmp/cceDUpe5.s:927    .text:0000000000000540 .L0 
     /tmp/cceDUpe5.s:929    .text:0000000000000540 .L0 
     /tmp/cceDUpe5.s:930    .text:0000000000000544 .L0 
     /tmp/cceDUpe5.s:936    .text:0000000000000558 .L0 
     /tmp/cceDUpe5.s:937    .text:0000000000000558 .L0 
GAS LISTING /tmp/cceDUpe5.s 			page 71


     /tmp/cceDUpe5.s:938    .text:0000000000000558 .L0 
     /tmp/cceDUpe5.s:939    .text:0000000000000558 .L0 
     /tmp/cceDUpe5.s:940    .text:0000000000000558 .L0 
     /tmp/cceDUpe5.s:942    .text:000000000000055c .L0 
     /tmp/cceDUpe5.s:945    .text:0000000000000560 .L0 
     /tmp/cceDUpe5.s:946    .text:0000000000000560 .L0 
     /tmp/cceDUpe5.s:953    .text:0000000000000578 .L0 
     /tmp/cceDUpe5.s:956    .text:0000000000000580 .L0 
     /tmp/cceDUpe5.s:957    .text:0000000000000580 .L0 
     /tmp/cceDUpe5.s:959    .text:0000000000000584 .L0 
     /tmp/cceDUpe5.s:961    .text:0000000000000588 .L0 
     /tmp/cceDUpe5.s:963    .text:000000000000058c .L0 
     /tmp/cceDUpe5.s:964    .text:000000000000058c .L0 
     /tmp/cceDUpe5.s:968    .text:0000000000000590 .L0 
     /tmp/cceDUpe5.s:969    .text:0000000000000590 .L0 
     /tmp/cceDUpe5.s:971    .text:0000000000000594 .L0 
     /tmp/cceDUpe5.s:972    .text:0000000000000594 .L0 
     /tmp/cceDUpe5.s:974    .text:0000000000000598 .L0 
     /tmp/cceDUpe5.s:975    .text:0000000000000598 .L0 
     /tmp/cceDUpe5.s:977    .text:000000000000059c .L0 
     /tmp/cceDUpe5.s:978    .text:000000000000059c .L0 
     /tmp/cceDUpe5.s:980    .text:00000000000005a0 .L0 
     /tmp/cceDUpe5.s:981    .text:00000000000005a0 .L0 
     /tmp/cceDUpe5.s:983    .text:00000000000005a4 .L0 
     /tmp/cceDUpe5.s:986    .text:00000000000005a8 .L0 
     /tmp/cceDUpe5.s:987    .text:00000000000005a8 .L0 
     /tmp/cceDUpe5.s:990    .text:00000000000005ac .L0 
     /tmp/cceDUpe5.s:992    .text:00000000000005b0 .L0 
     /tmp/cceDUpe5.s:995    .text:00000000000005b4 .L0 
     /tmp/cceDUpe5.s:999    .text:00000000000005b8 .L0 
     /tmp/cceDUpe5.s:1000   .text:00000000000005b8 .L0 
     /tmp/cceDUpe5.s:1004   .text:00000000000005bc .L0 
     /tmp/cceDUpe5.s:1005   .text:00000000000005bc .L0 
     /tmp/cceDUpe5.s:1007   .text:00000000000005c0 .L0 
     /tmp/cceDUpe5.s:1009   .text:00000000000005c4 .L0 
     /tmp/cceDUpe5.s:1011   .text:00000000000005c8 .L0 
     /tmp/cceDUpe5.s:1012   .text:00000000000005c8 .L0 
     /tmp/cceDUpe5.s:1015   .text:00000000000005d0 .L0 
     /tmp/cceDUpe5.s:1022   .text:00000000000005d8 .L0 
     /tmp/cceDUpe5.s:1023   .text:00000000000005d8 .L0 
     /tmp/cceDUpe5.s:1025   .text:00000000000005dc .L0 
     /tmp/cceDUpe5.s:1028   .text:00000000000005e0 .L0 
     /tmp/cceDUpe5.s:1032   .text:00000000000005e4 .L0 
     /tmp/cceDUpe5.s:1033   .text:00000000000005e4 .L0 
     /tmp/cceDUpe5.s:1035   .text:00000000000005e8 .L0 
     /tmp/cceDUpe5.s:1037   .text:00000000000005ec .L0 
     /tmp/cceDUpe5.s:1038   .text:00000000000005ec .L0 
     /tmp/cceDUpe5.s:1040   .text:00000000000005f0 .L0 
     /tmp/cceDUpe5.s:1042   .text:00000000000005f4 .L0 
     /tmp/cceDUpe5.s:1044   .text:00000000000005f8 .L0 
     /tmp/cceDUpe5.s:1046   .text:00000000000005fc .L0 
     /tmp/cceDUpe5.s:1048   .text:0000000000000600 .L0 
     /tmp/cceDUpe5.s:1052   .text:0000000000000608 .L0 
     /tmp/cceDUpe5.s:1060   .text:0000000000000610 .L0 
     /tmp/cceDUpe5.s:1061   .text:0000000000000614 .L0 
     /tmp/cceDUpe5.s:1063   .text:0000000000000618 .L0 
     /tmp/cceDUpe5.s:1064   .text:0000000000000618 .L0 
GAS LISTING /tmp/cceDUpe5.s 			page 72


     /tmp/cceDUpe5.s:1066   .text:000000000000061c .L0 
     /tmp/cceDUpe5.s:1068   .text:0000000000000620 .L0 
     /tmp/cceDUpe5.s:1070   .text:0000000000000624 .L0 
     /tmp/cceDUpe5.s:1073   .text:0000000000000628 .L0 
     /tmp/cceDUpe5.s:1075   .text:000000000000062c .L0 
     /tmp/cceDUpe5.s:1081   .text:000000000000062c _Z18getOptimalSlabSizem
     /tmp/cceDUpe5.s:1084   .text:000000000000062c .L0 
     /tmp/cceDUpe5.s:1086   .text:000000000000062c .L0 
     /tmp/cceDUpe5.s:1087   .text:0000000000000630 .L0 
     /tmp/cceDUpe5.s:1089   .text:0000000000000634 .L0 
     /tmp/cceDUpe5.s:1091   .text:0000000000000638 .L0 
     /tmp/cceDUpe5.s:1094   .text:0000000000000638 .L0 
     /tmp/cceDUpe5.s:1095   .text:0000000000000638 .L0 
     /tmp/cceDUpe5.s:1099   .text:000000000000063c .L0 
     /tmp/cceDUpe5.s:1100   .text:000000000000063c .L0 
     /tmp/cceDUpe5.s:1101   .text:000000000000063c .L0 
     /tmp/cceDUpe5.s:1103   .text:0000000000000640 .L0 
     /tmp/cceDUpe5.s:1105   .text:0000000000000644 .L0 
     /tmp/cceDUpe5.s:1106   .text:0000000000000644 .L0 
     /tmp/cceDUpe5.s:1109   .text:0000000000000648 .L0 
     /tmp/cceDUpe5.s:1112   .text:000000000000064c .L0 
     /tmp/cceDUpe5.s:1113   .text:000000000000064c .L0 
     /tmp/cceDUpe5.s:1115   .text:0000000000000650 .L0 
     /tmp/cceDUpe5.s:1118   .text:0000000000000654 .L0 
     /tmp/cceDUpe5.s:1119   .text:0000000000000654 .L0 
     /tmp/cceDUpe5.s:1121   .text:0000000000000654 .L0 
     /tmp/cceDUpe5.s:1122   .text:0000000000000654 .L0 
     /tmp/cceDUpe5.s:1127   .text:000000000000065c .L0 
     /tmp/cceDUpe5.s:1131   .text:0000000000000660 .L0 
     /tmp/cceDUpe5.s:1135   .text:0000000000000668 .L0 
     /tmp/cceDUpe5.s:1136   .text:0000000000000668 .L0 
     /tmp/cceDUpe5.s:1139   .text:000000000000066c .L0 
     /tmp/cceDUpe5.s:1140   .text:000000000000066c .L0 
     /tmp/cceDUpe5.s:1142   .text:0000000000000670 .L0 
     /tmp/cceDUpe5.s:1145   .text:0000000000000674 .L0 
     /tmp/cceDUpe5.s:1147   .text:0000000000000678 .L0 
     /tmp/cceDUpe5.s:1150   .text:000000000000067c .L0 
     /tmp/cceDUpe5.s:1158   .text:0000000000000684 .L0 
     /tmp/cceDUpe5.s:1159   .text:0000000000000684 .L0 
     /tmp/cceDUpe5.s:1162   .text:000000000000068c .L0 
     /tmp/cceDUpe5.s:1163   .text:000000000000068c .L0 
     /tmp/cceDUpe5.s:1165   .text:0000000000000690 .L0 
     /tmp/cceDUpe5.s:1167   .text:0000000000000694 .L0 
     /tmp/cceDUpe5.s:1173   .text:0000000000000694 _Z8findSlabP12kmem_cache_sPKv
     /tmp/cceDUpe5.s:1176   .text:0000000000000694 .L0 
     /tmp/cceDUpe5.s:1178   .text:0000000000000694 .L0 
     /tmp/cceDUpe5.s:1179   .text:0000000000000698 .L0 
     /tmp/cceDUpe5.s:1181   .text:000000000000069c .L0 
     /tmp/cceDUpe5.s:1183   .text:00000000000006a0 .L0 
     /tmp/cceDUpe5.s:1186   .text:00000000000006a4 .L0 
     /tmp/cceDUpe5.s:1188   .text:00000000000006a8 .L0 
     /tmp/cceDUpe5.s:1190   .text:00000000000006ac .L0 
     /tmp/cceDUpe5.s:1191   .text:00000000000006ac .L0 
     /tmp/cceDUpe5.s:1198   .text:00000000000006b4 .L0 
     /tmp/cceDUpe5.s:1199   .text:00000000000006b4 .L0 
     /tmp/cceDUpe5.s:1204   .text:00000000000006b8 .L0 
     /tmp/cceDUpe5.s:1205   .text:00000000000006b8 .L0 
GAS LISTING /tmp/cceDUpe5.s 			page 73


     /tmp/cceDUpe5.s:1208   .text:00000000000006bc .L0 
     /tmp/cceDUpe5.s:1209   .text:00000000000006bc .L0 
     /tmp/cceDUpe5.s:1211   .text:00000000000006c0 .L0 
     /tmp/cceDUpe5.s:1213   .text:00000000000006c4 .L0 
     /tmp/cceDUpe5.s:1215   .text:00000000000006c8 .L0 
     /tmp/cceDUpe5.s:1217   .text:00000000000006cc .L0 
     /tmp/cceDUpe5.s:1219   .text:00000000000006d0 .L0 
     /tmp/cceDUpe5.s:1222   .text:00000000000006d4 .L0 
     /tmp/cceDUpe5.s:1224   .text:00000000000006d8 .L0 
     /tmp/cceDUpe5.s:1229   .text:00000000000006dc .L0 
     /tmp/cceDUpe5.s:1230   .text:00000000000006e0 .L0 
     /tmp/cceDUpe5.s:1231   .text:00000000000006e0 .L0 
     /tmp/cceDUpe5.s:1232   .text:00000000000006e0 .L0 
     /tmp/cceDUpe5.s:1234   .text:00000000000006e4 .L0 
     /tmp/cceDUpe5.s:1238   .text:00000000000006e8 .L0 
     /tmp/cceDUpe5.s:1240   .text:00000000000006e8 .L0 
     /tmp/cceDUpe5.s:1241   .text:00000000000006e8 .L0 
     /tmp/cceDUpe5.s:1248   .text:00000000000006f0 .L0 
     /tmp/cceDUpe5.s:1249   .text:00000000000006f0 .L0 
     /tmp/cceDUpe5.s:1254   .text:00000000000006f4 .L0 
     /tmp/cceDUpe5.s:1255   .text:00000000000006f4 .L0 
     /tmp/cceDUpe5.s:1258   .text:00000000000006f8 .L0 
     /tmp/cceDUpe5.s:1259   .text:00000000000006f8 .L0 
     /tmp/cceDUpe5.s:1261   .text:00000000000006fc .L0 
     /tmp/cceDUpe5.s:1263   .text:0000000000000700 .L0 
     /tmp/cceDUpe5.s:1265   .text:0000000000000704 .L0 
     /tmp/cceDUpe5.s:1267   .text:0000000000000708 .L0 
     /tmp/cceDUpe5.s:1269   .text:000000000000070c .L0 
     /tmp/cceDUpe5.s:1272   .text:0000000000000710 .L0 
     /tmp/cceDUpe5.s:1274   .text:0000000000000714 .L0 
     /tmp/cceDUpe5.s:1280   .text:000000000000071c .L0 
     /tmp/cceDUpe5.s:1283   .text:0000000000000724 .L0 
     /tmp/cceDUpe5.s:1289   .text:0000000000000724 _Z19resetAllocatedIndexP6slab_si
     /tmp/cceDUpe5.s:1292   .text:0000000000000724 .L0 
     /tmp/cceDUpe5.s:1294   .text:0000000000000724 .L0 
     /tmp/cceDUpe5.s:1295   .text:0000000000000728 .L0 
     /tmp/cceDUpe5.s:1297   .text:000000000000072c .L0 
     /tmp/cceDUpe5.s:1299   .text:0000000000000730 .L0 
     /tmp/cceDUpe5.s:1301   .text:0000000000000730 .L0 
     /tmp/cceDUpe5.s:1302   .text:0000000000000730 .L0 
     /tmp/cceDUpe5.s:1308   .text:0000000000000740 .L0 
     /tmp/cceDUpe5.s:1311   .text:0000000000000744 .L0 
     /tmp/cceDUpe5.s:1313   .text:0000000000000748 .L0 
     /tmp/cceDUpe5.s:1316   .text:0000000000000750 .L0 
     /tmp/cceDUpe5.s:1319   .text:0000000000000758 .L0 
     /tmp/cceDUpe5.s:1322   .text:0000000000000760 .L0 
     /tmp/cceDUpe5.s:1324   .text:0000000000000764 .L0 
     /tmp/cceDUpe5.s:1325   .text:0000000000000768 .L0 
     /tmp/cceDUpe5.s:1326   .text:0000000000000768 .L0 
     /tmp/cceDUpe5.s:1328   .text:000000000000076c .L0 
     /tmp/cceDUpe5.s:1330   .text:0000000000000770 .L0 
     /tmp/cceDUpe5.s:1350   .text:0000000000000770 _Z13printSlabInfoP6slab_s
     /tmp/cceDUpe5.s:1353   .text:0000000000000770 .L0 
     /tmp/cceDUpe5.s:1355   .text:0000000000000770 .L0 
     /tmp/cceDUpe5.s:1356   .text:0000000000000774 .L0 
     /tmp/cceDUpe5.s:1360   .text:0000000000000780 .L0 
     /tmp/cceDUpe5.s:1361   .text:0000000000000780 .L0 
GAS LISTING /tmp/cceDUpe5.s 			page 74


     /tmp/cceDUpe5.s:1362   .text:0000000000000780 .L0 
     /tmp/cceDUpe5.s:1364   .text:0000000000000784 .L0 
     /tmp/cceDUpe5.s:1367   .text:0000000000000788 .L0 
     /tmp/cceDUpe5.s:1368   .text:0000000000000788 .L0 
     /tmp/cceDUpe5.s:1373   .text:0000000000000798 .L0 
     /tmp/cceDUpe5.s:1374   .text:0000000000000798 .L0 
     /tmp/cceDUpe5.s:1380   .text:00000000000007b0 .L0 
     /tmp/cceDUpe5.s:1381   .text:00000000000007b0 .L0 
     /tmp/cceDUpe5.s:1387   .text:00000000000007c8 .L0 
     /tmp/cceDUpe5.s:1388   .text:00000000000007c8 .L0 
     /tmp/cceDUpe5.s:1394   .text:00000000000007e0 .L0 
     /tmp/cceDUpe5.s:1395   .text:00000000000007e4 .L0 
     /tmp/cceDUpe5.s:1397   .text:00000000000007e8 .L0 
     /tmp/cceDUpe5.s:1398   .text:00000000000007e8 .L0 
     /tmp/cceDUpe5.s:1400   .text:00000000000007ec .L0 
     /tmp/cceDUpe5.s:1403   .text:00000000000007f0 .L0 
     /tmp/cceDUpe5.s:1405   .text:00000000000007f4 .L0 
     /tmp/cceDUpe5.s:1411   .text:00000000000007f4 _Z16free_slab_objectP6slab_sPKv
     /tmp/cceDUpe5.s:1414   .text:00000000000007f4 .L0 
     /tmp/cceDUpe5.s:1416   .text:00000000000007f4 .L0 
     /tmp/cceDUpe5.s:1417   .text:00000000000007f4 .L0 
     /tmp/cceDUpe5.s:1419   .text:00000000000007f8 .L0 
     /tmp/cceDUpe5.s:1420   .text:00000000000007fc .L0 
     /tmp/cceDUpe5.s:1427   .text:0000000000000814 .L0 
     /tmp/cceDUpe5.s:1428   .text:0000000000000814 .L0 
     /tmp/cceDUpe5.s:1429   .text:0000000000000814 .L0 
     /tmp/cceDUpe5.s:1430   .text:0000000000000814 .L0 
     /tmp/cceDUpe5.s:1431   .text:0000000000000814 .L0 
     /tmp/cceDUpe5.s:1432   .text:0000000000000814 .L0 
     /tmp/cceDUpe5.s:1434   .text:0000000000000818 .L0 
     /tmp/cceDUpe5.s:1438   .text:0000000000000820 .L0 
     /tmp/cceDUpe5.s:1440   .text:0000000000000824 .L0 
     /tmp/cceDUpe5.s:1441   .text:0000000000000824 .L0 
     /tmp/cceDUpe5.s:1444   .text:000000000000082c .L0 
     /tmp/cceDUpe5.s:1446   .text:0000000000000830 .L0 
     /tmp/cceDUpe5.s:1448   .text:0000000000000834 .L0 
     /tmp/cceDUpe5.s:1450   .text:0000000000000838 .L0 
     /tmp/cceDUpe5.s:1453   .text:000000000000083c .L0 
     /tmp/cceDUpe5.s:1454   .text:000000000000083c .L0 
     /tmp/cceDUpe5.s:1456   .text:0000000000000840 .L0 
     /tmp/cceDUpe5.s:1459   .text:0000000000000848 .L0 
     /tmp/cceDUpe5.s:1461   .text:000000000000084c .L0 
     /tmp/cceDUpe5.s:1462   .text:000000000000084c .L0 
     /tmp/cceDUpe5.s:1467   .text:0000000000000858 .L0 
     /tmp/cceDUpe5.s:1470   .text:000000000000085c .L0 
     /tmp/cceDUpe5.s:1471   .text:000000000000085c .L0 
     /tmp/cceDUpe5.s:1472   .text:000000000000085c .L0 
     /tmp/cceDUpe5.s:1474   .text:0000000000000860 .L0 
     /tmp/cceDUpe5.s:1476   .text:0000000000000864 .L0 
     /tmp/cceDUpe5.s:1477   .text:0000000000000864 .L0 
     /tmp/cceDUpe5.s:1482   .text:000000000000086c .L0 
     /tmp/cceDUpe5.s:1483   .text:000000000000086c .L0 
     /tmp/cceDUpe5.s:1485   .text:0000000000000870 .L0 
     /tmp/cceDUpe5.s:1487   .text:0000000000000874 .L0 
     /tmp/cceDUpe5.s:1488   .text:0000000000000874 .L0 
     /tmp/cceDUpe5.s:1493   .text:000000000000087c .L0 
     /tmp/cceDUpe5.s:1494   .text:000000000000087c .L0 
GAS LISTING /tmp/cceDUpe5.s 			page 75


     /tmp/cceDUpe5.s:1499   .text:000000000000088c .L0 
     /tmp/cceDUpe5.s:1500   .text:000000000000088c .L0 
     /tmp/cceDUpe5.s:1502   .text:0000000000000890 .L0 
     /tmp/cceDUpe5.s:1504   .text:0000000000000894 .L0 
     /tmp/cceDUpe5.s:1506   .text:0000000000000898 .L0 
     /tmp/cceDUpe5.s:1509   .text:00000000000008a0 .L0 
     /tmp/cceDUpe5.s:1510   .text:00000000000008a0 .L0 
     /tmp/cceDUpe5.s:1515   .text:00000000000008a8 .L0 
     /tmp/cceDUpe5.s:1516   .text:00000000000008ac .L0 
     /tmp/cceDUpe5.s:1517   .text:00000000000008ac .L0 
     /tmp/cceDUpe5.s:1519   .text:00000000000008b0 .L0 
     /tmp/cceDUpe5.s:1520   .text:00000000000008b0 .L0 
     /tmp/cceDUpe5.s:1522   .text:00000000000008b4 .L0 
     /tmp/cceDUpe5.s:1525   .text:00000000000008b8 .L0 
     /tmp/cceDUpe5.s:1527   .text:00000000000008bc .L0 
     /tmp/cceDUpe5.s:1530   .text:00000000000008c0 .L0 
     /tmp/cceDUpe5.s:1532   .text:00000000000008c4 .L0 
     /tmp/cceDUpe5.s:1536   .text:00000000000008c8 .L0 
     /tmp/cceDUpe5.s:1538   .text:00000000000008c8 .L0 
     /tmp/cceDUpe5.s:1539   .text:00000000000008c8 .L0 
     /tmp/cceDUpe5.s:1544   .text:00000000000008d8 .L0 
     /tmp/cceDUpe5.s:1545   .text:00000000000008d8 .L0 
     /tmp/cceDUpe5.s:1547   .text:00000000000008dc .L0 
     /tmp/cceDUpe5.s:1550   .text:00000000000008e4 .L0 
     /tmp/cceDUpe5.s:1551   .text:00000000000008e4 .L0 
     /tmp/cceDUpe5.s:1555   .text:00000000000008f0 .L0 
     /tmp/cceDUpe5.s:1557   .text:00000000000008f4 .L0 
     /tmp/cceDUpe5.s:1558   .text:00000000000008f4 .L0 
     /tmp/cceDUpe5.s:1565   .text:0000000000000908 .L0 
     /tmp/cceDUpe5.s:1566   .text:0000000000000908 .L0 
     /tmp/cceDUpe5.s:1571   .text:0000000000000918 .L0 
     /tmp/cceDUpe5.s:1572   .text:0000000000000918 .L0 
     /tmp/cceDUpe5.s:1574   .text:000000000000091c .L0 
     /tmp/cceDUpe5.s:1579   .text:0000000000000928 .L0 
     /tmp/cceDUpe5.s:1580   .text:0000000000000928 .L0 
     /tmp/cceDUpe5.s:1581   .text:0000000000000928 .L0 
     /tmp/cceDUpe5.s:1582   .text:0000000000000928 .L0 
     /tmp/cceDUpe5.s:1583   .text:0000000000000928 .L0 
     /tmp/cceDUpe5.s:1584   .text:0000000000000928 .L0 
     /tmp/cceDUpe5.s:1585   .text:0000000000000928 .L0 
     /tmp/cceDUpe5.s:1587   .text:000000000000092c .L0 
     /tmp/cceDUpe5.s:1593   .text:000000000000092c _Z9kmem_initPvi
     /tmp/cceDUpe5.s:1596   .text:000000000000092c .L0 
     /tmp/cceDUpe5.s:1598   .text:000000000000092c .L0 
     /tmp/cceDUpe5.s:1599   .text:0000000000000930 .L0 
     /tmp/cceDUpe5.s:1602   .text:0000000000000938 .L0 
     /tmp/cceDUpe5.s:1603   .text:0000000000000938 .L0 
     /tmp/cceDUpe5.s:1605   .text:000000000000093c .L0 
     /tmp/cceDUpe5.s:1607   .text:000000000000093c .L0 
     /tmp/cceDUpe5.s:1608   .text:000000000000093c .L0 
     /tmp/cceDUpe5.s:1611   .text:0000000000000944 .L0 
     /tmp/cceDUpe5.s:1612   .text:0000000000000944 .L0 
     /tmp/cceDUpe5.s:1615   .text:000000000000094c .L0 
     /tmp/cceDUpe5.s:1617   .text:0000000000000954 .L0 
     /tmp/cceDUpe5.s:1618   .text:0000000000000958 .L0 
     /tmp/cceDUpe5.s:1620   .text:000000000000095c .L0 
     /tmp/cceDUpe5.s:1621   .text:000000000000095c .L0 
GAS LISTING /tmp/cceDUpe5.s 			page 76


     /tmp/cceDUpe5.s:1623   .text:0000000000000960 .L0 
     /tmp/cceDUpe5.s:1625   .text:0000000000000964 .L0 
     /tmp/cceDUpe5.s:1631   .text:0000000000000964 _Z16kmem_cache_allocP12kmem_cache_s
     /tmp/cceDUpe5.s:1634   .text:0000000000000964 .L0 
     /tmp/cceDUpe5.s:1636   .text:0000000000000964 .L0 
     /tmp/cceDUpe5.s:1637   .text:0000000000000968 .L0 
     /tmp/cceDUpe5.s:1642   .text:0000000000000978 .L0 
     /tmp/cceDUpe5.s:1643   .text:0000000000000978 .L0 
     /tmp/cceDUpe5.s:1644   .text:0000000000000978 .L0 
     /tmp/cceDUpe5.s:1645   .text:0000000000000978 .L0 
     /tmp/cceDUpe5.s:1647   .text:000000000000097c .L0 
     /tmp/cceDUpe5.s:1650   .text:0000000000000980 .L0 
     /tmp/cceDUpe5.s:1653   .text:0000000000000984 .L0 
     /tmp/cceDUpe5.s:1654   .text:0000000000000984 .L0 
     /tmp/cceDUpe5.s:1657   .text:0000000000000988 .L0 
     /tmp/cceDUpe5.s:1662   .text:000000000000098c .L0 
     /tmp/cceDUpe5.s:1663   .text:000000000000098c .L0 
     /tmp/cceDUpe5.s:1665   .text:0000000000000990 .L0 
     /tmp/cceDUpe5.s:1668   .text:0000000000000994 .L0 
     /tmp/cceDUpe5.s:1669   .text:0000000000000994 .L0 
     /tmp/cceDUpe5.s:1674   .text:00000000000009a0 .L0 
     /tmp/cceDUpe5.s:1675   .text:00000000000009a0 .L0 
     /tmp/cceDUpe5.s:1680   .text:00000000000009ac .L0 
     /tmp/cceDUpe5.s:1682   .text:00000000000009b0 .L0 
     /tmp/cceDUpe5.s:1683   .text:00000000000009b0 .L0 
     /tmp/cceDUpe5.s:1687   .text:00000000000009bc .L0 
     /tmp/cceDUpe5.s:1688   .text:00000000000009bc .L0 
     /tmp/cceDUpe5.s:1692   .text:00000000000009c8 .L0 
     /tmp/cceDUpe5.s:1694   .text:00000000000009cc .L0 
     /tmp/cceDUpe5.s:1695   .text:00000000000009cc .L0 
     /tmp/cceDUpe5.s:1699   .text:00000000000009d8 .L0 
     /tmp/cceDUpe5.s:1700   .text:00000000000009d8 .L0 
     /tmp/cceDUpe5.s:1707   .text:00000000000009dc .L0 
     /tmp/cceDUpe5.s:1708   .text:00000000000009dc .L0 
     /tmp/cceDUpe5.s:1713   .text:00000000000009e8 .L0 
     /tmp/cceDUpe5.s:1714   .text:00000000000009e8 .L0 
     /tmp/cceDUpe5.s:1719   .text:00000000000009f4 .L0 
     /tmp/cceDUpe5.s:1725   .text:00000000000009f8 .L0 
     /tmp/cceDUpe5.s:1727   .text:0000000000000a00 .L0 
     /tmp/cceDUpe5.s:1728   .text:0000000000000a00 .L0 
     /tmp/cceDUpe5.s:1730   .text:0000000000000a04 .L0 
     /tmp/cceDUpe5.s:1731   .text:0000000000000a04 .L0 
     /tmp/cceDUpe5.s:1733   .text:0000000000000a08 .L0 
     /tmp/cceDUpe5.s:1736   .text:0000000000000a0c .L0 
     /tmp/cceDUpe5.s:1738   .text:0000000000000a10 .L0 
     /tmp/cceDUpe5.s:1742   .text:0000000000000a14 .L0 
     /tmp/cceDUpe5.s:1746   .text:0000000000000a14 .L0 
     /tmp/cceDUpe5.s:1747   .text:0000000000000a14 .L0 
     /tmp/cceDUpe5.s:1751   .text:0000000000000a20 .L0 
     /tmp/cceDUpe5.s:1752   .text:0000000000000a20 .L0 
     /tmp/cceDUpe5.s:1759   .text:0000000000000a24 .L0 
     /tmp/cceDUpe5.s:1760   .text:0000000000000a24 .L0 
     /tmp/cceDUpe5.s:1764   .text:0000000000000a30 .L0 
     /tmp/cceDUpe5.s:1765   .text:0000000000000a30 .L0 
     /tmp/cceDUpe5.s:1767   .text:0000000000000a34 .L0 
     /tmp/cceDUpe5.s:1769   .text:0000000000000a38 .L0 
     /tmp/cceDUpe5.s:1770   .text:0000000000000a38 .L0 
GAS LISTING /tmp/cceDUpe5.s 			page 77


     /tmp/cceDUpe5.s:1776   .text:0000000000000a48 .L0 
     /tmp/cceDUpe5.s:1777   .text:0000000000000a48 .L0 
     /tmp/cceDUpe5.s:1782   .text:0000000000000a54 .L0 
     /tmp/cceDUpe5.s:1784   .text:0000000000000a58 .L0 
     /tmp/cceDUpe5.s:1785   .text:0000000000000a58 .L0 
     /tmp/cceDUpe5.s:1789   .text:0000000000000a64 .L0 
     /tmp/cceDUpe5.s:1790   .text:0000000000000a64 .L0 
     /tmp/cceDUpe5.s:1794   .text:0000000000000a70 .L0 
     /tmp/cceDUpe5.s:1796   .text:0000000000000a74 .L0 
     /tmp/cceDUpe5.s:1797   .text:0000000000000a74 .L0 
     /tmp/cceDUpe5.s:1801   .text:0000000000000a80 .L0 
     /tmp/cceDUpe5.s:1802   .text:0000000000000a80 .L0 
     /tmp/cceDUpe5.s:1806   .text:0000000000000a84 .L0 
     /tmp/cceDUpe5.s:1807   .text:0000000000000a84 .L0 
     /tmp/cceDUpe5.s:1811   .text:0000000000000a90 .L0 
     /tmp/cceDUpe5.s:1812   .text:0000000000000a90 .L0 
     /tmp/cceDUpe5.s:1818   .text:0000000000000a94 .L0 
     /tmp/cceDUpe5.s:1820   .text:0000000000000a9c .L0 
     /tmp/cceDUpe5.s:1826   .text:0000000000000a9c _Z17kmem_cache_createPKcmPFvPvES3_
     /tmp/cceDUpe5.s:1829   .text:0000000000000a9c .L0 
     /tmp/cceDUpe5.s:1831   .text:0000000000000a9c .L0 
     /tmp/cceDUpe5.s:1832   .text:0000000000000aa0 .L0 
     /tmp/cceDUpe5.s:1840   .text:0000000000000abc .L0 
     /tmp/cceDUpe5.s:1841   .text:0000000000000abc .L0 
     /tmp/cceDUpe5.s:1842   .text:0000000000000abc .L0 
     /tmp/cceDUpe5.s:1843   .text:0000000000000abc .L0 
     /tmp/cceDUpe5.s:1844   .text:0000000000000abc .L0 
     /tmp/cceDUpe5.s:1845   .text:0000000000000abc .L0 
     /tmp/cceDUpe5.s:1846   .text:0000000000000abc .L0 
     /tmp/cceDUpe5.s:1848   .text:0000000000000ac0 .L0 
     /tmp/cceDUpe5.s:1854   .text:0000000000000ad0 .L0 
     /tmp/cceDUpe5.s:1855   .text:0000000000000ad0 .L0 
     /tmp/cceDUpe5.s:1863   .text:0000000000000ae8 .L0 
     /tmp/cceDUpe5.s:1865   .text:0000000000000aec .L0 
     /tmp/cceDUpe5.s:1866   .text:0000000000000aec .L0 
     /tmp/cceDUpe5.s:1879   .text:0000000000000b18 .L0 
     /tmp/cceDUpe5.s:1880   .text:0000000000000b18 .L0 
     /tmp/cceDUpe5.s:1882   .text:0000000000000b20 .L0 
     /tmp/cceDUpe5.s:1884   .text:0000000000000b24 .L0 
     /tmp/cceDUpe5.s:1885   .text:0000000000000b24 .L0 
     /tmp/cceDUpe5.s:1887   .text:0000000000000b28 .L0 
     /tmp/cceDUpe5.s:1890   .text:0000000000000b2c .L0 
     /tmp/cceDUpe5.s:1893   .text:0000000000000b30 .L0 
     /tmp/cceDUpe5.s:1896   .text:0000000000000b34 .L0 
     /tmp/cceDUpe5.s:1899   .text:0000000000000b38 .L0 
     /tmp/cceDUpe5.s:1902   .text:0000000000000b3c .L0 
     /tmp/cceDUpe5.s:1904   .text:0000000000000b40 .L0 
     /tmp/cceDUpe5.s:1910   .text:0000000000000b40 _Z15kmem_cache_freeP12kmem_cache_sPv
     /tmp/cceDUpe5.s:1913   .text:0000000000000b40 .L0 
     /tmp/cceDUpe5.s:1915   .text:0000000000000b40 .L0 
     /tmp/cceDUpe5.s:1916   .text:0000000000000b40 .L0 
     /tmp/cceDUpe5.s:1918   .text:0000000000000b44 .L0 
     /tmp/cceDUpe5.s:1919   .text:0000000000000b48 .L0 
     /tmp/cceDUpe5.s:1923   .text:0000000000000b54 .L0 
     /tmp/cceDUpe5.s:1924   .text:0000000000000b54 .L0 
     /tmp/cceDUpe5.s:1925   .text:0000000000000b54 .L0 
     /tmp/cceDUpe5.s:1927   .text:0000000000000b58 .L0 
GAS LISTING /tmp/cceDUpe5.s 			page 78


     /tmp/cceDUpe5.s:1930   .text:0000000000000b5c .L0 
     /tmp/cceDUpe5.s:1932   .text:0000000000000b60 .L0 
     /tmp/cceDUpe5.s:1933   .text:0000000000000b60 .L0 
     /tmp/cceDUpe5.s:1936   .text:0000000000000b68 .L0 
     /tmp/cceDUpe5.s:1938   .text:0000000000000b6c .L0 
     /tmp/cceDUpe5.s:1939   .text:0000000000000b6c .L0 
     /tmp/cceDUpe5.s:1944   .text:0000000000000b78 .L0 
     /tmp/cceDUpe5.s:1945   .text:0000000000000b7c .L0 
     /tmp/cceDUpe5.s:1947   .text:0000000000000b80 .L0 
     /tmp/cceDUpe5.s:1948   .text:0000000000000b80 .L0 
     /tmp/cceDUpe5.s:1950   .text:0000000000000b84 .L0 
     /tmp/cceDUpe5.s:1953   .text:0000000000000b88 .L0 
     /tmp/cceDUpe5.s:1958   .text:0000000000000b90 .L0 
     /tmp/cceDUpe5.s:1996   .text:0000000000000b90 _Z15kmem_cache_infoP12kmem_cache_s
     /tmp/cceDUpe5.s:1999   .text:0000000000000b90 .L0 
     /tmp/cceDUpe5.s:2001   .text:0000000000000b90 .L0 
     /tmp/cceDUpe5.s:2002   .text:0000000000000b90 .L0 
     /tmp/cceDUpe5.s:2004   .text:0000000000000b94 .L0 
     /tmp/cceDUpe5.s:2005   .text:0000000000000b98 .L0 
     /tmp/cceDUpe5.s:2010   .text:0000000000000ba8 .L0 
     /tmp/cceDUpe5.s:2011   .text:0000000000000ba8 .L0 
     /tmp/cceDUpe5.s:2012   .text:0000000000000ba8 .L0 
     /tmp/cceDUpe5.s:2013   .text:0000000000000ba8 .L0 
     /tmp/cceDUpe5.s:2015   .text:0000000000000bac .L0 
     /tmp/cceDUpe5.s:2018   .text:0000000000000bb0 .L0 
     /tmp/cceDUpe5.s:2019   .text:0000000000000bb0 .L0 
     /tmp/cceDUpe5.s:2024   .text:0000000000000bc0 .L0 
     /tmp/cceDUpe5.s:2025   .text:0000000000000bc0 .L0 
     /tmp/cceDUpe5.s:2029   .text:0000000000000bd0 .L0 
     /tmp/cceDUpe5.s:2030   .text:0000000000000bd0 .L0 
     /tmp/cceDUpe5.s:2034   .text:0000000000000be0 .L0 
     /tmp/cceDUpe5.s:2035   .text:0000000000000be0 .L0 
     /tmp/cceDUpe5.s:2039   .text:0000000000000bec .L0 
     /tmp/cceDUpe5.s:2040   .text:0000000000000bec .L0 
     /tmp/cceDUpe5.s:2044   .text:0000000000000bfc .L0 
     /tmp/cceDUpe5.s:2045   .text:0000000000000bfc .L0 
     /tmp/cceDUpe5.s:2051   .text:0000000000000c14 .L0 
     /tmp/cceDUpe5.s:2052   .text:0000000000000c14 .L0 
     /tmp/cceDUpe5.s:2058   .text:0000000000000c2c .L0 
     /tmp/cceDUpe5.s:2059   .text:0000000000000c2c .L0 
     /tmp/cceDUpe5.s:2063   .text:0000000000000c3c .L0 
     /tmp/cceDUpe5.s:2064   .text:0000000000000c3c .L0 
     /tmp/cceDUpe5.s:2068   .text:0000000000000c4c .L0 
     /tmp/cceDUpe5.s:2069   .text:0000000000000c4c .L0 
     /tmp/cceDUpe5.s:2073   .text:0000000000000c50 .L0 
     /tmp/cceDUpe5.s:2074   .text:0000000000000c50 .L0 
     /tmp/cceDUpe5.s:2076   .text:0000000000000c54 .L0 
     /tmp/cceDUpe5.s:2077   .text:0000000000000c54 .L0 
     /tmp/cceDUpe5.s:2081   .text:0000000000000c60 .L0 
     /tmp/cceDUpe5.s:2082   .text:0000000000000c60 .L0 
     /tmp/cceDUpe5.s:2085   .text:0000000000000c64 .L0 
     /tmp/cceDUpe5.s:2088   .text:0000000000000c68 .L0 
     /tmp/cceDUpe5.s:2089   .text:0000000000000c68 .L0 
     /tmp/cceDUpe5.s:2093   .text:0000000000000c78 .L0 
     /tmp/cceDUpe5.s:2094   .text:0000000000000c78 .L0 
     /tmp/cceDUpe5.s:2098   .text:0000000000000c7c .L0 
     /tmp/cceDUpe5.s:2099   .text:0000000000000c7c .L0 
GAS LISTING /tmp/cceDUpe5.s 			page 79


     /tmp/cceDUpe5.s:2101   .text:0000000000000c80 .L0 
     /tmp/cceDUpe5.s:2102   .text:0000000000000c80 .L0 
     /tmp/cceDUpe5.s:2106   .text:0000000000000c8c .L0 
     /tmp/cceDUpe5.s:2107   .text:0000000000000c8c .L0 
     /tmp/cceDUpe5.s:2110   .text:0000000000000c90 .L0 
     /tmp/cceDUpe5.s:2113   .text:0000000000000c94 .L0 
     /tmp/cceDUpe5.s:2114   .text:0000000000000c94 .L0 
     /tmp/cceDUpe5.s:2118   .text:0000000000000ca4 .L0 
     /tmp/cceDUpe5.s:2119   .text:0000000000000ca4 .L0 
     /tmp/cceDUpe5.s:2123   .text:0000000000000ca8 .L0 
     /tmp/cceDUpe5.s:2124   .text:0000000000000ca8 .L0 
     /tmp/cceDUpe5.s:2126   .text:0000000000000cac .L0 
     /tmp/cceDUpe5.s:2127   .text:0000000000000cac .L0 
     /tmp/cceDUpe5.s:2131   .text:0000000000000cb8 .L0 
     /tmp/cceDUpe5.s:2132   .text:0000000000000cb8 .L0 
     /tmp/cceDUpe5.s:2135   .text:0000000000000cbc .L0 
     /tmp/cceDUpe5.s:2138   .text:0000000000000cc0 .L0 
     /tmp/cceDUpe5.s:2139   .text:0000000000000cc0 .L0 
     /tmp/cceDUpe5.s:2143   .text:0000000000000cd0 .L0 
     /tmp/cceDUpe5.s:2144   .text:0000000000000cd4 .L0 
     /tmp/cceDUpe5.s:2146   .text:0000000000000cd8 .L0 
     /tmp/cceDUpe5.s:2147   .text:0000000000000cd8 .L0 
     /tmp/cceDUpe5.s:2149   .text:0000000000000cdc .L0 
     /tmp/cceDUpe5.s:2152   .text:0000000000000ce0 .L0 
     /tmp/cceDUpe5.s:2155   .text:0000000000000ce4 .L0 
     /tmp/cceDUpe5.s:2160   .text:0000000000000cec .L0 
     /tmp/cceDUpe5.s:2186   .text:0000000000000cec _Z22printSlabAllocatorInfov
     /tmp/cceDUpe5.s:2189   .text:0000000000000cec .L0 
     /tmp/cceDUpe5.s:2190   .text:0000000000000cec .L0 
     /tmp/cceDUpe5.s:2191   .text:0000000000000cf0 .L0 
     /tmp/cceDUpe5.s:2195   .text:0000000000000cfc .L0 
     /tmp/cceDUpe5.s:2196   .text:0000000000000cfc .L0 
     /tmp/cceDUpe5.s:2197   .text:0000000000000cfc .L0 
     /tmp/cceDUpe5.s:2199   .text:0000000000000d00 .L0 
     /tmp/cceDUpe5.s:2201   .text:0000000000000d00 .L0 
     /tmp/cceDUpe5.s:2202   .text:0000000000000d00 .L0 
     /tmp/cceDUpe5.s:2206   .text:0000000000000d10 .L0 
     /tmp/cceDUpe5.s:2207   .text:0000000000000d10 .L0 
     /tmp/cceDUpe5.s:2211   .text:0000000000000d20 .L0 
     /tmp/cceDUpe5.s:2212   .text:0000000000000d20 .L0 
     /tmp/cceDUpe5.s:2215   .text:0000000000000d2c .L0 
     /tmp/cceDUpe5.s:2221   .text:0000000000000d44 .L0 
     /tmp/cceDUpe5.s:2222   .text:0000000000000d44 .L0 
     /tmp/cceDUpe5.s:2228   .text:0000000000000d5c .L0 
     /tmp/cceDUpe5.s:2229   .text:0000000000000d5c .L0 
     /tmp/cceDUpe5.s:2233   .text:0000000000000d6c .L0 
     /tmp/cceDUpe5.s:2234   .text:0000000000000d6c .L0 
     /tmp/cceDUpe5.s:2236   .text:0000000000000d70 .L0 
     /tmp/cceDUpe5.s:2240   .text:0000000000000d7c .L0 
     /tmp/cceDUpe5.s:2241   .text:0000000000000d7c .L0 
     /tmp/cceDUpe5.s:2246   .text:0000000000000d8c .L0 
     /tmp/cceDUpe5.s:2247   .text:0000000000000d8c .L0 
     /tmp/cceDUpe5.s:2252   .text:0000000000000d94 .L0 
     /tmp/cceDUpe5.s:2253   .text:0000000000000d94 .L0 
     /tmp/cceDUpe5.s:2257   .text:0000000000000d9c .L0 
     /tmp/cceDUpe5.s:2261   .text:0000000000000da0 .L0 
     /tmp/cceDUpe5.s:2264   .text:0000000000000da8 .L0 
GAS LISTING /tmp/cceDUpe5.s 			page 80


     /tmp/cceDUpe5.s:2265   .text:0000000000000da8 .L0 
     /tmp/cceDUpe5.s:2270   .text:0000000000000dbc .L0 
     /tmp/cceDUpe5.s:2275   .text:0000000000000dc4 .L0 
     /tmp/cceDUpe5.s:2276   .text:0000000000000dc4 .L0 
     /tmp/cceDUpe5.s:2280   .text:0000000000000dd4 .L0 
     /tmp/cceDUpe5.s:2281   .text:0000000000000dd8 .L0 
     /tmp/cceDUpe5.s:2283   .text:0000000000000ddc .L0 
     /tmp/cceDUpe5.s:2284   .text:0000000000000ddc .L0 
     /tmp/cceDUpe5.s:2286   .text:0000000000000de0 .L0 
     /tmp/cceDUpe5.s:2289   .text:0000000000000de4 .L0 
     /tmp/cceDUpe5.s:2291   .text:0000000000000de8 .L0 
     /tmp/cceDUpe5.s:2302   .text:0000000000000de8 _Z7kmallocm
     /tmp/cceDUpe5.s:2305   .text:0000000000000de8 .L0 
     /tmp/cceDUpe5.s:2307   .text:0000000000000de8 .L0 
     /tmp/cceDUpe5.s:2308   .text:0000000000000dec .L0 
     /tmp/cceDUpe5.s:2314   .text:0000000000000e00 .L0 
     /tmp/cceDUpe5.s:2315   .text:0000000000000e00 .L0 
     /tmp/cceDUpe5.s:2316   .text:0000000000000e00 .L0 
     /tmp/cceDUpe5.s:2317   .text:0000000000000e00 .L0 
     /tmp/cceDUpe5.s:2318   .text:0000000000000e00 .L0 
     /tmp/cceDUpe5.s:2320   .text:0000000000000e04 .L0 
     /tmp/cceDUpe5.s:2322   .text:0000000000000e04 .L0 
     /tmp/cceDUpe5.s:2323   .text:0000000000000e04 .L0 
     /tmp/cceDUpe5.s:2326   .text:0000000000000e0c .L0 
     /tmp/cceDUpe5.s:2329   .text:0000000000000e14 .L0 
     /tmp/cceDUpe5.s:2332   .text:0000000000000e1c .L0 
     /tmp/cceDUpe5.s:2336   .text:0000000000000e24 .L0 
     /tmp/cceDUpe5.s:2340   .text:0000000000000e28 .L0 
     /tmp/cceDUpe5.s:2341   .text:0000000000000e28 .L0 
     /tmp/cceDUpe5.s:2345   .text:0000000000000e30 .L0 
     /tmp/cceDUpe5.s:2346   .text:0000000000000e30 .L0 
     /tmp/cceDUpe5.s:2349   .text:0000000000000e34 .L0 
     /tmp/cceDUpe5.s:2350   .text:0000000000000e34 .L0 
     /tmp/cceDUpe5.s:2355   .text:0000000000000e48 .L0 
     /tmp/cceDUpe5.s:2358   .text:0000000000000e4c .L0 
     /tmp/cceDUpe5.s:2359   .text:0000000000000e4c .L0 
     /tmp/cceDUpe5.s:2370   .text:0000000000000e6c .L0 
     /tmp/cceDUpe5.s:2372   .text:0000000000000e74 .L0 
     /tmp/cceDUpe5.s:2373   .text:0000000000000e74 .L0 
     /tmp/cceDUpe5.s:2375   .text:0000000000000e78 .L0 
     /tmp/cceDUpe5.s:2376   .text:0000000000000e78 .L0 
     /tmp/cceDUpe5.s:2378   .text:0000000000000e7c .L0 
     /tmp/cceDUpe5.s:2380   .text:0000000000000e80 .L0 
     /tmp/cceDUpe5.s:2382   .text:0000000000000e84 .L0 
     /tmp/cceDUpe5.s:2384   .text:0000000000000e88 .L0 
     /tmp/cceDUpe5.s:2388   .text:0000000000000e8c .L0 
     /tmp/cceDUpe5.s:2390   .text:0000000000000e8c .L0 
     /tmp/cceDUpe5.s:2391   .text:0000000000000e8c .L0 
     /tmp/cceDUpe5.s:2395   .text:0000000000000e98 .L0 
     /tmp/cceDUpe5.s:2399   .text:0000000000000ea4 .L0 
     /tmp/cceDUpe5.s:2400   .text:0000000000000ea4 .L0 
     /tmp/cceDUpe5.s:2404   .text:0000000000000eb4 .L0 
     /tmp/cceDUpe5.s:2406   .text:0000000000000eb8 .L0 
     /tmp/cceDUpe5.s:2407   .text:0000000000000eb8 .L0 
     /tmp/cceDUpe5.s:2419   .text:0000000000000eec .L0 
     /tmp/cceDUpe5.s:2425   .text:0000000000000eec _Z5kfreePKv
     /tmp/cceDUpe5.s:2428   .text:0000000000000eec .L0 
GAS LISTING /tmp/cceDUpe5.s 			page 81


     /tmp/cceDUpe5.s:2430   .text:0000000000000eec .L0 
     /tmp/cceDUpe5.s:2431   .text:0000000000000eec .L0 
     /tmp/cceDUpe5.s:2433   .text:0000000000000ef0 .L0 
     /tmp/cceDUpe5.s:2434   .text:0000000000000ef4 .L0 
     /tmp/cceDUpe5.s:2439   .text:0000000000000f04 .L0 
     /tmp/cceDUpe5.s:2440   .text:0000000000000f04 .L0 
     /tmp/cceDUpe5.s:2441   .text:0000000000000f04 .L0 
     /tmp/cceDUpe5.s:2442   .text:0000000000000f04 .L0 
     /tmp/cceDUpe5.s:2444   .text:0000000000000f08 .L0 
     /tmp/cceDUpe5.s:2448   .text:0000000000000f0c .L0 
     /tmp/cceDUpe5.s:2451   .text:0000000000000f10 .L0 
     /tmp/cceDUpe5.s:2456   .text:0000000000000f14 .L0 
     /tmp/cceDUpe5.s:2459   .text:0000000000000f1c .L0 
     /tmp/cceDUpe5.s:2460   .text:0000000000000f1c .L0 
     /tmp/cceDUpe5.s:2469   .text:0000000000000f3c .L0 
     /tmp/cceDUpe5.s:2471   .text:0000000000000f40 .L0 
     /tmp/cceDUpe5.s:2477   .text:0000000000000f48 .L0 
     /tmp/cceDUpe5.s:2479   .text:0000000000000f4c .L0 
     /tmp/cceDUpe5.s:2480   .text:0000000000000f4c .L0 
     /tmp/cceDUpe5.s:2485   .text:0000000000000f58 .L0 
     /tmp/cceDUpe5.s:2486   .text:0000000000000f5c .L0 
     /tmp/cceDUpe5.s:2488   .text:0000000000000f60 .L0 
     /tmp/cceDUpe5.s:2489   .text:0000000000000f60 .L0 
     /tmp/cceDUpe5.s:2491   .text:0000000000000f64 .L0 
     /tmp/cceDUpe5.s:2494   .text:0000000000000f68 .L0 
     /tmp/cceDUpe5.s:2497   .text:0000000000000f6c .L0 
     /tmp/cceDUpe5.s:2502   .text:0000000000000f74 .L0 
     /tmp/cceDUpe5.s:2508   .text:0000000000000f74 _Z18kmem_cache_destroyP12kmem_cache_s
     /tmp/cceDUpe5.s:2511   .text:0000000000000f74 .L0 
     /tmp/cceDUpe5.s:2513   .text:0000000000000f74 .L0 
     /tmp/cceDUpe5.s:2514   .text:0000000000000f78 .L0 
     /tmp/cceDUpe5.s:2518   .text:0000000000000f84 .L0 
     /tmp/cceDUpe5.s:2519   .text:0000000000000f84 .L0 
     /tmp/cceDUpe5.s:2520   .text:0000000000000f84 .L0 
     /tmp/cceDUpe5.s:2522   .text:0000000000000f88 .L0 
     /tmp/cceDUpe5.s:2525   .text:0000000000000f8c .L0 
     /tmp/cceDUpe5.s:2526   .text:0000000000000f8c .L0 
     /tmp/cceDUpe5.s:2531   .text:0000000000000f98 .L0 
     /tmp/cceDUpe5.s:2532   .text:0000000000000f98 .L0 
     /tmp/cceDUpe5.s:2536   .text:0000000000000fa4 .L0 
     /tmp/cceDUpe5.s:2537   .text:0000000000000fa4 .L0 
     /tmp/cceDUpe5.s:2541   .text:0000000000000fb0 .L0 
     /tmp/cceDUpe5.s:2542   .text:0000000000000fb0 .L0 
     /tmp/cceDUpe5.s:2548   .text:0000000000000fc8 .L0 
     /tmp/cceDUpe5.s:2549   .text:0000000000000fcc .L0 
     /tmp/cceDUpe5.s:2551   .text:0000000000000fd0 .L0 
     /tmp/cceDUpe5.s:2552   .text:0000000000000fd0 .L0 
     /tmp/cceDUpe5.s:2554   .text:0000000000000fd4 .L0 
     /tmp/cceDUpe5.s:2557   .text:0000000000000fd8 .L0 
     /tmp/cceDUpe5.s:2559   .text:0000000000000fdc .L0 
     /tmp/cceDUpe5.s:2565   .text:0000000000000fdc _Z17kmem_cache_shrinkP12kmem_cache_s
     /tmp/cceDUpe5.s:2568   .text:0000000000000fdc .L0 
     /tmp/cceDUpe5.s:2570   .text:0000000000000fdc .L0 
     /tmp/cceDUpe5.s:2571   .text:0000000000000fdc .L0 
     /tmp/cceDUpe5.s:2573   .text:0000000000000fe0 .L0 
     /tmp/cceDUpe5.s:2574   .text:0000000000000fe4 .L0 
     /tmp/cceDUpe5.s:2577   .text:0000000000000fec .L0 
GAS LISTING /tmp/cceDUpe5.s 			page 82


     /tmp/cceDUpe5.s:2578   .text:0000000000000fec .L0 
     /tmp/cceDUpe5.s:2580   .text:0000000000000ff0 .L0 
     /tmp/cceDUpe5.s:2582   .text:0000000000000ff0 .L0 
     /tmp/cceDUpe5.s:2583   .text:0000000000000ff0 .L0 
     /tmp/cceDUpe5.s:2588   .text:0000000000000ffc .L0 
     /tmp/cceDUpe5.s:2589   .text:0000000000000ffc .L0 
     /tmp/cceDUpe5.s:2590   .text:0000000000001000 .L0 
     /tmp/cceDUpe5.s:2592   .text:0000000000001004 .L0 
     /tmp/cceDUpe5.s:2593   .text:0000000000001004 .L0 
     /tmp/cceDUpe5.s:2595   .text:0000000000001008 .L0 
     /tmp/cceDUpe5.s:2600   .text:000000000000100c .L0 
     /tmp/cceDUpe5.s:2603   .text:0000000000001010 .L0 
     /tmp/cceDUpe5.s:2604   .text:0000000000001014 .L0 
     /tmp/cceDUpe5.s:2618   .text:0000000000001014 _Z16kmem_cache_errorP12kmem_cache_s
     /tmp/cceDUpe5.s:2621   .text:0000000000001014 .L0 
     /tmp/cceDUpe5.s:2623   .text:0000000000001014 .L0 
     /tmp/cceDUpe5.s:2624   .text:0000000000001014 .L0 
     /tmp/cceDUpe5.s:2626   .text:0000000000001018 .L0 
     /tmp/cceDUpe5.s:2627   .text:000000000000101c .L0 
     /tmp/cceDUpe5.s:2631   .text:0000000000001028 .L0 
     /tmp/cceDUpe5.s:2632   .text:0000000000001028 .L0 
     /tmp/cceDUpe5.s:2633   .text:0000000000001028 .L0 
     /tmp/cceDUpe5.s:2635   .text:000000000000102c .L0 
     /tmp/cceDUpe5.s:2638   .text:0000000000001030 .L0 
     /tmp/cceDUpe5.s:2639   .text:0000000000001030 .L0 
     /tmp/cceDUpe5.s:2641   .text:0000000000001034 .L0 
     /tmp/cceDUpe5.s:2643   .text:0000000000001038 .L0 
     /tmp/cceDUpe5.s:2647   .text:000000000000103c .L0 
     /tmp/cceDUpe5.s:2648   .text:000000000000103c .L0 
     /tmp/cceDUpe5.s:2650   .text:0000000000001040 .L0 
     /tmp/cceDUpe5.s:2652   .text:0000000000001044 .L0 
     /tmp/cceDUpe5.s:2655   .text:0000000000001048 .L0 
     /tmp/cceDUpe5.s:2656   .text:0000000000001048 .L0 
     /tmp/cceDUpe5.s:2658   .text:000000000000104c .L0 
     /tmp/cceDUpe5.s:2659   .text:0000000000001050 .L0 
     /tmp/cceDUpe5.s:2660   .text:0000000000001050 .L0 
     /tmp/cceDUpe5.s:2662   .text:0000000000001054 .L0 
     /tmp/cceDUpe5.s:2663   .text:0000000000001054 .L0 
     /tmp/cceDUpe5.s:2665   .text:0000000000001058 .L0 
     /tmp/cceDUpe5.s:2668   .text:000000000000105c .L0 
     /tmp/cceDUpe5.s:2672   .text:0000000000001060 .L0 
     /tmp/cceDUpe5.s:2674   .text:0000000000001060 .L0 
     /tmp/cceDUpe5.s:2675   .text:0000000000001060 .L0 
     /tmp/cceDUpe5.s:2681   .text:0000000000001074 .L0 
     /tmp/cceDUpe5.s:2682   .text:0000000000001074 .L0 
     /tmp/cceDUpe5.s:2688   .text:0000000000001088 .L0 
     /tmp/cceDUpe5.s:2689   .text:0000000000001088 .L0 
     /tmp/cceDUpe5.s:2690   .text:0000000000001088 .L0 
     /tmp/cceDUpe5.s:2691   .text:0000000000001088 .L0 
     /tmp/cceDUpe5.s:2693   .text:0000000000001088 .L0 
     /tmp/cceDUpe5.s:2696   .text:000000000000108c .L0 
     /tmp/cceDUpe5.s:2697   .text:0000000000001090 .L0 
     /tmp/cceDUpe5.s:2702   .bss:0000000000000000 .LANCHOR0
     /tmp/cceDUpe5.s:2705   .bss:0000000000000000 _ZL13slabAllocator
     /tmp/cceDUpe5.s:2715   .text:0000000000001090 .L0 
     /tmp/cceDUpe5.s:110    .text:000000000000007c .L0 
     /tmp/cceDUpe5.s:241    .rodata.str1.8:0000000000000000 .LC0
GAS LISTING /tmp/cceDUpe5.s 			page 83


     /tmp/cceDUpe5.s:297    .text:000000000000019c .L0 
     /tmp/cceDUpe5.s:947    .text:0000000000000564 .L0 
     /tmp/cceDUpe5.s:1335   .rodata.str1.8:0000000000000010 .LC1
     /tmp/cceDUpe5.s:1368   .text:0000000000000788 .L0 
     /tmp/cceDUpe5.s:1338   .rodata.str1.8:0000000000000028 .LC2
     /tmp/cceDUpe5.s:1376   .text:00000000000007a0 .L0 
     /tmp/cceDUpe5.s:1341   .rodata.str1.8:0000000000000038 .LC3
     /tmp/cceDUpe5.s:1383   .text:00000000000007b8 .L0 
     /tmp/cceDUpe5.s:1344   .rodata.str1.8:0000000000000058 .LC4
     /tmp/cceDUpe5.s:1390   .text:00000000000007d0 .L0 
     /tmp/cceDUpe5.s:1615   .text:000000000000094c .L0 
     /tmp/cceDUpe5.s:1855   .text:0000000000000ad0 .L0 
     /tmp/cceDUpe5.s:1963   .rodata.str1.8:0000000000000070 .LC5
     /tmp/cceDUpe5.s:2019   .text:0000000000000bb0 .L0 
     /tmp/cceDUpe5.s:1966   .rodata.str1.8:0000000000000080 .LC6
     /tmp/cceDUpe5.s:2025   .text:0000000000000bc0 .L0 
     /tmp/cceDUpe5.s:1969   .rodata.str1.8:00000000000000b8 .LC7
     /tmp/cceDUpe5.s:2030   .text:0000000000000bd0 .L0 
     /tmp/cceDUpe5.s:1972   .rodata.str1.8:00000000000000c8 .LC8
     /tmp/cceDUpe5.s:2040   .text:0000000000000bec .L0 
     /tmp/cceDUpe5.s:1975   .rodata.str1.8:00000000000000d0 .LC9
     /tmp/cceDUpe5.s:2047   .text:0000000000000c04 .L0 
     /tmp/cceDUpe5.s:1978   .rodata.str1.8:00000000000000f0 .LC10
     /tmp/cceDUpe5.s:2054   .text:0000000000000c1c .L0 
     /tmp/cceDUpe5.s:1981   .rodata.str1.8:0000000000000110 .LC11
     /tmp/cceDUpe5.s:2059   .text:0000000000000c2c .L0 
     /tmp/cceDUpe5.s:1984   .rodata.str1.8:0000000000000130 .LC12
     /tmp/cceDUpe5.s:2064   .text:0000000000000c3c .L0 
     /tmp/cceDUpe5.s:1987   .rodata.str1.8:0000000000000140 .LC13
     /tmp/cceDUpe5.s:2089   .text:0000000000000c68 .L0 
     /tmp/cceDUpe5.s:1990   .rodata.str1.8:0000000000000150 .LC14
     /tmp/cceDUpe5.s:2114   .text:0000000000000c94 .L0 
     /tmp/cceDUpe5.s:2139   .text:0000000000000cc0 .L0 
     /tmp/cceDUpe5.s:2165   .rodata.str1.8:0000000000000160 .LC15
     /tmp/cceDUpe5.s:2202   .text:0000000000000d00 .L0 
     /tmp/cceDUpe5.s:2168   .rodata.str1.8:0000000000000170 .LC16
     /tmp/cceDUpe5.s:2207   .text:0000000000000d10 .L0 
     /tmp/cceDUpe5.s:2212   .text:0000000000000d20 .L0 
     /tmp/cceDUpe5.s:2171   .rodata.str1.8:00000000000001c0 .LC17
     /tmp/cceDUpe5.s:2217   .text:0000000000000d34 .L0 
     /tmp/cceDUpe5.s:2174   .rodata.str1.8:00000000000001e0 .LC18
     /tmp/cceDUpe5.s:2224   .text:0000000000000d4c .L0 
     /tmp/cceDUpe5.s:2177   .rodata.str1.8:00000000000001f8 .LC19
     /tmp/cceDUpe5.s:2229   .text:0000000000000d5c .L0 
     /tmp/cceDUpe5.s:2180   .rodata.str1.8:0000000000000210 .LC20
     /tmp/cceDUpe5.s:2241   .text:0000000000000d7c .L0 
     /tmp/cceDUpe5.s:2266   .text:0000000000000dac .L0 
     /tmp/cceDUpe5.s:2276   .text:0000000000000dc4 .L0 
     /tmp/cceDUpe5.s:2350   .text:0000000000000e34 .L0 
     /tmp/cceDUpe5.s:2360   .text:0000000000000e50 .L0 
     /tmp/cceDUpe5.s:2400   .text:0000000000000ea4 .L0 
     /tmp/cceDUpe5.s:2296   .rodata.str1.8:0000000000000228 .LC21
     /tmp/cceDUpe5.s:2414   .text:0000000000000ed4 .L0 
     /tmp/cceDUpe5.s:2461   .text:0000000000000f20 .L0 
     /tmp/cceDUpe5.s:2543   .text:0000000000000fb4 .L0 
     /tmp/cceDUpe5.s:2609   .rodata.str1.8:0000000000000240 .LC22
     /tmp/cceDUpe5.s:2675   .text:0000000000001060 .L0 
GAS LISTING /tmp/cceDUpe5.s 			page 84


     /tmp/cceDUpe5.s:2612   .rodata.str1.8:0000000000000250 .LC23
     /tmp/cceDUpe5.s:2682   .text:0000000000001074 .L0 
     /tmp/cceDUpe5.s:41     .text:0000000000000024 .L2
     /tmp/cceDUpe5.s:21     .text:000000000000000c .L3
     /tmp/cceDUpe5.s:125    .text:000000000000009c .L8
     /tmp/cceDUpe5.s:129    .text:00000000000000a0 .L6
     /tmp/cceDUpe5.s:95     .text:000000000000006c .L7
     /tmp/cceDUpe5.s:285    .text:0000000000000184 .L14
     /tmp/cceDUpe5.s:276    .text:0000000000000174 .L16
     /tmp/cceDUpe5.s:517    .text:0000000000000300 .L26
     /tmp/cceDUpe5.s:472    .text:00000000000002b8 .L27
     /tmp/cceDUpe5.s:455    .text:00000000000002a0 .L29
     /tmp/cceDUpe5.s:436    .text:0000000000000278 .L25
     /tmp/cceDUpe5.s:479    .text:00000000000002c0 .L23
     /tmp/cceDUpe5.s:497    .text:00000000000002e0 .L21
     /tmp/cceDUpe5.s:619    .text:0000000000000378 .L34
     /tmp/cceDUpe5.s:615    .text:0000000000000374 .L36
     /tmp/cceDUpe5.s:676    .text:00000000000003c0 .L44
     /tmp/cceDUpe5.s:661    .text:00000000000003ac .L42
     /tmp/cceDUpe5.s:686    .text:00000000000003cc .L40
     /tmp/cceDUpe5.s:667    .text:00000000000003b4 .L38
     /tmp/cceDUpe5.s:1056   .text:0000000000000610 .L53
     /tmp/cceDUpe5.s:966    .text:0000000000000590 .L55
     /tmp/cceDUpe5.s:1018   .text:00000000000005d8 .L56
     /tmp/cceDUpe5.s:1002   .text:00000000000005bc .L57
     /tmp/cceDUpe5.s:1030   .text:00000000000005e4 .L58
     /tmp/cceDUpe5.s:1110   .text:000000000000064c .L61
     /tmp/cceDUpe5.s:1097   .text:000000000000063c .L62
     /tmp/cceDUpe5.s:1129   .text:0000000000000660 .L65
     /tmp/cceDUpe5.s:1154   .text:0000000000000684 .L63
     /tmp/cceDUpe5.s:1125   .text:000000000000065c .L64
     /tmp/cceDUpe5.s:1226   .text:00000000000006dc .L68
     /tmp/cceDUpe5.s:1277   .text:000000000000071c .L76
     /tmp/cceDUpe5.s:1201   .text:00000000000006b8 .L72
     /tmp/cceDUpe5.s:1237   .text:00000000000006e8 .L70
     /tmp/cceDUpe5.s:1195   .text:00000000000006b4 .L71
     /tmp/cceDUpe5.s:1251   .text:00000000000006f4 .L74
     /tmp/cceDUpe5.s:1245   .text:00000000000006f0 .L73
     /tmp/cceDUpe5.s:1578   .text:0000000000000928 .L89
     /tmp/cceDUpe5.s:1513   .text:00000000000008a8 .L82
     /tmp/cceDUpe5.s:1480   .text:000000000000086c .L84
     /tmp/cceDUpe5.s:1491   .text:000000000000087c .L85
     /tmp/cceDUpe5.s:1535   .text:00000000000008c8 .L92
     /tmp/cceDUpe5.s:1563   .text:0000000000000908 .L93
     /tmp/cceDUpe5.s:1813   .text:0000000000000a94 .L104
     /tmp/cceDUpe5.s:1702   .text:00000000000009dc .L106
     /tmp/cceDUpe5.s:1754   .text:0000000000000a24 .L100
     /tmp/cceDUpe5.s:1721   .text:00000000000009f8 .L96
     /tmp/cceDUpe5.s:1741   .text:0000000000000a14 .L107
     /tmp/cceDUpe5.s:1804   .text:0000000000000a84 .L108
     /tmp/cceDUpe5.s:1878   .text:0000000000000b18 .L109
     /tmp/cceDUpe5.s:1956   .text:0000000000000b8c .L115
     /tmp/cceDUpe5.s:1942   .text:0000000000000b78 .L112
     /tmp/cceDUpe5.s:2158   .text:0000000000000ce8 .L127
     /tmp/cceDUpe5.s:2086   .text:0000000000000c68 .L120
     /tmp/cceDUpe5.s:2071   .text:0000000000000c50 .L121
     /tmp/cceDUpe5.s:2111   .text:0000000000000c94 .L122
GAS LISTING /tmp/cceDUpe5.s 			page 85


     /tmp/cceDUpe5.s:2096   .text:0000000000000c7c .L123
     /tmp/cceDUpe5.s:2136   .text:0000000000000cc0 .L124
     /tmp/cceDUpe5.s:2121   .text:0000000000000ca8 .L125
     /tmp/cceDUpe5.s:2259   .text:0000000000000da0 .L133
     /tmp/cceDUpe5.s:2272   .text:0000000000000dc4 .L131
     /tmp/cceDUpe5.s:2250   .text:0000000000000d94 .L135
     /tmp/cceDUpe5.s:2255   .text:0000000000000d9c .L132
     /tmp/cceDUpe5.s:2334   .text:0000000000000e24 .L140
     /tmp/cceDUpe5.s:2338   .text:0000000000000e28 .L137
     /tmp/cceDUpe5.s:2368   .text:0000000000000e6c .L136
     /tmp/cceDUpe5.s:2387   .text:0000000000000e8c .L143
     /tmp/cceDUpe5.s:2356   .text:0000000000000e4c .L139
     /tmp/cceDUpe5.s:2500   .text:0000000000000f70 .L149
     /tmp/cceDUpe5.s:2474   .text:0000000000000f48 .L146
     /tmp/cceDUpe5.s:2453   .text:0000000000000f14 .L147
     /tmp/cceDUpe5.s:2483   .text:0000000000000f58 .L144
     /tmp/cceDUpe5.s:2598   .text:000000000000100c .L156
     /tmp/cceDUpe5.s:2687   .text:0000000000001088 .L165
     /tmp/cceDUpe5.s:2671   .text:0000000000001060 .L170
     /tmp/cceDUpe5.s:2679   .text:0000000000001074 .L171
     /tmp/cceDUpe5.s:2645   .text:000000000000103c .L163
     /tmp/cceDUpe5.s:2653   .text:0000000000001048 .L164
     /tmp/cceDUpe5.s:6239   .debug_abbrev:0000000000000000 .Ldebug_abbrev0
     /tmp/cceDUpe5.s:8710   .debug_str:00000000000005af .LASF309
     /tmp/cceDUpe5.s:8794   .debug_str:0000000000000949 .LASF310
     /tmp/cceDUpe5.s:8670   .debug_str:000000000000048d .LASF311
     /tmp/cceDUpe5.s:5      .text:0000000000000000 .Ltext0
     /tmp/cceDUpe5.s:2708   .text:0000000000001090 .Letext0
     /tmp/cceDUpe5.s:8526   .debug_line:0000000000000000 .Ldebug_line0
     /tmp/cceDUpe5.s:8746   .debug_str:00000000000007c3 .LASF0
     /tmp/cceDUpe5.s:8776   .debug_str:00000000000008cb .LASF1
     /tmp/cceDUpe5.s:8932   .debug_str:0000000000000e1f .LASF2
     /tmp/cceDUpe5.s:8676   .debug_str:00000000000004bb .LASF3
     /tmp/cceDUpe5.s:8948   .debug_str:0000000000000e9e .LASF4
     /tmp/cceDUpe5.s:8758   .debug_str:0000000000000812 .LASF5
     /tmp/cceDUpe5.s:8548   .debug_str:00000000000000be .LASF6
     /tmp/cceDUpe5.s:8882   .debug_str:0000000000000c5d .LASF7
     /tmp/cceDUpe5.s:8768   .debug_str:000000000000087c .LASF8
     /tmp/cceDUpe5.s:8706   .debug_str:0000000000000595 .LASF9
     /tmp/cceDUpe5.s:8718   .debug_str:00000000000006b2 .LASF10
     /tmp/cceDUpe5.s:8608   .debug_str:00000000000002fb .LASF11
     /tmp/cceDUpe5.s:8998   .debug_str:0000000000001062 .LASF12
     /tmp/cceDUpe5.s:8692   .debug_str:0000000000000522 .LASF13
     /tmp/cceDUpe5.s:8626   .debug_str:0000000000000357 .LASF14
     /tmp/cceDUpe5.s:8606   .debug_str:00000000000002eb .LASF15
     /tmp/cceDUpe5.s:9002   .debug_str:0000000000001097 .LASF16
     /tmp/cceDUpe5.s:8664   .debug_str:000000000000045d .LASF17
     /tmp/cceDUpe5.s:8988   .debug_str:0000000000000ff3 .LASF18
     /tmp/cceDUpe5.s:8688   .debug_str:0000000000000504 .LASF19
     /tmp/cceDUpe5.s:8686   .debug_str:00000000000004f7 .LASF30
     /tmp/cceDUpe5.s:8708   .debug_str:00000000000005a5 .LASF20
     /tmp/cceDUpe5.s:8684   .debug_str:00000000000004eb .LASF21
     /tmp/cceDUpe5.s:8832   .debug_str:0000000000000a99 .LASF22
     /tmp/cceDUpe5.s:8712   .debug_str:000000000000067f .LASF23
     /tmp/cceDUpe5.s:8980   .debug_str:0000000000000fbe .LASF24
     /tmp/cceDUpe5.s:9096   .debug_str:00000000000013ba .LASF25
     /tmp/cceDUpe5.s:8810   .debug_str:00000000000009ce .LASF26
GAS LISTING /tmp/cceDUpe5.s 			page 86


     /tmp/cceDUpe5.s:8744   .debug_str:00000000000007be .LASF27
     /tmp/cceDUpe5.s:8754   .debug_str:00000000000007f9 .LASF28
     /tmp/cceDUpe5.s:9018   .debug_str:00000000000010e2 .LASF29
     /tmp/cceDUpe5.s:8886   .debug_str:0000000000000c78 .LASF31
     /tmp/cceDUpe5.s:8610   .debug_str:000000000000030a .LASF32
     /tmp/cceDUpe5.s:8916   .debug_str:0000000000000d93 .LASF33
     /tmp/cceDUpe5.s:9012   .debug_str:00000000000010cb .LASF34
     /tmp/cceDUpe5.s:8790   .debug_str:0000000000000928 .LASF35
     /tmp/cceDUpe5.s:8806   .debug_str:00000000000009b5 .LASF36
     /tmp/cceDUpe5.s:8816   .debug_str:00000000000009e7 .LASF37
     /tmp/cceDUpe5.s:9028   .debug_str:0000000000001110 .LASF38
     /tmp/cceDUpe5.s:9072   .debug_str:00000000000012d3 .LASF39
     /tmp/cceDUpe5.s:8780   .debug_str:00000000000008e9 .LASF40
     /tmp/cceDUpe5.s:8680   .debug_str:00000000000004cf .LASF41
     /tmp/cceDUpe5.s:9022   .debug_str:00000000000010f2 .LASF312
     /tmp/cceDUpe5.s:9014   .debug_str:00000000000010d1 .LASF42
     /tmp/cceDUpe5.s:8970   .debug_str:0000000000000f59 .LASF43
     /tmp/cceDUpe5.s:8618   .debug_str:000000000000032d .LASF44
     /tmp/cceDUpe5.s:8586   .debug_str:0000000000000212 .LASF45
     /tmp/cceDUpe5.s:8884   .debug_str:0000000000000c70 .LASF46
     /tmp/cceDUpe5.s:8616   .debug_str:0000000000000324 .LASF47
     /tmp/cceDUpe5.s:9010   .debug_str:00000000000010c3 .LASF48
     /tmp/cceDUpe5.s:8736   .debug_str:000000000000077a .LASF49
     /tmp/cceDUpe5.s:8550   .debug_str:00000000000000c5 .LASF55
     /tmp/cceDUpe5.s:9060   .debug_str:000000000000124f .LASF313
     /tmp/cceDUpe5.s:8866   .debug_str:0000000000000bf5 .LASF50
     /tmp/cceDUpe5.s:8774   .debug_str:00000000000008c6 .LASF51
     /tmp/cceDUpe5.s:9136   .debug_str:00000000000014e2 .LASF53
     /tmp/cceDUpe5.s:9128   .debug_str:00000000000014b0 .LASF52
     /tmp/cceDUpe5.s:9038   .debug_str:0000000000001178 .LASF54
     /tmp/cceDUpe5.s:8650   .debug_str:0000000000000418 .LASF78
     /tmp/cceDUpe5.s:8562   .debug_str:000000000000013e .LASF80
     /tmp/cceDUpe5.s:9026   .debug_str:0000000000001108 .LASF56
     /tmp/cceDUpe5.s:8958   .debug_str:0000000000000ef8 .LASF57
     /tmp/cceDUpe5.s:8784   .debug_str:00000000000008fe .LASF60
     /tmp/cceDUpe5.s:8798   .debug_str:0000000000000964 .LASF62
     /tmp/cceDUpe5.s:9144   .debug_str:000000000000154b .LASF58
     /tmp/cceDUpe5.s:8672   .debug_str:00000000000004a2 .LASF59
     /tmp/cceDUpe5.s:8540   .debug_str:000000000000007d .LASF104
     /tmp/cceDUpe5.s:8638   .debug_str:00000000000003cf .LASF106
     /tmp/cceDUpe5.s:8962   .debug_str:0000000000000f15 .LASF61
     /tmp/cceDUpe5.s:8836   .debug_str:0000000000000aaa .LASF63
     /tmp/cceDUpe5.s:8942   .debug_str:0000000000000e64 .LASF64
     /tmp/cceDUpe5.s:8996   .debug_str:0000000000001046 .LASF65
     /tmp/cceDUpe5.s:8838   .debug_str:0000000000000abd .LASF66
     /tmp/cceDUpe5.s:8534   .debug_str:000000000000003f .LASF67
     /tmp/cceDUpe5.s:9118   .debug_str:000000000000146c .LASF68
     /tmp/cceDUpe5.s:8880   .debug_str:0000000000000c43 .LASF69
     /tmp/cceDUpe5.s:8986   .debug_str:0000000000000fe5 .LASF70
     /tmp/cceDUpe5.s:8898   .debug_str:0000000000000cd2 .LASF71
     /tmp/cceDUpe5.s:8644   .debug_str:00000000000003f6 .LASF72
     /tmp/cceDUpe5.s:8696   .debug_str:0000000000000547 .LASF73
     /tmp/cceDUpe5.s:8924   .debug_str:0000000000000de6 .LASF74
     /tmp/cceDUpe5.s:9120   .debug_str:000000000000147b .LASF75
     /tmp/cceDUpe5.s:9122   .debug_str:000000000000148a .LASF76
     /tmp/cceDUpe5.s:8760   .debug_str:0000000000000824 .LASF77
     /tmp/cceDUpe5.s:8982   .debug_str:0000000000000fc8 .LASF79
GAS LISTING /tmp/cceDUpe5.s 			page 87


     /tmp/cceDUpe5.s:9134   .debug_str:00000000000014cc .LASF81
     /tmp/cceDUpe5.s:8722   .debug_str:00000000000006e9 .LASF82
     /tmp/cceDUpe5.s:8694   .debug_str:0000000000000531 .LASF83
     /tmp/cceDUpe5.s:8954   .debug_str:0000000000000ed5 .LASF84
     /tmp/cceDUpe5.s:8748   .debug_str:00000000000007d0 .LASF85
     /tmp/cceDUpe5.s:8846   .debug_str:0000000000000af7 .LASF86
     /tmp/cceDUpe5.s:8632   .debug_str:00000000000003a7 .LASF87
     /tmp/cceDUpe5.s:8906   .debug_str:0000000000000d24 .LASF88
     /tmp/cceDUpe5.s:9154   .debug_str:00000000000015ad .LASF89
     /tmp/cceDUpe5.s:8852   .debug_str:0000000000000b40 .LASF90
     /tmp/cceDUpe5.s:8940   .debug_str:0000000000000e51 .LASF91
     /tmp/cceDUpe5.s:8964   .debug_str:0000000000000f1e .LASF92
     /tmp/cceDUpe5.s:9082   .debug_str:0000000000001315 .LASF93
     /tmp/cceDUpe5.s:8824   .debug_str:0000000000000a48 .LASF94
     /tmp/cceDUpe5.s:9064   .debug_str:0000000000001291 .LASF95
     /tmp/cceDUpe5.s:8994   .debug_str:0000000000001026 .LASF96
     /tmp/cceDUpe5.s:8874   .debug_str:0000000000000c17 .LASF97
     /tmp/cceDUpe5.s:8856   .debug_str:0000000000000b8d .LASF98
     /tmp/cceDUpe5.s:8658   .debug_str:000000000000043b .LASF99
     /tmp/cceDUpe5.s:8750   .debug_str:00000000000007e4 .LASF100
     /tmp/cceDUpe5.s:8828   .debug_str:0000000000000a85 .LASF101
     /tmp/cceDUpe5.s:9042   .debug_str:0000000000001193 .LASF102
     /tmp/cceDUpe5.s:8700   .debug_str:000000000000055d .LASF103
     /tmp/cceDUpe5.s:9126   .debug_str:00000000000014a2 .LASF105
     /tmp/cceDUpe5.s:8572   .debug_str:00000000000001a0 .LASF107
     /tmp/cceDUpe5.s:8682   .debug_str:00000000000004d6 .LASF108
     /tmp/cceDUpe5.s:8600   .debug_str:00000000000002ac .LASF109
     /tmp/cceDUpe5.s:9116   .debug_str:0000000000001465 .LASF110
     /tmp/cceDUpe5.s:8596   .debug_str:0000000000000276 .LASF111
     /tmp/cceDUpe5.s:8538   .debug_str:0000000000000078 .LASF112
     /tmp/cceDUpe5.s:9078   .debug_str:0000000000001304 .LASF113
     /tmp/cceDUpe5.s:8804   .debug_str:00000000000009ad .LASF114
     /tmp/cceDUpe5.s:8656   .debug_str:0000000000000435 .LASF115
     /tmp/cceDUpe5.s:9058   .debug_str:0000000000001247 .LASF116
     /tmp/cceDUpe5.s:8584   .debug_str:0000000000000201 .LASF117
     /tmp/cceDUpe5.s:8812   .debug_str:00000000000009d3 .LASF118
     /tmp/cceDUpe5.s:8912   .debug_str:0000000000000d63 .LASF119
     /tmp/cceDUpe5.s:8714   .debug_str:000000000000068d .LASF120
     /tmp/cceDUpe5.s:8936   .debug_str:0000000000000e39 .LASF121
     /tmp/cceDUpe5.s:8910   .debug_str:0000000000000d4f .LASF122
     /tmp/cceDUpe5.s:8652   .debug_str:0000000000000421 .LASF123
     /tmp/cceDUpe5.s:8978   .debug_str:0000000000000fa7 .LASF124
     /tmp/cceDUpe5.s:9006   .debug_str:00000000000010b6 .LASF125
     /tmp/cceDUpe5.s:8842   .debug_str:0000000000000ad5 .LASF126
     /tmp/cceDUpe5.s:8530   .debug_str:000000000000000f .LASF127
     /tmp/cceDUpe5.s:8938   .debug_str:0000000000000e45 .LASF128
     /tmp/cceDUpe5.s:8818   .debug_str:00000000000009f3 .LASF129
     /tmp/cceDUpe5.s:8930   .debug_str:0000000000000e0a .LASF130
     /tmp/cceDUpe5.s:8612   .debug_str:000000000000030f .LASF131
     /tmp/cceDUpe5.s:8620   .debug_str:0000000000000337 .LASF132
     /tmp/cceDUpe5.s:8840   .debug_str:0000000000000acc .LASF133
     /tmp/cceDUpe5.s:8946   .debug_str:0000000000000e93 .LASF134
     /tmp/cceDUpe5.s:8528   .debug_str:0000000000000000 .LASF135
     /tmp/cceDUpe5.s:8730   .debug_str:0000000000000737 .LASF136
     /tmp/cceDUpe5.s:9056   .debug_str:0000000000001238 .LASF137
     /tmp/cceDUpe5.s:9000   .debug_str:0000000000001075 .LASF138
     /tmp/cceDUpe5.s:8966   .debug_str:0000000000000f3c .LASF139
GAS LISTING /tmp/cceDUpe5.s 			page 88


     /tmp/cceDUpe5.s:8630   .debug_str:0000000000000383 .LASF140
     /tmp/cceDUpe5.s:8864   .debug_str:0000000000000be5 .LASF141
     /tmp/cceDUpe5.s:8902   .debug_str:0000000000000cf0 .LASF142
     /tmp/cceDUpe5.s:8862   .debug_str:0000000000000bdf .LASF143
     /tmp/cceDUpe5.s:9148   .debug_str:000000000000157e .LASF144
     /tmp/cceDUpe5.s:8542   .debug_str:000000000000008d .LASF145
     /tmp/cceDUpe5.s:8802   .debug_str:0000000000000993 .LASF146
     /tmp/cceDUpe5.s:9142   .debug_str:000000000000153b .LASF147
     /tmp/cceDUpe5.s:8950   .debug_str:0000000000000ea5 .LASF148
     /tmp/cceDUpe5.s:9004   .debug_str:00000000000010a3 .LASF149
     /tmp/cceDUpe5.s:8944   .debug_str:0000000000000e6d .LASF150
     /tmp/cceDUpe5.s:9150   .debug_str:0000000000001596 .LASF151
     /tmp/cceDUpe5.s:8772   .debug_str:00000000000008a2 .LASF152
     /tmp/cceDUpe5.s:8844   .debug_str:0000000000000aee .LASF153
     /tmp/cceDUpe5.s:8582   .debug_str:00000000000001f1 .LASF154
     /tmp/cceDUpe5.s:9048   .debug_str:00000000000011be .LASF155
     /tmp/cceDUpe5.s:8952   .debug_str:0000000000000ec8 .LASF156
     /tmp/cceDUpe5.s:8536   .debug_str:0000000000000059 .LASF157
     /tmp/cceDUpe5.s:8570   .debug_str:000000000000018d .LASF158
     /tmp/cceDUpe5.s:8858   .debug_str:0000000000000bac .LASF159
     /tmp/cceDUpe5.s:8876   .debug_str:0000000000000c2b .LASF160
     /tmp/cceDUpe5.s:8734   .debug_str:0000000000000766 .LASF161
     /tmp/cceDUpe5.s:8868   .debug_str:0000000000000bfa .LASF162
     /tmp/cceDUpe5.s:8778   .debug_str:00000000000008de .LASF163
     /tmp/cceDUpe5.s:8896   .debug_str:0000000000000cc8 .LASF164
     /tmp/cceDUpe5.s:9084   .debug_str:0000000000001328 .LASF165
     /tmp/cceDUpe5.s:9020   .debug_str:00000000000010e7 .LASF166
     /tmp/cceDUpe5.s:9080   .debug_str:0000000000001309 .LASF167
     /tmp/cceDUpe5.s:9094   .debug_str:00000000000013ad .LASF168
     /tmp/cceDUpe5.s:8830   .debug_str:0000000000000a8d .LASF169
     /tmp/cceDUpe5.s:8894   .debug_str:0000000000000cbc .LASF170
     /tmp/cceDUpe5.s:8984   .debug_str:0000000000000fd3 .LASF173
     /tmp/cceDUpe5.s:8972   .debug_str:0000000000000f61 .LASF175
     /tmp/cceDUpe5.s:9070   .debug_str:00000000000012c1 .LASF171
     /tmp/cceDUpe5.s:9114   .debug_str:0000000000001443 .LASF172
     /tmp/cceDUpe5.s:9068   .debug_str:00000000000012af .LASF174
     /tmp/cceDUpe5.s:8554   .debug_str:00000000000000f0 .LASF176
     /tmp/cceDUpe5.s:8770   .debug_str:000000000000088f .LASF177
     /tmp/cceDUpe5.s:8594   .debug_str:0000000000000253 .LASF178
     /tmp/cceDUpe5.s:8662   .debug_str:000000000000044a .LASF179
     /tmp/cceDUpe5.s:8588   .debug_str:000000000000021b .LASF180
     /tmp/cceDUpe5.s:8564   .debug_str:0000000000000151 .LASF181
     /tmp/cceDUpe5.s:9092   .debug_str:000000000000139e .LASF182
     /tmp/cceDUpe5.s:8826   .debug_str:0000000000000a66 .LASF183
     /tmp/cceDUpe5.s:9112   .debug_str:000000000000142a .LASF184
     /tmp/cceDUpe5.s:8762   .debug_str:0000000000000831 .LASF185
     /tmp/cceDUpe5.s:8788   .debug_str:0000000000000910 .LASF186
     /tmp/cceDUpe5.s:9138   .debug_str:00000000000014ee .LASF187
     /tmp/cceDUpe5.s:8690   .debug_str:0000000000000511 .LASF188
     /tmp/cceDUpe5.s:9104   .debug_str:00000000000013f2 .LASF189
     /tmp/cceDUpe5.s:8702   .debug_str:0000000000000569 .LASF190
     /tmp/cceDUpe5.s:9124   .debug_str:0000000000001495 .LASF191
     /tmp/cceDUpe5.s:8726   .debug_str:0000000000000715 .LASF192
     /tmp/cceDUpe5.s:8556   .debug_str:0000000000000112 .LASF193
     /tmp/cceDUpe5.s:8792   .debug_str:000000000000092d .LASF194
     /tmp/cceDUpe5.s:8860   .debug_str:0000000000000bd3 .LASF195
     /tmp/cceDUpe5.s:8566   .debug_str:000000000000016c .LASF196
GAS LISTING /tmp/cceDUpe5.s 			page 89


     /tmp/cceDUpe5.s:9034   .debug_str:000000000000115f .LASF197
     /tmp/cceDUpe5.s:8568   .debug_str:0000000000000188 .LASF198
     /tmp/cceDUpe5.s:9008   .debug_str:00000000000010bd .LASF199
     /tmp/cceDUpe5.s:8928   .debug_str:0000000000000dfd .LASF200
     /tmp/cceDUpe5.s:8544   .debug_str:0000000000000095 .LASF201
     /tmp/cceDUpe5.s:8850   .debug_str:0000000000000b36 .LASF202
     /tmp/cceDUpe5.s:8666   .debug_str:0000000000000473 .LASF203
     /tmp/cceDUpe5.s:8764   .debug_str:000000000000085a .LASF204
     /tmp/cceDUpe5.s:8834   .debug_str:0000000000000aa4 .LASF205
     /tmp/cceDUpe5.s:8908   .debug_str:0000000000000d41 .LASF206
     /tmp/cceDUpe5.s:8892   .debug_str:0000000000000cae .LASF207
     /tmp/cceDUpe5.s:8766   .debug_str:000000000000086b .LASF208
     /tmp/cceDUpe5.s:9106   .debug_str:0000000000001404 .LASF209
     /tmp/cceDUpe5.s:9130   .debug_str:00000000000014b6 .LASF210
     /tmp/cceDUpe5.s:9140   .debug_str:0000000000001517 .LASF212
     /tmp/cceDUpe5.s:2619   .text:0000000000001014 .LFB36
     /tmp/cceDUpe5.s:2698   .text:0000000000001090 .LFE36
     /tmp/cceDUpe5.s:8738   .debug_str:0000000000000780 .LASF214
     /tmp/cceDUpe5.s:7241   .debug_loc:0000000000000000 .LLST82
     /tmp/cceDUpe5.s:2677   .text:0000000000001070 .LVL272
     /tmp/cceDUpe5.s:2684   .text:0000000000001084 .LVL273
     /tmp/cceDUpe5.s:8976   .debug_str:0000000000000f95 .LASF211
     /tmp/cceDUpe5.s:9088   .debug_str:0000000000001356 .LASF213
     /tmp/cceDUpe5.s:2566   .text:0000000000000fdc .LFB35
     /tmp/cceDUpe5.s:2605   .text:0000000000001014 .LFE35
     /tmp/cceDUpe5.s:7274   .debug_loc:0000000000000088 .LLST80
     /tmp/cceDUpe5.s:8960   .debug_str:0000000000000f09 .LASF215
     /tmp/cceDUpe5.s:7305   .debug_loc:00000000000000ff .LLST81
     /tmp/cceDUpe5.s:2586   .text:0000000000000ffc .LVL265
     /tmp/cceDUpe5.s:8668   .debug_str:000000000000047a .LASF216
     /tmp/cceDUpe5.s:9146   .debug_str:0000000000001558 .LASF218
     /tmp/cceDUpe5.s:2509   .text:0000000000000f74 .LFB34
     /tmp/cceDUpe5.s:2560   .text:0000000000000fdc .LFE34
     /tmp/cceDUpe5.s:7312   .debug_loc:0000000000000122 .LLST79
     /tmp/cceDUpe5.s:2529   .text:0000000000000f98 .LVL258
     /tmp/cceDUpe5.s:2534   .text:0000000000000fa4 .LVL259
     /tmp/cceDUpe5.s:2539   .text:0000000000000fb0 .LVL260
     /tmp/cceDUpe5.s:2546   .text:0000000000000fc8 .LVL261
     /tmp/cceDUpe5.s:8698   .debug_str:0000000000000557 .LASF217
     /tmp/cceDUpe5.s:8782   .debug_str:00000000000008f2 .LASF219
     /tmp/cceDUpe5.s:2426   .text:0000000000000eec .LFB33
     /tmp/cceDUpe5.s:2503   .text:0000000000000f74 .LFE33
     /tmp/cceDUpe5.s:8796   .debug_str:000000000000095f .LASF220
     /tmp/cceDUpe5.s:7330   .debug_loc:000000000000016e .LLST76
     /tmp/cceDUpe5.s:8878   .debug_str:0000000000000c3e .LASF221
     /tmp/cceDUpe5.s:7352   .debug_loc:00000000000001cd .LLST77
     /tmp/cceDUpe5.s:8500   .debug_ranges:0000000000000000 .Ldebug_ranges0
     /tmp/cceDUpe5.s:7363   .debug_loc:0000000000000203 .LLST78
     /tmp/cceDUpe5.s:2467   .text:0000000000000f3c .LVL250
     /tmp/cceDUpe5.s:2482   .text:0000000000000f58 .LVL252
     /tmp/cceDUpe5.s:9108   .debug_str:0000000000001412 .LASF222
     /tmp/cceDUpe5.s:8934   .debug_str:0000000000000e2d .LASF223
     /tmp/cceDUpe5.s:2303   .text:0000000000000de8 .LFB32
     /tmp/cceDUpe5.s:2420   .text:0000000000000eec .LFE32
     /tmp/cceDUpe5.s:8636   .debug_str:00000000000003ca .LASF224
     /tmp/cceDUpe5.s:7370   .debug_loc:0000000000000226 .LLST73
     /tmp/cceDUpe5.s:8660   .debug_str:0000000000000444 .LASF225
GAS LISTING /tmp/cceDUpe5.s 			page 90


     /tmp/cceDUpe5.s:7392   .debug_loc:0000000000000285 .LLST74
     /tmp/cceDUpe5.s:8580   .debug_str:00000000000001eb .LASF226
     /tmp/cceDUpe5.s:7399   .debug_loc:00000000000002a8 .LLST75
     /tmp/cceDUpe5.s:2324   .text:0000000000000e0c .LVL236
     /tmp/cceDUpe5.s:2365   .text:0000000000000e68 .LVL241
     /tmp/cceDUpe5.s:2393   .text:0000000000000e98 .LVL244
     /tmp/cceDUpe5.s:2409   .text:0000000000000ec4 .LVL245
     /tmp/cceDUpe5.s:2417   .text:0000000000000ee8 .LVL246
     /tmp/cceDUpe5.s:9024   .debug_str:00000000000010f8 .LASF227
     /tmp/cceDUpe5.s:8918   .debug_str:0000000000000d9e .LASF228
     /tmp/cceDUpe5.s:1997   .text:0000000000000b90 .LFB31
     /tmp/cceDUpe5.s:2161   .text:0000000000000cec .LFE31
     /tmp/cceDUpe5.s:7410   .debug_loc:00000000000002de .LLST70
     /tmp/cceDUpe5.s:7432   .debug_loc:000000000000033d .LLST71
     /tmp/cceDUpe5.s:2022   .text:0000000000000bc0 .LVL199
     /tmp/cceDUpe5.s:2027   .text:0000000000000bd0 .LVL200
     /tmp/cceDUpe5.s:2032   .text:0000000000000be0 .LVL201
     /tmp/cceDUpe5.s:2037   .text:0000000000000bec .LVL202
     /tmp/cceDUpe5.s:2042   .text:0000000000000bfc .LVL203
     /tmp/cceDUpe5.s:2049   .text:0000000000000c14 .LVL204
     /tmp/cceDUpe5.s:2056   .text:0000000000000c2c .LVL205
     /tmp/cceDUpe5.s:2061   .text:0000000000000c3c .LVL206
     /tmp/cceDUpe5.s:2066   .text:0000000000000c4c .LVL207
     /tmp/cceDUpe5.s:2079   .text:0000000000000c60 .LVL209
     /tmp/cceDUpe5.s:2091   .text:0000000000000c78 .LVL211
     /tmp/cceDUpe5.s:2104   .text:0000000000000c8c .LVL213
     /tmp/cceDUpe5.s:2116   .text:0000000000000ca4 .LVL215
     /tmp/cceDUpe5.s:2129   .text:0000000000000cb8 .LVL217
     /tmp/cceDUpe5.s:2141   .text:0000000000000cd0 .LVL219
     /tmp/cceDUpe5.s:8592   .debug_str:0000000000000243 .LASF229
     /tmp/cceDUpe5.s:8914   .debug_str:0000000000000d6e .LASF230
     /tmp/cceDUpe5.s:1911   .text:0000000000000b40 .LFB30
     /tmp/cceDUpe5.s:1959   .text:0000000000000b90 .LFE30
     /tmp/cceDUpe5.s:7439   .debug_loc:0000000000000360 .LLST67
     /tmp/cceDUpe5.s:7457   .debug_loc:00000000000003ac .LLST68
     /tmp/cceDUpe5.s:7479   .debug_loc:000000000000040b .LLST69
     /tmp/cceDUpe5.s:1934   .text:0000000000000b68 .LVL193
     /tmp/cceDUpe5.s:1941   .text:0000000000000b78 .LVL194
     /tmp/cceDUpe5.s:8634   .debug_str:00000000000003b9 .LASF231
     /tmp/cceDUpe5.s:8740   .debug_str:0000000000000787 .LASF232
     /tmp/cceDUpe5.s:1632   .text:0000000000000964 .LFB29
     /tmp/cceDUpe5.s:1821   .text:0000000000000a9c .LFE29
     /tmp/cceDUpe5.s:7486   .debug_loc:000000000000042e .LLST58
     /tmp/cceDUpe5.s:8678   .debug_str:00000000000004c1 .LASF233
     /tmp/cceDUpe5.s:7508   .debug_loc:000000000000048d .LLST61
     /tmp/cceDUpe5.s:1709   .text:00000000000009e4 .LVL163
     /tmp/cceDUpe5.s:1717   .text:00000000000009f4 .LVL166
     /tmp/cceDUpe5.s:1749   .text:0000000000000a20 .LVL170
     /tmp/cceDUpe5.s:1666   .text:0000000000000994 .LBB16
     /tmp/cceDUpe5.s:1703   .text:00000000000009dc .LBE16
     /tmp/cceDUpe5.s:7523   .debug_loc:00000000000004d6 .LLST59
     /tmp/cceDUpe5.s:1670   .text:000000000000099c .LVL155
     /tmp/cceDUpe5.s:1678   .text:00000000000009ac .LVL158
     /tmp/cceDUpe5.s:1685   .text:00000000000009bc .LVL159
     /tmp/cceDUpe5.s:1690   .text:00000000000009c8 .LVL160
     /tmp/cceDUpe5.s:1697   .text:00000000000009d8 .LVL161
     /tmp/cceDUpe5.s:1757   .text:0000000000000a24 .LBB17
GAS LISTING /tmp/cceDUpe5.s 			page 91


     /tmp/cceDUpe5.s:1814   .text:0000000000000a94 .LBE17
     /tmp/cceDUpe5.s:7534   .debug_loc:000000000000050c .LLST60
     /tmp/cceDUpe5.s:1762   .text:0000000000000a30 .LVL172
     /tmp/cceDUpe5.s:1772   .text:0000000000000a44 .LVL173
     /tmp/cceDUpe5.s:1780   .text:0000000000000a54 .LVL176
     /tmp/cceDUpe5.s:1787   .text:0000000000000a64 .LVL177
     /tmp/cceDUpe5.s:1792   .text:0000000000000a70 .LVL178
     /tmp/cceDUpe5.s:1799   .text:0000000000000a80 .LVL179
     /tmp/cceDUpe5.s:8922   .debug_str:0000000000000dd4 .LASF234
     /tmp/cceDUpe5.s:9086   .debug_str:0000000000001333 .LASF235
     /tmp/cceDUpe5.s:1827   .text:0000000000000a9c .LFB28
     /tmp/cceDUpe5.s:1905   .text:0000000000000b40 .LFE28
     /tmp/cceDUpe5.s:8786   .debug_str:000000000000090b .LASF236
     /tmp/cceDUpe5.s:7545   .debug_loc:0000000000000542 .LLST62
     /tmp/cceDUpe5.s:7563   .debug_loc:000000000000058e .LLST63
     /tmp/cceDUpe5.s:7581   .debug_loc:00000000000005da .LLST64
     /tmp/cceDUpe5.s:7599   .debug_loc:0000000000000626 .LLST65
     /tmp/cceDUpe5.s:8990   .debug_str:0000000000001009 .LASF237
     /tmp/cceDUpe5.s:7617   .debug_loc:0000000000000672 .LLST66
     /tmp/cceDUpe5.s:1859   .text:0000000000000ae4 .LVL183
     /tmp/cceDUpe5.s:1868   .text:0000000000000af8 .LVL185
     /tmp/cceDUpe5.s:1876   .text:0000000000000b18 .LVL186
     /tmp/cceDUpe5.s:8926   .debug_str:0000000000000df3 .LASF238
     /tmp/cceDUpe5.s:9110   .debug_str:000000000000141a .LASF239
     /tmp/cceDUpe5.s:1594   .text:000000000000092c .LFB27
     /tmp/cceDUpe5.s:1626   .text:0000000000000964 .LFE27
     /tmp/cceDUpe5.s:8578   .debug_str:00000000000001e5 .LASF240
     /tmp/cceDUpe5.s:7628   .debug_loc:00000000000006a8 .LLST55
     /tmp/cceDUpe5.s:9152   .debug_str:00000000000015a3 .LASF241
     /tmp/cceDUpe5.s:7642   .debug_loc:00000000000006e1 .LLST56
     /tmp/cceDUpe5.s:7656   .debug_loc:000000000000071a .LLST57
     /tmp/cceDUpe5.s:1609   .text:0000000000000944 .LVL151
     /tmp/cceDUpe5.s:1613   .text:000000000000094c .LVL152
     /tmp/cceDUpe5.s:8800   .debug_str:000000000000097c .LASF242
     /tmp/cceDUpe5.s:8628   .debug_str:0000000000000367 .LASF243
     /tmp/cceDUpe5.s:2187   .text:0000000000000cec .LFB26
     /tmp/cceDUpe5.s:2292   .text:0000000000000de8 .LFE26
     /tmp/cceDUpe5.s:2245   .text:0000000000000d8c .LBB23
     /tmp/cceDUpe5.s:2273   .text:0000000000000dc4 .LBE23
     /tmp/cceDUpe5.s:7663   .debug_loc:000000000000073d .LLST72
     /tmp/cceDUpe5.s:2254   .text:0000000000000d9c .LVL231
     /tmp/cceDUpe5.s:2204   .text:0000000000000d10 .LVL223
     /tmp/cceDUpe5.s:2209   .text:0000000000000d20 .LVL224
     /tmp/cceDUpe5.s:2219   .text:0000000000000d44 .LVL225
     /tmp/cceDUpe5.s:2226   .text:0000000000000d5c .LVL226
     /tmp/cceDUpe5.s:2231   .text:0000000000000d6c .LVL227
     /tmp/cceDUpe5.s:2238   .text:0000000000000d7c .LVL228
     /tmp/cceDUpe5.s:2243   .text:0000000000000d8c .LVL229
     /tmp/cceDUpe5.s:2278   .text:0000000000000dd4 .LVL233
     /tmp/cceDUpe5.s:8728   .debug_str:0000000000000726 .LASF244
     /tmp/cceDUpe5.s:8848   .debug_str:0000000000000b16 .LASF245
     /tmp/cceDUpe5.s:1412   .text:00000000000007f4 .LFB25
     /tmp/cceDUpe5.s:1588   .text:000000000000092c .LFE25
     /tmp/cceDUpe5.s:7675   .debug_loc:0000000000000774 .LLST51
     /tmp/cceDUpe5.s:7701   .debug_loc:00000000000007e6 .LLST52
     /tmp/cceDUpe5.s:9098   .debug_str:00000000000013c3 .LASF246
     /tmp/cceDUpe5.s:7727   .debug_loc:0000000000000858 .LLST53
GAS LISTING /tmp/cceDUpe5.s 			page 92


     /tmp/cceDUpe5.s:7738   .debug_loc:000000000000088e .LLST54
     /tmp/cceDUpe5.s:1465   .text:0000000000000858 .LVL136
     /tmp/cceDUpe5.s:1479   .text:000000000000086c .LVL138
     /tmp/cceDUpe5.s:1490   .text:000000000000087c .LVL139
     /tmp/cceDUpe5.s:1497   .text:000000000000088c .LVL140
     /tmp/cceDUpe5.s:1542   .text:00000000000008d8 .LVL145
     /tmp/cceDUpe5.s:1553   .text:00000000000008f0 .LVL146
     /tmp/cceDUpe5.s:1561   .text:0000000000000904 .LVL147
     /tmp/cceDUpe5.s:1569   .text:0000000000000918 .LVL148
     /tmp/cceDUpe5.s:8560   .debug_str:0000000000000130 .LASF247
     /tmp/cceDUpe5.s:9074   .debug_str:00000000000012e3 .LASF248
     /tmp/cceDUpe5.s:1351   .text:0000000000000770 .LFB24
     /tmp/cceDUpe5.s:1406   .text:00000000000007f4 .LFE24
     /tmp/cceDUpe5.s:7749   .debug_loc:00000000000008c4 .LLST50
     /tmp/cceDUpe5.s:1371   .text:0000000000000798 .LVL128
     /tmp/cceDUpe5.s:1378   .text:00000000000007b0 .LVL129
     /tmp/cceDUpe5.s:1385   .text:00000000000007c8 .LVL130
     /tmp/cceDUpe5.s:1392   .text:00000000000007e0 .LVL131
     /tmp/cceDUpe5.s:8992   .debug_str:0000000000001012 .LASF249
     /tmp/cceDUpe5.s:8724   .debug_str:00000000000006f4 .LASF250
     /tmp/cceDUpe5.s:1290   .text:0000000000000724 .LFB23
     /tmp/cceDUpe5.s:1331   .text:0000000000000770 .LFE23
     /tmp/cceDUpe5.s:7767   .debug_loc:0000000000000910 .LLST48
     /tmp/cceDUpe5.s:7781   .debug_loc:0000000000000949 .LLST49
     /tmp/cceDUpe5.s:9100   .debug_str:00000000000013d1 .LASF251
     /tmp/cceDUpe5.s:9054   .debug_str:000000000000121a .LASF254
     /tmp/cceDUpe5.s:1174   .text:0000000000000694 .LFB22
     /tmp/cceDUpe5.s:1284   .text:0000000000000724 .LFE22
     /tmp/cceDUpe5.s:7795   .debug_loc:0000000000000982 .LLST44
     /tmp/cceDUpe5.s:7814   .debug_loc:00000000000009de .LLST45
     /tmp/cceDUpe5.s:8602   .debug_str:00000000000002d8 .LASF252
     /tmp/cceDUpe5.s:7825   .debug_loc:0000000000000a14 .LLST46
     /tmp/cceDUpe5.s:7836   .debug_loc:0000000000000a4a .LLST47
     /tmp/cceDUpe5.s:8920   .debug_str:0000000000000dc1 .LASF253
     /tmp/cceDUpe5.s:9102   .debug_str:00000000000013da .LASF255
     /tmp/cceDUpe5.s:1082   .text:000000000000062c .LFB21
     /tmp/cceDUpe5.s:1168   .text:0000000000000694 .LFE21
     /tmp/cceDUpe5.s:7847   .debug_loc:0000000000000a80 .LLST38
     /tmp/cceDUpe5.s:8646   .debug_str:0000000000000406 .LASF256
     /tmp/cceDUpe5.s:7861   .debug_loc:0000000000000ab9 .LLST39
     /tmp/cceDUpe5.s:8674   .debug_str:00000000000004ae .LASF257
     /tmp/cceDUpe5.s:7878   .debug_loc:0000000000000b05 .LLST40
     /tmp/cceDUpe5.s:9040   .debug_str:0000000000001188 .LASF258
     /tmp/cceDUpe5.s:8808   .debug_str:00000000000009c4 .LASF259
     /tmp/cceDUpe5.s:1120   .text:0000000000000654 .LBB8
     /tmp/cceDUpe5.s:1156   .text:0000000000000684 .LBE8
     /tmp/cceDUpe5.s:7889   .debug_loc:0000000000000b3b .LLST41
     /tmp/cceDUpe5.s:1133   .text:0000000000000668 .LBB9
     /tmp/cceDUpe5.s:1155   .text:0000000000000684 .LBE9
     /tmp/cceDUpe5.s:8888   .debug_str:0000000000000c83 .LASF260
     /tmp/cceDUpe5.s:7901   .debug_loc:0000000000000b72 .LLST42
     /tmp/cceDUpe5.s:8648   .debug_str:000000000000040f .LASF261
     /tmp/cceDUpe5.s:7912   .debug_loc:0000000000000ba8 .LLST43
     /tmp/cceDUpe5.s:8732   .debug_str:0000000000000759 .LASF262
     /tmp/cceDUpe5.s:8552   .debug_str:00000000000000d0 .LASF266
     /tmp/cceDUpe5.s:925    .text:0000000000000540 .LFB20
     /tmp/cceDUpe5.s:1076   .text:000000000000062c .LFE20
GAS LISTING /tmp/cceDUpe5.s 			page 93


     /tmp/cceDUpe5.s:7923   .debug_loc:0000000000000bde .LLST33
     /tmp/cceDUpe5.s:8870   .debug_str:0000000000000c04 .LASF263
     /tmp/cceDUpe5.s:7941   .debug_loc:0000000000000c2a .LLST34
     /tmp/cceDUpe5.s:8614   .debug_str:0000000000000318 .LASF264
     /tmp/cceDUpe5.s:7952   .debug_loc:0000000000000c60 .LLST35
     /tmp/cceDUpe5.s:998    .text:00000000000005b8 .LBB5
     /tmp/cceDUpe5.s:1019   .text:00000000000005d8 .LBE5
     /tmp/cceDUpe5.s:7977   .debug_loc:0000000000000cb4 .LLST36
     /tmp/cceDUpe5.s:1026   .text:00000000000005e0 .LBB7
     /tmp/cceDUpe5.s:1057   .text:0000000000000610 .LBE7
     /tmp/cceDUpe5.s:7989   .debug_loc:0000000000000ceb .LLST37
     /tmp/cceDUpe5.s:951    .text:0000000000000578 .LVL84
     /tmp/cceDUpe5.s:8900   .debug_str:0000000000000cde .LASF265
     /tmp/cceDUpe5.s:8822   .debug_str:0000000000000a1b .LASF267
     /tmp/cceDUpe5.s:871    .text:00000000000004e8 .LFB19
     /tmp/cceDUpe5.s:919    .text:0000000000000540 .LFE19
     /tmp/cceDUpe5.s:7996   .debug_loc:0000000000000d0e .LLST31
     /tmp/cceDUpe5.s:8014   .debug_loc:0000000000000d5a .LLST32
     /tmp/cceDUpe5.s:896    .text:0000000000000518 .LVL78
     /tmp/cceDUpe5.s:902    .text:0000000000000528 .LVL79
     /tmp/cceDUpe5.s:8654   .debug_str:0000000000000426 .LASF268
     /tmp/cceDUpe5.s:9062   .debug_str:0000000000001267 .LASF269
     /tmp/cceDUpe5.s:817    .text:0000000000000490 .LFB18
     /tmp/cceDUpe5.s:865    .text:00000000000004e8 .LFE18
     /tmp/cceDUpe5.s:8032   .debug_loc:0000000000000da6 .LLST29
     /tmp/cceDUpe5.s:8050   .debug_loc:0000000000000df2 .LLST30
     /tmp/cceDUpe5.s:842    .text:00000000000004c0 .LVL71
     /tmp/cceDUpe5.s:848    .text:00000000000004d0 .LVL72
     /tmp/cceDUpe5.s:8756   .debug_str:0000000000000800 .LASF270
     /tmp/cceDUpe5.s:8598   .debug_str:0000000000000287 .LASF271
     /tmp/cceDUpe5.s:761    .text:0000000000000438 .LFB17
     /tmp/cceDUpe5.s:811    .text:0000000000000490 .LFE17
     /tmp/cceDUpe5.s:8068   .debug_loc:0000000000000e3e .LLST27
     /tmp/cceDUpe5.s:8086   .debug_loc:0000000000000e8a .LLST28
     /tmp/cceDUpe5.s:788    .text:0000000000000468 .LVL64
     /tmp/cceDUpe5.s:794    .text:0000000000000478 .LVL65
     /tmp/cceDUpe5.s:8576   .debug_str:00000000000001d4 .LASF272
     /tmp/cceDUpe5.s:8532   .debug_str:000000000000001b .LASF273
     /tmp/cceDUpe5.s:705    .text:00000000000003e0 .LFB16
     /tmp/cceDUpe5.s:755    .text:0000000000000438 .LFE16
     /tmp/cceDUpe5.s:8093   .debug_loc:0000000000000ead .LLST25
     /tmp/cceDUpe5.s:8111   .debug_loc:0000000000000ef9 .LLST26
     /tmp/cceDUpe5.s:732    .text:0000000000000410 .LVL57
     /tmp/cceDUpe5.s:738    .text:0000000000000420 .LVL58
     /tmp/cceDUpe5.s:8546   .debug_str:00000000000000ab .LASF274
     /tmp/cceDUpe5.s:9090   .debug_str:000000000000137b .LASF275
     /tmp/cceDUpe5.s:634    .text:0000000000000384 .LFB15
     /tmp/cceDUpe5.s:699    .text:00000000000003e0 .LFE15
     /tmp/cceDUpe5.s:8752   .debug_str:00000000000007ef .LASF276
     /tmp/cceDUpe5.s:8742   .debug_str:00000000000007ab .LASF277
     /tmp/cceDUpe5.s:9032   .debug_str:000000000000113c .LASF278
     /tmp/cceDUpe5.s:590    .text:0000000000000350 .LFB14
     /tmp/cceDUpe5.s:628    .text:0000000000000384 .LFE14
     /tmp/cceDUpe5.s:8622   .debug_str:0000000000000341 .LASF279
     /tmp/cceDUpe5.s:8716   .debug_str:00000000000006a1 .LASF280
     /tmp/cceDUpe5.s:561    .text:0000000000000330 .LFB13
     /tmp/cceDUpe5.s:584    .text:0000000000000350 .LFE13
GAS LISTING /tmp/cceDUpe5.s 			page 94


     /tmp/cceDUpe5.s:8118   .debug_loc:0000000000000f1c .LLST24
     /tmp/cceDUpe5.s:9132   .debug_str:00000000000014c7 .LASF281
     /tmp/cceDUpe5.s:8624   .debug_str:0000000000000347 .LASF282
     /tmp/cceDUpe5.s:529    .text:0000000000000308 .LFB12
     /tmp/cceDUpe5.s:555    .text:0000000000000330 .LFE12
     /tmp/cceDUpe5.s:8132   .debug_loc:0000000000000f55 .LLST23
     /tmp/cceDUpe5.s:8814   .debug_str:00000000000009d8 .LASF283
     /tmp/cceDUpe5.s:9050   .debug_str:00000000000011e0 .LASF284
     /tmp/cceDUpe5.s:411    .text:0000000000000250 .LFB11
     /tmp/cceDUpe5.s:523    .text:0000000000000308 .LFE11
     /tmp/cceDUpe5.s:8146   .debug_loc:0000000000000f8e .LLST19
     /tmp/cceDUpe5.s:8168   .debug_loc:0000000000000fed .LLST20
     /tmp/cceDUpe5.s:8590   .debug_str:000000000000023e .LASF285
     /tmp/cceDUpe5.s:8179   .debug_loc:0000000000001023 .LLST21
     /tmp/cceDUpe5.s:432    .text:0000000000000274 .LBB4
     /tmp/cceDUpe5.s:473    .text:00000000000002b8 .LBE4
     /tmp/cceDUpe5.s:8190   .debug_loc:0000000000001059 .LLST22
     /tmp/cceDUpe5.s:448    .text:0000000000000294 .LVL37
     /tmp/cceDUpe5.s:488    .text:00000000000002d4 .LVL44
     /tmp/cceDUpe5.s:8974   .debug_str:0000000000000f83 .LASF286
     /tmp/cceDUpe5.s:9052   .debug_str:00000000000011fb .LASF287
     /tmp/cceDUpe5.s:365    .text:0000000000000208 .LFB10
     /tmp/cceDUpe5.s:405    .text:0000000000000250 .LFE10
     /tmp/cceDUpe5.s:8201   .debug_loc:000000000000108f .LLST17
     /tmp/cceDUpe5.s:8215   .debug_loc:00000000000010c8 .LLST18
     /tmp/cceDUpe5.s:9046   .debug_str:00000000000011b0 .LASF288
     /tmp/cceDUpe5.s:8956   .debug_str:0000000000000edd .LASF289
     /tmp/cceDUpe5.s:323    .text:00000000000001c8 .LFB9
     /tmp/cceDUpe5.s:359    .text:0000000000000208 .LFE9
     /tmp/cceDUpe5.s:8229   .debug_loc:0000000000001101 .LLST15
     /tmp/cceDUpe5.s:8243   .debug_loc:000000000000113a .LLST16
     /tmp/cceDUpe5.s:8820   .debug_str:0000000000000a07 .LASF290
     /tmp/cceDUpe5.s:8720   .debug_str:00000000000006c0 .LASF291
     /tmp/cceDUpe5.s:248    .text:0000000000000150 .LFB8
     /tmp/cceDUpe5.s:317    .text:00000000000001c8 .LFE8
     /tmp/cceDUpe5.s:8257   .debug_loc:0000000000001173 .LLST12
     /tmp/cceDUpe5.s:9044   .debug_str:000000000000119d .LASF292
     /tmp/cceDUpe5.s:8282   .debug_loc:00000000000011d8 .LLST13
     /tmp/cceDUpe5.s:271    .text:000000000000016c .LBB3
     /tmp/cceDUpe5.s:289    .text:000000000000018c .LBE3
     /tmp/cceDUpe5.s:8293   .debug_loc:000000000000120e .LLST14
     /tmp/cceDUpe5.s:301    .text:00000000000001b0 .LVL27
     /tmp/cceDUpe5.s:9016   .debug_str:00000000000010d7 .LASF293
     /tmp/cceDUpe5.s:8854   .debug_str:0000000000000b61 .LASF294
     /tmp/cceDUpe5.s:155    .text:00000000000000c4 .LFB7
     /tmp/cceDUpe5.s:237    .text:0000000000000150 .LFE7
     /tmp/cceDUpe5.s:8305   .debug_loc:0000000000001245 .LLST6
     /tmp/cceDUpe5.s:8872   .debug_str:0000000000000c0c .LASF295
     /tmp/cceDUpe5.s:8323   .debug_loc:0000000000001291 .LLST7
     /tmp/cceDUpe5.s:8341   .debug_loc:00000000000012dd .LLST8
     /tmp/cceDUpe5.s:8360   .debug_loc:000000000000132a .LLST9
     /tmp/cceDUpe5.s:8379   .debug_loc:0000000000001377 .LLST10
     /tmp/cceDUpe5.s:8398   .debug_loc:00000000000013c4 .LLST11
     /tmp/cceDUpe5.s:189    .text:000000000000010c .LVL14
     /tmp/cceDUpe5.s:9036   .debug_str:0000000000001166 .LASF296
     /tmp/cceDUpe5.s:8704   .debug_str:0000000000000576 .LASF297
     /tmp/cceDUpe5.s:59     .text:0000000000000034 .LFB6
GAS LISTING /tmp/cceDUpe5.s 			page 95


     /tmp/cceDUpe5.s:149    .text:00000000000000c4 .LFE6
     /tmp/cceDUpe5.s:8417   .debug_loc:0000000000001411 .LLST2
     /tmp/cceDUpe5.s:8439   .debug_loc:0000000000001470 .LLST3
     /tmp/cceDUpe5.s:8446   .debug_loc:0000000000001493 .LLST4
     /tmp/cceDUpe5.s:102    .text:0000000000000074 .LBB2
     /tmp/cceDUpe5.s:121    .text:0000000000000098 .LBE2
     /tmp/cceDUpe5.s:9066   .debug_str:00000000000012a6 .LASF298
     /tmp/cceDUpe5.s:8458   .debug_loc:00000000000014ca .LLST5
     /tmp/cceDUpe5.s:113    .text:0000000000000090 .LVL7
     /tmp/cceDUpe5.s:9076   .debug_str:00000000000012fd .LASF299
     /tmp/cceDUpe5.s:8642   .debug_str:00000000000003e7 .LASF300
     /tmp/cceDUpe5.s:10     .text:0000000000000000 .LFB5
     /tmp/cceDUpe5.s:53     .text:0000000000000034 .LFE5
     /tmp/cceDUpe5.s:8465   .debug_loc:00000000000014ed .LLST0
     /tmp/cceDUpe5.s:8476   .debug_loc:0000000000001523 .LLST1
     /tmp/cceDUpe5.s:8904   .debug_str:0000000000000d13 .LASF301
     /tmp/cceDUpe5.s:8574   .debug_str:00000000000001c8 .LASF303
     /tmp/cceDUpe5.s:8558   .debug_str:000000000000011e .LASF302
     /tmp/cceDUpe5.s:8604   .debug_str:00000000000002e0 .LASF304
     /tmp/cceDUpe5.s:9030   .debug_str:000000000000111a .LASF305
     /tmp/cceDUpe5.s:8968   .debug_str:0000000000000f4d .LASF306
     /tmp/cceDUpe5.s:8890   .debug_str:0000000000000c8b .LASF307
     /tmp/cceDUpe5.s:8640   .debug_str:00000000000003dc .LASF308
     /tmp/cceDUpe5.s:2622   .text:0000000000001014 .LVL268
     /tmp/cceDUpe5.s:2644   .text:000000000000103c .LVL269
     /tmp/cceDUpe5.s:2666   .text:0000000000001058 .LVL270
     /tmp/cceDUpe5.s:2670   .text:0000000000001060 .LVL271
     /tmp/cceDUpe5.s:2686   .text:0000000000001088 .LVL274
     /tmp/cceDUpe5.s:2694   .text:000000000000108c .LVL275
     /tmp/cceDUpe5.s:2569   .text:0000000000000fdc .LVL263
     /tmp/cceDUpe5.s:2584   .text:0000000000000ff4 .LVL264
     /tmp/cceDUpe5.s:2597   .text:000000000000100c .LVL266
     /tmp/cceDUpe5.s:2601   .text:0000000000001010 .LVL267
     /tmp/cceDUpe5.s:2512   .text:0000000000000f74 .LVL256
     /tmp/cceDUpe5.s:2527   .text:0000000000000f90 .LVL257
     /tmp/cceDUpe5.s:2555   .text:0000000000000fd4 .LVL262
     /tmp/cceDUpe5.s:2429   .text:0000000000000eec .LVL247
     /tmp/cceDUpe5.s:2452   .text:0000000000000f14 .LVL248
     /tmp/cceDUpe5.s:2495   .text:0000000000000f68 .LVL254
     /tmp/cceDUpe5.s:2499   .text:0000000000000f70 .LVL255
     /tmp/cceDUpe5.s:2465   .text:0000000000000f34 .LVL249
     /tmp/cceDUpe5.s:2492   .text:0000000000000f64 .LVL253
     /tmp/cceDUpe5.s:2306   .text:0000000000000de8 .LVL235
     /tmp/cceDUpe5.s:2343   .text:0000000000000e30 .LVL238
     /tmp/cceDUpe5.s:2367   .text:0000000000000e6c .LVL242
     /tmp/cceDUpe5.s:2386   .text:0000000000000e8c .LVL243
     /tmp/cceDUpe5.s:2337   .text:0000000000000e28 .LVL237
     /tmp/cceDUpe5.s:2347   .text:0000000000000e34 .LVL239
     /tmp/cceDUpe5.s:2361   .text:0000000000000e58 .LVL240
     /tmp/cceDUpe5.s:2000   .text:0000000000000b90 .LVL197
     /tmp/cceDUpe5.s:2020   .text:0000000000000bb8 .LVL198
     /tmp/cceDUpe5.s:2153   .text:0000000000000ce0 .LVL221
     /tmp/cceDUpe5.s:2157   .text:0000000000000ce8 .LVL222
     /tmp/cceDUpe5.s:2070   .text:0000000000000c50 .LVL208
     /tmp/cceDUpe5.s:2150   .text:0000000000000cdc .LVL220
     /tmp/cceDUpe5.s:1914   .text:0000000000000b40 .LVL192
     /tmp/cceDUpe5.s:1955   .text:0000000000000b8c .LVL196
GAS LISTING /tmp/cceDUpe5.s 			page 96


     /tmp/cceDUpe5.s:1951   .text:0000000000000b84 .LVL195
     /tmp/cceDUpe5.s:1635   .text:0000000000000964 .LVL153
     /tmp/cceDUpe5.s:1655   .text:0000000000000988 .LVL154
     /tmp/cceDUpe5.s:1734   .text:0000000000000a08 .LVL168
     /tmp/cceDUpe5.s:1740   .text:0000000000000a14 .LVL169
     /tmp/cceDUpe5.s:1711   .text:00000000000009e8 .LVL164
     /tmp/cceDUpe5.s:1715   .text:00000000000009ec .LVL165
     /tmp/cceDUpe5.s:1720   .text:00000000000009f8 .LVL167
     /tmp/cceDUpe5.s:1753   .text:0000000000000a24 .LVL171
     /tmp/cceDUpe5.s:1672   .text:00000000000009a0 .LVL156
     /tmp/cceDUpe5.s:1676   .text:00000000000009a4 .LVL157
     /tmp/cceDUpe5.s:1701   .text:00000000000009dc .LVL162
     /tmp/cceDUpe5.s:1774   .text:0000000000000a48 .LVL174
     /tmp/cceDUpe5.s:1778   .text:0000000000000a4c .LVL175
     /tmp/cceDUpe5.s:1803   .text:0000000000000a84 .LVL180
     /tmp/cceDUpe5.s:1830   .text:0000000000000a9c .LVL181
     /tmp/cceDUpe5.s:1856   .text:0000000000000ad8 .LVL182
     /tmp/cceDUpe5.s:1894   .text:0000000000000b30 .LVL189
     /tmp/cceDUpe5.s:1891   .text:0000000000000b2c .LVL188
     /tmp/cceDUpe5.s:1897   .text:0000000000000b34 .LVL190
     /tmp/cceDUpe5.s:1900   .text:0000000000000b38 .LVL191
     /tmp/cceDUpe5.s:1861   .text:0000000000000ae8 .LVL184
     /tmp/cceDUpe5.s:1888   .text:0000000000000b28 .LVL187
     /tmp/cceDUpe5.s:1597   .text:000000000000092c .LVL150
     /tmp/cceDUpe5.s:2249   .text:0000000000000d94 .LVL230
     /tmp/cceDUpe5.s:2287   .text:0000000000000de0 .LVL234
     /tmp/cceDUpe5.s:1415   .text:00000000000007f4 .LVL133
     /tmp/cceDUpe5.s:1523   .text:00000000000008b4 .LVL142
     /tmp/cceDUpe5.s:1534   .text:00000000000008c8 .LVL144
     /tmp/cceDUpe5.s:1577   .text:0000000000000928 .LVL149
     /tmp/cceDUpe5.s:1463   .text:0000000000000850 .LVL135
     /tmp/cceDUpe5.s:1528   .text:00000000000008bc .LVL143
     /tmp/cceDUpe5.s:1451   .text:000000000000083c .LVL134
     /tmp/cceDUpe5.s:1512   .text:00000000000008a8 .LVL141
     /tmp/cceDUpe5.s:1469   .text:000000000000085c .LVL137
     /tmp/cceDUpe5.s:1354   .text:0000000000000770 .LVL126
     /tmp/cceDUpe5.s:1369   .text:0000000000000790 .LVL127
     /tmp/cceDUpe5.s:1401   .text:00000000000007ec .LVL132
     /tmp/cceDUpe5.s:1293   .text:0000000000000724 .LVL123
     /tmp/cceDUpe5.s:1309   .text:0000000000000744 .LVL125
     /tmp/cceDUpe5.s:1305   .text:000000000000073c .LVL124
     /tmp/cceDUpe5.s:1177   .text:0000000000000694 .LVL110
     /tmp/cceDUpe5.s:1192   .text:00000000000006b0 .LVL111
     /tmp/cceDUpe5.s:1276   .text:000000000000071c .LVL121
     /tmp/cceDUpe5.s:1281   .text:0000000000000720 .LVL122
     /tmp/cceDUpe5.s:1225   .text:00000000000006dc .LVL115
     /tmp/cceDUpe5.s:1236   .text:00000000000006e8 .LVL116
     /tmp/cceDUpe5.s:1194   .text:00000000000006b4 .LVL112
     /tmp/cceDUpe5.s:1200   .text:00000000000006b8 .LVL113
     /tmp/cceDUpe5.s:1220   .text:00000000000006d4 .LVL114
     /tmp/cceDUpe5.s:1244   .text:00000000000006f0 .LVL118
     /tmp/cceDUpe5.s:1250   .text:00000000000006f4 .LVL119
     /tmp/cceDUpe5.s:1270   .text:0000000000000710 .LVL120
     /tmp/cceDUpe5.s:1085   .text:000000000000062c .LVL97
     /tmp/cceDUpe5.s:1160   .text:0000000000000688 .LVL109
     /tmp/cceDUpe5.s:1093   .text:0000000000000638 .LVL98
     /tmp/cceDUpe5.s:1096   .text:000000000000063c .LVL99
GAS LISTING /tmp/cceDUpe5.s 			page 97


     /tmp/cceDUpe5.s:1151   .text:0000000000000680 .LVL107
     /tmp/cceDUpe5.s:1153   .text:0000000000000684 .LVL108
     /tmp/cceDUpe5.s:1116   .text:0000000000000654 .LVL101
     /tmp/cceDUpe5.s:1148   .text:000000000000067c .LVL106
     /tmp/cceDUpe5.s:1124   .text:000000000000065c .LVL102
     /tmp/cceDUpe5.s:1128   .text:0000000000000660 .LVL103
     /tmp/cceDUpe5.s:1137   .text:000000000000066c .LVL104
     /tmp/cceDUpe5.s:1143   .text:0000000000000674 .LVL105
     /tmp/cceDUpe5.s:928    .text:0000000000000540 .LVL82
     /tmp/cceDUpe5.s:949    .text:0000000000000570 .LVL83
     /tmp/cceDUpe5.s:1071   .text:0000000000000624 .LVL96
     /tmp/cceDUpe5.s:965    .text:0000000000000590 .LVL85
     /tmp/cceDUpe5.s:1055   .text:0000000000000610 .LVL95
     /tmp/cceDUpe5.s:984    .text:00000000000005a8 .LVL86
     /tmp/cceDUpe5.s:988    .text:00000000000005ac .LVL87
     /tmp/cceDUpe5.s:993    .text:00000000000005b4 .LVL88
     /tmp/cceDUpe5.s:996    .text:00000000000005b8 .LVL89
     /tmp/cceDUpe5.s:1001   .text:00000000000005bc .LVL90
     /tmp/cceDUpe5.s:1029   .text:00000000000005e4 .LVL92
     /tmp/cceDUpe5.s:874    .text:00000000000004e8 .LVL75
     /tmp/cceDUpe5.s:894    .text:0000000000000510 .LVL77
     /tmp/cceDUpe5.s:914    .text:0000000000000538 .LVL81
     /tmp/cceDUpe5.s:892    .text:000000000000050c .LVL76
     /tmp/cceDUpe5.s:911    .text:0000000000000534 .LVL80
     /tmp/cceDUpe5.s:820    .text:0000000000000490 .LVL68
     /tmp/cceDUpe5.s:840    .text:00000000000004b8 .LVL70
     /tmp/cceDUpe5.s:860    .text:00000000000004e0 .LVL74
     /tmp/cceDUpe5.s:838    .text:00000000000004b4 .LVL69
     /tmp/cceDUpe5.s:857    .text:00000000000004dc .LVL73
     /tmp/cceDUpe5.s:764    .text:0000000000000438 .LVL61
     /tmp/cceDUpe5.s:786    .text:0000000000000460 .LVL63
     /tmp/cceDUpe5.s:803    .text:0000000000000484 .LVL66
     /tmp/cceDUpe5.s:781    .text:0000000000000458 .LVL62
     /tmp/cceDUpe5.s:806    .text:0000000000000488 .LVL67
     /tmp/cceDUpe5.s:708    .text:00000000000003e0 .LVL54
     /tmp/cceDUpe5.s:730    .text:0000000000000408 .LVL56
     /tmp/cceDUpe5.s:747    .text:000000000000042c .LVL59
     /tmp/cceDUpe5.s:725    .text:0000000000000400 .LVL55
     /tmp/cceDUpe5.s:750    .text:0000000000000430 .LVL60
     /tmp/cceDUpe5.s:564    .text:0000000000000330 .LVL50
     /tmp/cceDUpe5.s:574    .text:0000000000000340 .LVL51
     /tmp/cceDUpe5.s:532    .text:0000000000000308 .LVL48
     /tmp/cceDUpe5.s:544    .text:000000000000031c .LVL49
     /tmp/cceDUpe5.s:414    .text:0000000000000250 .LVL35
     /tmp/cceDUpe5.s:435    .text:0000000000000278 .LVL36
     /tmp/cceDUpe5.s:510    .text:00000000000002f4 .LVL46
     /tmp/cceDUpe5.s:516    .text:0000000000000300 .LVL47
     /tmp/cceDUpe5.s:467    .text:00000000000002b4 .LVL40
     /tmp/cceDUpe5.s:471    .text:00000000000002b8 .LVL41
     /tmp/cceDUpe5.s:480    .text:00000000000002c0 .LVL43
     /tmp/cceDUpe5.s:496    .text:00000000000002e0 .LVL45
     /tmp/cceDUpe5.s:463    .text:00000000000002ac .LVL39
     /tmp/cceDUpe5.s:476    .text:00000000000002bc .LVL42
     /tmp/cceDUpe5.s:368    .text:0000000000000208 .LVL32
     /tmp/cceDUpe5.s:384    .text:0000000000000228 .LVL34
     /tmp/cceDUpe5.s:380    .text:0000000000000220 .LVL33
     /tmp/cceDUpe5.s:326    .text:00000000000001c8 .LVL29
GAS LISTING /tmp/cceDUpe5.s 			page 98


     /tmp/cceDUpe5.s:342    .text:00000000000001e8 .LVL31
     /tmp/cceDUpe5.s:338    .text:00000000000001e0 .LVL30
     /tmp/cceDUpe5.s:251    .text:0000000000000150 .LVL20
     /tmp/cceDUpe5.s:299    .text:00000000000001a8 .LVL26
     /tmp/cceDUpe5.s:312    .text:00000000000001c0 .LVL28
     /tmp/cceDUpe5.s:265    .text:0000000000000168 .LVL21
     /tmp/cceDUpe5.s:270    .text:000000000000016c .LVL22
     /tmp/cceDUpe5.s:275    .text:0000000000000174 .LVL23
     /tmp/cceDUpe5.s:293    .text:0000000000000190 .LVL25
     /tmp/cceDUpe5.s:158    .text:00000000000000c4 .LVL11
     /tmp/cceDUpe5.s:179    .text:00000000000000f0 .LVL12
     /tmp/cceDUpe5.s:220    .text:0000000000000138 .LVL15
     /tmp/cceDUpe5.s:187    .text:0000000000000104 .LVL13
     /tmp/cceDUpe5.s:232    .text:0000000000000148 .LVL19
     /tmp/cceDUpe5.s:229    .text:0000000000000144 .LVL18
     /tmp/cceDUpe5.s:226    .text:0000000000000140 .LVL17
     /tmp/cceDUpe5.s:223    .text:000000000000013c .LVL16
     /tmp/cceDUpe5.s:62     .text:0000000000000034 .LVL3
     /tmp/cceDUpe5.s:94     .text:000000000000006c .LVL5
     /tmp/cceDUpe5.s:124    .text:000000000000009c .LVL9
     /tmp/cceDUpe5.s:128    .text:00000000000000a0 .LVL10
     /tmp/cceDUpe5.s:90     .text:0000000000000068 .LVL4
     /tmp/cceDUpe5.s:120    .text:0000000000000098 .LVL8
     /tmp/cceDUpe5.s:106    .text:0000000000000078 .LVL6
     /tmp/cceDUpe5.s:14     .text:0000000000000000 .LVL0
     /tmp/cceDUpe5.s:34     .text:000000000000001c .LVL1
     /tmp/cceDUpe5.s:38     .text:0000000000000020 .LVL2
     /tmp/cceDUpe5.s:2716   .debug_info:0000000000000000 .Ldebug_info0
     /tmp/cceDUpe5.s:1196   .text:00000000000006b4 .LBB10
     /tmp/cceDUpe5.s:1202   .text:00000000000006b8 .LBE10
     /tmp/cceDUpe5.s:1206   .text:00000000000006bc .LBB11
     /tmp/cceDUpe5.s:1227   .text:00000000000006dc .LBE11
     /tmp/cceDUpe5.s:1246   .text:00000000000006f0 .LBB12
     /tmp/cceDUpe5.s:1252   .text:00000000000006f4 .LBE12
     /tmp/cceDUpe5.s:1256   .text:00000000000006f8 .LBB13
     /tmp/cceDUpe5.s:1278   .text:000000000000071c .LBE13
     /tmp/cceDUpe5.s:1705   .text:00000000000009dc .LBB18
     /tmp/cceDUpe5.s:1722   .text:00000000000009f8 .LBE18
     /tmp/cceDUpe5.s:1744   .text:0000000000000a14 .LBB19
     /tmp/cceDUpe5.s:1755   .text:0000000000000a24 .LBE19
     /tmp/cceDUpe5.s:2446   .text:0000000000000f0c .LBB24
     /tmp/cceDUpe5.s:2449   .text:0000000000000f10 .LBE24
     /tmp/cceDUpe5.s:2454   .text:0000000000000f14 .LBB25
     /tmp/cceDUpe5.s:2475   .text:0000000000000f48 .LBE25

UNDEFINED SYMBOLS
_Z10buddy_freeP14buddyAllocatorPvm
_Z11buddy_allocP14buddyAllocatorm
_ZN8KConsole15trapPrintStringEPKc
_ZN8KConsole18trapPrintStringIntEPKcmi
_Z10buddy_initPvm
_Z11getDeg2Ceilm
