GAS LISTING /tmp/ccASzBvH.s 			page 1


   1              		.file	"slabAllocator.cpp"
   2              		.option pic
   3              		.option norelax
   4              		.text
   5              	.Ltext0:
   6              		.align	2
   7              		.globl	_Z6strcpyPKcPc
   9              	_Z6strcpyPKcPc:
  10              	.LFB5:
  11              		.file 1 "src/slabAllocator.cpp"
   1:src/slabAllocator.cpp **** #include "../h/slabAllocator.hpp"
   2:src/slabAllocator.cpp **** #include "../h/buddyAllocator.hpp"
   3:src/slabAllocator.cpp **** #include "../h/KConsole.hpp"
   4:src/slabAllocator.cpp **** 
   5:src/slabAllocator.cpp **** //TODO
   6:src/slabAllocator.cpp **** //check values of the constants
   7:src/slabAllocator.cpp **** #define SLAB_ALLOCATED_LOOKUP 32
   8:src/slabAllocator.cpp **** #define CACHE_NAME_SIZE 64
   9:src/slabAllocator.cpp **** #define CACHE_BUFFER_SMALL 5
  10:src/slabAllocator.cpp **** #define CACHE_BUFFER_BIG 17
  11:src/slabAllocator.cpp **** #define CACHE_BUFFER_SIZE CACHE_BUFFER_BIG - CACHE_BUFFER_SMALL + 1
  12:src/slabAllocator.cpp **** #define CACHE_OF_CACHES_SLAB_SIZE 2
  13:src/slabAllocator.cpp **** 
  14:src/slabAllocator.cpp **** typedef struct slab_s
  15:src/slabAllocator.cpp **** {
  16:src/slabAllocator.cpp ****     slab_s* prev;
  17:src/slabAllocator.cpp ****     slab_s* next;
  18:src/slabAllocator.cpp ****     kmem_cache_t* owner;
  19:src/slabAllocator.cpp ****     size_t numOfObjects;
  20:src/slabAllocator.cpp ****     size_t numOfAllocatedObjects;
  21:src/slabAllocator.cpp ****     unsigned char allocated[SLAB_ALLOCATED_LOOKUP];
  22:src/slabAllocator.cpp **** }slab_t;
  23:src/slabAllocator.cpp **** 
  24:src/slabAllocator.cpp **** typedef struct kmem_cache_s
  25:src/slabAllocator.cpp **** {
  26:src/slabAllocator.cpp ****     char cacheName[CACHE_NAME_SIZE];
  27:src/slabAllocator.cpp ****     slab_t* slabs_empty;
  28:src/slabAllocator.cpp ****     slab_t* slabs_full;
  29:src/slabAllocator.cpp ****     slab_t* slabs_partial;
  30:src/slabAllocator.cpp ****     size_t slab_size;
  31:src/slabAllocator.cpp ****     size_t obj_size;
  32:src/slabAllocator.cpp ****     void (*ctor)(void*);
  33:src/slabAllocator.cpp ****     void (*dtor)(void*);
  34:src/slabAllocator.cpp **** }kmem_cache_t;
  35:src/slabAllocator.cpp **** 
  36:src/slabAllocator.cpp **** typedef struct slab_allocator_s
  37:src/slabAllocator.cpp **** {
  38:src/slabAllocator.cpp ****     buddyAllocator* buddy;
  39:src/slabAllocator.cpp ****     kmem_cache_t* cachesBuffers[CACHE_BUFFER_SIZE];
  40:src/slabAllocator.cpp ****     kmem_cache_t cacheOfCaches;
  41:src/slabAllocator.cpp **** }slab_allocator_t;
  42:src/slabAllocator.cpp **** 
  43:src/slabAllocator.cpp **** //singleton slab allocator
  44:src/slabAllocator.cpp **** static slab_allocator_t* slabAllocator = nullptr;
  45:src/slabAllocator.cpp **** 
  46:src/slabAllocator.cpp **** //helping functions
  47:src/slabAllocator.cpp **** void strcpy(const char* src, char* dst)
GAS LISTING /tmp/ccASzBvH.s 			page 2


  48:src/slabAllocator.cpp **** {
  12              		.loc 1 48 1
  13              		.cfi_startproc
  14              	.LVL0:
  15 0000 130101FF 		addi	sp,sp,-16
  16              		.cfi_def_cfa_offset 16
  17 0004 23348100 		sd	s0,8(sp)
  18              		.cfi_offset 8, -8
  19 0008 13040101 		addi	s0,sp,16
  20              		.cfi_def_cfa 8, 0
  21              	.L3:
  49:src/slabAllocator.cpp ****     while(*src != '\0')
  22              		.loc 1 49 5
  23              		.loc 1 49 16
  24              		.loc 1 49 11 is_stmt 0
  25 000c 83470500 		lbu	a5,0(a0)
  26              		.loc 1 49 16
  27 0010 638A0700 		beqz	a5,.L2
  50:src/slabAllocator.cpp ****     {
  51:src/slabAllocator.cpp ****         *dst = *src;
  28              		.loc 1 51 9 is_stmt 1
  29              		.loc 1 51 14 is_stmt 0
  30 0014 2380F500 		sb	a5,0(a1)
  52:src/slabAllocator.cpp ****         src++; dst++;
  31              		.loc 1 52 9 is_stmt 1
  32              		.loc 1 52 12 is_stmt 0
  33 0018 13051500 		addi	a0,a0,1
  34              	.LVL1:
  35              		.loc 1 52 16 is_stmt 1
  36              		.loc 1 52 19 is_stmt 0
  37 001c 93851500 		addi	a1,a1,1
  38              	.LVL2:
  49:src/slabAllocator.cpp ****     while(*src != '\0')
  39              		.loc 1 49 5
  40 0020 6FF0DFFE 		j	.L3
  41              	.L2:
  53:src/slabAllocator.cpp ****     }
  54:src/slabAllocator.cpp ****     *dst = *src;
  42              		.loc 1 54 5 is_stmt 1
  43              		.loc 1 54 10 is_stmt 0
  44 0024 2380F500 		sb	a5,0(a1)
  55:src/slabAllocator.cpp **** }
  45              		.loc 1 55 1
  46 0028 03348100 		ld	s0,8(sp)
  47              		.cfi_restore 8
  48              		.cfi_def_cfa 2, 16
  49 002c 13010101 		addi	sp,sp,16
  50              		.cfi_def_cfa_offset 0
  51 0030 67800000 		jr	ra
  52              		.cfi_endproc
  53              	.LFE5:
  55              		.section	.rodata.str1.8,"aMS",@progbits,1
  56              		.align	3
  57              	.LC0:
  58 0000 43616368 		.string	"Cache of caches"
  58      65206F66 
  58      20636163 
GAS LISTING /tmp/ccASzBvH.s 			page 3


  58      68657300 
  59              		.text
  60              		.align	2
  61              		.globl	_Z19slab_allocator_initP14buddyAllocator
  63              	_Z19slab_allocator_initP14buddyAllocator:
  64              	.LFB6:
  56:src/slabAllocator.cpp **** 
  57:src/slabAllocator.cpp **** slab_allocator_t* slab_allocator_init(buddyAllocator *buddy)
  58:src/slabAllocator.cpp **** {
  65              		.loc 1 58 1 is_stmt 1
  66              		.cfi_startproc
  67              	.LVL3:
  68 0034 130101FE 		addi	sp,sp,-32
  69              		.cfi_def_cfa_offset 32
  70 0038 233C1100 		sd	ra,24(sp)
  71 003c 23388100 		sd	s0,16(sp)
  72 0040 23349100 		sd	s1,8(sp)
  73 0044 23302101 		sd	s2,0(sp)
  74              		.cfi_offset 1, -8
  75              		.cfi_offset 8, -16
  76              		.cfi_offset 9, -24
  77              		.cfi_offset 18, -32
  78 0048 13040102 		addi	s0,sp,32
  79              		.cfi_def_cfa 8, 0
  80 004c 93040500 		mv	s1,a0
  59:src/slabAllocator.cpp ****     slab_allocator_t* slabAllocatorLocal = (slab_allocator_t*)(buddy + 1);
  81              		.loc 1 59 5
  82              		.loc 1 59 23 is_stmt 0
  83 0050 1309050E 		addi	s2,a0,224
  84              	.LVL4:
  60:src/slabAllocator.cpp **** 
  61:src/slabAllocator.cpp ****     slabAllocatorLocal->buddy = buddy;
  85              		.loc 1 61 5 is_stmt 1
  86              		.loc 1 61 31 is_stmt 0
  87 0054 2330A50E 		sd	a0,224(a0)
  62:src/slabAllocator.cpp ****     for(size_t i = 0; i < CACHE_BUFFER_SIZE;i++)
  88              		.loc 1 62 5 is_stmt 1
  89              	.LVL5:
  90              	.LBB2:
  91              		.loc 1 62 16 is_stmt 0
  92 0058 93070000 		li	a5,0
  93 005c 6F004001 		j	.L7
  94              	.LVL6:
  95              	.L9:
  63:src/slabAllocator.cpp ****         slabAllocatorLocal->cachesBuffers[i] = nullptr;
  96              		.loc 1 63 9 is_stmt 1 discriminator 2
  97              		.loc 1 63 46 is_stmt 0 discriminator 2
  98 0060 13973700 		slli	a4,a5,3
  99 0064 3387E400 		add	a4,s1,a4
 100 0068 2334070E 		sd	zero,232(a4)
  62:src/slabAllocator.cpp ****     for(size_t i = 0; i < CACHE_BUFFER_SIZE;i++)
 101              		.loc 1 62 5 is_stmt 1 discriminator 2
 102 006c 93871700 		addi	a5,a5,1
 103              	.LVL7:
 104              	.L7:
  62:src/slabAllocator.cpp ****     for(size_t i = 0; i < CACHE_BUFFER_SIZE;i++)
 105              		.loc 1 62 25 discriminator 3
GAS LISTING /tmp/ccASzBvH.s 			page 4


 106 0070 1307C000 		li	a4,12
 107 0074 E376F7FE 		bleu	a5,a4,.L9
 108              	.LBE2:
  64:src/slabAllocator.cpp **** 
  65:src/slabAllocator.cpp ****     strcpy("Cache of caches", slabAllocatorLocal->cacheOfCaches.cacheName);
 109              		.loc 1 65 5
 110              		.loc 1 65 11 is_stmt 0
 111 0078 93850415 		addi	a1,s1,336
 112 007c 17050000 		lla	a0,.LC0
 112      13050500 
 113 0084 97000000 		call	_Z6strcpyPKcPc
 113      E7800000 
 114              	.LVL8:
  66:src/slabAllocator.cpp ****     slabAllocatorLocal->cacheOfCaches.ctor = nullptr;
 115              		.loc 1 66 5 is_stmt 1
 116              		.loc 1 66 44 is_stmt 0
 117 008c 23BC041A 		sd	zero,440(s1)
  67:src/slabAllocator.cpp ****     slabAllocatorLocal->cacheOfCaches.dtor = nullptr;
 118              		.loc 1 67 5 is_stmt 1
 119              		.loc 1 67 44 is_stmt 0
 120 0090 23B0041C 		sd	zero,448(s1)
  68:src/slabAllocator.cpp ****     slabAllocatorLocal->cacheOfCaches.slabs_empty = nullptr;
 121              		.loc 1 68 5 is_stmt 1
 122              		.loc 1 68 51 is_stmt 0
 123 0094 23B80418 		sd	zero,400(s1)
  69:src/slabAllocator.cpp ****     slabAllocatorLocal->cacheOfCaches.slabs_full = nullptr;
 124              		.loc 1 69 5 is_stmt 1
 125              		.loc 1 69 50 is_stmt 0
 126 0098 23BC0418 		sd	zero,408(s1)
  70:src/slabAllocator.cpp ****     slabAllocatorLocal->cacheOfCaches.slabs_partial = nullptr;
 127              		.loc 1 70 5 is_stmt 1
 128              		.loc 1 70 53 is_stmt 0
 129 009c 23B0041A 		sd	zero,416(s1)
  71:src/slabAllocator.cpp ****     slabAllocatorLocal->cacheOfCaches.slab_size = CACHE_OF_CACHES_SLAB_SIZE;
 130              		.loc 1 71 5 is_stmt 1
 131              		.loc 1 71 49 is_stmt 0
 132 00a0 93072000 		li	a5,2
 133 00a4 23B4F41A 		sd	a5,424(s1)
  72:src/slabAllocator.cpp ****     slabAllocatorLocal->cacheOfCaches.obj_size = sizeof(kmem_cache_t);
 134              		.loc 1 72 5 is_stmt 1
 135              		.loc 1 72 48 is_stmt 0
 136 00a8 93078007 		li	a5,120
 137 00ac 23B8F41A 		sd	a5,432(s1)
  73:src/slabAllocator.cpp ****     return slabAllocatorLocal;
 138              		.loc 1 73 5 is_stmt 1
  74:src/slabAllocator.cpp **** }
 139              		.loc 1 74 1 is_stmt 0
 140 00b0 13050900 		mv	a0,s2
 141 00b4 83308101 		ld	ra,24(sp)
 142              		.cfi_restore 1
 143 00b8 03340101 		ld	s0,16(sp)
 144              		.cfi_restore 8
 145              		.cfi_def_cfa 2, 32
 146 00bc 83348100 		ld	s1,8(sp)
 147              		.cfi_restore 9
 148              	.LVL9:
 149 00c0 03390100 		ld	s2,0(sp)
GAS LISTING /tmp/ccASzBvH.s 			page 5


 150              		.cfi_restore 18
 151              	.LVL10:
 152 00c4 13010102 		addi	sp,sp,32
 153              		.cfi_def_cfa_offset 0
 154 00c8 67800000 		jr	ra
 155              		.cfi_endproc
 156              	.LFE6:
 158              		.section	.rodata.str1.8
 159              		.align	3
 160              	.LC1:
 161 0010 416C6C6F 		.string	"Allocated index "
 161      63617465 
 161      6420696E 
 161      64657820 
 161      00
 162 0021 00000000 		.align	3
 162      000000
 163              	.LC2:
 164 0028 0A00     		.string	"\n"
 165              		.text
 166              		.align	2
 167              		.globl	_Z14allocateObjectP6slab_s
 169              	_Z14allocateObjectP6slab_s:
 170              	.LFB7:
  75:src/slabAllocator.cpp **** 
  76:src/slabAllocator.cpp **** void* allocateObject(slab_t* slab)
  77:src/slabAllocator.cpp **** {
 171              		.loc 1 77 1 is_stmt 1
 172              		.cfi_startproc
 173              	.LVL11:
 174 00cc 130101FD 		addi	sp,sp,-48
 175              		.cfi_def_cfa_offset 48
 176 00d0 23341102 		sd	ra,40(sp)
 177 00d4 23308102 		sd	s0,32(sp)
 178 00d8 233C9100 		sd	s1,24(sp)
 179 00dc 23382101 		sd	s2,16(sp)
 180 00e0 23343101 		sd	s3,8(sp)
 181              		.cfi_offset 1, -8
 182              		.cfi_offset 8, -16
 183              		.cfi_offset 9, -24
 184              		.cfi_offset 18, -32
 185              		.cfi_offset 19, -40
 186 00e4 13040103 		addi	s0,sp,48
 187              		.cfi_def_cfa 8, 0
 188 00e8 13090500 		mv	s2,a0
  78:src/slabAllocator.cpp ****     int index = -1;
 189              		.loc 1 78 5
 190              	.LVL12:
  79:src/slabAllocator.cpp ****     void* addr = nullptr;
 191              		.loc 1 79 5
  80:src/slabAllocator.cpp ****     for(size_t i = 0;i < slab->numOfObjects;i++)
 192              		.loc 1 80 5
 193              	.LBB3:
 194              		.loc 1 80 16 is_stmt 0
 195 00ec 93070000 		li	a5,0
 196              	.LVL13:
 197              	.L13:
GAS LISTING /tmp/ccASzBvH.s 			page 6


 198              		.loc 1 80 24 is_stmt 1 discriminator 1
 199              		.loc 1 80 32 is_stmt 0 discriminator 1
 200 00f0 03378901 		ld	a4,24(s2)
 201              		.loc 1 80 24 discriminator 1
 202 00f4 63F4E704 		bleu	a4,a5,.L15
 203              	.LBB4:
  81:src/slabAllocator.cpp ****     {
  82:src/slabAllocator.cpp ****         size_t mask = 1 << (i%8);
 204              		.loc 1 82 9 is_stmt 1
 205              		.loc 1 82 30 is_stmt 0
 206 00f8 13F77700 		andi	a4,a5,7
 207              		.loc 1 82 25
 208 00fc 13061000 		li	a2,1
 209 0100 BB16E600 		sllw	a3,a2,a4
 210              	.LVL14:
  83:src/slabAllocator.cpp ****         if(!((uint8)slab->allocated[i/8] & mask))
 211              		.loc 1 83 9 is_stmt 1
 212              		.loc 1 83 38 is_stmt 0
 213 0104 13D73700 		srli	a4,a5,3
 214              		.loc 1 83 40
 215 0108 3307E900 		add	a4,s2,a4
 216 010c 03478702 		lbu	a4,40(a4)
 217              		.loc 1 83 42
 218 0110 3377D700 		and	a4,a4,a3
 219              		.loc 1 83 9
 220 0114 63060700 		beqz	a4,.L17
 221              	.LBE4:
  80:src/slabAllocator.cpp ****     for(size_t i = 0;i < slab->numOfObjects;i++)
 222              		.loc 1 80 5 is_stmt 1 discriminator 2
 223 0118 93871700 		addi	a5,a5,1
 224              	.LVL15:
 225 011c 6FF05FFD 		j	.L13
 226              	.L17:
 227              	.LBB5:
  84:src/slabAllocator.cpp ****         {
  85:src/slabAllocator.cpp ****             addr = (void*)((size_t)slab + sizeof(slab_t)+ i*slab->owner->obj_size);
 228              		.loc 1 85 13
 229              		.loc 1 85 67 is_stmt 0
 230 0120 03370901 		ld	a4,16(s2)
 231              		.loc 1 85 74
 232 0124 83390706 		ld	s3,96(a4)
 233              		.loc 1 85 60
 234 0128 B389F902 		mul	s3,s3,a5
 235              		.loc 1 85 57
 236 012c B3093901 		add	s3,s2,s3
 237 0130 93898904 		addi	s3,s3,72
 238              	.LVL16:
  86:src/slabAllocator.cpp ****             index = i;
 239              		.loc 1 86 13 is_stmt 1
 240              		.loc 1 86 19 is_stmt 0
 241 0134 9B840700 		sext.w	s1,a5
 242              	.LVL17:
  87:src/slabAllocator.cpp ****             break;
 243              		.loc 1 87 13 is_stmt 1
 244 0138 6F00C000 		j	.L11
 245              	.LVL18:
 246              	.L15:
GAS LISTING /tmp/ccASzBvH.s 			page 7


 247              	.LBE5:
 248              	.LBE3:
  79:src/slabAllocator.cpp ****     for(size_t i = 0;i < slab->numOfObjects;i++)
 249              		.loc 1 79 11 is_stmt 0
 250 013c 93090000 		li	s3,0
  78:src/slabAllocator.cpp ****     void* addr = nullptr;
 251              		.loc 1 78 9
 252 0140 9304F0FF 		li	s1,-1
 253              	.LVL19:
 254              	.L11:
  88:src/slabAllocator.cpp ****         }
  89:src/slabAllocator.cpp ****     }
  90:src/slabAllocator.cpp ****     if(addr == nullptr)
 255              		.loc 1 90 5 is_stmt 1
 256 0144 638A0906 		beqz	s3,.L10
  91:src/slabAllocator.cpp ****         return nullptr;
  92:src/slabAllocator.cpp **** 
  93:src/slabAllocator.cpp ****     KConsole::trapPrintString("Allocated index ");
 257              		.loc 1 93 5
 258              		.loc 1 93 30 is_stmt 0
 259 0148 17050000 		lla	a0,.LC1
 259      13050500 
 260              	.LVL20:
 261 0150 97000000 		call	_ZN8KConsole15trapPrintStringEPKc@plt
 261      E7800000 
 262              	.LVL21:
  94:src/slabAllocator.cpp ****     KConsole::trapPrintInt(index); KConsole::trapPrintString("\n");
 263              		.loc 1 94 5 is_stmt 1
 264              		.loc 1 94 27 is_stmt 0
 265 0158 13060000 		li	a2,0
 266 015c 9305A000 		li	a1,10
 267 0160 13850400 		mv	a0,s1
 268 0164 97000000 		call	_ZN8KConsole12trapPrintIntEmii@plt
 268      E7800000 
 269              	.LVL22:
 270              		.loc 1 94 36 is_stmt 1
 271              		.loc 1 94 61 is_stmt 0
 272 016c 17050000 		lla	a0,.LC2
 272      13050500 
 273 0174 97000000 		call	_ZN8KConsole15trapPrintStringEPKc@plt
 273      E7800000 
 274              	.LVL23:
  95:src/slabAllocator.cpp **** 
  96:src/slabAllocator.cpp ****     slab->allocated[index/8]=(uint8)slab->allocated[index/8] | (1 << (index%8));
 275              		.loc 1 96 5 is_stmt 1
 276              		.loc 1 96 58 is_stmt 0
 277 017c 9BD7F441 		sraiw	a5,s1,31
 278 0180 9BD6D701 		srliw	a3,a5,29
 279 0184 BB879600 		addw	a5,a3,s1
 280 0188 1BD73740 		sraiw	a4,a5,3
 281              		.loc 1 96 60
 282 018c 3307E900 		add	a4,s2,a4
 283              		.loc 1 96 30
 284 0190 03068702 		lb	a2,40(a4)
 285              		.loc 1 96 76
 286 0194 93F77700 		andi	a5,a5,7
 287 0198 BB87D740 		subw	a5,a5,a3
GAS LISTING /tmp/ccASzBvH.s 			page 8


 288              		.loc 1 96 67
 289 019c 93061000 		li	a3,1
 290 01a0 BB97F600 		sllw	a5,a3,a5
 291              		.loc 1 96 62
 292 01a4 B367F600 		or	a5,a2,a5
 293              		.loc 1 96 29
 294 01a8 2304F702 		sb	a5,40(a4)
  97:src/slabAllocator.cpp ****     slab->numOfAllocatedObjects++;
 295              		.loc 1 97 5 is_stmt 1
 296              		.loc 1 97 11 is_stmt 0
 297 01ac 83370902 		ld	a5,32(s2)
 298              		.loc 1 97 32
 299 01b0 93871700 		addi	a5,a5,1
 300 01b4 2330F902 		sd	a5,32(s2)
  98:src/slabAllocator.cpp **** 
  99:src/slabAllocator.cpp ****     return addr;
 301              		.loc 1 99 5 is_stmt 1
 302              	.L10:
 100:src/slabAllocator.cpp **** }
 303              		.loc 1 100 1 is_stmt 0
 304 01b8 13850900 		mv	a0,s3
 305 01bc 83308102 		ld	ra,40(sp)
 306              		.cfi_restore 1
 307 01c0 03340102 		ld	s0,32(sp)
 308              		.cfi_restore 8
 309              		.cfi_def_cfa 2, 48
 310 01c4 83348101 		ld	s1,24(sp)
 311              		.cfi_restore 9
 312              	.LVL24:
 313 01c8 03390101 		ld	s2,16(sp)
 314              		.cfi_restore 18
 315              	.LVL25:
 316 01cc 83398100 		ld	s3,8(sp)
 317              		.cfi_restore 19
 318              	.LVL26:
 319 01d0 13010103 		addi	sp,sp,48
 320              		.cfi_def_cfa_offset 0
 321 01d4 67800000 		jr	ra
 322              		.cfi_endproc
 323              	.LFE7:
 325              		.align	2
 326              		.globl	_Z4fullP6slab_s
 328              	_Z4fullP6slab_s:
 329              	.LFB8:
 101:src/slabAllocator.cpp **** 
 102:src/slabAllocator.cpp **** bool full(slab_t* slab)
 103:src/slabAllocator.cpp **** {
 330              		.loc 1 103 1 is_stmt 1
 331              		.cfi_startproc
 332              	.LVL27:
 333 01d8 130101FF 		addi	sp,sp,-16
 334              		.cfi_def_cfa_offset 16
 335 01dc 23348100 		sd	s0,8(sp)
 336              		.cfi_offset 8, -8
 337 01e0 13040101 		addi	s0,sp,16
 338              		.cfi_def_cfa 8, 0
 104:src/slabAllocator.cpp ****     return slab->numOfAllocatedObjects == slab->numOfObjects;
GAS LISTING /tmp/ccASzBvH.s 			page 9


 339              		.loc 1 104 5
 340              		.loc 1 104 18 is_stmt 0
 341 01e4 83370502 		ld	a5,32(a0)
 342              		.loc 1 104 49
 343 01e8 03358501 		ld	a0,24(a0)
 344              	.LVL28:
 345 01ec 3305F540 		sub	a0,a0,a5
 105:src/slabAllocator.cpp **** }
 346              		.loc 1 105 1
 347 01f0 13351500 		seqz	a0,a0
 348 01f4 03348100 		ld	s0,8(sp)
 349              		.cfi_restore 8
 350              		.cfi_def_cfa 2, 16
 351 01f8 13010101 		addi	sp,sp,16
 352              		.cfi_def_cfa_offset 0
 353 01fc 67800000 		jr	ra
 354              		.cfi_endproc
 355              	.LFE8:
 357              		.align	2
 358              		.globl	_Z5emptyP6slab_s
 360              	_Z5emptyP6slab_s:
 361              	.LFB9:
 106:src/slabAllocator.cpp **** 
 107:src/slabAllocator.cpp **** bool empty(slab_t* slab)
 108:src/slabAllocator.cpp **** {
 362              		.loc 1 108 1 is_stmt 1
 363              		.cfi_startproc
 364              	.LVL29:
 365 0200 130101FF 		addi	sp,sp,-16
 366              		.cfi_def_cfa_offset 16
 367 0204 23348100 		sd	s0,8(sp)
 368              		.cfi_offset 8, -8
 369 0208 13040101 		addi	s0,sp,16
 370              		.cfi_def_cfa 8, 0
 109:src/slabAllocator.cpp ****     return slab->numOfAllocatedObjects == 0;
 371              		.loc 1 109 5
 372              		.loc 1 109 18 is_stmt 0
 373 020c 03350502 		ld	a0,32(a0)
 374              	.LVL30:
 110:src/slabAllocator.cpp **** }
 375              		.loc 1 110 1
 376 0210 13351500 		seqz	a0,a0
 377 0214 03348100 		ld	s0,8(sp)
 378              		.cfi_restore 8
 379              		.cfi_def_cfa 2, 16
 380 0218 13010101 		addi	sp,sp,16
 381              		.cfi_def_cfa_offset 0
 382 021c 67800000 		jr	ra
 383              		.cfi_endproc
 384              	.LFE9:
 386              		.align	2
 387              		.globl	_Z18insertIntoSlabListP6slab_sPS0_
 389              	_Z18insertIntoSlabListP6slab_sPS0_:
 390              	.LFB10:
 111:src/slabAllocator.cpp **** 
 112:src/slabAllocator.cpp **** void insertIntoSlabList(slab_t* slab, slab_t** slab_head)
 113:src/slabAllocator.cpp **** {
GAS LISTING /tmp/ccASzBvH.s 			page 10


 391              		.loc 1 113 1 is_stmt 1
 392              		.cfi_startproc
 393              	.LVL31:
 394 0220 130101FF 		addi	sp,sp,-16
 395              		.cfi_def_cfa_offset 16
 396 0224 23348100 		sd	s0,8(sp)
 397              		.cfi_offset 8, -8
 398 0228 13040101 		addi	s0,sp,16
 399              		.cfi_def_cfa 8, 0
 114:src/slabAllocator.cpp ****     slab->prev = nullptr;
 400              		.loc 1 114 5
 401              		.loc 1 114 16 is_stmt 0
 402 022c 23300500 		sd	zero,0(a0)
 115:src/slabAllocator.cpp ****     slab->next = *slab_head;
 403              		.loc 1 115 5 is_stmt 1
 404              		.loc 1 115 18 is_stmt 0
 405 0230 83B70500 		ld	a5,0(a1)
 406              		.loc 1 115 16
 407 0234 2334F500 		sd	a5,8(a0)
 116:src/slabAllocator.cpp ****     if(*slab_head != nullptr)
 408              		.loc 1 116 5 is_stmt 1
 409 0238 63840700 		beqz	a5,.L23
 117:src/slabAllocator.cpp ****         (*slab_head)->prev = slab;
 410              		.loc 1 117 9
 411              		.loc 1 117 28 is_stmt 0
 412 023c 23B0A700 		sd	a0,0(a5)
 413              	.L23:
 118:src/slabAllocator.cpp ****     *slab_head = slab;
 414              		.loc 1 118 5 is_stmt 1
 415              		.loc 1 118 16 is_stmt 0
 416 0240 23B0A500 		sd	a0,0(a1)
 119:src/slabAllocator.cpp **** }
 417              		.loc 1 119 1
 418 0244 03348100 		ld	s0,8(sp)
 419              		.cfi_restore 8
 420              		.cfi_def_cfa 2, 16
 421 0248 13010101 		addi	sp,sp,16
 422              		.cfi_def_cfa_offset 0
 423 024c 67800000 		jr	ra
 424              		.cfi_endproc
 425              	.LFE10:
 427              		.align	2
 428              		.globl	_Z18removeFromSlabListP6slab_sPS0_
 430              	_Z18removeFromSlabListP6slab_sPS0_:
 431              	.LFB11:
 120:src/slabAllocator.cpp **** 
 121:src/slabAllocator.cpp **** void removeFromSlabList(slab_t* slab, slab_t** slab_head)
 122:src/slabAllocator.cpp **** {
 432              		.loc 1 122 1 is_stmt 1
 433              		.cfi_startproc
 434              	.LVL32:
 435 0250 130101FF 		addi	sp,sp,-16
 436              		.cfi_def_cfa_offset 16
 437 0254 23348100 		sd	s0,8(sp)
 438              		.cfi_offset 8, -8
 439 0258 13040101 		addi	s0,sp,16
 440              		.cfi_def_cfa 8, 0
GAS LISTING /tmp/ccASzBvH.s 			page 11


 123:src/slabAllocator.cpp ****     if(slab->prev == nullptr) //same as slab == *slab_head
 441              		.loc 1 123 5
 442              		.loc 1 123 14 is_stmt 0
 443 025c 83370500 		ld	a5,0(a0)
 444              		.loc 1 123 5
 445 0260 63860702 		beqz	a5,.L31
 124:src/slabAllocator.cpp ****     {
 125:src/slabAllocator.cpp ****         if(slab->next) slab->next->prev = nullptr;
 126:src/slabAllocator.cpp ****         (*slab_head) = slab->next;
 127:src/slabAllocator.cpp ****         slab->next = slab->prev = nullptr;
 128:src/slabAllocator.cpp ****     }
 129:src/slabAllocator.cpp ****     else
 130:src/slabAllocator.cpp ****     {
 131:src/slabAllocator.cpp ****         slab->prev->next = slab->next;
 446              		.loc 1 131 9 is_stmt 1
 447              		.loc 1 131 34 is_stmt 0
 448 0264 03378500 		ld	a4,8(a0)
 449              		.loc 1 131 26
 450 0268 23B4E700 		sd	a4,8(a5)
 132:src/slabAllocator.cpp ****         if(slab->next) slab->next->prev = slab->prev;
 451              		.loc 1 132 9 is_stmt 1
 452 026c 63060700 		beqz	a4,.L29
 453              		.loc 1 132 24 discriminator 1
 454              		.loc 1 132 49 is_stmt 0 discriminator 1
 455 0270 83370500 		ld	a5,0(a0)
 456              		.loc 1 132 41 discriminator 1
 457 0274 2330F700 		sd	a5,0(a4)
 458              	.L29:
 133:src/slabAllocator.cpp ****         slab->next = slab->prev = nullptr;
 459              		.loc 1 133 9 is_stmt 1
 460              		.loc 1 133 33 is_stmt 0
 461 0278 23300500 		sd	zero,0(a0)
 462              		.loc 1 133 20
 463 027c 23340500 		sd	zero,8(a0)
 464              	.L25:
 134:src/slabAllocator.cpp ****     }
 135:src/slabAllocator.cpp **** }
 465              		.loc 1 135 1
 466 0280 03348100 		ld	s0,8(sp)
 467              		.cfi_remember_state
 468              		.cfi_restore 8
 469              		.cfi_def_cfa 2, 16
 470 0284 13010101 		addi	sp,sp,16
 471              		.cfi_def_cfa_offset 0
 472 0288 67800000 		jr	ra
 473              	.L31:
 474              		.cfi_restore_state
 125:src/slabAllocator.cpp ****         (*slab_head) = slab->next;
 475              		.loc 1 125 9 is_stmt 1
 125:src/slabAllocator.cpp ****         (*slab_head) = slab->next;
 476              		.loc 1 125 18 is_stmt 0
 477 028c 83378500 		ld	a5,8(a0)
 125:src/slabAllocator.cpp ****         (*slab_head) = slab->next;
 478              		.loc 1 125 9
 479 0290 63840700 		beqz	a5,.L27
 125:src/slabAllocator.cpp ****         (*slab_head) = slab->next;
 480              		.loc 1 125 24 is_stmt 1 discriminator 1
GAS LISTING /tmp/ccASzBvH.s 			page 12


 125:src/slabAllocator.cpp ****         (*slab_head) = slab->next;
 481              		.loc 1 125 41 is_stmt 0 discriminator 1
 482 0294 23B00700 		sd	zero,0(a5)
 483              	.L27:
 126:src/slabAllocator.cpp ****         slab->next = slab->prev = nullptr;
 484              		.loc 1 126 9 is_stmt 1
 126:src/slabAllocator.cpp ****         slab->next = slab->prev = nullptr;
 485              		.loc 1 126 30 is_stmt 0
 486 0298 83378500 		ld	a5,8(a0)
 126:src/slabAllocator.cpp ****         slab->next = slab->prev = nullptr;
 487              		.loc 1 126 22
 488 029c 23B0F500 		sd	a5,0(a1)
 127:src/slabAllocator.cpp ****     }
 489              		.loc 1 127 9 is_stmt 1
 127:src/slabAllocator.cpp ****     }
 490              		.loc 1 127 33 is_stmt 0
 491 02a0 23300500 		sd	zero,0(a0)
 127:src/slabAllocator.cpp ****     }
 492              		.loc 1 127 20
 493 02a4 23340500 		sd	zero,8(a0)
 494 02a8 6FF09FFD 		j	.L25
 495              		.cfi_endproc
 496              	.LFE11:
 498              		.align	2
 499              		.globl	_Z16putPartialToFullP12kmem_cache_s
 501              	_Z16putPartialToFullP12kmem_cache_s:
 502              	.LFB12:
 136:src/slabAllocator.cpp **** 
 137:src/slabAllocator.cpp **** void putPartialToFull(kmem_cache_t* cachep)
 138:src/slabAllocator.cpp **** {
 503              		.loc 1 138 1 is_stmt 1
 504              		.cfi_startproc
 505              	.LVL33:
 506 02ac 130101FE 		addi	sp,sp,-32
 507              		.cfi_def_cfa_offset 32
 508 02b0 233C1100 		sd	ra,24(sp)
 509 02b4 23388100 		sd	s0,16(sp)
 510 02b8 23349100 		sd	s1,8(sp)
 511 02bc 23302101 		sd	s2,0(sp)
 512              		.cfi_offset 1, -8
 513              		.cfi_offset 8, -16
 514              		.cfi_offset 9, -24
 515              		.cfi_offset 18, -32
 516 02c0 13040102 		addi	s0,sp,32
 517              		.cfi_def_cfa 8, 0
 518 02c4 93040500 		mv	s1,a0
 139:src/slabAllocator.cpp ****     slab_t* slab = cachep->slabs_partial;
 519              		.loc 1 139 5
 520              		.loc 1 139 13 is_stmt 0
 521 02c8 03390505 		ld	s2,80(a0)
 522              	.LVL34:
 140:src/slabAllocator.cpp ****     removeFromSlabList(slab, &cachep->slabs_partial);
 523              		.loc 1 140 5 is_stmt 1
 524              		.loc 1 140 23 is_stmt 0
 525 02cc 93050505 		addi	a1,a0,80
 526 02d0 13050900 		mv	a0,s2
 527              	.LVL35:
GAS LISTING /tmp/ccASzBvH.s 			page 13


 528 02d4 97000000 		call	_Z18removeFromSlabListP6slab_sPS0_
 528      E7800000 
 529              	.LVL36:
 141:src/slabAllocator.cpp ****     insertIntoSlabList(slab, &cachep->slabs_full);
 530              		.loc 1 141 5 is_stmt 1
 531              		.loc 1 141 23 is_stmt 0
 532 02dc 93858404 		addi	a1,s1,72
 533 02e0 13050900 		mv	a0,s2
 534 02e4 97000000 		call	_Z18insertIntoSlabListP6slab_sPS0_
 534      E7800000 
 535              	.LVL37:
 142:src/slabAllocator.cpp **** }
 536              		.loc 1 142 1
 537 02ec 83308101 		ld	ra,24(sp)
 538              		.cfi_restore 1
 539 02f0 03340101 		ld	s0,16(sp)
 540              		.cfi_restore 8
 541              		.cfi_def_cfa 2, 32
 542 02f4 83348100 		ld	s1,8(sp)
 543              		.cfi_restore 9
 544              	.LVL38:
 545 02f8 03390100 		ld	s2,0(sp)
 546              		.cfi_restore 18
 547              	.LVL39:
 548 02fc 13010102 		addi	sp,sp,32
 549              		.cfi_def_cfa_offset 0
 550 0300 67800000 		jr	ra
 551              		.cfi_endproc
 552              	.LFE12:
 554              		.align	2
 555              		.globl	_Z17putEmptyToPartialP12kmem_cache_s
 557              	_Z17putEmptyToPartialP12kmem_cache_s:
 558              	.LFB13:
 143:src/slabAllocator.cpp **** 
 144:src/slabAllocator.cpp **** void putEmptyToPartial(kmem_cache_t* cachep)
 145:src/slabAllocator.cpp **** {
 559              		.loc 1 145 1 is_stmt 1
 560              		.cfi_startproc
 561              	.LVL40:
 562 0304 130101FE 		addi	sp,sp,-32
 563              		.cfi_def_cfa_offset 32
 564 0308 233C1100 		sd	ra,24(sp)
 565 030c 23388100 		sd	s0,16(sp)
 566 0310 23349100 		sd	s1,8(sp)
 567 0314 23302101 		sd	s2,0(sp)
 568              		.cfi_offset 1, -8
 569              		.cfi_offset 8, -16
 570              		.cfi_offset 9, -24
 571              		.cfi_offset 18, -32
 572 0318 13040102 		addi	s0,sp,32
 573              		.cfi_def_cfa 8, 0
 574 031c 93040500 		mv	s1,a0
 146:src/slabAllocator.cpp ****     slab_t* slab = cachep->slabs_empty;
 575              		.loc 1 146 5
 576              		.loc 1 146 13 is_stmt 0
 577 0320 03390504 		ld	s2,64(a0)
 578              	.LVL41:
GAS LISTING /tmp/ccASzBvH.s 			page 14


 147:src/slabAllocator.cpp ****     removeFromSlabList(slab, &cachep->slabs_empty);
 579              		.loc 1 147 5 is_stmt 1
 580              		.loc 1 147 23 is_stmt 0
 581 0324 93050504 		addi	a1,a0,64
 582 0328 13050900 		mv	a0,s2
 583              	.LVL42:
 584 032c 97000000 		call	_Z18removeFromSlabListP6slab_sPS0_
 584      E7800000 
 585              	.LVL43:
 148:src/slabAllocator.cpp ****     insertIntoSlabList(slab, &cachep->slabs_partial);
 586              		.loc 1 148 5 is_stmt 1
 587              		.loc 1 148 23 is_stmt 0
 588 0334 93850405 		addi	a1,s1,80
 589 0338 13050900 		mv	a0,s2
 590 033c 97000000 		call	_Z18insertIntoSlabListP6slab_sPS0_
 590      E7800000 
 591              	.LVL44:
 149:src/slabAllocator.cpp **** }
 592              		.loc 1 149 1
 593 0344 83308101 		ld	ra,24(sp)
 594              		.cfi_restore 1
 595 0348 03340101 		ld	s0,16(sp)
 596              		.cfi_restore 8
 597              		.cfi_def_cfa 2, 32
 598 034c 83348100 		ld	s1,8(sp)
 599              		.cfi_restore 9
 600              	.LVL45:
 601 0350 03390100 		ld	s2,0(sp)
 602              		.cfi_restore 18
 603              	.LVL46:
 604 0354 13010102 		addi	sp,sp,32
 605              		.cfi_def_cfa_offset 0
 606 0358 67800000 		jr	ra
 607              		.cfi_endproc
 608              	.LFE13:
 610              		.align	2
 611              		.globl	_Z14removeFullSlabP12kmem_cache_sP6slab_s
 613              	_Z14removeFullSlabP12kmem_cache_sP6slab_s:
 614              	.LFB14:
 150:src/slabAllocator.cpp **** 
 151:src/slabAllocator.cpp **** void removeFullSlab(kmem_cache_t* cachep, slab_t* slab)
 152:src/slabAllocator.cpp **** {
 615              		.loc 1 152 1 is_stmt 1
 616              		.cfi_startproc
 617              	.LVL47:
 618 035c 130101FE 		addi	sp,sp,-32
 619              		.cfi_def_cfa_offset 32
 620 0360 233C1100 		sd	ra,24(sp)
 621 0364 23388100 		sd	s0,16(sp)
 622 0368 23349100 		sd	s1,8(sp)
 623 036c 23302101 		sd	s2,0(sp)
 624              		.cfi_offset 1, -8
 625              		.cfi_offset 8, -16
 626              		.cfi_offset 9, -24
 627              		.cfi_offset 18, -32
 628 0370 13040102 		addi	s0,sp,32
 629              		.cfi_def_cfa 8, 0
GAS LISTING /tmp/ccASzBvH.s 			page 15


 630 0374 13090500 		mv	s2,a0
 631 0378 93840500 		mv	s1,a1
 153:src/slabAllocator.cpp ****     removeFromSlabList(slab, &cachep->slabs_full);
 632              		.loc 1 153 5
 633              		.loc 1 153 23 is_stmt 0
 634 037c 93058504 		addi	a1,a0,72
 635              	.LVL48:
 636 0380 13850400 		mv	a0,s1
 637              	.LVL49:
 638 0384 97000000 		call	_Z18removeFromSlabListP6slab_sPS0_
 638      E7800000 
 639              	.LVL50:
 154:src/slabAllocator.cpp ****     insertIntoSlabList(slab, &cachep->slabs_partial);
 640              		.loc 1 154 5 is_stmt 1
 641              		.loc 1 154 23 is_stmt 0
 642 038c 93050905 		addi	a1,s2,80
 643 0390 13850400 		mv	a0,s1
 644 0394 97000000 		call	_Z18insertIntoSlabListP6slab_sPS0_
 644      E7800000 
 645              	.LVL51:
 155:src/slabAllocator.cpp **** }
 646              		.loc 1 155 1
 647 039c 83308101 		ld	ra,24(sp)
 648              		.cfi_restore 1
 649 03a0 03340101 		ld	s0,16(sp)
 650              		.cfi_restore 8
 651              		.cfi_def_cfa 2, 32
 652 03a4 83348100 		ld	s1,8(sp)
 653              		.cfi_restore 9
 654              	.LVL52:
 655 03a8 03390100 		ld	s2,0(sp)
 656              		.cfi_restore 18
 657              	.LVL53:
 658 03ac 13010102 		addi	sp,sp,32
 659              		.cfi_def_cfa_offset 0
 660 03b0 67800000 		jr	ra
 661              		.cfi_endproc
 662              	.LFE14:
 664              		.align	2
 665              		.globl	_Z17removePartialSlabP12kmem_cache_sP6slab_s
 667              	_Z17removePartialSlabP12kmem_cache_sP6slab_s:
 668              	.LFB15:
 156:src/slabAllocator.cpp **** 
 157:src/slabAllocator.cpp **** void removePartialSlab(kmem_cache_t * cachep, slab_t* slab)
 158:src/slabAllocator.cpp **** {
 669              		.loc 1 158 1 is_stmt 1
 670              		.cfi_startproc
 671              	.LVL54:
 672 03b4 130101FE 		addi	sp,sp,-32
 673              		.cfi_def_cfa_offset 32
 674 03b8 233C1100 		sd	ra,24(sp)
 675 03bc 23388100 		sd	s0,16(sp)
 676 03c0 23349100 		sd	s1,8(sp)
 677 03c4 23302101 		sd	s2,0(sp)
 678              		.cfi_offset 1, -8
 679              		.cfi_offset 8, -16
 680              		.cfi_offset 9, -24
GAS LISTING /tmp/ccASzBvH.s 			page 16


 681              		.cfi_offset 18, -32
 682 03c8 13040102 		addi	s0,sp,32
 683              		.cfi_def_cfa 8, 0
 684 03cc 13090500 		mv	s2,a0
 685 03d0 93840500 		mv	s1,a1
 159:src/slabAllocator.cpp ****     removeFromSlabList(slab, &cachep->slabs_partial);
 686              		.loc 1 159 5
 687              		.loc 1 159 23 is_stmt 0
 688 03d4 93050505 		addi	a1,a0,80
 689              	.LVL55:
 690 03d8 13850400 		mv	a0,s1
 691              	.LVL56:
 692 03dc 97000000 		call	_Z18removeFromSlabListP6slab_sPS0_
 692      E7800000 
 693              	.LVL57:
 160:src/slabAllocator.cpp ****     insertIntoSlabList(slab, &cachep->slabs_empty);
 694              		.loc 1 160 5 is_stmt 1
 695              		.loc 1 160 23 is_stmt 0
 696 03e4 93050904 		addi	a1,s2,64
 697 03e8 13850400 		mv	a0,s1
 698 03ec 97000000 		call	_Z18insertIntoSlabListP6slab_sPS0_
 698      E7800000 
 699              	.LVL58:
 161:src/slabAllocator.cpp **** }
 700              		.loc 1 161 1
 701 03f4 83308101 		ld	ra,24(sp)
 702              		.cfi_restore 1
 703 03f8 03340101 		ld	s0,16(sp)
 704              		.cfi_restore 8
 705              		.cfi_def_cfa 2, 32
 706 03fc 83348100 		ld	s1,8(sp)
 707              		.cfi_restore 9
 708              	.LVL59:
 709 0400 03390100 		ld	s2,0(sp)
 710              		.cfi_restore 18
 711              	.LVL60:
 712 0404 13010102 		addi	sp,sp,32
 713              		.cfi_def_cfa_offset 0
 714 0408 67800000 		jr	ra
 715              		.cfi_endproc
 716              	.LFE15:
 718              		.align	2
 719              		.globl	_Z12allocateSlabP12kmem_cache_s
 721              	_Z12allocateSlabP12kmem_cache_s:
 722              	.LFB16:
 162:src/slabAllocator.cpp **** 
 163:src/slabAllocator.cpp **** void allocateSlab(kmem_cache_t* cachep)
 164:src/slabAllocator.cpp **** {
 723              		.loc 1 164 1 is_stmt 1
 724              		.cfi_startproc
 725              	.LVL61:
 726 040c 130101FE 		addi	sp,sp,-32
 727              		.cfi_def_cfa_offset 32
 728 0410 233C1100 		sd	ra,24(sp)
 729 0414 23388100 		sd	s0,16(sp)
 730 0418 23349100 		sd	s1,8(sp)
 731              		.cfi_offset 1, -8
GAS LISTING /tmp/ccASzBvH.s 			page 17


 732              		.cfi_offset 8, -16
 733              		.cfi_offset 9, -24
 734 041c 13040102 		addi	s0,sp,32
 735              		.cfi_def_cfa 8, 0
 736 0420 93040500 		mv	s1,a0
 165:src/slabAllocator.cpp ****     slab_t* newSlab = (slab_t*)buddy_alloc(slabAllocator->buddy,cachep->slab_size);
 737              		.loc 1 165 5
 738              		.loc 1 165 43 is_stmt 0
 739 0424 83358505 		ld	a1,88(a0)
 740 0428 97070000 		ld	a5,.LANCHOR0
 740      83B70700 
 741 0430 03B50700 		ld	a0,0(a5)
 742              	.LVL62:
 743 0434 97000000 		call	_Z11buddy_allocP14buddyAllocatorm@plt
 743      E7800000 
 744              	.LVL63:
 166:src/slabAllocator.cpp ****     newSlab->next = cachep->slabs_empty;
 745              		.loc 1 166 5 is_stmt 1
 746              		.loc 1 166 29 is_stmt 0
 747 043c 83B70404 		ld	a5,64(s1)
 748              		.loc 1 166 19
 749 0440 2334F500 		sd	a5,8(a0)
 167:src/slabAllocator.cpp ****     if(cachep->slabs_empty != nullptr)
 750              		.loc 1 167 5 is_stmt 1
 751 0444 63840700 		beqz	a5,.L41
 168:src/slabAllocator.cpp ****         cachep->slabs_empty->prev = newSlab;
 752              		.loc 1 168 9
 753              		.loc 1 168 35 is_stmt 0
 754 0448 23B0A700 		sd	a0,0(a5)
 755              	.L41:
 169:src/slabAllocator.cpp ****     cachep->slabs_empty = newSlab;
 756              		.loc 1 169 5 is_stmt 1
 757              		.loc 1 169 25 is_stmt 0
 758 044c 23B0A404 		sd	a0,64(s1)
 170:src/slabAllocator.cpp ****     newSlab->prev = nullptr;
 759              		.loc 1 170 5 is_stmt 1
 760              		.loc 1 170 19 is_stmt 0
 761 0450 23300500 		sd	zero,0(a0)
 171:src/slabAllocator.cpp ****     newSlab->numOfAllocatedObjects = 0;
 762              		.loc 1 171 5 is_stmt 1
 763              		.loc 1 171 36 is_stmt 0
 764 0454 23300502 		sd	zero,32(a0)
 172:src/slabAllocator.cpp ****     newSlab->owner = cachep;
 765              		.loc 1 172 5 is_stmt 1
 766              		.loc 1 172 20 is_stmt 0
 767 0458 23389500 		sd	s1,16(a0)
 173:src/slabAllocator.cpp ****     size_t sizeInBytes = cachep->slab_size*BLOCK_SIZE;
 768              		.loc 1 173 5 is_stmt 1
 769              		.loc 1 173 34 is_stmt 0
 770 045c 83B68405 		ld	a3,88(s1)
 771              		.loc 1 173 12
 772 0460 9396C600 		slli	a3,a3,12
 773              	.LVL64:
 174:src/slabAllocator.cpp ****     newSlab->numOfObjects = (sizeInBytes - sizeof(slab_t)) / cachep->obj_size; // TODO can this par
 774              		.loc 1 174 5 is_stmt 1
 775              		.loc 1 174 42 is_stmt 0
 776 0464 938686FB 		addi	a3,a3,-72
GAS LISTING /tmp/ccASzBvH.s 			page 18


 777              	.LVL65:
 778              		.loc 1 174 70
 779 0468 83B70406 		ld	a5,96(s1)
 780              		.loc 1 174 60
 781 046c B3D6F602 		divu	a3,a3,a5
 782              	.LVL66:
 783              		.loc 1 174 27
 784 0470 233CD500 		sd	a3,24(a0)
 785              	.LVL67:
 175:src/slabAllocator.cpp ****     for(size_t i = 0; i < (newSlab->numOfObjects + 7) / 8;i++)
 786              		.loc 1 175 5 is_stmt 1
 787              	.LBB6:
 788              		.loc 1 175 16 is_stmt 0
 789 0474 13070000 		li	a4,0
 790              	.LVL68:
 791              	.L43:
 792              		.loc 1 175 25 is_stmt 1 discriminator 3
 793              		.loc 1 175 50 is_stmt 0 discriminator 3
 794 0478 93877600 		addi	a5,a3,7
 795              		.loc 1 175 55 discriminator 3
 796 047c 93D73700 		srli	a5,a5,3
 797              		.loc 1 175 25 discriminator 3
 798 0480 637AF700 		bleu	a5,a4,.L40
 176:src/slabAllocator.cpp ****         newSlab->allocated[i] = 0;
 799              		.loc 1 176 9 is_stmt 1 discriminator 2
 800              		.loc 1 176 31 is_stmt 0 discriminator 2
 801 0484 B307E500 		add	a5,a0,a4
 802 0488 23840702 		sb	zero,40(a5)
 175:src/slabAllocator.cpp ****     for(size_t i = 0; i < (newSlab->numOfObjects + 7) / 8;i++)
 803              		.loc 1 175 5 is_stmt 1 discriminator 2
 804 048c 13071700 		addi	a4,a4,1
 805              	.LVL69:
 806 0490 6FF09FFE 		j	.L43
 807              	.L40:
 808              	.LBE6:
 177:src/slabAllocator.cpp **** }
 809              		.loc 1 177 1 is_stmt 0
 810 0494 83308101 		ld	ra,24(sp)
 811              		.cfi_restore 1
 812 0498 03340101 		ld	s0,16(sp)
 813              		.cfi_restore 8
 814              		.cfi_def_cfa 2, 32
 815 049c 83348100 		ld	s1,8(sp)
 816              		.cfi_restore 9
 817              	.LVL70:
 818 04a0 13010102 		addi	sp,sp,32
 819              		.cfi_def_cfa_offset 0
 820 04a4 67800000 		jr	ra
 821              		.cfi_endproc
 822              	.LFE16:
 824              		.align	2
 825              		.globl	_Z18getOptimalSlabSizem
 827              	_Z18getOptimalSlabSizem:
 828              	.LFB17:
 178:src/slabAllocator.cpp **** 
 179:src/slabAllocator.cpp **** size_t getOptimalSlabSize(size_t obj_size)
 180:src/slabAllocator.cpp **** {
GAS LISTING /tmp/ccASzBvH.s 			page 19


 829              		.loc 1 180 1 is_stmt 1
 830              		.cfi_startproc
 831              	.LVL71:
 832 04a8 130101FF 		addi	sp,sp,-16
 833              		.cfi_def_cfa_offset 16
 834 04ac 23348100 		sd	s0,8(sp)
 835              		.cfi_offset 8, -8
 836 04b0 13040101 		addi	s0,sp,16
 837              		.cfi_def_cfa 8, 0
 181:src/slabAllocator.cpp ****     size_t bestSize = BLOCK_SIZE;
 838              		.loc 1 181 5
 839              	.LVL72:
 840              		.loc 1 181 12 is_stmt 0
 841 04b4 B7170000 		li	a5,4096
 842              	.LVL73:
 843              	.L47:
 182:src/slabAllocator.cpp ****     while(bestSize < obj_size + sizeof(slab_t))
 844              		.loc 1 182 5 is_stmt 1
 845              		.loc 1 182 20
 846              		.loc 1 182 31 is_stmt 0
 847 04b8 13078504 		addi	a4,a0,72
 848              		.loc 1 182 20
 849 04bc 63F6E700 		bleu	a4,a5,.L46
 183:src/slabAllocator.cpp ****         bestSize<<=1;
 850              		.loc 1 183 9 is_stmt 1
 851              		.loc 1 183 17 is_stmt 0
 852 04c0 93971700 		slli	a5,a5,1
 853              	.LVL74:
 182:src/slabAllocator.cpp ****     while(bestSize < obj_size + sizeof(slab_t))
 854              		.loc 1 182 5
 855 04c4 6FF05FFF 		j	.L47
 856              	.L46:
 184:src/slabAllocator.cpp ****     size_t optimalWaste = (bestSize - sizeof(slab_t)) % obj_size;
 857              		.loc 1 184 5 is_stmt 1
 858              		.loc 1 184 37 is_stmt 0
 859 04c8 938587FB 		addi	a1,a5,-72
 860              		.loc 1 184 12
 861 04cc B3F5A502 		remu	a1,a1,a0
 862              	.LVL75:
 185:src/slabAllocator.cpp **** 
 186:src/slabAllocator.cpp ****     for(int i = 1;i<=4;i++) //TODO change constants
 863              		.loc 1 186 5 is_stmt 1
 864              	.LBB7:
 865              		.loc 1 186 13 is_stmt 0
 866 04d0 13071000 		li	a4,1
 867 04d4 6F008000 		j	.L50
 868              	.LVL76:
 869              	.L49:
 870              		.loc 1 186 5 is_stmt 1 discriminator 2
 871 04d8 1B071700 		addiw	a4,a4,1
 872              	.LVL77:
 873              	.L50:
 874              		.loc 1 186 20 discriminator 1
 875 04dc 93064000 		li	a3,4
 876 04e0 63C0E602 		bgt	a4,a3,.L48
 877              	.LBB8:
 187:src/slabAllocator.cpp ****     {
GAS LISTING /tmp/ccASzBvH.s 			page 20


 188:src/slabAllocator.cpp ****         size_t newSize = bestSize << i;
 878              		.loc 1 188 9
 879              		.loc 1 188 16 is_stmt 0
 880 04e4 3396E700 		sll	a2,a5,a4
 881              	.LVL78:
 189:src/slabAllocator.cpp ****         size_t newWaste = (newSize - sizeof(slab_t)) % obj_size;
 882              		.loc 1 189 9 is_stmt 1
 883              		.loc 1 189 36 is_stmt 0
 884 04e8 930686FB 		addi	a3,a2,-72
 885              		.loc 1 189 16
 886 04ec B3F6A602 		remu	a3,a3,a0
 887              	.LVL79:
 190:src/slabAllocator.cpp ****         if(newWaste < optimalWaste)
 888              		.loc 1 190 9 is_stmt 1
 889 04f0 E3F4B6FE 		bleu	a1,a3,.L49
 191:src/slabAllocator.cpp ****         {
 192:src/slabAllocator.cpp ****             optimalWaste = newWaste;
 890              		.loc 1 192 26 is_stmt 0
 891 04f4 93850600 		mv	a1,a3
 892              	.LVL80:
 193:src/slabAllocator.cpp ****             bestSize = newSize;
 893              		.loc 1 193 22
 894 04f8 93070600 		mv	a5,a2
 895              	.LVL81:
 896 04fc 6FF0DFFD 		j	.L49
 897              	.LVL82:
 898              	.L48:
 899              	.LBE8:
 900              	.LBE7:
 194:src/slabAllocator.cpp ****         }
 195:src/slabAllocator.cpp ****     }
 196:src/slabAllocator.cpp **** 
 197:src/slabAllocator.cpp ****     return bestSize / BLOCK_SIZE;
 901              		.loc 1 197 5 is_stmt 1
 198:src/slabAllocator.cpp **** }
 902              		.loc 1 198 1 is_stmt 0
 903 0500 13D5C700 		srli	a0,a5,12
 904              	.LVL83:
 905 0504 03348100 		ld	s0,8(sp)
 906              		.cfi_restore 8
 907              		.cfi_def_cfa 2, 16
 908 0508 13010101 		addi	sp,sp,16
 909              		.cfi_def_cfa_offset 0
 910 050c 67800000 		jr	ra
 911              		.cfi_endproc
 912              	.LFE17:
 914              		.align	2
 915              		.globl	_Z8findSlabP12kmem_cache_sPKv
 917              	_Z8findSlabP12kmem_cache_sPKv:
 918              	.LFB18:
 199:src/slabAllocator.cpp **** 
 200:src/slabAllocator.cpp **** //finds the slab where objp is
 201:src/slabAllocator.cpp **** slab_t* findSlab(kmem_cache_t* cachep, const void* objp)
 202:src/slabAllocator.cpp **** {
 919              		.loc 1 202 1 is_stmt 1
 920              		.cfi_startproc
 921              	.LVL84:
GAS LISTING /tmp/ccASzBvH.s 			page 21


 922 0510 130101FF 		addi	sp,sp,-16
 923              		.cfi_def_cfa_offset 16
 924 0514 23348100 		sd	s0,8(sp)
 925              		.cfi_offset 8, -8
 926 0518 13040101 		addi	s0,sp,16
 927              		.cfi_def_cfa 8, 0
 928 051c 93060500 		mv	a3,a0
 203:src/slabAllocator.cpp ****     slab_t* slab = cachep->slabs_full;
 929              		.loc 1 203 5
 930              		.loc 1 203 13 is_stmt 0
 931 0520 03358504 		ld	a0,72(a0)
 932              	.LVL85:
 933 0524 6F008000 		j	.L57
 934              	.LVL86:
 935              	.L55:
 936              	.LBB9:
 204:src/slabAllocator.cpp ****     while(slab != nullptr)
 205:src/slabAllocator.cpp ****     {
 206:src/slabAllocator.cpp ****         size_t endAddr = (size_t)slab + sizeof(slab_t) + slab->numOfObjects*slab->owner->obj_size;
 207:src/slabAllocator.cpp ****         if((size_t)objp > (size_t)slab && (size_t)objp < endAddr)
 208:src/slabAllocator.cpp ****             return slab;
 209:src/slabAllocator.cpp ****         slab = slab->next;
 937              		.loc 1 209 9 is_stmt 1
 938              		.loc 1 209 14 is_stmt 0
 939 0528 03358500 		ld	a0,8(a0)
 940              	.LVL87:
 941              	.L57:
 942              	.LBE9:
 204:src/slabAllocator.cpp ****     while(slab != nullptr)
 943              		.loc 1 204 5 is_stmt 1
 204:src/slabAllocator.cpp ****     while(slab != nullptr)
 944              		.loc 1 204 16
 945 052c 63080502 		beqz	a0,.L54
 946              	.LBB10:
 206:src/slabAllocator.cpp ****         if((size_t)objp > (size_t)slab && (size_t)objp < endAddr)
 947              		.loc 1 206 9
 206:src/slabAllocator.cpp ****         if((size_t)objp > (size_t)slab && (size_t)objp < endAddr)
 948              		.loc 1 206 64 is_stmt 0
 949 0530 83378501 		ld	a5,24(a0)
 206:src/slabAllocator.cpp ****         if((size_t)objp > (size_t)slab && (size_t)objp < endAddr)
 950              		.loc 1 206 83
 951 0534 03370501 		ld	a4,16(a0)
 206:src/slabAllocator.cpp ****         if((size_t)objp > (size_t)slab && (size_t)objp < endAddr)
 952              		.loc 1 206 90
 953 0538 03370706 		ld	a4,96(a4)
 206:src/slabAllocator.cpp ****         if((size_t)objp > (size_t)slab && (size_t)objp < endAddr)
 954              		.loc 1 206 76
 955 053c B387E702 		mul	a5,a5,a4
 206:src/slabAllocator.cpp ****         if((size_t)objp > (size_t)slab && (size_t)objp < endAddr)
 956              		.loc 1 206 56
 957 0540 B387A700 		add	a5,a5,a0
 206:src/slabAllocator.cpp ****         if((size_t)objp > (size_t)slab && (size_t)objp < endAddr)
 958              		.loc 1 206 16
 959 0544 93878704 		addi	a5,a5,72
 960              	.LVL88:
 207:src/slabAllocator.cpp ****             return slab;
 961              		.loc 1 207 9 is_stmt 1
GAS LISTING /tmp/ccASzBvH.s 			page 22


 962 0548 E370B5FE 		bgeu	a0,a1,.L55
 207:src/slabAllocator.cpp ****             return slab;
 963              		.loc 1 207 40 is_stmt 0 discriminator 1
 964 054c E3FEF5FC 		bgeu	a1,a5,.L55
 965              	.LVL89:
 966              	.L53:
 967              	.LBE10:
 210:src/slabAllocator.cpp ****     }
 211:src/slabAllocator.cpp **** 
 212:src/slabAllocator.cpp ****     slab = cachep->slabs_partial;
 213:src/slabAllocator.cpp ****     while(slab != nullptr)
 214:src/slabAllocator.cpp ****     {
 215:src/slabAllocator.cpp ****         size_t endAddr = (size_t)slab + sizeof(slab_t) + slab->numOfObjects*slab->owner->obj_size;
 216:src/slabAllocator.cpp ****         if((size_t)objp > (size_t)slab && (size_t)objp < endAddr)
 217:src/slabAllocator.cpp ****             return slab;
 218:src/slabAllocator.cpp ****         slab = slab->next;
 219:src/slabAllocator.cpp ****     }
 220:src/slabAllocator.cpp **** 
 221:src/slabAllocator.cpp ****     return nullptr;
 222:src/slabAllocator.cpp **** }
 968              		.loc 1 222 1
 969 0550 03348100 		ld	s0,8(sp)
 970              		.cfi_remember_state
 971              		.cfi_restore 8
 972              		.cfi_def_cfa 2, 16
 973 0554 13010101 		addi	sp,sp,16
 974              		.cfi_def_cfa_offset 0
 975 0558 67800000 		jr	ra
 976              	.L54:
 977              		.cfi_restore_state
 212:src/slabAllocator.cpp ****     while(slab != nullptr)
 978              		.loc 1 212 5 is_stmt 1
 212:src/slabAllocator.cpp ****     while(slab != nullptr)
 979              		.loc 1 212 10 is_stmt 0
 980 055c 03B50605 		ld	a0,80(a3)
 981              	.LVL90:
 982 0560 6F008000 		j	.L59
 983              	.LVL91:
 984              	.L58:
 985              	.LBB11:
 218:src/slabAllocator.cpp ****     }
 986              		.loc 1 218 9 is_stmt 1
 218:src/slabAllocator.cpp ****     }
 987              		.loc 1 218 14 is_stmt 0
 988 0564 03358500 		ld	a0,8(a0)
 989              	.LVL92:
 990              	.L59:
 991              	.LBE11:
 213:src/slabAllocator.cpp ****     {
 992              		.loc 1 213 5 is_stmt 1
 213:src/slabAllocator.cpp ****     {
 993              		.loc 1 213 16
 994 0568 E30405FE 		beqz	a0,.L53
 995              	.LBB12:
 215:src/slabAllocator.cpp ****         if((size_t)objp > (size_t)slab && (size_t)objp < endAddr)
 996              		.loc 1 215 9
 215:src/slabAllocator.cpp ****         if((size_t)objp > (size_t)slab && (size_t)objp < endAddr)
GAS LISTING /tmp/ccASzBvH.s 			page 23


 997              		.loc 1 215 64 is_stmt 0
 998 056c 83378501 		ld	a5,24(a0)
 215:src/slabAllocator.cpp ****         if((size_t)objp > (size_t)slab && (size_t)objp < endAddr)
 999              		.loc 1 215 83
 1000 0570 03370501 		ld	a4,16(a0)
 215:src/slabAllocator.cpp ****         if((size_t)objp > (size_t)slab && (size_t)objp < endAddr)
 1001              		.loc 1 215 90
 1002 0574 03370706 		ld	a4,96(a4)
 215:src/slabAllocator.cpp ****         if((size_t)objp > (size_t)slab && (size_t)objp < endAddr)
 1003              		.loc 1 215 76
 1004 0578 B387E702 		mul	a5,a5,a4
 215:src/slabAllocator.cpp ****         if((size_t)objp > (size_t)slab && (size_t)objp < endAddr)
 1005              		.loc 1 215 56
 1006 057c B387A700 		add	a5,a5,a0
 215:src/slabAllocator.cpp ****         if((size_t)objp > (size_t)slab && (size_t)objp < endAddr)
 1007              		.loc 1 215 16
 1008 0580 93878704 		addi	a5,a5,72
 1009              	.LVL93:
 216:src/slabAllocator.cpp ****             return slab;
 1010              		.loc 1 216 9 is_stmt 1
 1011 0584 E370B5FE 		bgeu	a0,a1,.L58
 216:src/slabAllocator.cpp ****             return slab;
 1012              		.loc 1 216 40 is_stmt 0 discriminator 1
 1013 0588 E3FEF5FC 		bgeu	a1,a5,.L58
 1014 058c 6FF05FFC 		j	.L53
 1015              	.LBE12:
 1016              		.cfi_endproc
 1017              	.LFE18:
 1019              		.align	2
 1020              		.globl	_Z19resetAllocatedIndexP6slab_si
 1022              	_Z19resetAllocatedIndexP6slab_si:
 1023              	.LFB19:
 223:src/slabAllocator.cpp **** 
 224:src/slabAllocator.cpp **** void resetAllocatedIndex(slab_t* slab, int index)
 225:src/slabAllocator.cpp **** {
 1024              		.loc 1 225 1 is_stmt 1
 1025              		.cfi_startproc
 1026              	.LVL94:
 1027 0590 130101FF 		addi	sp,sp,-16
 1028              		.cfi_def_cfa_offset 16
 1029 0594 23348100 		sd	s0,8(sp)
 1030              		.cfi_offset 8, -8
 1031 0598 13040101 		addi	s0,sp,16
 1032              		.cfi_def_cfa 8, 0
 226:src/slabAllocator.cpp ****     slab->allocated[index / 8]=(uint8)slab->allocated[index/8] & ~(1 << (index%8));
 1033              		.loc 1 226 5
 1034              		.loc 1 226 60 is_stmt 0
 1035 059c 9BD7F541 		sraiw	a5,a1,31
 1036 05a0 9BD7D701 		srliw	a5,a5,29
 1037 05a4 BB85B700 		addw	a1,a5,a1
 1038              	.LVL95:
 1039 05a8 1BD73540 		sraiw	a4,a1,3
 1040              		.loc 1 226 62
 1041 05ac 3305E500 		add	a0,a0,a4
 1042              	.LVL96:
 1043              		.loc 1 226 32
 1044 05b0 03078502 		lb	a4,40(a0)
GAS LISTING /tmp/ccASzBvH.s 			page 24


 1045              		.loc 1 226 79
 1046 05b4 93F57500 		andi	a1,a1,7
 1047 05b8 BB85F540 		subw	a1,a1,a5
 1048              		.loc 1 226 70
 1049 05bc 93071000 		li	a5,1
 1050 05c0 BB95B700 		sllw	a1,a5,a1
 1051              		.loc 1 226 64
 1052 05c4 93C5F5FF 		not	a1,a1
 1053 05c8 B375B700 		and	a1,a4,a1
 1054              		.loc 1 226 31
 1055 05cc 2304B502 		sb	a1,40(a0)
 227:src/slabAllocator.cpp **** }
 1056              		.loc 1 227 1
 1057 05d0 03348100 		ld	s0,8(sp)
 1058              		.cfi_restore 8
 1059              		.cfi_def_cfa 2, 16
 1060 05d4 13010101 		addi	sp,sp,16
 1061              		.cfi_def_cfa_offset 0
 1062 05d8 67800000 		jr	ra
 1063              		.cfi_endproc
 1064              	.LFE19:
 1066              		.section	.rodata.str1.8
 1067 002a 00000000 		.align	3
 1067      0000
 1068              	.LC3:
 1069 0030 4F6E6520 		.string	"One slab info---------\n"
 1069      736C6162 
 1069      20696E66 
 1069      6F2D2D2D 
 1069      2D2D2D2D 
 1070              		.align	3
 1071              	.LC4:
 1072 0048 536C6162 		.string	"Slab address "
 1072      20616464 
 1072      72657373 
 1072      2000
 1073 0056 0000     		.align	3
 1074              	.LC5:
 1075 0058 4E756D62 		.string	"Number of allocated objects "
 1075      6572206F 
 1075      6620616C 
 1075      6C6F6361 
 1075      74656420 
 1076 0075 000000   		.align	3
 1077              	.LC6:
 1078 0078 4E756D62 		.string	"Number of objects "
 1078      6572206F 
 1078      66206F62 
 1078      6A656374 
 1078      732000
 1079              		.text
 1080              		.align	2
 1081              		.globl	_Z13printSlabInfoP6slab_s
 1083              	_Z13printSlabInfoP6slab_s:
 1084              	.LFB20:
 228:src/slabAllocator.cpp **** 
 229:src/slabAllocator.cpp **** void printSlabInfo(slab_t* slab)
GAS LISTING /tmp/ccASzBvH.s 			page 25


 230:src/slabAllocator.cpp **** {
 1085              		.loc 1 230 1 is_stmt 1
 1086              		.cfi_startproc
 1087              	.LVL97:
 1088 05dc 130101FE 		addi	sp,sp,-32
 1089              		.cfi_def_cfa_offset 32
 1090 05e0 233C1100 		sd	ra,24(sp)
 1091 05e4 23388100 		sd	s0,16(sp)
 1092 05e8 23349100 		sd	s1,8(sp)
 1093 05ec 23302101 		sd	s2,0(sp)
 1094              		.cfi_offset 1, -8
 1095              		.cfi_offset 8, -16
 1096              		.cfi_offset 9, -24
 1097              		.cfi_offset 18, -32
 1098 05f0 13040102 		addi	s0,sp,32
 1099              		.cfi_def_cfa 8, 0
 1100 05f4 13090500 		mv	s2,a0
 231:src/slabAllocator.cpp ****     KConsole::trapPrintString("One slab info---------\n");
 1101              		.loc 1 231 5
 1102              		.loc 1 231 30 is_stmt 0
 1103 05f8 17050000 		lla	a0,.LC3
 1103      13050500 
 1104              	.LVL98:
 1105 0600 97000000 		call	_ZN8KConsole15trapPrintStringEPKc@plt
 1105      E7800000 
 1106              	.LVL99:
 232:src/slabAllocator.cpp ****     KConsole::trapPrintString("Slab address ");
 1107              		.loc 1 232 5 is_stmt 1
 1108              		.loc 1 232 30 is_stmt 0
 1109 0608 17050000 		lla	a0,.LC4
 1109      13050500 
 1110 0610 97000000 		call	_ZN8KConsole15trapPrintStringEPKc@plt
 1110      E7800000 
 1111              	.LVL100:
 233:src/slabAllocator.cpp ****     KConsole::trapPrintInt((size_t)slab, 16);KConsole::trapPrintString("\n");
 1112              		.loc 1 233 5 is_stmt 1
 1113              		.loc 1 233 27 is_stmt 0
 1114 0618 13060000 		li	a2,0
 1115 061c 93050001 		li	a1,16
 1116 0620 13050900 		mv	a0,s2
 1117 0624 97000000 		call	_ZN8KConsole12trapPrintIntEmii@plt
 1117      E7800000 
 1118              	.LVL101:
 1119              		.loc 1 233 46 is_stmt 1
 1120              		.loc 1 233 71 is_stmt 0
 1121 062c 17050000 		lla	a0,.LC2
 1121      13050500 
 1122 0634 97000000 		call	_ZN8KConsole15trapPrintStringEPKc@plt
 1122      E7800000 
 1123              	.LVL102:
 234:src/slabAllocator.cpp ****     KConsole::trapPrintString("Number of allocated objects ");
 1124              		.loc 1 234 5 is_stmt 1
 1125              		.loc 1 234 30 is_stmt 0
 1126 063c 17050000 		lla	a0,.LC5
 1126      13050500 
 1127 0644 97000000 		call	_ZN8KConsole15trapPrintStringEPKc@plt
 1127      E7800000 
GAS LISTING /tmp/ccASzBvH.s 			page 26


 1128              	.LVL103:
 235:src/slabAllocator.cpp ****     KConsole::trapPrintInt(slab->numOfAllocatedObjects);KConsole::trapPrintString("\n");
 1129              		.loc 1 235 5 is_stmt 1
 1130              		.loc 1 235 27 is_stmt 0
 1131 064c 13060000 		li	a2,0
 1132 0650 9305A000 		li	a1,10
 1133 0654 03350902 		ld	a0,32(s2)
 1134 0658 97000000 		call	_ZN8KConsole12trapPrintIntEmii@plt
 1134      E7800000 
 1135              	.LVL104:
 1136              		.loc 1 235 57 is_stmt 1
 1137              		.loc 1 235 82 is_stmt 0
 1138 0660 17050000 		lla	a0,.LC2
 1138      13050500 
 1139 0668 97000000 		call	_ZN8KConsole15trapPrintStringEPKc@plt
 1139      E7800000 
 1140              	.LVL105:
 236:src/slabAllocator.cpp ****     KConsole::trapPrintString("Number of objects ");
 1141              		.loc 1 236 5 is_stmt 1
 1142              		.loc 1 236 30 is_stmt 0
 1143 0670 17050000 		lla	a0,.LC6
 1143      13050500 
 1144 0678 97000000 		call	_ZN8KConsole15trapPrintStringEPKc@plt
 1144      E7800000 
 1145              	.LVL106:
 237:src/slabAllocator.cpp ****     KConsole::trapPrintInt(slab->numOfObjects);KConsole::trapPrintString("\n");
 1146              		.loc 1 237 5 is_stmt 1
 1147              		.loc 1 237 27 is_stmt 0
 1148 0680 13060000 		li	a2,0
 1149 0684 9305A000 		li	a1,10
 1150 0688 03358901 		ld	a0,24(s2)
 1151 068c 97000000 		call	_ZN8KConsole12trapPrintIntEmii@plt
 1151      E7800000 
 1152              	.LVL107:
 1153              		.loc 1 237 48 is_stmt 1
 1154              		.loc 1 237 73 is_stmt 0
 1155 0694 17050000 		lla	a0,.LC2
 1155      13050500 
 1156 069c 97000000 		call	_ZN8KConsole15trapPrintStringEPKc@plt
 1156      E7800000 
 1157              	.LVL108:
 238:src/slabAllocator.cpp ****     for(size_t i = 0;i < (slab->numOfObjects + 7) / 8;i++)
 1158              		.loc 1 238 5 is_stmt 1
 1159              	.LBB13:
 1160              		.loc 1 238 16 is_stmt 0
 1161 06a4 93040000 		li	s1,0
 1162              	.LVL109:
 1163              	.L65:
 1164              		.loc 1 238 24 is_stmt 1 discriminator 3
 1165              		.loc 1 238 33 is_stmt 0 discriminator 3
 1166 06a8 83378901 		ld	a5,24(s2)
 1167              		.loc 1 238 46 discriminator 3
 1168 06ac 93877700 		addi	a5,a5,7
 1169              		.loc 1 238 51 discriminator 3
 1170 06b0 93D73700 		srli	a5,a5,3
 1171              		.loc 1 238 24 discriminator 3
 1172 06b4 63FAF402 		bleu	a5,s1,.L63
GAS LISTING /tmp/ccASzBvH.s 			page 27


 239:src/slabAllocator.cpp ****     {
 240:src/slabAllocator.cpp ****         KConsole::trapPrintInt((size_t)slab->allocated[i], 16);
 1173              		.loc 1 240 9 is_stmt 1 discriminator 2
 1174              		.loc 1 240 57 is_stmt 0 discriminator 2
 1175 06b8 B3079900 		add	a5,s2,s1
 1176              		.loc 1 240 31 discriminator 2
 1177 06bc 13060000 		li	a2,0
 1178 06c0 93050001 		li	a1,16
 1179 06c4 03C58702 		lbu	a0,40(a5)
 1180 06c8 97000000 		call	_ZN8KConsole12trapPrintIntEmii@plt
 1180      E7800000 
 1181              	.LVL110:
 241:src/slabAllocator.cpp ****         KConsole::trapPrintString("\n");
 1182              		.loc 1 241 9 is_stmt 1 discriminator 2
 1183              		.loc 1 241 34 is_stmt 0 discriminator 2
 1184 06d0 17050000 		lla	a0,.LC2
 1184      13050500 
 1185 06d8 97000000 		call	_ZN8KConsole15trapPrintStringEPKc@plt
 1185      E7800000 
 1186              	.LVL111:
 238:src/slabAllocator.cpp ****     for(size_t i = 0;i < (slab->numOfObjects + 7) / 8;i++)
 1187              		.loc 1 238 5 is_stmt 1 discriminator 2
 1188 06e0 93841400 		addi	s1,s1,1
 1189              	.LVL112:
 1190 06e4 6FF05FFC 		j	.L65
 1191              	.L63:
 1192              	.LBE13:
 242:src/slabAllocator.cpp ****     }
 243:src/slabAllocator.cpp **** }
 1193              		.loc 1 243 1 is_stmt 0
 1194 06e8 83308101 		ld	ra,24(sp)
 1195              		.cfi_restore 1
 1196 06ec 03340101 		ld	s0,16(sp)
 1197              		.cfi_restore 8
 1198              		.cfi_def_cfa 2, 32
 1199 06f0 83348100 		ld	s1,8(sp)
 1200              		.cfi_restore 9
 1201              	.LVL113:
 1202 06f4 03390100 		ld	s2,0(sp)
 1203              		.cfi_restore 18
 1204              	.LVL114:
 1205 06f8 13010102 		addi	sp,sp,32
 1206              		.cfi_def_cfa_offset 0
 1207 06fc 67800000 		jr	ra
 1208              		.cfi_endproc
 1209              	.LFE20:
 1211              		.section	.rodata.str1.8
 1212 008b 00000000 		.align	3
 1212      00
 1213              	.LC7:
 1214 0090 6F6B206A 		.string	"ok je index\n"
 1214      6520696E 
 1214      6465780A 
 1214      00
 1215              		.text
 1216              		.align	2
 1217              		.globl	_Z16free_slab_objectP6slab_sPKv
GAS LISTING /tmp/ccASzBvH.s 			page 28


 1219              	_Z16free_slab_objectP6slab_sPKv:
 1220              	.LFB21:
 244:src/slabAllocator.cpp **** 
 245:src/slabAllocator.cpp **** void free_slab_object(slab_t* slab, const void* objp)
 246:src/slabAllocator.cpp **** {
 1221              		.loc 1 246 1 is_stmt 1
 1222              		.cfi_startproc
 1223              	.LVL115:
 1224 0700 130101FE 		addi	sp,sp,-32
 1225              		.cfi_def_cfa_offset 32
 1226 0704 233C1100 		sd	ra,24(sp)
 1227 0708 23388100 		sd	s0,16(sp)
 1228 070c 23349100 		sd	s1,8(sp)
 1229 0710 23302101 		sd	s2,0(sp)
 1230              		.cfi_offset 1, -8
 1231              		.cfi_offset 8, -16
 1232              		.cfi_offset 9, -24
 1233              		.cfi_offset 18, -32
 1234 0714 13040102 		addi	s0,sp,32
 1235              		.cfi_def_cfa 8, 0
 247:src/slabAllocator.cpp ****     int indexOfObject = ((size_t)objp - sizeof(slab_t) - (size_t)slab) / slab->owner->obj_size;
 1236              		.loc 1 247 5
 1237              		.loc 1 247 56 is_stmt 0
 1238 0718 B384A540 		sub	s1,a1,a0
 1239 071c 938484FB 		addi	s1,s1,-72
 1240              		.loc 1 247 80
 1241 0720 83370501 		ld	a5,16(a0)
 1242              		.loc 1 247 87
 1243 0724 83B70706 		ld	a5,96(a5)
 1244              		.loc 1 247 72
 1245 0728 B3D4F402 		divu	s1,s1,a5
 1246              		.loc 1 247 9
 1247 072c 9B840400 		sext.w	s1,s1
 1248              	.LVL116:
 248:src/slabAllocator.cpp ****     if((size_t)objp != (size_t)slab + sizeof(slab_t) + indexOfObject*slab->owner->obj_size) //addre
 1249              		.loc 1 248 5 is_stmt 1
 1250              		.loc 1 248 69 is_stmt 0
 1251 0730 B3879702 		mul	a5,a5,s1
 1252              		.loc 1 248 54
 1253 0734 B307F500 		add	a5,a0,a5
 1254 0738 93878704 		addi	a5,a5,72
 1255              		.loc 1 248 5
 1256 073c 638EF500 		beq	a1,a5,.L72
 1257              	.LVL117:
 1258              	.L67:
 249:src/slabAllocator.cpp ****         return;
 250:src/slabAllocator.cpp ****     KConsole::trapPrintString("ok je index\n"); KConsole::trapPrintInt(indexOfObject);
 251:src/slabAllocator.cpp ****     KConsole::trapPrintString("\n");
 252:src/slabAllocator.cpp ****     //TODO
 253:src/slabAllocator.cpp ****     //test if the index was even marked as taken
 254:src/slabAllocator.cpp ****     resetAllocatedIndex(slab, indexOfObject);
 255:src/slabAllocator.cpp ****     if(slab->numOfObjects == slab->numOfAllocatedObjects)
 256:src/slabAllocator.cpp ****         removeFullSlab(slab->owner, slab);
 257:src/slabAllocator.cpp ****     else if(slab->numOfAllocatedObjects == 1)
 258:src/slabAllocator.cpp ****         removePartialSlab(slab->owner, slab);
 259:src/slabAllocator.cpp ****     slab->numOfAllocatedObjects--;
 260:src/slabAllocator.cpp **** }
GAS LISTING /tmp/ccASzBvH.s 			page 29


 1259              		.loc 1 260 1
 1260 0740 83308101 		ld	ra,24(sp)
 1261              		.cfi_remember_state
 1262              		.cfi_restore 1
 1263 0744 03340101 		ld	s0,16(sp)
 1264              		.cfi_restore 8
 1265              		.cfi_def_cfa 2, 32
 1266 0748 83348100 		ld	s1,8(sp)
 1267              		.cfi_restore 9
 1268              	.LVL118:
 1269 074c 03390100 		ld	s2,0(sp)
 1270              		.cfi_restore 18
 1271 0750 13010102 		addi	sp,sp,32
 1272              		.cfi_def_cfa_offset 0
 1273 0754 67800000 		jr	ra
 1274              	.LVL119:
 1275              	.L72:
 1276              		.cfi_restore_state
 1277 0758 13090500 		mv	s2,a0
 250:src/slabAllocator.cpp ****     KConsole::trapPrintString("\n");
 1278              		.loc 1 250 5 is_stmt 1
 250:src/slabAllocator.cpp ****     KConsole::trapPrintString("\n");
 1279              		.loc 1 250 30 is_stmt 0
 1280 075c 17050000 		lla	a0,.LC7
 1280      13050500 
 1281              	.LVL120:
 1282 0764 97000000 		call	_ZN8KConsole15trapPrintStringEPKc@plt
 1282      E7800000 
 1283              	.LVL121:
 250:src/slabAllocator.cpp ****     KConsole::trapPrintString("\n");
 1284              		.loc 1 250 49 is_stmt 1
 250:src/slabAllocator.cpp ****     KConsole::trapPrintString("\n");
 1285              		.loc 1 250 71 is_stmt 0
 1286 076c 13060000 		li	a2,0
 1287 0770 9305A000 		li	a1,10
 1288 0774 13850400 		mv	a0,s1
 1289 0778 97000000 		call	_ZN8KConsole12trapPrintIntEmii@plt
 1289      E7800000 
 1290              	.LVL122:
 251:src/slabAllocator.cpp ****     //TODO
 1291              		.loc 1 251 5 is_stmt 1
 251:src/slabAllocator.cpp ****     //TODO
 1292              		.loc 1 251 30 is_stmt 0
 1293 0780 17050000 		lla	a0,.LC2
 1293      13050500 
 1294 0788 97000000 		call	_ZN8KConsole15trapPrintStringEPKc@plt
 1294      E7800000 
 1295              	.LVL123:
 254:src/slabAllocator.cpp ****     if(slab->numOfObjects == slab->numOfAllocatedObjects)
 1296              		.loc 1 254 5 is_stmt 1
 254:src/slabAllocator.cpp ****     if(slab->numOfObjects == slab->numOfAllocatedObjects)
 1297              		.loc 1 254 24 is_stmt 0
 1298 0790 93850400 		mv	a1,s1
 1299 0794 13050900 		mv	a0,s2
 1300 0798 97000000 		call	_Z19resetAllocatedIndexP6slab_si
 1300      E7800000 
 1301              	.LVL124:
GAS LISTING /tmp/ccASzBvH.s 			page 30


 255:src/slabAllocator.cpp ****         removeFullSlab(slab->owner, slab);
 1302              		.loc 1 255 5 is_stmt 1
 255:src/slabAllocator.cpp ****         removeFullSlab(slab->owner, slab);
 1303              		.loc 1 255 14 is_stmt 0
 1304 07a0 03378901 		ld	a4,24(s2)
 255:src/slabAllocator.cpp ****         removeFullSlab(slab->owner, slab);
 1305              		.loc 1 255 36
 1306 07a4 83370902 		ld	a5,32(s2)
 255:src/slabAllocator.cpp ****         removeFullSlab(slab->owner, slab);
 1307              		.loc 1 255 5
 1308 07a8 630EF700 		beq	a4,a5,.L73
 257:src/slabAllocator.cpp ****         removePartialSlab(slab->owner, slab);
 1309              		.loc 1 257 10 is_stmt 1
 1310 07ac 13071000 		li	a4,1
 1311 07b0 6384E702 		beq	a5,a4,.L74
 1312              	.L70:
 259:src/slabAllocator.cpp **** }
 1313              		.loc 1 259 5
 259:src/slabAllocator.cpp **** }
 1314              		.loc 1 259 11 is_stmt 0
 1315 07b4 83370902 		ld	a5,32(s2)
 259:src/slabAllocator.cpp **** }
 1316              		.loc 1 259 32
 1317 07b8 9387F7FF 		addi	a5,a5,-1
 1318 07bc 2330F902 		sd	a5,32(s2)
 1319 07c0 6FF01FF8 		j	.L67
 1320              	.L73:
 256:src/slabAllocator.cpp ****     else if(slab->numOfAllocatedObjects == 1)
 1321              		.loc 1 256 9 is_stmt 1
 256:src/slabAllocator.cpp ****     else if(slab->numOfAllocatedObjects == 1)
 1322              		.loc 1 256 23 is_stmt 0
 1323 07c4 93050900 		mv	a1,s2
 1324 07c8 03350901 		ld	a0,16(s2)
 1325 07cc 97000000 		call	_Z14removeFullSlabP12kmem_cache_sP6slab_s
 1325      E7800000 
 1326              	.LVL125:
 1327 07d4 6FF01FFE 		j	.L70
 1328              	.L74:
 258:src/slabAllocator.cpp ****     slab->numOfAllocatedObjects--;
 1329              		.loc 1 258 9 is_stmt 1
 258:src/slabAllocator.cpp ****     slab->numOfAllocatedObjects--;
 1330              		.loc 1 258 26 is_stmt 0
 1331 07d8 93050900 		mv	a1,s2
 1332 07dc 03350901 		ld	a0,16(s2)
 1333 07e0 97000000 		call	_Z17removePartialSlabP12kmem_cache_sP6slab_s
 1333      E7800000 
 1334              	.LVL126:
 1335 07e8 6FF0DFFC 		j	.L70
 1336              		.cfi_endproc
 1337              	.LFE21:
 1339              		.align	2
 1340              		.globl	_Z9kmem_initPvi
 1342              	_Z9kmem_initPvi:
 1343              	.LFB23:
 261:src/slabAllocator.cpp **** 
 262:src/slabAllocator.cpp **** void printSlabAllocatorInfo()
 263:src/slabAllocator.cpp **** {
GAS LISTING /tmp/ccASzBvH.s 			page 31


 264:src/slabAllocator.cpp ****     KConsole::trapPrintString("Slab allocator info-------------------------------------------------
 265:src/slabAllocator.cpp ****     KConsole::trapPrintString("Slab allocator buddy address ");
 266:src/slabAllocator.cpp ****     KConsole::trapPrintInt((size_t)slabAllocator->buddy,16);KConsole::trapPrintString("\n");
 267:src/slabAllocator.cpp ****     KConsole::trapPrintString("Buddy allocator sizeof ");
 268:src/slabAllocator.cpp ****     KConsole::trapPrintInt(sizeof(buddyAllocator), 16); KConsole::trapPrintString("\n");
 269:src/slabAllocator.cpp ****     KConsole::trapPrintString("Slab allocator address ");
 270:src/slabAllocator.cpp ****     KConsole::trapPrintInt((size_t)slabAllocator,16); KConsole::trapPrintString("\n");
 271:src/slabAllocator.cpp ****     KConsole::trapPrintString("Cache of caches info\n");
 272:src/slabAllocator.cpp ****     kmem_cache_info(&slabAllocator->cacheOfCaches);
 273:src/slabAllocator.cpp ****     KConsole::trapPrintString("Caches for buffers\n");
 274:src/slabAllocator.cpp ****     for(size_t i = 0;i < CACHE_BUFFER_SIZE;i++)
 275:src/slabAllocator.cpp ****     {
 276:src/slabAllocator.cpp ****         if(slabAllocator->cachesBuffers[i] != nullptr)
 277:src/slabAllocator.cpp ****         {
 278:src/slabAllocator.cpp ****             kmem_cache_info(slabAllocator->cachesBuffers[i]);
 279:src/slabAllocator.cpp ****         }
 280:src/slabAllocator.cpp ****     }
 281:src/slabAllocator.cpp **** }
 282:src/slabAllocator.cpp **** 
 283:src/slabAllocator.cpp **** //slab allocator public interface------------------------------------------------------------------
 284:src/slabAllocator.cpp **** void kmem_init(void *space, int block_num)
 285:src/slabAllocator.cpp **** {
 1344              		.loc 1 285 1 is_stmt 1
 1345              		.cfi_startproc
 1346              	.LVL127:
 1347 07ec 130101FF 		addi	sp,sp,-16
 1348              		.cfi_def_cfa_offset 16
 1349 07f0 23341100 		sd	ra,8(sp)
 1350 07f4 23308100 		sd	s0,0(sp)
 1351              		.cfi_offset 1, -8
 1352              		.cfi_offset 8, -16
 1353 07f8 13040101 		addi	s0,sp,16
 1354              		.cfi_def_cfa 8, 0
 286:src/slabAllocator.cpp ****     buddyAllocator* buddy = buddy_init(space, block_num);
 1355              		.loc 1 286 5
 1356              		.loc 1 286 39 is_stmt 0
 1357 07fc 97000000 		call	_Z10buddy_initPvm@plt
 1357      E7800000 
 1358              	.LVL128:
 287:src/slabAllocator.cpp ****     slabAllocator = slab_allocator_init(buddy);
 1359              		.loc 1 287 5 is_stmt 1
 1360              		.loc 1 287 40 is_stmt 0
 1361 0804 97000000 		call	_Z19slab_allocator_initP14buddyAllocator
 1361      E7800000 
 1362              	.LVL129:
 1363              		.loc 1 287 19
 1364 080c 97070000 		sd	a0,.LANCHOR0,a5
 1364      23B0A700 
 288:src/slabAllocator.cpp ****     //printSlabAllocatorInfo();
 289:src/slabAllocator.cpp **** }
 1365              		.loc 1 289 1
 1366 0814 83308100 		ld	ra,8(sp)
 1367              		.cfi_restore 1
 1368 0818 03340100 		ld	s0,0(sp)
 1369              		.cfi_restore 8
 1370              		.cfi_def_cfa 2, 16
 1371 081c 13010101 		addi	sp,sp,16
GAS LISTING /tmp/ccASzBvH.s 			page 32


 1372              		.cfi_def_cfa_offset 0
 1373 0820 67800000 		jr	ra
 1374              		.cfi_endproc
 1375              	.LFE23:
 1377              		.align	2
 1378              		.globl	_Z16kmem_cache_allocP12kmem_cache_s
 1380              	_Z16kmem_cache_allocP12kmem_cache_s:
 1381              	.LFB25:
 290:src/slabAllocator.cpp **** 
 291:src/slabAllocator.cpp **** kmem_cache_t *kmem_cache_create(const char *name, size_t size,
 292:src/slabAllocator.cpp ****                                 void (*ctor)(void *),
 293:src/slabAllocator.cpp ****                                 void (*dtor)(void *))
 294:src/slabAllocator.cpp **** {
 295:src/slabAllocator.cpp ****     kmem_cache_t* newCache = (kmem_cache_t*)kmem_cache_alloc(&slabAllocator->cacheOfCaches);
 296:src/slabAllocator.cpp ****     newCache->slabs_empty = nullptr;
 297:src/slabAllocator.cpp ****     newCache->slabs_partial = nullptr;
 298:src/slabAllocator.cpp ****     newCache->slabs_full = nullptr;
 299:src/slabAllocator.cpp ****     newCache->dtor = dtor;
 300:src/slabAllocator.cpp ****     newCache->ctor = ctor;
 301:src/slabAllocator.cpp ****     strcpy(name, newCache->cacheName);
 302:src/slabAllocator.cpp ****     newCache->obj_size = size;
 303:src/slabAllocator.cpp ****     newCache->slab_size = getOptimalSlabSize(size);
 304:src/slabAllocator.cpp ****     return newCache;
 305:src/slabAllocator.cpp **** }
 306:src/slabAllocator.cpp **** 
 307:src/slabAllocator.cpp **** void *kmem_cache_alloc(kmem_cache_t *cachep)
 308:src/slabAllocator.cpp **** {
 1382              		.loc 1 308 1 is_stmt 1
 1383              		.cfi_startproc
 1384              	.LVL130:
 1385 0824 130101FE 		addi	sp,sp,-32
 1386              		.cfi_def_cfa_offset 32
 1387 0828 233C1100 		sd	ra,24(sp)
 1388 082c 23388100 		sd	s0,16(sp)
 1389 0830 23349100 		sd	s1,8(sp)
 1390 0834 23302101 		sd	s2,0(sp)
 1391              		.cfi_offset 1, -8
 1392              		.cfi_offset 8, -16
 1393              		.cfi_offset 9, -24
 1394              		.cfi_offset 18, -32
 1395 0838 13040102 		addi	s0,sp,32
 1396              		.cfi_def_cfa 8, 0
 1397 083c 93040500 		mv	s1,a0
 309:src/slabAllocator.cpp ****     if(cachep->slabs_partial != nullptr)
 1398              		.loc 1 309 5
 1399              	.LBB14:
 1400              		.loc 1 309 16 is_stmt 0
 1401 0840 03350505 		ld	a0,80(a0)
 1402              	.LVL131:
 1403              		.loc 1 309 5
 1404 0844 631C0502 		bnez	a0,.L85
 1405              	.LBE14:
 310:src/slabAllocator.cpp ****     {
 311:src/slabAllocator.cpp ****         void* allocatedAddr = allocateObject(cachep->slabs_partial);
 312:src/slabAllocator.cpp ****         if(full(cachep->slabs_partial))
 313:src/slabAllocator.cpp ****             putPartialToFull(cachep);
 314:src/slabAllocator.cpp ****         return allocatedAddr;
GAS LISTING /tmp/ccASzBvH.s 			page 33


 315:src/slabAllocator.cpp ****     }
 316:src/slabAllocator.cpp ****     else if(cachep->slabs_empty != nullptr)
 1406              		.loc 1 316 10 is_stmt 1
 1407              	.LBB21:
 1408              	.LBB15:
 1409              		.loc 1 316 21 is_stmt 0
 1410 0848 03B50404 		ld	a0,64(s1)
 1411              		.loc 1 316 10
 1412 084c 630C0506 		beqz	a0,.L81
 1413              	.LBB16:
 317:src/slabAllocator.cpp ****     {
 318:src/slabAllocator.cpp ****         void* allocatedAddr = allocateObject(cachep->slabs_empty);
 1414              		.loc 1 318 9 is_stmt 1
 1415              		.loc 1 318 45 is_stmt 0
 1416 0850 97000000 		call	_Z14allocateObjectP6slab_s
 1416      E7800000 
 1417              	.LVL132:
 1418 0858 13090500 		mv	s2,a0
 1419              	.LVL133:
 319:src/slabAllocator.cpp ****         if(!empty(cachep->slabs_empty))
 1420              		.loc 1 319 9 is_stmt 1
 1421              		.loc 1 319 18 is_stmt 0
 1422 085c 03B50404 		ld	a0,64(s1)
 1423              	.LVL134:
 1424 0860 97000000 		call	_Z5emptyP6slab_s
 1424      E7800000 
 1425              	.LVL135:
 1426              		.loc 1 319 9
 1427 0868 63180502 		bnez	a0,.L77
 320:src/slabAllocator.cpp ****             putEmptyToPartial(cachep);
 1428              		.loc 1 320 13 is_stmt 1
 1429              		.loc 1 320 30 is_stmt 0
 1430 086c 13850400 		mv	a0,s1
 1431 0870 97000000 		call	_Z17putEmptyToPartialP12kmem_cache_s
 1431      E7800000 
 1432              	.LVL136:
 321:src/slabAllocator.cpp ****         return allocatedAddr;
 1433              		.loc 1 321 9 is_stmt 1
 1434              		.loc 1 321 16 is_stmt 0
 1435 0878 6F000002 		j	.L77
 1436              	.LVL137:
 1437              	.L85:
 1438              	.LBE16:
 1439              	.LBE15:
 1440              	.LBB18:
 311:src/slabAllocator.cpp ****         if(full(cachep->slabs_partial))
 1441              		.loc 1 311 9 is_stmt 1
 311:src/slabAllocator.cpp ****         if(full(cachep->slabs_partial))
 1442              		.loc 1 311 45 is_stmt 0
 1443 087c 97000000 		call	_Z14allocateObjectP6slab_s
 1443      E7800000 
 1444              	.LVL138:
 1445 0884 13090500 		mv	s2,a0
 1446              	.LVL139:
 312:src/slabAllocator.cpp ****             putPartialToFull(cachep);
 1447              		.loc 1 312 9 is_stmt 1
 312:src/slabAllocator.cpp ****             putPartialToFull(cachep);
GAS LISTING /tmp/ccASzBvH.s 			page 34


 1448              		.loc 1 312 16 is_stmt 0
 1449 0888 03B50405 		ld	a0,80(s1)
 1450              	.LVL140:
 1451 088c 97000000 		call	_Z4fullP6slab_s
 1451      E7800000 
 1452              	.LVL141:
 312:src/slabAllocator.cpp ****             putPartialToFull(cachep);
 1453              		.loc 1 312 9
 1454 0894 63100502 		bnez	a0,.L86
 1455              	.LVL142:
 1456              	.L77:
 1457              	.LBE18:
 1458              	.LBE21:
 322:src/slabAllocator.cpp ****     }
 323:src/slabAllocator.cpp ****     else
 324:src/slabAllocator.cpp ****     {
 325:src/slabAllocator.cpp ****         allocateSlab(cachep);
 326:src/slabAllocator.cpp ****         if(cachep->slabs_empty == nullptr)
 327:src/slabAllocator.cpp ****             return nullptr;
 328:src/slabAllocator.cpp ****         void* allocatedAddr = allocateObject(cachep->slabs_empty);
 329:src/slabAllocator.cpp ****         if(!empty(cachep->slabs_empty))
 330:src/slabAllocator.cpp ****             putEmptyToPartial(cachep);
 331:src/slabAllocator.cpp ****         return allocatedAddr;
 332:src/slabAllocator.cpp ****     }
 333:src/slabAllocator.cpp ****     return nullptr;
 334:src/slabAllocator.cpp **** }
 1459              		.loc 1 334 1
 1460 0898 13050900 		mv	a0,s2
 1461 089c 83308101 		ld	ra,24(sp)
 1462              		.cfi_remember_state
 1463              		.cfi_restore 1
 1464 08a0 03340101 		ld	s0,16(sp)
 1465              		.cfi_restore 8
 1466              		.cfi_def_cfa 2, 32
 1467 08a4 83348100 		ld	s1,8(sp)
 1468              		.cfi_restore 9
 1469              	.LVL143:
 1470 08a8 03390100 		ld	s2,0(sp)
 1471              		.cfi_restore 18
 1472 08ac 13010102 		addi	sp,sp,32
 1473              		.cfi_def_cfa_offset 0
 1474 08b0 67800000 		jr	ra
 1475              	.LVL144:
 1476              	.L86:
 1477              		.cfi_restore_state
 1478              	.LBB22:
 1479              	.LBB19:
 313:src/slabAllocator.cpp ****         return allocatedAddr;
 1480              		.loc 1 313 13 is_stmt 1
 313:src/slabAllocator.cpp ****         return allocatedAddr;
 1481              		.loc 1 313 29 is_stmt 0
 1482 08b4 13850400 		mv	a0,s1
 1483 08b8 97000000 		call	_Z16putPartialToFullP12kmem_cache_s
 1483      E7800000 
 1484              	.LVL145:
 314:src/slabAllocator.cpp ****     }
 1485              		.loc 1 314 9 is_stmt 1
GAS LISTING /tmp/ccASzBvH.s 			page 35


 314:src/slabAllocator.cpp ****     }
 1486              		.loc 1 314 16 is_stmt 0
 1487 08c0 6FF09FFD 		j	.L77
 1488              	.LVL146:
 1489              	.L81:
 1490              	.LBE19:
 1491              	.LBB20:
 1492              	.LBB17:
 325:src/slabAllocator.cpp ****         if(cachep->slabs_empty == nullptr)
 1493              		.loc 1 325 9 is_stmt 1
 325:src/slabAllocator.cpp ****         if(cachep->slabs_empty == nullptr)
 1494              		.loc 1 325 21 is_stmt 0
 1495 08c4 13850400 		mv	a0,s1
 1496 08c8 97000000 		call	_Z12allocateSlabP12kmem_cache_s
 1496      E7800000 
 1497              	.LVL147:
 326:src/slabAllocator.cpp ****             return nullptr;
 1498              		.loc 1 326 9 is_stmt 1
 326:src/slabAllocator.cpp ****             return nullptr;
 1499              		.loc 1 326 20 is_stmt 0
 1500 08d0 03B90404 		ld	s2,64(s1)
 326:src/slabAllocator.cpp ****             return nullptr;
 1501              		.loc 1 326 9
 1502 08d4 E30209FC 		beqz	s2,.L77
 328:src/slabAllocator.cpp ****         if(!empty(cachep->slabs_empty))
 1503              		.loc 1 328 9 is_stmt 1
 328:src/slabAllocator.cpp ****         if(!empty(cachep->slabs_empty))
 1504              		.loc 1 328 45 is_stmt 0
 1505 08d8 13050900 		mv	a0,s2
 1506 08dc 97000000 		call	_Z14allocateObjectP6slab_s
 1506      E7800000 
 1507              	.LVL148:
 1508 08e4 13090500 		mv	s2,a0
 1509              	.LVL149:
 329:src/slabAllocator.cpp ****             putEmptyToPartial(cachep);
 1510              		.loc 1 329 9 is_stmt 1
 329:src/slabAllocator.cpp ****             putEmptyToPartial(cachep);
 1511              		.loc 1 329 18 is_stmt 0
 1512 08e8 03B50404 		ld	a0,64(s1)
 1513              	.LVL150:
 1514 08ec 97000000 		call	_Z5emptyP6slab_s
 1514      E7800000 
 1515              	.LVL151:
 329:src/slabAllocator.cpp ****             putEmptyToPartial(cachep);
 1516              		.loc 1 329 9
 1517 08f4 E31205FA 		bnez	a0,.L77
 330:src/slabAllocator.cpp ****         return allocatedAddr;
 1518              		.loc 1 330 13 is_stmt 1
 330:src/slabAllocator.cpp ****         return allocatedAddr;
 1519              		.loc 1 330 30 is_stmt 0
 1520 08f8 13850400 		mv	a0,s1
 1521 08fc 97000000 		call	_Z17putEmptyToPartialP12kmem_cache_s
 1521      E7800000 
 1522              	.LVL152:
 331:src/slabAllocator.cpp ****     }
 1523              		.loc 1 331 9 is_stmt 1
 331:src/slabAllocator.cpp ****     }
GAS LISTING /tmp/ccASzBvH.s 			page 36


 1524              		.loc 1 331 16 is_stmt 0
 1525 0904 6FF05FF9 		j	.L77
 1526              	.LBE17:
 1527              	.LBE20:
 1528              	.LBE22:
 1529              		.cfi_endproc
 1530              	.LFE25:
 1532              		.align	2
 1533              		.globl	_Z17kmem_cache_createPKcmPFvPvES3_
 1535              	_Z17kmem_cache_createPKcmPFvPvES3_:
 1536              	.LFB24:
 294:src/slabAllocator.cpp ****     kmem_cache_t* newCache = (kmem_cache_t*)kmem_cache_alloc(&slabAllocator->cacheOfCaches);
 1537              		.loc 1 294 1 is_stmt 1
 1538              		.cfi_startproc
 1539              	.LVL153:
 1540 0908 130101FC 		addi	sp,sp,-64
 1541              		.cfi_def_cfa_offset 64
 1542 090c 233C1102 		sd	ra,56(sp)
 1543 0910 23388102 		sd	s0,48(sp)
 1544 0914 23349102 		sd	s1,40(sp)
 1545 0918 23302103 		sd	s2,32(sp)
 1546 091c 233C3101 		sd	s3,24(sp)
 1547 0920 23384101 		sd	s4,16(sp)
 1548 0924 23345101 		sd	s5,8(sp)
 1549              		.cfi_offset 1, -8
 1550              		.cfi_offset 8, -16
 1551              		.cfi_offset 9, -24
 1552              		.cfi_offset 18, -32
 1553              		.cfi_offset 19, -40
 1554              		.cfi_offset 20, -48
 1555              		.cfi_offset 21, -56
 1556 0928 13040104 		addi	s0,sp,64
 1557              		.cfi_def_cfa 8, 0
 1558 092c 93090500 		mv	s3,a0
 1559 0930 13890500 		mv	s2,a1
 1560 0934 130A0600 		mv	s4,a2
 1561 0938 938A0600 		mv	s5,a3
 295:src/slabAllocator.cpp ****     newCache->slabs_empty = nullptr;
 1562              		.loc 1 295 5
 295:src/slabAllocator.cpp ****     newCache->slabs_empty = nullptr;
 1563              		.loc 1 295 61 is_stmt 0
 1564 093c 17050000 		ld	a0,.LANCHOR0
 1564      03350500 
 1565              	.LVL154:
 1566 0944 13050507 		addi	a0,a0,112
 1567 0948 97000000 		call	_Z16kmem_cache_allocP12kmem_cache_s
 1567      E7800000 
 1568              	.LVL155:
 1569 0950 93040500 		mv	s1,a0
 1570              	.LVL156:
 296:src/slabAllocator.cpp ****     newCache->slabs_partial = nullptr;
 1571              		.loc 1 296 5 is_stmt 1
 296:src/slabAllocator.cpp ****     newCache->slabs_partial = nullptr;
 1572              		.loc 1 296 27 is_stmt 0
 1573 0954 23300504 		sd	zero,64(a0)
 297:src/slabAllocator.cpp ****     newCache->slabs_full = nullptr;
 1574              		.loc 1 297 5 is_stmt 1
GAS LISTING /tmp/ccASzBvH.s 			page 37


 297:src/slabAllocator.cpp ****     newCache->slabs_full = nullptr;
 1575              		.loc 1 297 29 is_stmt 0
 1576 0958 23380504 		sd	zero,80(a0)
 298:src/slabAllocator.cpp ****     newCache->dtor = dtor;
 1577              		.loc 1 298 5 is_stmt 1
 298:src/slabAllocator.cpp ****     newCache->dtor = dtor;
 1578              		.loc 1 298 26 is_stmt 0
 1579 095c 23340504 		sd	zero,72(a0)
 299:src/slabAllocator.cpp ****     newCache->ctor = ctor;
 1580              		.loc 1 299 5 is_stmt 1
 299:src/slabAllocator.cpp ****     newCache->ctor = ctor;
 1581              		.loc 1 299 20 is_stmt 0
 1582 0960 23385507 		sd	s5,112(a0)
 300:src/slabAllocator.cpp ****     strcpy(name, newCache->cacheName);
 1583              		.loc 1 300 5 is_stmt 1
 300:src/slabAllocator.cpp ****     strcpy(name, newCache->cacheName);
 1584              		.loc 1 300 20 is_stmt 0
 1585 0964 23344507 		sd	s4,104(a0)
 301:src/slabAllocator.cpp ****     newCache->obj_size = size;
 1586              		.loc 1 301 5 is_stmt 1
 301:src/slabAllocator.cpp ****     newCache->obj_size = size;
 1587              		.loc 1 301 11 is_stmt 0
 1588 0968 93050500 		mv	a1,a0
 1589 096c 13850900 		mv	a0,s3
 1590 0970 97000000 		call	_Z6strcpyPKcPc
 1590      E7800000 
 1591              	.LVL157:
 302:src/slabAllocator.cpp ****     newCache->slab_size = getOptimalSlabSize(size);
 1592              		.loc 1 302 5 is_stmt 1
 302:src/slabAllocator.cpp ****     newCache->slab_size = getOptimalSlabSize(size);
 1593              		.loc 1 302 24 is_stmt 0
 1594 0978 23B02407 		sd	s2,96(s1)
 303:src/slabAllocator.cpp ****     return newCache;
 1595              		.loc 1 303 5 is_stmt 1
 303:src/slabAllocator.cpp ****     return newCache;
 1596              		.loc 1 303 45 is_stmt 0
 1597 097c 13050900 		mv	a0,s2
 1598 0980 97000000 		call	_Z18getOptimalSlabSizem
 1598      E7800000 
 1599              	.LVL158:
 303:src/slabAllocator.cpp ****     return newCache;
 1600              		.loc 1 303 25
 1601 0988 23BCA404 		sd	a0,88(s1)
 304:src/slabAllocator.cpp **** }
 1602              		.loc 1 304 5 is_stmt 1
 305:src/slabAllocator.cpp **** 
 1603              		.loc 1 305 1 is_stmt 0
 1604 098c 13850400 		mv	a0,s1
 1605 0990 83308103 		ld	ra,56(sp)
 1606              		.cfi_restore 1
 1607 0994 03340103 		ld	s0,48(sp)
 1608              		.cfi_restore 8
 1609              		.cfi_def_cfa 2, 64
 1610 0998 83348102 		ld	s1,40(sp)
 1611              		.cfi_restore 9
 1612              	.LVL159:
 1613 099c 03390102 		ld	s2,32(sp)
GAS LISTING /tmp/ccASzBvH.s 			page 38


 1614              		.cfi_restore 18
 1615              	.LVL160:
 1616 09a0 83398101 		ld	s3,24(sp)
 1617              		.cfi_restore 19
 1618              	.LVL161:
 1619 09a4 033A0101 		ld	s4,16(sp)
 1620              		.cfi_restore 20
 1621              	.LVL162:
 1622 09a8 833A8100 		ld	s5,8(sp)
 1623              		.cfi_restore 21
 1624              	.LVL163:
 1625 09ac 13010104 		addi	sp,sp,64
 1626              		.cfi_def_cfa_offset 0
 1627 09b0 67800000 		jr	ra
 1628              		.cfi_endproc
 1629              	.LFE24:
 1631              		.section	.rodata.str1.8
 1632 009d 000000   		.align	3
 1633              	.LC8:
 1634 00a0 46696E64 		.string	"Finding slab........\n"
 1634      696E6720 
 1634      736C6162 
 1634      2E2E2E2E 
 1634      2E2E2E2E 
 1635 00b6 0000     		.align	3
 1636              	.LC9:
 1637 00b8 466F756E 		.string	"Found slab "
 1637      6420736C 
 1637      61622000 
 1638              		.text
 1639              		.align	2
 1640              		.globl	_Z15kmem_cache_freeP12kmem_cache_sPv
 1642              	_Z15kmem_cache_freeP12kmem_cache_sPv:
 1643              	.LFB26:
 335:src/slabAllocator.cpp **** 
 336:src/slabAllocator.cpp **** void kmem_cache_free(kmem_cache_t *cachep, void *objp)
 337:src/slabAllocator.cpp **** {
 1644              		.loc 1 337 1 is_stmt 1
 1645              		.cfi_startproc
 1646              	.LVL164:
 1647 09b4 130101FE 		addi	sp,sp,-32
 1648              		.cfi_def_cfa_offset 32
 1649 09b8 233C1100 		sd	ra,24(sp)
 1650 09bc 23388100 		sd	s0,16(sp)
 1651 09c0 23349100 		sd	s1,8(sp)
 1652 09c4 23302101 		sd	s2,0(sp)
 1653              		.cfi_offset 1, -8
 1654              		.cfi_offset 8, -16
 1655              		.cfi_offset 9, -24
 1656              		.cfi_offset 18, -32
 1657 09c8 13040102 		addi	s0,sp,32
 1658              		.cfi_def_cfa 8, 0
 1659 09cc 13890500 		mv	s2,a1
 338:src/slabAllocator.cpp ****     slab_t* slab = findSlab(cachep, objp);
 1660              		.loc 1 338 5
 1661              		.loc 1 338 28 is_stmt 0
 1662 09d0 97000000 		call	_Z8findSlabP12kmem_cache_sPKv
GAS LISTING /tmp/ccASzBvH.s 			page 39


 1662      E7800000 
 1663              	.LVL165:
 1664 09d8 93040500 		mv	s1,a0
 1665              	.LVL166:
 339:src/slabAllocator.cpp ****     KConsole::trapPrintString("Finding slab........\n");
 1666              		.loc 1 339 5 is_stmt 1
 1667              		.loc 1 339 30 is_stmt 0
 1668 09dc 17050000 		lla	a0,.LC8
 1668      13050500 
 1669 09e4 97000000 		call	_ZN8KConsole15trapPrintStringEPKc@plt
 1669      E7800000 
 1670              	.LVL167:
 340:src/slabAllocator.cpp ****     if(slab == nullptr) return;
 1671              		.loc 1 340 5 is_stmt 1
 1672 09ec 63840404 		beqz	s1,.L89
 341:src/slabAllocator.cpp ****     KConsole::trapPrintString("Found slab ");
 1673              		.loc 1 341 5
 1674              		.loc 1 341 30 is_stmt 0
 1675 09f0 17050000 		lla	a0,.LC9
 1675      13050500 
 1676 09f8 97000000 		call	_ZN8KConsole15trapPrintStringEPKc@plt
 1676      E7800000 
 1677              	.LVL168:
 342:src/slabAllocator.cpp ****     KConsole::trapPrintInt((size_t)slab, 16); KConsole::trapPrintString("\n");
 1678              		.loc 1 342 5 is_stmt 1
 1679              		.loc 1 342 27 is_stmt 0
 1680 0a00 13060000 		li	a2,0
 1681 0a04 93050001 		li	a1,16
 1682 0a08 13850400 		mv	a0,s1
 1683 0a0c 97000000 		call	_ZN8KConsole12trapPrintIntEmii@plt
 1683      E7800000 
 1684              	.LVL169:
 1685              		.loc 1 342 47 is_stmt 1
 1686              		.loc 1 342 72 is_stmt 0
 1687 0a14 17050000 		lla	a0,.LC2
 1687      13050500 
 1688 0a1c 97000000 		call	_ZN8KConsole15trapPrintStringEPKc@plt
 1688      E7800000 
 1689              	.LVL170:
 343:src/slabAllocator.cpp ****     free_slab_object(slab, objp);
 1690              		.loc 1 343 5 is_stmt 1
 1691              		.loc 1 343 21 is_stmt 0
 1692 0a24 93050900 		mv	a1,s2
 1693 0a28 13850400 		mv	a0,s1
 1694 0a2c 97000000 		call	_Z16free_slab_objectP6slab_sPKv
 1694      E7800000 
 1695              	.LVL171:
 1696              	.L89:
 344:src/slabAllocator.cpp **** }
 1697              		.loc 1 344 1
 1698 0a34 83308101 		ld	ra,24(sp)
 1699              		.cfi_restore 1
 1700 0a38 03340101 		ld	s0,16(sp)
 1701              		.cfi_restore 8
 1702              		.cfi_def_cfa 2, 32
 1703 0a3c 83348100 		ld	s1,8(sp)
 1704              		.cfi_restore 9
GAS LISTING /tmp/ccASzBvH.s 			page 40


 1705              	.LVL172:
 1706 0a40 03390100 		ld	s2,0(sp)
 1707              		.cfi_restore 18
 1708              	.LVL173:
 1709 0a44 13010102 		addi	sp,sp,32
 1710              		.cfi_def_cfa_offset 0
 1711 0a48 67800000 		jr	ra
 1712              		.cfi_endproc
 1713              	.LFE26:
 1715              		.section	.rodata.str1.8
 1716 00c4 00000000 		.align	3
 1717              	.LC10:
 1718 00c8 4B6D656D 		.string	"Kmem Cache Info-------------------------------------\n"
 1718      20436163 
 1718      68652049 
 1718      6E666F2D 
 1718      2D2D2D2D 
 1719 00fe 0000     		.align	3
 1720              	.LC11:
 1721 0100 43616368 		.string	"Cache Name "
 1721      65204E61 
 1721      6D652000 
 1722 010c 00000000 		.align	3
 1723              	.LC12:
 1724 0110 43616368 		.string	"Cache slab size in blocks "
 1724      6520736C 
 1724      61622073 
 1724      697A6520 
 1724      696E2062 
 1725 012b 00000000 		.align	3
 1725      00
 1726              	.LC13:
 1727 0130 43616368 		.string	"Cache obj size in bytes "
 1727      65206F62 
 1727      6A207369 
 1727      7A652069 
 1727      6E206279 
 1728 0149 00000000 		.align	3
 1728      000000
 1729              	.LC14:
 1730 0150 536C6162 		.string	"Slabs info-------------------\n"
 1730      7320696E 
 1730      666F2D2D 
 1730      2D2D2D2D 
 1730      2D2D2D2D 
 1731 016f 00       		.align	3
 1732              	.LC15:
 1733 0170 46756C6C 		.string	"Full slabs\n"
 1733      20736C61 
 1733      62730A00 
 1734 017c 00000000 		.align	3
 1735              	.LC16:
 1736 0180 50617274 		.string	"Partial slabs\n"
 1736      69616C20 
 1736      736C6162 
 1736      730A00
 1737 018f 00       		.align	3
GAS LISTING /tmp/ccASzBvH.s 			page 41


 1738              	.LC17:
 1739 0190 456D7074 		.string	"Empty slabs\n"
 1739      7920736C 
 1739      6162730A 
 1739      00
 1740              		.text
 1741              		.align	2
 1742              		.globl	_Z15kmem_cache_infoP12kmem_cache_s
 1744              	_Z15kmem_cache_infoP12kmem_cache_s:
 1745              	.LFB27:
 345:src/slabAllocator.cpp **** 
 346:src/slabAllocator.cpp **** //TODO
 347:src/slabAllocator.cpp **** //what needs to be printed
 348:src/slabAllocator.cpp **** void kmem_cache_info(kmem_cache_t *cachep)
 349:src/slabAllocator.cpp **** {
 1746              		.loc 1 349 1 is_stmt 1
 1747              		.cfi_startproc
 1748              	.LVL174:
 1749 0a4c 130101FE 		addi	sp,sp,-32
 1750              		.cfi_def_cfa_offset 32
 1751 0a50 233C1100 		sd	ra,24(sp)
 1752 0a54 23388100 		sd	s0,16(sp)
 1753 0a58 23349100 		sd	s1,8(sp)
 1754 0a5c 23302101 		sd	s2,0(sp)
 1755              		.cfi_offset 1, -8
 1756              		.cfi_offset 8, -16
 1757              		.cfi_offset 9, -24
 1758              		.cfi_offset 18, -32
 1759 0a60 13040102 		addi	s0,sp,32
 1760              		.cfi_def_cfa 8, 0
 1761 0a64 13090500 		mv	s2,a0
 350:src/slabAllocator.cpp ****     KConsole::trapPrintString("Kmem Cache Info-------------------------------------\n");
 1762              		.loc 1 350 5
 1763              		.loc 1 350 30 is_stmt 0
 1764 0a68 17050000 		lla	a0,.LC10
 1764      13050500 
 1765              	.LVL175:
 1766 0a70 97000000 		call	_ZN8KConsole15trapPrintStringEPKc@plt
 1766      E7800000 
 1767              	.LVL176:
 351:src/slabAllocator.cpp ****     KConsole::trapPrintString("Cache Name ");
 1768              		.loc 1 351 5 is_stmt 1
 1769              		.loc 1 351 30 is_stmt 0
 1770 0a78 17050000 		lla	a0,.LC11
 1770      13050500 
 1771 0a80 97000000 		call	_ZN8KConsole15trapPrintStringEPKc@plt
 1771      E7800000 
 1772              	.LVL177:
 352:src/slabAllocator.cpp ****     KConsole::trapPrintString(cachep->cacheName); KConsole::trapPrintString("\n");
 1773              		.loc 1 352 5 is_stmt 1
 1774              		.loc 1 352 30 is_stmt 0
 1775 0a88 13050900 		mv	a0,s2
 1776 0a8c 97000000 		call	_ZN8KConsole15trapPrintStringEPKc@plt
 1776      E7800000 
 1777              	.LVL178:
 1778              		.loc 1 352 51 is_stmt 1
 1779              		.loc 1 352 76 is_stmt 0
GAS LISTING /tmp/ccASzBvH.s 			page 42


 1780 0a94 17050000 		lla	a0,.LC2
 1780      13050500 
 1781 0a9c 97000000 		call	_ZN8KConsole15trapPrintStringEPKc@plt
 1781      E7800000 
 1782              	.LVL179:
 353:src/slabAllocator.cpp ****     KConsole::trapPrintString("Cache slab size in blocks ");
 1783              		.loc 1 353 5 is_stmt 1
 1784              		.loc 1 353 30 is_stmt 0
 1785 0aa4 17050000 		lla	a0,.LC12
 1785      13050500 
 1786 0aac 97000000 		call	_ZN8KConsole15trapPrintStringEPKc@plt
 1786      E7800000 
 1787              	.LVL180:
 354:src/slabAllocator.cpp ****     KConsole::trapPrintInt(cachep->slab_size); KConsole::trapPrintString("\n");
 1788              		.loc 1 354 5 is_stmt 1
 1789              		.loc 1 354 27 is_stmt 0
 1790 0ab4 13060000 		li	a2,0
 1791 0ab8 9305A000 		li	a1,10
 1792 0abc 03358905 		ld	a0,88(s2)
 1793 0ac0 97000000 		call	_ZN8KConsole12trapPrintIntEmii@plt
 1793      E7800000 
 1794              	.LVL181:
 1795              		.loc 1 354 48 is_stmt 1
 1796              		.loc 1 354 73 is_stmt 0
 1797 0ac8 17050000 		lla	a0,.LC2
 1797      13050500 
 1798 0ad0 97000000 		call	_ZN8KConsole15trapPrintStringEPKc@plt
 1798      E7800000 
 1799              	.LVL182:
 355:src/slabAllocator.cpp ****     KConsole::trapPrintString("Cache obj size in bytes ");
 1800              		.loc 1 355 5 is_stmt 1
 1801              		.loc 1 355 30 is_stmt 0
 1802 0ad8 17050000 		lla	a0,.LC13
 1802      13050500 
 1803 0ae0 97000000 		call	_ZN8KConsole15trapPrintStringEPKc@plt
 1803      E7800000 
 1804              	.LVL183:
 356:src/slabAllocator.cpp ****     KConsole::trapPrintInt(cachep->obj_size); KConsole::trapPrintString("\n");
 1805              		.loc 1 356 5 is_stmt 1
 1806              		.loc 1 356 27 is_stmt 0
 1807 0ae8 13060000 		li	a2,0
 1808 0aec 9305A000 		li	a1,10
 1809 0af0 03350906 		ld	a0,96(s2)
 1810 0af4 97000000 		call	_ZN8KConsole12trapPrintIntEmii@plt
 1810      E7800000 
 1811              	.LVL184:
 1812              		.loc 1 356 47 is_stmt 1
 1813              		.loc 1 356 72 is_stmt 0
 1814 0afc 17050000 		lla	a0,.LC2
 1814      13050500 
 1815 0b04 97000000 		call	_ZN8KConsole15trapPrintStringEPKc@plt
 1815      E7800000 
 1816              	.LVL185:
 357:src/slabAllocator.cpp ****     KConsole::trapPrintString("Slabs info-------------------\n");
 1817              		.loc 1 357 5 is_stmt 1
 1818              		.loc 1 357 30 is_stmt 0
 1819 0b0c 17050000 		lla	a0,.LC14
GAS LISTING /tmp/ccASzBvH.s 			page 43


 1819      13050500 
 1820 0b14 97000000 		call	_ZN8KConsole15trapPrintStringEPKc@plt
 1820      E7800000 
 1821              	.LVL186:
 358:src/slabAllocator.cpp **** 
 359:src/slabAllocator.cpp ****     KConsole::trapPrintString("Full slabs\n");
 1822              		.loc 1 359 5 is_stmt 1
 1823              		.loc 1 359 30 is_stmt 0
 1824 0b1c 17050000 		lla	a0,.LC15
 1824      13050500 
 1825 0b24 97000000 		call	_ZN8KConsole15trapPrintStringEPKc@plt
 1825      E7800000 
 1826              	.LVL187:
 360:src/slabAllocator.cpp ****     slab_t* slab = cachep->slabs_full;
 1827              		.loc 1 360 5 is_stmt 1
 1828              		.loc 1 360 13 is_stmt 0
 1829 0b2c 83348904 		ld	s1,72(s2)
 1830              	.LVL188:
 1831              	.L94:
 361:src/slabAllocator.cpp ****     while(slab != nullptr)
 1832              		.loc 1 361 5 is_stmt 1
 1833              		.loc 1 361 16
 1834 0b30 638C0400 		beqz	s1,.L93
 362:src/slabAllocator.cpp ****     {
 363:src/slabAllocator.cpp ****         printSlabInfo(slab);
 1835              		.loc 1 363 9
 1836              		.loc 1 363 22 is_stmt 0
 1837 0b34 13850400 		mv	a0,s1
 1838 0b38 97000000 		call	_Z13printSlabInfoP6slab_s
 1838      E7800000 
 1839              	.LVL189:
 364:src/slabAllocator.cpp ****         slab = slab->next;
 1840              		.loc 1 364 9 is_stmt 1
 1841              		.loc 1 364 14 is_stmt 0
 1842 0b40 83B48400 		ld	s1,8(s1)
 1843              	.LVL190:
 361:src/slabAllocator.cpp ****     while(slab != nullptr)
 1844              		.loc 1 361 5
 1845 0b44 6FF0DFFE 		j	.L94
 1846              	.L93:
 365:src/slabAllocator.cpp ****     }
 366:src/slabAllocator.cpp **** 
 367:src/slabAllocator.cpp ****     KConsole::trapPrintString("Partial slabs\n");
 1847              		.loc 1 367 5 is_stmt 1
 1848              		.loc 1 367 30 is_stmt 0
 1849 0b48 17050000 		lla	a0,.LC16
 1849      13050500 
 1850 0b50 97000000 		call	_ZN8KConsole15trapPrintStringEPKc@plt
 1850      E7800000 
 1851              	.LVL191:
 368:src/slabAllocator.cpp ****     slab = cachep->slabs_partial;
 1852              		.loc 1 368 5 is_stmt 1
 1853              		.loc 1 368 10 is_stmt 0
 1854 0b58 83340905 		ld	s1,80(s2)
 1855              	.LVL192:
 1856              	.L96:
 369:src/slabAllocator.cpp ****     while(slab != nullptr)
GAS LISTING /tmp/ccASzBvH.s 			page 44


 1857              		.loc 1 369 5 is_stmt 1
 1858              		.loc 1 369 16
 1859 0b5c 638C0400 		beqz	s1,.L95
 370:src/slabAllocator.cpp ****     {
 371:src/slabAllocator.cpp ****         printSlabInfo(slab);
 1860              		.loc 1 371 9
 1861              		.loc 1 371 22 is_stmt 0
 1862 0b60 13850400 		mv	a0,s1
 1863 0b64 97000000 		call	_Z13printSlabInfoP6slab_s
 1863      E7800000 
 1864              	.LVL193:
 372:src/slabAllocator.cpp ****         slab = slab->next;
 1865              		.loc 1 372 9 is_stmt 1
 1866              		.loc 1 372 14 is_stmt 0
 1867 0b6c 83B48400 		ld	s1,8(s1)
 1868              	.LVL194:
 369:src/slabAllocator.cpp ****     while(slab != nullptr)
 1869              		.loc 1 369 5
 1870 0b70 6FF0DFFE 		j	.L96
 1871              	.L95:
 373:src/slabAllocator.cpp ****     }
 374:src/slabAllocator.cpp **** 
 375:src/slabAllocator.cpp ****     KConsole::trapPrintString("Empty slabs\n");
 1872              		.loc 1 375 5 is_stmt 1
 1873              		.loc 1 375 30 is_stmt 0
 1874 0b74 17050000 		lla	a0,.LC17
 1874      13050500 
 1875 0b7c 97000000 		call	_ZN8KConsole15trapPrintStringEPKc@plt
 1875      E7800000 
 1876              	.LVL195:
 376:src/slabAllocator.cpp ****     slab = cachep->slabs_empty;
 1877              		.loc 1 376 5 is_stmt 1
 1878              		.loc 1 376 10 is_stmt 0
 1879 0b84 83340904 		ld	s1,64(s2)
 1880              	.LVL196:
 1881              	.L98:
 377:src/slabAllocator.cpp ****     while(slab != nullptr)
 1882              		.loc 1 377 5 is_stmt 1
 1883              		.loc 1 377 16
 1884 0b88 638C0400 		beqz	s1,.L92
 378:src/slabAllocator.cpp ****     {
 379:src/slabAllocator.cpp ****         printSlabInfo(slab);
 1885              		.loc 1 379 9
 1886              		.loc 1 379 22 is_stmt 0
 1887 0b8c 13850400 		mv	a0,s1
 1888 0b90 97000000 		call	_Z13printSlabInfoP6slab_s
 1888      E7800000 
 1889              	.LVL197:
 380:src/slabAllocator.cpp ****         slab = slab->next;
 1890              		.loc 1 380 9 is_stmt 1
 1891              		.loc 1 380 14 is_stmt 0
 1892 0b98 83B48400 		ld	s1,8(s1)
 1893              	.LVL198:
 377:src/slabAllocator.cpp ****     while(slab != nullptr)
 1894              		.loc 1 377 5
 1895 0b9c 6FF0DFFE 		j	.L98
 1896              	.L92:
GAS LISTING /tmp/ccASzBvH.s 			page 45


 381:src/slabAllocator.cpp ****     }
 382:src/slabAllocator.cpp **** }
 1897              		.loc 1 382 1
 1898 0ba0 83308101 		ld	ra,24(sp)
 1899              		.cfi_restore 1
 1900 0ba4 03340101 		ld	s0,16(sp)
 1901              		.cfi_restore 8
 1902              		.cfi_def_cfa 2, 32
 1903 0ba8 83348100 		ld	s1,8(sp)
 1904              		.cfi_restore 9
 1905              	.LVL199:
 1906 0bac 03390100 		ld	s2,0(sp)
 1907              		.cfi_restore 18
 1908              	.LVL200:
 1909 0bb0 13010102 		addi	sp,sp,32
 1910              		.cfi_def_cfa_offset 0
 1911 0bb4 67800000 		jr	ra
 1912              		.cfi_endproc
 1913              	.LFE27:
 1915              		.section	.rodata.str1.8
 1916 019d 000000   		.align	3
 1917              	.LC18:
 1918 01a0 536C6162 		.string	"Slab allocator info----------------------------------------------------------\n"
 1918      20616C6C 
 1918      6F636174 
 1918      6F722069 
 1918      6E666F2D 
 1919 01ef 00       		.align	3
 1920              	.LC19:
 1921 01f0 536C6162 		.string	"Slab allocator buddy address "
 1921      20616C6C 
 1921      6F636174 
 1921      6F722062 
 1921      75646479 
 1922 020e 0000     		.align	3
 1923              	.LC20:
 1924 0210 42756464 		.string	"Buddy allocator sizeof "
 1924      7920616C 
 1924      6C6F6361 
 1924      746F7220 
 1924      73697A65 
 1925              		.align	3
 1926              	.LC21:
 1927 0228 536C6162 		.string	"Slab allocator address "
 1927      20616C6C 
 1927      6F636174 
 1927      6F722061 
 1927      64647265 
 1928              		.align	3
 1929              	.LC22:
 1930 0240 43616368 		.string	"Cache of caches info\n"
 1930      65206F66 
 1930      20636163 
 1930      68657320 
 1930      696E666F 
 1931 0256 0000     		.align	3
 1932              	.LC23:
GAS LISTING /tmp/ccASzBvH.s 			page 46


 1933 0258 43616368 		.string	"Caches for buffers\n"
 1933      65732066 
 1933      6F722062 
 1933      75666665 
 1933      72730A00 
 1934              		.text
 1935              		.align	2
 1936              		.globl	_Z22printSlabAllocatorInfov
 1938              	_Z22printSlabAllocatorInfov:
 1939              	.LFB22:
 263:src/slabAllocator.cpp ****     KConsole::trapPrintString("Slab allocator info-------------------------------------------------
 1940              		.loc 1 263 1 is_stmt 1
 1941              		.cfi_startproc
 1942 0bb8 130101FE 		addi	sp,sp,-32
 1943              		.cfi_def_cfa_offset 32
 1944 0bbc 233C1100 		sd	ra,24(sp)
 1945 0bc0 23388100 		sd	s0,16(sp)
 1946 0bc4 23349100 		sd	s1,8(sp)
 1947              		.cfi_offset 1, -8
 1948              		.cfi_offset 8, -16
 1949              		.cfi_offset 9, -24
 1950 0bc8 13040102 		addi	s0,sp,32
 1951              		.cfi_def_cfa 8, 0
 264:src/slabAllocator.cpp ****     KConsole::trapPrintString("Slab allocator buddy address ");
 1952              		.loc 1 264 5
 264:src/slabAllocator.cpp ****     KConsole::trapPrintString("Slab allocator buddy address ");
 1953              		.loc 1 264 30 is_stmt 0
 1954 0bcc 17050000 		lla	a0,.LC18
 1954      13050500 
 1955 0bd4 97000000 		call	_ZN8KConsole15trapPrintStringEPKc@plt
 1955      E7800000 
 1956              	.LVL201:
 265:src/slabAllocator.cpp ****     KConsole::trapPrintInt((size_t)slabAllocator->buddy,16);KConsole::trapPrintString("\n");
 1957              		.loc 1 265 5 is_stmt 1
 265:src/slabAllocator.cpp ****     KConsole::trapPrintInt((size_t)slabAllocator->buddy,16);KConsole::trapPrintString("\n");
 1958              		.loc 1 265 30 is_stmt 0
 1959 0bdc 17050000 		lla	a0,.LC19
 1959      13050500 
 1960 0be4 97000000 		call	_ZN8KConsole15trapPrintStringEPKc@plt
 1960      E7800000 
 1961              	.LVL202:
 266:src/slabAllocator.cpp ****     KConsole::trapPrintString("Buddy allocator sizeof ");
 1962              		.loc 1 266 5 is_stmt 1
 266:src/slabAllocator.cpp ****     KConsole::trapPrintString("Buddy allocator sizeof ");
 1963              		.loc 1 266 51 is_stmt 0
 1964 0bec 97040000 		lla	s1,.LANCHOR0
 1964      93840400 
 1965 0bf4 83B70400 		ld	a5,0(s1)
 266:src/slabAllocator.cpp ****     KConsole::trapPrintString("Buddy allocator sizeof ");
 1966              		.loc 1 266 27
 1967 0bf8 13060000 		li	a2,0
 1968 0bfc 93050001 		li	a1,16
 1969 0c00 03B50700 		ld	a0,0(a5)
 1970 0c04 97000000 		call	_ZN8KConsole12trapPrintIntEmii@plt
 1970      E7800000 
 1971              	.LVL203:
 266:src/slabAllocator.cpp ****     KConsole::trapPrintString("Buddy allocator sizeof ");
GAS LISTING /tmp/ccASzBvH.s 			page 47


 1972              		.loc 1 266 61 is_stmt 1
 266:src/slabAllocator.cpp ****     KConsole::trapPrintString("Buddy allocator sizeof ");
 1973              		.loc 1 266 86 is_stmt 0
 1974 0c0c 17050000 		lla	a0,.LC2
 1974      13050500 
 1975 0c14 97000000 		call	_ZN8KConsole15trapPrintStringEPKc@plt
 1975      E7800000 
 1976              	.LVL204:
 267:src/slabAllocator.cpp ****     KConsole::trapPrintInt(sizeof(buddyAllocator), 16); KConsole::trapPrintString("\n");
 1977              		.loc 1 267 5 is_stmt 1
 267:src/slabAllocator.cpp ****     KConsole::trapPrintInt(sizeof(buddyAllocator), 16); KConsole::trapPrintString("\n");
 1978              		.loc 1 267 30 is_stmt 0
 1979 0c1c 17050000 		lla	a0,.LC20
 1979      13050500 
 1980 0c24 97000000 		call	_ZN8KConsole15trapPrintStringEPKc@plt
 1980      E7800000 
 1981              	.LVL205:
 268:src/slabAllocator.cpp ****     KConsole::trapPrintString("Slab allocator address ");
 1982              		.loc 1 268 5 is_stmt 1
 268:src/slabAllocator.cpp ****     KConsole::trapPrintString("Slab allocator address ");
 1983              		.loc 1 268 27 is_stmt 0
 1984 0c2c 13060000 		li	a2,0
 1985 0c30 93050001 		li	a1,16
 1986 0c34 1305000E 		li	a0,224
 1987 0c38 97000000 		call	_ZN8KConsole12trapPrintIntEmii@plt
 1987      E7800000 
 1988              	.LVL206:
 268:src/slabAllocator.cpp ****     KConsole::trapPrintString("Slab allocator address ");
 1989              		.loc 1 268 57 is_stmt 1
 268:src/slabAllocator.cpp ****     KConsole::trapPrintString("Slab allocator address ");
 1990              		.loc 1 268 82 is_stmt 0
 1991 0c40 17050000 		lla	a0,.LC2
 1991      13050500 
 1992 0c48 97000000 		call	_ZN8KConsole15trapPrintStringEPKc@plt
 1992      E7800000 
 1993              	.LVL207:
 269:src/slabAllocator.cpp ****     KConsole::trapPrintInt((size_t)slabAllocator,16); KConsole::trapPrintString("\n");
 1994              		.loc 1 269 5 is_stmt 1
 269:src/slabAllocator.cpp ****     KConsole::trapPrintInt((size_t)slabAllocator,16); KConsole::trapPrintString("\n");
 1995              		.loc 1 269 30 is_stmt 0
 1996 0c50 17050000 		lla	a0,.LC21
 1996      13050500 
 1997 0c58 97000000 		call	_ZN8KConsole15trapPrintStringEPKc@plt
 1997      E7800000 
 1998              	.LVL208:
 270:src/slabAllocator.cpp ****     KConsole::trapPrintString("Cache of caches info\n");
 1999              		.loc 1 270 5 is_stmt 1
 270:src/slabAllocator.cpp ****     KConsole::trapPrintString("Cache of caches info\n");
 2000              		.loc 1 270 27 is_stmt 0
 2001 0c60 13060000 		li	a2,0
 2002 0c64 93050001 		li	a1,16
 2003 0c68 03B50400 		ld	a0,0(s1)
 2004 0c6c 97000000 		call	_ZN8KConsole12trapPrintIntEmii@plt
 2004      E7800000 
 2005              	.LVL209:
 270:src/slabAllocator.cpp ****     KConsole::trapPrintString("Cache of caches info\n");
 2006              		.loc 1 270 55 is_stmt 1
GAS LISTING /tmp/ccASzBvH.s 			page 48


 270:src/slabAllocator.cpp ****     KConsole::trapPrintString("Cache of caches info\n");
 2007              		.loc 1 270 80 is_stmt 0
 2008 0c74 17050000 		lla	a0,.LC2
 2008      13050500 
 2009 0c7c 97000000 		call	_ZN8KConsole15trapPrintStringEPKc@plt
 2009      E7800000 
 2010              	.LVL210:
 271:src/slabAllocator.cpp ****     kmem_cache_info(&slabAllocator->cacheOfCaches);
 2011              		.loc 1 271 5 is_stmt 1
 271:src/slabAllocator.cpp ****     kmem_cache_info(&slabAllocator->cacheOfCaches);
 2012              		.loc 1 271 30 is_stmt 0
 2013 0c84 17050000 		lla	a0,.LC22
 2013      13050500 
 2014 0c8c 97000000 		call	_ZN8KConsole15trapPrintStringEPKc@plt
 2014      E7800000 
 2015              	.LVL211:
 272:src/slabAllocator.cpp ****     KConsole::trapPrintString("Caches for buffers\n");
 2016              		.loc 1 272 5 is_stmt 1
 272:src/slabAllocator.cpp ****     KConsole::trapPrintString("Caches for buffers\n");
 2017              		.loc 1 272 37 is_stmt 0
 2018 0c94 03B50400 		ld	a0,0(s1)
 272:src/slabAllocator.cpp ****     KConsole::trapPrintString("Caches for buffers\n");
 2019              		.loc 1 272 20
 2020 0c98 13050507 		addi	a0,a0,112
 2021 0c9c 97000000 		call	_Z15kmem_cache_infoP12kmem_cache_s
 2021      E7800000 
 2022              	.LVL212:
 273:src/slabAllocator.cpp ****     for(size_t i = 0;i < CACHE_BUFFER_SIZE;i++)
 2023              		.loc 1 273 5 is_stmt 1
 273:src/slabAllocator.cpp ****     for(size_t i = 0;i < CACHE_BUFFER_SIZE;i++)
 2024              		.loc 1 273 30 is_stmt 0
 2025 0ca4 17050000 		lla	a0,.LC23
 2025      13050500 
 2026 0cac 97000000 		call	_ZN8KConsole15trapPrintStringEPKc@plt
 2026      E7800000 
 2027              	.LVL213:
 274:src/slabAllocator.cpp ****     {
 2028              		.loc 1 274 5 is_stmt 1
 2029              	.LBB23:
 274:src/slabAllocator.cpp ****     {
 2030              		.loc 1 274 16 is_stmt 0
 2031 0cb4 93040000 		li	s1,0
 2032 0cb8 6F000001 		j	.L103
 2033              	.LVL214:
 2034              	.L105:
 278:src/slabAllocator.cpp ****         }
 2035              		.loc 1 278 13 is_stmt 1
 278:src/slabAllocator.cpp ****         }
 2036              		.loc 1 278 28 is_stmt 0
 2037 0cbc 97000000 		call	_Z15kmem_cache_infoP12kmem_cache_s
 2037      E7800000 
 2038              	.LVL215:
 2039              	.L102:
 274:src/slabAllocator.cpp ****     {
 2040              		.loc 1 274 5 is_stmt 1 discriminator 2
 2041 0cc4 93841400 		addi	s1,s1,1
 2042              	.LVL216:
GAS LISTING /tmp/ccASzBvH.s 			page 49


 2043              	.L103:
 274:src/slabAllocator.cpp ****     {
 2044              		.loc 1 274 24 discriminator 1
 2045 0cc8 9307C000 		li	a5,12
 2046 0ccc 63E09702 		bgtu	s1,a5,.L100
 276:src/slabAllocator.cpp ****         {
 2047              		.loc 1 276 9
 276:src/slabAllocator.cpp ****         {
 2048              		.loc 1 276 42 is_stmt 0
 2049 0cd0 93973400 		slli	a5,s1,3
 2050 0cd4 17070000 		ld	a4,.LANCHOR0
 2050      03370700 
 2051 0cdc B307F700 		add	a5,a4,a5
 2052 0ce0 03B58700 		ld	a0,8(a5)
 276:src/slabAllocator.cpp ****         {
 2053              		.loc 1 276 9
 2054 0ce4 E31C05FC 		bnez	a0,.L105
 2055 0ce8 6FF0DFFD 		j	.L102
 2056              	.L100:
 2057              	.LBE23:
 281:src/slabAllocator.cpp **** 
 2058              		.loc 1 281 1
 2059 0cec 83308101 		ld	ra,24(sp)
 2060              		.cfi_restore 1
 2061 0cf0 03340101 		ld	s0,16(sp)
 2062              		.cfi_restore 8
 2063              		.cfi_def_cfa 2, 32
 2064 0cf4 83348100 		ld	s1,8(sp)
 2065              		.cfi_restore 9
 2066              	.LVL217:
 2067 0cf8 13010102 		addi	sp,sp,32
 2068              		.cfi_def_cfa_offset 0
 2069 0cfc 67800000 		jr	ra
 2070              		.cfi_endproc
 2071              	.LFE22:
 2073              		.align	2
 2074              		.globl	_Z7kmallocm
 2076              	_Z7kmallocm:
 2077              	.LFB28:
 383:src/slabAllocator.cpp **** 
 384:src/slabAllocator.cpp **** void *kmalloc(size_t size)
 385:src/slabAllocator.cpp **** {
 2078              		.loc 1 385 1 is_stmt 1
 2079              		.cfi_startproc
 2080              	.LVL218:
 2081 0d00 130101FE 		addi	sp,sp,-32
 2082              		.cfi_def_cfa_offset 32
 2083 0d04 233C1100 		sd	ra,24(sp)
 2084 0d08 23388100 		sd	s0,16(sp)
 2085 0d0c 23349100 		sd	s1,8(sp)
 2086 0d10 23302101 		sd	s2,0(sp)
 2087              		.cfi_offset 1, -8
 2088              		.cfi_offset 8, -16
 2089              		.cfi_offset 9, -24
 2090              		.cfi_offset 18, -32
 2091 0d14 13040102 		addi	s0,sp,32
 2092              		.cfi_def_cfa 8, 0
GAS LISTING /tmp/ccASzBvH.s 			page 50


 386:src/slabAllocator.cpp ****     size_t level = getDeg2Ceil(size);
 2093              		.loc 1 386 5
 2094              		.loc 1 386 31 is_stmt 0
 2095 0d18 97000000 		call	_Z11getDeg2Ceilm@plt
 2095      E7800000 
 2096              	.LVL219:
 387:src/slabAllocator.cpp ****     size_t index = level - CACHE_BUFFER_SMALL;
 2097              		.loc 1 387 5 is_stmt 1
 2098              		.loc 1 387 12 is_stmt 0
 2099 0d20 9304B5FF 		addi	s1,a0,-5
 2100              	.LVL220:
 388:src/slabAllocator.cpp ****     if(slabAllocator->cachesBuffers[index] == nullptr)
 2101              		.loc 1 388 5 is_stmt 1
 2102              		.loc 1 388 42 is_stmt 0
 2103 0d24 17090000 		ld	s2,.LANCHOR0
 2103      03390900 
 2104 0d2c 93973400 		slli	a5,s1,3
 2105 0d30 B307F900 		add	a5,s2,a5
 2106 0d34 83B78700 		ld	a5,8(a5)
 2107              		.loc 1 388 5
 2108 0d38 638C0702 		beqz	a5,.L109
 2109              	.LVL221:
 2110              	.L107:
 389:src/slabAllocator.cpp ****         slabAllocator->cachesBuffers[index] = (kmem_cache_t*)kmem_cache_alloc(&slabAllocator->cache
 390:src/slabAllocator.cpp **** 
 391:src/slabAllocator.cpp ****     return kmem_cache_alloc(slabAllocator->cachesBuffers[index]);
 2111              		.loc 1 391 5 is_stmt 1
 2112              		.loc 1 391 28 is_stmt 0
 2113 0d3c 93943400 		slli	s1,s1,3
 2114              	.LVL222:
 2115 0d40 17050000 		ld	a0,.LANCHOR0
 2115      03350500 
 2116 0d48 B3049500 		add	s1,a0,s1
 2117 0d4c 03B58400 		ld	a0,8(s1)
 2118 0d50 97000000 		call	_Z16kmem_cache_allocP12kmem_cache_s
 2118      E7800000 
 2119              	.LVL223:
 392:src/slabAllocator.cpp **** }
 2120              		.loc 1 392 1
 2121 0d58 83308101 		ld	ra,24(sp)
 2122              		.cfi_remember_state
 2123              		.cfi_restore 1
 2124 0d5c 03340101 		ld	s0,16(sp)
 2125              		.cfi_restore 8
 2126              		.cfi_def_cfa 2, 32
 2127 0d60 83348100 		ld	s1,8(sp)
 2128              		.cfi_restore 9
 2129 0d64 03390100 		ld	s2,0(sp)
 2130              		.cfi_restore 18
 2131 0d68 13010102 		addi	sp,sp,32
 2132              		.cfi_def_cfa_offset 0
 2133 0d6c 67800000 		jr	ra
 2134              	.LVL224:
 2135              	.L109:
 2136              		.cfi_restore_state
 389:src/slabAllocator.cpp ****         slabAllocator->cachesBuffers[index] = (kmem_cache_t*)kmem_cache_alloc(&slabAllocator->cache
 2137              		.loc 1 389 9 is_stmt 1
GAS LISTING /tmp/ccASzBvH.s 			page 51


 389:src/slabAllocator.cpp ****         slabAllocator->cachesBuffers[index] = (kmem_cache_t*)kmem_cache_alloc(&slabAllocator->cache
 2138              		.loc 1 389 78 is_stmt 0
 2139 0d70 13050907 		addi	a0,s2,112
 2140              	.LVL225:
 2141 0d74 97000000 		call	_Z16kmem_cache_allocP12kmem_cache_s
 2141      E7800000 
 2142              	.LVL226:
 389:src/slabAllocator.cpp ****         slabAllocator->cachesBuffers[index] = (kmem_cache_t*)kmem_cache_alloc(&slabAllocator->cache
 2143              		.loc 1 389 45
 2144 0d7c 93973400 		slli	a5,s1,3
 2145 0d80 3309F900 		add	s2,s2,a5
 2146 0d84 2334A900 		sd	a0,8(s2)
 2147 0d88 6FF05FFB 		j	.L107
 2148              		.cfi_endproc
 2149              	.LFE28:
 2151              		.align	2
 2152              		.globl	_Z5kfreePKv
 2154              	_Z5kfreePKv:
 2155              	.LFB29:
 393:src/slabAllocator.cpp **** 
 394:src/slabAllocator.cpp **** void kfree(const void *objp)
 395:src/slabAllocator.cpp **** {
 2156              		.loc 1 395 1 is_stmt 1
 2157              		.cfi_startproc
 2158              	.LVL227:
 2159 0d8c 130101FE 		addi	sp,sp,-32
 2160              		.cfi_def_cfa_offset 32
 2161 0d90 233C1100 		sd	ra,24(sp)
 2162 0d94 23388100 		sd	s0,16(sp)
 2163 0d98 23349100 		sd	s1,8(sp)
 2164 0d9c 23302101 		sd	s2,0(sp)
 2165              		.cfi_offset 1, -8
 2166              		.cfi_offset 8, -16
 2167              		.cfi_offset 9, -24
 2168              		.cfi_offset 18, -32
 2169 0da0 13040102 		addi	s0,sp,32
 2170              		.cfi_def_cfa 8, 0
 2171 0da4 13090500 		mv	s2,a0
 396:src/slabAllocator.cpp ****     slab_t* slab = nullptr;
 2172              		.loc 1 396 5
 2173              	.LVL228:
 397:src/slabAllocator.cpp ****     for(size_t i = 0;i < CACHE_BUFFER_SIZE;i++)
 2174              		.loc 1 397 5
 2175              	.LBB24:
 2176              		.loc 1 397 16 is_stmt 0
 2177 0da8 93040000 		li	s1,0
 2178              	.LBE24:
 396:src/slabAllocator.cpp ****     slab_t* slab = nullptr;
 2179              		.loc 1 396 13
 2180 0dac 13050000 		li	a0,0
 2181              	.LVL229:
 2182              	.L112:
 2183              	.LBB25:
 2184              		.loc 1 397 24 is_stmt 1 discriminator 1
 2185 0db0 9307C000 		li	a5,12
 2186 0db4 63E89702 		bgtu	s1,a5,.L111
 398:src/slabAllocator.cpp ****     {
GAS LISTING /tmp/ccASzBvH.s 			page 52


 399:src/slabAllocator.cpp ****         slab = findSlab(slabAllocator->cachesBuffers[i], objp);
 2187              		.loc 1 399 9
 2188              		.loc 1 399 24 is_stmt 0
 2189 0db8 93973400 		slli	a5,s1,3
 2190 0dbc 17070000 		ld	a4,.LANCHOR0
 2190      03370700 
 2191 0dc4 B307F700 		add	a5,a4,a5
 2192 0dc8 93050900 		mv	a1,s2
 2193 0dcc 03B58700 		ld	a0,8(a5)
 2194              	.LVL230:
 2195 0dd0 97000000 		call	_Z8findSlabP12kmem_cache_sPKv
 2195      E7800000 
 2196              	.LVL231:
 400:src/slabAllocator.cpp ****         if(slab != nullptr) break;
 2197              		.loc 1 400 9 is_stmt 1
 2198 0dd8 63160500 		bnez	a0,.L111
 397:src/slabAllocator.cpp ****     for(size_t i = 0;i < CACHE_BUFFER_SIZE;i++)
 2199              		.loc 1 397 5 discriminator 2
 2200 0ddc 93841400 		addi	s1,s1,1
 2201              	.LVL232:
 2202 0de0 6FF01FFD 		j	.L112
 2203              	.L111:
 2204              	.LBE25:
 401:src/slabAllocator.cpp ****     }
 402:src/slabAllocator.cpp ****     if(slab != nullptr)
 2205              		.loc 1 402 5
 2206 0de4 63080500 		beqz	a0,.L110
 403:src/slabAllocator.cpp ****     {
 404:src/slabAllocator.cpp ****         free_slab_object(slab, objp);
 2207              		.loc 1 404 9
 2208              		.loc 1 404 25 is_stmt 0
 2209 0de8 93050900 		mv	a1,s2
 2210 0dec 97000000 		call	_Z16free_slab_objectP6slab_sPKv
 2210      E7800000 
 2211              	.LVL233:
 2212              	.L110:
 405:src/slabAllocator.cpp ****     }
 406:src/slabAllocator.cpp **** }
 2213              		.loc 1 406 1
 2214 0df4 83308101 		ld	ra,24(sp)
 2215              		.cfi_restore 1
 2216 0df8 03340101 		ld	s0,16(sp)
 2217              		.cfi_restore 8
 2218              		.cfi_def_cfa 2, 32
 2219 0dfc 83348100 		ld	s1,8(sp)
 2220              		.cfi_restore 9
 2221              	.LVL234:
 2222 0e00 03390100 		ld	s2,0(sp)
 2223              		.cfi_restore 18
 2224              	.LVL235:
 2225 0e04 13010102 		addi	sp,sp,32
 2226              		.cfi_def_cfa_offset 0
 2227 0e08 67800000 		jr	ra
 2228              		.cfi_endproc
 2229              	.LFE29:
 2231              		.align	2
 2232              		.globl	_Z17destroy_slab_listP6slab_s
GAS LISTING /tmp/ccASzBvH.s 			page 53


 2234              	_Z17destroy_slab_listP6slab_s:
 2235              	.LFB30:
 407:src/slabAllocator.cpp **** 
 408:src/slabAllocator.cpp **** void destroy_slab_list(slab_t* slab)
 409:src/slabAllocator.cpp **** {
 2236              		.loc 1 409 1 is_stmt 1
 2237              		.cfi_startproc
 2238              	.LVL236:
 410:src/slabAllocator.cpp ****     if(slab == nullptr) return;
 2239              		.loc 1 410 5
 2240 0e0c 63040506 		beqz	a0,.L119
 409:src/slabAllocator.cpp ****     if(slab == nullptr) return;
 2241              		.loc 1 409 1 is_stmt 0
 2242 0e10 130101FE 		addi	sp,sp,-32
 2243              		.cfi_def_cfa_offset 32
 2244 0e14 233C1100 		sd	ra,24(sp)
 2245 0e18 23388100 		sd	s0,16(sp)
 2246 0e1c 23349100 		sd	s1,8(sp)
 2247 0e20 23302101 		sd	s2,0(sp)
 2248              		.cfi_offset 1, -8
 2249              		.cfi_offset 8, -16
 2250              		.cfi_offset 9, -24
 2251              		.cfi_offset 18, -32
 2252 0e24 13040102 		addi	s0,sp,32
 2253              		.cfi_def_cfa 8, 0
 2254 0e28 93050500 		mv	a1,a0
 411:src/slabAllocator.cpp ****     size_t sz = slab->owner->slab_size;
 2255              		.loc 1 411 5 is_stmt 1
 2256              		.loc 1 411 23 is_stmt 0
 2257 0e2c 83370501 		ld	a5,16(a0)
 2258              		.loc 1 411 12
 2259 0e30 03B98705 		ld	s2,88(a5)
 2260              	.LVL237:
 2261              	.L117:
 412:src/slabAllocator.cpp ****     while(slab != nullptr)
 2262              		.loc 1 412 5 is_stmt 1
 2263              		.loc 1 412 16
 2264 0e34 63840502 		beqz	a1,.L115
 2265              	.LBB26:
 413:src/slabAllocator.cpp ****     {
 414:src/slabAllocator.cpp ****         slab_t* nextSlab = slab->next;
 2266              		.loc 1 414 9
 2267              		.loc 1 414 17 is_stmt 0
 2268 0e38 83B48500 		ld	s1,8(a1)
 2269              	.LVL238:
 415:src/slabAllocator.cpp ****         buddy_free(slabAllocator->buddy, slab, sz);
 2270              		.loc 1 415 9 is_stmt 1
 2271              		.loc 1 415 19 is_stmt 0
 2272 0e3c 13060900 		mv	a2,s2
 2273 0e40 97070000 		ld	a5,.LANCHOR0
 2273      83B70700 
 2274 0e48 03B50700 		ld	a0,0(a5)
 2275 0e4c 97000000 		call	_Z10buddy_freeP14buddyAllocatorPvm@plt
 2275      E7800000 
 2276              	.LVL239:
 416:src/slabAllocator.cpp ****         slab = nextSlab;
 2277              		.loc 1 416 9 is_stmt 1
GAS LISTING /tmp/ccASzBvH.s 			page 54


 2278              		.loc 1 416 14 is_stmt 0
 2279 0e54 93850400 		mv	a1,s1
 2280              	.LBE26:
 412:src/slabAllocator.cpp ****     {
 2281              		.loc 1 412 5
 2282 0e58 6FF0DFFD 		j	.L117
 2283              	.LVL240:
 2284              	.L115:
 417:src/slabAllocator.cpp ****     }
 418:src/slabAllocator.cpp **** }
 2285              		.loc 1 418 1
 2286 0e5c 83308101 		ld	ra,24(sp)
 2287              		.cfi_restore 1
 2288 0e60 03340101 		ld	s0,16(sp)
 2289              		.cfi_restore 8
 2290              		.cfi_def_cfa 2, 32
 2291 0e64 83348100 		ld	s1,8(sp)
 2292              		.cfi_restore 9
 2293 0e68 03390100 		ld	s2,0(sp)
 2294              		.cfi_restore 18
 2295              	.LVL241:
 2296 0e6c 13010102 		addi	sp,sp,32
 2297              		.cfi_def_cfa_offset 0
 2298 0e70 67800000 		jr	ra
 2299              	.LVL242:
 2300              	.L119:
 2301 0e74 67800000 		ret
 2302              		.cfi_endproc
 2303              	.LFE30:
 2305              		.align	2
 2306              		.globl	_Z18kmem_cache_destroyP12kmem_cache_s
 2308              	_Z18kmem_cache_destroyP12kmem_cache_s:
 2309              	.LFB31:
 419:src/slabAllocator.cpp **** 
 420:src/slabAllocator.cpp **** void kmem_cache_destroy(kmem_cache_t *cachep)
 421:src/slabAllocator.cpp **** {
 2310              		.loc 1 421 1 is_stmt 1
 2311              		.cfi_startproc
 2312              	.LVL243:
 2313 0e78 130101FE 		addi	sp,sp,-32
 2314              		.cfi_def_cfa_offset 32
 2315 0e7c 233C1100 		sd	ra,24(sp)
 2316 0e80 23388100 		sd	s0,16(sp)
 2317 0e84 23349100 		sd	s1,8(sp)
 2318              		.cfi_offset 1, -8
 2319              		.cfi_offset 8, -16
 2320              		.cfi_offset 9, -24
 2321 0e88 13040102 		addi	s0,sp,32
 2322              		.cfi_def_cfa 8, 0
 2323 0e8c 93040500 		mv	s1,a0
 422:src/slabAllocator.cpp ****     destroy_slab_list(cachep->slabs_empty);
 2324              		.loc 1 422 5
 2325              		.loc 1 422 22 is_stmt 0
 2326 0e90 03350504 		ld	a0,64(a0)
 2327              	.LVL244:
 2328 0e94 97000000 		call	_Z17destroy_slab_listP6slab_s
 2328      E7800000 
GAS LISTING /tmp/ccASzBvH.s 			page 55


 2329              	.LVL245:
 423:src/slabAllocator.cpp ****     destroy_slab_list(cachep->slabs_partial);
 2330              		.loc 1 423 5 is_stmt 1
 2331              		.loc 1 423 22 is_stmt 0
 2332 0e9c 03B50405 		ld	a0,80(s1)
 2333 0ea0 97000000 		call	_Z17destroy_slab_listP6slab_s
 2333      E7800000 
 2334              	.LVL246:
 424:src/slabAllocator.cpp ****     destroy_slab_list(cachep->slabs_full);
 2335              		.loc 1 424 5 is_stmt 1
 2336              		.loc 1 424 22 is_stmt 0
 2337 0ea8 03B58404 		ld	a0,72(s1)
 2338 0eac 97000000 		call	_Z17destroy_slab_listP6slab_s
 2338      E7800000 
 2339              	.LVL247:
 425:src/slabAllocator.cpp ****     kmem_cache_free(&slabAllocator->cacheOfCaches,cachep);
 2340              		.loc 1 425 5 is_stmt 1
 2341              		.loc 1 425 20 is_stmt 0
 2342 0eb4 93850400 		mv	a1,s1
 2343 0eb8 17050000 		ld	a0,.LANCHOR0
 2343      03350500 
 2344 0ec0 13050507 		addi	a0,a0,112
 2345 0ec4 97000000 		call	_Z15kmem_cache_freeP12kmem_cache_sPv
 2345      E7800000 
 2346              	.LVL248:
 426:src/slabAllocator.cpp **** }
 2347              		.loc 1 426 1
 2348 0ecc 83308101 		ld	ra,24(sp)
 2349              		.cfi_restore 1
 2350 0ed0 03340101 		ld	s0,16(sp)
 2351              		.cfi_restore 8
 2352              		.cfi_def_cfa 2, 32
 2353 0ed4 83348100 		ld	s1,8(sp)
 2354              		.cfi_restore 9
 2355              	.LVL249:
 2356 0ed8 13010102 		addi	sp,sp,32
 2357              		.cfi_def_cfa_offset 0
 2358 0edc 67800000 		jr	ra
 2359              		.cfi_endproc
 2360              	.LFE31:
 2362              		.bss
 2363              		.align	3
 2364              		.set	.LANCHOR0,. + 0
 2367              	_ZL13slabAllocator:
 2368 0000 00000000 		.zero	8
 2368      00000000 
 2369              		.text
 2370              	.Letext0:
 2371              		.file 2 "src/../h/../lib/hw.h"
 2372              		.file 3 "src/../h/slabAllocator.hpp"
 2373              		.file 4 "src/../h/buddyAllocator.hpp"
 2374              		.file 5 "src/../h/PCB.hpp"
 2375              		.file 6 "src/../h/KSemaphore.hpp"
 2376              		.file 7 "src/../h/KConsole.hpp"
GAS LISTING /tmp/ccASzBvH.s 			page 56


DEFINED SYMBOLS
                            *ABS*:0000000000000000 slabAllocator.cpp
     /tmp/ccASzBvH.s:9      .text:0000000000000000 _Z6strcpyPKcPc
     /tmp/ccASzBvH.s:13     .text:0000000000000000 .L0 
     /tmp/ccASzBvH.s:15     .text:0000000000000000 .L0 
     /tmp/ccASzBvH.s:16     .text:0000000000000004 .L0 
     /tmp/ccASzBvH.s:18     .text:0000000000000008 .L0 
     /tmp/ccASzBvH.s:20     .text:000000000000000c .L0 
     /tmp/ccASzBvH.s:23     .text:000000000000000c .L0 
     /tmp/ccASzBvH.s:24     .text:000000000000000c .L0 
     /tmp/ccASzBvH.s:25     .text:000000000000000c .L0 
     /tmp/ccASzBvH.s:27     .text:0000000000000010 .L0 
     /tmp/ccASzBvH.s:29     .text:0000000000000014 .L0 
     /tmp/ccASzBvH.s:30     .text:0000000000000014 .L0 
     /tmp/ccASzBvH.s:32     .text:0000000000000018 .L0 
     /tmp/ccASzBvH.s:33     .text:0000000000000018 .L0 
     /tmp/ccASzBvH.s:36     .text:000000000000001c .L0 
     /tmp/ccASzBvH.s:37     .text:000000000000001c .L0 
     /tmp/ccASzBvH.s:40     .text:0000000000000020 .L0 
     /tmp/ccASzBvH.s:43     .text:0000000000000024 .L0 
     /tmp/ccASzBvH.s:44     .text:0000000000000024 .L0 
     /tmp/ccASzBvH.s:46     .text:0000000000000028 .L0 
     /tmp/ccASzBvH.s:47     .text:000000000000002c .L0 
     /tmp/ccASzBvH.s:48     .text:000000000000002c .L0 
     /tmp/ccASzBvH.s:50     .text:0000000000000030 .L0 
     /tmp/ccASzBvH.s:52     .text:0000000000000034 .L0 
     /tmp/ccASzBvH.s:63     .text:0000000000000034 _Z19slab_allocator_initP14buddyAllocator
     /tmp/ccASzBvH.s:66     .text:0000000000000034 .L0 
     /tmp/ccASzBvH.s:68     .text:0000000000000034 .L0 
     /tmp/ccASzBvH.s:69     .text:0000000000000038 .L0 
     /tmp/ccASzBvH.s:74     .text:0000000000000048 .L0 
     /tmp/ccASzBvH.s:75     .text:0000000000000048 .L0 
     /tmp/ccASzBvH.s:76     .text:0000000000000048 .L0 
     /tmp/ccASzBvH.s:77     .text:0000000000000048 .L0 
     /tmp/ccASzBvH.s:79     .text:000000000000004c .L0 
     /tmp/ccASzBvH.s:82     .text:0000000000000050 .L0 
     /tmp/ccASzBvH.s:83     .text:0000000000000050 .L0 
     /tmp/ccASzBvH.s:86     .text:0000000000000054 .L0 
     /tmp/ccASzBvH.s:87     .text:0000000000000054 .L0 
     /tmp/ccASzBvH.s:91     .text:0000000000000058 .L0 
     /tmp/ccASzBvH.s:92     .text:0000000000000058 .L0 
     /tmp/ccASzBvH.s:97     .text:0000000000000060 .L0 
     /tmp/ccASzBvH.s:98     .text:0000000000000060 .L0 
     /tmp/ccASzBvH.s:102    .text:000000000000006c .L0 
     /tmp/ccASzBvH.s:106    .text:0000000000000070 .L0 
     /tmp/ccASzBvH.s:110    .text:0000000000000078 .L0 
     /tmp/ccASzBvH.s:111    .text:0000000000000078 .L0 
     /tmp/ccASzBvH.s:116    .text:000000000000008c .L0 
     /tmp/ccASzBvH.s:117    .text:000000000000008c .L0 
     /tmp/ccASzBvH.s:119    .text:0000000000000090 .L0 
     /tmp/ccASzBvH.s:120    .text:0000000000000090 .L0 
     /tmp/ccASzBvH.s:122    .text:0000000000000094 .L0 
     /tmp/ccASzBvH.s:123    .text:0000000000000094 .L0 
     /tmp/ccASzBvH.s:125    .text:0000000000000098 .L0 
     /tmp/ccASzBvH.s:126    .text:0000000000000098 .L0 
     /tmp/ccASzBvH.s:128    .text:000000000000009c .L0 
     /tmp/ccASzBvH.s:129    .text:000000000000009c .L0 
GAS LISTING /tmp/ccASzBvH.s 			page 57


     /tmp/ccASzBvH.s:131    .text:00000000000000a0 .L0 
     /tmp/ccASzBvH.s:132    .text:00000000000000a0 .L0 
     /tmp/ccASzBvH.s:135    .text:00000000000000a8 .L0 
     /tmp/ccASzBvH.s:136    .text:00000000000000a8 .L0 
     /tmp/ccASzBvH.s:139    .text:00000000000000b0 .L0 
     /tmp/ccASzBvH.s:140    .text:00000000000000b0 .L0 
     /tmp/ccASzBvH.s:142    .text:00000000000000b8 .L0 
     /tmp/ccASzBvH.s:144    .text:00000000000000bc .L0 
     /tmp/ccASzBvH.s:145    .text:00000000000000bc .L0 
     /tmp/ccASzBvH.s:147    .text:00000000000000c0 .L0 
     /tmp/ccASzBvH.s:150    .text:00000000000000c4 .L0 
     /tmp/ccASzBvH.s:153    .text:00000000000000c8 .L0 
     /tmp/ccASzBvH.s:155    .text:00000000000000cc .L0 
     /tmp/ccASzBvH.s:169    .text:00000000000000cc _Z14allocateObjectP6slab_s
     /tmp/ccASzBvH.s:172    .text:00000000000000cc .L0 
     /tmp/ccASzBvH.s:174    .text:00000000000000cc .L0 
     /tmp/ccASzBvH.s:175    .text:00000000000000d0 .L0 
     /tmp/ccASzBvH.s:181    .text:00000000000000e4 .L0 
     /tmp/ccASzBvH.s:182    .text:00000000000000e4 .L0 
     /tmp/ccASzBvH.s:183    .text:00000000000000e4 .L0 
     /tmp/ccASzBvH.s:184    .text:00000000000000e4 .L0 
     /tmp/ccASzBvH.s:185    .text:00000000000000e4 .L0 
     /tmp/ccASzBvH.s:187    .text:00000000000000e8 .L0 
     /tmp/ccASzBvH.s:191    .text:00000000000000ec .L0 
     /tmp/ccASzBvH.s:192    .text:00000000000000ec .L0 
     /tmp/ccASzBvH.s:194    .text:00000000000000ec .L0 
     /tmp/ccASzBvH.s:195    .text:00000000000000ec .L0 
     /tmp/ccASzBvH.s:199    .text:00000000000000f0 .L0 
     /tmp/ccASzBvH.s:200    .text:00000000000000f0 .L0 
     /tmp/ccASzBvH.s:202    .text:00000000000000f4 .L0 
     /tmp/ccASzBvH.s:205    .text:00000000000000f8 .L0 
     /tmp/ccASzBvH.s:206    .text:00000000000000f8 .L0 
     /tmp/ccASzBvH.s:208    .text:00000000000000fc .L0 
     /tmp/ccASzBvH.s:212    .text:0000000000000104 .L0 
     /tmp/ccASzBvH.s:213    .text:0000000000000104 .L0 
     /tmp/ccASzBvH.s:215    .text:0000000000000108 .L0 
     /tmp/ccASzBvH.s:218    .text:0000000000000110 .L0 
     /tmp/ccASzBvH.s:220    .text:0000000000000114 .L0 
     /tmp/ccASzBvH.s:223    .text:0000000000000118 .L0 
     /tmp/ccASzBvH.s:229    .text:0000000000000120 .L0 
     /tmp/ccASzBvH.s:230    .text:0000000000000120 .L0 
     /tmp/ccASzBvH.s:232    .text:0000000000000124 .L0 
     /tmp/ccASzBvH.s:234    .text:0000000000000128 .L0 
     /tmp/ccASzBvH.s:236    .text:000000000000012c .L0 
     /tmp/ccASzBvH.s:240    .text:0000000000000134 .L0 
     /tmp/ccASzBvH.s:241    .text:0000000000000134 .L0 
     /tmp/ccASzBvH.s:244    .text:0000000000000138 .L0 
     /tmp/ccASzBvH.s:250    .text:000000000000013c .L0 
     /tmp/ccASzBvH.s:252    .text:0000000000000140 .L0 
     /tmp/ccASzBvH.s:256    .text:0000000000000144 .L0 
     /tmp/ccASzBvH.s:258    .text:0000000000000148 .L0 
     /tmp/ccASzBvH.s:259    .text:0000000000000148 .L0 
     /tmp/ccASzBvH.s:264    .text:0000000000000158 .L0 
     /tmp/ccASzBvH.s:265    .text:0000000000000158 .L0 
     /tmp/ccASzBvH.s:271    .text:000000000000016c .L0 
     /tmp/ccASzBvH.s:272    .text:000000000000016c .L0 
     /tmp/ccASzBvH.s:276    .text:000000000000017c .L0 
GAS LISTING /tmp/ccASzBvH.s 			page 58


     /tmp/ccASzBvH.s:277    .text:000000000000017c .L0 
     /tmp/ccASzBvH.s:282    .text:000000000000018c .L0 
     /tmp/ccASzBvH.s:284    .text:0000000000000190 .L0 
     /tmp/ccASzBvH.s:286    .text:0000000000000194 .L0 
     /tmp/ccASzBvH.s:289    .text:000000000000019c .L0 
     /tmp/ccASzBvH.s:292    .text:00000000000001a4 .L0 
     /tmp/ccASzBvH.s:294    .text:00000000000001a8 .L0 
     /tmp/ccASzBvH.s:296    .text:00000000000001ac .L0 
     /tmp/ccASzBvH.s:297    .text:00000000000001ac .L0 
     /tmp/ccASzBvH.s:299    .text:00000000000001b0 .L0 
     /tmp/ccASzBvH.s:303    .text:00000000000001b8 .L0 
     /tmp/ccASzBvH.s:304    .text:00000000000001b8 .L0 
     /tmp/ccASzBvH.s:306    .text:00000000000001c0 .L0 
     /tmp/ccASzBvH.s:308    .text:00000000000001c4 .L0 
     /tmp/ccASzBvH.s:309    .text:00000000000001c4 .L0 
     /tmp/ccASzBvH.s:311    .text:00000000000001c8 .L0 
     /tmp/ccASzBvH.s:314    .text:00000000000001cc .L0 
     /tmp/ccASzBvH.s:317    .text:00000000000001d0 .L0 
     /tmp/ccASzBvH.s:320    .text:00000000000001d4 .L0 
     /tmp/ccASzBvH.s:322    .text:00000000000001d8 .L0 
     /tmp/ccASzBvH.s:328    .text:00000000000001d8 _Z4fullP6slab_s
     /tmp/ccASzBvH.s:331    .text:00000000000001d8 .L0 
     /tmp/ccASzBvH.s:333    .text:00000000000001d8 .L0 
     /tmp/ccASzBvH.s:334    .text:00000000000001dc .L0 
     /tmp/ccASzBvH.s:336    .text:00000000000001e0 .L0 
     /tmp/ccASzBvH.s:338    .text:00000000000001e4 .L0 
     /tmp/ccASzBvH.s:340    .text:00000000000001e4 .L0 
     /tmp/ccASzBvH.s:341    .text:00000000000001e4 .L0 
     /tmp/ccASzBvH.s:343    .text:00000000000001e8 .L0 
     /tmp/ccASzBvH.s:347    .text:00000000000001f0 .L0 
     /tmp/ccASzBvH.s:349    .text:00000000000001f8 .L0 
     /tmp/ccASzBvH.s:350    .text:00000000000001f8 .L0 
     /tmp/ccASzBvH.s:352    .text:00000000000001fc .L0 
     /tmp/ccASzBvH.s:354    .text:0000000000000200 .L0 
     /tmp/ccASzBvH.s:360    .text:0000000000000200 _Z5emptyP6slab_s
     /tmp/ccASzBvH.s:363    .text:0000000000000200 .L0 
     /tmp/ccASzBvH.s:365    .text:0000000000000200 .L0 
     /tmp/ccASzBvH.s:366    .text:0000000000000204 .L0 
     /tmp/ccASzBvH.s:368    .text:0000000000000208 .L0 
     /tmp/ccASzBvH.s:370    .text:000000000000020c .L0 
     /tmp/ccASzBvH.s:372    .text:000000000000020c .L0 
     /tmp/ccASzBvH.s:373    .text:000000000000020c .L0 
     /tmp/ccASzBvH.s:376    .text:0000000000000210 .L0 
     /tmp/ccASzBvH.s:378    .text:0000000000000218 .L0 
     /tmp/ccASzBvH.s:379    .text:0000000000000218 .L0 
     /tmp/ccASzBvH.s:381    .text:000000000000021c .L0 
     /tmp/ccASzBvH.s:383    .text:0000000000000220 .L0 
     /tmp/ccASzBvH.s:389    .text:0000000000000220 _Z18insertIntoSlabListP6slab_sPS0_
     /tmp/ccASzBvH.s:392    .text:0000000000000220 .L0 
     /tmp/ccASzBvH.s:394    .text:0000000000000220 .L0 
     /tmp/ccASzBvH.s:395    .text:0000000000000224 .L0 
     /tmp/ccASzBvH.s:397    .text:0000000000000228 .L0 
     /tmp/ccASzBvH.s:399    .text:000000000000022c .L0 
     /tmp/ccASzBvH.s:401    .text:000000000000022c .L0 
     /tmp/ccASzBvH.s:402    .text:000000000000022c .L0 
     /tmp/ccASzBvH.s:404    .text:0000000000000230 .L0 
     /tmp/ccASzBvH.s:405    .text:0000000000000230 .L0 
GAS LISTING /tmp/ccASzBvH.s 			page 59


     /tmp/ccASzBvH.s:407    .text:0000000000000234 .L0 
     /tmp/ccASzBvH.s:409    .text:0000000000000238 .L0 
     /tmp/ccASzBvH.s:411    .text:000000000000023c .L0 
     /tmp/ccASzBvH.s:412    .text:000000000000023c .L0 
     /tmp/ccASzBvH.s:415    .text:0000000000000240 .L0 
     /tmp/ccASzBvH.s:416    .text:0000000000000240 .L0 
     /tmp/ccASzBvH.s:418    .text:0000000000000244 .L0 
     /tmp/ccASzBvH.s:419    .text:0000000000000248 .L0 
     /tmp/ccASzBvH.s:420    .text:0000000000000248 .L0 
     /tmp/ccASzBvH.s:422    .text:000000000000024c .L0 
     /tmp/ccASzBvH.s:424    .text:0000000000000250 .L0 
     /tmp/ccASzBvH.s:430    .text:0000000000000250 _Z18removeFromSlabListP6slab_sPS0_
     /tmp/ccASzBvH.s:433    .text:0000000000000250 .L0 
     /tmp/ccASzBvH.s:435    .text:0000000000000250 .L0 
     /tmp/ccASzBvH.s:436    .text:0000000000000254 .L0 
     /tmp/ccASzBvH.s:438    .text:0000000000000258 .L0 
     /tmp/ccASzBvH.s:440    .text:000000000000025c .L0 
     /tmp/ccASzBvH.s:442    .text:000000000000025c .L0 
     /tmp/ccASzBvH.s:443    .text:000000000000025c .L0 
     /tmp/ccASzBvH.s:445    .text:0000000000000260 .L0 
     /tmp/ccASzBvH.s:447    .text:0000000000000264 .L0 
     /tmp/ccASzBvH.s:448    .text:0000000000000264 .L0 
     /tmp/ccASzBvH.s:450    .text:0000000000000268 .L0 
     /tmp/ccASzBvH.s:452    .text:000000000000026c .L0 
     /tmp/ccASzBvH.s:454    .text:0000000000000270 .L0 
     /tmp/ccASzBvH.s:455    .text:0000000000000270 .L0 
     /tmp/ccASzBvH.s:457    .text:0000000000000274 .L0 
     /tmp/ccASzBvH.s:460    .text:0000000000000278 .L0 
     /tmp/ccASzBvH.s:461    .text:0000000000000278 .L0 
     /tmp/ccASzBvH.s:463    .text:000000000000027c .L0 
     /tmp/ccASzBvH.s:466    .text:0000000000000280 .L0 
     /tmp/ccASzBvH.s:467    .text:0000000000000284 .L0 
     /tmp/ccASzBvH.s:468    .text:0000000000000284 .L0 
     /tmp/ccASzBvH.s:469    .text:0000000000000284 .L0 
     /tmp/ccASzBvH.s:471    .text:0000000000000288 .L0 
     /tmp/ccASzBvH.s:474    .text:000000000000028c .L0 
     /tmp/ccASzBvH.s:476    .text:000000000000028c .L0 
     /tmp/ccASzBvH.s:477    .text:000000000000028c .L0 
     /tmp/ccASzBvH.s:479    .text:0000000000000290 .L0 
     /tmp/ccASzBvH.s:481    .text:0000000000000294 .L0 
     /tmp/ccASzBvH.s:482    .text:0000000000000294 .L0 
     /tmp/ccASzBvH.s:485    .text:0000000000000298 .L0 
     /tmp/ccASzBvH.s:486    .text:0000000000000298 .L0 
     /tmp/ccASzBvH.s:488    .text:000000000000029c .L0 
     /tmp/ccASzBvH.s:490    .text:00000000000002a0 .L0 
     /tmp/ccASzBvH.s:491    .text:00000000000002a0 .L0 
     /tmp/ccASzBvH.s:493    .text:00000000000002a4 .L0 
     /tmp/ccASzBvH.s:495    .text:00000000000002ac .L0 
     /tmp/ccASzBvH.s:501    .text:00000000000002ac _Z16putPartialToFullP12kmem_cache_s
     /tmp/ccASzBvH.s:504    .text:00000000000002ac .L0 
     /tmp/ccASzBvH.s:506    .text:00000000000002ac .L0 
     /tmp/ccASzBvH.s:507    .text:00000000000002b0 .L0 
     /tmp/ccASzBvH.s:512    .text:00000000000002c0 .L0 
     /tmp/ccASzBvH.s:513    .text:00000000000002c0 .L0 
     /tmp/ccASzBvH.s:514    .text:00000000000002c0 .L0 
     /tmp/ccASzBvH.s:515    .text:00000000000002c0 .L0 
     /tmp/ccASzBvH.s:517    .text:00000000000002c4 .L0 
GAS LISTING /tmp/ccASzBvH.s 			page 60


     /tmp/ccASzBvH.s:520    .text:00000000000002c8 .L0 
     /tmp/ccASzBvH.s:521    .text:00000000000002c8 .L0 
     /tmp/ccASzBvH.s:524    .text:00000000000002cc .L0 
     /tmp/ccASzBvH.s:525    .text:00000000000002cc .L0 
     /tmp/ccASzBvH.s:531    .text:00000000000002dc .L0 
     /tmp/ccASzBvH.s:532    .text:00000000000002dc .L0 
     /tmp/ccASzBvH.s:537    .text:00000000000002ec .L0 
     /tmp/ccASzBvH.s:538    .text:00000000000002f0 .L0 
     /tmp/ccASzBvH.s:540    .text:00000000000002f4 .L0 
     /tmp/ccASzBvH.s:541    .text:00000000000002f4 .L0 
     /tmp/ccASzBvH.s:543    .text:00000000000002f8 .L0 
     /tmp/ccASzBvH.s:546    .text:00000000000002fc .L0 
     /tmp/ccASzBvH.s:549    .text:0000000000000300 .L0 
     /tmp/ccASzBvH.s:551    .text:0000000000000304 .L0 
     /tmp/ccASzBvH.s:557    .text:0000000000000304 _Z17putEmptyToPartialP12kmem_cache_s
     /tmp/ccASzBvH.s:560    .text:0000000000000304 .L0 
     /tmp/ccASzBvH.s:562    .text:0000000000000304 .L0 
     /tmp/ccASzBvH.s:563    .text:0000000000000308 .L0 
     /tmp/ccASzBvH.s:568    .text:0000000000000318 .L0 
     /tmp/ccASzBvH.s:569    .text:0000000000000318 .L0 
     /tmp/ccASzBvH.s:570    .text:0000000000000318 .L0 
     /tmp/ccASzBvH.s:571    .text:0000000000000318 .L0 
     /tmp/ccASzBvH.s:573    .text:000000000000031c .L0 
     /tmp/ccASzBvH.s:576    .text:0000000000000320 .L0 
     /tmp/ccASzBvH.s:577    .text:0000000000000320 .L0 
     /tmp/ccASzBvH.s:580    .text:0000000000000324 .L0 
     /tmp/ccASzBvH.s:581    .text:0000000000000324 .L0 
     /tmp/ccASzBvH.s:587    .text:0000000000000334 .L0 
     /tmp/ccASzBvH.s:588    .text:0000000000000334 .L0 
     /tmp/ccASzBvH.s:593    .text:0000000000000344 .L0 
     /tmp/ccASzBvH.s:594    .text:0000000000000348 .L0 
     /tmp/ccASzBvH.s:596    .text:000000000000034c .L0 
     /tmp/ccASzBvH.s:597    .text:000000000000034c .L0 
     /tmp/ccASzBvH.s:599    .text:0000000000000350 .L0 
     /tmp/ccASzBvH.s:602    .text:0000000000000354 .L0 
     /tmp/ccASzBvH.s:605    .text:0000000000000358 .L0 
     /tmp/ccASzBvH.s:607    .text:000000000000035c .L0 
     /tmp/ccASzBvH.s:613    .text:000000000000035c _Z14removeFullSlabP12kmem_cache_sP6slab_s
     /tmp/ccASzBvH.s:616    .text:000000000000035c .L0 
     /tmp/ccASzBvH.s:618    .text:000000000000035c .L0 
     /tmp/ccASzBvH.s:619    .text:0000000000000360 .L0 
     /tmp/ccASzBvH.s:624    .text:0000000000000370 .L0 
     /tmp/ccASzBvH.s:625    .text:0000000000000370 .L0 
     /tmp/ccASzBvH.s:626    .text:0000000000000370 .L0 
     /tmp/ccASzBvH.s:627    .text:0000000000000370 .L0 
     /tmp/ccASzBvH.s:629    .text:0000000000000374 .L0 
     /tmp/ccASzBvH.s:633    .text:000000000000037c .L0 
     /tmp/ccASzBvH.s:634    .text:000000000000037c .L0 
     /tmp/ccASzBvH.s:641    .text:000000000000038c .L0 
     /tmp/ccASzBvH.s:642    .text:000000000000038c .L0 
     /tmp/ccASzBvH.s:647    .text:000000000000039c .L0 
     /tmp/ccASzBvH.s:648    .text:00000000000003a0 .L0 
     /tmp/ccASzBvH.s:650    .text:00000000000003a4 .L0 
     /tmp/ccASzBvH.s:651    .text:00000000000003a4 .L0 
     /tmp/ccASzBvH.s:653    .text:00000000000003a8 .L0 
     /tmp/ccASzBvH.s:656    .text:00000000000003ac .L0 
     /tmp/ccASzBvH.s:659    .text:00000000000003b0 .L0 
GAS LISTING /tmp/ccASzBvH.s 			page 61


     /tmp/ccASzBvH.s:661    .text:00000000000003b4 .L0 
     /tmp/ccASzBvH.s:667    .text:00000000000003b4 _Z17removePartialSlabP12kmem_cache_sP6slab_s
     /tmp/ccASzBvH.s:670    .text:00000000000003b4 .L0 
     /tmp/ccASzBvH.s:672    .text:00000000000003b4 .L0 
     /tmp/ccASzBvH.s:673    .text:00000000000003b8 .L0 
     /tmp/ccASzBvH.s:678    .text:00000000000003c8 .L0 
     /tmp/ccASzBvH.s:679    .text:00000000000003c8 .L0 
     /tmp/ccASzBvH.s:680    .text:00000000000003c8 .L0 
     /tmp/ccASzBvH.s:681    .text:00000000000003c8 .L0 
     /tmp/ccASzBvH.s:683    .text:00000000000003cc .L0 
     /tmp/ccASzBvH.s:687    .text:00000000000003d4 .L0 
     /tmp/ccASzBvH.s:688    .text:00000000000003d4 .L0 
     /tmp/ccASzBvH.s:695    .text:00000000000003e4 .L0 
     /tmp/ccASzBvH.s:696    .text:00000000000003e4 .L0 
     /tmp/ccASzBvH.s:701    .text:00000000000003f4 .L0 
     /tmp/ccASzBvH.s:702    .text:00000000000003f8 .L0 
     /tmp/ccASzBvH.s:704    .text:00000000000003fc .L0 
     /tmp/ccASzBvH.s:705    .text:00000000000003fc .L0 
     /tmp/ccASzBvH.s:707    .text:0000000000000400 .L0 
     /tmp/ccASzBvH.s:710    .text:0000000000000404 .L0 
     /tmp/ccASzBvH.s:713    .text:0000000000000408 .L0 
     /tmp/ccASzBvH.s:715    .text:000000000000040c .L0 
     /tmp/ccASzBvH.s:721    .text:000000000000040c _Z12allocateSlabP12kmem_cache_s
     /tmp/ccASzBvH.s:724    .text:000000000000040c .L0 
     /tmp/ccASzBvH.s:726    .text:000000000000040c .L0 
     /tmp/ccASzBvH.s:727    .text:0000000000000410 .L0 
     /tmp/ccASzBvH.s:731    .text:000000000000041c .L0 
     /tmp/ccASzBvH.s:732    .text:000000000000041c .L0 
     /tmp/ccASzBvH.s:733    .text:000000000000041c .L0 
     /tmp/ccASzBvH.s:735    .text:0000000000000420 .L0 
     /tmp/ccASzBvH.s:738    .text:0000000000000424 .L0 
     /tmp/ccASzBvH.s:739    .text:0000000000000424 .L0 
     /tmp/ccASzBvH.s:746    .text:000000000000043c .L0 
     /tmp/ccASzBvH.s:747    .text:000000000000043c .L0 
     /tmp/ccASzBvH.s:749    .text:0000000000000440 .L0 
     /tmp/ccASzBvH.s:751    .text:0000000000000444 .L0 
     /tmp/ccASzBvH.s:753    .text:0000000000000448 .L0 
     /tmp/ccASzBvH.s:754    .text:0000000000000448 .L0 
     /tmp/ccASzBvH.s:757    .text:000000000000044c .L0 
     /tmp/ccASzBvH.s:758    .text:000000000000044c .L0 
     /tmp/ccASzBvH.s:760    .text:0000000000000450 .L0 
     /tmp/ccASzBvH.s:761    .text:0000000000000450 .L0 
     /tmp/ccASzBvH.s:763    .text:0000000000000454 .L0 
     /tmp/ccASzBvH.s:764    .text:0000000000000454 .L0 
     /tmp/ccASzBvH.s:766    .text:0000000000000458 .L0 
     /tmp/ccASzBvH.s:767    .text:0000000000000458 .L0 
     /tmp/ccASzBvH.s:769    .text:000000000000045c .L0 
     /tmp/ccASzBvH.s:770    .text:000000000000045c .L0 
     /tmp/ccASzBvH.s:772    .text:0000000000000460 .L0 
     /tmp/ccASzBvH.s:775    .text:0000000000000464 .L0 
     /tmp/ccASzBvH.s:776    .text:0000000000000464 .L0 
     /tmp/ccASzBvH.s:779    .text:0000000000000468 .L0 
     /tmp/ccASzBvH.s:781    .text:000000000000046c .L0 
     /tmp/ccASzBvH.s:784    .text:0000000000000470 .L0 
     /tmp/ccASzBvH.s:788    .text:0000000000000474 .L0 
     /tmp/ccASzBvH.s:789    .text:0000000000000474 .L0 
     /tmp/ccASzBvH.s:793    .text:0000000000000478 .L0 
GAS LISTING /tmp/ccASzBvH.s 			page 62


     /tmp/ccASzBvH.s:794    .text:0000000000000478 .L0 
     /tmp/ccASzBvH.s:796    .text:000000000000047c .L0 
     /tmp/ccASzBvH.s:798    .text:0000000000000480 .L0 
     /tmp/ccASzBvH.s:800    .text:0000000000000484 .L0 
     /tmp/ccASzBvH.s:801    .text:0000000000000484 .L0 
     /tmp/ccASzBvH.s:804    .text:000000000000048c .L0 
     /tmp/ccASzBvH.s:810    .text:0000000000000494 .L0 
     /tmp/ccASzBvH.s:811    .text:0000000000000498 .L0 
     /tmp/ccASzBvH.s:813    .text:000000000000049c .L0 
     /tmp/ccASzBvH.s:814    .text:000000000000049c .L0 
     /tmp/ccASzBvH.s:816    .text:00000000000004a0 .L0 
     /tmp/ccASzBvH.s:819    .text:00000000000004a4 .L0 
     /tmp/ccASzBvH.s:821    .text:00000000000004a8 .L0 
     /tmp/ccASzBvH.s:827    .text:00000000000004a8 _Z18getOptimalSlabSizem
     /tmp/ccASzBvH.s:830    .text:00000000000004a8 .L0 
     /tmp/ccASzBvH.s:832    .text:00000000000004a8 .L0 
     /tmp/ccASzBvH.s:833    .text:00000000000004ac .L0 
     /tmp/ccASzBvH.s:835    .text:00000000000004b0 .L0 
     /tmp/ccASzBvH.s:837    .text:00000000000004b4 .L0 
     /tmp/ccASzBvH.s:840    .text:00000000000004b4 .L0 
     /tmp/ccASzBvH.s:841    .text:00000000000004b4 .L0 
     /tmp/ccASzBvH.s:845    .text:00000000000004b8 .L0 
     /tmp/ccASzBvH.s:846    .text:00000000000004b8 .L0 
     /tmp/ccASzBvH.s:847    .text:00000000000004b8 .L0 
     /tmp/ccASzBvH.s:849    .text:00000000000004bc .L0 
     /tmp/ccASzBvH.s:851    .text:00000000000004c0 .L0 
     /tmp/ccASzBvH.s:852    .text:00000000000004c0 .L0 
     /tmp/ccASzBvH.s:855    .text:00000000000004c4 .L0 
     /tmp/ccASzBvH.s:858    .text:00000000000004c8 .L0 
     /tmp/ccASzBvH.s:859    .text:00000000000004c8 .L0 
     /tmp/ccASzBvH.s:861    .text:00000000000004cc .L0 
     /tmp/ccASzBvH.s:865    .text:00000000000004d0 .L0 
     /tmp/ccASzBvH.s:866    .text:00000000000004d0 .L0 
     /tmp/ccASzBvH.s:871    .text:00000000000004d8 .L0 
     /tmp/ccASzBvH.s:875    .text:00000000000004dc .L0 
     /tmp/ccASzBvH.s:879    .text:00000000000004e4 .L0 
     /tmp/ccASzBvH.s:880    .text:00000000000004e4 .L0 
     /tmp/ccASzBvH.s:883    .text:00000000000004e8 .L0 
     /tmp/ccASzBvH.s:884    .text:00000000000004e8 .L0 
     /tmp/ccASzBvH.s:886    .text:00000000000004ec .L0 
     /tmp/ccASzBvH.s:889    .text:00000000000004f0 .L0 
     /tmp/ccASzBvH.s:891    .text:00000000000004f4 .L0 
     /tmp/ccASzBvH.s:894    .text:00000000000004f8 .L0 
     /tmp/ccASzBvH.s:902    .text:0000000000000500 .L0 
     /tmp/ccASzBvH.s:903    .text:0000000000000500 .L0 
     /tmp/ccASzBvH.s:906    .text:0000000000000508 .L0 
     /tmp/ccASzBvH.s:907    .text:0000000000000508 .L0 
     /tmp/ccASzBvH.s:909    .text:000000000000050c .L0 
     /tmp/ccASzBvH.s:911    .text:0000000000000510 .L0 
     /tmp/ccASzBvH.s:917    .text:0000000000000510 _Z8findSlabP12kmem_cache_sPKv
     /tmp/ccASzBvH.s:920    .text:0000000000000510 .L0 
     /tmp/ccASzBvH.s:922    .text:0000000000000510 .L0 
     /tmp/ccASzBvH.s:923    .text:0000000000000514 .L0 
     /tmp/ccASzBvH.s:925    .text:0000000000000518 .L0 
     /tmp/ccASzBvH.s:927    .text:000000000000051c .L0 
     /tmp/ccASzBvH.s:930    .text:0000000000000520 .L0 
     /tmp/ccASzBvH.s:931    .text:0000000000000520 .L0 
GAS LISTING /tmp/ccASzBvH.s 			page 63


     /tmp/ccASzBvH.s:938    .text:0000000000000528 .L0 
     /tmp/ccASzBvH.s:939    .text:0000000000000528 .L0 
     /tmp/ccASzBvH.s:944    .text:000000000000052c .L0 
     /tmp/ccASzBvH.s:945    .text:000000000000052c .L0 
     /tmp/ccASzBvH.s:948    .text:0000000000000530 .L0 
     /tmp/ccASzBvH.s:949    .text:0000000000000530 .L0 
     /tmp/ccASzBvH.s:951    .text:0000000000000534 .L0 
     /tmp/ccASzBvH.s:953    .text:0000000000000538 .L0 
     /tmp/ccASzBvH.s:955    .text:000000000000053c .L0 
     /tmp/ccASzBvH.s:957    .text:0000000000000540 .L0 
     /tmp/ccASzBvH.s:959    .text:0000000000000544 .L0 
     /tmp/ccASzBvH.s:962    .text:0000000000000548 .L0 
     /tmp/ccASzBvH.s:964    .text:000000000000054c .L0 
     /tmp/ccASzBvH.s:969    .text:0000000000000550 .L0 
     /tmp/ccASzBvH.s:970    .text:0000000000000554 .L0 
     /tmp/ccASzBvH.s:971    .text:0000000000000554 .L0 
     /tmp/ccASzBvH.s:972    .text:0000000000000554 .L0 
     /tmp/ccASzBvH.s:974    .text:0000000000000558 .L0 
     /tmp/ccASzBvH.s:977    .text:000000000000055c .L0 
     /tmp/ccASzBvH.s:979    .text:000000000000055c .L0 
     /tmp/ccASzBvH.s:980    .text:000000000000055c .L0 
     /tmp/ccASzBvH.s:987    .text:0000000000000564 .L0 
     /tmp/ccASzBvH.s:988    .text:0000000000000564 .L0 
     /tmp/ccASzBvH.s:993    .text:0000000000000568 .L0 
     /tmp/ccASzBvH.s:994    .text:0000000000000568 .L0 
     /tmp/ccASzBvH.s:997    .text:000000000000056c .L0 
     /tmp/ccASzBvH.s:998    .text:000000000000056c .L0 
     /tmp/ccASzBvH.s:1000   .text:0000000000000570 .L0 
     /tmp/ccASzBvH.s:1002   .text:0000000000000574 .L0 
     /tmp/ccASzBvH.s:1004   .text:0000000000000578 .L0 
     /tmp/ccASzBvH.s:1006   .text:000000000000057c .L0 
     /tmp/ccASzBvH.s:1008   .text:0000000000000580 .L0 
     /tmp/ccASzBvH.s:1011   .text:0000000000000584 .L0 
     /tmp/ccASzBvH.s:1013   .text:0000000000000588 .L0 
     /tmp/ccASzBvH.s:1016   .text:0000000000000590 .L0 
     /tmp/ccASzBvH.s:1022   .text:0000000000000590 _Z19resetAllocatedIndexP6slab_si
     /tmp/ccASzBvH.s:1025   .text:0000000000000590 .L0 
     /tmp/ccASzBvH.s:1027   .text:0000000000000590 .L0 
     /tmp/ccASzBvH.s:1028   .text:0000000000000594 .L0 
     /tmp/ccASzBvH.s:1030   .text:0000000000000598 .L0 
     /tmp/ccASzBvH.s:1032   .text:000000000000059c .L0 
     /tmp/ccASzBvH.s:1034   .text:000000000000059c .L0 
     /tmp/ccASzBvH.s:1035   .text:000000000000059c .L0 
     /tmp/ccASzBvH.s:1041   .text:00000000000005ac .L0 
     /tmp/ccASzBvH.s:1044   .text:00000000000005b0 .L0 
     /tmp/ccASzBvH.s:1046   .text:00000000000005b4 .L0 
     /tmp/ccASzBvH.s:1049   .text:00000000000005bc .L0 
     /tmp/ccASzBvH.s:1052   .text:00000000000005c4 .L0 
     /tmp/ccASzBvH.s:1055   .text:00000000000005cc .L0 
     /tmp/ccASzBvH.s:1057   .text:00000000000005d0 .L0 
     /tmp/ccASzBvH.s:1058   .text:00000000000005d4 .L0 
     /tmp/ccASzBvH.s:1059   .text:00000000000005d4 .L0 
     /tmp/ccASzBvH.s:1061   .text:00000000000005d8 .L0 
     /tmp/ccASzBvH.s:1063   .text:00000000000005dc .L0 
     /tmp/ccASzBvH.s:1083   .text:00000000000005dc _Z13printSlabInfoP6slab_s
     /tmp/ccASzBvH.s:1086   .text:00000000000005dc .L0 
     /tmp/ccASzBvH.s:1088   .text:00000000000005dc .L0 
GAS LISTING /tmp/ccASzBvH.s 			page 64


     /tmp/ccASzBvH.s:1089   .text:00000000000005e0 .L0 
     /tmp/ccASzBvH.s:1094   .text:00000000000005f0 .L0 
     /tmp/ccASzBvH.s:1095   .text:00000000000005f0 .L0 
     /tmp/ccASzBvH.s:1096   .text:00000000000005f0 .L0 
     /tmp/ccASzBvH.s:1097   .text:00000000000005f0 .L0 
     /tmp/ccASzBvH.s:1099   .text:00000000000005f4 .L0 
     /tmp/ccASzBvH.s:1102   .text:00000000000005f8 .L0 
     /tmp/ccASzBvH.s:1103   .text:00000000000005f8 .L0 
     /tmp/ccASzBvH.s:1108   .text:0000000000000608 .L0 
     /tmp/ccASzBvH.s:1109   .text:0000000000000608 .L0 
     /tmp/ccASzBvH.s:1113   .text:0000000000000618 .L0 
     /tmp/ccASzBvH.s:1114   .text:0000000000000618 .L0 
     /tmp/ccASzBvH.s:1120   .text:000000000000062c .L0 
     /tmp/ccASzBvH.s:1121   .text:000000000000062c .L0 
     /tmp/ccASzBvH.s:1125   .text:000000000000063c .L0 
     /tmp/ccASzBvH.s:1126   .text:000000000000063c .L0 
     /tmp/ccASzBvH.s:1130   .text:000000000000064c .L0 
     /tmp/ccASzBvH.s:1131   .text:000000000000064c .L0 
     /tmp/ccASzBvH.s:1137   .text:0000000000000660 .L0 
     /tmp/ccASzBvH.s:1138   .text:0000000000000660 .L0 
     /tmp/ccASzBvH.s:1142   .text:0000000000000670 .L0 
     /tmp/ccASzBvH.s:1143   .text:0000000000000670 .L0 
     /tmp/ccASzBvH.s:1147   .text:0000000000000680 .L0 
     /tmp/ccASzBvH.s:1148   .text:0000000000000680 .L0 
     /tmp/ccASzBvH.s:1154   .text:0000000000000694 .L0 
     /tmp/ccASzBvH.s:1155   .text:0000000000000694 .L0 
     /tmp/ccASzBvH.s:1160   .text:00000000000006a4 .L0 
     /tmp/ccASzBvH.s:1161   .text:00000000000006a4 .L0 
     /tmp/ccASzBvH.s:1165   .text:00000000000006a8 .L0 
     /tmp/ccASzBvH.s:1166   .text:00000000000006a8 .L0 
     /tmp/ccASzBvH.s:1168   .text:00000000000006ac .L0 
     /tmp/ccASzBvH.s:1170   .text:00000000000006b0 .L0 
     /tmp/ccASzBvH.s:1172   .text:00000000000006b4 .L0 
     /tmp/ccASzBvH.s:1174   .text:00000000000006b8 .L0 
     /tmp/ccASzBvH.s:1175   .text:00000000000006b8 .L0 
     /tmp/ccASzBvH.s:1177   .text:00000000000006bc .L0 
     /tmp/ccASzBvH.s:1183   .text:00000000000006d0 .L0 
     /tmp/ccASzBvH.s:1184   .text:00000000000006d0 .L0 
     /tmp/ccASzBvH.s:1188   .text:00000000000006e0 .L0 
     /tmp/ccASzBvH.s:1194   .text:00000000000006e8 .L0 
     /tmp/ccASzBvH.s:1195   .text:00000000000006ec .L0 
     /tmp/ccASzBvH.s:1197   .text:00000000000006f0 .L0 
     /tmp/ccASzBvH.s:1198   .text:00000000000006f0 .L0 
     /tmp/ccASzBvH.s:1200   .text:00000000000006f4 .L0 
     /tmp/ccASzBvH.s:1203   .text:00000000000006f8 .L0 
     /tmp/ccASzBvH.s:1206   .text:00000000000006fc .L0 
     /tmp/ccASzBvH.s:1208   .text:0000000000000700 .L0 
     /tmp/ccASzBvH.s:1219   .text:0000000000000700 _Z16free_slab_objectP6slab_sPKv
     /tmp/ccASzBvH.s:1222   .text:0000000000000700 .L0 
     /tmp/ccASzBvH.s:1224   .text:0000000000000700 .L0 
     /tmp/ccASzBvH.s:1225   .text:0000000000000704 .L0 
     /tmp/ccASzBvH.s:1230   .text:0000000000000714 .L0 
     /tmp/ccASzBvH.s:1231   .text:0000000000000714 .L0 
     /tmp/ccASzBvH.s:1232   .text:0000000000000714 .L0 
     /tmp/ccASzBvH.s:1233   .text:0000000000000714 .L0 
     /tmp/ccASzBvH.s:1235   .text:0000000000000718 .L0 
     /tmp/ccASzBvH.s:1237   .text:0000000000000718 .L0 
GAS LISTING /tmp/ccASzBvH.s 			page 65


     /tmp/ccASzBvH.s:1238   .text:0000000000000718 .L0 
     /tmp/ccASzBvH.s:1241   .text:0000000000000720 .L0 
     /tmp/ccASzBvH.s:1243   .text:0000000000000724 .L0 
     /tmp/ccASzBvH.s:1245   .text:0000000000000728 .L0 
     /tmp/ccASzBvH.s:1247   .text:000000000000072c .L0 
     /tmp/ccASzBvH.s:1250   .text:0000000000000730 .L0 
     /tmp/ccASzBvH.s:1251   .text:0000000000000730 .L0 
     /tmp/ccASzBvH.s:1253   .text:0000000000000734 .L0 
     /tmp/ccASzBvH.s:1256   .text:000000000000073c .L0 
     /tmp/ccASzBvH.s:1260   .text:0000000000000740 .L0 
     /tmp/ccASzBvH.s:1261   .text:0000000000000744 .L0 
     /tmp/ccASzBvH.s:1262   .text:0000000000000744 .L0 
     /tmp/ccASzBvH.s:1264   .text:0000000000000748 .L0 
     /tmp/ccASzBvH.s:1265   .text:0000000000000748 .L0 
     /tmp/ccASzBvH.s:1267   .text:000000000000074c .L0 
     /tmp/ccASzBvH.s:1270   .text:0000000000000750 .L0 
     /tmp/ccASzBvH.s:1272   .text:0000000000000754 .L0 
     /tmp/ccASzBvH.s:1276   .text:0000000000000758 .L0 
     /tmp/ccASzBvH.s:1279   .text:000000000000075c .L0 
     /tmp/ccASzBvH.s:1280   .text:000000000000075c .L0 
     /tmp/ccASzBvH.s:1285   .text:000000000000076c .L0 
     /tmp/ccASzBvH.s:1286   .text:000000000000076c .L0 
     /tmp/ccASzBvH.s:1292   .text:0000000000000780 .L0 
     /tmp/ccASzBvH.s:1293   .text:0000000000000780 .L0 
     /tmp/ccASzBvH.s:1297   .text:0000000000000790 .L0 
     /tmp/ccASzBvH.s:1298   .text:0000000000000790 .L0 
     /tmp/ccASzBvH.s:1303   .text:00000000000007a0 .L0 
     /tmp/ccASzBvH.s:1304   .text:00000000000007a0 .L0 
     /tmp/ccASzBvH.s:1306   .text:00000000000007a4 .L0 
     /tmp/ccASzBvH.s:1308   .text:00000000000007a8 .L0 
     /tmp/ccASzBvH.s:1310   .text:00000000000007ac .L0 
     /tmp/ccASzBvH.s:1314   .text:00000000000007b4 .L0 
     /tmp/ccASzBvH.s:1315   .text:00000000000007b4 .L0 
     /tmp/ccASzBvH.s:1317   .text:00000000000007b8 .L0 
     /tmp/ccASzBvH.s:1322   .text:00000000000007c4 .L0 
     /tmp/ccASzBvH.s:1323   .text:00000000000007c4 .L0 
     /tmp/ccASzBvH.s:1330   .text:00000000000007d8 .L0 
     /tmp/ccASzBvH.s:1331   .text:00000000000007d8 .L0 
     /tmp/ccASzBvH.s:1336   .text:00000000000007ec .L0 
     /tmp/ccASzBvH.s:1342   .text:00000000000007ec _Z9kmem_initPvi
     /tmp/ccASzBvH.s:1345   .text:00000000000007ec .L0 
     /tmp/ccASzBvH.s:1347   .text:00000000000007ec .L0 
     /tmp/ccASzBvH.s:1348   .text:00000000000007f0 .L0 
     /tmp/ccASzBvH.s:1351   .text:00000000000007f8 .L0 
     /tmp/ccASzBvH.s:1352   .text:00000000000007f8 .L0 
     /tmp/ccASzBvH.s:1354   .text:00000000000007fc .L0 
     /tmp/ccASzBvH.s:1356   .text:00000000000007fc .L0 
     /tmp/ccASzBvH.s:1357   .text:00000000000007fc .L0 
     /tmp/ccASzBvH.s:1360   .text:0000000000000804 .L0 
     /tmp/ccASzBvH.s:1361   .text:0000000000000804 .L0 
     /tmp/ccASzBvH.s:1364   .text:000000000000080c .L0 
     /tmp/ccASzBvH.s:1366   .text:0000000000000814 .L0 
     /tmp/ccASzBvH.s:1367   .text:0000000000000818 .L0 
     /tmp/ccASzBvH.s:1369   .text:000000000000081c .L0 
     /tmp/ccASzBvH.s:1370   .text:000000000000081c .L0 
     /tmp/ccASzBvH.s:1372   .text:0000000000000820 .L0 
     /tmp/ccASzBvH.s:1374   .text:0000000000000824 .L0 
GAS LISTING /tmp/ccASzBvH.s 			page 66


     /tmp/ccASzBvH.s:1380   .text:0000000000000824 _Z16kmem_cache_allocP12kmem_cache_s
     /tmp/ccASzBvH.s:1383   .text:0000000000000824 .L0 
     /tmp/ccASzBvH.s:1385   .text:0000000000000824 .L0 
     /tmp/ccASzBvH.s:1386   .text:0000000000000828 .L0 
     /tmp/ccASzBvH.s:1391   .text:0000000000000838 .L0 
     /tmp/ccASzBvH.s:1392   .text:0000000000000838 .L0 
     /tmp/ccASzBvH.s:1393   .text:0000000000000838 .L0 
     /tmp/ccASzBvH.s:1394   .text:0000000000000838 .L0 
     /tmp/ccASzBvH.s:1396   .text:000000000000083c .L0 
     /tmp/ccASzBvH.s:1400   .text:0000000000000840 .L0 
     /tmp/ccASzBvH.s:1401   .text:0000000000000840 .L0 
     /tmp/ccASzBvH.s:1404   .text:0000000000000844 .L0 
     /tmp/ccASzBvH.s:1409   .text:0000000000000848 .L0 
     /tmp/ccASzBvH.s:1410   .text:0000000000000848 .L0 
     /tmp/ccASzBvH.s:1412   .text:000000000000084c .L0 
     /tmp/ccASzBvH.s:1415   .text:0000000000000850 .L0 
     /tmp/ccASzBvH.s:1416   .text:0000000000000850 .L0 
     /tmp/ccASzBvH.s:1421   .text:000000000000085c .L0 
     /tmp/ccASzBvH.s:1422   .text:000000000000085c .L0 
     /tmp/ccASzBvH.s:1427   .text:0000000000000868 .L0 
     /tmp/ccASzBvH.s:1429   .text:000000000000086c .L0 
     /tmp/ccASzBvH.s:1430   .text:000000000000086c .L0 
     /tmp/ccASzBvH.s:1434   .text:0000000000000878 .L0 
     /tmp/ccASzBvH.s:1435   .text:0000000000000878 .L0 
     /tmp/ccASzBvH.s:1442   .text:000000000000087c .L0 
     /tmp/ccASzBvH.s:1443   .text:000000000000087c .L0 
     /tmp/ccASzBvH.s:1448   .text:0000000000000888 .L0 
     /tmp/ccASzBvH.s:1449   .text:0000000000000888 .L0 
     /tmp/ccASzBvH.s:1454   .text:0000000000000894 .L0 
     /tmp/ccASzBvH.s:1460   .text:0000000000000898 .L0 
     /tmp/ccASzBvH.s:1462   .text:00000000000008a0 .L0 
     /tmp/ccASzBvH.s:1463   .text:00000000000008a0 .L0 
     /tmp/ccASzBvH.s:1465   .text:00000000000008a4 .L0 
     /tmp/ccASzBvH.s:1466   .text:00000000000008a4 .L0 
     /tmp/ccASzBvH.s:1468   .text:00000000000008a8 .L0 
     /tmp/ccASzBvH.s:1471   .text:00000000000008ac .L0 
     /tmp/ccASzBvH.s:1473   .text:00000000000008b0 .L0 
     /tmp/ccASzBvH.s:1477   .text:00000000000008b4 .L0 
     /tmp/ccASzBvH.s:1481   .text:00000000000008b4 .L0 
     /tmp/ccASzBvH.s:1482   .text:00000000000008b4 .L0 
     /tmp/ccASzBvH.s:1486   .text:00000000000008c0 .L0 
     /tmp/ccASzBvH.s:1487   .text:00000000000008c0 .L0 
     /tmp/ccASzBvH.s:1494   .text:00000000000008c4 .L0 
     /tmp/ccASzBvH.s:1495   .text:00000000000008c4 .L0 
     /tmp/ccASzBvH.s:1499   .text:00000000000008d0 .L0 
     /tmp/ccASzBvH.s:1500   .text:00000000000008d0 .L0 
     /tmp/ccASzBvH.s:1502   .text:00000000000008d4 .L0 
     /tmp/ccASzBvH.s:1504   .text:00000000000008d8 .L0 
     /tmp/ccASzBvH.s:1505   .text:00000000000008d8 .L0 
     /tmp/ccASzBvH.s:1511   .text:00000000000008e8 .L0 
     /tmp/ccASzBvH.s:1512   .text:00000000000008e8 .L0 
     /tmp/ccASzBvH.s:1517   .text:00000000000008f4 .L0 
     /tmp/ccASzBvH.s:1519   .text:00000000000008f8 .L0 
     /tmp/ccASzBvH.s:1520   .text:00000000000008f8 .L0 
     /tmp/ccASzBvH.s:1524   .text:0000000000000904 .L0 
     /tmp/ccASzBvH.s:1525   .text:0000000000000904 .L0 
     /tmp/ccASzBvH.s:1529   .text:0000000000000908 .L0 
GAS LISTING /tmp/ccASzBvH.s 			page 67


     /tmp/ccASzBvH.s:1535   .text:0000000000000908 _Z17kmem_cache_createPKcmPFvPvES3_
     /tmp/ccASzBvH.s:1538   .text:0000000000000908 .L0 
     /tmp/ccASzBvH.s:1540   .text:0000000000000908 .L0 
     /tmp/ccASzBvH.s:1541   .text:000000000000090c .L0 
     /tmp/ccASzBvH.s:1549   .text:0000000000000928 .L0 
     /tmp/ccASzBvH.s:1550   .text:0000000000000928 .L0 
     /tmp/ccASzBvH.s:1551   .text:0000000000000928 .L0 
     /tmp/ccASzBvH.s:1552   .text:0000000000000928 .L0 
     /tmp/ccASzBvH.s:1553   .text:0000000000000928 .L0 
     /tmp/ccASzBvH.s:1554   .text:0000000000000928 .L0 
     /tmp/ccASzBvH.s:1555   .text:0000000000000928 .L0 
     /tmp/ccASzBvH.s:1557   .text:000000000000092c .L0 
     /tmp/ccASzBvH.s:1563   .text:000000000000093c .L0 
     /tmp/ccASzBvH.s:1564   .text:000000000000093c .L0 
     /tmp/ccASzBvH.s:1572   .text:0000000000000954 .L0 
     /tmp/ccASzBvH.s:1573   .text:0000000000000954 .L0 
     /tmp/ccASzBvH.s:1575   .text:0000000000000958 .L0 
     /tmp/ccASzBvH.s:1576   .text:0000000000000958 .L0 
     /tmp/ccASzBvH.s:1578   .text:000000000000095c .L0 
     /tmp/ccASzBvH.s:1579   .text:000000000000095c .L0 
     /tmp/ccASzBvH.s:1581   .text:0000000000000960 .L0 
     /tmp/ccASzBvH.s:1582   .text:0000000000000960 .L0 
     /tmp/ccASzBvH.s:1584   .text:0000000000000964 .L0 
     /tmp/ccASzBvH.s:1585   .text:0000000000000964 .L0 
     /tmp/ccASzBvH.s:1587   .text:0000000000000968 .L0 
     /tmp/ccASzBvH.s:1588   .text:0000000000000968 .L0 
     /tmp/ccASzBvH.s:1593   .text:0000000000000978 .L0 
     /tmp/ccASzBvH.s:1594   .text:0000000000000978 .L0 
     /tmp/ccASzBvH.s:1596   .text:000000000000097c .L0 
     /tmp/ccASzBvH.s:1597   .text:000000000000097c .L0 
     /tmp/ccASzBvH.s:1601   .text:0000000000000988 .L0 
     /tmp/ccASzBvH.s:1603   .text:000000000000098c .L0 
     /tmp/ccASzBvH.s:1604   .text:000000000000098c .L0 
     /tmp/ccASzBvH.s:1606   .text:0000000000000994 .L0 
     /tmp/ccASzBvH.s:1608   .text:0000000000000998 .L0 
     /tmp/ccASzBvH.s:1609   .text:0000000000000998 .L0 
     /tmp/ccASzBvH.s:1611   .text:000000000000099c .L0 
     /tmp/ccASzBvH.s:1614   .text:00000000000009a0 .L0 
     /tmp/ccASzBvH.s:1617   .text:00000000000009a4 .L0 
     /tmp/ccASzBvH.s:1620   .text:00000000000009a8 .L0 
     /tmp/ccASzBvH.s:1623   .text:00000000000009ac .L0 
     /tmp/ccASzBvH.s:1626   .text:00000000000009b0 .L0 
     /tmp/ccASzBvH.s:1628   .text:00000000000009b4 .L0 
     /tmp/ccASzBvH.s:1642   .text:00000000000009b4 _Z15kmem_cache_freeP12kmem_cache_sPv
     /tmp/ccASzBvH.s:1645   .text:00000000000009b4 .L0 
     /tmp/ccASzBvH.s:1647   .text:00000000000009b4 .L0 
     /tmp/ccASzBvH.s:1648   .text:00000000000009b8 .L0 
     /tmp/ccASzBvH.s:1653   .text:00000000000009c8 .L0 
     /tmp/ccASzBvH.s:1654   .text:00000000000009c8 .L0 
     /tmp/ccASzBvH.s:1655   .text:00000000000009c8 .L0 
     /tmp/ccASzBvH.s:1656   .text:00000000000009c8 .L0 
     /tmp/ccASzBvH.s:1658   .text:00000000000009cc .L0 
     /tmp/ccASzBvH.s:1661   .text:00000000000009d0 .L0 
     /tmp/ccASzBvH.s:1662   .text:00000000000009d0 .L0 
     /tmp/ccASzBvH.s:1667   .text:00000000000009dc .L0 
     /tmp/ccASzBvH.s:1668   .text:00000000000009dc .L0 
     /tmp/ccASzBvH.s:1672   .text:00000000000009ec .L0 
GAS LISTING /tmp/ccASzBvH.s 			page 68


     /tmp/ccASzBvH.s:1674   .text:00000000000009f0 .L0 
     /tmp/ccASzBvH.s:1675   .text:00000000000009f0 .L0 
     /tmp/ccASzBvH.s:1679   .text:0000000000000a00 .L0 
     /tmp/ccASzBvH.s:1680   .text:0000000000000a00 .L0 
     /tmp/ccASzBvH.s:1686   .text:0000000000000a14 .L0 
     /tmp/ccASzBvH.s:1687   .text:0000000000000a14 .L0 
     /tmp/ccASzBvH.s:1691   .text:0000000000000a24 .L0 
     /tmp/ccASzBvH.s:1692   .text:0000000000000a24 .L0 
     /tmp/ccASzBvH.s:1698   .text:0000000000000a34 .L0 
     /tmp/ccASzBvH.s:1699   .text:0000000000000a38 .L0 
     /tmp/ccASzBvH.s:1701   .text:0000000000000a3c .L0 
     /tmp/ccASzBvH.s:1702   .text:0000000000000a3c .L0 
     /tmp/ccASzBvH.s:1704   .text:0000000000000a40 .L0 
     /tmp/ccASzBvH.s:1707   .text:0000000000000a44 .L0 
     /tmp/ccASzBvH.s:1710   .text:0000000000000a48 .L0 
     /tmp/ccASzBvH.s:1712   .text:0000000000000a4c .L0 
     /tmp/ccASzBvH.s:1744   .text:0000000000000a4c _Z15kmem_cache_infoP12kmem_cache_s
     /tmp/ccASzBvH.s:1747   .text:0000000000000a4c .L0 
     /tmp/ccASzBvH.s:1749   .text:0000000000000a4c .L0 
     /tmp/ccASzBvH.s:1750   .text:0000000000000a50 .L0 
     /tmp/ccASzBvH.s:1755   .text:0000000000000a60 .L0 
     /tmp/ccASzBvH.s:1756   .text:0000000000000a60 .L0 
     /tmp/ccASzBvH.s:1757   .text:0000000000000a60 .L0 
     /tmp/ccASzBvH.s:1758   .text:0000000000000a60 .L0 
     /tmp/ccASzBvH.s:1760   .text:0000000000000a64 .L0 
     /tmp/ccASzBvH.s:1763   .text:0000000000000a68 .L0 
     /tmp/ccASzBvH.s:1764   .text:0000000000000a68 .L0 
     /tmp/ccASzBvH.s:1769   .text:0000000000000a78 .L0 
     /tmp/ccASzBvH.s:1770   .text:0000000000000a78 .L0 
     /tmp/ccASzBvH.s:1774   .text:0000000000000a88 .L0 
     /tmp/ccASzBvH.s:1775   .text:0000000000000a88 .L0 
     /tmp/ccASzBvH.s:1779   .text:0000000000000a94 .L0 
     /tmp/ccASzBvH.s:1780   .text:0000000000000a94 .L0 
     /tmp/ccASzBvH.s:1784   .text:0000000000000aa4 .L0 
     /tmp/ccASzBvH.s:1785   .text:0000000000000aa4 .L0 
     /tmp/ccASzBvH.s:1789   .text:0000000000000ab4 .L0 
     /tmp/ccASzBvH.s:1790   .text:0000000000000ab4 .L0 
     /tmp/ccASzBvH.s:1796   .text:0000000000000ac8 .L0 
     /tmp/ccASzBvH.s:1797   .text:0000000000000ac8 .L0 
     /tmp/ccASzBvH.s:1801   .text:0000000000000ad8 .L0 
     /tmp/ccASzBvH.s:1802   .text:0000000000000ad8 .L0 
     /tmp/ccASzBvH.s:1806   .text:0000000000000ae8 .L0 
     /tmp/ccASzBvH.s:1807   .text:0000000000000ae8 .L0 
     /tmp/ccASzBvH.s:1813   .text:0000000000000afc .L0 
     /tmp/ccASzBvH.s:1814   .text:0000000000000afc .L0 
     /tmp/ccASzBvH.s:1818   .text:0000000000000b0c .L0 
     /tmp/ccASzBvH.s:1819   .text:0000000000000b0c .L0 
     /tmp/ccASzBvH.s:1823   .text:0000000000000b1c .L0 
     /tmp/ccASzBvH.s:1824   .text:0000000000000b1c .L0 
     /tmp/ccASzBvH.s:1828   .text:0000000000000b2c .L0 
     /tmp/ccASzBvH.s:1829   .text:0000000000000b2c .L0 
     /tmp/ccASzBvH.s:1833   .text:0000000000000b30 .L0 
     /tmp/ccASzBvH.s:1834   .text:0000000000000b30 .L0 
     /tmp/ccASzBvH.s:1836   .text:0000000000000b34 .L0 
     /tmp/ccASzBvH.s:1837   .text:0000000000000b34 .L0 
     /tmp/ccASzBvH.s:1841   .text:0000000000000b40 .L0 
     /tmp/ccASzBvH.s:1842   .text:0000000000000b40 .L0 
GAS LISTING /tmp/ccASzBvH.s 			page 69


     /tmp/ccASzBvH.s:1845   .text:0000000000000b44 .L0 
     /tmp/ccASzBvH.s:1848   .text:0000000000000b48 .L0 
     /tmp/ccASzBvH.s:1849   .text:0000000000000b48 .L0 
     /tmp/ccASzBvH.s:1853   .text:0000000000000b58 .L0 
     /tmp/ccASzBvH.s:1854   .text:0000000000000b58 .L0 
     /tmp/ccASzBvH.s:1858   .text:0000000000000b5c .L0 
     /tmp/ccASzBvH.s:1859   .text:0000000000000b5c .L0 
     /tmp/ccASzBvH.s:1861   .text:0000000000000b60 .L0 
     /tmp/ccASzBvH.s:1862   .text:0000000000000b60 .L0 
     /tmp/ccASzBvH.s:1866   .text:0000000000000b6c .L0 
     /tmp/ccASzBvH.s:1867   .text:0000000000000b6c .L0 
     /tmp/ccASzBvH.s:1870   .text:0000000000000b70 .L0 
     /tmp/ccASzBvH.s:1873   .text:0000000000000b74 .L0 
     /tmp/ccASzBvH.s:1874   .text:0000000000000b74 .L0 
     /tmp/ccASzBvH.s:1878   .text:0000000000000b84 .L0 
     /tmp/ccASzBvH.s:1879   .text:0000000000000b84 .L0 
     /tmp/ccASzBvH.s:1883   .text:0000000000000b88 .L0 
     /tmp/ccASzBvH.s:1884   .text:0000000000000b88 .L0 
     /tmp/ccASzBvH.s:1886   .text:0000000000000b8c .L0 
     /tmp/ccASzBvH.s:1887   .text:0000000000000b8c .L0 
     /tmp/ccASzBvH.s:1891   .text:0000000000000b98 .L0 
     /tmp/ccASzBvH.s:1892   .text:0000000000000b98 .L0 
     /tmp/ccASzBvH.s:1895   .text:0000000000000b9c .L0 
     /tmp/ccASzBvH.s:1898   .text:0000000000000ba0 .L0 
     /tmp/ccASzBvH.s:1899   .text:0000000000000ba4 .L0 
     /tmp/ccASzBvH.s:1901   .text:0000000000000ba8 .L0 
     /tmp/ccASzBvH.s:1902   .text:0000000000000ba8 .L0 
     /tmp/ccASzBvH.s:1904   .text:0000000000000bac .L0 
     /tmp/ccASzBvH.s:1907   .text:0000000000000bb0 .L0 
     /tmp/ccASzBvH.s:1910   .text:0000000000000bb4 .L0 
     /tmp/ccASzBvH.s:1912   .text:0000000000000bb8 .L0 
     /tmp/ccASzBvH.s:1938   .text:0000000000000bb8 _Z22printSlabAllocatorInfov
     /tmp/ccASzBvH.s:1941   .text:0000000000000bb8 .L0 
     /tmp/ccASzBvH.s:1942   .text:0000000000000bb8 .L0 
     /tmp/ccASzBvH.s:1943   .text:0000000000000bbc .L0 
     /tmp/ccASzBvH.s:1947   .text:0000000000000bc8 .L0 
     /tmp/ccASzBvH.s:1948   .text:0000000000000bc8 .L0 
     /tmp/ccASzBvH.s:1949   .text:0000000000000bc8 .L0 
     /tmp/ccASzBvH.s:1951   .text:0000000000000bcc .L0 
     /tmp/ccASzBvH.s:1953   .text:0000000000000bcc .L0 
     /tmp/ccASzBvH.s:1954   .text:0000000000000bcc .L0 
     /tmp/ccASzBvH.s:1958   .text:0000000000000bdc .L0 
     /tmp/ccASzBvH.s:1959   .text:0000000000000bdc .L0 
     /tmp/ccASzBvH.s:1963   .text:0000000000000bec .L0 
     /tmp/ccASzBvH.s:1964   .text:0000000000000bec .L0 
     /tmp/ccASzBvH.s:1967   .text:0000000000000bf8 .L0 
     /tmp/ccASzBvH.s:1973   .text:0000000000000c0c .L0 
     /tmp/ccASzBvH.s:1974   .text:0000000000000c0c .L0 
     /tmp/ccASzBvH.s:1978   .text:0000000000000c1c .L0 
     /tmp/ccASzBvH.s:1979   .text:0000000000000c1c .L0 
     /tmp/ccASzBvH.s:1983   .text:0000000000000c2c .L0 
     /tmp/ccASzBvH.s:1984   .text:0000000000000c2c .L0 
     /tmp/ccASzBvH.s:1990   .text:0000000000000c40 .L0 
     /tmp/ccASzBvH.s:1991   .text:0000000000000c40 .L0 
     /tmp/ccASzBvH.s:1995   .text:0000000000000c50 .L0 
     /tmp/ccASzBvH.s:1996   .text:0000000000000c50 .L0 
     /tmp/ccASzBvH.s:2000   .text:0000000000000c60 .L0 
GAS LISTING /tmp/ccASzBvH.s 			page 70


     /tmp/ccASzBvH.s:2001   .text:0000000000000c60 .L0 
     /tmp/ccASzBvH.s:2007   .text:0000000000000c74 .L0 
     /tmp/ccASzBvH.s:2008   .text:0000000000000c74 .L0 
     /tmp/ccASzBvH.s:2012   .text:0000000000000c84 .L0 
     /tmp/ccASzBvH.s:2013   .text:0000000000000c84 .L0 
     /tmp/ccASzBvH.s:2017   .text:0000000000000c94 .L0 
     /tmp/ccASzBvH.s:2018   .text:0000000000000c94 .L0 
     /tmp/ccASzBvH.s:2020   .text:0000000000000c98 .L0 
     /tmp/ccASzBvH.s:2024   .text:0000000000000ca4 .L0 
     /tmp/ccASzBvH.s:2025   .text:0000000000000ca4 .L0 
     /tmp/ccASzBvH.s:2030   .text:0000000000000cb4 .L0 
     /tmp/ccASzBvH.s:2031   .text:0000000000000cb4 .L0 
     /tmp/ccASzBvH.s:2036   .text:0000000000000cbc .L0 
     /tmp/ccASzBvH.s:2037   .text:0000000000000cbc .L0 
     /tmp/ccASzBvH.s:2041   .text:0000000000000cc4 .L0 
     /tmp/ccASzBvH.s:2045   .text:0000000000000cc8 .L0 
     /tmp/ccASzBvH.s:2048   .text:0000000000000cd0 .L0 
     /tmp/ccASzBvH.s:2049   .text:0000000000000cd0 .L0 
     /tmp/ccASzBvH.s:2054   .text:0000000000000ce4 .L0 
     /tmp/ccASzBvH.s:2059   .text:0000000000000cec .L0 
     /tmp/ccASzBvH.s:2060   .text:0000000000000cf0 .L0 
     /tmp/ccASzBvH.s:2062   .text:0000000000000cf4 .L0 
     /tmp/ccASzBvH.s:2063   .text:0000000000000cf4 .L0 
     /tmp/ccASzBvH.s:2065   .text:0000000000000cf8 .L0 
     /tmp/ccASzBvH.s:2068   .text:0000000000000cfc .L0 
     /tmp/ccASzBvH.s:2070   .text:0000000000000d00 .L0 
     /tmp/ccASzBvH.s:2076   .text:0000000000000d00 _Z7kmallocm
     /tmp/ccASzBvH.s:2079   .text:0000000000000d00 .L0 
     /tmp/ccASzBvH.s:2081   .text:0000000000000d00 .L0 
     /tmp/ccASzBvH.s:2082   .text:0000000000000d04 .L0 
     /tmp/ccASzBvH.s:2087   .text:0000000000000d14 .L0 
     /tmp/ccASzBvH.s:2088   .text:0000000000000d14 .L0 
     /tmp/ccASzBvH.s:2089   .text:0000000000000d14 .L0 
     /tmp/ccASzBvH.s:2090   .text:0000000000000d14 .L0 
     /tmp/ccASzBvH.s:2092   .text:0000000000000d18 .L0 
     /tmp/ccASzBvH.s:2094   .text:0000000000000d18 .L0 
     /tmp/ccASzBvH.s:2095   .text:0000000000000d18 .L0 
     /tmp/ccASzBvH.s:2098   .text:0000000000000d20 .L0 
     /tmp/ccASzBvH.s:2099   .text:0000000000000d20 .L0 
     /tmp/ccASzBvH.s:2102   .text:0000000000000d24 .L0 
     /tmp/ccASzBvH.s:2103   .text:0000000000000d24 .L0 
     /tmp/ccASzBvH.s:2108   .text:0000000000000d38 .L0 
     /tmp/ccASzBvH.s:2112   .text:0000000000000d3c .L0 
     /tmp/ccASzBvH.s:2113   .text:0000000000000d3c .L0 
     /tmp/ccASzBvH.s:2121   .text:0000000000000d58 .L0 
     /tmp/ccASzBvH.s:2122   .text:0000000000000d5c .L0 
     /tmp/ccASzBvH.s:2123   .text:0000000000000d5c .L0 
     /tmp/ccASzBvH.s:2125   .text:0000000000000d60 .L0 
     /tmp/ccASzBvH.s:2126   .text:0000000000000d60 .L0 
     /tmp/ccASzBvH.s:2128   .text:0000000000000d64 .L0 
     /tmp/ccASzBvH.s:2130   .text:0000000000000d68 .L0 
     /tmp/ccASzBvH.s:2132   .text:0000000000000d6c .L0 
     /tmp/ccASzBvH.s:2136   .text:0000000000000d70 .L0 
     /tmp/ccASzBvH.s:2138   .text:0000000000000d70 .L0 
     /tmp/ccASzBvH.s:2139   .text:0000000000000d70 .L0 
     /tmp/ccASzBvH.s:2144   .text:0000000000000d7c .L0 
     /tmp/ccASzBvH.s:2148   .text:0000000000000d8c .L0 
GAS LISTING /tmp/ccASzBvH.s 			page 71


     /tmp/ccASzBvH.s:2154   .text:0000000000000d8c _Z5kfreePKv
     /tmp/ccASzBvH.s:2157   .text:0000000000000d8c .L0 
     /tmp/ccASzBvH.s:2159   .text:0000000000000d8c .L0 
     /tmp/ccASzBvH.s:2160   .text:0000000000000d90 .L0 
     /tmp/ccASzBvH.s:2165   .text:0000000000000da0 .L0 
     /tmp/ccASzBvH.s:2166   .text:0000000000000da0 .L0 
     /tmp/ccASzBvH.s:2167   .text:0000000000000da0 .L0 
     /tmp/ccASzBvH.s:2168   .text:0000000000000da0 .L0 
     /tmp/ccASzBvH.s:2170   .text:0000000000000da4 .L0 
     /tmp/ccASzBvH.s:2174   .text:0000000000000da8 .L0 
     /tmp/ccASzBvH.s:2176   .text:0000000000000da8 .L0 
     /tmp/ccASzBvH.s:2177   .text:0000000000000da8 .L0 
     /tmp/ccASzBvH.s:2180   .text:0000000000000dac .L0 
     /tmp/ccASzBvH.s:2185   .text:0000000000000db0 .L0 
     /tmp/ccASzBvH.s:2188   .text:0000000000000db8 .L0 
     /tmp/ccASzBvH.s:2189   .text:0000000000000db8 .L0 
     /tmp/ccASzBvH.s:2198   .text:0000000000000dd8 .L0 
     /tmp/ccASzBvH.s:2200   .text:0000000000000ddc .L0 
     /tmp/ccASzBvH.s:2206   .text:0000000000000de4 .L0 
     /tmp/ccASzBvH.s:2208   .text:0000000000000de8 .L0 
     /tmp/ccASzBvH.s:2209   .text:0000000000000de8 .L0 
     /tmp/ccASzBvH.s:2214   .text:0000000000000df4 .L0 
     /tmp/ccASzBvH.s:2215   .text:0000000000000df8 .L0 
     /tmp/ccASzBvH.s:2217   .text:0000000000000dfc .L0 
     /tmp/ccASzBvH.s:2218   .text:0000000000000dfc .L0 
     /tmp/ccASzBvH.s:2220   .text:0000000000000e00 .L0 
     /tmp/ccASzBvH.s:2223   .text:0000000000000e04 .L0 
     /tmp/ccASzBvH.s:2226   .text:0000000000000e08 .L0 
     /tmp/ccASzBvH.s:2228   .text:0000000000000e0c .L0 
     /tmp/ccASzBvH.s:2234   .text:0000000000000e0c _Z17destroy_slab_listP6slab_s
     /tmp/ccASzBvH.s:2237   .text:0000000000000e0c .L0 
     /tmp/ccASzBvH.s:2239   .text:0000000000000e0c .L0 
     /tmp/ccASzBvH.s:2240   .text:0000000000000e0c .L0 
     /tmp/ccASzBvH.s:2242   .text:0000000000000e10 .L0 
     /tmp/ccASzBvH.s:2243   .text:0000000000000e14 .L0 
     /tmp/ccASzBvH.s:2248   .text:0000000000000e24 .L0 
     /tmp/ccASzBvH.s:2249   .text:0000000000000e24 .L0 
     /tmp/ccASzBvH.s:2250   .text:0000000000000e24 .L0 
     /tmp/ccASzBvH.s:2251   .text:0000000000000e24 .L0 
     /tmp/ccASzBvH.s:2253   .text:0000000000000e28 .L0 
     /tmp/ccASzBvH.s:2256   .text:0000000000000e2c .L0 
     /tmp/ccASzBvH.s:2257   .text:0000000000000e2c .L0 
     /tmp/ccASzBvH.s:2259   .text:0000000000000e30 .L0 
     /tmp/ccASzBvH.s:2263   .text:0000000000000e34 .L0 
     /tmp/ccASzBvH.s:2264   .text:0000000000000e34 .L0 
     /tmp/ccASzBvH.s:2267   .text:0000000000000e38 .L0 
     /tmp/ccASzBvH.s:2268   .text:0000000000000e38 .L0 
     /tmp/ccASzBvH.s:2271   .text:0000000000000e3c .L0 
     /tmp/ccASzBvH.s:2272   .text:0000000000000e3c .L0 
     /tmp/ccASzBvH.s:2278   .text:0000000000000e54 .L0 
     /tmp/ccASzBvH.s:2279   .text:0000000000000e54 .L0 
     /tmp/ccASzBvH.s:2282   .text:0000000000000e58 .L0 
     /tmp/ccASzBvH.s:2286   .text:0000000000000e5c .L0 
     /tmp/ccASzBvH.s:2287   .text:0000000000000e60 .L0 
     /tmp/ccASzBvH.s:2289   .text:0000000000000e64 .L0 
     /tmp/ccASzBvH.s:2290   .text:0000000000000e64 .L0 
     /tmp/ccASzBvH.s:2292   .text:0000000000000e68 .L0 
GAS LISTING /tmp/ccASzBvH.s 			page 72


     /tmp/ccASzBvH.s:2294   .text:0000000000000e6c .L0 
     /tmp/ccASzBvH.s:2297   .text:0000000000000e70 .L0 
     /tmp/ccASzBvH.s:2302   .text:0000000000000e78 .L0 
     /tmp/ccASzBvH.s:2308   .text:0000000000000e78 _Z18kmem_cache_destroyP12kmem_cache_s
     /tmp/ccASzBvH.s:2311   .text:0000000000000e78 .L0 
     /tmp/ccASzBvH.s:2313   .text:0000000000000e78 .L0 
     /tmp/ccASzBvH.s:2314   .text:0000000000000e7c .L0 
     /tmp/ccASzBvH.s:2318   .text:0000000000000e88 .L0 
     /tmp/ccASzBvH.s:2319   .text:0000000000000e88 .L0 
     /tmp/ccASzBvH.s:2320   .text:0000000000000e88 .L0 
     /tmp/ccASzBvH.s:2322   .text:0000000000000e8c .L0 
     /tmp/ccASzBvH.s:2325   .text:0000000000000e90 .L0 
     /tmp/ccASzBvH.s:2326   .text:0000000000000e90 .L0 
     /tmp/ccASzBvH.s:2331   .text:0000000000000e9c .L0 
     /tmp/ccASzBvH.s:2332   .text:0000000000000e9c .L0 
     /tmp/ccASzBvH.s:2336   .text:0000000000000ea8 .L0 
     /tmp/ccASzBvH.s:2337   .text:0000000000000ea8 .L0 
     /tmp/ccASzBvH.s:2341   .text:0000000000000eb4 .L0 
     /tmp/ccASzBvH.s:2342   .text:0000000000000eb4 .L0 
     /tmp/ccASzBvH.s:2348   .text:0000000000000ecc .L0 
     /tmp/ccASzBvH.s:2349   .text:0000000000000ed0 .L0 
     /tmp/ccASzBvH.s:2351   .text:0000000000000ed4 .L0 
     /tmp/ccASzBvH.s:2352   .text:0000000000000ed4 .L0 
     /tmp/ccASzBvH.s:2354   .text:0000000000000ed8 .L0 
     /tmp/ccASzBvH.s:2357   .text:0000000000000edc .L0 
     /tmp/ccASzBvH.s:2359   .text:0000000000000ee0 .L0 
     /tmp/ccASzBvH.s:2364   .bss:0000000000000000 .LANCHOR0
     /tmp/ccASzBvH.s:2367   .bss:0000000000000000 _ZL13slabAllocator
     /tmp/ccASzBvH.s:2377   .text:0000000000000ee0 .L0 
     /tmp/ccASzBvH.s:57     .rodata.str1.8:0000000000000000 .LC0
     /tmp/ccASzBvH.s:112    .text:000000000000007c .L0 
     /tmp/ccASzBvH.s:160    .rodata.str1.8:0000000000000010 .LC1
     /tmp/ccASzBvH.s:259    .text:0000000000000148 .L0 
     /tmp/ccASzBvH.s:163    .rodata.str1.8:0000000000000028 .LC2
     /tmp/ccASzBvH.s:272    .text:000000000000016c .L0 
     /tmp/ccASzBvH.s:740    .text:0000000000000428 .L0 
     /tmp/ccASzBvH.s:1068   .rodata.str1.8:0000000000000030 .LC3
     /tmp/ccASzBvH.s:1103   .text:00000000000005f8 .L0 
     /tmp/ccASzBvH.s:1071   .rodata.str1.8:0000000000000048 .LC4
     /tmp/ccASzBvH.s:1109   .text:0000000000000608 .L0 
     /tmp/ccASzBvH.s:1121   .text:000000000000062c .L0 
     /tmp/ccASzBvH.s:1074   .rodata.str1.8:0000000000000058 .LC5
     /tmp/ccASzBvH.s:1126   .text:000000000000063c .L0 
     /tmp/ccASzBvH.s:1138   .text:0000000000000660 .L0 
     /tmp/ccASzBvH.s:1077   .rodata.str1.8:0000000000000078 .LC6
     /tmp/ccASzBvH.s:1143   .text:0000000000000670 .L0 
     /tmp/ccASzBvH.s:1155   .text:0000000000000694 .L0 
     /tmp/ccASzBvH.s:1184   .text:00000000000006d0 .L0 
     /tmp/ccASzBvH.s:1213   .rodata.str1.8:0000000000000090 .LC7
     /tmp/ccASzBvH.s:1280   .text:000000000000075c .L0 
     /tmp/ccASzBvH.s:1293   .text:0000000000000780 .L0 
     /tmp/ccASzBvH.s:1364   .text:000000000000080c .L0 
     /tmp/ccASzBvH.s:1564   .text:000000000000093c .L0 
     /tmp/ccASzBvH.s:1633   .rodata.str1.8:00000000000000a0 .LC8
     /tmp/ccASzBvH.s:1668   .text:00000000000009dc .L0 
     /tmp/ccASzBvH.s:1636   .rodata.str1.8:00000000000000b8 .LC9
     /tmp/ccASzBvH.s:1675   .text:00000000000009f0 .L0 
GAS LISTING /tmp/ccASzBvH.s 			page 73


     /tmp/ccASzBvH.s:1687   .text:0000000000000a14 .L0 
     /tmp/ccASzBvH.s:1717   .rodata.str1.8:00000000000000c8 .LC10
     /tmp/ccASzBvH.s:1764   .text:0000000000000a68 .L0 
     /tmp/ccASzBvH.s:1720   .rodata.str1.8:0000000000000100 .LC11
     /tmp/ccASzBvH.s:1770   .text:0000000000000a78 .L0 
     /tmp/ccASzBvH.s:1780   .text:0000000000000a94 .L0 
     /tmp/ccASzBvH.s:1723   .rodata.str1.8:0000000000000110 .LC12
     /tmp/ccASzBvH.s:1785   .text:0000000000000aa4 .L0 
     /tmp/ccASzBvH.s:1797   .text:0000000000000ac8 .L0 
     /tmp/ccASzBvH.s:1726   .rodata.str1.8:0000000000000130 .LC13
     /tmp/ccASzBvH.s:1802   .text:0000000000000ad8 .L0 
     /tmp/ccASzBvH.s:1814   .text:0000000000000afc .L0 
     /tmp/ccASzBvH.s:1729   .rodata.str1.8:0000000000000150 .LC14
     /tmp/ccASzBvH.s:1819   .text:0000000000000b0c .L0 
     /tmp/ccASzBvH.s:1732   .rodata.str1.8:0000000000000170 .LC15
     /tmp/ccASzBvH.s:1824   .text:0000000000000b1c .L0 
     /tmp/ccASzBvH.s:1735   .rodata.str1.8:0000000000000180 .LC16
     /tmp/ccASzBvH.s:1849   .text:0000000000000b48 .L0 
     /tmp/ccASzBvH.s:1738   .rodata.str1.8:0000000000000190 .LC17
     /tmp/ccASzBvH.s:1874   .text:0000000000000b74 .L0 
     /tmp/ccASzBvH.s:1917   .rodata.str1.8:00000000000001a0 .LC18
     /tmp/ccASzBvH.s:1954   .text:0000000000000bcc .L0 
     /tmp/ccASzBvH.s:1920   .rodata.str1.8:00000000000001f0 .LC19
     /tmp/ccASzBvH.s:1959   .text:0000000000000bdc .L0 
     /tmp/ccASzBvH.s:1964   .text:0000000000000bec .L0 
     /tmp/ccASzBvH.s:1974   .text:0000000000000c0c .L0 
     /tmp/ccASzBvH.s:1923   .rodata.str1.8:0000000000000210 .LC20
     /tmp/ccASzBvH.s:1979   .text:0000000000000c1c .L0 
     /tmp/ccASzBvH.s:1991   .text:0000000000000c40 .L0 
     /tmp/ccASzBvH.s:1926   .rodata.str1.8:0000000000000228 .LC21
     /tmp/ccASzBvH.s:1996   .text:0000000000000c50 .L0 
     /tmp/ccASzBvH.s:2008   .text:0000000000000c74 .L0 
     /tmp/ccASzBvH.s:1929   .rodata.str1.8:0000000000000240 .LC22
     /tmp/ccASzBvH.s:2013   .text:0000000000000c84 .L0 
     /tmp/ccASzBvH.s:1932   .rodata.str1.8:0000000000000258 .LC23
     /tmp/ccASzBvH.s:2025   .text:0000000000000ca4 .L0 
     /tmp/ccASzBvH.s:2050   .text:0000000000000cd4 .L0 
     /tmp/ccASzBvH.s:2103   .text:0000000000000d24 .L0 
     /tmp/ccASzBvH.s:2115   .text:0000000000000d40 .L0 
     /tmp/ccASzBvH.s:2190   .text:0000000000000dbc .L0 
     /tmp/ccASzBvH.s:2273   .text:0000000000000e40 .L0 
     /tmp/ccASzBvH.s:2343   .text:0000000000000eb8 .L0 
     /tmp/ccASzBvH.s:41     .text:0000000000000024 .L2
     /tmp/ccASzBvH.s:21     .text:000000000000000c .L3
     /tmp/ccASzBvH.s:104    .text:0000000000000070 .L7
     /tmp/ccASzBvH.s:95     .text:0000000000000060 .L9
     /tmp/ccASzBvH.s:246    .text:000000000000013c .L15
     /tmp/ccASzBvH.s:226    .text:0000000000000120 .L17
     /tmp/ccASzBvH.s:197    .text:00000000000000f0 .L13
     /tmp/ccASzBvH.s:254    .text:0000000000000144 .L11
     /tmp/ccASzBvH.s:302    .text:00000000000001b8 .L10
     /tmp/ccASzBvH.s:413    .text:0000000000000240 .L23
     /tmp/ccASzBvH.s:473    .text:000000000000028c .L31
     /tmp/ccASzBvH.s:458    .text:0000000000000278 .L29
     /tmp/ccASzBvH.s:483    .text:0000000000000298 .L27
     /tmp/ccASzBvH.s:464    .text:0000000000000280 .L25
     /tmp/ccASzBvH.s:755    .text:000000000000044c .L41
GAS LISTING /tmp/ccASzBvH.s 			page 74


     /tmp/ccASzBvH.s:807    .text:0000000000000494 .L40
     /tmp/ccASzBvH.s:791    .text:0000000000000478 .L43
     /tmp/ccASzBvH.s:856    .text:00000000000004c8 .L46
     /tmp/ccASzBvH.s:843    .text:00000000000004b8 .L47
     /tmp/ccASzBvH.s:873    .text:00000000000004dc .L50
     /tmp/ccASzBvH.s:898    .text:0000000000000500 .L48
     /tmp/ccASzBvH.s:869    .text:00000000000004d8 .L49
     /tmp/ccASzBvH.s:941    .text:000000000000052c .L57
     /tmp/ccASzBvH.s:976    .text:000000000000055c .L54
     /tmp/ccASzBvH.s:935    .text:0000000000000528 .L55
     /tmp/ccASzBvH.s:990    .text:0000000000000568 .L59
     /tmp/ccASzBvH.s:966    .text:0000000000000550 .L53
     /tmp/ccASzBvH.s:984    .text:0000000000000564 .L58
     /tmp/ccASzBvH.s:1191   .text:00000000000006e8 .L63
     /tmp/ccASzBvH.s:1163   .text:00000000000006a8 .L65
     /tmp/ccASzBvH.s:1275   .text:0000000000000758 .L72
     /tmp/ccASzBvH.s:1320   .text:00000000000007c4 .L73
     /tmp/ccASzBvH.s:1328   .text:00000000000007d8 .L74
     /tmp/ccASzBvH.s:1258   .text:0000000000000740 .L67
     /tmp/ccASzBvH.s:1312   .text:00000000000007b4 .L70
     /tmp/ccASzBvH.s:1437   .text:000000000000087c .L85
     /tmp/ccASzBvH.s:1489   .text:00000000000008c4 .L81
     /tmp/ccASzBvH.s:1456   .text:0000000000000898 .L77
     /tmp/ccASzBvH.s:1476   .text:00000000000008b4 .L86
     /tmp/ccASzBvH.s:1696   .text:0000000000000a34 .L89
     /tmp/ccASzBvH.s:1846   .text:0000000000000b48 .L93
     /tmp/ccASzBvH.s:1831   .text:0000000000000b30 .L94
     /tmp/ccASzBvH.s:1871   .text:0000000000000b74 .L95
     /tmp/ccASzBvH.s:1856   .text:0000000000000b5c .L96
     /tmp/ccASzBvH.s:1896   .text:0000000000000ba0 .L92
     /tmp/ccASzBvH.s:1881   .text:0000000000000b88 .L98
     /tmp/ccASzBvH.s:2043   .text:0000000000000cc8 .L103
     /tmp/ccASzBvH.s:2056   .text:0000000000000cec .L100
     /tmp/ccASzBvH.s:2034   .text:0000000000000cbc .L105
     /tmp/ccASzBvH.s:2039   .text:0000000000000cc4 .L102
     /tmp/ccASzBvH.s:2135   .text:0000000000000d70 .L109
     /tmp/ccASzBvH.s:2110   .text:0000000000000d3c .L107
     /tmp/ccASzBvH.s:2203   .text:0000000000000de4 .L111
     /tmp/ccASzBvH.s:2182   .text:0000000000000db0 .L112
     /tmp/ccASzBvH.s:2212   .text:0000000000000df4 .L110
     /tmp/ccASzBvH.s:2300   .text:0000000000000e74 .L119
     /tmp/ccASzBvH.s:2284   .text:0000000000000e5c .L115
     /tmp/ccASzBvH.s:2261   .text:0000000000000e34 .L117
     /tmp/ccASzBvH.s:5740   .debug_abbrev:0000000000000000 .Ldebug_abbrev0
     /tmp/ccASzBvH.s:8199   .debug_str:0000000000000f70 .LASF292
     /tmp/ccASzBvH.s:7979   .debug_str:0000000000000849 .LASF293
     /tmp/ccASzBvH.s:7895   .debug_str:000000000000055b .LASF294
     /tmp/ccASzBvH.s:5      .text:0000000000000000 .Ltext0
     /tmp/ccASzBvH.s:2370   .text:0000000000000ee0 .Letext0
     /tmp/ccASzBvH.s:7719   .debug_line:0000000000000000 .Ldebug_line0
     /tmp/ccASzBvH.s:7931   .debug_str:00000000000006bd .LASF0
     /tmp/ccASzBvH.s:7961   .debug_str:00000000000007cb .LASF1
     /tmp/ccASzBvH.s:8111   .debug_str:0000000000000cc0 .LASF2
     /tmp/ccASzBvH.s:7865   .debug_str:000000000000049c .LASF3
     /tmp/ccASzBvH.s:8127   .debug_str:0000000000000d3f .LASF4
     /tmp/ccASzBvH.s:7943   .debug_str:0000000000000712 .LASF5
     /tmp/ccASzBvH.s:7741   .debug_str:00000000000000be .LASF6
GAS LISTING /tmp/ccASzBvH.s 			page 75


     /tmp/ccASzBvH.s:8061   .debug_str:0000000000000afe .LASF7
     /tmp/ccASzBvH.s:7953   .debug_str:000000000000077c .LASF8
     /tmp/ccASzBvH.s:7891   .debug_str:0000000000000541 .LASF9
     /tmp/ccASzBvH.s:7903   .debug_str:00000000000005ac .LASF10
     /tmp/ccASzBvH.s:7799   .debug_str:00000000000002e8 .LASF11
     /tmp/ccASzBvH.s:7881   .debug_str:0000000000000503 .LASF12
     /tmp/ccASzBvH.s:7817   .debug_str:0000000000000344 .LASF13
     /tmp/ccASzBvH.s:7797   .debug_str:00000000000002d8 .LASF14
     /tmp/ccASzBvH.s:8171   .debug_str:0000000000000eda .LASF15
     /tmp/ccASzBvH.s:7855   .debug_str:0000000000000453 .LASF16
     /tmp/ccASzBvH.s:8159   .debug_str:0000000000000e49 .LASF17
     /tmp/ccASzBvH.s:7877   .debug_str:00000000000004e5 .LASF18
     /tmp/ccASzBvH.s:7875   .debug_str:00000000000004d8 .LASF28
     /tmp/ccASzBvH.s:7893   .debug_str:0000000000000551 .LASF19
     /tmp/ccASzBvH.s:7873   .debug_str:00000000000004cc .LASF20
     /tmp/ccASzBvH.s:8015   .debug_str:000000000000098f .LASF21
     /tmp/ccASzBvH.s:7897   .debug_str:0000000000000579 .LASF22
     /tmp/ccASzBvH.s:8151   .debug_str:0000000000000e14 .LASF23
     /tmp/ccASzBvH.s:8261   .debug_str:000000000000127c .LASF24
     /tmp/ccASzBvH.s:7993   .debug_str:00000000000008c4 .LASF25
     /tmp/ccASzBvH.s:7929   .debug_str:00000000000006b8 .LASF26
     /tmp/ccASzBvH.s:8185   .debug_str:0000000000000f1a .LASF27
     /tmp/ccASzBvH.s:8065   .debug_str:0000000000000b19 .LASF29
     /tmp/ccASzBvH.s:7801   .debug_str:00000000000002f7 .LASF30
     /tmp/ccASzBvH.s:8095   .debug_str:0000000000000c34 .LASF31
     /tmp/ccASzBvH.s:8181   .debug_str:0000000000000f0e .LASF32
     /tmp/ccASzBvH.s:7975   .debug_str:0000000000000828 .LASF33
     /tmp/ccASzBvH.s:7991   .debug_str:00000000000008b5 .LASF34
     /tmp/ccASzBvH.s:7999   .debug_str:00000000000008dd .LASF35
     /tmp/ccASzBvH.s:8197   .debug_str:0000000000000f66 .LASF36
     /tmp/ccASzBvH.s:8237   .debug_str:00000000000011b5 .LASF37
     /tmp/ccASzBvH.s:7965   .debug_str:00000000000007e9 .LASF38
     /tmp/ccASzBvH.s:7869   .debug_str:00000000000004b0 .LASF39
     /tmp/ccASzBvH.s:8189   .debug_str:0000000000000f2a .LASF295
     /tmp/ccASzBvH.s:8183   .debug_str:0000000000000f14 .LASF40
     /tmp/ccASzBvH.s:8145   .debug_str:0000000000000dd3 .LASF41
     /tmp/ccASzBvH.s:7809   .debug_str:000000000000031a .LASF42
     /tmp/ccASzBvH.s:7777   .debug_str:00000000000001ff .LASF43
     /tmp/ccASzBvH.s:8063   .debug_str:0000000000000b11 .LASF44
     /tmp/ccASzBvH.s:7807   .debug_str:0000000000000311 .LASF45
     /tmp/ccASzBvH.s:8179   .debug_str:0000000000000f06 .LASF46
     /tmp/ccASzBvH.s:7921   .debug_str:0000000000000674 .LASF47
     /tmp/ccASzBvH.s:7743   .debug_str:00000000000000c5 .LASF53
     /tmp/ccASzBvH.s:8225   .debug_str:0000000000001131 .LASF296
     /tmp/ccASzBvH.s:8047   .debug_str:0000000000000aa1 .LASF48
     /tmp/ccASzBvH.s:7959   .debug_str:00000000000007c6 .LASF49
     /tmp/ccASzBvH.s:8297   .debug_str:000000000000138a .LASF51
     /tmp/ccASzBvH.s:8291   .debug_str:0000000000001369 .LASF50
     /tmp/ccASzBvH.s:8207   .debug_str:0000000000001070 .LASF52
     /tmp/ccASzBvH.s:7841   .debug_str:000000000000040e .LASF76
     /tmp/ccASzBvH.s:7755   .debug_str:000000000000013e .LASF78
     /tmp/ccASzBvH.s:8195   .debug_str:0000000000000f5e .LASF54
     /tmp/ccASzBvH.s:8135   .debug_str:0000000000000d7e .LASF55
     /tmp/ccASzBvH.s:7969   .debug_str:00000000000007fe .LASF58
     /tmp/ccASzBvH.s:7983   .debug_str:0000000000000864 .LASF60
     /tmp/ccASzBvH.s:8303   .debug_str:00000000000013cf .LASF56
     /tmp/ccASzBvH.s:7861   .debug_str:0000000000000483 .LASF57
GAS LISTING /tmp/ccASzBvH.s 			page 76


     /tmp/ccASzBvH.s:7733   .debug_str:000000000000007d .LASF102
     /tmp/ccASzBvH.s:7939   .debug_str:00000000000006f3 .LASF104
     /tmp/ccASzBvH.s:8137   .debug_str:0000000000000d8f .LASF59
     /tmp/ccASzBvH.s:8019   .debug_str:00000000000009a0 .LASF61
     /tmp/ccASzBvH.s:8121   .debug_str:0000000000000d05 .LASF62
     /tmp/ccASzBvH.s:8167   .debug_str:0000000000000e9c .LASF63
     /tmp/ccASzBvH.s:8021   .debug_str:00000000000009b3 .LASF64
     /tmp/ccASzBvH.s:7727   .debug_str:000000000000003f .LASF65
     /tmp/ccASzBvH.s:8281   .debug_str:0000000000001325 .LASF66
     /tmp/ccASzBvH.s:8059   .debug_str:0000000000000ae4 .LASF67
     /tmp/ccASzBvH.s:8157   .debug_str:0000000000000e3b .LASF68
     /tmp/ccASzBvH.s:8077   .debug_str:0000000000000b73 .LASF69
     /tmp/ccASzBvH.s:7835   .debug_str:00000000000003ec .LASF70
     /tmp/ccASzBvH.s:7883   .debug_str:0000000000000512 .LASF71
     /tmp/ccASzBvH.s:8103   .debug_str:0000000000000c87 .LASF72
     /tmp/ccASzBvH.s:8283   .debug_str:0000000000001334 .LASF73
     /tmp/ccASzBvH.s:8285   .debug_str:0000000000001343 .LASF74
     /tmp/ccASzBvH.s:7945   .debug_str:0000000000000724 .LASF75
     /tmp/ccASzBvH.s:8153   .debug_str:0000000000000e1e .LASF77
     /tmp/ccASzBvH.s:8295   .debug_str:0000000000001374 .LASF79
     /tmp/ccASzBvH.s:7907   .debug_str:00000000000005e3 .LASF80
     /tmp/ccASzBvH.s:7829   .debug_str:00000000000003bc .LASF81
     /tmp/ccASzBvH.s:8133   .debug_str:0000000000000d76 .LASF82
     /tmp/ccASzBvH.s:7933   .debug_str:00000000000006ca .LASF83
     /tmp/ccASzBvH.s:8029   .debug_str:00000000000009ed .LASF84
     /tmp/ccASzBvH.s:7823   .debug_str:0000000000000394 .LASF85
     /tmp/ccASzBvH.s:8085   .debug_str:0000000000000bc5 .LASF86
     /tmp/ccASzBvH.s:8313   .debug_str:0000000000001431 .LASF87
     /tmp/ccASzBvH.s:8035   .debug_str:0000000000000a36 .LASF88
     /tmp/ccASzBvH.s:8119   .debug_str:0000000000000cf2 .LASF89
     /tmp/ccASzBvH.s:8139   .debug_str:0000000000000d98 .LASF90
     /tmp/ccASzBvH.s:8247   .debug_str:00000000000011f7 .LASF91
     /tmp/ccASzBvH.s:8007   .debug_str:000000000000093e .LASF92
     /tmp/ccASzBvH.s:8229   .debug_str:0000000000001173 .LASF93
     /tmp/ccASzBvH.s:8165   .debug_str:0000000000000e7c .LASF94
     /tmp/ccASzBvH.s:8053   .debug_str:0000000000000ab8 .LASF95
     /tmp/ccASzBvH.s:8037   .debug_str:0000000000000a57 .LASF96
     /tmp/ccASzBvH.s:7849   .debug_str:0000000000000431 .LASF97
     /tmp/ccASzBvH.s:7935   .debug_str:00000000000006de .LASF98
     /tmp/ccASzBvH.s:8011   .debug_str:000000000000097b .LASF99
     /tmp/ccASzBvH.s:8209   .debug_str:0000000000001080 .LASF100
     /tmp/ccASzBvH.s:7887   .debug_str:0000000000000528 .LASF101
     /tmp/ccASzBvH.s:8289   .debug_str:000000000000135b .LASF103
     /tmp/ccASzBvH.s:7763   .debug_str:000000000000018d .LASF105
     /tmp/ccASzBvH.s:7871   .debug_str:00000000000004b7 .LASF106
     /tmp/ccASzBvH.s:7791   .debug_str:0000000000000299 .LASF107
     /tmp/ccASzBvH.s:8279   .debug_str:000000000000131e .LASF108
     /tmp/ccASzBvH.s:7787   .debug_str:0000000000000263 .LASF109
     /tmp/ccASzBvH.s:7731   .debug_str:0000000000000078 .LASF110
     /tmp/ccASzBvH.s:8243   .debug_str:00000000000011e6 .LASF111
     /tmp/ccASzBvH.s:7989   .debug_str:00000000000008ad .LASF112
     /tmp/ccASzBvH.s:7847   .debug_str:000000000000042b .LASF113
     /tmp/ccASzBvH.s:8223   .debug_str:0000000000001129 .LASF114
     /tmp/ccASzBvH.s:7775   .debug_str:00000000000001ee .LASF115
     /tmp/ccASzBvH.s:7995   .debug_str:00000000000008c9 .LASF116
     /tmp/ccASzBvH.s:8091   .debug_str:0000000000000c04 .LASF117
     /tmp/ccASzBvH.s:7899   .debug_str:0000000000000587 .LASF118
GAS LISTING /tmp/ccASzBvH.s 			page 77


     /tmp/ccASzBvH.s:8115   .debug_str:0000000000000cda .LASF119
     /tmp/ccASzBvH.s:8089   .debug_str:0000000000000bf0 .LASF120
     /tmp/ccASzBvH.s:7843   .debug_str:0000000000000417 .LASF121
     /tmp/ccASzBvH.s:8149   .debug_str:0000000000000dfd .LASF122
     /tmp/ccASzBvH.s:8175   .debug_str:0000000000000ef9 .LASF123
     /tmp/ccASzBvH.s:8025   .debug_str:00000000000009cb .LASF124
     /tmp/ccASzBvH.s:7723   .debug_str:000000000000000f .LASF125
     /tmp/ccASzBvH.s:8117   .debug_str:0000000000000ce6 .LASF126
     /tmp/ccASzBvH.s:8001   .debug_str:00000000000008e9 .LASF127
     /tmp/ccASzBvH.s:8109   .debug_str:0000000000000cab .LASF128
     /tmp/ccASzBvH.s:7803   .debug_str:00000000000002fc .LASF129
     /tmp/ccASzBvH.s:7811   .debug_str:0000000000000324 .LASF130
     /tmp/ccASzBvH.s:8023   .debug_str:00000000000009c2 .LASF131
     /tmp/ccASzBvH.s:8125   .debug_str:0000000000000d34 .LASF132
     /tmp/ccASzBvH.s:7721   .debug_str:0000000000000000 .LASF133
     /tmp/ccASzBvH.s:7915   .debug_str:0000000000000631 .LASF134
     /tmp/ccASzBvH.s:8221   .debug_str:000000000000111a .LASF135
     /tmp/ccASzBvH.s:8169   .debug_str:0000000000000eb8 .LASF136
     /tmp/ccASzBvH.s:8141   .debug_str:0000000000000db6 .LASF137
     /tmp/ccASzBvH.s:7821   .debug_str:0000000000000370 .LASF138
     /tmp/ccASzBvH.s:8045   .debug_str:0000000000000a91 .LASF139
     /tmp/ccASzBvH.s:8081   .debug_str:0000000000000b91 .LASF140
     /tmp/ccASzBvH.s:8043   .debug_str:0000000000000a8b .LASF141
     /tmp/ccASzBvH.s:8307   .debug_str:0000000000001402 .LASF142
     /tmp/ccASzBvH.s:7735   .debug_str:000000000000008d .LASF143
     /tmp/ccASzBvH.s:7987   .debug_str:0000000000000893 .LASF144
     /tmp/ccASzBvH.s:8301   .debug_str:00000000000013bf .LASF145
     /tmp/ccASzBvH.s:8129   .debug_str:0000000000000d46 .LASF146
     /tmp/ccASzBvH.s:8173   .debug_str:0000000000000ee6 .LASF147
     /tmp/ccASzBvH.s:8123   .debug_str:0000000000000d0e .LASF148
     /tmp/ccASzBvH.s:8309   .debug_str:000000000000141a .LASF149
     /tmp/ccASzBvH.s:7957   .debug_str:00000000000007a2 .LASF150
     /tmp/ccASzBvH.s:8027   .debug_str:00000000000009e4 .LASF151
     /tmp/ccASzBvH.s:7773   .debug_str:00000000000001de .LASF152
     /tmp/ccASzBvH.s:8215   .debug_str:00000000000010bf .LASF153
     /tmp/ccASzBvH.s:8131   .debug_str:0000000000000d69 .LASF154
     /tmp/ccASzBvH.s:7729   .debug_str:0000000000000059 .LASF155
     /tmp/ccASzBvH.s:8055   .debug_str:0000000000000acc .LASF156
     /tmp/ccASzBvH.s:7919   .debug_str:0000000000000660 .LASF157
     /tmp/ccASzBvH.s:8049   .debug_str:0000000000000aa6 .LASF158
     /tmp/ccASzBvH.s:7963   .debug_str:00000000000007de .LASF159
     /tmp/ccASzBvH.s:8075   .debug_str:0000000000000b69 .LASF160
     /tmp/ccASzBvH.s:8249   .debug_str:000000000000120a .LASF161
     /tmp/ccASzBvH.s:8187   .debug_str:0000000000000f1f .LASF162
     /tmp/ccASzBvH.s:8245   .debug_str:00000000000011eb .LASF163
     /tmp/ccASzBvH.s:8259   .debug_str:000000000000126f .LASF164
     /tmp/ccASzBvH.s:8013   .debug_str:0000000000000983 .LASF165
     /tmp/ccASzBvH.s:8073   .debug_str:0000000000000b5d .LASF166
     /tmp/ccASzBvH.s:8155   .debug_str:0000000000000e29 .LASF169
     /tmp/ccASzBvH.s:8147   .debug_str:0000000000000ddb .LASF171
     /tmp/ccASzBvH.s:8235   .debug_str:00000000000011a3 .LASF167
     /tmp/ccASzBvH.s:8277   .debug_str:00000000000012fc .LASF168
     /tmp/ccASzBvH.s:8233   .debug_str:0000000000001191 .LASF170
     /tmp/ccASzBvH.s:7747   .debug_str:00000000000000f0 .LASF172
     /tmp/ccASzBvH.s:7955   .debug_str:000000000000078f .LASF173
     /tmp/ccASzBvH.s:7785   .debug_str:0000000000000240 .LASF174
     /tmp/ccASzBvH.s:7853   .debug_str:0000000000000440 .LASF175
GAS LISTING /tmp/ccASzBvH.s 			page 78


     /tmp/ccASzBvH.s:7779   .debug_str:0000000000000208 .LASF176
     /tmp/ccASzBvH.s:7757   .debug_str:0000000000000151 .LASF177
     /tmp/ccASzBvH.s:8257   .debug_str:0000000000001260 .LASF178
     /tmp/ccASzBvH.s:8009   .debug_str:000000000000095c .LASF179
     /tmp/ccASzBvH.s:8275   .debug_str:00000000000012e3 .LASF180
     /tmp/ccASzBvH.s:7947   .debug_str:0000000000000731 .LASF181
     /tmp/ccASzBvH.s:7973   .debug_str:0000000000000810 .LASF182
     /tmp/ccASzBvH.s:8299   .debug_str:0000000000001396 .LASF183
     /tmp/ccASzBvH.s:7879   .debug_str:00000000000004f2 .LASF184
     /tmp/ccASzBvH.s:8267   .debug_str:00000000000012ab .LASF185
     /tmp/ccASzBvH.s:7889   .debug_str:0000000000000534 .LASF186
     /tmp/ccASzBvH.s:8287   .debug_str:000000000000134e .LASF187
     /tmp/ccASzBvH.s:7911   .debug_str:000000000000060f .LASF188
     /tmp/ccASzBvH.s:7749   .debug_str:0000000000000112 .LASF189
     /tmp/ccASzBvH.s:7977   .debug_str:000000000000082d .LASF190
     /tmp/ccASzBvH.s:8041   .debug_str:0000000000000a7f .LASF191
     /tmp/ccASzBvH.s:7759   .debug_str:000000000000016c .LASF192
     /tmp/ccASzBvH.s:8203   .debug_str:0000000000001057 .LASF193
     /tmp/ccASzBvH.s:7761   .debug_str:0000000000000188 .LASF194
     /tmp/ccASzBvH.s:8177   .debug_str:0000000000000f00 .LASF195
     /tmp/ccASzBvH.s:8107   .debug_str:0000000000000c9e .LASF196
     /tmp/ccASzBvH.s:7737   .debug_str:0000000000000095 .LASF197
     /tmp/ccASzBvH.s:8033   .debug_str:0000000000000a2c .LASF198
     /tmp/ccASzBvH.s:7857   .debug_str:0000000000000469 .LASF199
     /tmp/ccASzBvH.s:7949   .debug_str:000000000000075a .LASF200
     /tmp/ccASzBvH.s:8017   .debug_str:000000000000099a .LASF201
     /tmp/ccASzBvH.s:8087   .debug_str:0000000000000be2 .LASF202
     /tmp/ccASzBvH.s:8071   .debug_str:0000000000000b4f .LASF203
     /tmp/ccASzBvH.s:7951   .debug_str:000000000000076b .LASF204
     /tmp/ccASzBvH.s:8269   .debug_str:00000000000012bd .LASF205
     /tmp/ccASzBvH.s:7859   .debug_str:0000000000000470 .LASF206
     /tmp/ccASzBvH.s:8305   .debug_str:00000000000013dc .LASF208
     /tmp/ccASzBvH.s:2309   .text:0000000000000e78 .LFB31
     /tmp/ccASzBvH.s:2360   .text:0000000000000ee0 .LFE31
     /tmp/ccASzBvH.s:7923   .debug_str:000000000000067a .LASF210
     /tmp/ccASzBvH.s:6689   .debug_loc:0000000000000000 .LLST66
     /tmp/ccASzBvH.s:2329   .text:0000000000000e9c .LVL245
     /tmp/ccASzBvH.s:2334   .text:0000000000000ea8 .LVL246
     /tmp/ccASzBvH.s:2339   .text:0000000000000eb4 .LVL247
     /tmp/ccASzBvH.s:2346   .text:0000000000000ecc .LVL248
     /tmp/ccASzBvH.s:8205   .debug_str:000000000000105e .LASF207
     /tmp/ccASzBvH.s:8193   .debug_str:0000000000000f40 .LASF209
     /tmp/ccASzBvH.s:2235   .text:0000000000000e0c .LFB30
     /tmp/ccASzBvH.s:2303   .text:0000000000000e78 .LFE30
     /tmp/ccASzBvH.s:8057   .debug_str:0000000000000adf .LASF211
     /tmp/ccASzBvH.s:6707   .debug_loc:000000000000004c .LLST63
     /tmp/ccASzBvH.s:6730   .debug_loc:00000000000000bb .LLST64
     /tmp/ccASzBvH.s:2265   .text:0000000000000e38 .LBB26
     /tmp/ccASzBvH.s:2280   .text:0000000000000e58 .LBE26
     /tmp/ccASzBvH.s:8231   .debug_str:0000000000001188 .LASF212
     /tmp/ccASzBvH.s:6737   .debug_loc:00000000000000de .LLST65
     /tmp/ccASzBvH.s:2276   .text:0000000000000e54 .LVL239
     /tmp/ccASzBvH.s:7885   .debug_str:0000000000000522 .LASF213
     /tmp/ccASzBvH.s:7967   .debug_str:00000000000007f2 .LASF214
     /tmp/ccASzBvH.s:2155   .text:0000000000000d8c .LFB29
     /tmp/ccASzBvH.s:2229   .text:0000000000000e0c .LFE29
     /tmp/ccASzBvH.s:7981   .debug_str:000000000000085f .LASF215
GAS LISTING /tmp/ccASzBvH.s 			page 79


     /tmp/ccASzBvH.s:6744   .debug_loc:0000000000000101 .LLST60
     /tmp/ccASzBvH.s:6762   .debug_loc:000000000000014d .LLST61
     /tmp/ccASzBvH.s:7687   .debug_ranges:0000000000000000 .Ldebug_ranges0
     /tmp/ccASzBvH.s:6778   .debug_loc:0000000000000197 .LLST62
     /tmp/ccASzBvH.s:2196   .text:0000000000000dd8 .LVL231
     /tmp/ccASzBvH.s:2211   .text:0000000000000df4 .LVL233
     /tmp/ccASzBvH.s:8271   .debug_str:00000000000012cb .LASF223
     /tmp/ccASzBvH.s:8113   .debug_str:0000000000000cce .LASF225
     /tmp/ccASzBvH.s:2077   .text:0000000000000d00 .LFB28
     /tmp/ccASzBvH.s:2149   .text:0000000000000d8c .LFE28
     /tmp/ccASzBvH.s:7827   .debug_str:00000000000003b7 .LASF216
     /tmp/ccASzBvH.s:6790   .debug_loc:00000000000001ce .LLST57
     /tmp/ccASzBvH.s:7851   .debug_str:000000000000043a .LASF217
     /tmp/ccASzBvH.s:6804   .debug_loc:0000000000000207 .LLST58
     /tmp/ccASzBvH.s:7771   .debug_str:00000000000001d8 .LASF218
     /tmp/ccASzBvH.s:6827   .debug_loc:0000000000000267 .LLST59
     /tmp/ccASzBvH.s:2096   .text:0000000000000d20 .LVL219
     /tmp/ccASzBvH.s:2119   .text:0000000000000d58 .LVL223
     /tmp/ccASzBvH.s:2142   .text:0000000000000d7c .LVL226
     /tmp/ccASzBvH.s:8191   .debug_str:0000000000000f30 .LASF219
     /tmp/ccASzBvH.s:8097   .debug_str:0000000000000c3f .LASF220
     /tmp/ccASzBvH.s:1745   .text:0000000000000a4c .LFB27
     /tmp/ccASzBvH.s:1913   .text:0000000000000bb8 .LFE27
     /tmp/ccASzBvH.s:6838   .debug_loc:000000000000029d .LLST54
     /tmp/ccASzBvH.s:6856   .debug_loc:00000000000002e9 .LLST55
     /tmp/ccASzBvH.s:1767   .text:0000000000000a78 .LVL176
     /tmp/ccASzBvH.s:1772   .text:0000000000000a88 .LVL177
     /tmp/ccASzBvH.s:1777   .text:0000000000000a94 .LVL178
     /tmp/ccASzBvH.s:1782   .text:0000000000000aa4 .LVL179
     /tmp/ccASzBvH.s:1787   .text:0000000000000ab4 .LVL180
     /tmp/ccASzBvH.s:1794   .text:0000000000000ac8 .LVL181
     /tmp/ccASzBvH.s:1799   .text:0000000000000ad8 .LVL182
     /tmp/ccASzBvH.s:1804   .text:0000000000000ae8 .LVL183
     /tmp/ccASzBvH.s:1811   .text:0000000000000afc .LVL184
     /tmp/ccASzBvH.s:1816   .text:0000000000000b0c .LVL185
     /tmp/ccASzBvH.s:1821   .text:0000000000000b1c .LVL186
     /tmp/ccASzBvH.s:1826   .text:0000000000000b2c .LVL187
     /tmp/ccASzBvH.s:1839   .text:0000000000000b40 .LVL189
     /tmp/ccASzBvH.s:1851   .text:0000000000000b58 .LVL191
     /tmp/ccASzBvH.s:1864   .text:0000000000000b6c .LVL193
     /tmp/ccASzBvH.s:1876   .text:0000000000000b84 .LVL195
     /tmp/ccASzBvH.s:1889   .text:0000000000000b98 .LVL197
     /tmp/ccASzBvH.s:7783   .debug_str:0000000000000230 .LASF221
     /tmp/ccASzBvH.s:8093   .debug_str:0000000000000c0f .LASF222
     /tmp/ccASzBvH.s:1643   .text:00000000000009b4 .LFB26
     /tmp/ccASzBvH.s:1713   .text:0000000000000a4c .LFE26
     /tmp/ccASzBvH.s:6863   .debug_loc:000000000000030c .LLST51
     /tmp/ccASzBvH.s:6877   .debug_loc:0000000000000345 .LLST52
     /tmp/ccASzBvH.s:6895   .debug_loc:0000000000000391 .LLST53
     /tmp/ccASzBvH.s:1663   .text:00000000000009d8 .LVL165
     /tmp/ccASzBvH.s:1670   .text:00000000000009ec .LVL167
     /tmp/ccASzBvH.s:1677   .text:0000000000000a00 .LVL168
     /tmp/ccASzBvH.s:1684   .text:0000000000000a14 .LVL169
     /tmp/ccASzBvH.s:1689   .text:0000000000000a24 .LVL170
     /tmp/ccASzBvH.s:1695   .text:0000000000000a34 .LVL171
     /tmp/ccASzBvH.s:7825   .debug_str:00000000000003a6 .LASF224
     /tmp/ccASzBvH.s:7925   .debug_str:0000000000000681 .LASF226
GAS LISTING /tmp/ccASzBvH.s 			page 80


     /tmp/ccASzBvH.s:1381   .text:0000000000000824 .LFB25
     /tmp/ccASzBvH.s:1530   .text:0000000000000908 .LFE25
     /tmp/ccASzBvH.s:6902   .debug_loc:00000000000003b4 .LLST42
     /tmp/ccASzBvH.s:7867   .debug_str:00000000000004a2 .LASF227
     /tmp/ccASzBvH.s:6924   .debug_loc:0000000000000413 .LLST45
     /tmp/ccASzBvH.s:1444   .text:0000000000000884 .LVL138
     /tmp/ccASzBvH.s:1452   .text:0000000000000894 .LVL141
     /tmp/ccASzBvH.s:1484   .text:00000000000008c0 .LVL145
     /tmp/ccASzBvH.s:1413   .text:0000000000000850 .LBB16
     /tmp/ccASzBvH.s:1438   .text:000000000000087c .LBE16
     /tmp/ccASzBvH.s:6939   .debug_loc:000000000000045c .LLST43
     /tmp/ccASzBvH.s:1417   .text:0000000000000858 .LVL132
     /tmp/ccASzBvH.s:1425   .text:0000000000000868 .LVL135
     /tmp/ccASzBvH.s:1432   .text:0000000000000878 .LVL136
     /tmp/ccASzBvH.s:1492   .text:00000000000008c4 .LBB17
     /tmp/ccASzBvH.s:1526   .text:0000000000000908 .LBE17
     /tmp/ccASzBvH.s:6950   .debug_loc:0000000000000492 .LLST44
     /tmp/ccASzBvH.s:1497   .text:00000000000008d0 .LVL147
     /tmp/ccASzBvH.s:1507   .text:00000000000008e4 .LVL148
     /tmp/ccASzBvH.s:1515   .text:00000000000008f4 .LVL151
     /tmp/ccASzBvH.s:1522   .text:0000000000000904 .LVL152
     /tmp/ccASzBvH.s:8101   .debug_str:0000000000000c75 .LASF228
     /tmp/ccASzBvH.s:8251   .debug_str:0000000000001215 .LASF229
     /tmp/ccASzBvH.s:1536   .text:0000000000000908 .LFB24
     /tmp/ccASzBvH.s:1629   .text:00000000000009b4 .LFE24
     /tmp/ccASzBvH.s:7971   .debug_str:000000000000080b .LASF230
     /tmp/ccASzBvH.s:6961   .debug_loc:00000000000004c8 .LLST46
     /tmp/ccASzBvH.s:6979   .debug_loc:0000000000000514 .LLST47
     /tmp/ccASzBvH.s:6997   .debug_loc:0000000000000560 .LLST48
     /tmp/ccASzBvH.s:7015   .debug_loc:00000000000005ac .LLST49
     /tmp/ccASzBvH.s:8161   .debug_str:0000000000000e5f .LASF231
     /tmp/ccASzBvH.s:7033   .debug_loc:00000000000005f8 .LLST50
     /tmp/ccASzBvH.s:1568   .text:0000000000000950 .LVL155
     /tmp/ccASzBvH.s:1591   .text:0000000000000978 .LVL157
     /tmp/ccASzBvH.s:1599   .text:0000000000000988 .LVL158
     /tmp/ccASzBvH.s:8105   .debug_str:0000000000000c94 .LASF232
     /tmp/ccASzBvH.s:8273   .debug_str:00000000000012d3 .LASF233
     /tmp/ccASzBvH.s:1343   .text:00000000000007ec .LFB23
     /tmp/ccASzBvH.s:1375   .text:0000000000000824 .LFE23
     /tmp/ccASzBvH.s:7769   .debug_str:00000000000001d2 .LASF234
     /tmp/ccASzBvH.s:7044   .debug_loc:000000000000062e .LLST39
     /tmp/ccASzBvH.s:8311   .debug_str:0000000000001427 .LASF235
     /tmp/ccASzBvH.s:7058   .debug_loc:0000000000000667 .LLST40
     /tmp/ccASzBvH.s:7072   .debug_loc:00000000000006a0 .LLST41
     /tmp/ccASzBvH.s:1358   .text:0000000000000804 .LVL128
     /tmp/ccASzBvH.s:1362   .text:000000000000080c .LVL129
     /tmp/ccASzBvH.s:7985   .debug_str:000000000000087c .LASF236
     /tmp/ccASzBvH.s:7819   .debug_str:0000000000000354 .LASF237
     /tmp/ccASzBvH.s:1939   .text:0000000000000bb8 .LFB22
     /tmp/ccASzBvH.s:2071   .text:0000000000000d00 .LFE22
     /tmp/ccASzBvH.s:2029   .text:0000000000000cb4 .LBB23
     /tmp/ccASzBvH.s:2057   .text:0000000000000cec .LBE23
     /tmp/ccASzBvH.s:7079   .debug_loc:00000000000006c3 .LLST56
     /tmp/ccASzBvH.s:2038   .text:0000000000000cc4 .LVL215
     /tmp/ccASzBvH.s:1956   .text:0000000000000bdc .LVL201
     /tmp/ccASzBvH.s:1961   .text:0000000000000bec .LVL202
     /tmp/ccASzBvH.s:1971   .text:0000000000000c0c .LVL203
GAS LISTING /tmp/ccASzBvH.s 			page 81


     /tmp/ccASzBvH.s:1976   .text:0000000000000c1c .LVL204
     /tmp/ccASzBvH.s:1981   .text:0000000000000c2c .LVL205
     /tmp/ccASzBvH.s:1988   .text:0000000000000c40 .LVL206
     /tmp/ccASzBvH.s:1993   .text:0000000000000c50 .LVL207
     /tmp/ccASzBvH.s:1998   .text:0000000000000c60 .LVL208
     /tmp/ccASzBvH.s:2005   .text:0000000000000c74 .LVL209
     /tmp/ccASzBvH.s:2010   .text:0000000000000c84 .LVL210
     /tmp/ccASzBvH.s:2015   .text:0000000000000c94 .LVL211
     /tmp/ccASzBvH.s:2022   .text:0000000000000ca4 .LVL212
     /tmp/ccASzBvH.s:2027   .text:0000000000000cb4 .LVL213
     /tmp/ccASzBvH.s:7913   .debug_str:0000000000000620 .LASF238
     /tmp/ccASzBvH.s:8031   .debug_str:0000000000000a0c .LASF241
     /tmp/ccASzBvH.s:1220   .text:0000000000000700 .LFB21
     /tmp/ccASzBvH.s:1337   .text:00000000000007ec .LFE21
     /tmp/ccASzBvH.s:7091   .debug_loc:00000000000006fa .LLST36
     /tmp/ccASzBvH.s:7113   .debug_loc:0000000000000759 .LLST37
     /tmp/ccASzBvH.s:8263   .debug_str:0000000000001285 .LASF239
     /tmp/ccASzBvH.s:7138   .debug_loc:00000000000007bb .LLST38
     /tmp/ccASzBvH.s:1283   .text:000000000000076c .LVL121
     /tmp/ccASzBvH.s:1290   .text:0000000000000780 .LVL122
     /tmp/ccASzBvH.s:1295   .text:0000000000000790 .LVL123
     /tmp/ccASzBvH.s:1301   .text:00000000000007a0 .LVL124
     /tmp/ccASzBvH.s:1326   .text:00000000000007d4 .LVL125
     /tmp/ccASzBvH.s:1334   .text:00000000000007e8 .LVL126
     /tmp/ccASzBvH.s:7753   .debug_str:0000000000000130 .LASF240
     /tmp/ccASzBvH.s:8239   .debug_str:00000000000011c5 .LASF242
     /tmp/ccASzBvH.s:1084   .text:00000000000005dc .LFB20
     /tmp/ccASzBvH.s:1209   .text:0000000000000700 .LFE20
     /tmp/ccASzBvH.s:7149   .debug_loc:00000000000007f1 .LLST34
     /tmp/ccASzBvH.s:1159   .text:00000000000006a4 .LBB13
     /tmp/ccASzBvH.s:1192   .text:00000000000006e8 .LBE13
     /tmp/ccASzBvH.s:7167   .debug_loc:000000000000083d .LLST35
     /tmp/ccASzBvH.s:1181   .text:00000000000006d0 .LVL110
     /tmp/ccASzBvH.s:1186   .text:00000000000006e0 .LVL111
     /tmp/ccASzBvH.s:1106   .text:0000000000000608 .LVL99
     /tmp/ccASzBvH.s:1111   .text:0000000000000618 .LVL100
     /tmp/ccASzBvH.s:1118   .text:000000000000062c .LVL101
     /tmp/ccASzBvH.s:1123   .text:000000000000063c .LVL102
     /tmp/ccASzBvH.s:1128   .text:000000000000064c .LVL103
     /tmp/ccASzBvH.s:1135   .text:0000000000000660 .LVL104
     /tmp/ccASzBvH.s:1140   .text:0000000000000670 .LVL105
     /tmp/ccASzBvH.s:1145   .text:0000000000000680 .LVL106
     /tmp/ccASzBvH.s:1152   .text:0000000000000694 .LVL107
     /tmp/ccASzBvH.s:1157   .text:00000000000006a4 .LVL108
     /tmp/ccASzBvH.s:8163   .debug_str:0000000000000e68 .LASF243
     /tmp/ccASzBvH.s:7909   .debug_str:00000000000005ee .LASF244
     /tmp/ccASzBvH.s:1023   .text:0000000000000590 .LFB19
     /tmp/ccASzBvH.s:1064   .text:00000000000005dc .LFE19
     /tmp/ccASzBvH.s:7179   .debug_loc:0000000000000874 .LLST32
     /tmp/ccASzBvH.s:7193   .debug_loc:00000000000008ad .LLST33
     /tmp/ccASzBvH.s:8039   .debug_str:0000000000000a76 .LASF245
     /tmp/ccASzBvH.s:8219   .debug_str:00000000000010fc .LASF248
     /tmp/ccASzBvH.s:918    .text:0000000000000510 .LFB18
     /tmp/ccASzBvH.s:1017   .text:0000000000000590 .LFE18
     /tmp/ccASzBvH.s:7207   .debug_loc:00000000000008e6 .LLST29
     /tmp/ccASzBvH.s:7793   .debug_str:00000000000002c5 .LASF246
     /tmp/ccASzBvH.s:7218   .debug_loc:000000000000091c .LLST30
GAS LISTING /tmp/ccASzBvH.s 			page 82


     /tmp/ccASzBvH.s:7229   .debug_loc:0000000000000952 .LLST31
     /tmp/ccASzBvH.s:8099   .debug_str:0000000000000c62 .LASF247
     /tmp/ccASzBvH.s:8265   .debug_str:0000000000001293 .LASF249
     /tmp/ccASzBvH.s:828    .text:00000000000004a8 .LFB17
     /tmp/ccASzBvH.s:912    .text:0000000000000510 .LFE17
     /tmp/ccASzBvH.s:7240   .debug_loc:0000000000000988 .LLST23
     /tmp/ccASzBvH.s:7837   .debug_str:00000000000003fc .LASF250
     /tmp/ccASzBvH.s:7254   .debug_loc:00000000000009c1 .LLST24
     /tmp/ccASzBvH.s:7863   .debug_str:000000000000048f .LASF251
     /tmp/ccASzBvH.s:7271   .debug_loc:0000000000000a0d .LLST25
     /tmp/ccASzBvH.s:864    .text:00000000000004d0 .LBB7
     /tmp/ccASzBvH.s:900    .text:0000000000000500 .LBE7
     /tmp/ccASzBvH.s:7282   .debug_loc:0000000000000a43 .LLST26
     /tmp/ccASzBvH.s:877    .text:00000000000004e4 .LBB8
     /tmp/ccASzBvH.s:899    .text:0000000000000500 .LBE8
     /tmp/ccASzBvH.s:8067   .debug_str:0000000000000b24 .LASF252
     /tmp/ccASzBvH.s:7294   .debug_loc:0000000000000a7a .LLST27
     /tmp/ccASzBvH.s:7839   .debug_str:0000000000000405 .LASF253
     /tmp/ccASzBvH.s:7305   .debug_loc:0000000000000ab0 .LLST28
     /tmp/ccASzBvH.s:7917   .debug_str:0000000000000653 .LASF254
     /tmp/ccASzBvH.s:7745   .debug_str:00000000000000d0 .LASF255
     /tmp/ccASzBvH.s:722    .text:000000000000040c .LFB16
     /tmp/ccASzBvH.s:822    .text:00000000000004a8 .LFE16
     /tmp/ccASzBvH.s:7316   .debug_loc:0000000000000ae6 .LLST20
     /tmp/ccASzBvH.s:8051   .debug_str:0000000000000ab0 .LASF256
     /tmp/ccASzBvH.s:7805   .debug_str:0000000000000305 .LASF257
     /tmp/ccASzBvH.s:7334   .debug_loc:0000000000000b32 .LLST21
     /tmp/ccASzBvH.s:787    .text:0000000000000474 .LBB6
     /tmp/ccASzBvH.s:808    .text:0000000000000494 .LBE6
     /tmp/ccASzBvH.s:7359   .debug_loc:0000000000000b86 .LLST22
     /tmp/ccASzBvH.s:744    .text:000000000000043c .LVL63
     /tmp/ccASzBvH.s:8079   .debug_str:0000000000000b7f .LASF258
     /tmp/ccASzBvH.s:8005   .debug_str:0000000000000911 .LASF259
     /tmp/ccASzBvH.s:668    .text:00000000000003b4 .LFB15
     /tmp/ccASzBvH.s:716    .text:000000000000040c .LFE15
     /tmp/ccASzBvH.s:7371   .debug_loc:0000000000000bbd .LLST18
     /tmp/ccASzBvH.s:7389   .debug_loc:0000000000000c09 .LLST19
     /tmp/ccASzBvH.s:693    .text:00000000000003e4 .LVL57
     /tmp/ccASzBvH.s:699    .text:00000000000003f4 .LVL58
     /tmp/ccASzBvH.s:7845   .debug_str:000000000000041c .LASF260
     /tmp/ccASzBvH.s:8227   .debug_str:0000000000001149 .LASF261
     /tmp/ccASzBvH.s:614    .text:000000000000035c .LFB14
     /tmp/ccASzBvH.s:662    .text:00000000000003b4 .LFE14
     /tmp/ccASzBvH.s:7407   .debug_loc:0000000000000c55 .LLST16
     /tmp/ccASzBvH.s:7425   .debug_loc:0000000000000ca1 .LLST17
     /tmp/ccASzBvH.s:639    .text:000000000000038c .LVL50
     /tmp/ccASzBvH.s:645    .text:000000000000039c .LVL51
     /tmp/ccASzBvH.s:7941   .debug_str:0000000000000700 .LASF262
     /tmp/ccASzBvH.s:7789   .debug_str:0000000000000274 .LASF263
     /tmp/ccASzBvH.s:558    .text:0000000000000304 .LFB13
     /tmp/ccASzBvH.s:608    .text:000000000000035c .LFE13
     /tmp/ccASzBvH.s:7443   .debug_loc:0000000000000ced .LLST14
     /tmp/ccASzBvH.s:7461   .debug_loc:0000000000000d39 .LLST15
     /tmp/ccASzBvH.s:585    .text:0000000000000334 .LVL43
     /tmp/ccASzBvH.s:591    .text:0000000000000344 .LVL44
     /tmp/ccASzBvH.s:7767   .debug_str:00000000000001c1 .LASF264
     /tmp/ccASzBvH.s:7725   .debug_str:000000000000001b .LASF265
GAS LISTING /tmp/ccASzBvH.s 			page 83


     /tmp/ccASzBvH.s:502    .text:00000000000002ac .LFB12
     /tmp/ccASzBvH.s:552    .text:0000000000000304 .LFE12
     /tmp/ccASzBvH.s:7468   .debug_loc:0000000000000d5c .LLST12
     /tmp/ccASzBvH.s:7486   .debug_loc:0000000000000da8 .LLST13
     /tmp/ccASzBvH.s:529    .text:00000000000002dc .LVL36
     /tmp/ccASzBvH.s:535    .text:00000000000002ec .LVL37
     /tmp/ccASzBvH.s:7739   .debug_str:00000000000000ab .LASF266
     /tmp/ccASzBvH.s:8255   .debug_str:000000000000123d .LASF267
     /tmp/ccASzBvH.s:431    .text:0000000000000250 .LFB11
     /tmp/ccASzBvH.s:496    .text:00000000000002ac .LFE11
     /tmp/ccASzBvH.s:7937   .debug_str:00000000000006e9 .LASF268
     /tmp/ccASzBvH.s:7927   .debug_str:00000000000006a5 .LASF269
     /tmp/ccASzBvH.s:8201   .debug_str:0000000000001034 .LASF270
     /tmp/ccASzBvH.s:390    .text:0000000000000220 .LFB10
     /tmp/ccASzBvH.s:425    .text:0000000000000250 .LFE10
     /tmp/ccASzBvH.s:7813   .debug_str:000000000000032e .LASF271
     /tmp/ccASzBvH.s:7901   .debug_str:000000000000059b .LASF272
     /tmp/ccASzBvH.s:361    .text:0000000000000200 .LFB9
     /tmp/ccASzBvH.s:384    .text:0000000000000220 .LFE9
     /tmp/ccASzBvH.s:7493   .debug_loc:0000000000000dcb .LLST11
     /tmp/ccASzBvH.s:8293   .debug_str:000000000000136f .LASF273
     /tmp/ccASzBvH.s:7815   .debug_str:0000000000000334 .LASF274
     /tmp/ccASzBvH.s:329    .text:00000000000001d8 .LFB8
     /tmp/ccASzBvH.s:355    .text:0000000000000200 .LFE8
     /tmp/ccASzBvH.s:7507   .debug_loc:0000000000000e04 .LLST10
     /tmp/ccASzBvH.s:7997   .debug_str:00000000000008ce .LASF275
     /tmp/ccASzBvH.s:8217   .debug_str:00000000000010e1 .LASF276
     /tmp/ccASzBvH.s:170    .text:00000000000000cc .LFB7
     /tmp/ccASzBvH.s:323    .text:00000000000001d8 .LFE7
     /tmp/ccASzBvH.s:7521   .debug_loc:0000000000000e3d .LLST5
     /tmp/ccASzBvH.s:7539   .debug_loc:0000000000000e89 .LLST6
     /tmp/ccASzBvH.s:7781   .debug_str:000000000000022b .LASF277
     /tmp/ccASzBvH.s:7562   .debug_loc:0000000000000ee9 .LLST7
     /tmp/ccASzBvH.s:193    .text:00000000000000ec .LBB3
     /tmp/ccASzBvH.s:248    .text:000000000000013c .LBE3
     /tmp/ccASzBvH.s:7587   .debug_loc:0000000000000f5a .LLST8
     /tmp/ccASzBvH.s:8253   .debug_str:0000000000001238 .LASF278
     /tmp/ccASzBvH.s:7599   .debug_loc:0000000000000f91 .LLST9
     /tmp/ccASzBvH.s:262    .text:0000000000000158 .LVL21
     /tmp/ccASzBvH.s:269    .text:000000000000016c .LVL22
     /tmp/ccASzBvH.s:274    .text:000000000000017c .LVL23
     /tmp/ccASzBvH.s:8003   .debug_str:00000000000008fd .LASF279
     /tmp/ccASzBvH.s:7905   .debug_str:00000000000005ba .LASF280
     /tmp/ccASzBvH.s:64     .text:0000000000000034 .LFB6
     /tmp/ccASzBvH.s:156    .text:00000000000000cc .LFE6
     /tmp/ccASzBvH.s:7606   .debug_loc:0000000000000fb4 .LLST2
     /tmp/ccASzBvH.s:8211   .debug_str:000000000000108a .LASF281
     /tmp/ccASzBvH.s:7629   .debug_loc:0000000000001016 .LLST3
     /tmp/ccASzBvH.s:90     .text:0000000000000058 .LBB2
     /tmp/ccASzBvH.s:108    .text:0000000000000078 .LBE2
     /tmp/ccASzBvH.s:7640   .debug_loc:000000000000104c .LLST4
     /tmp/ccASzBvH.s:114    .text:000000000000008c .LVL8
     /tmp/ccASzBvH.s:8241   .debug_str:00000000000011df .LASF282
     /tmp/ccASzBvH.s:7833   .debug_str:00000000000003dd .LASF283
     /tmp/ccASzBvH.s:10     .text:0000000000000000 .LFB5
     /tmp/ccASzBvH.s:53     .text:0000000000000034 .LFE5
     /tmp/ccASzBvH.s:7652   .debug_loc:0000000000001083 .LLST0
GAS LISTING /tmp/ccASzBvH.s 			page 84


     /tmp/ccASzBvH.s:7663   .debug_loc:00000000000010b9 .LLST1
     /tmp/ccASzBvH.s:8069   .debug_str:0000000000000b2c .LASF284
     /tmp/ccASzBvH.s:7831   .debug_str:00000000000003d2 .LASF286
     /tmp/ccASzBvH.s:8083   .debug_str:0000000000000bb4 .LASF285
     /tmp/ccASzBvH.s:7765   .debug_str:00000000000001b5 .LASF287
     /tmp/ccASzBvH.s:7751   .debug_str:000000000000011e .LASF288
     /tmp/ccASzBvH.s:7795   .debug_str:00000000000002cd .LASF289
     /tmp/ccASzBvH.s:8213   .debug_str:000000000000109d .LASF290
     /tmp/ccASzBvH.s:8143   .debug_str:0000000000000dc7 .LASF291
     /tmp/ccASzBvH.s:2312   .text:0000000000000e78 .LVL243
     /tmp/ccASzBvH.s:2327   .text:0000000000000e94 .LVL244
     /tmp/ccASzBvH.s:2355   .text:0000000000000ed8 .LVL249
     /tmp/ccASzBvH.s:2238   .text:0000000000000e0c .LVL236
     /tmp/ccASzBvH.s:2260   .text:0000000000000e34 .LVL237
     /tmp/ccASzBvH.s:2283   .text:0000000000000e5c .LVL240
     /tmp/ccASzBvH.s:2299   .text:0000000000000e74 .LVL242
     /tmp/ccASzBvH.s:2295   .text:0000000000000e6c .LVL241
     /tmp/ccASzBvH.s:2269   .text:0000000000000e3c .LVL238
     /tmp/ccASzBvH.s:2158   .text:0000000000000d8c .LVL227
     /tmp/ccASzBvH.s:2181   .text:0000000000000db0 .LVL229
     /tmp/ccASzBvH.s:2224   .text:0000000000000e04 .LVL235
     /tmp/ccASzBvH.s:2173   .text:0000000000000da8 .LVL228
     /tmp/ccASzBvH.s:2194   .text:0000000000000dd0 .LVL230
     /tmp/ccASzBvH.s:2221   .text:0000000000000e00 .LVL234
     /tmp/ccASzBvH.s:2080   .text:0000000000000d00 .LVL218
     /tmp/ccASzBvH.s:2109   .text:0000000000000d3c .LVL221
     /tmp/ccASzBvH.s:2114   .text:0000000000000d40 .LVL222
     /tmp/ccASzBvH.s:2134   .text:0000000000000d70 .LVL224
     /tmp/ccASzBvH.s:2140   .text:0000000000000d74 .LVL225
     /tmp/ccASzBvH.s:2100   .text:0000000000000d24 .LVL220
     /tmp/ccASzBvH.s:1748   .text:0000000000000a4c .LVL174
     /tmp/ccASzBvH.s:1765   .text:0000000000000a70 .LVL175
     /tmp/ccASzBvH.s:1908   .text:0000000000000bb0 .LVL200
     /tmp/ccASzBvH.s:1830   .text:0000000000000b30 .LVL188
     /tmp/ccASzBvH.s:1905   .text:0000000000000bac .LVL199
     /tmp/ccASzBvH.s:1646   .text:00000000000009b4 .LVL164
     /tmp/ccASzBvH.s:1708   .text:0000000000000a44 .LVL173
     /tmp/ccASzBvH.s:1665   .text:00000000000009dc .LVL166
     /tmp/ccASzBvH.s:1705   .text:0000000000000a40 .LVL172
     /tmp/ccASzBvH.s:1384   .text:0000000000000824 .LVL130
     /tmp/ccASzBvH.s:1402   .text:0000000000000844 .LVL131
     /tmp/ccASzBvH.s:1469   .text:00000000000008a8 .LVL143
     /tmp/ccASzBvH.s:1475   .text:00000000000008b4 .LVL144
     /tmp/ccASzBvH.s:1446   .text:0000000000000888 .LVL139
     /tmp/ccASzBvH.s:1450   .text:000000000000088c .LVL140
     /tmp/ccASzBvH.s:1455   .text:0000000000000898 .LVL142
     /tmp/ccASzBvH.s:1488   .text:00000000000008c4 .LVL146
     /tmp/ccASzBvH.s:1419   .text:000000000000085c .LVL133
     /tmp/ccASzBvH.s:1423   .text:0000000000000860 .LVL134
     /tmp/ccASzBvH.s:1436   .text:000000000000087c .LVL137
     /tmp/ccASzBvH.s:1509   .text:00000000000008e8 .LVL149
     /tmp/ccASzBvH.s:1513   .text:00000000000008ec .LVL150
     /tmp/ccASzBvH.s:1539   .text:0000000000000908 .LVL153
     /tmp/ccASzBvH.s:1565   .text:0000000000000944 .LVL154
     /tmp/ccASzBvH.s:1618   .text:00000000000009a4 .LVL161
     /tmp/ccASzBvH.s:1615   .text:00000000000009a0 .LVL160
     /tmp/ccASzBvH.s:1621   .text:00000000000009a8 .LVL162
GAS LISTING /tmp/ccASzBvH.s 			page 85


     /tmp/ccASzBvH.s:1624   .text:00000000000009ac .LVL163
     /tmp/ccASzBvH.s:1570   .text:0000000000000954 .LVL156
     /tmp/ccASzBvH.s:1612   .text:000000000000099c .LVL159
     /tmp/ccASzBvH.s:1346   .text:00000000000007ec .LVL127
     /tmp/ccASzBvH.s:2033   .text:0000000000000cbc .LVL214
     /tmp/ccASzBvH.s:2066   .text:0000000000000cf8 .LVL217
     /tmp/ccASzBvH.s:1223   .text:0000000000000700 .LVL115
     /tmp/ccASzBvH.s:1257   .text:0000000000000740 .LVL117
     /tmp/ccASzBvH.s:1274   .text:0000000000000758 .LVL119
     /tmp/ccASzBvH.s:1281   .text:0000000000000764 .LVL120
     /tmp/ccASzBvH.s:1248   .text:0000000000000730 .LVL116
     /tmp/ccASzBvH.s:1268   .text:000000000000074c .LVL118
     /tmp/ccASzBvH.s:1087   .text:00000000000005dc .LVL97
     /tmp/ccASzBvH.s:1104   .text:0000000000000600 .LVL98
     /tmp/ccASzBvH.s:1204   .text:00000000000006f8 .LVL114
     /tmp/ccASzBvH.s:1162   .text:00000000000006a8 .LVL109
     /tmp/ccASzBvH.s:1201   .text:00000000000006f4 .LVL113
     /tmp/ccASzBvH.s:1026   .text:0000000000000590 .LVL94
     /tmp/ccASzBvH.s:1042   .text:00000000000005b0 .LVL96
     /tmp/ccASzBvH.s:1038   .text:00000000000005a8 .LVL95
     /tmp/ccASzBvH.s:921    .text:0000000000000510 .LVL84
     /tmp/ccASzBvH.s:932    .text:0000000000000524 .LVL85
     /tmp/ccASzBvH.s:934    .text:0000000000000528 .LVL86
     /tmp/ccASzBvH.s:940    .text:000000000000052c .LVL87
     /tmp/ccASzBvH.s:960    .text:0000000000000548 .LVL88
     /tmp/ccASzBvH.s:965    .text:0000000000000550 .LVL89
     /tmp/ccASzBvH.s:983    .text:0000000000000564 .LVL91
     /tmp/ccASzBvH.s:989    .text:0000000000000568 .LVL92
     /tmp/ccASzBvH.s:1009   .text:0000000000000584 .LVL93
     /tmp/ccASzBvH.s:831    .text:00000000000004a8 .LVL71
     /tmp/ccASzBvH.s:904    .text:0000000000000504 .LVL83
     /tmp/ccASzBvH.s:839    .text:00000000000004b4 .LVL72
     /tmp/ccASzBvH.s:842    .text:00000000000004b8 .LVL73
     /tmp/ccASzBvH.s:895    .text:00000000000004fc .LVL81
     /tmp/ccASzBvH.s:897    .text:0000000000000500 .LVL82
     /tmp/ccASzBvH.s:862    .text:00000000000004d0 .LVL75
     /tmp/ccASzBvH.s:892    .text:00000000000004f8 .LVL80
     /tmp/ccASzBvH.s:868    .text:00000000000004d8 .LVL76
     /tmp/ccASzBvH.s:872    .text:00000000000004dc .LVL77
     /tmp/ccASzBvH.s:881    .text:00000000000004e8 .LVL78
     /tmp/ccASzBvH.s:887    .text:00000000000004f0 .LVL79
     /tmp/ccASzBvH.s:725    .text:000000000000040c .LVL61
     /tmp/ccASzBvH.s:742    .text:0000000000000434 .LVL62
     /tmp/ccASzBvH.s:817    .text:00000000000004a0 .LVL70
     /tmp/ccASzBvH.s:773    .text:0000000000000464 .LVL64
     /tmp/ccASzBvH.s:777    .text:0000000000000468 .LVL65
     /tmp/ccASzBvH.s:782    .text:0000000000000470 .LVL66
     /tmp/ccASzBvH.s:785    .text:0000000000000474 .LVL67
     /tmp/ccASzBvH.s:790    .text:0000000000000478 .LVL68
     /tmp/ccASzBvH.s:671    .text:00000000000003b4 .LVL54
     /tmp/ccASzBvH.s:691    .text:00000000000003dc .LVL56
     /tmp/ccASzBvH.s:711    .text:0000000000000404 .LVL60
     /tmp/ccASzBvH.s:689    .text:00000000000003d8 .LVL55
     /tmp/ccASzBvH.s:708    .text:0000000000000400 .LVL59
     /tmp/ccASzBvH.s:617    .text:000000000000035c .LVL47
     /tmp/ccASzBvH.s:637    .text:0000000000000384 .LVL49
     /tmp/ccASzBvH.s:657    .text:00000000000003ac .LVL53
GAS LISTING /tmp/ccASzBvH.s 			page 86


     /tmp/ccASzBvH.s:635    .text:0000000000000380 .LVL48
     /tmp/ccASzBvH.s:654    .text:00000000000003a8 .LVL52
     /tmp/ccASzBvH.s:561    .text:0000000000000304 .LVL40
     /tmp/ccASzBvH.s:583    .text:000000000000032c .LVL42
     /tmp/ccASzBvH.s:600    .text:0000000000000350 .LVL45
     /tmp/ccASzBvH.s:578    .text:0000000000000324 .LVL41
     /tmp/ccASzBvH.s:603    .text:0000000000000354 .LVL46
     /tmp/ccASzBvH.s:505    .text:00000000000002ac .LVL33
     /tmp/ccASzBvH.s:527    .text:00000000000002d4 .LVL35
     /tmp/ccASzBvH.s:544    .text:00000000000002f8 .LVL38
     /tmp/ccASzBvH.s:522    .text:00000000000002cc .LVL34
     /tmp/ccASzBvH.s:547    .text:00000000000002fc .LVL39
     /tmp/ccASzBvH.s:364    .text:0000000000000200 .LVL29
     /tmp/ccASzBvH.s:374    .text:0000000000000210 .LVL30
     /tmp/ccASzBvH.s:332    .text:00000000000001d8 .LVL27
     /tmp/ccASzBvH.s:344    .text:00000000000001ec .LVL28
     /tmp/ccASzBvH.s:173    .text:00000000000000cc .LVL11
     /tmp/ccASzBvH.s:260    .text:0000000000000150 .LVL20
     /tmp/ccASzBvH.s:315    .text:00000000000001cc .LVL25
     /tmp/ccASzBvH.s:190    .text:00000000000000ec .LVL12
     /tmp/ccASzBvH.s:242    .text:0000000000000138 .LVL17
     /tmp/ccASzBvH.s:245    .text:000000000000013c .LVL18
     /tmp/ccASzBvH.s:253    .text:0000000000000144 .LVL19
     /tmp/ccASzBvH.s:312    .text:00000000000001c8 .LVL24
     /tmp/ccASzBvH.s:238    .text:0000000000000134 .LVL16
     /tmp/ccASzBvH.s:318    .text:00000000000001d0 .LVL26
     /tmp/ccASzBvH.s:196    .text:00000000000000f0 .LVL13
     /tmp/ccASzBvH.s:210    .text:0000000000000104 .LVL14
     /tmp/ccASzBvH.s:67     .text:0000000000000034 .LVL3
     /tmp/ccASzBvH.s:94     .text:0000000000000060 .LVL6
     /tmp/ccASzBvH.s:148    .text:00000000000000c0 .LVL9
     /tmp/ccASzBvH.s:151    .text:00000000000000c4 .LVL10
     /tmp/ccASzBvH.s:84     .text:0000000000000054 .LVL4
     /tmp/ccASzBvH.s:89     .text:0000000000000058 .LVL5
     /tmp/ccASzBvH.s:14     .text:0000000000000000 .LVL0
     /tmp/ccASzBvH.s:34     .text:000000000000001c .LVL1
     /tmp/ccASzBvH.s:38     .text:0000000000000020 .LVL2
     /tmp/ccASzBvH.s:2378   .debug_info:0000000000000000 .Ldebug_info0
     /tmp/ccASzBvH.s:203    .text:00000000000000f8 .LBB4
     /tmp/ccASzBvH.s:221    .text:0000000000000118 .LBE4
     /tmp/ccASzBvH.s:227    .text:0000000000000120 .LBB5
     /tmp/ccASzBvH.s:247    .text:000000000000013c .LBE5
     /tmp/ccASzBvH.s:936    .text:0000000000000528 .LBB9
     /tmp/ccASzBvH.s:942    .text:000000000000052c .LBE9
     /tmp/ccASzBvH.s:946    .text:0000000000000530 .LBB10
     /tmp/ccASzBvH.s:967    .text:0000000000000550 .LBE10
     /tmp/ccASzBvH.s:985    .text:0000000000000564 .LBB11
     /tmp/ccASzBvH.s:991    .text:0000000000000568 .LBE11
     /tmp/ccASzBvH.s:995    .text:000000000000056c .LBB12
     /tmp/ccASzBvH.s:1015   .text:0000000000000590 .LBE12
     /tmp/ccASzBvH.s:1440   .text:000000000000087c .LBB18
     /tmp/ccASzBvH.s:1457   .text:0000000000000898 .LBE18
     /tmp/ccASzBvH.s:1479   .text:00000000000008b4 .LBB19
     /tmp/ccASzBvH.s:1490   .text:00000000000008c4 .LBE19
     /tmp/ccASzBvH.s:2175   .text:0000000000000da8 .LBB24
     /tmp/ccASzBvH.s:2178   .text:0000000000000dac .LBE24
     /tmp/ccASzBvH.s:2183   .text:0000000000000db0 .LBB25
GAS LISTING /tmp/ccASzBvH.s 			page 87


     /tmp/ccASzBvH.s:2204   .text:0000000000000de4 .LBE25

UNDEFINED SYMBOLS
_ZN8KConsole15trapPrintStringEPKc
_ZN8KConsole12trapPrintIntEmii
_Z11buddy_allocP14buddyAllocatorm
_Z10buddy_initPvm
_Z11getDeg2Ceilm
_Z10buddy_freeP14buddyAllocatorPvm
