GAS LISTING /tmp/cc6KI5Hb.s 			page 1


   1              		.file	"slabAllocator.cpp"
   2              		.option pic
   3              		.option norelax
   4              		.text
   5              	.Ltext0:
   6              		.align	2
   7              		.globl	_Z6strcpyPKcPc
   9              	_Z6strcpyPKcPc:
  10              	.LFB5:
  11              		.file 1 "src/slabAllocator.cpp"
   1:src/slabAllocator.cpp **** #include "../h/slabAllocator.hpp"
   2:src/slabAllocator.cpp **** #include "../h/buddyAllocator.hpp"
   3:src/slabAllocator.cpp **** #include "../h/KConsole.hpp"
   4:src/slabAllocator.cpp **** 
   5:src/slabAllocator.cpp **** //TODO
   6:src/slabAllocator.cpp **** //check values of the constants
   7:src/slabAllocator.cpp **** #define SLAB_ALLOCATED_LOOKUP 32
   8:src/slabAllocator.cpp **** #define CACHE_NAME_SIZE 64
   9:src/slabAllocator.cpp **** #define CACHE_BUFFER_SMALL 5
  10:src/slabAllocator.cpp **** #define CACHE_BUFFER_BIG 17
  11:src/slabAllocator.cpp **** #define CACHE_BUFFER_SIZE CACHE_BUFFER_BIG - CACHE_BUFFER_SMALL + 1
  12:src/slabAllocator.cpp **** #define CACHE_OF_CACHES_SLAB_SIZE 2
  13:src/slabAllocator.cpp **** 
  14:src/slabAllocator.cpp **** typedef struct slab_s
  15:src/slabAllocator.cpp **** {
  16:src/slabAllocator.cpp ****     slab_s* prev;
  17:src/slabAllocator.cpp ****     slab_s* next;
  18:src/slabAllocator.cpp ****     kmem_cache_t* owner;
  19:src/slabAllocator.cpp ****     size_t numOfObjects;
  20:src/slabAllocator.cpp ****     size_t numOfAllocatedObjects;
  21:src/slabAllocator.cpp ****     unsigned char allocated[SLAB_ALLOCATED_LOOKUP];
  22:src/slabAllocator.cpp **** }slab_t;
  23:src/slabAllocator.cpp **** 
  24:src/slabAllocator.cpp **** typedef struct kmem_cache_s
  25:src/slabAllocator.cpp **** {
  26:src/slabAllocator.cpp ****     char cacheName[CACHE_NAME_SIZE];
  27:src/slabAllocator.cpp ****     slab_t* slabs_empty;
  28:src/slabAllocator.cpp ****     slab_t* slabs_full;
  29:src/slabAllocator.cpp ****     slab_t* slabs_partial;
  30:src/slabAllocator.cpp ****     size_t slab_size;
  31:src/slabAllocator.cpp ****     size_t obj_size;
  32:src/slabAllocator.cpp ****     void (*ctor)(void*);
  33:src/slabAllocator.cpp ****     void (*dtor)(void*);
  34:src/slabAllocator.cpp **** }kmem_cache_t;
  35:src/slabAllocator.cpp **** 
  36:src/slabAllocator.cpp **** typedef struct slab_allocator_s
  37:src/slabAllocator.cpp **** {
  38:src/slabAllocator.cpp ****     buddyAllocator* buddy;
  39:src/slabAllocator.cpp ****     kmem_cache_t* cachesBuffers[CACHE_BUFFER_SIZE];
  40:src/slabAllocator.cpp ****     kmem_cache_t cacheOfCaches;
  41:src/slabAllocator.cpp **** }slab_allocator_t;
  42:src/slabAllocator.cpp **** 
  43:src/slabAllocator.cpp **** //singleton slab allocator
  44:src/slabAllocator.cpp **** static slab_allocator_t* slabAllocator = nullptr;
  45:src/slabAllocator.cpp **** 
  46:src/slabAllocator.cpp **** //helping functions
  47:src/slabAllocator.cpp **** void strcpy(const char* src, char* dst)
GAS LISTING /tmp/cc6KI5Hb.s 			page 2


  48:src/slabAllocator.cpp **** {
  12              		.loc 1 48 1
  13              		.cfi_startproc
  14              	.LVL0:
  15 0000 130101FF 		addi	sp,sp,-16
  16              		.cfi_def_cfa_offset 16
  17 0004 23348100 		sd	s0,8(sp)
  18              		.cfi_offset 8, -8
  19 0008 13040101 		addi	s0,sp,16
  20              		.cfi_def_cfa 8, 0
  21              	.L3:
  49:src/slabAllocator.cpp ****     while(*src != '\0')
  22              		.loc 1 49 5
  23              		.loc 1 49 16
  24              		.loc 1 49 11 is_stmt 0
  25 000c 83470500 		lbu	a5,0(a0)
  26              		.loc 1 49 16
  27 0010 638A0700 		beqz	a5,.L2
  50:src/slabAllocator.cpp ****     {
  51:src/slabAllocator.cpp ****         *dst = *src;
  28              		.loc 1 51 9 is_stmt 1
  29              		.loc 1 51 14 is_stmt 0
  30 0014 2380F500 		sb	a5,0(a1)
  52:src/slabAllocator.cpp ****         src++; dst++;
  31              		.loc 1 52 9 is_stmt 1
  32              		.loc 1 52 12 is_stmt 0
  33 0018 13051500 		addi	a0,a0,1
  34              	.LVL1:
  35              		.loc 1 52 16 is_stmt 1
  36              		.loc 1 52 19 is_stmt 0
  37 001c 93851500 		addi	a1,a1,1
  38              	.LVL2:
  49:src/slabAllocator.cpp ****     while(*src != '\0')
  39              		.loc 1 49 5
  40 0020 6FF0DFFE 		j	.L3
  41              	.L2:
  53:src/slabAllocator.cpp ****     }
  54:src/slabAllocator.cpp ****     *dst = *src;
  42              		.loc 1 54 5 is_stmt 1
  43              		.loc 1 54 10 is_stmt 0
  44 0024 2380F500 		sb	a5,0(a1)
  55:src/slabAllocator.cpp **** }
  45              		.loc 1 55 1
  46 0028 03348100 		ld	s0,8(sp)
  47              		.cfi_restore 8
  48              		.cfi_def_cfa 2, 16
  49 002c 13010101 		addi	sp,sp,16
  50              		.cfi_def_cfa_offset 0
  51 0030 67800000 		jr	ra
  52              		.cfi_endproc
  53              	.LFE5:
  55              		.section	.rodata.str1.8,"aMS",@progbits,1
  56              		.align	3
  57              	.LC0:
  58 0000 43616368 		.string	"Cache of caches"
  58      65206F66 
  58      20636163 
GAS LISTING /tmp/cc6KI5Hb.s 			page 3


  58      68657300 
  59              		.text
  60              		.align	2
  61              		.globl	_Z19slab_allocator_initP14buddyAllocator
  63              	_Z19slab_allocator_initP14buddyAllocator:
  64              	.LFB6:
  56:src/slabAllocator.cpp **** 
  57:src/slabAllocator.cpp **** slab_allocator_t* slab_allocator_init(buddyAllocator *buddy)
  58:src/slabAllocator.cpp **** {
  65              		.loc 1 58 1 is_stmt 1
  66              		.cfi_startproc
  67              	.LVL3:
  68 0034 130101FE 		addi	sp,sp,-32
  69              		.cfi_def_cfa_offset 32
  70 0038 233C1100 		sd	ra,24(sp)
  71 003c 23388100 		sd	s0,16(sp)
  72 0040 23349100 		sd	s1,8(sp)
  73 0044 23302101 		sd	s2,0(sp)
  74              		.cfi_offset 1, -8
  75              		.cfi_offset 8, -16
  76              		.cfi_offset 9, -24
  77              		.cfi_offset 18, -32
  78 0048 13040102 		addi	s0,sp,32
  79              		.cfi_def_cfa 8, 0
  80 004c 93040500 		mv	s1,a0
  59:src/slabAllocator.cpp ****     slab_allocator_t* slabAllocatorLocal = (slab_allocator_t*)(buddy + 1);
  81              		.loc 1 59 5
  82              		.loc 1 59 23 is_stmt 0
  83 0050 1309050E 		addi	s2,a0,224
  84              	.LVL4:
  60:src/slabAllocator.cpp **** 
  61:src/slabAllocator.cpp ****     slabAllocatorLocal->buddy = buddy;
  85              		.loc 1 61 5 is_stmt 1
  86              		.loc 1 61 31 is_stmt 0
  87 0054 2330A50E 		sd	a0,224(a0)
  62:src/slabAllocator.cpp ****     for(size_t i = 0; i < CACHE_BUFFER_SIZE;i++)
  88              		.loc 1 62 5 is_stmt 1
  89              	.LVL5:
  90              	.LBB2:
  91              		.loc 1 62 16 is_stmt 0
  92 0058 93070000 		li	a5,0
  93 005c 6F004001 		j	.L7
  94              	.LVL6:
  95              	.L9:
  63:src/slabAllocator.cpp ****         slabAllocatorLocal->cachesBuffers[i] = nullptr;
  96              		.loc 1 63 9 is_stmt 1 discriminator 2
  97              		.loc 1 63 46 is_stmt 0 discriminator 2
  98 0060 13973700 		slli	a4,a5,3
  99 0064 3387E400 		add	a4,s1,a4
 100 0068 2334070E 		sd	zero,232(a4)
  62:src/slabAllocator.cpp ****     for(size_t i = 0; i < CACHE_BUFFER_SIZE;i++)
 101              		.loc 1 62 5 is_stmt 1 discriminator 2
 102 006c 93871700 		addi	a5,a5,1
 103              	.LVL7:
 104              	.L7:
  62:src/slabAllocator.cpp ****     for(size_t i = 0; i < CACHE_BUFFER_SIZE;i++)
 105              		.loc 1 62 25 discriminator 3
GAS LISTING /tmp/cc6KI5Hb.s 			page 4


 106 0070 1307C000 		li	a4,12
 107 0074 E376F7FE 		bleu	a5,a4,.L9
 108              	.LBE2:
  64:src/slabAllocator.cpp **** 
  65:src/slabAllocator.cpp ****     strcpy("Cache of caches", slabAllocatorLocal->cacheOfCaches.cacheName);
 109              		.loc 1 65 5
 110              		.loc 1 65 11 is_stmt 0
 111 0078 93850415 		addi	a1,s1,336
 112 007c 17050000 		lla	a0,.LC0
 112      13050500 
 113 0084 97000000 		call	_Z6strcpyPKcPc
 113      E7800000 
 114              	.LVL8:
  66:src/slabAllocator.cpp ****     slabAllocatorLocal->cacheOfCaches.ctor = nullptr;
 115              		.loc 1 66 5 is_stmt 1
 116              		.loc 1 66 44 is_stmt 0
 117 008c 23BC041A 		sd	zero,440(s1)
  67:src/slabAllocator.cpp ****     slabAllocatorLocal->cacheOfCaches.dtor = nullptr;
 118              		.loc 1 67 5 is_stmt 1
 119              		.loc 1 67 44 is_stmt 0
 120 0090 23B0041C 		sd	zero,448(s1)
  68:src/slabAllocator.cpp ****     slabAllocatorLocal->cacheOfCaches.slabs_empty = nullptr;
 121              		.loc 1 68 5 is_stmt 1
 122              		.loc 1 68 51 is_stmt 0
 123 0094 23B80418 		sd	zero,400(s1)
  69:src/slabAllocator.cpp ****     slabAllocatorLocal->cacheOfCaches.slabs_full = nullptr;
 124              		.loc 1 69 5 is_stmt 1
 125              		.loc 1 69 50 is_stmt 0
 126 0098 23BC0418 		sd	zero,408(s1)
  70:src/slabAllocator.cpp ****     slabAllocatorLocal->cacheOfCaches.slabs_partial = nullptr;
 127              		.loc 1 70 5 is_stmt 1
 128              		.loc 1 70 53 is_stmt 0
 129 009c 23B0041A 		sd	zero,416(s1)
  71:src/slabAllocator.cpp ****     slabAllocatorLocal->cacheOfCaches.slab_size = CACHE_OF_CACHES_SLAB_SIZE;
 130              		.loc 1 71 5 is_stmt 1
 131              		.loc 1 71 49 is_stmt 0
 132 00a0 93072000 		li	a5,2
 133 00a4 23B4F41A 		sd	a5,424(s1)
  72:src/slabAllocator.cpp ****     slabAllocatorLocal->cacheOfCaches.obj_size = sizeof(kmem_cache_t);
 134              		.loc 1 72 5 is_stmt 1
 135              		.loc 1 72 48 is_stmt 0
 136 00a8 93078007 		li	a5,120
 137 00ac 23B8F41A 		sd	a5,432(s1)
  73:src/slabAllocator.cpp ****     return slabAllocatorLocal;
 138              		.loc 1 73 5 is_stmt 1
  74:src/slabAllocator.cpp **** }
 139              		.loc 1 74 1 is_stmt 0
 140 00b0 13050900 		mv	a0,s2
 141 00b4 83308101 		ld	ra,24(sp)
 142              		.cfi_restore 1
 143 00b8 03340101 		ld	s0,16(sp)
 144              		.cfi_restore 8
 145              		.cfi_def_cfa 2, 32
 146 00bc 83348100 		ld	s1,8(sp)
 147              		.cfi_restore 9
 148              	.LVL9:
 149 00c0 03390100 		ld	s2,0(sp)
GAS LISTING /tmp/cc6KI5Hb.s 			page 5


 150              		.cfi_restore 18
 151              	.LVL10:
 152 00c4 13010102 		addi	sp,sp,32
 153              		.cfi_def_cfa_offset 0
 154 00c8 67800000 		jr	ra
 155              		.cfi_endproc
 156              	.LFE6:
 158              		.align	2
 159              		.globl	_Z14allocateObjectP6slab_s
 161              	_Z14allocateObjectP6slab_s:
 162              	.LFB7:
  75:src/slabAllocator.cpp **** 
  76:src/slabAllocator.cpp **** void* allocateObject(slab_t* slab)
  77:src/slabAllocator.cpp **** {
 163              		.loc 1 77 1 is_stmt 1
 164              		.cfi_startproc
 165              	.LVL11:
 166 00cc 130101FF 		addi	sp,sp,-16
 167              		.cfi_def_cfa_offset 16
 168 00d0 23348100 		sd	s0,8(sp)
 169              		.cfi_offset 8, -8
 170 00d4 13040101 		addi	s0,sp,16
 171              		.cfi_def_cfa 8, 0
 172 00d8 93050500 		mv	a1,a0
  78:src/slabAllocator.cpp ****     int index = -1;
 173              		.loc 1 78 5
 174              	.LVL12:
  79:src/slabAllocator.cpp ****     void* addr = nullptr;
 175              		.loc 1 79 5
  80:src/slabAllocator.cpp ****     for(size_t i = 0;i < slab->numOfObjects;i++)
 176              		.loc 1 80 5
 177              	.LBB3:
 178              		.loc 1 80 16 is_stmt 0
 179 00dc 93070000 		li	a5,0
 180              	.LVL13:
 181              	.L13:
 182              		.loc 1 80 24 is_stmt 1 discriminator 1
 183              		.loc 1 80 32 is_stmt 0 discriminator 1
 184 00e0 03B78501 		ld	a4,24(a1)
 185              		.loc 1 80 24 discriminator 1
 186 00e4 63F4E704 		bleu	a4,a5,.L15
 187              	.LBB4:
  81:src/slabAllocator.cpp ****     {
  82:src/slabAllocator.cpp ****         size_t mask = 1 << (i%8);
 188              		.loc 1 82 9 is_stmt 1
 189              		.loc 1 82 30 is_stmt 0
 190 00e8 13F77700 		andi	a4,a5,7
 191              		.loc 1 82 25
 192 00ec 13061000 		li	a2,1
 193 00f0 BB16E600 		sllw	a3,a2,a4
 194              	.LVL14:
  83:src/slabAllocator.cpp ****         if(!((uint8)slab->allocated[i/8] & mask))
 195              		.loc 1 83 9 is_stmt 1
 196              		.loc 1 83 38 is_stmt 0
 197 00f4 13D73700 		srli	a4,a5,3
 198              		.loc 1 83 40
 199 00f8 3387E500 		add	a4,a1,a4
GAS LISTING /tmp/cc6KI5Hb.s 			page 6


 200 00fc 03478702 		lbu	a4,40(a4)
 201              		.loc 1 83 42
 202 0100 3377D700 		and	a4,a4,a3
 203              		.loc 1 83 9
 204 0104 63060700 		beqz	a4,.L17
 205              	.LBE4:
  80:src/slabAllocator.cpp ****     for(size_t i = 0;i < slab->numOfObjects;i++)
 206              		.loc 1 80 5 is_stmt 1 discriminator 2
 207 0108 93871700 		addi	a5,a5,1
 208              	.LVL15:
 209 010c 6FF05FFD 		j	.L13
 210              	.L17:
 211              	.LBB5:
  84:src/slabAllocator.cpp ****         {
  85:src/slabAllocator.cpp ****             addr = (void*)((size_t)slab + sizeof(slab_t)+ i*slab->owner->obj_size);
 212              		.loc 1 85 13
 213              		.loc 1 85 67 is_stmt 0
 214 0110 03B70501 		ld	a4,16(a1)
 215              		.loc 1 85 74
 216 0114 03350706 		ld	a0,96(a4)
 217              	.LVL16:
 218              		.loc 1 85 60
 219 0118 3305F502 		mul	a0,a0,a5
 220              		.loc 1 85 57
 221 011c 3385A500 		add	a0,a1,a0
 222 0120 13058504 		addi	a0,a0,72
 223              	.LVL17:
  86:src/slabAllocator.cpp ****             index = i;
 224              		.loc 1 86 13 is_stmt 1
 225              		.loc 1 86 19 is_stmt 0
 226 0124 9B870700 		sext.w	a5,a5
 227              	.LVL18:
  87:src/slabAllocator.cpp ****             break;
 228              		.loc 1 87 13 is_stmt 1
 229 0128 6F00C000 		j	.L11
 230              	.LVL19:
 231              	.L15:
 232              	.LBE5:
 233              	.LBE3:
  79:src/slabAllocator.cpp ****     for(size_t i = 0;i < slab->numOfObjects;i++)
 234              		.loc 1 79 11 is_stmt 0
 235 012c 13050000 		li	a0,0
 236              	.LVL20:
  78:src/slabAllocator.cpp ****     void* addr = nullptr;
 237              		.loc 1 78 9
 238 0130 9307F0FF 		li	a5,-1
 239              	.LVL21:
 240              	.L11:
  88:src/slabAllocator.cpp ****         }
  89:src/slabAllocator.cpp ****     }
  90:src/slabAllocator.cpp ****     if(addr == nullptr)
 241              		.loc 1 90 5 is_stmt 1
 242 0134 63000504 		beqz	a0,.L10
  91:src/slabAllocator.cpp ****         return nullptr;
  92:src/slabAllocator.cpp **** 
  93:src/slabAllocator.cpp ****     //KConsole::trapPrintStringInt("Allocated index ",index);
  94:src/slabAllocator.cpp **** 
GAS LISTING /tmp/cc6KI5Hb.s 			page 7


  95:src/slabAllocator.cpp ****     //TODO
  96:src/slabAllocator.cpp ****     //implement functions to set bit and check it
  97:src/slabAllocator.cpp ****     slab->allocated[index/8]=(uint8)slab->allocated[index/8] | (1 << (index%8));
 243              		.loc 1 97 5
 244              		.loc 1 97 58 is_stmt 0
 245 0138 9BD6F741 		sraiw	a3,a5,31
 246 013c 9BD6D601 		srliw	a3,a3,29
 247 0140 BB87F600 		addw	a5,a3,a5
 248              	.LVL22:
 249 0144 1BD73740 		sraiw	a4,a5,3
 250              		.loc 1 97 60
 251 0148 3387E500 		add	a4,a1,a4
 252              		.loc 1 97 30
 253 014c 03068702 		lb	a2,40(a4)
 254              		.loc 1 97 76
 255 0150 93F77700 		andi	a5,a5,7
 256 0154 BB87D740 		subw	a5,a5,a3
 257              		.loc 1 97 67
 258 0158 93061000 		li	a3,1
 259 015c BB97F600 		sllw	a5,a3,a5
 260              		.loc 1 97 62
 261 0160 B367F600 		or	a5,a2,a5
 262              		.loc 1 97 29
 263 0164 2304F702 		sb	a5,40(a4)
  98:src/slabAllocator.cpp ****     slab->numOfAllocatedObjects++;
 264              		.loc 1 98 5 is_stmt 1
 265              		.loc 1 98 11 is_stmt 0
 266 0168 83B70502 		ld	a5,32(a1)
 267              		.loc 1 98 32
 268 016c 93871700 		addi	a5,a5,1
 269 0170 23B0F502 		sd	a5,32(a1)
  99:src/slabAllocator.cpp **** 
 100:src/slabAllocator.cpp ****     return addr;
 270              		.loc 1 100 5 is_stmt 1
 271              	.L10:
 101:src/slabAllocator.cpp **** }
 272              		.loc 1 101 1 is_stmt 0
 273 0174 03348100 		ld	s0,8(sp)
 274              		.cfi_restore 8
 275              		.cfi_def_cfa 2, 16
 276 0178 13010101 		addi	sp,sp,16
 277              		.cfi_def_cfa_offset 0
 278 017c 67800000 		jr	ra
 279              		.cfi_endproc
 280              	.LFE7:
 282              		.align	2
 283              		.globl	_Z4fullP6slab_s
 285              	_Z4fullP6slab_s:
 286              	.LFB8:
 102:src/slabAllocator.cpp **** 
 103:src/slabAllocator.cpp **** bool full(slab_t* slab)
 104:src/slabAllocator.cpp **** {
 287              		.loc 1 104 1 is_stmt 1
 288              		.cfi_startproc
 289              	.LVL23:
 290 0180 130101FF 		addi	sp,sp,-16
 291              		.cfi_def_cfa_offset 16
GAS LISTING /tmp/cc6KI5Hb.s 			page 8


 292 0184 23348100 		sd	s0,8(sp)
 293              		.cfi_offset 8, -8
 294 0188 13040101 		addi	s0,sp,16
 295              		.cfi_def_cfa 8, 0
 105:src/slabAllocator.cpp ****     return slab->numOfAllocatedObjects == slab->numOfObjects;
 296              		.loc 1 105 5
 297              		.loc 1 105 18 is_stmt 0
 298 018c 83370502 		ld	a5,32(a0)
 299              		.loc 1 105 49
 300 0190 03358501 		ld	a0,24(a0)
 301              	.LVL24:
 302 0194 3305F540 		sub	a0,a0,a5
 106:src/slabAllocator.cpp **** }
 303              		.loc 1 106 1
 304 0198 13351500 		seqz	a0,a0
 305 019c 03348100 		ld	s0,8(sp)
 306              		.cfi_restore 8
 307              		.cfi_def_cfa 2, 16
 308 01a0 13010101 		addi	sp,sp,16
 309              		.cfi_def_cfa_offset 0
 310 01a4 67800000 		jr	ra
 311              		.cfi_endproc
 312              	.LFE8:
 314              		.align	2
 315              		.globl	_Z5emptyP6slab_s
 317              	_Z5emptyP6slab_s:
 318              	.LFB9:
 107:src/slabAllocator.cpp **** 
 108:src/slabAllocator.cpp **** bool empty(slab_t* slab)
 109:src/slabAllocator.cpp **** {
 319              		.loc 1 109 1 is_stmt 1
 320              		.cfi_startproc
 321              	.LVL25:
 322 01a8 130101FF 		addi	sp,sp,-16
 323              		.cfi_def_cfa_offset 16
 324 01ac 23348100 		sd	s0,8(sp)
 325              		.cfi_offset 8, -8
 326 01b0 13040101 		addi	s0,sp,16
 327              		.cfi_def_cfa 8, 0
 110:src/slabAllocator.cpp ****     return slab->numOfAllocatedObjects == 0;
 328              		.loc 1 110 5
 329              		.loc 1 110 18 is_stmt 0
 330 01b4 03350502 		ld	a0,32(a0)
 331              	.LVL26:
 111:src/slabAllocator.cpp **** }
 332              		.loc 1 111 1
 333 01b8 13351500 		seqz	a0,a0
 334 01bc 03348100 		ld	s0,8(sp)
 335              		.cfi_restore 8
 336              		.cfi_def_cfa 2, 16
 337 01c0 13010101 		addi	sp,sp,16
 338              		.cfi_def_cfa_offset 0
 339 01c4 67800000 		jr	ra
 340              		.cfi_endproc
 341              	.LFE9:
 343              		.align	2
 344              		.globl	_Z18insertIntoSlabListP6slab_sPS0_
GAS LISTING /tmp/cc6KI5Hb.s 			page 9


 346              	_Z18insertIntoSlabListP6slab_sPS0_:
 347              	.LFB10:
 112:src/slabAllocator.cpp **** 
 113:src/slabAllocator.cpp **** void insertIntoSlabList(slab_t* slab, slab_t** slab_head)
 114:src/slabAllocator.cpp **** {
 348              		.loc 1 114 1 is_stmt 1
 349              		.cfi_startproc
 350              	.LVL27:
 351 01c8 130101FF 		addi	sp,sp,-16
 352              		.cfi_def_cfa_offset 16
 353 01cc 23348100 		sd	s0,8(sp)
 354              		.cfi_offset 8, -8
 355 01d0 13040101 		addi	s0,sp,16
 356              		.cfi_def_cfa 8, 0
 115:src/slabAllocator.cpp ****     slab->prev = nullptr;
 357              		.loc 1 115 5
 358              		.loc 1 115 16 is_stmt 0
 359 01d4 23300500 		sd	zero,0(a0)
 116:src/slabAllocator.cpp ****     slab->next = *slab_head;
 360              		.loc 1 116 5 is_stmt 1
 361              		.loc 1 116 18 is_stmt 0
 362 01d8 83B70500 		ld	a5,0(a1)
 363              		.loc 1 116 16
 364 01dc 2334F500 		sd	a5,8(a0)
 117:src/slabAllocator.cpp ****     if(*slab_head != nullptr)
 365              		.loc 1 117 5 is_stmt 1
 366 01e0 63840700 		beqz	a5,.L23
 118:src/slabAllocator.cpp ****         (*slab_head)->prev = slab;
 367              		.loc 1 118 9
 368              		.loc 1 118 28 is_stmt 0
 369 01e4 23B0A700 		sd	a0,0(a5)
 370              	.L23:
 119:src/slabAllocator.cpp ****     *slab_head = slab;
 371              		.loc 1 119 5 is_stmt 1
 372              		.loc 1 119 16 is_stmt 0
 373 01e8 23B0A500 		sd	a0,0(a1)
 120:src/slabAllocator.cpp **** }
 374              		.loc 1 120 1
 375 01ec 03348100 		ld	s0,8(sp)
 376              		.cfi_restore 8
 377              		.cfi_def_cfa 2, 16
 378 01f0 13010101 		addi	sp,sp,16
 379              		.cfi_def_cfa_offset 0
 380 01f4 67800000 		jr	ra
 381              		.cfi_endproc
 382              	.LFE10:
 384              		.align	2
 385              		.globl	_Z18removeFromSlabListP6slab_sPS0_
 387              	_Z18removeFromSlabListP6slab_sPS0_:
 388              	.LFB11:
 121:src/slabAllocator.cpp **** 
 122:src/slabAllocator.cpp **** void removeFromSlabList(slab_t* slab, slab_t** slab_head)
 123:src/slabAllocator.cpp **** {
 389              		.loc 1 123 1 is_stmt 1
 390              		.cfi_startproc
 391              	.LVL28:
 392 01f8 130101FF 		addi	sp,sp,-16
GAS LISTING /tmp/cc6KI5Hb.s 			page 10


 393              		.cfi_def_cfa_offset 16
 394 01fc 23348100 		sd	s0,8(sp)
 395              		.cfi_offset 8, -8
 396 0200 13040101 		addi	s0,sp,16
 397              		.cfi_def_cfa 8, 0
 124:src/slabAllocator.cpp ****     if(slab->prev == nullptr) //same as slab == *slab_head
 398              		.loc 1 124 5
 399              		.loc 1 124 14 is_stmt 0
 400 0204 83370500 		ld	a5,0(a0)
 401              		.loc 1 124 5
 402 0208 63860702 		beqz	a5,.L31
 125:src/slabAllocator.cpp ****     {
 126:src/slabAllocator.cpp ****         if(slab->next) slab->next->prev = nullptr;
 127:src/slabAllocator.cpp ****         (*slab_head) = slab->next;
 128:src/slabAllocator.cpp ****         slab->next = slab->prev = nullptr;
 129:src/slabAllocator.cpp ****     }
 130:src/slabAllocator.cpp ****     else
 131:src/slabAllocator.cpp ****     {
 132:src/slabAllocator.cpp ****         slab->prev->next = slab->next;
 403              		.loc 1 132 9 is_stmt 1
 404              		.loc 1 132 34 is_stmt 0
 405 020c 03378500 		ld	a4,8(a0)
 406              		.loc 1 132 26
 407 0210 23B4E700 		sd	a4,8(a5)
 133:src/slabAllocator.cpp ****         if(slab->next) slab->next->prev = slab->prev;
 408              		.loc 1 133 9 is_stmt 1
 409 0214 63060700 		beqz	a4,.L29
 410              		.loc 1 133 24 discriminator 1
 411              		.loc 1 133 49 is_stmt 0 discriminator 1
 412 0218 83370500 		ld	a5,0(a0)
 413              		.loc 1 133 41 discriminator 1
 414 021c 2330F700 		sd	a5,0(a4)
 415              	.L29:
 134:src/slabAllocator.cpp ****         slab->next = slab->prev = nullptr;
 416              		.loc 1 134 9 is_stmt 1
 417              		.loc 1 134 33 is_stmt 0
 418 0220 23300500 		sd	zero,0(a0)
 419              		.loc 1 134 20
 420 0224 23340500 		sd	zero,8(a0)
 421              	.L25:
 135:src/slabAllocator.cpp ****     }
 136:src/slabAllocator.cpp **** }
 422              		.loc 1 136 1
 423 0228 03348100 		ld	s0,8(sp)
 424              		.cfi_remember_state
 425              		.cfi_restore 8
 426              		.cfi_def_cfa 2, 16
 427 022c 13010101 		addi	sp,sp,16
 428              		.cfi_def_cfa_offset 0
 429 0230 67800000 		jr	ra
 430              	.L31:
 431              		.cfi_restore_state
 126:src/slabAllocator.cpp ****         (*slab_head) = slab->next;
 432              		.loc 1 126 9 is_stmt 1
 126:src/slabAllocator.cpp ****         (*slab_head) = slab->next;
 433              		.loc 1 126 18 is_stmt 0
 434 0234 83378500 		ld	a5,8(a0)
GAS LISTING /tmp/cc6KI5Hb.s 			page 11


 126:src/slabAllocator.cpp ****         (*slab_head) = slab->next;
 435              		.loc 1 126 9
 436 0238 63840700 		beqz	a5,.L27
 126:src/slabAllocator.cpp ****         (*slab_head) = slab->next;
 437              		.loc 1 126 24 is_stmt 1 discriminator 1
 126:src/slabAllocator.cpp ****         (*slab_head) = slab->next;
 438              		.loc 1 126 41 is_stmt 0 discriminator 1
 439 023c 23B00700 		sd	zero,0(a5)
 440              	.L27:
 127:src/slabAllocator.cpp ****         slab->next = slab->prev = nullptr;
 441              		.loc 1 127 9 is_stmt 1
 127:src/slabAllocator.cpp ****         slab->next = slab->prev = nullptr;
 442              		.loc 1 127 30 is_stmt 0
 443 0240 83378500 		ld	a5,8(a0)
 127:src/slabAllocator.cpp ****         slab->next = slab->prev = nullptr;
 444              		.loc 1 127 22
 445 0244 23B0F500 		sd	a5,0(a1)
 128:src/slabAllocator.cpp ****     }
 446              		.loc 1 128 9 is_stmt 1
 128:src/slabAllocator.cpp ****     }
 447              		.loc 1 128 33 is_stmt 0
 448 0248 23300500 		sd	zero,0(a0)
 128:src/slabAllocator.cpp ****     }
 449              		.loc 1 128 20
 450 024c 23340500 		sd	zero,8(a0)
 451 0250 6FF09FFD 		j	.L25
 452              		.cfi_endproc
 453              	.LFE11:
 455              		.align	2
 456              		.globl	_Z16putPartialToFullP12kmem_cache_s
 458              	_Z16putPartialToFullP12kmem_cache_s:
 459              	.LFB12:
 137:src/slabAllocator.cpp **** 
 138:src/slabAllocator.cpp **** void putPartialToFull(kmem_cache_t* cachep)
 139:src/slabAllocator.cpp **** {
 460              		.loc 1 139 1 is_stmt 1
 461              		.cfi_startproc
 462              	.LVL29:
 463 0254 130101FE 		addi	sp,sp,-32
 464              		.cfi_def_cfa_offset 32
 465 0258 233C1100 		sd	ra,24(sp)
 466 025c 23388100 		sd	s0,16(sp)
 467 0260 23349100 		sd	s1,8(sp)
 468 0264 23302101 		sd	s2,0(sp)
 469              		.cfi_offset 1, -8
 470              		.cfi_offset 8, -16
 471              		.cfi_offset 9, -24
 472              		.cfi_offset 18, -32
 473 0268 13040102 		addi	s0,sp,32
 474              		.cfi_def_cfa 8, 0
 475 026c 93040500 		mv	s1,a0
 140:src/slabAllocator.cpp ****     slab_t* slab = cachep->slabs_partial;
 476              		.loc 1 140 5
 477              		.loc 1 140 13 is_stmt 0
 478 0270 03390505 		ld	s2,80(a0)
 479              	.LVL30:
 141:src/slabAllocator.cpp ****     removeFromSlabList(slab, &cachep->slabs_partial);
GAS LISTING /tmp/cc6KI5Hb.s 			page 12


 480              		.loc 1 141 5 is_stmt 1
 481              		.loc 1 141 23 is_stmt 0
 482 0274 93050505 		addi	a1,a0,80
 483 0278 13050900 		mv	a0,s2
 484              	.LVL31:
 485 027c 97000000 		call	_Z18removeFromSlabListP6slab_sPS0_
 485      E7800000 
 486              	.LVL32:
 142:src/slabAllocator.cpp ****     insertIntoSlabList(slab, &cachep->slabs_full);
 487              		.loc 1 142 5 is_stmt 1
 488              		.loc 1 142 23 is_stmt 0
 489 0284 93858404 		addi	a1,s1,72
 490 0288 13050900 		mv	a0,s2
 491 028c 97000000 		call	_Z18insertIntoSlabListP6slab_sPS0_
 491      E7800000 
 492              	.LVL33:
 143:src/slabAllocator.cpp **** }
 493              		.loc 1 143 1
 494 0294 83308101 		ld	ra,24(sp)
 495              		.cfi_restore 1
 496 0298 03340101 		ld	s0,16(sp)
 497              		.cfi_restore 8
 498              		.cfi_def_cfa 2, 32
 499 029c 83348100 		ld	s1,8(sp)
 500              		.cfi_restore 9
 501              	.LVL34:
 502 02a0 03390100 		ld	s2,0(sp)
 503              		.cfi_restore 18
 504              	.LVL35:
 505 02a4 13010102 		addi	sp,sp,32
 506              		.cfi_def_cfa_offset 0
 507 02a8 67800000 		jr	ra
 508              		.cfi_endproc
 509              	.LFE12:
 511              		.align	2
 512              		.globl	_Z17putEmptyToPartialP12kmem_cache_s
 514              	_Z17putEmptyToPartialP12kmem_cache_s:
 515              	.LFB13:
 144:src/slabAllocator.cpp **** 
 145:src/slabAllocator.cpp **** void putEmptyToPartial(kmem_cache_t* cachep)
 146:src/slabAllocator.cpp **** {
 516              		.loc 1 146 1 is_stmt 1
 517              		.cfi_startproc
 518              	.LVL36:
 519 02ac 130101FE 		addi	sp,sp,-32
 520              		.cfi_def_cfa_offset 32
 521 02b0 233C1100 		sd	ra,24(sp)
 522 02b4 23388100 		sd	s0,16(sp)
 523 02b8 23349100 		sd	s1,8(sp)
 524 02bc 23302101 		sd	s2,0(sp)
 525              		.cfi_offset 1, -8
 526              		.cfi_offset 8, -16
 527              		.cfi_offset 9, -24
 528              		.cfi_offset 18, -32
 529 02c0 13040102 		addi	s0,sp,32
 530              		.cfi_def_cfa 8, 0
 531 02c4 93040500 		mv	s1,a0
GAS LISTING /tmp/cc6KI5Hb.s 			page 13


 147:src/slabAllocator.cpp ****     slab_t* slab = cachep->slabs_empty;
 532              		.loc 1 147 5
 533              		.loc 1 147 13 is_stmt 0
 534 02c8 03390504 		ld	s2,64(a0)
 535              	.LVL37:
 148:src/slabAllocator.cpp ****     removeFromSlabList(slab, &cachep->slabs_empty);
 536              		.loc 1 148 5 is_stmt 1
 537              		.loc 1 148 23 is_stmt 0
 538 02cc 93050504 		addi	a1,a0,64
 539 02d0 13050900 		mv	a0,s2
 540              	.LVL38:
 541 02d4 97000000 		call	_Z18removeFromSlabListP6slab_sPS0_
 541      E7800000 
 542              	.LVL39:
 149:src/slabAllocator.cpp ****     insertIntoSlabList(slab, &cachep->slabs_partial);
 543              		.loc 1 149 5 is_stmt 1
 544              		.loc 1 149 23 is_stmt 0
 545 02dc 93850405 		addi	a1,s1,80
 546 02e0 13050900 		mv	a0,s2
 547 02e4 97000000 		call	_Z18insertIntoSlabListP6slab_sPS0_
 547      E7800000 
 548              	.LVL40:
 150:src/slabAllocator.cpp **** }
 549              		.loc 1 150 1
 550 02ec 83308101 		ld	ra,24(sp)
 551              		.cfi_restore 1
 552 02f0 03340101 		ld	s0,16(sp)
 553              		.cfi_restore 8
 554              		.cfi_def_cfa 2, 32
 555 02f4 83348100 		ld	s1,8(sp)
 556              		.cfi_restore 9
 557              	.LVL41:
 558 02f8 03390100 		ld	s2,0(sp)
 559              		.cfi_restore 18
 560              	.LVL42:
 561 02fc 13010102 		addi	sp,sp,32
 562              		.cfi_def_cfa_offset 0
 563 0300 67800000 		jr	ra
 564              		.cfi_endproc
 565              	.LFE13:
 567              		.align	2
 568              		.globl	_Z14removeFullSlabP12kmem_cache_sP6slab_s
 570              	_Z14removeFullSlabP12kmem_cache_sP6slab_s:
 571              	.LFB14:
 151:src/slabAllocator.cpp **** 
 152:src/slabAllocator.cpp **** void removeFullSlab(kmem_cache_t* cachep, slab_t* slab)
 153:src/slabAllocator.cpp **** {
 572              		.loc 1 153 1 is_stmt 1
 573              		.cfi_startproc
 574              	.LVL43:
 575 0304 130101FE 		addi	sp,sp,-32
 576              		.cfi_def_cfa_offset 32
 577 0308 233C1100 		sd	ra,24(sp)
 578 030c 23388100 		sd	s0,16(sp)
 579 0310 23349100 		sd	s1,8(sp)
 580 0314 23302101 		sd	s2,0(sp)
 581              		.cfi_offset 1, -8
GAS LISTING /tmp/cc6KI5Hb.s 			page 14


 582              		.cfi_offset 8, -16
 583              		.cfi_offset 9, -24
 584              		.cfi_offset 18, -32
 585 0318 13040102 		addi	s0,sp,32
 586              		.cfi_def_cfa 8, 0
 587 031c 13090500 		mv	s2,a0
 588 0320 93840500 		mv	s1,a1
 154:src/slabAllocator.cpp ****     removeFromSlabList(slab, &cachep->slabs_full);
 589              		.loc 1 154 5
 590              		.loc 1 154 23 is_stmt 0
 591 0324 93058504 		addi	a1,a0,72
 592              	.LVL44:
 593 0328 13850400 		mv	a0,s1
 594              	.LVL45:
 595 032c 97000000 		call	_Z18removeFromSlabListP6slab_sPS0_
 595      E7800000 
 596              	.LVL46:
 155:src/slabAllocator.cpp ****     insertIntoSlabList(slab, &cachep->slabs_partial);
 597              		.loc 1 155 5 is_stmt 1
 598              		.loc 1 155 23 is_stmt 0
 599 0334 93050905 		addi	a1,s2,80
 600 0338 13850400 		mv	a0,s1
 601 033c 97000000 		call	_Z18insertIntoSlabListP6slab_sPS0_
 601      E7800000 
 602              	.LVL47:
 156:src/slabAllocator.cpp **** }
 603              		.loc 1 156 1
 604 0344 83308101 		ld	ra,24(sp)
 605              		.cfi_restore 1
 606 0348 03340101 		ld	s0,16(sp)
 607              		.cfi_restore 8
 608              		.cfi_def_cfa 2, 32
 609 034c 83348100 		ld	s1,8(sp)
 610              		.cfi_restore 9
 611              	.LVL48:
 612 0350 03390100 		ld	s2,0(sp)
 613              		.cfi_restore 18
 614              	.LVL49:
 615 0354 13010102 		addi	sp,sp,32
 616              		.cfi_def_cfa_offset 0
 617 0358 67800000 		jr	ra
 618              		.cfi_endproc
 619              	.LFE14:
 621              		.align	2
 622              		.globl	_Z17removePartialSlabP12kmem_cache_sP6slab_s
 624              	_Z17removePartialSlabP12kmem_cache_sP6slab_s:
 625              	.LFB15:
 157:src/slabAllocator.cpp **** 
 158:src/slabAllocator.cpp **** void removePartialSlab(kmem_cache_t * cachep, slab_t* slab)
 159:src/slabAllocator.cpp **** {
 626              		.loc 1 159 1 is_stmt 1
 627              		.cfi_startproc
 628              	.LVL50:
 629 035c 130101FE 		addi	sp,sp,-32
 630              		.cfi_def_cfa_offset 32
 631 0360 233C1100 		sd	ra,24(sp)
 632 0364 23388100 		sd	s0,16(sp)
GAS LISTING /tmp/cc6KI5Hb.s 			page 15


 633 0368 23349100 		sd	s1,8(sp)
 634 036c 23302101 		sd	s2,0(sp)
 635              		.cfi_offset 1, -8
 636              		.cfi_offset 8, -16
 637              		.cfi_offset 9, -24
 638              		.cfi_offset 18, -32
 639 0370 13040102 		addi	s0,sp,32
 640              		.cfi_def_cfa 8, 0
 641 0374 13090500 		mv	s2,a0
 642 0378 93840500 		mv	s1,a1
 160:src/slabAllocator.cpp ****     removeFromSlabList(slab, &cachep->slabs_partial);
 643              		.loc 1 160 5
 644              		.loc 1 160 23 is_stmt 0
 645 037c 93050505 		addi	a1,a0,80
 646              	.LVL51:
 647 0380 13850400 		mv	a0,s1
 648              	.LVL52:
 649 0384 97000000 		call	_Z18removeFromSlabListP6slab_sPS0_
 649      E7800000 
 650              	.LVL53:
 161:src/slabAllocator.cpp ****     insertIntoSlabList(slab, &cachep->slabs_empty);
 651              		.loc 1 161 5 is_stmt 1
 652              		.loc 1 161 23 is_stmt 0
 653 038c 93050904 		addi	a1,s2,64
 654 0390 13850400 		mv	a0,s1
 655 0394 97000000 		call	_Z18insertIntoSlabListP6slab_sPS0_
 655      E7800000 
 656              	.LVL54:
 162:src/slabAllocator.cpp **** }
 657              		.loc 1 162 1
 658 039c 83308101 		ld	ra,24(sp)
 659              		.cfi_restore 1
 660 03a0 03340101 		ld	s0,16(sp)
 661              		.cfi_restore 8
 662              		.cfi_def_cfa 2, 32
 663 03a4 83348100 		ld	s1,8(sp)
 664              		.cfi_restore 9
 665              	.LVL55:
 666 03a8 03390100 		ld	s2,0(sp)
 667              		.cfi_restore 18
 668              	.LVL56:
 669 03ac 13010102 		addi	sp,sp,32
 670              		.cfi_def_cfa_offset 0
 671 03b0 67800000 		jr	ra
 672              		.cfi_endproc
 673              	.LFE15:
 675              		.align	2
 676              		.globl	_Z12allocateSlabP12kmem_cache_s
 678              	_Z12allocateSlabP12kmem_cache_s:
 679              	.LFB16:
 163:src/slabAllocator.cpp **** 
 164:src/slabAllocator.cpp **** void allocateSlab(kmem_cache_t* cachep)
 165:src/slabAllocator.cpp **** {
 680              		.loc 1 165 1 is_stmt 1
 681              		.cfi_startproc
 682              	.LVL57:
 683 03b4 130101FE 		addi	sp,sp,-32
GAS LISTING /tmp/cc6KI5Hb.s 			page 16


 684              		.cfi_def_cfa_offset 32
 685 03b8 233C1100 		sd	ra,24(sp)
 686 03bc 23388100 		sd	s0,16(sp)
 687 03c0 23349100 		sd	s1,8(sp)
 688              		.cfi_offset 1, -8
 689              		.cfi_offset 8, -16
 690              		.cfi_offset 9, -24
 691 03c4 13040102 		addi	s0,sp,32
 692              		.cfi_def_cfa 8, 0
 693 03c8 93040500 		mv	s1,a0
 166:src/slabAllocator.cpp ****     slab_t* newSlab = (slab_t*)buddy_alloc(slabAllocator->buddy,cachep->slab_size);
 694              		.loc 1 166 5
 695              		.loc 1 166 43 is_stmt 0
 696 03cc 83358505 		ld	a1,88(a0)
 697 03d0 97070000 		ld	a5,.LANCHOR0
 697      83B70700 
 698 03d8 03B50700 		ld	a0,0(a5)
 699              	.LVL58:
 700 03dc 97000000 		call	_Z11buddy_allocP14buddyAllocatorm@plt
 700      E7800000 
 701              	.LVL59:
 167:src/slabAllocator.cpp ****     newSlab->next = cachep->slabs_empty;
 702              		.loc 1 167 5 is_stmt 1
 703              		.loc 1 167 29 is_stmt 0
 704 03e4 83B70404 		ld	a5,64(s1)
 705              		.loc 1 167 19
 706 03e8 2334F500 		sd	a5,8(a0)
 168:src/slabAllocator.cpp ****     if(cachep->slabs_empty != nullptr)
 707              		.loc 1 168 5 is_stmt 1
 708 03ec 63840700 		beqz	a5,.L41
 169:src/slabAllocator.cpp ****         cachep->slabs_empty->prev = newSlab;
 709              		.loc 1 169 9
 710              		.loc 1 169 35 is_stmt 0
 711 03f0 23B0A700 		sd	a0,0(a5)
 712              	.L41:
 170:src/slabAllocator.cpp ****     cachep->slabs_empty = newSlab;
 713              		.loc 1 170 5 is_stmt 1
 714              		.loc 1 170 25 is_stmt 0
 715 03f4 23B0A404 		sd	a0,64(s1)
 171:src/slabAllocator.cpp ****     newSlab->prev = nullptr;
 716              		.loc 1 171 5 is_stmt 1
 717              		.loc 1 171 19 is_stmt 0
 718 03f8 23300500 		sd	zero,0(a0)
 172:src/slabAllocator.cpp ****     newSlab->numOfAllocatedObjects = 0;
 719              		.loc 1 172 5 is_stmt 1
 720              		.loc 1 172 36 is_stmt 0
 721 03fc 23300502 		sd	zero,32(a0)
 173:src/slabAllocator.cpp ****     newSlab->owner = cachep;
 722              		.loc 1 173 5 is_stmt 1
 723              		.loc 1 173 20 is_stmt 0
 724 0400 23389500 		sd	s1,16(a0)
 174:src/slabAllocator.cpp ****     size_t sizeInBytes = cachep->slab_size*BLOCK_SIZE;
 725              		.loc 1 174 5 is_stmt 1
 726              		.loc 1 174 34 is_stmt 0
 727 0404 83B68405 		ld	a3,88(s1)
 728              		.loc 1 174 12
 729 0408 9396C600 		slli	a3,a3,12
GAS LISTING /tmp/cc6KI5Hb.s 			page 17


 730              	.LVL60:
 175:src/slabAllocator.cpp ****     newSlab->numOfObjects = (sizeInBytes - sizeof(slab_t)) / cachep->obj_size; // TODO can this par
 731              		.loc 1 175 5 is_stmt 1
 732              		.loc 1 175 42 is_stmt 0
 733 040c 938686FB 		addi	a3,a3,-72
 734              	.LVL61:
 735              		.loc 1 175 70
 736 0410 83B70406 		ld	a5,96(s1)
 737              		.loc 1 175 60
 738 0414 B3D6F602 		divu	a3,a3,a5
 739              	.LVL62:
 740              		.loc 1 175 27
 741 0418 233CD500 		sd	a3,24(a0)
 742              	.LVL63:
 176:src/slabAllocator.cpp ****     for(size_t i = 0; i < (newSlab->numOfObjects + 7) / 8;i++)
 743              		.loc 1 176 5 is_stmt 1
 744              	.LBB6:
 745              		.loc 1 176 16 is_stmt 0
 746 041c 13070000 		li	a4,0
 747              	.LVL64:
 748              	.L43:
 749              		.loc 1 176 25 is_stmt 1 discriminator 3
 750              		.loc 1 176 50 is_stmt 0 discriminator 3
 751 0420 93877600 		addi	a5,a3,7
 752              		.loc 1 176 55 discriminator 3
 753 0424 93D73700 		srli	a5,a5,3
 754              		.loc 1 176 25 discriminator 3
 755 0428 637AF700 		bleu	a5,a4,.L40
 177:src/slabAllocator.cpp ****         newSlab->allocated[i] = 0;
 756              		.loc 1 177 9 is_stmt 1 discriminator 2
 757              		.loc 1 177 31 is_stmt 0 discriminator 2
 758 042c B307E500 		add	a5,a0,a4
 759 0430 23840702 		sb	zero,40(a5)
 176:src/slabAllocator.cpp ****     for(size_t i = 0; i < (newSlab->numOfObjects + 7) / 8;i++)
 760              		.loc 1 176 5 is_stmt 1 discriminator 2
 761 0434 13071700 		addi	a4,a4,1
 762              	.LVL65:
 763 0438 6FF09FFE 		j	.L43
 764              	.L40:
 765              	.LBE6:
 178:src/slabAllocator.cpp **** }
 766              		.loc 1 178 1 is_stmt 0
 767 043c 83308101 		ld	ra,24(sp)
 768              		.cfi_restore 1
 769 0440 03340101 		ld	s0,16(sp)
 770              		.cfi_restore 8
 771              		.cfi_def_cfa 2, 32
 772 0444 83348100 		ld	s1,8(sp)
 773              		.cfi_restore 9
 774              	.LVL66:
 775 0448 13010102 		addi	sp,sp,32
 776              		.cfi_def_cfa_offset 0
 777 044c 67800000 		jr	ra
 778              		.cfi_endproc
 779              	.LFE16:
 781              		.align	2
 782              		.globl	_Z18getOptimalSlabSizem
GAS LISTING /tmp/cc6KI5Hb.s 			page 18


 784              	_Z18getOptimalSlabSizem:
 785              	.LFB17:
 179:src/slabAllocator.cpp **** 
 180:src/slabAllocator.cpp **** size_t getOptimalSlabSize(size_t obj_size)
 181:src/slabAllocator.cpp **** {
 786              		.loc 1 181 1 is_stmt 1
 787              		.cfi_startproc
 788              	.LVL67:
 789 0450 130101FF 		addi	sp,sp,-16
 790              		.cfi_def_cfa_offset 16
 791 0454 23348100 		sd	s0,8(sp)
 792              		.cfi_offset 8, -8
 793 0458 13040101 		addi	s0,sp,16
 794              		.cfi_def_cfa 8, 0
 182:src/slabAllocator.cpp ****     size_t bestSize = BLOCK_SIZE;
 795              		.loc 1 182 5
 796              	.LVL68:
 797              		.loc 1 182 12 is_stmt 0
 798 045c B7170000 		li	a5,4096
 799              	.LVL69:
 800              	.L47:
 183:src/slabAllocator.cpp ****     while(bestSize < obj_size + sizeof(slab_t))
 801              		.loc 1 183 5 is_stmt 1
 802              		.loc 1 183 20
 803              		.loc 1 183 31 is_stmt 0
 804 0460 13078504 		addi	a4,a0,72
 805              		.loc 1 183 20
 806 0464 63F6E700 		bleu	a4,a5,.L46
 184:src/slabAllocator.cpp ****         bestSize<<=1;
 807              		.loc 1 184 9 is_stmt 1
 808              		.loc 1 184 17 is_stmt 0
 809 0468 93971700 		slli	a5,a5,1
 810              	.LVL70:
 183:src/slabAllocator.cpp ****     while(bestSize < obj_size + sizeof(slab_t))
 811              		.loc 1 183 5
 812 046c 6FF05FFF 		j	.L47
 813              	.L46:
 185:src/slabAllocator.cpp ****     size_t optimalWaste = (bestSize - sizeof(slab_t)) % obj_size;
 814              		.loc 1 185 5 is_stmt 1
 815              		.loc 1 185 37 is_stmt 0
 816 0470 938587FB 		addi	a1,a5,-72
 817              		.loc 1 185 12
 818 0474 B3F5A502 		remu	a1,a1,a0
 819              	.LVL71:
 186:src/slabAllocator.cpp **** 
 187:src/slabAllocator.cpp ****     for(int i = 1;i<=4;i++) //TODO change constants
 820              		.loc 1 187 5 is_stmt 1
 821              	.LBB7:
 822              		.loc 1 187 13 is_stmt 0
 823 0478 13071000 		li	a4,1
 824 047c 6F008000 		j	.L50
 825              	.LVL72:
 826              	.L49:
 827              		.loc 1 187 5 is_stmt 1 discriminator 2
 828 0480 1B071700 		addiw	a4,a4,1
 829              	.LVL73:
 830              	.L50:
GAS LISTING /tmp/cc6KI5Hb.s 			page 19


 831              		.loc 1 187 20 discriminator 1
 832 0484 93064000 		li	a3,4
 833 0488 63C0E602 		bgt	a4,a3,.L48
 834              	.LBB8:
 188:src/slabAllocator.cpp ****     {
 189:src/slabAllocator.cpp ****         size_t newSize = bestSize << i;
 835              		.loc 1 189 9
 836              		.loc 1 189 16 is_stmt 0
 837 048c 3396E700 		sll	a2,a5,a4
 838              	.LVL74:
 190:src/slabAllocator.cpp ****         size_t newWaste = (newSize - sizeof(slab_t)) % obj_size;
 839              		.loc 1 190 9 is_stmt 1
 840              		.loc 1 190 36 is_stmt 0
 841 0490 930686FB 		addi	a3,a2,-72
 842              		.loc 1 190 16
 843 0494 B3F6A602 		remu	a3,a3,a0
 844              	.LVL75:
 191:src/slabAllocator.cpp ****         if(newWaste < optimalWaste)
 845              		.loc 1 191 9 is_stmt 1
 846 0498 E3F4B6FE 		bleu	a1,a3,.L49
 192:src/slabAllocator.cpp ****         {
 193:src/slabAllocator.cpp ****             optimalWaste = newWaste;
 847              		.loc 1 193 26 is_stmt 0
 848 049c 93850600 		mv	a1,a3
 849              	.LVL76:
 194:src/slabAllocator.cpp ****             bestSize = newSize;
 850              		.loc 1 194 22
 851 04a0 93070600 		mv	a5,a2
 852              	.LVL77:
 853 04a4 6FF0DFFD 		j	.L49
 854              	.LVL78:
 855              	.L48:
 856              	.LBE8:
 857              	.LBE7:
 195:src/slabAllocator.cpp ****         }
 196:src/slabAllocator.cpp ****     }
 197:src/slabAllocator.cpp **** 
 198:src/slabAllocator.cpp ****     return bestSize / BLOCK_SIZE;
 858              		.loc 1 198 5 is_stmt 1
 199:src/slabAllocator.cpp **** }
 859              		.loc 1 199 1 is_stmt 0
 860 04a8 13D5C700 		srli	a0,a5,12
 861              	.LVL79:
 862 04ac 03348100 		ld	s0,8(sp)
 863              		.cfi_restore 8
 864              		.cfi_def_cfa 2, 16
 865 04b0 13010101 		addi	sp,sp,16
 866              		.cfi_def_cfa_offset 0
 867 04b4 67800000 		jr	ra
 868              		.cfi_endproc
 869              	.LFE17:
 871              		.align	2
 872              		.globl	_Z8findSlabP12kmem_cache_sPKv
 874              	_Z8findSlabP12kmem_cache_sPKv:
 875              	.LFB18:
 200:src/slabAllocator.cpp **** 
 201:src/slabAllocator.cpp **** //finds the slab where objp is
GAS LISTING /tmp/cc6KI5Hb.s 			page 20


 202:src/slabAllocator.cpp **** slab_t* findSlab(kmem_cache_t* cachep, const void* objp)
 203:src/slabAllocator.cpp **** {
 876              		.loc 1 203 1 is_stmt 1
 877              		.cfi_startproc
 878              	.LVL80:
 879 04b8 130101FF 		addi	sp,sp,-16
 880              		.cfi_def_cfa_offset 16
 881 04bc 23348100 		sd	s0,8(sp)
 882              		.cfi_offset 8, -8
 883 04c0 13040101 		addi	s0,sp,16
 884              		.cfi_def_cfa 8, 0
 885 04c4 93060500 		mv	a3,a0
 204:src/slabAllocator.cpp ****     slab_t* slab = cachep->slabs_full;
 886              		.loc 1 204 5
 887              		.loc 1 204 13 is_stmt 0
 888 04c8 03358504 		ld	a0,72(a0)
 889              	.LVL81:
 890 04cc 6F008000 		j	.L57
 891              	.LVL82:
 892              	.L55:
 893              	.LBB9:
 205:src/slabAllocator.cpp ****     while(slab != nullptr)
 206:src/slabAllocator.cpp ****     {
 207:src/slabAllocator.cpp ****         size_t endAddr = (size_t)slab + sizeof(slab_t) + slab->numOfObjects*slab->owner->obj_size;
 208:src/slabAllocator.cpp ****         if((size_t)objp > (size_t)slab && (size_t)objp < endAddr)
 209:src/slabAllocator.cpp ****             return slab;
 210:src/slabAllocator.cpp ****         slab = slab->next;
 894              		.loc 1 210 9 is_stmt 1
 895              		.loc 1 210 14 is_stmt 0
 896 04d0 03358500 		ld	a0,8(a0)
 897              	.LVL83:
 898              	.L57:
 899              	.LBE9:
 205:src/slabAllocator.cpp ****     while(slab != nullptr)
 900              		.loc 1 205 5 is_stmt 1
 205:src/slabAllocator.cpp ****     while(slab != nullptr)
 901              		.loc 1 205 16
 902 04d4 63080502 		beqz	a0,.L54
 903              	.LBB10:
 207:src/slabAllocator.cpp ****         if((size_t)objp > (size_t)slab && (size_t)objp < endAddr)
 904              		.loc 1 207 9
 207:src/slabAllocator.cpp ****         if((size_t)objp > (size_t)slab && (size_t)objp < endAddr)
 905              		.loc 1 207 64 is_stmt 0
 906 04d8 83378501 		ld	a5,24(a0)
 207:src/slabAllocator.cpp ****         if((size_t)objp > (size_t)slab && (size_t)objp < endAddr)
 907              		.loc 1 207 83
 908 04dc 03370501 		ld	a4,16(a0)
 207:src/slabAllocator.cpp ****         if((size_t)objp > (size_t)slab && (size_t)objp < endAddr)
 909              		.loc 1 207 90
 910 04e0 03370706 		ld	a4,96(a4)
 207:src/slabAllocator.cpp ****         if((size_t)objp > (size_t)slab && (size_t)objp < endAddr)
 911              		.loc 1 207 76
 912 04e4 B387E702 		mul	a5,a5,a4
 207:src/slabAllocator.cpp ****         if((size_t)objp > (size_t)slab && (size_t)objp < endAddr)
 913              		.loc 1 207 56
 914 04e8 B387A700 		add	a5,a5,a0
 207:src/slabAllocator.cpp ****         if((size_t)objp > (size_t)slab && (size_t)objp < endAddr)
GAS LISTING /tmp/cc6KI5Hb.s 			page 21


 915              		.loc 1 207 16
 916 04ec 93878704 		addi	a5,a5,72
 917              	.LVL84:
 208:src/slabAllocator.cpp ****             return slab;
 918              		.loc 1 208 9 is_stmt 1
 919 04f0 E370B5FE 		bgeu	a0,a1,.L55
 208:src/slabAllocator.cpp ****             return slab;
 920              		.loc 1 208 40 is_stmt 0 discriminator 1
 921 04f4 E3FEF5FC 		bgeu	a1,a5,.L55
 922              	.LVL85:
 923              	.L53:
 924              	.LBE10:
 211:src/slabAllocator.cpp ****     }
 212:src/slabAllocator.cpp **** 
 213:src/slabAllocator.cpp ****     slab = cachep->slabs_partial;
 214:src/slabAllocator.cpp ****     while(slab != nullptr)
 215:src/slabAllocator.cpp ****     {
 216:src/slabAllocator.cpp ****         size_t endAddr = (size_t)slab + sizeof(slab_t) + slab->numOfObjects*slab->owner->obj_size;
 217:src/slabAllocator.cpp ****         if((size_t)objp > (size_t)slab && (size_t)objp < endAddr)
 218:src/slabAllocator.cpp ****             return slab;
 219:src/slabAllocator.cpp ****         slab = slab->next;
 220:src/slabAllocator.cpp ****     }
 221:src/slabAllocator.cpp **** 
 222:src/slabAllocator.cpp ****     return nullptr;
 223:src/slabAllocator.cpp **** }
 925              		.loc 1 223 1
 926 04f8 03348100 		ld	s0,8(sp)
 927              		.cfi_remember_state
 928              		.cfi_restore 8
 929              		.cfi_def_cfa 2, 16
 930 04fc 13010101 		addi	sp,sp,16
 931              		.cfi_def_cfa_offset 0
 932 0500 67800000 		jr	ra
 933              	.L54:
 934              		.cfi_restore_state
 213:src/slabAllocator.cpp ****     while(slab != nullptr)
 935              		.loc 1 213 5 is_stmt 1
 213:src/slabAllocator.cpp ****     while(slab != nullptr)
 936              		.loc 1 213 10 is_stmt 0
 937 0504 03B50605 		ld	a0,80(a3)
 938              	.LVL86:
 939 0508 6F008000 		j	.L59
 940              	.LVL87:
 941              	.L58:
 942              	.LBB11:
 219:src/slabAllocator.cpp ****     }
 943              		.loc 1 219 9 is_stmt 1
 219:src/slabAllocator.cpp ****     }
 944              		.loc 1 219 14 is_stmt 0
 945 050c 03358500 		ld	a0,8(a0)
 946              	.LVL88:
 947              	.L59:
 948              	.LBE11:
 214:src/slabAllocator.cpp ****     {
 949              		.loc 1 214 5 is_stmt 1
 214:src/slabAllocator.cpp ****     {
 950              		.loc 1 214 16
GAS LISTING /tmp/cc6KI5Hb.s 			page 22


 951 0510 E30405FE 		beqz	a0,.L53
 952              	.LBB12:
 216:src/slabAllocator.cpp ****         if((size_t)objp > (size_t)slab && (size_t)objp < endAddr)
 953              		.loc 1 216 9
 216:src/slabAllocator.cpp ****         if((size_t)objp > (size_t)slab && (size_t)objp < endAddr)
 954              		.loc 1 216 64 is_stmt 0
 955 0514 83378501 		ld	a5,24(a0)
 216:src/slabAllocator.cpp ****         if((size_t)objp > (size_t)slab && (size_t)objp < endAddr)
 956              		.loc 1 216 83
 957 0518 03370501 		ld	a4,16(a0)
 216:src/slabAllocator.cpp ****         if((size_t)objp > (size_t)slab && (size_t)objp < endAddr)
 958              		.loc 1 216 90
 959 051c 03370706 		ld	a4,96(a4)
 216:src/slabAllocator.cpp ****         if((size_t)objp > (size_t)slab && (size_t)objp < endAddr)
 960              		.loc 1 216 76
 961 0520 B387E702 		mul	a5,a5,a4
 216:src/slabAllocator.cpp ****         if((size_t)objp > (size_t)slab && (size_t)objp < endAddr)
 962              		.loc 1 216 56
 963 0524 B387A700 		add	a5,a5,a0
 216:src/slabAllocator.cpp ****         if((size_t)objp > (size_t)slab && (size_t)objp < endAddr)
 964              		.loc 1 216 16
 965 0528 93878704 		addi	a5,a5,72
 966              	.LVL89:
 217:src/slabAllocator.cpp ****             return slab;
 967              		.loc 1 217 9 is_stmt 1
 968 052c E370B5FE 		bgeu	a0,a1,.L58
 217:src/slabAllocator.cpp ****             return slab;
 969              		.loc 1 217 40 is_stmt 0 discriminator 1
 970 0530 E3FEF5FC 		bgeu	a1,a5,.L58
 971 0534 6FF05FFC 		j	.L53
 972              	.LBE12:
 973              		.cfi_endproc
 974              	.LFE18:
 976              		.align	2
 977              		.globl	_Z19resetAllocatedIndexP6slab_si
 979              	_Z19resetAllocatedIndexP6slab_si:
 980              	.LFB19:
 224:src/slabAllocator.cpp **** 
 225:src/slabAllocator.cpp **** void resetAllocatedIndex(slab_t* slab, int index)
 226:src/slabAllocator.cpp **** {
 981              		.loc 1 226 1 is_stmt 1
 982              		.cfi_startproc
 983              	.LVL90:
 984 0538 130101FF 		addi	sp,sp,-16
 985              		.cfi_def_cfa_offset 16
 986 053c 23348100 		sd	s0,8(sp)
 987              		.cfi_offset 8, -8
 988 0540 13040101 		addi	s0,sp,16
 989              		.cfi_def_cfa 8, 0
 227:src/slabAllocator.cpp ****     slab->allocated[index / 8]=(uint8)slab->allocated[index/8] & ~(1 << (index%8));
 990              		.loc 1 227 5
 991              		.loc 1 227 60 is_stmt 0
 992 0544 9BD7F541 		sraiw	a5,a1,31
 993 0548 9BD7D701 		srliw	a5,a5,29
 994 054c BB85B700 		addw	a1,a5,a1
 995              	.LVL91:
 996 0550 1BD73540 		sraiw	a4,a1,3
GAS LISTING /tmp/cc6KI5Hb.s 			page 23


 997              		.loc 1 227 62
 998 0554 3305E500 		add	a0,a0,a4
 999              	.LVL92:
 1000              		.loc 1 227 32
 1001 0558 03078502 		lb	a4,40(a0)
 1002              		.loc 1 227 79
 1003 055c 93F57500 		andi	a1,a1,7
 1004 0560 BB85F540 		subw	a1,a1,a5
 1005              		.loc 1 227 70
 1006 0564 93071000 		li	a5,1
 1007 0568 BB95B700 		sllw	a1,a5,a1
 1008              		.loc 1 227 64
 1009 056c 93C5F5FF 		not	a1,a1
 1010 0570 B375B700 		and	a1,a4,a1
 1011              		.loc 1 227 31
 1012 0574 2304B502 		sb	a1,40(a0)
 228:src/slabAllocator.cpp **** }
 1013              		.loc 1 228 1
 1014 0578 03348100 		ld	s0,8(sp)
 1015              		.cfi_restore 8
 1016              		.cfi_def_cfa 2, 16
 1017 057c 13010101 		addi	sp,sp,16
 1018              		.cfi_def_cfa_offset 0
 1019 0580 67800000 		jr	ra
 1020              		.cfi_endproc
 1021              	.LFE19:
 1023              		.section	.rodata.str1.8
 1024              		.align	3
 1025              	.LC1:
 1026 0010 4F6E6520 		.string	"One slab info---------\n"
 1026      736C6162 
 1026      20696E66 
 1026      6F2D2D2D 
 1026      2D2D2D2D 
 1027              		.align	3
 1028              	.LC2:
 1029 0028 536C6162 		.string	"Slab address "
 1029      20616464 
 1029      72657373 
 1029      2000
 1030 0036 0000     		.align	3
 1031              	.LC3:
 1032 0038 4E756D62 		.string	"Number of allocated objects "
 1032      6572206F 
 1032      6620616C 
 1032      6C6F6361 
 1032      74656420 
 1033 0055 000000   		.align	3
 1034              	.LC4:
 1035 0058 4E756D62 		.string	"Number of objects "
 1035      6572206F 
 1035      66206F62 
 1035      6A656374 
 1035      732000
 1036 006b 00000000 		.align	3
 1036      00
 1037              	.LC5:
GAS LISTING /tmp/cc6KI5Hb.s 			page 24


 1038 0070 0A00     		.string	"\n"
 1039              		.text
 1040              		.align	2
 1041              		.globl	_Z13printSlabInfoP6slab_s
 1043              	_Z13printSlabInfoP6slab_s:
 1044              	.LFB20:
 229:src/slabAllocator.cpp **** 
 230:src/slabAllocator.cpp **** void printSlabInfo(slab_t* slab)
 231:src/slabAllocator.cpp **** {
 1045              		.loc 1 231 1 is_stmt 1
 1046              		.cfi_startproc
 1047              	.LVL93:
 1048 0584 130101FE 		addi	sp,sp,-32
 1049              		.cfi_def_cfa_offset 32
 1050 0588 233C1100 		sd	ra,24(sp)
 1051 058c 23388100 		sd	s0,16(sp)
 1052 0590 23349100 		sd	s1,8(sp)
 1053 0594 23302101 		sd	s2,0(sp)
 1054              		.cfi_offset 1, -8
 1055              		.cfi_offset 8, -16
 1056              		.cfi_offset 9, -24
 1057              		.cfi_offset 18, -32
 1058 0598 13040102 		addi	s0,sp,32
 1059              		.cfi_def_cfa 8, 0
 1060 059c 13090500 		mv	s2,a0
 232:src/slabAllocator.cpp ****     KConsole::trapPrintString("One slab info---------\n");
 1061              		.loc 1 232 5
 1062              		.loc 1 232 30 is_stmt 0
 1063 05a0 17050000 		lla	a0,.LC1
 1063      13050500 
 1064              	.LVL94:
 1065 05a8 97000000 		call	_ZN8KConsole15trapPrintStringEPKc@plt
 1065      E7800000 
 1066              	.LVL95:
 233:src/slabAllocator.cpp ****     KConsole::trapPrintStringInt("Slab address ",(size_t)slab,16);
 1067              		.loc 1 233 5 is_stmt 1
 1068              		.loc 1 233 33 is_stmt 0
 1069 05b0 13060001 		li	a2,16
 1070 05b4 93050900 		mv	a1,s2
 1071 05b8 17050000 		lla	a0,.LC2
 1071      13050500 
 1072 05c0 97000000 		call	_ZN8KConsole18trapPrintStringIntEPKcmi@plt
 1072      E7800000 
 1073              	.LVL96:
 234:src/slabAllocator.cpp ****     KConsole::trapPrintStringInt("Number of allocated objects ",slab->numOfAllocatedObjects);
 1074              		.loc 1 234 5 is_stmt 1
 1075              		.loc 1 234 33 is_stmt 0
 1076 05c8 1306A000 		li	a2,10
 1077 05cc 83350902 		ld	a1,32(s2)
 1078 05d0 17050000 		lla	a0,.LC3
 1078      13050500 
 1079 05d8 97000000 		call	_ZN8KConsole18trapPrintStringIntEPKcmi@plt
 1079      E7800000 
 1080              	.LVL97:
 235:src/slabAllocator.cpp ****     KConsole::trapPrintStringInt("Number of objects ", slab->numOfObjects);
 1081              		.loc 1 235 5 is_stmt 1
 1082              		.loc 1 235 33 is_stmt 0
GAS LISTING /tmp/cc6KI5Hb.s 			page 25


 1083 05e0 1306A000 		li	a2,10
 1084 05e4 83358901 		ld	a1,24(s2)
 1085 05e8 17050000 		lla	a0,.LC4
 1085      13050500 
 1086 05f0 97000000 		call	_ZN8KConsole18trapPrintStringIntEPKcmi@plt
 1086      E7800000 
 1087              	.LVL98:
 236:src/slabAllocator.cpp ****     for(size_t i = 0;i < (slab->numOfObjects + 7) / 8;i++)
 1088              		.loc 1 236 5 is_stmt 1
 1089              	.LBB13:
 1090              		.loc 1 236 16 is_stmt 0
 1091 05f8 93040000 		li	s1,0
 1092              	.LVL99:
 1093              	.L65:
 1094              		.loc 1 236 24 is_stmt 1 discriminator 3
 1095              		.loc 1 236 33 is_stmt 0 discriminator 3
 1096 05fc 83378901 		ld	a5,24(s2)
 1097              		.loc 1 236 46 discriminator 3
 1098 0600 93877700 		addi	a5,a5,7
 1099              		.loc 1 236 51 discriminator 3
 1100 0604 93D73700 		srli	a5,a5,3
 1101              		.loc 1 236 24 discriminator 3
 1102 0608 63FAF402 		bleu	a5,s1,.L63
 237:src/slabAllocator.cpp ****     {
 238:src/slabAllocator.cpp ****         KConsole::trapPrintInt((size_t)slab->allocated[i], 16);
 1103              		.loc 1 238 9 is_stmt 1 discriminator 2
 1104              		.loc 1 238 57 is_stmt 0 discriminator 2
 1105 060c B3079900 		add	a5,s2,s1
 1106              		.loc 1 238 31 discriminator 2
 1107 0610 13060000 		li	a2,0
 1108 0614 93050001 		li	a1,16
 1109 0618 03C58702 		lbu	a0,40(a5)
 1110 061c 97000000 		call	_ZN8KConsole12trapPrintIntEmii@plt
 1110      E7800000 
 1111              	.LVL100:
 239:src/slabAllocator.cpp ****         KConsole::trapPrintString("\n");
 1112              		.loc 1 239 9 is_stmt 1 discriminator 2
 1113              		.loc 1 239 34 is_stmt 0 discriminator 2
 1114 0624 17050000 		lla	a0,.LC5
 1114      13050500 
 1115 062c 97000000 		call	_ZN8KConsole15trapPrintStringEPKc@plt
 1115      E7800000 
 1116              	.LVL101:
 236:src/slabAllocator.cpp ****     for(size_t i = 0;i < (slab->numOfObjects + 7) / 8;i++)
 1117              		.loc 1 236 5 is_stmt 1 discriminator 2
 1118 0634 93841400 		addi	s1,s1,1
 1119              	.LVL102:
 1120 0638 6FF05FFC 		j	.L65
 1121              	.L63:
 1122              	.LBE13:
 240:src/slabAllocator.cpp ****     }
 241:src/slabAllocator.cpp **** }
 1123              		.loc 1 241 1 is_stmt 0
 1124 063c 83308101 		ld	ra,24(sp)
 1125              		.cfi_restore 1
 1126 0640 03340101 		ld	s0,16(sp)
 1127              		.cfi_restore 8
GAS LISTING /tmp/cc6KI5Hb.s 			page 26


 1128              		.cfi_def_cfa 2, 32
 1129 0644 83348100 		ld	s1,8(sp)
 1130              		.cfi_restore 9
 1131              	.LVL103:
 1132 0648 03390100 		ld	s2,0(sp)
 1133              		.cfi_restore 18
 1134              	.LVL104:
 1135 064c 13010102 		addi	sp,sp,32
 1136              		.cfi_def_cfa_offset 0
 1137 0650 67800000 		jr	ra
 1138              		.cfi_endproc
 1139              	.LFE20:
 1141              		.align	2
 1142              		.globl	_Z16free_slab_objectP6slab_sPKv
 1144              	_Z16free_slab_objectP6slab_sPKv:
 1145              	.LFB21:
 242:src/slabAllocator.cpp **** 
 243:src/slabAllocator.cpp **** void free_slab_object(slab_t* slab, const void* objp)
 244:src/slabAllocator.cpp **** {
 1146              		.loc 1 244 1 is_stmt 1
 1147              		.cfi_startproc
 1148              	.LVL105:
 1149 0654 93860500 		mv	a3,a1
 245:src/slabAllocator.cpp ****     int indexOfObject = ((size_t)objp - sizeof(slab_t) - (size_t)slab) / slab->owner->obj_size;
 1150              		.loc 1 245 5
 1151              		.loc 1 245 56 is_stmt 0
 1152 0658 3387A540 		sub	a4,a1,a0
 1153 065c 130787FB 		addi	a4,a4,-72
 1154              		.loc 1 245 80
 1155 0660 83370501 		ld	a5,16(a0)
 1156              		.loc 1 245 87
 1157 0664 83B70706 		ld	a5,96(a5)
 1158              		.loc 1 245 72
 1159 0668 3357F702 		divu	a4,a4,a5
 1160              		.loc 1 245 9
 1161 066c 9B050700 		sext.w	a1,a4
 1162              	.LVL106:
 246:src/slabAllocator.cpp ****     if((size_t)objp != (size_t)slab + sizeof(slab_t) + indexOfObject*slab->owner->obj_size) //addre
 1163              		.loc 1 246 5 is_stmt 1
 1164              		.loc 1 246 69 is_stmt 0
 1165 0670 B387B702 		mul	a5,a5,a1
 1166              		.loc 1 246 54
 1167 0674 B307F500 		add	a5,a0,a5
 1168 0678 93878704 		addi	a5,a5,72
 1169              		.loc 1 246 5
 1170 067c 6384F600 		beq	a3,a5,.L75
 1171 0680 67800000 		ret
 1172              	.L75:
 244:src/slabAllocator.cpp ****     int indexOfObject = ((size_t)objp - sizeof(slab_t) - (size_t)slab) / slab->owner->obj_size;
 1173              		.loc 1 244 1
 1174 0684 130101FE 		addi	sp,sp,-32
 1175              		.cfi_def_cfa_offset 32
 1176 0688 233C1100 		sd	ra,24(sp)
 1177 068c 23388100 		sd	s0,16(sp)
 1178 0690 23349100 		sd	s1,8(sp)
 1179              		.cfi_offset 1, -8
 1180              		.cfi_offset 8, -16
GAS LISTING /tmp/cc6KI5Hb.s 			page 27


 1181              		.cfi_offset 9, -24
 1182 0694 13040102 		addi	s0,sp,32
 1183              		.cfi_def_cfa 8, 0
 1184 0698 93040500 		mv	s1,a0
 247:src/slabAllocator.cpp ****         return;
 248:src/slabAllocator.cpp **** 
 249:src/slabAllocator.cpp ****     //TODO
 250:src/slabAllocator.cpp ****     //test if the index was even marked as taken
 251:src/slabAllocator.cpp ****     resetAllocatedIndex(slab, indexOfObject);
 1185              		.loc 1 251 5 is_stmt 1
 1186              		.loc 1 251 24 is_stmt 0
 1187 069c 97000000 		call	_Z19resetAllocatedIndexP6slab_si
 1187      E7800000 
 1188              	.LVL107:
 252:src/slabAllocator.cpp ****     if(slab->numOfObjects == slab->numOfAllocatedObjects)
 1189              		.loc 1 252 5 is_stmt 1
 1190              		.loc 1 252 14 is_stmt 0
 1191 06a4 03B78401 		ld	a4,24(s1)
 1192              		.loc 1 252 36
 1193 06a8 83B70402 		ld	a5,32(s1)
 1194              		.loc 1 252 5
 1195 06ac 6306F702 		beq	a4,a5,.L76
 253:src/slabAllocator.cpp ****         removeFullSlab(slab->owner, slab);
 254:src/slabAllocator.cpp ****     else if(slab->numOfAllocatedObjects == 1)
 1196              		.loc 1 254 10 is_stmt 1
 1197 06b0 13071000 		li	a4,1
 1198 06b4 638CE702 		beq	a5,a4,.L77
 1199              	.L70:
 255:src/slabAllocator.cpp ****         removePartialSlab(slab->owner, slab);
 256:src/slabAllocator.cpp ****     slab->numOfAllocatedObjects--;
 1200              		.loc 1 256 5
 1201              		.loc 1 256 11 is_stmt 0
 1202 06b8 83B70402 		ld	a5,32(s1)
 1203              		.loc 1 256 32
 1204 06bc 9387F7FF 		addi	a5,a5,-1
 1205 06c0 23B0F402 		sd	a5,32(s1)
 257:src/slabAllocator.cpp **** }
 1206              		.loc 1 257 1
 1207 06c4 83308101 		ld	ra,24(sp)
 1208              		.cfi_remember_state
 1209              		.cfi_restore 1
 1210 06c8 03340101 		ld	s0,16(sp)
 1211              		.cfi_restore 8
 1212              		.cfi_def_cfa 2, 32
 1213 06cc 83348100 		ld	s1,8(sp)
 1214              		.cfi_restore 9
 1215              	.LVL108:
 1216 06d0 13010102 		addi	sp,sp,32
 1217              		.cfi_def_cfa_offset 0
 1218 06d4 67800000 		jr	ra
 1219              	.LVL109:
 1220              	.L76:
 1221              		.cfi_restore_state
 253:src/slabAllocator.cpp ****         removeFullSlab(slab->owner, slab);
 1222              		.loc 1 253 9 is_stmt 1
 253:src/slabAllocator.cpp ****         removeFullSlab(slab->owner, slab);
 1223              		.loc 1 253 23 is_stmt 0
GAS LISTING /tmp/cc6KI5Hb.s 			page 28


 1224 06d8 93850400 		mv	a1,s1
 1225 06dc 03B50401 		ld	a0,16(s1)
 1226 06e0 97000000 		call	_Z14removeFullSlabP12kmem_cache_sP6slab_s
 1226      E7800000 
 1227              	.LVL110:
 1228 06e8 6FF01FFD 		j	.L70
 1229              	.L77:
 255:src/slabAllocator.cpp ****         removePartialSlab(slab->owner, slab);
 1230              		.loc 1 255 9 is_stmt 1
 255:src/slabAllocator.cpp ****         removePartialSlab(slab->owner, slab);
 1231              		.loc 1 255 26 is_stmt 0
 1232 06ec 93850400 		mv	a1,s1
 1233 06f0 03B50401 		ld	a0,16(s1)
 1234 06f4 97000000 		call	_Z17removePartialSlabP12kmem_cache_sP6slab_s
 1234      E7800000 
 1235              	.LVL111:
 1236 06fc 6FF0DFFB 		j	.L70
 1237              		.cfi_endproc
 1238              	.LFE21:
 1240              		.align	2
 1241              		.globl	_Z9kmem_initPvi
 1243              	_Z9kmem_initPvi:
 1244              	.LFB23:
 258:src/slabAllocator.cpp **** 
 259:src/slabAllocator.cpp **** void printSlabAllocatorInfo()
 260:src/slabAllocator.cpp **** {
 261:src/slabAllocator.cpp ****     KConsole::trapPrintString("Slab allocator info-------------------------------------------------
 262:src/slabAllocator.cpp ****     KConsole::trapPrintStringInt("Slab allocator buddy address ", (size_t)slabAllocator->buddy,16);
 263:src/slabAllocator.cpp ****     KConsole::trapPrintStringInt("Slab allocator address ", (size_t)slabAllocator, 16);
 264:src/slabAllocator.cpp ****     KConsole::trapPrintString("Cache of caches info\n");
 265:src/slabAllocator.cpp ****     kmem_cache_info(&slabAllocator->cacheOfCaches);
 266:src/slabAllocator.cpp ****     KConsole::trapPrintString("Caches for buffers\n");
 267:src/slabAllocator.cpp ****     for(size_t i = 0;i < CACHE_BUFFER_SIZE;i++)
 268:src/slabAllocator.cpp ****     {
 269:src/slabAllocator.cpp ****         if(slabAllocator->cachesBuffers[i] != nullptr)
 270:src/slabAllocator.cpp ****         {
 271:src/slabAllocator.cpp ****             kmem_cache_info(slabAllocator->cachesBuffers[i]);
 272:src/slabAllocator.cpp ****         }
 273:src/slabAllocator.cpp ****     }
 274:src/slabAllocator.cpp **** }
 275:src/slabAllocator.cpp **** 
 276:src/slabAllocator.cpp **** //slab allocator public interface------------------------------------------------------------------
 277:src/slabAllocator.cpp **** void kmem_init(void *space, int block_num)
 278:src/slabAllocator.cpp **** {
 1245              		.loc 1 278 1 is_stmt 1
 1246              		.cfi_startproc
 1247              	.LVL112:
 1248 0700 130101FF 		addi	sp,sp,-16
 1249              		.cfi_def_cfa_offset 16
 1250 0704 23341100 		sd	ra,8(sp)
 1251 0708 23308100 		sd	s0,0(sp)
 1252              		.cfi_offset 1, -8
 1253              		.cfi_offset 8, -16
 1254 070c 13040101 		addi	s0,sp,16
 1255              		.cfi_def_cfa 8, 0
 279:src/slabAllocator.cpp ****     buddyAllocator* buddy = buddy_init(space, block_num);
 1256              		.loc 1 279 5
GAS LISTING /tmp/cc6KI5Hb.s 			page 29


 1257              		.loc 1 279 39 is_stmt 0
 1258 0710 97000000 		call	_Z10buddy_initPvm@plt
 1258      E7800000 
 1259              	.LVL113:
 280:src/slabAllocator.cpp ****     slabAllocator = slab_allocator_init(buddy);
 1260              		.loc 1 280 5 is_stmt 1
 1261              		.loc 1 280 40 is_stmt 0
 1262 0718 97000000 		call	_Z19slab_allocator_initP14buddyAllocator
 1262      E7800000 
 1263              	.LVL114:
 1264              		.loc 1 280 19
 1265 0720 97070000 		sd	a0,.LANCHOR0,a5
 1265      23B0A700 
 281:src/slabAllocator.cpp ****     //printSlabAllocatorInfo();
 282:src/slabAllocator.cpp **** }
 1266              		.loc 1 282 1
 1267 0728 83308100 		ld	ra,8(sp)
 1268              		.cfi_restore 1
 1269 072c 03340100 		ld	s0,0(sp)
 1270              		.cfi_restore 8
 1271              		.cfi_def_cfa 2, 16
 1272 0730 13010101 		addi	sp,sp,16
 1273              		.cfi_def_cfa_offset 0
 1274 0734 67800000 		jr	ra
 1275              		.cfi_endproc
 1276              	.LFE23:
 1278              		.align	2
 1279              		.globl	_Z16kmem_cache_allocP12kmem_cache_s
 1281              	_Z16kmem_cache_allocP12kmem_cache_s:
 1282              	.LFB25:
 283:src/slabAllocator.cpp **** 
 284:src/slabAllocator.cpp **** //TODO
 285:src/slabAllocator.cpp **** //protect everything from nullptrs
 286:src/slabAllocator.cpp **** kmem_cache_t *kmem_cache_create(const char *name, size_t size,
 287:src/slabAllocator.cpp ****                                 void (*ctor)(void *),
 288:src/slabAllocator.cpp ****                                 void (*dtor)(void *))
 289:src/slabAllocator.cpp **** {
 290:src/slabAllocator.cpp ****     kmem_cache_t* newCache = (kmem_cache_t*)kmem_cache_alloc(&slabAllocator->cacheOfCaches);
 291:src/slabAllocator.cpp ****     newCache->slabs_empty = nullptr;
 292:src/slabAllocator.cpp ****     newCache->slabs_partial = nullptr;
 293:src/slabAllocator.cpp ****     newCache->slabs_full = nullptr;
 294:src/slabAllocator.cpp ****     newCache->dtor = dtor;
 295:src/slabAllocator.cpp ****     newCache->ctor = ctor;
 296:src/slabAllocator.cpp ****     strcpy(name, newCache->cacheName);
 297:src/slabAllocator.cpp ****     newCache->obj_size = size;
 298:src/slabAllocator.cpp ****     newCache->slab_size = getOptimalSlabSize(size);
 299:src/slabAllocator.cpp ****     return newCache;
 300:src/slabAllocator.cpp **** }
 301:src/slabAllocator.cpp **** 
 302:src/slabAllocator.cpp **** void *kmem_cache_alloc(kmem_cache_t *cachep)
 303:src/slabAllocator.cpp **** {
 1283              		.loc 1 303 1 is_stmt 1
 1284              		.cfi_startproc
 1285              	.LVL115:
 1286 0738 130101FE 		addi	sp,sp,-32
 1287              		.cfi_def_cfa_offset 32
 1288 073c 233C1100 		sd	ra,24(sp)
GAS LISTING /tmp/cc6KI5Hb.s 			page 30


 1289 0740 23388100 		sd	s0,16(sp)
 1290 0744 23349100 		sd	s1,8(sp)
 1291 0748 23302101 		sd	s2,0(sp)
 1292              		.cfi_offset 1, -8
 1293              		.cfi_offset 8, -16
 1294              		.cfi_offset 9, -24
 1295              		.cfi_offset 18, -32
 1296 074c 13040102 		addi	s0,sp,32
 1297              		.cfi_def_cfa 8, 0
 1298 0750 93040500 		mv	s1,a0
 304:src/slabAllocator.cpp ****     if(cachep->slabs_partial != nullptr)
 1299              		.loc 1 304 5
 1300              	.LBB14:
 1301              		.loc 1 304 16 is_stmt 0
 1302 0754 03350505 		ld	a0,80(a0)
 1303              	.LVL116:
 1304              		.loc 1 304 5
 1305 0758 631C0502 		bnez	a0,.L88
 1306              	.LBE14:
 305:src/slabAllocator.cpp ****     {
 306:src/slabAllocator.cpp ****         void* allocatedAddr = allocateObject(cachep->slabs_partial);
 307:src/slabAllocator.cpp ****         if(full(cachep->slabs_partial))
 308:src/slabAllocator.cpp ****             putPartialToFull(cachep);
 309:src/slabAllocator.cpp ****         return allocatedAddr;
 310:src/slabAllocator.cpp ****     }
 311:src/slabAllocator.cpp ****     else if(cachep->slabs_empty != nullptr)
 1307              		.loc 1 311 10 is_stmt 1
 1308              	.LBB21:
 1309              	.LBB15:
 1310              		.loc 1 311 21 is_stmt 0
 1311 075c 03B50404 		ld	a0,64(s1)
 1312              		.loc 1 311 10
 1313 0760 630C0506 		beqz	a0,.L84
 1314              	.LBB16:
 312:src/slabAllocator.cpp ****     {
 313:src/slabAllocator.cpp ****         void* allocatedAddr = allocateObject(cachep->slabs_empty);
 1315              		.loc 1 313 9 is_stmt 1
 1316              		.loc 1 313 45 is_stmt 0
 1317 0764 97000000 		call	_Z14allocateObjectP6slab_s
 1317      E7800000 
 1318              	.LVL117:
 1319 076c 13090500 		mv	s2,a0
 1320              	.LVL118:
 314:src/slabAllocator.cpp ****         if(!empty(cachep->slabs_empty))
 1321              		.loc 1 314 9 is_stmt 1
 1322              		.loc 1 314 18 is_stmt 0
 1323 0770 03B50404 		ld	a0,64(s1)
 1324              	.LVL119:
 1325 0774 97000000 		call	_Z5emptyP6slab_s
 1325      E7800000 
 1326              	.LVL120:
 1327              		.loc 1 314 9
 1328 077c 63180502 		bnez	a0,.L80
 315:src/slabAllocator.cpp ****             putEmptyToPartial(cachep);
 1329              		.loc 1 315 13 is_stmt 1
 1330              		.loc 1 315 30 is_stmt 0
 1331 0780 13850400 		mv	a0,s1
GAS LISTING /tmp/cc6KI5Hb.s 			page 31


 1332 0784 97000000 		call	_Z17putEmptyToPartialP12kmem_cache_s
 1332      E7800000 
 1333              	.LVL121:
 316:src/slabAllocator.cpp ****         return allocatedAddr;
 1334              		.loc 1 316 9 is_stmt 1
 1335              		.loc 1 316 16 is_stmt 0
 1336 078c 6F000002 		j	.L80
 1337              	.LVL122:
 1338              	.L88:
 1339              	.LBE16:
 1340              	.LBE15:
 1341              	.LBB18:
 306:src/slabAllocator.cpp ****         if(full(cachep->slabs_partial))
 1342              		.loc 1 306 9 is_stmt 1
 306:src/slabAllocator.cpp ****         if(full(cachep->slabs_partial))
 1343              		.loc 1 306 45 is_stmt 0
 1344 0790 97000000 		call	_Z14allocateObjectP6slab_s
 1344      E7800000 
 1345              	.LVL123:
 1346 0798 13090500 		mv	s2,a0
 1347              	.LVL124:
 307:src/slabAllocator.cpp ****             putPartialToFull(cachep);
 1348              		.loc 1 307 9 is_stmt 1
 307:src/slabAllocator.cpp ****             putPartialToFull(cachep);
 1349              		.loc 1 307 16 is_stmt 0
 1350 079c 03B50405 		ld	a0,80(s1)
 1351              	.LVL125:
 1352 07a0 97000000 		call	_Z4fullP6slab_s
 1352      E7800000 
 1353              	.LVL126:
 307:src/slabAllocator.cpp ****             putPartialToFull(cachep);
 1354              		.loc 1 307 9
 1355 07a8 63100502 		bnez	a0,.L89
 1356              	.LVL127:
 1357              	.L80:
 1358              	.LBE18:
 1359              	.LBE21:
 317:src/slabAllocator.cpp ****     }
 318:src/slabAllocator.cpp ****     else
 319:src/slabAllocator.cpp ****     {
 320:src/slabAllocator.cpp ****         allocateSlab(cachep);
 321:src/slabAllocator.cpp ****         if(cachep->slabs_empty == nullptr)
 322:src/slabAllocator.cpp ****             return nullptr;
 323:src/slabAllocator.cpp ****         void* allocatedAddr = allocateObject(cachep->slabs_empty);
 324:src/slabAllocator.cpp ****         if(!empty(cachep->slabs_empty))
 325:src/slabAllocator.cpp ****             putEmptyToPartial(cachep);
 326:src/slabAllocator.cpp ****         return allocatedAddr;
 327:src/slabAllocator.cpp ****     }
 328:src/slabAllocator.cpp ****     return nullptr;
 329:src/slabAllocator.cpp **** }
 1360              		.loc 1 329 1
 1361 07ac 13050900 		mv	a0,s2
 1362 07b0 83308101 		ld	ra,24(sp)
 1363              		.cfi_remember_state
 1364              		.cfi_restore 1
 1365 07b4 03340101 		ld	s0,16(sp)
 1366              		.cfi_restore 8
GAS LISTING /tmp/cc6KI5Hb.s 			page 32


 1367              		.cfi_def_cfa 2, 32
 1368 07b8 83348100 		ld	s1,8(sp)
 1369              		.cfi_restore 9
 1370              	.LVL128:
 1371 07bc 03390100 		ld	s2,0(sp)
 1372              		.cfi_restore 18
 1373 07c0 13010102 		addi	sp,sp,32
 1374              		.cfi_def_cfa_offset 0
 1375 07c4 67800000 		jr	ra
 1376              	.LVL129:
 1377              	.L89:
 1378              		.cfi_restore_state
 1379              	.LBB22:
 1380              	.LBB19:
 308:src/slabAllocator.cpp ****         return allocatedAddr;
 1381              		.loc 1 308 13 is_stmt 1
 308:src/slabAllocator.cpp ****         return allocatedAddr;
 1382              		.loc 1 308 29 is_stmt 0
 1383 07c8 13850400 		mv	a0,s1
 1384 07cc 97000000 		call	_Z16putPartialToFullP12kmem_cache_s
 1384      E7800000 
 1385              	.LVL130:
 309:src/slabAllocator.cpp ****     }
 1386              		.loc 1 309 9 is_stmt 1
 309:src/slabAllocator.cpp ****     }
 1387              		.loc 1 309 16 is_stmt 0
 1388 07d4 6FF09FFD 		j	.L80
 1389              	.LVL131:
 1390              	.L84:
 1391              	.LBE19:
 1392              	.LBB20:
 1393              	.LBB17:
 320:src/slabAllocator.cpp ****         if(cachep->slabs_empty == nullptr)
 1394              		.loc 1 320 9 is_stmt 1
 320:src/slabAllocator.cpp ****         if(cachep->slabs_empty == nullptr)
 1395              		.loc 1 320 21 is_stmt 0
 1396 07d8 13850400 		mv	a0,s1
 1397 07dc 97000000 		call	_Z12allocateSlabP12kmem_cache_s
 1397      E7800000 
 1398              	.LVL132:
 321:src/slabAllocator.cpp ****             return nullptr;
 1399              		.loc 1 321 9 is_stmt 1
 321:src/slabAllocator.cpp ****             return nullptr;
 1400              		.loc 1 321 20 is_stmt 0
 1401 07e4 03B90404 		ld	s2,64(s1)
 321:src/slabAllocator.cpp ****             return nullptr;
 1402              		.loc 1 321 9
 1403 07e8 E30209FC 		beqz	s2,.L80
 323:src/slabAllocator.cpp ****         if(!empty(cachep->slabs_empty))
 1404              		.loc 1 323 9 is_stmt 1
 323:src/slabAllocator.cpp ****         if(!empty(cachep->slabs_empty))
 1405              		.loc 1 323 45 is_stmt 0
 1406 07ec 13050900 		mv	a0,s2
 1407 07f0 97000000 		call	_Z14allocateObjectP6slab_s
 1407      E7800000 
 1408              	.LVL133:
 1409 07f8 13090500 		mv	s2,a0
GAS LISTING /tmp/cc6KI5Hb.s 			page 33


 1410              	.LVL134:
 324:src/slabAllocator.cpp ****             putEmptyToPartial(cachep);
 1411              		.loc 1 324 9 is_stmt 1
 324:src/slabAllocator.cpp ****             putEmptyToPartial(cachep);
 1412              		.loc 1 324 18 is_stmt 0
 1413 07fc 03B50404 		ld	a0,64(s1)
 1414              	.LVL135:
 1415 0800 97000000 		call	_Z5emptyP6slab_s
 1415      E7800000 
 1416              	.LVL136:
 324:src/slabAllocator.cpp ****             putEmptyToPartial(cachep);
 1417              		.loc 1 324 9
 1418 0808 E31205FA 		bnez	a0,.L80
 325:src/slabAllocator.cpp ****         return allocatedAddr;
 1419              		.loc 1 325 13 is_stmt 1
 325:src/slabAllocator.cpp ****         return allocatedAddr;
 1420              		.loc 1 325 30 is_stmt 0
 1421 080c 13850400 		mv	a0,s1
 1422 0810 97000000 		call	_Z17putEmptyToPartialP12kmem_cache_s
 1422      E7800000 
 1423              	.LVL137:
 326:src/slabAllocator.cpp ****     }
 1424              		.loc 1 326 9 is_stmt 1
 326:src/slabAllocator.cpp ****     }
 1425              		.loc 1 326 16 is_stmt 0
 1426 0818 6FF05FF9 		j	.L80
 1427              	.LBE17:
 1428              	.LBE20:
 1429              	.LBE22:
 1430              		.cfi_endproc
 1431              	.LFE25:
 1433              		.align	2
 1434              		.globl	_Z17kmem_cache_createPKcmPFvPvES3_
 1436              	_Z17kmem_cache_createPKcmPFvPvES3_:
 1437              	.LFB24:
 289:src/slabAllocator.cpp ****     kmem_cache_t* newCache = (kmem_cache_t*)kmem_cache_alloc(&slabAllocator->cacheOfCaches);
 1438              		.loc 1 289 1 is_stmt 1
 1439              		.cfi_startproc
 1440              	.LVL138:
 1441 081c 130101FC 		addi	sp,sp,-64
 1442              		.cfi_def_cfa_offset 64
 1443 0820 233C1102 		sd	ra,56(sp)
 1444 0824 23388102 		sd	s0,48(sp)
 1445 0828 23349102 		sd	s1,40(sp)
 1446 082c 23302103 		sd	s2,32(sp)
 1447 0830 233C3101 		sd	s3,24(sp)
 1448 0834 23384101 		sd	s4,16(sp)
 1449 0838 23345101 		sd	s5,8(sp)
 1450              		.cfi_offset 1, -8
 1451              		.cfi_offset 8, -16
 1452              		.cfi_offset 9, -24
 1453              		.cfi_offset 18, -32
 1454              		.cfi_offset 19, -40
 1455              		.cfi_offset 20, -48
 1456              		.cfi_offset 21, -56
 1457 083c 13040104 		addi	s0,sp,64
 1458              		.cfi_def_cfa 8, 0
GAS LISTING /tmp/cc6KI5Hb.s 			page 34


 1459 0840 93090500 		mv	s3,a0
 1460 0844 13890500 		mv	s2,a1
 1461 0848 130A0600 		mv	s4,a2
 1462 084c 938A0600 		mv	s5,a3
 290:src/slabAllocator.cpp ****     newCache->slabs_empty = nullptr;
 1463              		.loc 1 290 5
 290:src/slabAllocator.cpp ****     newCache->slabs_empty = nullptr;
 1464              		.loc 1 290 61 is_stmt 0
 1465 0850 17050000 		ld	a0,.LANCHOR0
 1465      03350500 
 1466              	.LVL139:
 1467 0858 13050507 		addi	a0,a0,112
 1468 085c 97000000 		call	_Z16kmem_cache_allocP12kmem_cache_s
 1468      E7800000 
 1469              	.LVL140:
 1470 0864 93040500 		mv	s1,a0
 1471              	.LVL141:
 291:src/slabAllocator.cpp ****     newCache->slabs_partial = nullptr;
 1472              		.loc 1 291 5 is_stmt 1
 291:src/slabAllocator.cpp ****     newCache->slabs_partial = nullptr;
 1473              		.loc 1 291 27 is_stmt 0
 1474 0868 23300504 		sd	zero,64(a0)
 292:src/slabAllocator.cpp ****     newCache->slabs_full = nullptr;
 1475              		.loc 1 292 5 is_stmt 1
 292:src/slabAllocator.cpp ****     newCache->slabs_full = nullptr;
 1476              		.loc 1 292 29 is_stmt 0
 1477 086c 23380504 		sd	zero,80(a0)
 293:src/slabAllocator.cpp ****     newCache->dtor = dtor;
 1478              		.loc 1 293 5 is_stmt 1
 293:src/slabAllocator.cpp ****     newCache->dtor = dtor;
 1479              		.loc 1 293 26 is_stmt 0
 1480 0870 23340504 		sd	zero,72(a0)
 294:src/slabAllocator.cpp ****     newCache->ctor = ctor;
 1481              		.loc 1 294 5 is_stmt 1
 294:src/slabAllocator.cpp ****     newCache->ctor = ctor;
 1482              		.loc 1 294 20 is_stmt 0
 1483 0874 23385507 		sd	s5,112(a0)
 295:src/slabAllocator.cpp ****     strcpy(name, newCache->cacheName);
 1484              		.loc 1 295 5 is_stmt 1
 295:src/slabAllocator.cpp ****     strcpy(name, newCache->cacheName);
 1485              		.loc 1 295 20 is_stmt 0
 1486 0878 23344507 		sd	s4,104(a0)
 296:src/slabAllocator.cpp ****     newCache->obj_size = size;
 1487              		.loc 1 296 5 is_stmt 1
 296:src/slabAllocator.cpp ****     newCache->obj_size = size;
 1488              		.loc 1 296 11 is_stmt 0
 1489 087c 93050500 		mv	a1,a0
 1490 0880 13850900 		mv	a0,s3
 1491 0884 97000000 		call	_Z6strcpyPKcPc
 1491      E7800000 
 1492              	.LVL142:
 297:src/slabAllocator.cpp ****     newCache->slab_size = getOptimalSlabSize(size);
 1493              		.loc 1 297 5 is_stmt 1
 297:src/slabAllocator.cpp ****     newCache->slab_size = getOptimalSlabSize(size);
 1494              		.loc 1 297 24 is_stmt 0
 1495 088c 23B02407 		sd	s2,96(s1)
 298:src/slabAllocator.cpp ****     return newCache;
GAS LISTING /tmp/cc6KI5Hb.s 			page 35


 1496              		.loc 1 298 5 is_stmt 1
 298:src/slabAllocator.cpp ****     return newCache;
 1497              		.loc 1 298 45 is_stmt 0
 1498 0890 13050900 		mv	a0,s2
 1499 0894 97000000 		call	_Z18getOptimalSlabSizem
 1499      E7800000 
 1500              	.LVL143:
 298:src/slabAllocator.cpp ****     return newCache;
 1501              		.loc 1 298 25
 1502 089c 23BCA404 		sd	a0,88(s1)
 299:src/slabAllocator.cpp **** }
 1503              		.loc 1 299 5 is_stmt 1
 300:src/slabAllocator.cpp **** 
 1504              		.loc 1 300 1 is_stmt 0
 1505 08a0 13850400 		mv	a0,s1
 1506 08a4 83308103 		ld	ra,56(sp)
 1507              		.cfi_restore 1
 1508 08a8 03340103 		ld	s0,48(sp)
 1509              		.cfi_restore 8
 1510              		.cfi_def_cfa 2, 64
 1511 08ac 83348102 		ld	s1,40(sp)
 1512              		.cfi_restore 9
 1513              	.LVL144:
 1514 08b0 03390102 		ld	s2,32(sp)
 1515              		.cfi_restore 18
 1516              	.LVL145:
 1517 08b4 83398101 		ld	s3,24(sp)
 1518              		.cfi_restore 19
 1519              	.LVL146:
 1520 08b8 033A0101 		ld	s4,16(sp)
 1521              		.cfi_restore 20
 1522              	.LVL147:
 1523 08bc 833A8100 		ld	s5,8(sp)
 1524              		.cfi_restore 21
 1525              	.LVL148:
 1526 08c0 13010104 		addi	sp,sp,64
 1527              		.cfi_def_cfa_offset 0
 1528 08c4 67800000 		jr	ra
 1529              		.cfi_endproc
 1530              	.LFE24:
 1532              		.align	2
 1533              		.globl	_Z15kmem_cache_freeP12kmem_cache_sPv
 1535              	_Z15kmem_cache_freeP12kmem_cache_sPv:
 1536              	.LFB26:
 330:src/slabAllocator.cpp **** 
 331:src/slabAllocator.cpp **** void kmem_cache_free(kmem_cache_t *cachep, void *objp)
 332:src/slabAllocator.cpp **** {
 1537              		.loc 1 332 1 is_stmt 1
 1538              		.cfi_startproc
 1539              	.LVL149:
 1540 08c8 130101FE 		addi	sp,sp,-32
 1541              		.cfi_def_cfa_offset 32
 1542 08cc 233C1100 		sd	ra,24(sp)
 1543 08d0 23388100 		sd	s0,16(sp)
 1544 08d4 23349100 		sd	s1,8(sp)
 1545              		.cfi_offset 1, -8
 1546              		.cfi_offset 8, -16
GAS LISTING /tmp/cc6KI5Hb.s 			page 36


 1547              		.cfi_offset 9, -24
 1548 08d8 13040102 		addi	s0,sp,32
 1549              		.cfi_def_cfa 8, 0
 1550 08dc 93840500 		mv	s1,a1
 333:src/slabAllocator.cpp ****     slab_t* slab = findSlab(cachep, objp);
 1551              		.loc 1 333 5
 1552              		.loc 1 333 28 is_stmt 0
 1553 08e0 97000000 		call	_Z8findSlabP12kmem_cache_sPKv
 1553      E7800000 
 1554              	.LVL150:
 334:src/slabAllocator.cpp ****     if(slab == nullptr) return;
 1555              		.loc 1 334 5 is_stmt 1
 1556 08e8 63080500 		beqz	a0,.L92
 335:src/slabAllocator.cpp ****     free_slab_object(slab, objp);
 1557              		.loc 1 335 5
 1558              		.loc 1 335 21 is_stmt 0
 1559 08ec 93850400 		mv	a1,s1
 1560 08f0 97000000 		call	_Z16free_slab_objectP6slab_sPKv
 1560      E7800000 
 1561              	.LVL151:
 1562              	.L92:
 336:src/slabAllocator.cpp **** }
 1563              		.loc 1 336 1
 1564 08f8 83308101 		ld	ra,24(sp)
 1565              		.cfi_restore 1
 1566 08fc 03340101 		ld	s0,16(sp)
 1567              		.cfi_restore 8
 1568              		.cfi_def_cfa 2, 32
 1569 0900 83348100 		ld	s1,8(sp)
 1570              		.cfi_restore 9
 1571              	.LVL152:
 1572 0904 13010102 		addi	sp,sp,32
 1573              		.cfi_def_cfa_offset 0
 1574 0908 67800000 		jr	ra
 1575              		.cfi_endproc
 1576              	.LFE26:
 1578              		.section	.rodata.str1.8
 1579 0072 00000000 		.align	3
 1579      0000
 1580              	.LC6:
 1581 0078 4B6D656D 		.string	"Kmem Cache Info-------------------------------------\n"
 1581      20436163 
 1581      68652049 
 1581      6E666F2D 
 1581      2D2D2D2D 
 1582 00ae 0000     		.align	3
 1583              	.LC7:
 1584 00b0 43616368 		.string	"Cache Name "
 1584      65204E61 
 1584      6D652000 
 1585 00bc 00000000 		.align	3
 1586              	.LC8:
 1587 00c0 43616368 		.string	"Cache slab size in blocks "
 1587      6520736C 
 1587      61622073 
 1587      697A6520 
 1587      696E2062 
GAS LISTING /tmp/cc6KI5Hb.s 			page 37


 1588 00db 00000000 		.align	3
 1588      00
 1589              	.LC9:
 1590 00e0 43616368 		.string	"Cache obj size in bytes "
 1590      65206F62 
 1590      6A207369 
 1590      7A652069 
 1590      6E206279 
 1591 00f9 00000000 		.align	3
 1591      000000
 1592              	.LC10:
 1593 0100 536C6162 		.string	"Slabs info-------------------\n"
 1593      7320696E 
 1593      666F2D2D 
 1593      2D2D2D2D 
 1593      2D2D2D2D 
 1594 011f 00       		.align	3
 1595              	.LC11:
 1596 0120 46756C6C 		.string	"Full slabs\n"
 1596      20736C61 
 1596      62730A00 
 1597 012c 00000000 		.align	3
 1598              	.LC12:
 1599 0130 50617274 		.string	"Partial slabs\n"
 1599      69616C20 
 1599      736C6162 
 1599      730A00
 1600 013f 00       		.align	3
 1601              	.LC13:
 1602 0140 456D7074 		.string	"Empty slabs\n"
 1602      7920736C 
 1602      6162730A 
 1602      00
 1603              		.text
 1604              		.align	2
 1605              		.globl	_Z15kmem_cache_infoP12kmem_cache_s
 1607              	_Z15kmem_cache_infoP12kmem_cache_s:
 1608              	.LFB27:
 337:src/slabAllocator.cpp **** 
 338:src/slabAllocator.cpp **** //TODO
 339:src/slabAllocator.cpp **** //what needs to be printed
 340:src/slabAllocator.cpp **** void kmem_cache_info(kmem_cache_t *cachep)
 341:src/slabAllocator.cpp **** {
 1609              		.loc 1 341 1 is_stmt 1
 1610              		.cfi_startproc
 1611              	.LVL153:
 1612 090c 130101FE 		addi	sp,sp,-32
 1613              		.cfi_def_cfa_offset 32
 1614 0910 233C1100 		sd	ra,24(sp)
 1615 0914 23388100 		sd	s0,16(sp)
 1616 0918 23349100 		sd	s1,8(sp)
 1617 091c 23302101 		sd	s2,0(sp)
 1618              		.cfi_offset 1, -8
 1619              		.cfi_offset 8, -16
 1620              		.cfi_offset 9, -24
 1621              		.cfi_offset 18, -32
 1622 0920 13040102 		addi	s0,sp,32
GAS LISTING /tmp/cc6KI5Hb.s 			page 38


 1623              		.cfi_def_cfa 8, 0
 1624 0924 13090500 		mv	s2,a0
 342:src/slabAllocator.cpp ****     KConsole::trapPrintString("Kmem Cache Info-------------------------------------\n");
 1625              		.loc 1 342 5
 1626              		.loc 1 342 30 is_stmt 0
 1627 0928 17050000 		lla	a0,.LC6
 1627      13050500 
 1628              	.LVL154:
 1629 0930 97000000 		call	_ZN8KConsole15trapPrintStringEPKc@plt
 1629      E7800000 
 1630              	.LVL155:
 343:src/slabAllocator.cpp ****     KConsole::trapPrintString("Cache Name ");
 1631              		.loc 1 343 5 is_stmt 1
 1632              		.loc 1 343 30 is_stmt 0
 1633 0938 17050000 		lla	a0,.LC7
 1633      13050500 
 1634 0940 97000000 		call	_ZN8KConsole15trapPrintStringEPKc@plt
 1634      E7800000 
 1635              	.LVL156:
 344:src/slabAllocator.cpp ****     KConsole::trapPrintString(cachep->cacheName); KConsole::trapPrintString("\n");
 1636              		.loc 1 344 5 is_stmt 1
 1637              		.loc 1 344 30 is_stmt 0
 1638 0948 13050900 		mv	a0,s2
 1639 094c 97000000 		call	_ZN8KConsole15trapPrintStringEPKc@plt
 1639      E7800000 
 1640              	.LVL157:
 1641              		.loc 1 344 51 is_stmt 1
 1642              		.loc 1 344 76 is_stmt 0
 1643 0954 17050000 		lla	a0,.LC5
 1643      13050500 
 1644 095c 97000000 		call	_ZN8KConsole15trapPrintStringEPKc@plt
 1644      E7800000 
 1645              	.LVL158:
 345:src/slabAllocator.cpp ****     KConsole::trapPrintStringInt("Cache slab size in blocks ", cachep->slab_size);
 1646              		.loc 1 345 5 is_stmt 1
 1647              		.loc 1 345 33 is_stmt 0
 1648 0964 1306A000 		li	a2,10
 1649 0968 83358905 		ld	a1,88(s2)
 1650 096c 17050000 		lla	a0,.LC8
 1650      13050500 
 1651 0974 97000000 		call	_ZN8KConsole18trapPrintStringIntEPKcmi@plt
 1651      E7800000 
 1652              	.LVL159:
 346:src/slabAllocator.cpp ****     KConsole::trapPrintStringInt("Cache obj size in bytes ", cachep->obj_size);
 1653              		.loc 1 346 5 is_stmt 1
 1654              		.loc 1 346 33 is_stmt 0
 1655 097c 1306A000 		li	a2,10
 1656 0980 83350906 		ld	a1,96(s2)
 1657 0984 17050000 		lla	a0,.LC9
 1657      13050500 
 1658 098c 97000000 		call	_ZN8KConsole18trapPrintStringIntEPKcmi@plt
 1658      E7800000 
 1659              	.LVL160:
 347:src/slabAllocator.cpp ****     
 348:src/slabAllocator.cpp ****     KConsole::trapPrintString("Slabs info-------------------\n");
 1660              		.loc 1 348 5 is_stmt 1
 1661              		.loc 1 348 30 is_stmt 0
GAS LISTING /tmp/cc6KI5Hb.s 			page 39


 1662 0994 17050000 		lla	a0,.LC10
 1662      13050500 
 1663 099c 97000000 		call	_ZN8KConsole15trapPrintStringEPKc@plt
 1663      E7800000 
 1664              	.LVL161:
 349:src/slabAllocator.cpp **** 
 350:src/slabAllocator.cpp ****     KConsole::trapPrintString("Full slabs\n");
 1665              		.loc 1 350 5 is_stmt 1
 1666              		.loc 1 350 30 is_stmt 0
 1667 09a4 17050000 		lla	a0,.LC11
 1667      13050500 
 1668 09ac 97000000 		call	_ZN8KConsole15trapPrintStringEPKc@plt
 1668      E7800000 
 1669              	.LVL162:
 351:src/slabAllocator.cpp ****     slab_t* slab = cachep->slabs_full;
 1670              		.loc 1 351 5 is_stmt 1
 1671              		.loc 1 351 13 is_stmt 0
 1672 09b4 83348904 		ld	s1,72(s2)
 1673              	.LVL163:
 1674              	.L97:
 352:src/slabAllocator.cpp ****     while(slab != nullptr)
 1675              		.loc 1 352 5 is_stmt 1
 1676              		.loc 1 352 16
 1677 09b8 638C0400 		beqz	s1,.L96
 353:src/slabAllocator.cpp ****     {
 354:src/slabAllocator.cpp ****         printSlabInfo(slab);
 1678              		.loc 1 354 9
 1679              		.loc 1 354 22 is_stmt 0
 1680 09bc 13850400 		mv	a0,s1
 1681 09c0 97000000 		call	_Z13printSlabInfoP6slab_s
 1681      E7800000 
 1682              	.LVL164:
 355:src/slabAllocator.cpp ****         slab = slab->next;
 1683              		.loc 1 355 9 is_stmt 1
 1684              		.loc 1 355 14 is_stmt 0
 1685 09c8 83B48400 		ld	s1,8(s1)
 1686              	.LVL165:
 352:src/slabAllocator.cpp ****     while(slab != nullptr)
 1687              		.loc 1 352 5
 1688 09cc 6FF0DFFE 		j	.L97
 1689              	.L96:
 356:src/slabAllocator.cpp ****     }
 357:src/slabAllocator.cpp **** 
 358:src/slabAllocator.cpp ****     KConsole::trapPrintString("Partial slabs\n");
 1690              		.loc 1 358 5 is_stmt 1
 1691              		.loc 1 358 30 is_stmt 0
 1692 09d0 17050000 		lla	a0,.LC12
 1692      13050500 
 1693 09d8 97000000 		call	_ZN8KConsole15trapPrintStringEPKc@plt
 1693      E7800000 
 1694              	.LVL166:
 359:src/slabAllocator.cpp ****     slab = cachep->slabs_partial;
 1695              		.loc 1 359 5 is_stmt 1
 1696              		.loc 1 359 10 is_stmt 0
 1697 09e0 83340905 		ld	s1,80(s2)
 1698              	.LVL167:
 1699              	.L99:
GAS LISTING /tmp/cc6KI5Hb.s 			page 40


 360:src/slabAllocator.cpp ****     while(slab != nullptr)
 1700              		.loc 1 360 5 is_stmt 1
 1701              		.loc 1 360 16
 1702 09e4 638C0400 		beqz	s1,.L98
 361:src/slabAllocator.cpp ****     {
 362:src/slabAllocator.cpp ****         printSlabInfo(slab);
 1703              		.loc 1 362 9
 1704              		.loc 1 362 22 is_stmt 0
 1705 09e8 13850400 		mv	a0,s1
 1706 09ec 97000000 		call	_Z13printSlabInfoP6slab_s
 1706      E7800000 
 1707              	.LVL168:
 363:src/slabAllocator.cpp ****         slab = slab->next;
 1708              		.loc 1 363 9 is_stmt 1
 1709              		.loc 1 363 14 is_stmt 0
 1710 09f4 83B48400 		ld	s1,8(s1)
 1711              	.LVL169:
 360:src/slabAllocator.cpp ****     while(slab != nullptr)
 1712              		.loc 1 360 5
 1713 09f8 6FF0DFFE 		j	.L99
 1714              	.L98:
 364:src/slabAllocator.cpp ****     }
 365:src/slabAllocator.cpp **** 
 366:src/slabAllocator.cpp ****     KConsole::trapPrintString("Empty slabs\n");
 1715              		.loc 1 366 5 is_stmt 1
 1716              		.loc 1 366 30 is_stmt 0
 1717 09fc 17050000 		lla	a0,.LC13
 1717      13050500 
 1718 0a04 97000000 		call	_ZN8KConsole15trapPrintStringEPKc@plt
 1718      E7800000 
 1719              	.LVL170:
 367:src/slabAllocator.cpp ****     slab = cachep->slabs_empty;
 1720              		.loc 1 367 5 is_stmt 1
 1721              		.loc 1 367 10 is_stmt 0
 1722 0a0c 83340904 		ld	s1,64(s2)
 1723              	.LVL171:
 1724              	.L101:
 368:src/slabAllocator.cpp ****     while(slab != nullptr)
 1725              		.loc 1 368 5 is_stmt 1
 1726              		.loc 1 368 16
 1727 0a10 638C0400 		beqz	s1,.L95
 369:src/slabAllocator.cpp ****     {
 370:src/slabAllocator.cpp ****         printSlabInfo(slab);
 1728              		.loc 1 370 9
 1729              		.loc 1 370 22 is_stmt 0
 1730 0a14 13850400 		mv	a0,s1
 1731 0a18 97000000 		call	_Z13printSlabInfoP6slab_s
 1731      E7800000 
 1732              	.LVL172:
 371:src/slabAllocator.cpp ****         slab = slab->next;
 1733              		.loc 1 371 9 is_stmt 1
 1734              		.loc 1 371 14 is_stmt 0
 1735 0a20 83B48400 		ld	s1,8(s1)
 1736              	.LVL173:
 368:src/slabAllocator.cpp ****     while(slab != nullptr)
 1737              		.loc 1 368 5
 1738 0a24 6FF0DFFE 		j	.L101
GAS LISTING /tmp/cc6KI5Hb.s 			page 41


 1739              	.L95:
 372:src/slabAllocator.cpp ****     }
 373:src/slabAllocator.cpp **** }
 1740              		.loc 1 373 1
 1741 0a28 83308101 		ld	ra,24(sp)
 1742              		.cfi_restore 1
 1743 0a2c 03340101 		ld	s0,16(sp)
 1744              		.cfi_restore 8
 1745              		.cfi_def_cfa 2, 32
 1746 0a30 83348100 		ld	s1,8(sp)
 1747              		.cfi_restore 9
 1748              	.LVL174:
 1749 0a34 03390100 		ld	s2,0(sp)
 1750              		.cfi_restore 18
 1751              	.LVL175:
 1752 0a38 13010102 		addi	sp,sp,32
 1753              		.cfi_def_cfa_offset 0
 1754 0a3c 67800000 		jr	ra
 1755              		.cfi_endproc
 1756              	.LFE27:
 1758              		.section	.rodata.str1.8
 1759 014d 000000   		.align	3
 1760              	.LC14:
 1761 0150 536C6162 		.string	"Slab allocator info----------------------------------------------------------\n"
 1761      20616C6C 
 1761      6F636174 
 1761      6F722069 
 1761      6E666F2D 
 1762 019f 00       		.align	3
 1763              	.LC15:
 1764 01a0 536C6162 		.string	"Slab allocator buddy address "
 1764      20616C6C 
 1764      6F636174 
 1764      6F722062 
 1764      75646479 
 1765 01be 0000     		.align	3
 1766              	.LC16:
 1767 01c0 536C6162 		.string	"Slab allocator address "
 1767      20616C6C 
 1767      6F636174 
 1767      6F722061 
 1767      64647265 
 1768              		.align	3
 1769              	.LC17:
 1770 01d8 43616368 		.string	"Cache of caches info\n"
 1770      65206F66 
 1770      20636163 
 1770      68657320 
 1770      696E666F 
 1771 01ee 0000     		.align	3
 1772              	.LC18:
 1773 01f0 43616368 		.string	"Caches for buffers\n"
 1773      65732066 
 1773      6F722062 
 1773      75666665 
 1773      72730A00 
 1774              		.text
GAS LISTING /tmp/cc6KI5Hb.s 			page 42


 1775              		.align	2
 1776              		.globl	_Z22printSlabAllocatorInfov
 1778              	_Z22printSlabAllocatorInfov:
 1779              	.LFB22:
 260:src/slabAllocator.cpp ****     KConsole::trapPrintString("Slab allocator info-------------------------------------------------
 1780              		.loc 1 260 1 is_stmt 1
 1781              		.cfi_startproc
 1782 0a40 130101FE 		addi	sp,sp,-32
 1783              		.cfi_def_cfa_offset 32
 1784 0a44 233C1100 		sd	ra,24(sp)
 1785 0a48 23388100 		sd	s0,16(sp)
 1786 0a4c 23349100 		sd	s1,8(sp)
 1787              		.cfi_offset 1, -8
 1788              		.cfi_offset 8, -16
 1789              		.cfi_offset 9, -24
 1790 0a50 13040102 		addi	s0,sp,32
 1791              		.cfi_def_cfa 8, 0
 261:src/slabAllocator.cpp ****     KConsole::trapPrintStringInt("Slab allocator buddy address ", (size_t)slabAllocator->buddy,16);
 1792              		.loc 1 261 5
 261:src/slabAllocator.cpp ****     KConsole::trapPrintStringInt("Slab allocator buddy address ", (size_t)slabAllocator->buddy,16);
 1793              		.loc 1 261 30 is_stmt 0
 1794 0a54 17050000 		lla	a0,.LC14
 1794      13050500 
 1795 0a5c 97000000 		call	_ZN8KConsole15trapPrintStringEPKc@plt
 1795      E7800000 
 1796              	.LVL176:
 262:src/slabAllocator.cpp ****     KConsole::trapPrintStringInt("Slab allocator address ", (size_t)slabAllocator, 16);
 1797              		.loc 1 262 5 is_stmt 1
 262:src/slabAllocator.cpp ****     KConsole::trapPrintStringInt("Slab allocator address ", (size_t)slabAllocator, 16);
 1798              		.loc 1 262 90 is_stmt 0
 1799 0a64 97040000 		lla	s1,.LANCHOR0
 1799      93840400 
 1800 0a6c 83B70400 		ld	a5,0(s1)
 262:src/slabAllocator.cpp ****     KConsole::trapPrintStringInt("Slab allocator address ", (size_t)slabAllocator, 16);
 1801              		.loc 1 262 33
 1802 0a70 13060001 		li	a2,16
 1803 0a74 83B50700 		ld	a1,0(a5)
 1804 0a78 17050000 		lla	a0,.LC15
 1804      13050500 
 1805 0a80 97000000 		call	_ZN8KConsole18trapPrintStringIntEPKcmi@plt
 1805      E7800000 
 1806              	.LVL177:
 263:src/slabAllocator.cpp ****     KConsole::trapPrintString("Cache of caches info\n");
 1807              		.loc 1 263 5 is_stmt 1
 263:src/slabAllocator.cpp ****     KConsole::trapPrintString("Cache of caches info\n");
 1808              		.loc 1 263 33 is_stmt 0
 1809 0a88 13060001 		li	a2,16
 1810 0a8c 83B50400 		ld	a1,0(s1)
 1811 0a90 17050000 		lla	a0,.LC16
 1811      13050500 
 1812 0a98 97000000 		call	_ZN8KConsole18trapPrintStringIntEPKcmi@plt
 1812      E7800000 
 1813              	.LVL178:
 264:src/slabAllocator.cpp ****     kmem_cache_info(&slabAllocator->cacheOfCaches);
 1814              		.loc 1 264 5 is_stmt 1
 264:src/slabAllocator.cpp ****     kmem_cache_info(&slabAllocator->cacheOfCaches);
 1815              		.loc 1 264 30 is_stmt 0
GAS LISTING /tmp/cc6KI5Hb.s 			page 43


 1816 0aa0 17050000 		lla	a0,.LC17
 1816      13050500 
 1817 0aa8 97000000 		call	_ZN8KConsole15trapPrintStringEPKc@plt
 1817      E7800000 
 1818              	.LVL179:
 265:src/slabAllocator.cpp ****     KConsole::trapPrintString("Caches for buffers\n");
 1819              		.loc 1 265 5 is_stmt 1
 265:src/slabAllocator.cpp ****     KConsole::trapPrintString("Caches for buffers\n");
 1820              		.loc 1 265 37 is_stmt 0
 1821 0ab0 03B50400 		ld	a0,0(s1)
 265:src/slabAllocator.cpp ****     KConsole::trapPrintString("Caches for buffers\n");
 1822              		.loc 1 265 20
 1823 0ab4 13050507 		addi	a0,a0,112
 1824 0ab8 97000000 		call	_Z15kmem_cache_infoP12kmem_cache_s
 1824      E7800000 
 1825              	.LVL180:
 266:src/slabAllocator.cpp ****     for(size_t i = 0;i < CACHE_BUFFER_SIZE;i++)
 1826              		.loc 1 266 5 is_stmt 1
 266:src/slabAllocator.cpp ****     for(size_t i = 0;i < CACHE_BUFFER_SIZE;i++)
 1827              		.loc 1 266 30 is_stmt 0
 1828 0ac0 17050000 		lla	a0,.LC18
 1828      13050500 
 1829 0ac8 97000000 		call	_ZN8KConsole15trapPrintStringEPKc@plt
 1829      E7800000 
 1830              	.LVL181:
 267:src/slabAllocator.cpp ****     {
 1831              		.loc 1 267 5 is_stmt 1
 1832              	.LBB23:
 267:src/slabAllocator.cpp ****     {
 1833              		.loc 1 267 16 is_stmt 0
 1834 0ad0 93040000 		li	s1,0
 1835 0ad4 6F000001 		j	.L106
 1836              	.LVL182:
 1837              	.L108:
 271:src/slabAllocator.cpp ****         }
 1838              		.loc 1 271 13 is_stmt 1
 271:src/slabAllocator.cpp ****         }
 1839              		.loc 1 271 28 is_stmt 0
 1840 0ad8 97000000 		call	_Z15kmem_cache_infoP12kmem_cache_s
 1840      E7800000 
 1841              	.LVL183:
 1842              	.L105:
 267:src/slabAllocator.cpp ****     {
 1843              		.loc 1 267 5 is_stmt 1 discriminator 2
 1844 0ae0 93841400 		addi	s1,s1,1
 1845              	.LVL184:
 1846              	.L106:
 267:src/slabAllocator.cpp ****     {
 1847              		.loc 1 267 24 discriminator 1
 1848 0ae4 9307C000 		li	a5,12
 1849 0ae8 63E09702 		bgtu	s1,a5,.L103
 269:src/slabAllocator.cpp ****         {
 1850              		.loc 1 269 9
 269:src/slabAllocator.cpp ****         {
 1851              		.loc 1 269 42 is_stmt 0
 1852 0aec 93973400 		slli	a5,s1,3
 1853 0af0 17070000 		ld	a4,.LANCHOR0
GAS LISTING /tmp/cc6KI5Hb.s 			page 44


 1853      03370700 
 1854 0af8 B307F700 		add	a5,a4,a5
 1855 0afc 03B58700 		ld	a0,8(a5)
 269:src/slabAllocator.cpp ****         {
 1856              		.loc 1 269 9
 1857 0b00 E31C05FC 		bnez	a0,.L108
 1858 0b04 6FF0DFFD 		j	.L105
 1859              	.L103:
 1860              	.LBE23:
 274:src/slabAllocator.cpp **** 
 1861              		.loc 1 274 1
 1862 0b08 83308101 		ld	ra,24(sp)
 1863              		.cfi_restore 1
 1864 0b0c 03340101 		ld	s0,16(sp)
 1865              		.cfi_restore 8
 1866              		.cfi_def_cfa 2, 32
 1867 0b10 83348100 		ld	s1,8(sp)
 1868              		.cfi_restore 9
 1869              	.LVL185:
 1870 0b14 13010102 		addi	sp,sp,32
 1871              		.cfi_def_cfa_offset 0
 1872 0b18 67800000 		jr	ra
 1873              		.cfi_endproc
 1874              	.LFE22:
 1876              		.align	2
 1877              		.globl	_Z7kmallocm
 1879              	_Z7kmallocm:
 1880              	.LFB28:
 374:src/slabAllocator.cpp **** 
 375:src/slabAllocator.cpp **** void *kmalloc(size_t size)
 376:src/slabAllocator.cpp **** {
 1881              		.loc 1 376 1 is_stmt 1
 1882              		.cfi_startproc
 1883              	.LVL186:
 1884 0b1c 130101FE 		addi	sp,sp,-32
 1885              		.cfi_def_cfa_offset 32
 1886 0b20 233C1100 		sd	ra,24(sp)
 1887 0b24 23388100 		sd	s0,16(sp)
 1888 0b28 23349100 		sd	s1,8(sp)
 1889 0b2c 23302101 		sd	s2,0(sp)
 1890              		.cfi_offset 1, -8
 1891              		.cfi_offset 8, -16
 1892              		.cfi_offset 9, -24
 1893              		.cfi_offset 18, -32
 1894 0b30 13040102 		addi	s0,sp,32
 1895              		.cfi_def_cfa 8, 0
 377:src/slabAllocator.cpp ****     size_t level = getDeg2Ceil(size);
 1896              		.loc 1 377 5
 1897              		.loc 1 377 31 is_stmt 0
 1898 0b34 97000000 		call	_Z11getDeg2Ceilm@plt
 1898      E7800000 
 1899              	.LVL187:
 378:src/slabAllocator.cpp ****     if(level < CACHE_BUFFER_SMALL)
 1900              		.loc 1 378 5 is_stmt 1
 1901 0b3c 93074000 		li	a5,4
 1902 0b40 63FAA700 		bleu	a0,a5,.L113
 379:src/slabAllocator.cpp ****         level = CACHE_BUFFER_SMALL;
GAS LISTING /tmp/cc6KI5Hb.s 			page 45


 380:src/slabAllocator.cpp ****     if(level > CACHE_BUFFER_BIG)
 1903              		.loc 1 380 5
 1904 0b44 93071001 		li	a5,17
 1905 0b48 63F8A700 		bleu	a0,a5,.L110
 381:src/slabAllocator.cpp ****         return nullptr;
 1906              		.loc 1 381 16 is_stmt 0
 1907 0b4c 13050000 		li	a0,0
 1908              	.LVL188:
 1909 0b50 6F000004 		j	.L109
 1910              	.LVL189:
 1911              	.L113:
 379:src/slabAllocator.cpp ****         level = CACHE_BUFFER_SMALL;
 1912              		.loc 1 379 15
 1913 0b54 13055000 		li	a0,5
 1914              	.LVL190:
 1915              	.L110:
 382:src/slabAllocator.cpp ****     size_t index = level - CACHE_BUFFER_SMALL;
 1916              		.loc 1 382 5 is_stmt 1
 1917              		.loc 1 382 12 is_stmt 0
 1918 0b58 9304B5FF 		addi	s1,a0,-5
 1919              	.LVL191:
 383:src/slabAllocator.cpp ****     if(slabAllocator->cachesBuffers[index] == nullptr)
 1920              		.loc 1 383 5 is_stmt 1
 1921              		.loc 1 383 42 is_stmt 0
 1922 0b5c 17090000 		ld	s2,.LANCHOR0
 1922      03390900 
 1923 0b64 93973400 		slli	a5,s1,3
 1924 0b68 B307F900 		add	a5,s2,a5
 1925 0b6c 83B78700 		ld	a5,8(a5)
 1926              		.loc 1 383 5
 1927 0b70 638C0702 		beqz	a5,.L116
 1928              	.L112:
 384:src/slabAllocator.cpp ****         slabAllocator->cachesBuffers[index] = (kmem_cache_t*)kmem_cache_alloc(&slabAllocator->cache
 385:src/slabAllocator.cpp **** 
 386:src/slabAllocator.cpp ****     return kmem_cache_alloc(slabAllocator->cachesBuffers[index]);
 1929              		.loc 1 386 5 is_stmt 1
 1930              		.loc 1 386 28 is_stmt 0
 1931 0b74 13953400 		slli	a0,s1,3
 1932 0b78 97040000 		ld	s1,.LANCHOR0
 1932      83B40400 
 1933              	.LVL192:
 1934 0b80 3385A400 		add	a0,s1,a0
 1935 0b84 03358500 		ld	a0,8(a0)
 1936 0b88 97000000 		call	_Z16kmem_cache_allocP12kmem_cache_s
 1936      E7800000 
 1937              	.LVL193:
 1938              	.L109:
 387:src/slabAllocator.cpp **** }
 1939              		.loc 1 387 1
 1940 0b90 83308101 		ld	ra,24(sp)
 1941              		.cfi_remember_state
 1942              		.cfi_restore 1
 1943 0b94 03340101 		ld	s0,16(sp)
 1944              		.cfi_restore 8
 1945              		.cfi_def_cfa 2, 32
 1946 0b98 83348100 		ld	s1,8(sp)
 1947              		.cfi_restore 9
GAS LISTING /tmp/cc6KI5Hb.s 			page 46


 1948 0b9c 03390100 		ld	s2,0(sp)
 1949              		.cfi_restore 18
 1950 0ba0 13010102 		addi	sp,sp,32
 1951              		.cfi_def_cfa_offset 0
 1952 0ba4 67800000 		jr	ra
 1953              	.LVL194:
 1954              	.L116:
 1955              		.cfi_restore_state
 384:src/slabAllocator.cpp ****         slabAllocator->cachesBuffers[index] = (kmem_cache_t*)kmem_cache_alloc(&slabAllocator->cache
 1956              		.loc 1 384 9 is_stmt 1
 384:src/slabAllocator.cpp ****         slabAllocator->cachesBuffers[index] = (kmem_cache_t*)kmem_cache_alloc(&slabAllocator->cache
 1957              		.loc 1 384 78 is_stmt 0
 1958 0ba8 13050907 		addi	a0,s2,112
 1959 0bac 97000000 		call	_Z16kmem_cache_allocP12kmem_cache_s
 1959      E7800000 
 1960              	.LVL195:
 384:src/slabAllocator.cpp ****         slabAllocator->cachesBuffers[index] = (kmem_cache_t*)kmem_cache_alloc(&slabAllocator->cache
 1961              		.loc 1 384 45
 1962 0bb4 93973400 		slli	a5,s1,3
 1963 0bb8 3309F900 		add	s2,s2,a5
 1964 0bbc 2334A900 		sd	a0,8(s2)
 1965 0bc0 6FF05FFB 		j	.L112
 1966              		.cfi_endproc
 1967              	.LFE28:
 1969              		.align	2
 1970              		.globl	_Z5kfreePKv
 1972              	_Z5kfreePKv:
 1973              	.LFB29:
 388:src/slabAllocator.cpp **** 
 389:src/slabAllocator.cpp **** void kfree(const void *objp)
 390:src/slabAllocator.cpp **** {
 1974              		.loc 1 390 1 is_stmt 1
 1975              		.cfi_startproc
 1976              	.LVL196:
 1977 0bc4 130101FE 		addi	sp,sp,-32
 1978              		.cfi_def_cfa_offset 32
 1979 0bc8 233C1100 		sd	ra,24(sp)
 1980 0bcc 23388100 		sd	s0,16(sp)
 1981 0bd0 23349100 		sd	s1,8(sp)
 1982 0bd4 23302101 		sd	s2,0(sp)
 1983              		.cfi_offset 1, -8
 1984              		.cfi_offset 8, -16
 1985              		.cfi_offset 9, -24
 1986              		.cfi_offset 18, -32
 1987 0bd8 13040102 		addi	s0,sp,32
 1988              		.cfi_def_cfa 8, 0
 1989 0bdc 13090500 		mv	s2,a0
 391:src/slabAllocator.cpp ****     slab_t* slab = nullptr;
 1990              		.loc 1 391 5
 1991              	.LVL197:
 392:src/slabAllocator.cpp ****     for(size_t i = 0;i < CACHE_BUFFER_SIZE;i++)
 1992              		.loc 1 392 5
 1993              	.LBB24:
 1994              		.loc 1 392 16 is_stmt 0
 1995 0be0 93040000 		li	s1,0
 1996              	.LBE24:
 391:src/slabAllocator.cpp ****     slab_t* slab = nullptr;
GAS LISTING /tmp/cc6KI5Hb.s 			page 47


 1997              		.loc 1 391 13
 1998 0be4 13050000 		li	a0,0
 1999              	.LVL198:
 2000              	.L119:
 2001              	.LBB25:
 2002              		.loc 1 392 24 is_stmt 1 discriminator 1
 2003 0be8 9307C000 		li	a5,12
 2004 0bec 63E89702 		bgtu	s1,a5,.L118
 393:src/slabAllocator.cpp ****     {
 394:src/slabAllocator.cpp ****         slab = findSlab(slabAllocator->cachesBuffers[i], objp);
 2005              		.loc 1 394 9
 2006              		.loc 1 394 24 is_stmt 0
 2007 0bf0 93973400 		slli	a5,s1,3
 2008 0bf4 17070000 		ld	a4,.LANCHOR0
 2008      03370700 
 2009 0bfc B307F700 		add	a5,a4,a5
 2010 0c00 93050900 		mv	a1,s2
 2011 0c04 03B58700 		ld	a0,8(a5)
 2012              	.LVL199:
 2013 0c08 97000000 		call	_Z8findSlabP12kmem_cache_sPKv
 2013      E7800000 
 2014              	.LVL200:
 395:src/slabAllocator.cpp ****         if(slab != nullptr) break;
 2015              		.loc 1 395 9 is_stmt 1
 2016 0c10 63160500 		bnez	a0,.L118
 392:src/slabAllocator.cpp ****     for(size_t i = 0;i < CACHE_BUFFER_SIZE;i++)
 2017              		.loc 1 392 5 discriminator 2
 2018 0c14 93841400 		addi	s1,s1,1
 2019              	.LVL201:
 2020 0c18 6FF01FFD 		j	.L119
 2021              	.L118:
 2022              	.LBE25:
 396:src/slabAllocator.cpp ****     }
 397:src/slabAllocator.cpp ****     if(slab != nullptr)
 2023              		.loc 1 397 5
 2024 0c1c 63080500 		beqz	a0,.L117
 398:src/slabAllocator.cpp ****     {
 399:src/slabAllocator.cpp ****         free_slab_object(slab, objp);
 2025              		.loc 1 399 9
 2026              		.loc 1 399 25 is_stmt 0
 2027 0c20 93050900 		mv	a1,s2
 2028 0c24 97000000 		call	_Z16free_slab_objectP6slab_sPKv
 2028      E7800000 
 2029              	.LVL202:
 2030              	.L117:
 400:src/slabAllocator.cpp ****     }
 401:src/slabAllocator.cpp **** }
 2031              		.loc 1 401 1
 2032 0c2c 83308101 		ld	ra,24(sp)
 2033              		.cfi_restore 1
 2034 0c30 03340101 		ld	s0,16(sp)
 2035              		.cfi_restore 8
 2036              		.cfi_def_cfa 2, 32
 2037 0c34 83348100 		ld	s1,8(sp)
 2038              		.cfi_restore 9
 2039              	.LVL203:
 2040 0c38 03390100 		ld	s2,0(sp)
GAS LISTING /tmp/cc6KI5Hb.s 			page 48


 2041              		.cfi_restore 18
 2042              	.LVL204:
 2043 0c3c 13010102 		addi	sp,sp,32
 2044              		.cfi_def_cfa_offset 0
 2045 0c40 67800000 		jr	ra
 2046              		.cfi_endproc
 2047              	.LFE29:
 2049              		.align	2
 2050              		.globl	_Z17destroy_slab_listP6slab_s
 2052              	_Z17destroy_slab_listP6slab_s:
 2053              	.LFB30:
 402:src/slabAllocator.cpp **** 
 403:src/slabAllocator.cpp **** void destroy_slab_list(slab_t* slab)
 404:src/slabAllocator.cpp **** {
 2054              		.loc 1 404 1 is_stmt 1
 2055              		.cfi_startproc
 2056              	.LVL205:
 405:src/slabAllocator.cpp ****     if(slab == nullptr) return;
 2057              		.loc 1 405 5
 2058 0c44 63040506 		beqz	a0,.L126
 404:src/slabAllocator.cpp ****     if(slab == nullptr) return;
 2059              		.loc 1 404 1 is_stmt 0
 2060 0c48 130101FE 		addi	sp,sp,-32
 2061              		.cfi_def_cfa_offset 32
 2062 0c4c 233C1100 		sd	ra,24(sp)
 2063 0c50 23388100 		sd	s0,16(sp)
 2064 0c54 23349100 		sd	s1,8(sp)
 2065 0c58 23302101 		sd	s2,0(sp)
 2066              		.cfi_offset 1, -8
 2067              		.cfi_offset 8, -16
 2068              		.cfi_offset 9, -24
 2069              		.cfi_offset 18, -32
 2070 0c5c 13040102 		addi	s0,sp,32
 2071              		.cfi_def_cfa 8, 0
 2072 0c60 93050500 		mv	a1,a0
 406:src/slabAllocator.cpp ****     size_t sz = slab->owner->slab_size;
 2073              		.loc 1 406 5 is_stmt 1
 2074              		.loc 1 406 23 is_stmt 0
 2075 0c64 83370501 		ld	a5,16(a0)
 2076              		.loc 1 406 12
 2077 0c68 03B98705 		ld	s2,88(a5)
 2078              	.LVL206:
 2079              	.L124:
 407:src/slabAllocator.cpp ****     while(slab != nullptr)
 2080              		.loc 1 407 5 is_stmt 1
 2081              		.loc 1 407 16
 2082 0c6c 63840502 		beqz	a1,.L122
 2083              	.LBB26:
 408:src/slabAllocator.cpp ****     {
 409:src/slabAllocator.cpp ****         slab_t* nextSlab = slab->next;
 2084              		.loc 1 409 9
 2085              		.loc 1 409 17 is_stmt 0
 2086 0c70 83B48500 		ld	s1,8(a1)
 2087              	.LVL207:
 410:src/slabAllocator.cpp ****         buddy_free(slabAllocator->buddy, slab, sz);
 2088              		.loc 1 410 9 is_stmt 1
 2089              		.loc 1 410 19 is_stmt 0
GAS LISTING /tmp/cc6KI5Hb.s 			page 49


 2090 0c74 13060900 		mv	a2,s2
 2091 0c78 97070000 		ld	a5,.LANCHOR0
 2091      83B70700 
 2092 0c80 03B50700 		ld	a0,0(a5)
 2093 0c84 97000000 		call	_Z10buddy_freeP14buddyAllocatorPvm@plt
 2093      E7800000 
 2094              	.LVL208:
 411:src/slabAllocator.cpp ****         slab = nextSlab;
 2095              		.loc 1 411 9 is_stmt 1
 2096              		.loc 1 411 14 is_stmt 0
 2097 0c8c 93850400 		mv	a1,s1
 2098              	.LBE26:
 407:src/slabAllocator.cpp ****     {
 2099              		.loc 1 407 5
 2100 0c90 6FF0DFFD 		j	.L124
 2101              	.LVL209:
 2102              	.L122:
 412:src/slabAllocator.cpp ****     }
 413:src/slabAllocator.cpp **** }
 2103              		.loc 1 413 1
 2104 0c94 83308101 		ld	ra,24(sp)
 2105              		.cfi_restore 1
 2106 0c98 03340101 		ld	s0,16(sp)
 2107              		.cfi_restore 8
 2108              		.cfi_def_cfa 2, 32
 2109 0c9c 83348100 		ld	s1,8(sp)
 2110              		.cfi_restore 9
 2111 0ca0 03390100 		ld	s2,0(sp)
 2112              		.cfi_restore 18
 2113              	.LVL210:
 2114 0ca4 13010102 		addi	sp,sp,32
 2115              		.cfi_def_cfa_offset 0
 2116 0ca8 67800000 		jr	ra
 2117              	.LVL211:
 2118              	.L126:
 2119 0cac 67800000 		ret
 2120              		.cfi_endproc
 2121              	.LFE30:
 2123              		.align	2
 2124              		.globl	_Z18kmem_cache_destroyP12kmem_cache_s
 2126              	_Z18kmem_cache_destroyP12kmem_cache_s:
 2127              	.LFB31:
 414:src/slabAllocator.cpp **** 
 415:src/slabAllocator.cpp **** void kmem_cache_destroy(kmem_cache_t *cachep)
 416:src/slabAllocator.cpp **** {
 2128              		.loc 1 416 1 is_stmt 1
 2129              		.cfi_startproc
 2130              	.LVL212:
 2131 0cb0 130101FE 		addi	sp,sp,-32
 2132              		.cfi_def_cfa_offset 32
 2133 0cb4 233C1100 		sd	ra,24(sp)
 2134 0cb8 23388100 		sd	s0,16(sp)
 2135 0cbc 23349100 		sd	s1,8(sp)
 2136              		.cfi_offset 1, -8
 2137              		.cfi_offset 8, -16
 2138              		.cfi_offset 9, -24
 2139 0cc0 13040102 		addi	s0,sp,32
GAS LISTING /tmp/cc6KI5Hb.s 			page 50


 2140              		.cfi_def_cfa 8, 0
 2141 0cc4 93040500 		mv	s1,a0
 417:src/slabAllocator.cpp ****     destroy_slab_list(cachep->slabs_empty);
 2142              		.loc 1 417 5
 2143              		.loc 1 417 22 is_stmt 0
 2144 0cc8 03350504 		ld	a0,64(a0)
 2145              	.LVL213:
 2146 0ccc 97000000 		call	_Z17destroy_slab_listP6slab_s
 2146      E7800000 
 2147              	.LVL214:
 418:src/slabAllocator.cpp ****     destroy_slab_list(cachep->slabs_partial);
 2148              		.loc 1 418 5 is_stmt 1
 2149              		.loc 1 418 22 is_stmt 0
 2150 0cd4 03B50405 		ld	a0,80(s1)
 2151 0cd8 97000000 		call	_Z17destroy_slab_listP6slab_s
 2151      E7800000 
 2152              	.LVL215:
 419:src/slabAllocator.cpp ****     destroy_slab_list(cachep->slabs_full);
 2153              		.loc 1 419 5 is_stmt 1
 2154              		.loc 1 419 22 is_stmt 0
 2155 0ce0 03B58404 		ld	a0,72(s1)
 2156 0ce4 97000000 		call	_Z17destroy_slab_listP6slab_s
 2156      E7800000 
 2157              	.LVL216:
 420:src/slabAllocator.cpp ****     kmem_cache_free(&slabAllocator->cacheOfCaches,cachep);
 2158              		.loc 1 420 5 is_stmt 1
 2159              		.loc 1 420 20 is_stmt 0
 2160 0cec 93850400 		mv	a1,s1
 2161 0cf0 17050000 		ld	a0,.LANCHOR0
 2161      03350500 
 2162 0cf8 13050507 		addi	a0,a0,112
 2163 0cfc 97000000 		call	_Z15kmem_cache_freeP12kmem_cache_sPv
 2163      E7800000 
 2164              	.LVL217:
 421:src/slabAllocator.cpp **** }
 2165              		.loc 1 421 1
 2166 0d04 83308101 		ld	ra,24(sp)
 2167              		.cfi_restore 1
 2168 0d08 03340101 		ld	s0,16(sp)
 2169              		.cfi_restore 8
 2170              		.cfi_def_cfa 2, 32
 2171 0d0c 83348100 		ld	s1,8(sp)
 2172              		.cfi_restore 9
 2173              	.LVL218:
 2174 0d10 13010102 		addi	sp,sp,32
 2175              		.cfi_def_cfa_offset 0
 2176 0d14 67800000 		jr	ra
 2177              		.cfi_endproc
 2178              	.LFE31:
 2180              		.bss
 2181              		.align	3
 2182              		.set	.LANCHOR0,. + 0
 2185              	_ZL13slabAllocator:
 2186 0000 00000000 		.zero	8
 2186      00000000 
 2187              		.text
 2188              	.Letext0:
GAS LISTING /tmp/cc6KI5Hb.s 			page 51


 2189              		.file 2 "src/../h/../lib/hw.h"
 2190              		.file 3 "src/../h/slabAllocator.hpp"
 2191              		.file 4 "src/../h/buddyAllocator.hpp"
 2192              		.file 5 "src/../h/PCB.hpp"
 2193              		.file 6 "src/../h/KSemaphore.hpp"
 2194              		.file 7 "src/../h/KConsole.hpp"
GAS LISTING /tmp/cc6KI5Hb.s 			page 52


DEFINED SYMBOLS
                            *ABS*:0000000000000000 slabAllocator.cpp
     /tmp/cc6KI5Hb.s:9      .text:0000000000000000 _Z6strcpyPKcPc
     /tmp/cc6KI5Hb.s:13     .text:0000000000000000 .L0 
     /tmp/cc6KI5Hb.s:15     .text:0000000000000000 .L0 
     /tmp/cc6KI5Hb.s:16     .text:0000000000000004 .L0 
     /tmp/cc6KI5Hb.s:18     .text:0000000000000008 .L0 
     /tmp/cc6KI5Hb.s:20     .text:000000000000000c .L0 
     /tmp/cc6KI5Hb.s:23     .text:000000000000000c .L0 
     /tmp/cc6KI5Hb.s:24     .text:000000000000000c .L0 
     /tmp/cc6KI5Hb.s:25     .text:000000000000000c .L0 
     /tmp/cc6KI5Hb.s:27     .text:0000000000000010 .L0 
     /tmp/cc6KI5Hb.s:29     .text:0000000000000014 .L0 
     /tmp/cc6KI5Hb.s:30     .text:0000000000000014 .L0 
     /tmp/cc6KI5Hb.s:32     .text:0000000000000018 .L0 
     /tmp/cc6KI5Hb.s:33     .text:0000000000000018 .L0 
     /tmp/cc6KI5Hb.s:36     .text:000000000000001c .L0 
     /tmp/cc6KI5Hb.s:37     .text:000000000000001c .L0 
     /tmp/cc6KI5Hb.s:40     .text:0000000000000020 .L0 
     /tmp/cc6KI5Hb.s:43     .text:0000000000000024 .L0 
     /tmp/cc6KI5Hb.s:44     .text:0000000000000024 .L0 
     /tmp/cc6KI5Hb.s:46     .text:0000000000000028 .L0 
     /tmp/cc6KI5Hb.s:47     .text:000000000000002c .L0 
     /tmp/cc6KI5Hb.s:48     .text:000000000000002c .L0 
     /tmp/cc6KI5Hb.s:50     .text:0000000000000030 .L0 
     /tmp/cc6KI5Hb.s:52     .text:0000000000000034 .L0 
     /tmp/cc6KI5Hb.s:63     .text:0000000000000034 _Z19slab_allocator_initP14buddyAllocator
     /tmp/cc6KI5Hb.s:66     .text:0000000000000034 .L0 
     /tmp/cc6KI5Hb.s:68     .text:0000000000000034 .L0 
     /tmp/cc6KI5Hb.s:69     .text:0000000000000038 .L0 
     /tmp/cc6KI5Hb.s:74     .text:0000000000000048 .L0 
     /tmp/cc6KI5Hb.s:75     .text:0000000000000048 .L0 
     /tmp/cc6KI5Hb.s:76     .text:0000000000000048 .L0 
     /tmp/cc6KI5Hb.s:77     .text:0000000000000048 .L0 
     /tmp/cc6KI5Hb.s:79     .text:000000000000004c .L0 
     /tmp/cc6KI5Hb.s:82     .text:0000000000000050 .L0 
     /tmp/cc6KI5Hb.s:83     .text:0000000000000050 .L0 
     /tmp/cc6KI5Hb.s:86     .text:0000000000000054 .L0 
     /tmp/cc6KI5Hb.s:87     .text:0000000000000054 .L0 
     /tmp/cc6KI5Hb.s:91     .text:0000000000000058 .L0 
     /tmp/cc6KI5Hb.s:92     .text:0000000000000058 .L0 
     /tmp/cc6KI5Hb.s:97     .text:0000000000000060 .L0 
     /tmp/cc6KI5Hb.s:98     .text:0000000000000060 .L0 
     /tmp/cc6KI5Hb.s:102    .text:000000000000006c .L0 
     /tmp/cc6KI5Hb.s:106    .text:0000000000000070 .L0 
     /tmp/cc6KI5Hb.s:110    .text:0000000000000078 .L0 
     /tmp/cc6KI5Hb.s:111    .text:0000000000000078 .L0 
     /tmp/cc6KI5Hb.s:116    .text:000000000000008c .L0 
     /tmp/cc6KI5Hb.s:117    .text:000000000000008c .L0 
     /tmp/cc6KI5Hb.s:119    .text:0000000000000090 .L0 
     /tmp/cc6KI5Hb.s:120    .text:0000000000000090 .L0 
     /tmp/cc6KI5Hb.s:122    .text:0000000000000094 .L0 
     /tmp/cc6KI5Hb.s:123    .text:0000000000000094 .L0 
     /tmp/cc6KI5Hb.s:125    .text:0000000000000098 .L0 
     /tmp/cc6KI5Hb.s:126    .text:0000000000000098 .L0 
     /tmp/cc6KI5Hb.s:128    .text:000000000000009c .L0 
     /tmp/cc6KI5Hb.s:129    .text:000000000000009c .L0 
GAS LISTING /tmp/cc6KI5Hb.s 			page 53


     /tmp/cc6KI5Hb.s:131    .text:00000000000000a0 .L0 
     /tmp/cc6KI5Hb.s:132    .text:00000000000000a0 .L0 
     /tmp/cc6KI5Hb.s:135    .text:00000000000000a8 .L0 
     /tmp/cc6KI5Hb.s:136    .text:00000000000000a8 .L0 
     /tmp/cc6KI5Hb.s:139    .text:00000000000000b0 .L0 
     /tmp/cc6KI5Hb.s:140    .text:00000000000000b0 .L0 
     /tmp/cc6KI5Hb.s:142    .text:00000000000000b8 .L0 
     /tmp/cc6KI5Hb.s:144    .text:00000000000000bc .L0 
     /tmp/cc6KI5Hb.s:145    .text:00000000000000bc .L0 
     /tmp/cc6KI5Hb.s:147    .text:00000000000000c0 .L0 
     /tmp/cc6KI5Hb.s:150    .text:00000000000000c4 .L0 
     /tmp/cc6KI5Hb.s:153    .text:00000000000000c8 .L0 
     /tmp/cc6KI5Hb.s:155    .text:00000000000000cc .L0 
     /tmp/cc6KI5Hb.s:161    .text:00000000000000cc _Z14allocateObjectP6slab_s
     /tmp/cc6KI5Hb.s:164    .text:00000000000000cc .L0 
     /tmp/cc6KI5Hb.s:166    .text:00000000000000cc .L0 
     /tmp/cc6KI5Hb.s:167    .text:00000000000000d0 .L0 
     /tmp/cc6KI5Hb.s:169    .text:00000000000000d4 .L0 
     /tmp/cc6KI5Hb.s:171    .text:00000000000000d8 .L0 
     /tmp/cc6KI5Hb.s:175    .text:00000000000000dc .L0 
     /tmp/cc6KI5Hb.s:176    .text:00000000000000dc .L0 
     /tmp/cc6KI5Hb.s:178    .text:00000000000000dc .L0 
     /tmp/cc6KI5Hb.s:179    .text:00000000000000dc .L0 
     /tmp/cc6KI5Hb.s:183    .text:00000000000000e0 .L0 
     /tmp/cc6KI5Hb.s:184    .text:00000000000000e0 .L0 
     /tmp/cc6KI5Hb.s:186    .text:00000000000000e4 .L0 
     /tmp/cc6KI5Hb.s:189    .text:00000000000000e8 .L0 
     /tmp/cc6KI5Hb.s:190    .text:00000000000000e8 .L0 
     /tmp/cc6KI5Hb.s:192    .text:00000000000000ec .L0 
     /tmp/cc6KI5Hb.s:196    .text:00000000000000f4 .L0 
     /tmp/cc6KI5Hb.s:197    .text:00000000000000f4 .L0 
     /tmp/cc6KI5Hb.s:199    .text:00000000000000f8 .L0 
     /tmp/cc6KI5Hb.s:202    .text:0000000000000100 .L0 
     /tmp/cc6KI5Hb.s:204    .text:0000000000000104 .L0 
     /tmp/cc6KI5Hb.s:207    .text:0000000000000108 .L0 
     /tmp/cc6KI5Hb.s:213    .text:0000000000000110 .L0 
     /tmp/cc6KI5Hb.s:214    .text:0000000000000110 .L0 
     /tmp/cc6KI5Hb.s:216    .text:0000000000000114 .L0 
     /tmp/cc6KI5Hb.s:219    .text:0000000000000118 .L0 
     /tmp/cc6KI5Hb.s:221    .text:000000000000011c .L0 
     /tmp/cc6KI5Hb.s:225    .text:0000000000000124 .L0 
     /tmp/cc6KI5Hb.s:226    .text:0000000000000124 .L0 
     /tmp/cc6KI5Hb.s:229    .text:0000000000000128 .L0 
     /tmp/cc6KI5Hb.s:235    .text:000000000000012c .L0 
     /tmp/cc6KI5Hb.s:238    .text:0000000000000130 .L0 
     /tmp/cc6KI5Hb.s:242    .text:0000000000000134 .L0 
     /tmp/cc6KI5Hb.s:244    .text:0000000000000138 .L0 
     /tmp/cc6KI5Hb.s:245    .text:0000000000000138 .L0 
     /tmp/cc6KI5Hb.s:251    .text:0000000000000148 .L0 
     /tmp/cc6KI5Hb.s:253    .text:000000000000014c .L0 
     /tmp/cc6KI5Hb.s:255    .text:0000000000000150 .L0 
     /tmp/cc6KI5Hb.s:258    .text:0000000000000158 .L0 
     /tmp/cc6KI5Hb.s:261    .text:0000000000000160 .L0 
     /tmp/cc6KI5Hb.s:263    .text:0000000000000164 .L0 
     /tmp/cc6KI5Hb.s:265    .text:0000000000000168 .L0 
     /tmp/cc6KI5Hb.s:266    .text:0000000000000168 .L0 
     /tmp/cc6KI5Hb.s:268    .text:000000000000016c .L0 
GAS LISTING /tmp/cc6KI5Hb.s 			page 54


     /tmp/cc6KI5Hb.s:272    .text:0000000000000174 .L0 
     /tmp/cc6KI5Hb.s:273    .text:0000000000000174 .L0 
     /tmp/cc6KI5Hb.s:274    .text:0000000000000178 .L0 
     /tmp/cc6KI5Hb.s:275    .text:0000000000000178 .L0 
     /tmp/cc6KI5Hb.s:277    .text:000000000000017c .L0 
     /tmp/cc6KI5Hb.s:279    .text:0000000000000180 .L0 
     /tmp/cc6KI5Hb.s:285    .text:0000000000000180 _Z4fullP6slab_s
     /tmp/cc6KI5Hb.s:288    .text:0000000000000180 .L0 
     /tmp/cc6KI5Hb.s:290    .text:0000000000000180 .L0 
     /tmp/cc6KI5Hb.s:291    .text:0000000000000184 .L0 
     /tmp/cc6KI5Hb.s:293    .text:0000000000000188 .L0 
     /tmp/cc6KI5Hb.s:295    .text:000000000000018c .L0 
     /tmp/cc6KI5Hb.s:297    .text:000000000000018c .L0 
     /tmp/cc6KI5Hb.s:298    .text:000000000000018c .L0 
     /tmp/cc6KI5Hb.s:300    .text:0000000000000190 .L0 
     /tmp/cc6KI5Hb.s:304    .text:0000000000000198 .L0 
     /tmp/cc6KI5Hb.s:306    .text:00000000000001a0 .L0 
     /tmp/cc6KI5Hb.s:307    .text:00000000000001a0 .L0 
     /tmp/cc6KI5Hb.s:309    .text:00000000000001a4 .L0 
     /tmp/cc6KI5Hb.s:311    .text:00000000000001a8 .L0 
     /tmp/cc6KI5Hb.s:317    .text:00000000000001a8 _Z5emptyP6slab_s
     /tmp/cc6KI5Hb.s:320    .text:00000000000001a8 .L0 
     /tmp/cc6KI5Hb.s:322    .text:00000000000001a8 .L0 
     /tmp/cc6KI5Hb.s:323    .text:00000000000001ac .L0 
     /tmp/cc6KI5Hb.s:325    .text:00000000000001b0 .L0 
     /tmp/cc6KI5Hb.s:327    .text:00000000000001b4 .L0 
     /tmp/cc6KI5Hb.s:329    .text:00000000000001b4 .L0 
     /tmp/cc6KI5Hb.s:330    .text:00000000000001b4 .L0 
     /tmp/cc6KI5Hb.s:333    .text:00000000000001b8 .L0 
     /tmp/cc6KI5Hb.s:335    .text:00000000000001c0 .L0 
     /tmp/cc6KI5Hb.s:336    .text:00000000000001c0 .L0 
     /tmp/cc6KI5Hb.s:338    .text:00000000000001c4 .L0 
     /tmp/cc6KI5Hb.s:340    .text:00000000000001c8 .L0 
     /tmp/cc6KI5Hb.s:346    .text:00000000000001c8 _Z18insertIntoSlabListP6slab_sPS0_
     /tmp/cc6KI5Hb.s:349    .text:00000000000001c8 .L0 
     /tmp/cc6KI5Hb.s:351    .text:00000000000001c8 .L0 
     /tmp/cc6KI5Hb.s:352    .text:00000000000001cc .L0 
     /tmp/cc6KI5Hb.s:354    .text:00000000000001d0 .L0 
     /tmp/cc6KI5Hb.s:356    .text:00000000000001d4 .L0 
     /tmp/cc6KI5Hb.s:358    .text:00000000000001d4 .L0 
     /tmp/cc6KI5Hb.s:359    .text:00000000000001d4 .L0 
     /tmp/cc6KI5Hb.s:361    .text:00000000000001d8 .L0 
     /tmp/cc6KI5Hb.s:362    .text:00000000000001d8 .L0 
     /tmp/cc6KI5Hb.s:364    .text:00000000000001dc .L0 
     /tmp/cc6KI5Hb.s:366    .text:00000000000001e0 .L0 
     /tmp/cc6KI5Hb.s:368    .text:00000000000001e4 .L0 
     /tmp/cc6KI5Hb.s:369    .text:00000000000001e4 .L0 
     /tmp/cc6KI5Hb.s:372    .text:00000000000001e8 .L0 
     /tmp/cc6KI5Hb.s:373    .text:00000000000001e8 .L0 
     /tmp/cc6KI5Hb.s:375    .text:00000000000001ec .L0 
     /tmp/cc6KI5Hb.s:376    .text:00000000000001f0 .L0 
     /tmp/cc6KI5Hb.s:377    .text:00000000000001f0 .L0 
     /tmp/cc6KI5Hb.s:379    .text:00000000000001f4 .L0 
     /tmp/cc6KI5Hb.s:381    .text:00000000000001f8 .L0 
     /tmp/cc6KI5Hb.s:387    .text:00000000000001f8 _Z18removeFromSlabListP6slab_sPS0_
     /tmp/cc6KI5Hb.s:390    .text:00000000000001f8 .L0 
     /tmp/cc6KI5Hb.s:392    .text:00000000000001f8 .L0 
GAS LISTING /tmp/cc6KI5Hb.s 			page 55


     /tmp/cc6KI5Hb.s:393    .text:00000000000001fc .L0 
     /tmp/cc6KI5Hb.s:395    .text:0000000000000200 .L0 
     /tmp/cc6KI5Hb.s:397    .text:0000000000000204 .L0 
     /tmp/cc6KI5Hb.s:399    .text:0000000000000204 .L0 
     /tmp/cc6KI5Hb.s:400    .text:0000000000000204 .L0 
     /tmp/cc6KI5Hb.s:402    .text:0000000000000208 .L0 
     /tmp/cc6KI5Hb.s:404    .text:000000000000020c .L0 
     /tmp/cc6KI5Hb.s:405    .text:000000000000020c .L0 
     /tmp/cc6KI5Hb.s:407    .text:0000000000000210 .L0 
     /tmp/cc6KI5Hb.s:409    .text:0000000000000214 .L0 
     /tmp/cc6KI5Hb.s:411    .text:0000000000000218 .L0 
     /tmp/cc6KI5Hb.s:412    .text:0000000000000218 .L0 
     /tmp/cc6KI5Hb.s:414    .text:000000000000021c .L0 
     /tmp/cc6KI5Hb.s:417    .text:0000000000000220 .L0 
     /tmp/cc6KI5Hb.s:418    .text:0000000000000220 .L0 
     /tmp/cc6KI5Hb.s:420    .text:0000000000000224 .L0 
     /tmp/cc6KI5Hb.s:423    .text:0000000000000228 .L0 
     /tmp/cc6KI5Hb.s:424    .text:000000000000022c .L0 
     /tmp/cc6KI5Hb.s:425    .text:000000000000022c .L0 
     /tmp/cc6KI5Hb.s:426    .text:000000000000022c .L0 
     /tmp/cc6KI5Hb.s:428    .text:0000000000000230 .L0 
     /tmp/cc6KI5Hb.s:431    .text:0000000000000234 .L0 
     /tmp/cc6KI5Hb.s:433    .text:0000000000000234 .L0 
     /tmp/cc6KI5Hb.s:434    .text:0000000000000234 .L0 
     /tmp/cc6KI5Hb.s:436    .text:0000000000000238 .L0 
     /tmp/cc6KI5Hb.s:438    .text:000000000000023c .L0 
     /tmp/cc6KI5Hb.s:439    .text:000000000000023c .L0 
     /tmp/cc6KI5Hb.s:442    .text:0000000000000240 .L0 
     /tmp/cc6KI5Hb.s:443    .text:0000000000000240 .L0 
     /tmp/cc6KI5Hb.s:445    .text:0000000000000244 .L0 
     /tmp/cc6KI5Hb.s:447    .text:0000000000000248 .L0 
     /tmp/cc6KI5Hb.s:448    .text:0000000000000248 .L0 
     /tmp/cc6KI5Hb.s:450    .text:000000000000024c .L0 
     /tmp/cc6KI5Hb.s:452    .text:0000000000000254 .L0 
     /tmp/cc6KI5Hb.s:458    .text:0000000000000254 _Z16putPartialToFullP12kmem_cache_s
     /tmp/cc6KI5Hb.s:461    .text:0000000000000254 .L0 
     /tmp/cc6KI5Hb.s:463    .text:0000000000000254 .L0 
     /tmp/cc6KI5Hb.s:464    .text:0000000000000258 .L0 
     /tmp/cc6KI5Hb.s:469    .text:0000000000000268 .L0 
     /tmp/cc6KI5Hb.s:470    .text:0000000000000268 .L0 
     /tmp/cc6KI5Hb.s:471    .text:0000000000000268 .L0 
     /tmp/cc6KI5Hb.s:472    .text:0000000000000268 .L0 
     /tmp/cc6KI5Hb.s:474    .text:000000000000026c .L0 
     /tmp/cc6KI5Hb.s:477    .text:0000000000000270 .L0 
     /tmp/cc6KI5Hb.s:478    .text:0000000000000270 .L0 
     /tmp/cc6KI5Hb.s:481    .text:0000000000000274 .L0 
     /tmp/cc6KI5Hb.s:482    .text:0000000000000274 .L0 
     /tmp/cc6KI5Hb.s:488    .text:0000000000000284 .L0 
     /tmp/cc6KI5Hb.s:489    .text:0000000000000284 .L0 
     /tmp/cc6KI5Hb.s:494    .text:0000000000000294 .L0 
     /tmp/cc6KI5Hb.s:495    .text:0000000000000298 .L0 
     /tmp/cc6KI5Hb.s:497    .text:000000000000029c .L0 
     /tmp/cc6KI5Hb.s:498    .text:000000000000029c .L0 
     /tmp/cc6KI5Hb.s:500    .text:00000000000002a0 .L0 
     /tmp/cc6KI5Hb.s:503    .text:00000000000002a4 .L0 
     /tmp/cc6KI5Hb.s:506    .text:00000000000002a8 .L0 
     /tmp/cc6KI5Hb.s:508    .text:00000000000002ac .L0 
GAS LISTING /tmp/cc6KI5Hb.s 			page 56


     /tmp/cc6KI5Hb.s:514    .text:00000000000002ac _Z17putEmptyToPartialP12kmem_cache_s
     /tmp/cc6KI5Hb.s:517    .text:00000000000002ac .L0 
     /tmp/cc6KI5Hb.s:519    .text:00000000000002ac .L0 
     /tmp/cc6KI5Hb.s:520    .text:00000000000002b0 .L0 
     /tmp/cc6KI5Hb.s:525    .text:00000000000002c0 .L0 
     /tmp/cc6KI5Hb.s:526    .text:00000000000002c0 .L0 
     /tmp/cc6KI5Hb.s:527    .text:00000000000002c0 .L0 
     /tmp/cc6KI5Hb.s:528    .text:00000000000002c0 .L0 
     /tmp/cc6KI5Hb.s:530    .text:00000000000002c4 .L0 
     /tmp/cc6KI5Hb.s:533    .text:00000000000002c8 .L0 
     /tmp/cc6KI5Hb.s:534    .text:00000000000002c8 .L0 
     /tmp/cc6KI5Hb.s:537    .text:00000000000002cc .L0 
     /tmp/cc6KI5Hb.s:538    .text:00000000000002cc .L0 
     /tmp/cc6KI5Hb.s:544    .text:00000000000002dc .L0 
     /tmp/cc6KI5Hb.s:545    .text:00000000000002dc .L0 
     /tmp/cc6KI5Hb.s:550    .text:00000000000002ec .L0 
     /tmp/cc6KI5Hb.s:551    .text:00000000000002f0 .L0 
     /tmp/cc6KI5Hb.s:553    .text:00000000000002f4 .L0 
     /tmp/cc6KI5Hb.s:554    .text:00000000000002f4 .L0 
     /tmp/cc6KI5Hb.s:556    .text:00000000000002f8 .L0 
     /tmp/cc6KI5Hb.s:559    .text:00000000000002fc .L0 
     /tmp/cc6KI5Hb.s:562    .text:0000000000000300 .L0 
     /tmp/cc6KI5Hb.s:564    .text:0000000000000304 .L0 
     /tmp/cc6KI5Hb.s:570    .text:0000000000000304 _Z14removeFullSlabP12kmem_cache_sP6slab_s
     /tmp/cc6KI5Hb.s:573    .text:0000000000000304 .L0 
     /tmp/cc6KI5Hb.s:575    .text:0000000000000304 .L0 
     /tmp/cc6KI5Hb.s:576    .text:0000000000000308 .L0 
     /tmp/cc6KI5Hb.s:581    .text:0000000000000318 .L0 
     /tmp/cc6KI5Hb.s:582    .text:0000000000000318 .L0 
     /tmp/cc6KI5Hb.s:583    .text:0000000000000318 .L0 
     /tmp/cc6KI5Hb.s:584    .text:0000000000000318 .L0 
     /tmp/cc6KI5Hb.s:586    .text:000000000000031c .L0 
     /tmp/cc6KI5Hb.s:590    .text:0000000000000324 .L0 
     /tmp/cc6KI5Hb.s:591    .text:0000000000000324 .L0 
     /tmp/cc6KI5Hb.s:598    .text:0000000000000334 .L0 
     /tmp/cc6KI5Hb.s:599    .text:0000000000000334 .L0 
     /tmp/cc6KI5Hb.s:604    .text:0000000000000344 .L0 
     /tmp/cc6KI5Hb.s:605    .text:0000000000000348 .L0 
     /tmp/cc6KI5Hb.s:607    .text:000000000000034c .L0 
     /tmp/cc6KI5Hb.s:608    .text:000000000000034c .L0 
     /tmp/cc6KI5Hb.s:610    .text:0000000000000350 .L0 
     /tmp/cc6KI5Hb.s:613    .text:0000000000000354 .L0 
     /tmp/cc6KI5Hb.s:616    .text:0000000000000358 .L0 
     /tmp/cc6KI5Hb.s:618    .text:000000000000035c .L0 
     /tmp/cc6KI5Hb.s:624    .text:000000000000035c _Z17removePartialSlabP12kmem_cache_sP6slab_s
     /tmp/cc6KI5Hb.s:627    .text:000000000000035c .L0 
     /tmp/cc6KI5Hb.s:629    .text:000000000000035c .L0 
     /tmp/cc6KI5Hb.s:630    .text:0000000000000360 .L0 
     /tmp/cc6KI5Hb.s:635    .text:0000000000000370 .L0 
     /tmp/cc6KI5Hb.s:636    .text:0000000000000370 .L0 
     /tmp/cc6KI5Hb.s:637    .text:0000000000000370 .L0 
     /tmp/cc6KI5Hb.s:638    .text:0000000000000370 .L0 
     /tmp/cc6KI5Hb.s:640    .text:0000000000000374 .L0 
     /tmp/cc6KI5Hb.s:644    .text:000000000000037c .L0 
     /tmp/cc6KI5Hb.s:645    .text:000000000000037c .L0 
     /tmp/cc6KI5Hb.s:652    .text:000000000000038c .L0 
     /tmp/cc6KI5Hb.s:653    .text:000000000000038c .L0 
GAS LISTING /tmp/cc6KI5Hb.s 			page 57


     /tmp/cc6KI5Hb.s:658    .text:000000000000039c .L0 
     /tmp/cc6KI5Hb.s:659    .text:00000000000003a0 .L0 
     /tmp/cc6KI5Hb.s:661    .text:00000000000003a4 .L0 
     /tmp/cc6KI5Hb.s:662    .text:00000000000003a4 .L0 
     /tmp/cc6KI5Hb.s:664    .text:00000000000003a8 .L0 
     /tmp/cc6KI5Hb.s:667    .text:00000000000003ac .L0 
     /tmp/cc6KI5Hb.s:670    .text:00000000000003b0 .L0 
     /tmp/cc6KI5Hb.s:672    .text:00000000000003b4 .L0 
     /tmp/cc6KI5Hb.s:678    .text:00000000000003b4 _Z12allocateSlabP12kmem_cache_s
     /tmp/cc6KI5Hb.s:681    .text:00000000000003b4 .L0 
     /tmp/cc6KI5Hb.s:683    .text:00000000000003b4 .L0 
     /tmp/cc6KI5Hb.s:684    .text:00000000000003b8 .L0 
     /tmp/cc6KI5Hb.s:688    .text:00000000000003c4 .L0 
     /tmp/cc6KI5Hb.s:689    .text:00000000000003c4 .L0 
     /tmp/cc6KI5Hb.s:690    .text:00000000000003c4 .L0 
     /tmp/cc6KI5Hb.s:692    .text:00000000000003c8 .L0 
     /tmp/cc6KI5Hb.s:695    .text:00000000000003cc .L0 
     /tmp/cc6KI5Hb.s:696    .text:00000000000003cc .L0 
     /tmp/cc6KI5Hb.s:703    .text:00000000000003e4 .L0 
     /tmp/cc6KI5Hb.s:704    .text:00000000000003e4 .L0 
     /tmp/cc6KI5Hb.s:706    .text:00000000000003e8 .L0 
     /tmp/cc6KI5Hb.s:708    .text:00000000000003ec .L0 
     /tmp/cc6KI5Hb.s:710    .text:00000000000003f0 .L0 
     /tmp/cc6KI5Hb.s:711    .text:00000000000003f0 .L0 
     /tmp/cc6KI5Hb.s:714    .text:00000000000003f4 .L0 
     /tmp/cc6KI5Hb.s:715    .text:00000000000003f4 .L0 
     /tmp/cc6KI5Hb.s:717    .text:00000000000003f8 .L0 
     /tmp/cc6KI5Hb.s:718    .text:00000000000003f8 .L0 
     /tmp/cc6KI5Hb.s:720    .text:00000000000003fc .L0 
     /tmp/cc6KI5Hb.s:721    .text:00000000000003fc .L0 
     /tmp/cc6KI5Hb.s:723    .text:0000000000000400 .L0 
     /tmp/cc6KI5Hb.s:724    .text:0000000000000400 .L0 
     /tmp/cc6KI5Hb.s:726    .text:0000000000000404 .L0 
     /tmp/cc6KI5Hb.s:727    .text:0000000000000404 .L0 
     /tmp/cc6KI5Hb.s:729    .text:0000000000000408 .L0 
     /tmp/cc6KI5Hb.s:732    .text:000000000000040c .L0 
     /tmp/cc6KI5Hb.s:733    .text:000000000000040c .L0 
     /tmp/cc6KI5Hb.s:736    .text:0000000000000410 .L0 
     /tmp/cc6KI5Hb.s:738    .text:0000000000000414 .L0 
     /tmp/cc6KI5Hb.s:741    .text:0000000000000418 .L0 
     /tmp/cc6KI5Hb.s:745    .text:000000000000041c .L0 
     /tmp/cc6KI5Hb.s:746    .text:000000000000041c .L0 
     /tmp/cc6KI5Hb.s:750    .text:0000000000000420 .L0 
     /tmp/cc6KI5Hb.s:751    .text:0000000000000420 .L0 
     /tmp/cc6KI5Hb.s:753    .text:0000000000000424 .L0 
     /tmp/cc6KI5Hb.s:755    .text:0000000000000428 .L0 
     /tmp/cc6KI5Hb.s:757    .text:000000000000042c .L0 
     /tmp/cc6KI5Hb.s:758    .text:000000000000042c .L0 
     /tmp/cc6KI5Hb.s:761    .text:0000000000000434 .L0 
     /tmp/cc6KI5Hb.s:767    .text:000000000000043c .L0 
     /tmp/cc6KI5Hb.s:768    .text:0000000000000440 .L0 
     /tmp/cc6KI5Hb.s:770    .text:0000000000000444 .L0 
     /tmp/cc6KI5Hb.s:771    .text:0000000000000444 .L0 
     /tmp/cc6KI5Hb.s:773    .text:0000000000000448 .L0 
     /tmp/cc6KI5Hb.s:776    .text:000000000000044c .L0 
     /tmp/cc6KI5Hb.s:778    .text:0000000000000450 .L0 
     /tmp/cc6KI5Hb.s:784    .text:0000000000000450 _Z18getOptimalSlabSizem
GAS LISTING /tmp/cc6KI5Hb.s 			page 58


     /tmp/cc6KI5Hb.s:787    .text:0000000000000450 .L0 
     /tmp/cc6KI5Hb.s:789    .text:0000000000000450 .L0 
     /tmp/cc6KI5Hb.s:790    .text:0000000000000454 .L0 
     /tmp/cc6KI5Hb.s:792    .text:0000000000000458 .L0 
     /tmp/cc6KI5Hb.s:794    .text:000000000000045c .L0 
     /tmp/cc6KI5Hb.s:797    .text:000000000000045c .L0 
     /tmp/cc6KI5Hb.s:798    .text:000000000000045c .L0 
     /tmp/cc6KI5Hb.s:802    .text:0000000000000460 .L0 
     /tmp/cc6KI5Hb.s:803    .text:0000000000000460 .L0 
     /tmp/cc6KI5Hb.s:804    .text:0000000000000460 .L0 
     /tmp/cc6KI5Hb.s:806    .text:0000000000000464 .L0 
     /tmp/cc6KI5Hb.s:808    .text:0000000000000468 .L0 
     /tmp/cc6KI5Hb.s:809    .text:0000000000000468 .L0 
     /tmp/cc6KI5Hb.s:812    .text:000000000000046c .L0 
     /tmp/cc6KI5Hb.s:815    .text:0000000000000470 .L0 
     /tmp/cc6KI5Hb.s:816    .text:0000000000000470 .L0 
     /tmp/cc6KI5Hb.s:818    .text:0000000000000474 .L0 
     /tmp/cc6KI5Hb.s:822    .text:0000000000000478 .L0 
     /tmp/cc6KI5Hb.s:823    .text:0000000000000478 .L0 
     /tmp/cc6KI5Hb.s:828    .text:0000000000000480 .L0 
     /tmp/cc6KI5Hb.s:832    .text:0000000000000484 .L0 
     /tmp/cc6KI5Hb.s:836    .text:000000000000048c .L0 
     /tmp/cc6KI5Hb.s:837    .text:000000000000048c .L0 
     /tmp/cc6KI5Hb.s:840    .text:0000000000000490 .L0 
     /tmp/cc6KI5Hb.s:841    .text:0000000000000490 .L0 
     /tmp/cc6KI5Hb.s:843    .text:0000000000000494 .L0 
     /tmp/cc6KI5Hb.s:846    .text:0000000000000498 .L0 
     /tmp/cc6KI5Hb.s:848    .text:000000000000049c .L0 
     /tmp/cc6KI5Hb.s:851    .text:00000000000004a0 .L0 
     /tmp/cc6KI5Hb.s:859    .text:00000000000004a8 .L0 
     /tmp/cc6KI5Hb.s:860    .text:00000000000004a8 .L0 
     /tmp/cc6KI5Hb.s:863    .text:00000000000004b0 .L0 
     /tmp/cc6KI5Hb.s:864    .text:00000000000004b0 .L0 
     /tmp/cc6KI5Hb.s:866    .text:00000000000004b4 .L0 
     /tmp/cc6KI5Hb.s:868    .text:00000000000004b8 .L0 
     /tmp/cc6KI5Hb.s:874    .text:00000000000004b8 _Z8findSlabP12kmem_cache_sPKv
     /tmp/cc6KI5Hb.s:877    .text:00000000000004b8 .L0 
     /tmp/cc6KI5Hb.s:879    .text:00000000000004b8 .L0 
     /tmp/cc6KI5Hb.s:880    .text:00000000000004bc .L0 
     /tmp/cc6KI5Hb.s:882    .text:00000000000004c0 .L0 
     /tmp/cc6KI5Hb.s:884    .text:00000000000004c4 .L0 
     /tmp/cc6KI5Hb.s:887    .text:00000000000004c8 .L0 
     /tmp/cc6KI5Hb.s:888    .text:00000000000004c8 .L0 
     /tmp/cc6KI5Hb.s:895    .text:00000000000004d0 .L0 
     /tmp/cc6KI5Hb.s:896    .text:00000000000004d0 .L0 
     /tmp/cc6KI5Hb.s:901    .text:00000000000004d4 .L0 
     /tmp/cc6KI5Hb.s:902    .text:00000000000004d4 .L0 
     /tmp/cc6KI5Hb.s:905    .text:00000000000004d8 .L0 
     /tmp/cc6KI5Hb.s:906    .text:00000000000004d8 .L0 
     /tmp/cc6KI5Hb.s:908    .text:00000000000004dc .L0 
     /tmp/cc6KI5Hb.s:910    .text:00000000000004e0 .L0 
     /tmp/cc6KI5Hb.s:912    .text:00000000000004e4 .L0 
     /tmp/cc6KI5Hb.s:914    .text:00000000000004e8 .L0 
     /tmp/cc6KI5Hb.s:916    .text:00000000000004ec .L0 
     /tmp/cc6KI5Hb.s:919    .text:00000000000004f0 .L0 
     /tmp/cc6KI5Hb.s:921    .text:00000000000004f4 .L0 
     /tmp/cc6KI5Hb.s:926    .text:00000000000004f8 .L0 
GAS LISTING /tmp/cc6KI5Hb.s 			page 59


     /tmp/cc6KI5Hb.s:927    .text:00000000000004fc .L0 
     /tmp/cc6KI5Hb.s:928    .text:00000000000004fc .L0 
     /tmp/cc6KI5Hb.s:929    .text:00000000000004fc .L0 
     /tmp/cc6KI5Hb.s:931    .text:0000000000000500 .L0 
     /tmp/cc6KI5Hb.s:934    .text:0000000000000504 .L0 
     /tmp/cc6KI5Hb.s:936    .text:0000000000000504 .L0 
     /tmp/cc6KI5Hb.s:937    .text:0000000000000504 .L0 
     /tmp/cc6KI5Hb.s:944    .text:000000000000050c .L0 
     /tmp/cc6KI5Hb.s:945    .text:000000000000050c .L0 
     /tmp/cc6KI5Hb.s:950    .text:0000000000000510 .L0 
     /tmp/cc6KI5Hb.s:951    .text:0000000000000510 .L0 
     /tmp/cc6KI5Hb.s:954    .text:0000000000000514 .L0 
     /tmp/cc6KI5Hb.s:955    .text:0000000000000514 .L0 
     /tmp/cc6KI5Hb.s:957    .text:0000000000000518 .L0 
     /tmp/cc6KI5Hb.s:959    .text:000000000000051c .L0 
     /tmp/cc6KI5Hb.s:961    .text:0000000000000520 .L0 
     /tmp/cc6KI5Hb.s:963    .text:0000000000000524 .L0 
     /tmp/cc6KI5Hb.s:965    .text:0000000000000528 .L0 
     /tmp/cc6KI5Hb.s:968    .text:000000000000052c .L0 
     /tmp/cc6KI5Hb.s:970    .text:0000000000000530 .L0 
     /tmp/cc6KI5Hb.s:973    .text:0000000000000538 .L0 
     /tmp/cc6KI5Hb.s:979    .text:0000000000000538 _Z19resetAllocatedIndexP6slab_si
     /tmp/cc6KI5Hb.s:982    .text:0000000000000538 .L0 
     /tmp/cc6KI5Hb.s:984    .text:0000000000000538 .L0 
     /tmp/cc6KI5Hb.s:985    .text:000000000000053c .L0 
     /tmp/cc6KI5Hb.s:987    .text:0000000000000540 .L0 
     /tmp/cc6KI5Hb.s:989    .text:0000000000000544 .L0 
     /tmp/cc6KI5Hb.s:991    .text:0000000000000544 .L0 
     /tmp/cc6KI5Hb.s:992    .text:0000000000000544 .L0 
     /tmp/cc6KI5Hb.s:998    .text:0000000000000554 .L0 
     /tmp/cc6KI5Hb.s:1001   .text:0000000000000558 .L0 
     /tmp/cc6KI5Hb.s:1003   .text:000000000000055c .L0 
     /tmp/cc6KI5Hb.s:1006   .text:0000000000000564 .L0 
     /tmp/cc6KI5Hb.s:1009   .text:000000000000056c .L0 
     /tmp/cc6KI5Hb.s:1012   .text:0000000000000574 .L0 
     /tmp/cc6KI5Hb.s:1014   .text:0000000000000578 .L0 
     /tmp/cc6KI5Hb.s:1015   .text:000000000000057c .L0 
     /tmp/cc6KI5Hb.s:1016   .text:000000000000057c .L0 
     /tmp/cc6KI5Hb.s:1018   .text:0000000000000580 .L0 
     /tmp/cc6KI5Hb.s:1020   .text:0000000000000584 .L0 
     /tmp/cc6KI5Hb.s:1043   .text:0000000000000584 _Z13printSlabInfoP6slab_s
     /tmp/cc6KI5Hb.s:1046   .text:0000000000000584 .L0 
     /tmp/cc6KI5Hb.s:1048   .text:0000000000000584 .L0 
     /tmp/cc6KI5Hb.s:1049   .text:0000000000000588 .L0 
     /tmp/cc6KI5Hb.s:1054   .text:0000000000000598 .L0 
     /tmp/cc6KI5Hb.s:1055   .text:0000000000000598 .L0 
     /tmp/cc6KI5Hb.s:1056   .text:0000000000000598 .L0 
     /tmp/cc6KI5Hb.s:1057   .text:0000000000000598 .L0 
     /tmp/cc6KI5Hb.s:1059   .text:000000000000059c .L0 
     /tmp/cc6KI5Hb.s:1062   .text:00000000000005a0 .L0 
     /tmp/cc6KI5Hb.s:1063   .text:00000000000005a0 .L0 
     /tmp/cc6KI5Hb.s:1068   .text:00000000000005b0 .L0 
     /tmp/cc6KI5Hb.s:1069   .text:00000000000005b0 .L0 
     /tmp/cc6KI5Hb.s:1075   .text:00000000000005c8 .L0 
     /tmp/cc6KI5Hb.s:1076   .text:00000000000005c8 .L0 
     /tmp/cc6KI5Hb.s:1082   .text:00000000000005e0 .L0 
     /tmp/cc6KI5Hb.s:1083   .text:00000000000005e0 .L0 
GAS LISTING /tmp/cc6KI5Hb.s 			page 60


     /tmp/cc6KI5Hb.s:1090   .text:00000000000005f8 .L0 
     /tmp/cc6KI5Hb.s:1091   .text:00000000000005f8 .L0 
     /tmp/cc6KI5Hb.s:1095   .text:00000000000005fc .L0 
     /tmp/cc6KI5Hb.s:1096   .text:00000000000005fc .L0 
     /tmp/cc6KI5Hb.s:1098   .text:0000000000000600 .L0 
     /tmp/cc6KI5Hb.s:1100   .text:0000000000000604 .L0 
     /tmp/cc6KI5Hb.s:1102   .text:0000000000000608 .L0 
     /tmp/cc6KI5Hb.s:1104   .text:000000000000060c .L0 
     /tmp/cc6KI5Hb.s:1105   .text:000000000000060c .L0 
     /tmp/cc6KI5Hb.s:1107   .text:0000000000000610 .L0 
     /tmp/cc6KI5Hb.s:1113   .text:0000000000000624 .L0 
     /tmp/cc6KI5Hb.s:1114   .text:0000000000000624 .L0 
     /tmp/cc6KI5Hb.s:1118   .text:0000000000000634 .L0 
     /tmp/cc6KI5Hb.s:1124   .text:000000000000063c .L0 
     /tmp/cc6KI5Hb.s:1125   .text:0000000000000640 .L0 
     /tmp/cc6KI5Hb.s:1127   .text:0000000000000644 .L0 
     /tmp/cc6KI5Hb.s:1128   .text:0000000000000644 .L0 
     /tmp/cc6KI5Hb.s:1130   .text:0000000000000648 .L0 
     /tmp/cc6KI5Hb.s:1133   .text:000000000000064c .L0 
     /tmp/cc6KI5Hb.s:1136   .text:0000000000000650 .L0 
     /tmp/cc6KI5Hb.s:1138   .text:0000000000000654 .L0 
     /tmp/cc6KI5Hb.s:1144   .text:0000000000000654 _Z16free_slab_objectP6slab_sPKv
     /tmp/cc6KI5Hb.s:1147   .text:0000000000000654 .L0 
     /tmp/cc6KI5Hb.s:1149   .text:0000000000000654 .L0 
     /tmp/cc6KI5Hb.s:1151   .text:0000000000000658 .L0 
     /tmp/cc6KI5Hb.s:1152   .text:0000000000000658 .L0 
     /tmp/cc6KI5Hb.s:1155   .text:0000000000000660 .L0 
     /tmp/cc6KI5Hb.s:1157   .text:0000000000000664 .L0 
     /tmp/cc6KI5Hb.s:1159   .text:0000000000000668 .L0 
     /tmp/cc6KI5Hb.s:1161   .text:000000000000066c .L0 
     /tmp/cc6KI5Hb.s:1164   .text:0000000000000670 .L0 
     /tmp/cc6KI5Hb.s:1165   .text:0000000000000670 .L0 
     /tmp/cc6KI5Hb.s:1167   .text:0000000000000674 .L0 
     /tmp/cc6KI5Hb.s:1170   .text:000000000000067c .L0 
     /tmp/cc6KI5Hb.s:1174   .text:0000000000000684 .L0 
     /tmp/cc6KI5Hb.s:1175   .text:0000000000000688 .L0 
     /tmp/cc6KI5Hb.s:1179   .text:0000000000000694 .L0 
     /tmp/cc6KI5Hb.s:1180   .text:0000000000000694 .L0 
     /tmp/cc6KI5Hb.s:1181   .text:0000000000000694 .L0 
     /tmp/cc6KI5Hb.s:1183   .text:0000000000000698 .L0 
     /tmp/cc6KI5Hb.s:1186   .text:000000000000069c .L0 
     /tmp/cc6KI5Hb.s:1187   .text:000000000000069c .L0 
     /tmp/cc6KI5Hb.s:1190   .text:00000000000006a4 .L0 
     /tmp/cc6KI5Hb.s:1191   .text:00000000000006a4 .L0 
     /tmp/cc6KI5Hb.s:1193   .text:00000000000006a8 .L0 
     /tmp/cc6KI5Hb.s:1195   .text:00000000000006ac .L0 
     /tmp/cc6KI5Hb.s:1197   .text:00000000000006b0 .L0 
     /tmp/cc6KI5Hb.s:1201   .text:00000000000006b8 .L0 
     /tmp/cc6KI5Hb.s:1202   .text:00000000000006b8 .L0 
     /tmp/cc6KI5Hb.s:1204   .text:00000000000006bc .L0 
     /tmp/cc6KI5Hb.s:1207   .text:00000000000006c4 .L0 
     /tmp/cc6KI5Hb.s:1208   .text:00000000000006c8 .L0 
     /tmp/cc6KI5Hb.s:1209   .text:00000000000006c8 .L0 
     /tmp/cc6KI5Hb.s:1211   .text:00000000000006cc .L0 
     /tmp/cc6KI5Hb.s:1212   .text:00000000000006cc .L0 
     /tmp/cc6KI5Hb.s:1214   .text:00000000000006d0 .L0 
     /tmp/cc6KI5Hb.s:1217   .text:00000000000006d4 .L0 
GAS LISTING /tmp/cc6KI5Hb.s 			page 61


     /tmp/cc6KI5Hb.s:1221   .text:00000000000006d8 .L0 
     /tmp/cc6KI5Hb.s:1223   .text:00000000000006d8 .L0 
     /tmp/cc6KI5Hb.s:1224   .text:00000000000006d8 .L0 
     /tmp/cc6KI5Hb.s:1231   .text:00000000000006ec .L0 
     /tmp/cc6KI5Hb.s:1232   .text:00000000000006ec .L0 
     /tmp/cc6KI5Hb.s:1237   .text:0000000000000700 .L0 
     /tmp/cc6KI5Hb.s:1243   .text:0000000000000700 _Z9kmem_initPvi
     /tmp/cc6KI5Hb.s:1246   .text:0000000000000700 .L0 
     /tmp/cc6KI5Hb.s:1248   .text:0000000000000700 .L0 
     /tmp/cc6KI5Hb.s:1249   .text:0000000000000704 .L0 
     /tmp/cc6KI5Hb.s:1252   .text:000000000000070c .L0 
     /tmp/cc6KI5Hb.s:1253   .text:000000000000070c .L0 
     /tmp/cc6KI5Hb.s:1255   .text:0000000000000710 .L0 
     /tmp/cc6KI5Hb.s:1257   .text:0000000000000710 .L0 
     /tmp/cc6KI5Hb.s:1258   .text:0000000000000710 .L0 
     /tmp/cc6KI5Hb.s:1261   .text:0000000000000718 .L0 
     /tmp/cc6KI5Hb.s:1262   .text:0000000000000718 .L0 
     /tmp/cc6KI5Hb.s:1265   .text:0000000000000720 .L0 
     /tmp/cc6KI5Hb.s:1267   .text:0000000000000728 .L0 
     /tmp/cc6KI5Hb.s:1268   .text:000000000000072c .L0 
     /tmp/cc6KI5Hb.s:1270   .text:0000000000000730 .L0 
     /tmp/cc6KI5Hb.s:1271   .text:0000000000000730 .L0 
     /tmp/cc6KI5Hb.s:1273   .text:0000000000000734 .L0 
     /tmp/cc6KI5Hb.s:1275   .text:0000000000000738 .L0 
     /tmp/cc6KI5Hb.s:1281   .text:0000000000000738 _Z16kmem_cache_allocP12kmem_cache_s
     /tmp/cc6KI5Hb.s:1284   .text:0000000000000738 .L0 
     /tmp/cc6KI5Hb.s:1286   .text:0000000000000738 .L0 
     /tmp/cc6KI5Hb.s:1287   .text:000000000000073c .L0 
     /tmp/cc6KI5Hb.s:1292   .text:000000000000074c .L0 
     /tmp/cc6KI5Hb.s:1293   .text:000000000000074c .L0 
     /tmp/cc6KI5Hb.s:1294   .text:000000000000074c .L0 
     /tmp/cc6KI5Hb.s:1295   .text:000000000000074c .L0 
     /tmp/cc6KI5Hb.s:1297   .text:0000000000000750 .L0 
     /tmp/cc6KI5Hb.s:1301   .text:0000000000000754 .L0 
     /tmp/cc6KI5Hb.s:1302   .text:0000000000000754 .L0 
     /tmp/cc6KI5Hb.s:1305   .text:0000000000000758 .L0 
     /tmp/cc6KI5Hb.s:1310   .text:000000000000075c .L0 
     /tmp/cc6KI5Hb.s:1311   .text:000000000000075c .L0 
     /tmp/cc6KI5Hb.s:1313   .text:0000000000000760 .L0 
     /tmp/cc6KI5Hb.s:1316   .text:0000000000000764 .L0 
     /tmp/cc6KI5Hb.s:1317   .text:0000000000000764 .L0 
     /tmp/cc6KI5Hb.s:1322   .text:0000000000000770 .L0 
     /tmp/cc6KI5Hb.s:1323   .text:0000000000000770 .L0 
     /tmp/cc6KI5Hb.s:1328   .text:000000000000077c .L0 
     /tmp/cc6KI5Hb.s:1330   .text:0000000000000780 .L0 
     /tmp/cc6KI5Hb.s:1331   .text:0000000000000780 .L0 
     /tmp/cc6KI5Hb.s:1335   .text:000000000000078c .L0 
     /tmp/cc6KI5Hb.s:1336   .text:000000000000078c .L0 
     /tmp/cc6KI5Hb.s:1343   .text:0000000000000790 .L0 
     /tmp/cc6KI5Hb.s:1344   .text:0000000000000790 .L0 
     /tmp/cc6KI5Hb.s:1349   .text:000000000000079c .L0 
     /tmp/cc6KI5Hb.s:1350   .text:000000000000079c .L0 
     /tmp/cc6KI5Hb.s:1355   .text:00000000000007a8 .L0 
     /tmp/cc6KI5Hb.s:1361   .text:00000000000007ac .L0 
     /tmp/cc6KI5Hb.s:1363   .text:00000000000007b4 .L0 
     /tmp/cc6KI5Hb.s:1364   .text:00000000000007b4 .L0 
     /tmp/cc6KI5Hb.s:1366   .text:00000000000007b8 .L0 
GAS LISTING /tmp/cc6KI5Hb.s 			page 62


     /tmp/cc6KI5Hb.s:1367   .text:00000000000007b8 .L0 
     /tmp/cc6KI5Hb.s:1369   .text:00000000000007bc .L0 
     /tmp/cc6KI5Hb.s:1372   .text:00000000000007c0 .L0 
     /tmp/cc6KI5Hb.s:1374   .text:00000000000007c4 .L0 
     /tmp/cc6KI5Hb.s:1378   .text:00000000000007c8 .L0 
     /tmp/cc6KI5Hb.s:1382   .text:00000000000007c8 .L0 
     /tmp/cc6KI5Hb.s:1383   .text:00000000000007c8 .L0 
     /tmp/cc6KI5Hb.s:1387   .text:00000000000007d4 .L0 
     /tmp/cc6KI5Hb.s:1388   .text:00000000000007d4 .L0 
     /tmp/cc6KI5Hb.s:1395   .text:00000000000007d8 .L0 
     /tmp/cc6KI5Hb.s:1396   .text:00000000000007d8 .L0 
     /tmp/cc6KI5Hb.s:1400   .text:00000000000007e4 .L0 
     /tmp/cc6KI5Hb.s:1401   .text:00000000000007e4 .L0 
     /tmp/cc6KI5Hb.s:1403   .text:00000000000007e8 .L0 
     /tmp/cc6KI5Hb.s:1405   .text:00000000000007ec .L0 
     /tmp/cc6KI5Hb.s:1406   .text:00000000000007ec .L0 
     /tmp/cc6KI5Hb.s:1412   .text:00000000000007fc .L0 
     /tmp/cc6KI5Hb.s:1413   .text:00000000000007fc .L0 
     /tmp/cc6KI5Hb.s:1418   .text:0000000000000808 .L0 
     /tmp/cc6KI5Hb.s:1420   .text:000000000000080c .L0 
     /tmp/cc6KI5Hb.s:1421   .text:000000000000080c .L0 
     /tmp/cc6KI5Hb.s:1425   .text:0000000000000818 .L0 
     /tmp/cc6KI5Hb.s:1426   .text:0000000000000818 .L0 
     /tmp/cc6KI5Hb.s:1430   .text:000000000000081c .L0 
     /tmp/cc6KI5Hb.s:1436   .text:000000000000081c _Z17kmem_cache_createPKcmPFvPvES3_
     /tmp/cc6KI5Hb.s:1439   .text:000000000000081c .L0 
     /tmp/cc6KI5Hb.s:1441   .text:000000000000081c .L0 
     /tmp/cc6KI5Hb.s:1442   .text:0000000000000820 .L0 
     /tmp/cc6KI5Hb.s:1450   .text:000000000000083c .L0 
     /tmp/cc6KI5Hb.s:1451   .text:000000000000083c .L0 
     /tmp/cc6KI5Hb.s:1452   .text:000000000000083c .L0 
     /tmp/cc6KI5Hb.s:1453   .text:000000000000083c .L0 
     /tmp/cc6KI5Hb.s:1454   .text:000000000000083c .L0 
     /tmp/cc6KI5Hb.s:1455   .text:000000000000083c .L0 
     /tmp/cc6KI5Hb.s:1456   .text:000000000000083c .L0 
     /tmp/cc6KI5Hb.s:1458   .text:0000000000000840 .L0 
     /tmp/cc6KI5Hb.s:1464   .text:0000000000000850 .L0 
     /tmp/cc6KI5Hb.s:1465   .text:0000000000000850 .L0 
     /tmp/cc6KI5Hb.s:1473   .text:0000000000000868 .L0 
     /tmp/cc6KI5Hb.s:1474   .text:0000000000000868 .L0 
     /tmp/cc6KI5Hb.s:1476   .text:000000000000086c .L0 
     /tmp/cc6KI5Hb.s:1477   .text:000000000000086c .L0 
     /tmp/cc6KI5Hb.s:1479   .text:0000000000000870 .L0 
     /tmp/cc6KI5Hb.s:1480   .text:0000000000000870 .L0 
     /tmp/cc6KI5Hb.s:1482   .text:0000000000000874 .L0 
     /tmp/cc6KI5Hb.s:1483   .text:0000000000000874 .L0 
     /tmp/cc6KI5Hb.s:1485   .text:0000000000000878 .L0 
     /tmp/cc6KI5Hb.s:1486   .text:0000000000000878 .L0 
     /tmp/cc6KI5Hb.s:1488   .text:000000000000087c .L0 
     /tmp/cc6KI5Hb.s:1489   .text:000000000000087c .L0 
     /tmp/cc6KI5Hb.s:1494   .text:000000000000088c .L0 
     /tmp/cc6KI5Hb.s:1495   .text:000000000000088c .L0 
     /tmp/cc6KI5Hb.s:1497   .text:0000000000000890 .L0 
     /tmp/cc6KI5Hb.s:1498   .text:0000000000000890 .L0 
     /tmp/cc6KI5Hb.s:1502   .text:000000000000089c .L0 
     /tmp/cc6KI5Hb.s:1504   .text:00000000000008a0 .L0 
     /tmp/cc6KI5Hb.s:1505   .text:00000000000008a0 .L0 
GAS LISTING /tmp/cc6KI5Hb.s 			page 63


     /tmp/cc6KI5Hb.s:1507   .text:00000000000008a8 .L0 
     /tmp/cc6KI5Hb.s:1509   .text:00000000000008ac .L0 
     /tmp/cc6KI5Hb.s:1510   .text:00000000000008ac .L0 
     /tmp/cc6KI5Hb.s:1512   .text:00000000000008b0 .L0 
     /tmp/cc6KI5Hb.s:1515   .text:00000000000008b4 .L0 
     /tmp/cc6KI5Hb.s:1518   .text:00000000000008b8 .L0 
     /tmp/cc6KI5Hb.s:1521   .text:00000000000008bc .L0 
     /tmp/cc6KI5Hb.s:1524   .text:00000000000008c0 .L0 
     /tmp/cc6KI5Hb.s:1527   .text:00000000000008c4 .L0 
     /tmp/cc6KI5Hb.s:1529   .text:00000000000008c8 .L0 
     /tmp/cc6KI5Hb.s:1535   .text:00000000000008c8 _Z15kmem_cache_freeP12kmem_cache_sPv
     /tmp/cc6KI5Hb.s:1538   .text:00000000000008c8 .L0 
     /tmp/cc6KI5Hb.s:1540   .text:00000000000008c8 .L0 
     /tmp/cc6KI5Hb.s:1541   .text:00000000000008cc .L0 
     /tmp/cc6KI5Hb.s:1545   .text:00000000000008d8 .L0 
     /tmp/cc6KI5Hb.s:1546   .text:00000000000008d8 .L0 
     /tmp/cc6KI5Hb.s:1547   .text:00000000000008d8 .L0 
     /tmp/cc6KI5Hb.s:1549   .text:00000000000008dc .L0 
     /tmp/cc6KI5Hb.s:1552   .text:00000000000008e0 .L0 
     /tmp/cc6KI5Hb.s:1553   .text:00000000000008e0 .L0 
     /tmp/cc6KI5Hb.s:1556   .text:00000000000008e8 .L0 
     /tmp/cc6KI5Hb.s:1558   .text:00000000000008ec .L0 
     /tmp/cc6KI5Hb.s:1559   .text:00000000000008ec .L0 
     /tmp/cc6KI5Hb.s:1564   .text:00000000000008f8 .L0 
     /tmp/cc6KI5Hb.s:1565   .text:00000000000008fc .L0 
     /tmp/cc6KI5Hb.s:1567   .text:0000000000000900 .L0 
     /tmp/cc6KI5Hb.s:1568   .text:0000000000000900 .L0 
     /tmp/cc6KI5Hb.s:1570   .text:0000000000000904 .L0 
     /tmp/cc6KI5Hb.s:1573   .text:0000000000000908 .L0 
     /tmp/cc6KI5Hb.s:1575   .text:000000000000090c .L0 
     /tmp/cc6KI5Hb.s:1607   .text:000000000000090c _Z15kmem_cache_infoP12kmem_cache_s
     /tmp/cc6KI5Hb.s:1610   .text:000000000000090c .L0 
     /tmp/cc6KI5Hb.s:1612   .text:000000000000090c .L0 
     /tmp/cc6KI5Hb.s:1613   .text:0000000000000910 .L0 
     /tmp/cc6KI5Hb.s:1618   .text:0000000000000920 .L0 
     /tmp/cc6KI5Hb.s:1619   .text:0000000000000920 .L0 
     /tmp/cc6KI5Hb.s:1620   .text:0000000000000920 .L0 
     /tmp/cc6KI5Hb.s:1621   .text:0000000000000920 .L0 
     /tmp/cc6KI5Hb.s:1623   .text:0000000000000924 .L0 
     /tmp/cc6KI5Hb.s:1626   .text:0000000000000928 .L0 
     /tmp/cc6KI5Hb.s:1627   .text:0000000000000928 .L0 
     /tmp/cc6KI5Hb.s:1632   .text:0000000000000938 .L0 
     /tmp/cc6KI5Hb.s:1633   .text:0000000000000938 .L0 
     /tmp/cc6KI5Hb.s:1637   .text:0000000000000948 .L0 
     /tmp/cc6KI5Hb.s:1638   .text:0000000000000948 .L0 
     /tmp/cc6KI5Hb.s:1642   .text:0000000000000954 .L0 
     /tmp/cc6KI5Hb.s:1643   .text:0000000000000954 .L0 
     /tmp/cc6KI5Hb.s:1647   .text:0000000000000964 .L0 
     /tmp/cc6KI5Hb.s:1648   .text:0000000000000964 .L0 
     /tmp/cc6KI5Hb.s:1654   .text:000000000000097c .L0 
     /tmp/cc6KI5Hb.s:1655   .text:000000000000097c .L0 
     /tmp/cc6KI5Hb.s:1661   .text:0000000000000994 .L0 
     /tmp/cc6KI5Hb.s:1662   .text:0000000000000994 .L0 
     /tmp/cc6KI5Hb.s:1666   .text:00000000000009a4 .L0 
     /tmp/cc6KI5Hb.s:1667   .text:00000000000009a4 .L0 
     /tmp/cc6KI5Hb.s:1671   .text:00000000000009b4 .L0 
     /tmp/cc6KI5Hb.s:1672   .text:00000000000009b4 .L0 
GAS LISTING /tmp/cc6KI5Hb.s 			page 64


     /tmp/cc6KI5Hb.s:1676   .text:00000000000009b8 .L0 
     /tmp/cc6KI5Hb.s:1677   .text:00000000000009b8 .L0 
     /tmp/cc6KI5Hb.s:1679   .text:00000000000009bc .L0 
     /tmp/cc6KI5Hb.s:1680   .text:00000000000009bc .L0 
     /tmp/cc6KI5Hb.s:1684   .text:00000000000009c8 .L0 
     /tmp/cc6KI5Hb.s:1685   .text:00000000000009c8 .L0 
     /tmp/cc6KI5Hb.s:1688   .text:00000000000009cc .L0 
     /tmp/cc6KI5Hb.s:1691   .text:00000000000009d0 .L0 
     /tmp/cc6KI5Hb.s:1692   .text:00000000000009d0 .L0 
     /tmp/cc6KI5Hb.s:1696   .text:00000000000009e0 .L0 
     /tmp/cc6KI5Hb.s:1697   .text:00000000000009e0 .L0 
     /tmp/cc6KI5Hb.s:1701   .text:00000000000009e4 .L0 
     /tmp/cc6KI5Hb.s:1702   .text:00000000000009e4 .L0 
     /tmp/cc6KI5Hb.s:1704   .text:00000000000009e8 .L0 
     /tmp/cc6KI5Hb.s:1705   .text:00000000000009e8 .L0 
     /tmp/cc6KI5Hb.s:1709   .text:00000000000009f4 .L0 
     /tmp/cc6KI5Hb.s:1710   .text:00000000000009f4 .L0 
     /tmp/cc6KI5Hb.s:1713   .text:00000000000009f8 .L0 
     /tmp/cc6KI5Hb.s:1716   .text:00000000000009fc .L0 
     /tmp/cc6KI5Hb.s:1717   .text:00000000000009fc .L0 
     /tmp/cc6KI5Hb.s:1721   .text:0000000000000a0c .L0 
     /tmp/cc6KI5Hb.s:1722   .text:0000000000000a0c .L0 
     /tmp/cc6KI5Hb.s:1726   .text:0000000000000a10 .L0 
     /tmp/cc6KI5Hb.s:1727   .text:0000000000000a10 .L0 
     /tmp/cc6KI5Hb.s:1729   .text:0000000000000a14 .L0 
     /tmp/cc6KI5Hb.s:1730   .text:0000000000000a14 .L0 
     /tmp/cc6KI5Hb.s:1734   .text:0000000000000a20 .L0 
     /tmp/cc6KI5Hb.s:1735   .text:0000000000000a20 .L0 
     /tmp/cc6KI5Hb.s:1738   .text:0000000000000a24 .L0 
     /tmp/cc6KI5Hb.s:1741   .text:0000000000000a28 .L0 
     /tmp/cc6KI5Hb.s:1742   .text:0000000000000a2c .L0 
     /tmp/cc6KI5Hb.s:1744   .text:0000000000000a30 .L0 
     /tmp/cc6KI5Hb.s:1745   .text:0000000000000a30 .L0 
     /tmp/cc6KI5Hb.s:1747   .text:0000000000000a34 .L0 
     /tmp/cc6KI5Hb.s:1750   .text:0000000000000a38 .L0 
     /tmp/cc6KI5Hb.s:1753   .text:0000000000000a3c .L0 
     /tmp/cc6KI5Hb.s:1755   .text:0000000000000a40 .L0 
     /tmp/cc6KI5Hb.s:1778   .text:0000000000000a40 _Z22printSlabAllocatorInfov
     /tmp/cc6KI5Hb.s:1781   .text:0000000000000a40 .L0 
     /tmp/cc6KI5Hb.s:1782   .text:0000000000000a40 .L0 
     /tmp/cc6KI5Hb.s:1783   .text:0000000000000a44 .L0 
     /tmp/cc6KI5Hb.s:1787   .text:0000000000000a50 .L0 
     /tmp/cc6KI5Hb.s:1788   .text:0000000000000a50 .L0 
     /tmp/cc6KI5Hb.s:1789   .text:0000000000000a50 .L0 
     /tmp/cc6KI5Hb.s:1791   .text:0000000000000a54 .L0 
     /tmp/cc6KI5Hb.s:1793   .text:0000000000000a54 .L0 
     /tmp/cc6KI5Hb.s:1794   .text:0000000000000a54 .L0 
     /tmp/cc6KI5Hb.s:1798   .text:0000000000000a64 .L0 
     /tmp/cc6KI5Hb.s:1799   .text:0000000000000a64 .L0 
     /tmp/cc6KI5Hb.s:1802   .text:0000000000000a70 .L0 
     /tmp/cc6KI5Hb.s:1808   .text:0000000000000a88 .L0 
     /tmp/cc6KI5Hb.s:1809   .text:0000000000000a88 .L0 
     /tmp/cc6KI5Hb.s:1815   .text:0000000000000aa0 .L0 
     /tmp/cc6KI5Hb.s:1816   .text:0000000000000aa0 .L0 
     /tmp/cc6KI5Hb.s:1820   .text:0000000000000ab0 .L0 
     /tmp/cc6KI5Hb.s:1821   .text:0000000000000ab0 .L0 
     /tmp/cc6KI5Hb.s:1823   .text:0000000000000ab4 .L0 
GAS LISTING /tmp/cc6KI5Hb.s 			page 65


     /tmp/cc6KI5Hb.s:1827   .text:0000000000000ac0 .L0 
     /tmp/cc6KI5Hb.s:1828   .text:0000000000000ac0 .L0 
     /tmp/cc6KI5Hb.s:1833   .text:0000000000000ad0 .L0 
     /tmp/cc6KI5Hb.s:1834   .text:0000000000000ad0 .L0 
     /tmp/cc6KI5Hb.s:1839   .text:0000000000000ad8 .L0 
     /tmp/cc6KI5Hb.s:1840   .text:0000000000000ad8 .L0 
     /tmp/cc6KI5Hb.s:1844   .text:0000000000000ae0 .L0 
     /tmp/cc6KI5Hb.s:1848   .text:0000000000000ae4 .L0 
     /tmp/cc6KI5Hb.s:1851   .text:0000000000000aec .L0 
     /tmp/cc6KI5Hb.s:1852   .text:0000000000000aec .L0 
     /tmp/cc6KI5Hb.s:1857   .text:0000000000000b00 .L0 
     /tmp/cc6KI5Hb.s:1862   .text:0000000000000b08 .L0 
     /tmp/cc6KI5Hb.s:1863   .text:0000000000000b0c .L0 
     /tmp/cc6KI5Hb.s:1865   .text:0000000000000b10 .L0 
     /tmp/cc6KI5Hb.s:1866   .text:0000000000000b10 .L0 
     /tmp/cc6KI5Hb.s:1868   .text:0000000000000b14 .L0 
     /tmp/cc6KI5Hb.s:1871   .text:0000000000000b18 .L0 
     /tmp/cc6KI5Hb.s:1873   .text:0000000000000b1c .L0 
     /tmp/cc6KI5Hb.s:1879   .text:0000000000000b1c _Z7kmallocm
     /tmp/cc6KI5Hb.s:1882   .text:0000000000000b1c .L0 
     /tmp/cc6KI5Hb.s:1884   .text:0000000000000b1c .L0 
     /tmp/cc6KI5Hb.s:1885   .text:0000000000000b20 .L0 
     /tmp/cc6KI5Hb.s:1890   .text:0000000000000b30 .L0 
     /tmp/cc6KI5Hb.s:1891   .text:0000000000000b30 .L0 
     /tmp/cc6KI5Hb.s:1892   .text:0000000000000b30 .L0 
     /tmp/cc6KI5Hb.s:1893   .text:0000000000000b30 .L0 
     /tmp/cc6KI5Hb.s:1895   .text:0000000000000b34 .L0 
     /tmp/cc6KI5Hb.s:1897   .text:0000000000000b34 .L0 
     /tmp/cc6KI5Hb.s:1898   .text:0000000000000b34 .L0 
     /tmp/cc6KI5Hb.s:1901   .text:0000000000000b3c .L0 
     /tmp/cc6KI5Hb.s:1904   .text:0000000000000b44 .L0 
     /tmp/cc6KI5Hb.s:1907   .text:0000000000000b4c .L0 
     /tmp/cc6KI5Hb.s:1913   .text:0000000000000b54 .L0 
     /tmp/cc6KI5Hb.s:1917   .text:0000000000000b58 .L0 
     /tmp/cc6KI5Hb.s:1918   .text:0000000000000b58 .L0 
     /tmp/cc6KI5Hb.s:1921   .text:0000000000000b5c .L0 
     /tmp/cc6KI5Hb.s:1922   .text:0000000000000b5c .L0 
     /tmp/cc6KI5Hb.s:1927   .text:0000000000000b70 .L0 
     /tmp/cc6KI5Hb.s:1930   .text:0000000000000b74 .L0 
     /tmp/cc6KI5Hb.s:1931   .text:0000000000000b74 .L0 
     /tmp/cc6KI5Hb.s:1940   .text:0000000000000b90 .L0 
     /tmp/cc6KI5Hb.s:1941   .text:0000000000000b94 .L0 
     /tmp/cc6KI5Hb.s:1942   .text:0000000000000b94 .L0 
     /tmp/cc6KI5Hb.s:1944   .text:0000000000000b98 .L0 
     /tmp/cc6KI5Hb.s:1945   .text:0000000000000b98 .L0 
     /tmp/cc6KI5Hb.s:1947   .text:0000000000000b9c .L0 
     /tmp/cc6KI5Hb.s:1949   .text:0000000000000ba0 .L0 
     /tmp/cc6KI5Hb.s:1951   .text:0000000000000ba4 .L0 
     /tmp/cc6KI5Hb.s:1955   .text:0000000000000ba8 .L0 
     /tmp/cc6KI5Hb.s:1957   .text:0000000000000ba8 .L0 
     /tmp/cc6KI5Hb.s:1958   .text:0000000000000ba8 .L0 
     /tmp/cc6KI5Hb.s:1962   .text:0000000000000bb4 .L0 
     /tmp/cc6KI5Hb.s:1966   .text:0000000000000bc4 .L0 
     /tmp/cc6KI5Hb.s:1972   .text:0000000000000bc4 _Z5kfreePKv
     /tmp/cc6KI5Hb.s:1975   .text:0000000000000bc4 .L0 
     /tmp/cc6KI5Hb.s:1977   .text:0000000000000bc4 .L0 
     /tmp/cc6KI5Hb.s:1978   .text:0000000000000bc8 .L0 
GAS LISTING /tmp/cc6KI5Hb.s 			page 66


     /tmp/cc6KI5Hb.s:1983   .text:0000000000000bd8 .L0 
     /tmp/cc6KI5Hb.s:1984   .text:0000000000000bd8 .L0 
     /tmp/cc6KI5Hb.s:1985   .text:0000000000000bd8 .L0 
     /tmp/cc6KI5Hb.s:1986   .text:0000000000000bd8 .L0 
     /tmp/cc6KI5Hb.s:1988   .text:0000000000000bdc .L0 
     /tmp/cc6KI5Hb.s:1992   .text:0000000000000be0 .L0 
     /tmp/cc6KI5Hb.s:1994   .text:0000000000000be0 .L0 
     /tmp/cc6KI5Hb.s:1995   .text:0000000000000be0 .L0 
     /tmp/cc6KI5Hb.s:1998   .text:0000000000000be4 .L0 
     /tmp/cc6KI5Hb.s:2003   .text:0000000000000be8 .L0 
     /tmp/cc6KI5Hb.s:2006   .text:0000000000000bf0 .L0 
     /tmp/cc6KI5Hb.s:2007   .text:0000000000000bf0 .L0 
     /tmp/cc6KI5Hb.s:2016   .text:0000000000000c10 .L0 
     /tmp/cc6KI5Hb.s:2018   .text:0000000000000c14 .L0 
     /tmp/cc6KI5Hb.s:2024   .text:0000000000000c1c .L0 
     /tmp/cc6KI5Hb.s:2026   .text:0000000000000c20 .L0 
     /tmp/cc6KI5Hb.s:2027   .text:0000000000000c20 .L0 
     /tmp/cc6KI5Hb.s:2032   .text:0000000000000c2c .L0 
     /tmp/cc6KI5Hb.s:2033   .text:0000000000000c30 .L0 
     /tmp/cc6KI5Hb.s:2035   .text:0000000000000c34 .L0 
     /tmp/cc6KI5Hb.s:2036   .text:0000000000000c34 .L0 
     /tmp/cc6KI5Hb.s:2038   .text:0000000000000c38 .L0 
     /tmp/cc6KI5Hb.s:2041   .text:0000000000000c3c .L0 
     /tmp/cc6KI5Hb.s:2044   .text:0000000000000c40 .L0 
     /tmp/cc6KI5Hb.s:2046   .text:0000000000000c44 .L0 
     /tmp/cc6KI5Hb.s:2052   .text:0000000000000c44 _Z17destroy_slab_listP6slab_s
     /tmp/cc6KI5Hb.s:2055   .text:0000000000000c44 .L0 
     /tmp/cc6KI5Hb.s:2057   .text:0000000000000c44 .L0 
     /tmp/cc6KI5Hb.s:2058   .text:0000000000000c44 .L0 
     /tmp/cc6KI5Hb.s:2060   .text:0000000000000c48 .L0 
     /tmp/cc6KI5Hb.s:2061   .text:0000000000000c4c .L0 
     /tmp/cc6KI5Hb.s:2066   .text:0000000000000c5c .L0 
     /tmp/cc6KI5Hb.s:2067   .text:0000000000000c5c .L0 
     /tmp/cc6KI5Hb.s:2068   .text:0000000000000c5c .L0 
     /tmp/cc6KI5Hb.s:2069   .text:0000000000000c5c .L0 
     /tmp/cc6KI5Hb.s:2071   .text:0000000000000c60 .L0 
     /tmp/cc6KI5Hb.s:2074   .text:0000000000000c64 .L0 
     /tmp/cc6KI5Hb.s:2075   .text:0000000000000c64 .L0 
     /tmp/cc6KI5Hb.s:2077   .text:0000000000000c68 .L0 
     /tmp/cc6KI5Hb.s:2081   .text:0000000000000c6c .L0 
     /tmp/cc6KI5Hb.s:2082   .text:0000000000000c6c .L0 
     /tmp/cc6KI5Hb.s:2085   .text:0000000000000c70 .L0 
     /tmp/cc6KI5Hb.s:2086   .text:0000000000000c70 .L0 
     /tmp/cc6KI5Hb.s:2089   .text:0000000000000c74 .L0 
     /tmp/cc6KI5Hb.s:2090   .text:0000000000000c74 .L0 
     /tmp/cc6KI5Hb.s:2096   .text:0000000000000c8c .L0 
     /tmp/cc6KI5Hb.s:2097   .text:0000000000000c8c .L0 
     /tmp/cc6KI5Hb.s:2100   .text:0000000000000c90 .L0 
     /tmp/cc6KI5Hb.s:2104   .text:0000000000000c94 .L0 
     /tmp/cc6KI5Hb.s:2105   .text:0000000000000c98 .L0 
     /tmp/cc6KI5Hb.s:2107   .text:0000000000000c9c .L0 
     /tmp/cc6KI5Hb.s:2108   .text:0000000000000c9c .L0 
     /tmp/cc6KI5Hb.s:2110   .text:0000000000000ca0 .L0 
     /tmp/cc6KI5Hb.s:2112   .text:0000000000000ca4 .L0 
     /tmp/cc6KI5Hb.s:2115   .text:0000000000000ca8 .L0 
     /tmp/cc6KI5Hb.s:2120   .text:0000000000000cb0 .L0 
     /tmp/cc6KI5Hb.s:2126   .text:0000000000000cb0 _Z18kmem_cache_destroyP12kmem_cache_s
GAS LISTING /tmp/cc6KI5Hb.s 			page 67


     /tmp/cc6KI5Hb.s:2129   .text:0000000000000cb0 .L0 
     /tmp/cc6KI5Hb.s:2131   .text:0000000000000cb0 .L0 
     /tmp/cc6KI5Hb.s:2132   .text:0000000000000cb4 .L0 
     /tmp/cc6KI5Hb.s:2136   .text:0000000000000cc0 .L0 
     /tmp/cc6KI5Hb.s:2137   .text:0000000000000cc0 .L0 
     /tmp/cc6KI5Hb.s:2138   .text:0000000000000cc0 .L0 
     /tmp/cc6KI5Hb.s:2140   .text:0000000000000cc4 .L0 
     /tmp/cc6KI5Hb.s:2143   .text:0000000000000cc8 .L0 
     /tmp/cc6KI5Hb.s:2144   .text:0000000000000cc8 .L0 
     /tmp/cc6KI5Hb.s:2149   .text:0000000000000cd4 .L0 
     /tmp/cc6KI5Hb.s:2150   .text:0000000000000cd4 .L0 
     /tmp/cc6KI5Hb.s:2154   .text:0000000000000ce0 .L0 
     /tmp/cc6KI5Hb.s:2155   .text:0000000000000ce0 .L0 
     /tmp/cc6KI5Hb.s:2159   .text:0000000000000cec .L0 
     /tmp/cc6KI5Hb.s:2160   .text:0000000000000cec .L0 
     /tmp/cc6KI5Hb.s:2166   .text:0000000000000d04 .L0 
     /tmp/cc6KI5Hb.s:2167   .text:0000000000000d08 .L0 
     /tmp/cc6KI5Hb.s:2169   .text:0000000000000d0c .L0 
     /tmp/cc6KI5Hb.s:2170   .text:0000000000000d0c .L0 
     /tmp/cc6KI5Hb.s:2172   .text:0000000000000d10 .L0 
     /tmp/cc6KI5Hb.s:2175   .text:0000000000000d14 .L0 
     /tmp/cc6KI5Hb.s:2177   .text:0000000000000d18 .L0 
     /tmp/cc6KI5Hb.s:2182   .bss:0000000000000000 .LANCHOR0
     /tmp/cc6KI5Hb.s:2185   .bss:0000000000000000 _ZL13slabAllocator
     /tmp/cc6KI5Hb.s:2195   .text:0000000000000d18 .L0 
     /tmp/cc6KI5Hb.s:57     .rodata.str1.8:0000000000000000 .LC0
     /tmp/cc6KI5Hb.s:112    .text:000000000000007c .L0 
     /tmp/cc6KI5Hb.s:697    .text:00000000000003d0 .L0 
     /tmp/cc6KI5Hb.s:1025   .rodata.str1.8:0000000000000010 .LC1
     /tmp/cc6KI5Hb.s:1063   .text:00000000000005a0 .L0 
     /tmp/cc6KI5Hb.s:1028   .rodata.str1.8:0000000000000028 .LC2
     /tmp/cc6KI5Hb.s:1071   .text:00000000000005b8 .L0 
     /tmp/cc6KI5Hb.s:1031   .rodata.str1.8:0000000000000038 .LC3
     /tmp/cc6KI5Hb.s:1078   .text:00000000000005d0 .L0 
     /tmp/cc6KI5Hb.s:1034   .rodata.str1.8:0000000000000058 .LC4
     /tmp/cc6KI5Hb.s:1085   .text:00000000000005e8 .L0 
     /tmp/cc6KI5Hb.s:1037   .rodata.str1.8:0000000000000070 .LC5
     /tmp/cc6KI5Hb.s:1114   .text:0000000000000624 .L0 
     /tmp/cc6KI5Hb.s:1265   .text:0000000000000720 .L0 
     /tmp/cc6KI5Hb.s:1465   .text:0000000000000850 .L0 
     /tmp/cc6KI5Hb.s:1580   .rodata.str1.8:0000000000000078 .LC6
     /tmp/cc6KI5Hb.s:1627   .text:0000000000000928 .L0 
     /tmp/cc6KI5Hb.s:1583   .rodata.str1.8:00000000000000b0 .LC7
     /tmp/cc6KI5Hb.s:1633   .text:0000000000000938 .L0 
     /tmp/cc6KI5Hb.s:1643   .text:0000000000000954 .L0 
     /tmp/cc6KI5Hb.s:1586   .rodata.str1.8:00000000000000c0 .LC8
     /tmp/cc6KI5Hb.s:1650   .text:000000000000096c .L0 
     /tmp/cc6KI5Hb.s:1589   .rodata.str1.8:00000000000000e0 .LC9
     /tmp/cc6KI5Hb.s:1657   .text:0000000000000984 .L0 
     /tmp/cc6KI5Hb.s:1592   .rodata.str1.8:0000000000000100 .LC10
     /tmp/cc6KI5Hb.s:1662   .text:0000000000000994 .L0 
     /tmp/cc6KI5Hb.s:1595   .rodata.str1.8:0000000000000120 .LC11
     /tmp/cc6KI5Hb.s:1667   .text:00000000000009a4 .L0 
     /tmp/cc6KI5Hb.s:1598   .rodata.str1.8:0000000000000130 .LC12
     /tmp/cc6KI5Hb.s:1692   .text:00000000000009d0 .L0 
     /tmp/cc6KI5Hb.s:1601   .rodata.str1.8:0000000000000140 .LC13
     /tmp/cc6KI5Hb.s:1717   .text:00000000000009fc .L0 
GAS LISTING /tmp/cc6KI5Hb.s 			page 68


     /tmp/cc6KI5Hb.s:1760   .rodata.str1.8:0000000000000150 .LC14
     /tmp/cc6KI5Hb.s:1794   .text:0000000000000a54 .L0 
     /tmp/cc6KI5Hb.s:1799   .text:0000000000000a64 .L0 
     /tmp/cc6KI5Hb.s:1763   .rodata.str1.8:00000000000001a0 .LC15
     /tmp/cc6KI5Hb.s:1804   .text:0000000000000a78 .L0 
     /tmp/cc6KI5Hb.s:1766   .rodata.str1.8:00000000000001c0 .LC16
     /tmp/cc6KI5Hb.s:1811   .text:0000000000000a90 .L0 
     /tmp/cc6KI5Hb.s:1769   .rodata.str1.8:00000000000001d8 .LC17
     /tmp/cc6KI5Hb.s:1816   .text:0000000000000aa0 .L0 
     /tmp/cc6KI5Hb.s:1772   .rodata.str1.8:00000000000001f0 .LC18
     /tmp/cc6KI5Hb.s:1828   .text:0000000000000ac0 .L0 
     /tmp/cc6KI5Hb.s:1853   .text:0000000000000af0 .L0 
     /tmp/cc6KI5Hb.s:1922   .text:0000000000000b5c .L0 
     /tmp/cc6KI5Hb.s:1932   .text:0000000000000b78 .L0 
     /tmp/cc6KI5Hb.s:2008   .text:0000000000000bf4 .L0 
     /tmp/cc6KI5Hb.s:2091   .text:0000000000000c78 .L0 
     /tmp/cc6KI5Hb.s:2161   .text:0000000000000cf0 .L0 
     /tmp/cc6KI5Hb.s:41     .text:0000000000000024 .L2
     /tmp/cc6KI5Hb.s:21     .text:000000000000000c .L3
     /tmp/cc6KI5Hb.s:104    .text:0000000000000070 .L7
     /tmp/cc6KI5Hb.s:95     .text:0000000000000060 .L9
     /tmp/cc6KI5Hb.s:231    .text:000000000000012c .L15
     /tmp/cc6KI5Hb.s:210    .text:0000000000000110 .L17
     /tmp/cc6KI5Hb.s:181    .text:00000000000000e0 .L13
     /tmp/cc6KI5Hb.s:240    .text:0000000000000134 .L11
     /tmp/cc6KI5Hb.s:271    .text:0000000000000174 .L10
     /tmp/cc6KI5Hb.s:370    .text:00000000000001e8 .L23
     /tmp/cc6KI5Hb.s:430    .text:0000000000000234 .L31
     /tmp/cc6KI5Hb.s:415    .text:0000000000000220 .L29
     /tmp/cc6KI5Hb.s:440    .text:0000000000000240 .L27
     /tmp/cc6KI5Hb.s:421    .text:0000000000000228 .L25
     /tmp/cc6KI5Hb.s:712    .text:00000000000003f4 .L41
     /tmp/cc6KI5Hb.s:764    .text:000000000000043c .L40
     /tmp/cc6KI5Hb.s:748    .text:0000000000000420 .L43
     /tmp/cc6KI5Hb.s:813    .text:0000000000000470 .L46
     /tmp/cc6KI5Hb.s:800    .text:0000000000000460 .L47
     /tmp/cc6KI5Hb.s:830    .text:0000000000000484 .L50
     /tmp/cc6KI5Hb.s:855    .text:00000000000004a8 .L48
     /tmp/cc6KI5Hb.s:826    .text:0000000000000480 .L49
     /tmp/cc6KI5Hb.s:898    .text:00000000000004d4 .L57
     /tmp/cc6KI5Hb.s:933    .text:0000000000000504 .L54
     /tmp/cc6KI5Hb.s:892    .text:00000000000004d0 .L55
     /tmp/cc6KI5Hb.s:947    .text:0000000000000510 .L59
     /tmp/cc6KI5Hb.s:923    .text:00000000000004f8 .L53
     /tmp/cc6KI5Hb.s:941    .text:000000000000050c .L58
     /tmp/cc6KI5Hb.s:1121   .text:000000000000063c .L63
     /tmp/cc6KI5Hb.s:1093   .text:00000000000005fc .L65
     /tmp/cc6KI5Hb.s:1172   .text:0000000000000684 .L75
     /tmp/cc6KI5Hb.s:1220   .text:00000000000006d8 .L76
     /tmp/cc6KI5Hb.s:1229   .text:00000000000006ec .L77
     /tmp/cc6KI5Hb.s:1199   .text:00000000000006b8 .L70
     /tmp/cc6KI5Hb.s:1338   .text:0000000000000790 .L88
     /tmp/cc6KI5Hb.s:1390   .text:00000000000007d8 .L84
     /tmp/cc6KI5Hb.s:1357   .text:00000000000007ac .L80
     /tmp/cc6KI5Hb.s:1377   .text:00000000000007c8 .L89
     /tmp/cc6KI5Hb.s:1562   .text:00000000000008f8 .L92
     /tmp/cc6KI5Hb.s:1689   .text:00000000000009d0 .L96
GAS LISTING /tmp/cc6KI5Hb.s 			page 69


     /tmp/cc6KI5Hb.s:1674   .text:00000000000009b8 .L97
     /tmp/cc6KI5Hb.s:1714   .text:00000000000009fc .L98
     /tmp/cc6KI5Hb.s:1699   .text:00000000000009e4 .L99
     /tmp/cc6KI5Hb.s:1739   .text:0000000000000a28 .L95
     /tmp/cc6KI5Hb.s:1724   .text:0000000000000a10 .L101
     /tmp/cc6KI5Hb.s:1846   .text:0000000000000ae4 .L106
     /tmp/cc6KI5Hb.s:1859   .text:0000000000000b08 .L103
     /tmp/cc6KI5Hb.s:1837   .text:0000000000000ad8 .L108
     /tmp/cc6KI5Hb.s:1842   .text:0000000000000ae0 .L105
     /tmp/cc6KI5Hb.s:1911   .text:0000000000000b54 .L113
     /tmp/cc6KI5Hb.s:1915   .text:0000000000000b58 .L110
     /tmp/cc6KI5Hb.s:1938   .text:0000000000000b90 .L109
     /tmp/cc6KI5Hb.s:1954   .text:0000000000000ba8 .L116
     /tmp/cc6KI5Hb.s:1928   .text:0000000000000b74 .L112
     /tmp/cc6KI5Hb.s:2021   .text:0000000000000c1c .L118
     /tmp/cc6KI5Hb.s:2000   .text:0000000000000be8 .L119
     /tmp/cc6KI5Hb.s:2030   .text:0000000000000c2c .L117
     /tmp/cc6KI5Hb.s:2118   .text:0000000000000cac .L126
     /tmp/cc6KI5Hb.s:2102   .text:0000000000000c94 .L122
     /tmp/cc6KI5Hb.s:2079   .text:0000000000000c6c .L124
     /tmp/cc6KI5Hb.s:5238   .debug_abbrev:0000000000000000 .Ldebug_abbrev0
     /tmp/cc6KI5Hb.s:7649   .debug_str:0000000000000ef3 .LASF295
     /tmp/cc6KI5Hb.s:7459   .debug_str:0000000000000866 .LASF296
     /tmp/cc6KI5Hb.s:7339   .debug_str:0000000000000498 .LASF297
     /tmp/cc6KI5Hb.s:5      .text:0000000000000000 .Ltext0
     /tmp/cc6KI5Hb.s:2188   .text:0000000000000d18 .Letext0
     /tmp/cc6KI5Hb.s:7195   .debug_line:0000000000000000 .Ldebug_line0
     /tmp/cc6KI5Hb.s:7411   .debug_str:00000000000006da .LASF0
     /tmp/cc6KI5Hb.s:7441   .debug_str:00000000000007e8 .LASF1
     /tmp/cc6KI5Hb.s:7591   .debug_str:0000000000000cfb .LASF2
     /tmp/cc6KI5Hb.s:7345   .debug_str:00000000000004c6 .LASF3
     /tmp/cc6KI5Hb.s:7607   .debug_str:0000000000000d7a .LASF4
     /tmp/cc6KI5Hb.s:7423   .debug_str:000000000000072f .LASF5
     /tmp/cc6KI5Hb.s:7217   .debug_str:00000000000000be .LASF6
     /tmp/cc6KI5Hb.s:7541   .debug_str:0000000000000b39 .LASF7
     /tmp/cc6KI5Hb.s:7433   .debug_str:0000000000000799 .LASF8
     /tmp/cc6KI5Hb.s:7371   .debug_str:000000000000056b .LASF9
     /tmp/cc6KI5Hb.s:7381   .debug_str:00000000000005b8 .LASF10
     /tmp/cc6KI5Hb.s:7277   .debug_str:00000000000002fd .LASF11
     /tmp/cc6KI5Hb.s:7253   .debug_str:0000000000000201 .LASF12
     /tmp/cc6KI5Hb.s:7361   .debug_str:000000000000052d .LASF13
     /tmp/cc6KI5Hb.s:7295   .debug_str:0000000000000359 .LASF14
     /tmp/cc6KI5Hb.s:7275   .debug_str:00000000000002ed .LASF15
     /tmp/cc6KI5Hb.s:7653   .debug_str:0000000000000fd9 .LASF16
     /tmp/cc6KI5Hb.s:7333   .debug_str:0000000000000468 .LASF17
     /tmp/cc6KI5Hb.s:7639   .debug_str:0000000000000e84 .LASF18
     /tmp/cc6KI5Hb.s:7357   .debug_str:000000000000050f .LASF19
     /tmp/cc6KI5Hb.s:7355   .debug_str:0000000000000502 .LASF29
     /tmp/cc6KI5Hb.s:7373   .debug_str:000000000000057b .LASF20
     /tmp/cc6KI5Hb.s:7353   .debug_str:00000000000004f6 .LASF21
     /tmp/cc6KI5Hb.s:7495   .debug_str:00000000000009ac .LASF22
     /tmp/cc6KI5Hb.s:7375   .debug_str:0000000000000585 .LASF23
     /tmp/cc6KI5Hb.s:7631   .debug_str:0000000000000e4f .LASF24
     /tmp/cc6KI5Hb.s:7741   .debug_str:00000000000012b7 .LASF25
     /tmp/cc6KI5Hb.s:7473   .debug_str:00000000000008e1 .LASF26
     /tmp/cc6KI5Hb.s:7409   .debug_str:00000000000006d5 .LASF27
     /tmp/cc6KI5Hb.s:7667   .debug_str:0000000000001019 .LASF28
GAS LISTING /tmp/cc6KI5Hb.s 			page 70


     /tmp/cc6KI5Hb.s:7545   .debug_str:0000000000000b54 .LASF30
     /tmp/cc6KI5Hb.s:7279   .debug_str:000000000000030c .LASF31
     /tmp/cc6KI5Hb.s:7575   .debug_str:0000000000000c6f .LASF32
     /tmp/cc6KI5Hb.s:7663   .debug_str:000000000000100d .LASF33
     /tmp/cc6KI5Hb.s:7455   .debug_str:0000000000000845 .LASF34
     /tmp/cc6KI5Hb.s:7471   .debug_str:00000000000008d2 .LASF35
     /tmp/cc6KI5Hb.s:7479   .debug_str:00000000000008fa .LASF36
     /tmp/cc6KI5Hb.s:7679   .debug_str:0000000000001065 .LASF37
     /tmp/cc6KI5Hb.s:7717   .debug_str:00000000000011f0 .LASF38
     /tmp/cc6KI5Hb.s:7445   .debug_str:0000000000000806 .LASF39
     /tmp/cc6KI5Hb.s:7349   .debug_str:00000000000004da .LASF40
     /tmp/cc6KI5Hb.s:7671   .debug_str:0000000000001029 .LASF298
     /tmp/cc6KI5Hb.s:7665   .debug_str:0000000000001013 .LASF41
     /tmp/cc6KI5Hb.s:7625   .debug_str:0000000000000e0e .LASF42
     /tmp/cc6KI5Hb.s:7287   .debug_str:000000000000032f .LASF43
     /tmp/cc6KI5Hb.s:7255   .debug_str:0000000000000214 .LASF44
     /tmp/cc6KI5Hb.s:7543   .debug_str:0000000000000b4c .LASF45
     /tmp/cc6KI5Hb.s:7285   .debug_str:0000000000000326 .LASF46
     /tmp/cc6KI5Hb.s:7661   .debug_str:0000000000001005 .LASF47
     /tmp/cc6KI5Hb.s:7399   .debug_str:0000000000000668 .LASF48
     /tmp/cc6KI5Hb.s:7219   .debug_str:00000000000000c5 .LASF54
     /tmp/cc6KI5Hb.s:7705   .debug_str:000000000000116c .LASF299
     /tmp/cc6KI5Hb.s:7527   .debug_str:0000000000000adc .LASF49
     /tmp/cc6KI5Hb.s:7439   .debug_str:00000000000007e3 .LASF50
     /tmp/cc6KI5Hb.s:7779   .debug_str:00000000000013ce .LASF52
     /tmp/cc6KI5Hb.s:7773   .debug_str:00000000000013ad .LASF51
     /tmp/cc6KI5Hb.s:7689   .debug_str:00000000000010cd .LASF53
     /tmp/cc6KI5Hb.s:7319   .debug_str:0000000000000423 .LASF77
     /tmp/cc6KI5Hb.s:7231   .debug_str:000000000000013e .LASF79
     /tmp/cc6KI5Hb.s:7677   .debug_str:000000000000105d .LASF55
     /tmp/cc6KI5Hb.s:7615   .debug_str:0000000000000db9 .LASF56
     /tmp/cc6KI5Hb.s:7449   .debug_str:000000000000081b .LASF59
     /tmp/cc6KI5Hb.s:7463   .debug_str:0000000000000881 .LASF61
     /tmp/cc6KI5Hb.s:7785   .debug_str:0000000000001413 .LASF57
     /tmp/cc6KI5Hb.s:7341   .debug_str:00000000000004ad .LASF58
     /tmp/cc6KI5Hb.s:7209   .debug_str:000000000000007d .LASF103
     /tmp/cc6KI5Hb.s:7419   .debug_str:0000000000000710 .LASF105
     /tmp/cc6KI5Hb.s:7617   .debug_str:0000000000000dca .LASF60
     /tmp/cc6KI5Hb.s:7499   .debug_str:00000000000009bd .LASF62
     /tmp/cc6KI5Hb.s:7601   .debug_str:0000000000000d40 .LASF63
     /tmp/cc6KI5Hb.s:7647   .debug_str:0000000000000ed7 .LASF64
     /tmp/cc6KI5Hb.s:7501   .debug_str:00000000000009d0 .LASF65
     /tmp/cc6KI5Hb.s:7203   .debug_str:000000000000003f .LASF66
     /tmp/cc6KI5Hb.s:7763   .debug_str:0000000000001369 .LASF67
     /tmp/cc6KI5Hb.s:7539   .debug_str:0000000000000b1f .LASF68
     /tmp/cc6KI5Hb.s:7637   .debug_str:0000000000000e76 .LASF69
     /tmp/cc6KI5Hb.s:7557   .debug_str:0000000000000bae .LASF70
     /tmp/cc6KI5Hb.s:7313   .debug_str:0000000000000401 .LASF71
     /tmp/cc6KI5Hb.s:7363   .debug_str:000000000000053c .LASF72
     /tmp/cc6KI5Hb.s:7583   .debug_str:0000000000000cc2 .LASF73
     /tmp/cc6KI5Hb.s:7765   .debug_str:0000000000001378 .LASF74
     /tmp/cc6KI5Hb.s:7767   .debug_str:0000000000001387 .LASF75
     /tmp/cc6KI5Hb.s:7425   .debug_str:0000000000000741 .LASF76
     /tmp/cc6KI5Hb.s:7633   .debug_str:0000000000000e59 .LASF78
     /tmp/cc6KI5Hb.s:7777   .debug_str:00000000000013b8 .LASF80
     /tmp/cc6KI5Hb.s:7385   .debug_str:00000000000005d7 .LASF81
     /tmp/cc6KI5Hb.s:7307   .debug_str:00000000000003d1 .LASF82
GAS LISTING /tmp/cc6KI5Hb.s 			page 71


     /tmp/cc6KI5Hb.s:7613   .debug_str:0000000000000db1 .LASF83
     /tmp/cc6KI5Hb.s:7413   .debug_str:00000000000006e7 .LASF84
     /tmp/cc6KI5Hb.s:7509   .debug_str:0000000000000a0a .LASF85
     /tmp/cc6KI5Hb.s:7301   .debug_str:00000000000003a9 .LASF86
     /tmp/cc6KI5Hb.s:7565   .debug_str:0000000000000c00 .LASF87
     /tmp/cc6KI5Hb.s:7795   .debug_str:0000000000001475 .LASF88
     /tmp/cc6KI5Hb.s:7515   .debug_str:0000000000000a53 .LASF89
     /tmp/cc6KI5Hb.s:7599   .debug_str:0000000000000d2d .LASF90
     /tmp/cc6KI5Hb.s:7619   .debug_str:0000000000000dd3 .LASF91
     /tmp/cc6KI5Hb.s:7727   .debug_str:0000000000001232 .LASF92
     /tmp/cc6KI5Hb.s:7487   .debug_str:000000000000095b .LASF93
     /tmp/cc6KI5Hb.s:7709   .debug_str:00000000000011ae .LASF94
     /tmp/cc6KI5Hb.s:7645   .debug_str:0000000000000eb7 .LASF95
     /tmp/cc6KI5Hb.s:7533   .debug_str:0000000000000af3 .LASF96
     /tmp/cc6KI5Hb.s:7517   .debug_str:0000000000000a74 .LASF97
     /tmp/cc6KI5Hb.s:7327   .debug_str:0000000000000446 .LASF98
     /tmp/cc6KI5Hb.s:7415   .debug_str:00000000000006fb .LASF99
     /tmp/cc6KI5Hb.s:7491   .debug_str:0000000000000998 .LASF100
     /tmp/cc6KI5Hb.s:7691   .debug_str:00000000000010dd .LASF101
     /tmp/cc6KI5Hb.s:7367   .debug_str:0000000000000552 .LASF102
     /tmp/cc6KI5Hb.s:7771   .debug_str:000000000000139f .LASF104
     /tmp/cc6KI5Hb.s:7241   .debug_str:00000000000001a0 .LASF106
     /tmp/cc6KI5Hb.s:7351   .debug_str:00000000000004e1 .LASF107
     /tmp/cc6KI5Hb.s:7269   .debug_str:00000000000002ae .LASF108
     /tmp/cc6KI5Hb.s:7761   .debug_str:0000000000001362 .LASF109
     /tmp/cc6KI5Hb.s:7265   .debug_str:0000000000000278 .LASF110
     /tmp/cc6KI5Hb.s:7207   .debug_str:0000000000000078 .LASF111
     /tmp/cc6KI5Hb.s:7723   .debug_str:0000000000001221 .LASF112
     /tmp/cc6KI5Hb.s:7469   .debug_str:00000000000008ca .LASF113
     /tmp/cc6KI5Hb.s:7325   .debug_str:0000000000000440 .LASF114
     /tmp/cc6KI5Hb.s:7703   .debug_str:0000000000001164 .LASF115
     /tmp/cc6KI5Hb.s:7383   .debug_str:00000000000005c6 .LASF116
     /tmp/cc6KI5Hb.s:7475   .debug_str:00000000000008e6 .LASF117
     /tmp/cc6KI5Hb.s:7571   .debug_str:0000000000000c3f .LASF118
     /tmp/cc6KI5Hb.s:7377   .debug_str:0000000000000593 .LASF119
     /tmp/cc6KI5Hb.s:7595   .debug_str:0000000000000d15 .LASF120
     /tmp/cc6KI5Hb.s:7569   .debug_str:0000000000000c2b .LASF121
     /tmp/cc6KI5Hb.s:7321   .debug_str:000000000000042c .LASF122
     /tmp/cc6KI5Hb.s:7629   .debug_str:0000000000000e38 .LASF123
     /tmp/cc6KI5Hb.s:7657   .debug_str:0000000000000ff8 .LASF124
     /tmp/cc6KI5Hb.s:7505   .debug_str:00000000000009e8 .LASF125
     /tmp/cc6KI5Hb.s:7199   .debug_str:000000000000000f .LASF126
     /tmp/cc6KI5Hb.s:7597   .debug_str:0000000000000d21 .LASF127
     /tmp/cc6KI5Hb.s:7481   .debug_str:0000000000000906 .LASF128
     /tmp/cc6KI5Hb.s:7589   .debug_str:0000000000000ce6 .LASF129
     /tmp/cc6KI5Hb.s:7281   .debug_str:0000000000000311 .LASF130
     /tmp/cc6KI5Hb.s:7289   .debug_str:0000000000000339 .LASF131
     /tmp/cc6KI5Hb.s:7503   .debug_str:00000000000009df .LASF132
     /tmp/cc6KI5Hb.s:7605   .debug_str:0000000000000d6f .LASF133
     /tmp/cc6KI5Hb.s:7197   .debug_str:0000000000000000 .LASF134
     /tmp/cc6KI5Hb.s:7393   .debug_str:0000000000000625 .LASF135
     /tmp/cc6KI5Hb.s:7701   .debug_str:0000000000001155 .LASF136
     /tmp/cc6KI5Hb.s:7651   .debug_str:0000000000000fb7 .LASF137
     /tmp/cc6KI5Hb.s:7621   .debug_str:0000000000000df1 .LASF138
     /tmp/cc6KI5Hb.s:7299   .debug_str:0000000000000385 .LASF139
     /tmp/cc6KI5Hb.s:7525   .debug_str:0000000000000acc .LASF140
     /tmp/cc6KI5Hb.s:7561   .debug_str:0000000000000bcc .LASF141
GAS LISTING /tmp/cc6KI5Hb.s 			page 72


     /tmp/cc6KI5Hb.s:7523   .debug_str:0000000000000ac6 .LASF142
     /tmp/cc6KI5Hb.s:7789   .debug_str:0000000000001446 .LASF143
     /tmp/cc6KI5Hb.s:7211   .debug_str:000000000000008d .LASF144
     /tmp/cc6KI5Hb.s:7467   .debug_str:00000000000008b0 .LASF145
     /tmp/cc6KI5Hb.s:7783   .debug_str:0000000000001403 .LASF146
     /tmp/cc6KI5Hb.s:7609   .debug_str:0000000000000d81 .LASF147
     /tmp/cc6KI5Hb.s:7655   .debug_str:0000000000000fe5 .LASF148
     /tmp/cc6KI5Hb.s:7603   .debug_str:0000000000000d49 .LASF149
     /tmp/cc6KI5Hb.s:7791   .debug_str:000000000000145e .LASF150
     /tmp/cc6KI5Hb.s:7437   .debug_str:00000000000007bf .LASF151
     /tmp/cc6KI5Hb.s:7507   .debug_str:0000000000000a01 .LASF152
     /tmp/cc6KI5Hb.s:7251   .debug_str:00000000000001f1 .LASF153
     /tmp/cc6KI5Hb.s:7695   .debug_str:00000000000010fa .LASF154
     /tmp/cc6KI5Hb.s:7611   .debug_str:0000000000000da4 .LASF155
     /tmp/cc6KI5Hb.s:7205   .debug_str:0000000000000059 .LASF156
     /tmp/cc6KI5Hb.s:7239   .debug_str:000000000000018d .LASF157
     /tmp/cc6KI5Hb.s:7519   .debug_str:0000000000000a93 .LASF158
     /tmp/cc6KI5Hb.s:7535   .debug_str:0000000000000b07 .LASF159
     /tmp/cc6KI5Hb.s:7397   .debug_str:0000000000000654 .LASF160
     /tmp/cc6KI5Hb.s:7529   .debug_str:0000000000000ae1 .LASF161
     /tmp/cc6KI5Hb.s:7443   .debug_str:00000000000007fb .LASF162
     /tmp/cc6KI5Hb.s:7555   .debug_str:0000000000000ba4 .LASF163
     /tmp/cc6KI5Hb.s:7729   .debug_str:0000000000001245 .LASF164
     /tmp/cc6KI5Hb.s:7669   .debug_str:000000000000101e .LASF165
     /tmp/cc6KI5Hb.s:7725   .debug_str:0000000000001226 .LASF166
     /tmp/cc6KI5Hb.s:7739   .debug_str:00000000000012aa .LASF167
     /tmp/cc6KI5Hb.s:7493   .debug_str:00000000000009a0 .LASF168
     /tmp/cc6KI5Hb.s:7553   .debug_str:0000000000000b98 .LASF169
     /tmp/cc6KI5Hb.s:7635   .debug_str:0000000000000e64 .LASF172
     /tmp/cc6KI5Hb.s:7627   .debug_str:0000000000000e16 .LASF174
     /tmp/cc6KI5Hb.s:7715   .debug_str:00000000000011de .LASF170
     /tmp/cc6KI5Hb.s:7759   .debug_str:0000000000001340 .LASF171
     /tmp/cc6KI5Hb.s:7713   .debug_str:00000000000011cc .LASF173
     /tmp/cc6KI5Hb.s:7223   .debug_str:00000000000000f0 .LASF175
     /tmp/cc6KI5Hb.s:7435   .debug_str:00000000000007ac .LASF176
     /tmp/cc6KI5Hb.s:7263   .debug_str:0000000000000255 .LASF177
     /tmp/cc6KI5Hb.s:7331   .debug_str:0000000000000455 .LASF178
     /tmp/cc6KI5Hb.s:7257   .debug_str:000000000000021d .LASF179
     /tmp/cc6KI5Hb.s:7233   .debug_str:0000000000000151 .LASF180
     /tmp/cc6KI5Hb.s:7737   .debug_str:000000000000129b .LASF181
     /tmp/cc6KI5Hb.s:7489   .debug_str:0000000000000979 .LASF182
     /tmp/cc6KI5Hb.s:7757   .debug_str:0000000000001327 .LASF183
     /tmp/cc6KI5Hb.s:7427   .debug_str:000000000000074e .LASF184
     /tmp/cc6KI5Hb.s:7453   .debug_str:000000000000082d .LASF185
     /tmp/cc6KI5Hb.s:7781   .debug_str:00000000000013da .LASF186
     /tmp/cc6KI5Hb.s:7359   .debug_str:000000000000051c .LASF187
     /tmp/cc6KI5Hb.s:7749   .debug_str:00000000000012ef .LASF188
     /tmp/cc6KI5Hb.s:7369   .debug_str:000000000000055e .LASF189
     /tmp/cc6KI5Hb.s:7769   .debug_str:0000000000001392 .LASF190
     /tmp/cc6KI5Hb.s:7389   .debug_str:0000000000000603 .LASF191
     /tmp/cc6KI5Hb.s:7225   .debug_str:0000000000000112 .LASF192
     /tmp/cc6KI5Hb.s:7457   .debug_str:000000000000084a .LASF193
     /tmp/cc6KI5Hb.s:7521   .debug_str:0000000000000aba .LASF194
     /tmp/cc6KI5Hb.s:7235   .debug_str:000000000000016c .LASF195
     /tmp/cc6KI5Hb.s:7685   .debug_str:00000000000010b4 .LASF196
     /tmp/cc6KI5Hb.s:7237   .debug_str:0000000000000188 .LASF197
     /tmp/cc6KI5Hb.s:7659   .debug_str:0000000000000fff .LASF198
GAS LISTING /tmp/cc6KI5Hb.s 			page 73


     /tmp/cc6KI5Hb.s:7587   .debug_str:0000000000000cd9 .LASF199
     /tmp/cc6KI5Hb.s:7213   .debug_str:0000000000000095 .LASF200
     /tmp/cc6KI5Hb.s:7513   .debug_str:0000000000000a49 .LASF201
     /tmp/cc6KI5Hb.s:7335   .debug_str:000000000000047e .LASF202
     /tmp/cc6KI5Hb.s:7429   .debug_str:0000000000000777 .LASF203
     /tmp/cc6KI5Hb.s:7497   .debug_str:00000000000009b7 .LASF204
     /tmp/cc6KI5Hb.s:7567   .debug_str:0000000000000c1d .LASF205
     /tmp/cc6KI5Hb.s:7551   .debug_str:0000000000000b8a .LASF206
     /tmp/cc6KI5Hb.s:7431   .debug_str:0000000000000788 .LASF207
     /tmp/cc6KI5Hb.s:7751   .debug_str:0000000000001301 .LASF208
     /tmp/cc6KI5Hb.s:7337   .debug_str:0000000000000485 .LASF209
     /tmp/cc6KI5Hb.s:7787   .debug_str:0000000000001420 .LASF211
     /tmp/cc6KI5Hb.s:2127   .text:0000000000000cb0 .LFB31
     /tmp/cc6KI5Hb.s:2178   .text:0000000000000d18 .LFE31
     /tmp/cc6KI5Hb.s:7401   .debug_str:000000000000066e .LASF213
     /tmp/cc6KI5Hb.s:6187   .debug_loc:0000000000000000 .LLST66
     /tmp/cc6KI5Hb.s:2147   .text:0000000000000cd4 .LVL214
     /tmp/cc6KI5Hb.s:2152   .text:0000000000000ce0 .LVL215
     /tmp/cc6KI5Hb.s:2157   .text:0000000000000cec .LVL216
     /tmp/cc6KI5Hb.s:2164   .text:0000000000000d04 .LVL217
     /tmp/cc6KI5Hb.s:7687   .debug_str:00000000000010bb .LASF210
     /tmp/cc6KI5Hb.s:7675   .debug_str:000000000000103f .LASF212
     /tmp/cc6KI5Hb.s:2053   .text:0000000000000c44 .LFB30
     /tmp/cc6KI5Hb.s:2121   .text:0000000000000cb0 .LFE30
     /tmp/cc6KI5Hb.s:7537   .debug_str:0000000000000b1a .LASF214
     /tmp/cc6KI5Hb.s:6205   .debug_loc:000000000000004c .LLST63
     /tmp/cc6KI5Hb.s:6228   .debug_loc:00000000000000bb .LLST64
     /tmp/cc6KI5Hb.s:2083   .text:0000000000000c70 .LBB26
     /tmp/cc6KI5Hb.s:2098   .text:0000000000000c90 .LBE26
     /tmp/cc6KI5Hb.s:7711   .debug_str:00000000000011c3 .LASF215
     /tmp/cc6KI5Hb.s:6235   .debug_loc:00000000000000de .LLST65
     /tmp/cc6KI5Hb.s:2094   .text:0000000000000c8c .LVL208
     /tmp/cc6KI5Hb.s:7365   .debug_str:000000000000054c .LASF216
     /tmp/cc6KI5Hb.s:7447   .debug_str:000000000000080f .LASF217
     /tmp/cc6KI5Hb.s:1973   .text:0000000000000bc4 .LFB29
     /tmp/cc6KI5Hb.s:2047   .text:0000000000000c44 .LFE29
     /tmp/cc6KI5Hb.s:7461   .debug_str:000000000000087c .LASF218
     /tmp/cc6KI5Hb.s:6242   .debug_loc:0000000000000101 .LLST60
     /tmp/cc6KI5Hb.s:6260   .debug_loc:000000000000014d .LLST61
     /tmp/cc6KI5Hb.s:7163   .debug_ranges:0000000000000000 .Ldebug_ranges0
     /tmp/cc6KI5Hb.s:6276   .debug_loc:0000000000000197 .LLST62
     /tmp/cc6KI5Hb.s:2014   .text:0000000000000c10 .LVL200
     /tmp/cc6KI5Hb.s:2029   .text:0000000000000c2c .LVL202
     /tmp/cc6KI5Hb.s:7753   .debug_str:000000000000130f .LASF226
     /tmp/cc6KI5Hb.s:7593   .debug_str:0000000000000d09 .LASF228
     /tmp/cc6KI5Hb.s:1880   .text:0000000000000b1c .LFB28
     /tmp/cc6KI5Hb.s:1967   .text:0000000000000bc4 .LFE28
     /tmp/cc6KI5Hb.s:7305   .debug_str:00000000000003cc .LASF219
     /tmp/cc6KI5Hb.s:6288   .debug_loc:00000000000001ce .LLST57
     /tmp/cc6KI5Hb.s:7329   .debug_str:000000000000044f .LASF220
     /tmp/cc6KI5Hb.s:6302   .debug_loc:0000000000000207 .LLST58
     /tmp/cc6KI5Hb.s:7249   .debug_str:00000000000001eb .LASF221
     /tmp/cc6KI5Hb.s:6313   .debug_loc:000000000000023d .LLST59
     /tmp/cc6KI5Hb.s:1899   .text:0000000000000b3c .LVL187
     /tmp/cc6KI5Hb.s:1937   .text:0000000000000b90 .LVL193
     /tmp/cc6KI5Hb.s:1960   .text:0000000000000bb4 .LVL195
     /tmp/cc6KI5Hb.s:7673   .debug_str:000000000000102f .LASF222
GAS LISTING /tmp/cc6KI5Hb.s 			page 74


     /tmp/cc6KI5Hb.s:7577   .debug_str:0000000000000c7a .LASF223
     /tmp/cc6KI5Hb.s:1608   .text:000000000000090c .LFB27
     /tmp/cc6KI5Hb.s:1756   .text:0000000000000a40 .LFE27
     /tmp/cc6KI5Hb.s:6324   .debug_loc:0000000000000273 .LLST54
     /tmp/cc6KI5Hb.s:6342   .debug_loc:00000000000002bf .LLST55
     /tmp/cc6KI5Hb.s:1630   .text:0000000000000938 .LVL155
     /tmp/cc6KI5Hb.s:1635   .text:0000000000000948 .LVL156
     /tmp/cc6KI5Hb.s:1640   .text:0000000000000954 .LVL157
     /tmp/cc6KI5Hb.s:1645   .text:0000000000000964 .LVL158
     /tmp/cc6KI5Hb.s:1652   .text:000000000000097c .LVL159
     /tmp/cc6KI5Hb.s:1659   .text:0000000000000994 .LVL160
     /tmp/cc6KI5Hb.s:1664   .text:00000000000009a4 .LVL161
     /tmp/cc6KI5Hb.s:1669   .text:00000000000009b4 .LVL162
     /tmp/cc6KI5Hb.s:1682   .text:00000000000009c8 .LVL164
     /tmp/cc6KI5Hb.s:1694   .text:00000000000009e0 .LVL166
     /tmp/cc6KI5Hb.s:1707   .text:00000000000009f4 .LVL168
     /tmp/cc6KI5Hb.s:1719   .text:0000000000000a0c .LVL170
     /tmp/cc6KI5Hb.s:1732   .text:0000000000000a20 .LVL172
     /tmp/cc6KI5Hb.s:7261   .debug_str:0000000000000245 .LASF224
     /tmp/cc6KI5Hb.s:7573   .debug_str:0000000000000c4a .LASF225
     /tmp/cc6KI5Hb.s:1536   .text:00000000000008c8 .LFB26
     /tmp/cc6KI5Hb.s:1576   .text:000000000000090c .LFE26
     /tmp/cc6KI5Hb.s:6349   .debug_loc:00000000000002e2 .LLST51
     /tmp/cc6KI5Hb.s:6363   .debug_loc:000000000000031b .LLST52
     /tmp/cc6KI5Hb.s:6381   .debug_loc:0000000000000367 .LLST53
     /tmp/cc6KI5Hb.s:1554   .text:00000000000008e8 .LVL150
     /tmp/cc6KI5Hb.s:1561   .text:00000000000008f8 .LVL151
     /tmp/cc6KI5Hb.s:7303   .debug_str:00000000000003bb .LASF227
     /tmp/cc6KI5Hb.s:7405   .debug_str:000000000000069e .LASF229
     /tmp/cc6KI5Hb.s:1282   .text:0000000000000738 .LFB25
     /tmp/cc6KI5Hb.s:1431   .text:000000000000081c .LFE25
     /tmp/cc6KI5Hb.s:6388   .debug_loc:000000000000038a .LLST42
     /tmp/cc6KI5Hb.s:7347   .debug_str:00000000000004cc .LASF230
     /tmp/cc6KI5Hb.s:6410   .debug_loc:00000000000003e9 .LLST45
     /tmp/cc6KI5Hb.s:1345   .text:0000000000000798 .LVL123
     /tmp/cc6KI5Hb.s:1353   .text:00000000000007a8 .LVL126
     /tmp/cc6KI5Hb.s:1385   .text:00000000000007d4 .LVL130
     /tmp/cc6KI5Hb.s:1314   .text:0000000000000764 .LBB16
     /tmp/cc6KI5Hb.s:1339   .text:0000000000000790 .LBE16
     /tmp/cc6KI5Hb.s:6425   .debug_loc:0000000000000432 .LLST43
     /tmp/cc6KI5Hb.s:1318   .text:000000000000076c .LVL117
     /tmp/cc6KI5Hb.s:1326   .text:000000000000077c .LVL120
     /tmp/cc6KI5Hb.s:1333   .text:000000000000078c .LVL121
     /tmp/cc6KI5Hb.s:1393   .text:00000000000007d8 .LBB17
     /tmp/cc6KI5Hb.s:1427   .text:000000000000081c .LBE17
     /tmp/cc6KI5Hb.s:6436   .debug_loc:0000000000000468 .LLST44
     /tmp/cc6KI5Hb.s:1398   .text:00000000000007e4 .LVL132
     /tmp/cc6KI5Hb.s:1408   .text:00000000000007f8 .LVL133
     /tmp/cc6KI5Hb.s:1416   .text:0000000000000808 .LVL136
     /tmp/cc6KI5Hb.s:1423   .text:0000000000000818 .LVL137
     /tmp/cc6KI5Hb.s:7581   .debug_str:0000000000000cb0 .LASF231
     /tmp/cc6KI5Hb.s:7731   .debug_str:0000000000001250 .LASF232
     /tmp/cc6KI5Hb.s:1437   .text:000000000000081c .LFB24
     /tmp/cc6KI5Hb.s:1530   .text:00000000000008c8 .LFE24
     /tmp/cc6KI5Hb.s:7451   .debug_str:0000000000000828 .LASF233
     /tmp/cc6KI5Hb.s:6447   .debug_loc:000000000000049e .LLST46
     /tmp/cc6KI5Hb.s:6465   .debug_loc:00000000000004ea .LLST47
GAS LISTING /tmp/cc6KI5Hb.s 			page 75


     /tmp/cc6KI5Hb.s:6483   .debug_loc:0000000000000536 .LLST48
     /tmp/cc6KI5Hb.s:6501   .debug_loc:0000000000000582 .LLST49
     /tmp/cc6KI5Hb.s:7641   .debug_str:0000000000000e9a .LASF234
     /tmp/cc6KI5Hb.s:6519   .debug_loc:00000000000005ce .LLST50
     /tmp/cc6KI5Hb.s:1469   .text:0000000000000864 .LVL140
     /tmp/cc6KI5Hb.s:1492   .text:000000000000088c .LVL142
     /tmp/cc6KI5Hb.s:1500   .text:000000000000089c .LVL143
     /tmp/cc6KI5Hb.s:7585   .debug_str:0000000000000ccf .LASF235
     /tmp/cc6KI5Hb.s:7755   .debug_str:0000000000001317 .LASF236
     /tmp/cc6KI5Hb.s:1244   .text:0000000000000700 .LFB23
     /tmp/cc6KI5Hb.s:1276   .text:0000000000000738 .LFE23
     /tmp/cc6KI5Hb.s:7247   .debug_str:00000000000001e5 .LASF237
     /tmp/cc6KI5Hb.s:6530   .debug_loc:0000000000000604 .LLST39
     /tmp/cc6KI5Hb.s:7793   .debug_str:000000000000146b .LASF238
     /tmp/cc6KI5Hb.s:6544   .debug_loc:000000000000063d .LLST40
     /tmp/cc6KI5Hb.s:6558   .debug_loc:0000000000000676 .LLST41
     /tmp/cc6KI5Hb.s:1259   .text:0000000000000718 .LVL113
     /tmp/cc6KI5Hb.s:1263   .text:0000000000000720 .LVL114
     /tmp/cc6KI5Hb.s:7465   .debug_str:0000000000000899 .LASF239
     /tmp/cc6KI5Hb.s:7297   .debug_str:0000000000000369 .LASF240
     /tmp/cc6KI5Hb.s:1779   .text:0000000000000a40 .LFB22
     /tmp/cc6KI5Hb.s:1874   .text:0000000000000b1c .LFE22
     /tmp/cc6KI5Hb.s:1832   .text:0000000000000ad0 .LBB23
     /tmp/cc6KI5Hb.s:1860   .text:0000000000000b08 .LBE23
     /tmp/cc6KI5Hb.s:6565   .debug_loc:0000000000000699 .LLST56
     /tmp/cc6KI5Hb.s:1841   .text:0000000000000ae0 .LVL183
     /tmp/cc6KI5Hb.s:1796   .text:0000000000000a64 .LVL176
     /tmp/cc6KI5Hb.s:1806   .text:0000000000000a88 .LVL177
     /tmp/cc6KI5Hb.s:1813   .text:0000000000000aa0 .LVL178
     /tmp/cc6KI5Hb.s:1818   .text:0000000000000ab0 .LVL179
     /tmp/cc6KI5Hb.s:1825   .text:0000000000000ac0 .LVL180
     /tmp/cc6KI5Hb.s:1830   .text:0000000000000ad0 .LVL181
     /tmp/cc6KI5Hb.s:7391   .debug_str:0000000000000614 .LASF241
     /tmp/cc6KI5Hb.s:7511   .debug_str:0000000000000a29 .LASF244
     /tmp/cc6KI5Hb.s:1145   .text:0000000000000654 .LFB21
     /tmp/cc6KI5Hb.s:1238   .text:0000000000000700 .LFE21
     /tmp/cc6KI5Hb.s:6577   .debug_loc:00000000000006d0 .LLST36
     /tmp/cc6KI5Hb.s:6599   .debug_loc:000000000000072f .LLST37
     /tmp/cc6KI5Hb.s:7743   .debug_str:00000000000012c0 .LASF242
     /tmp/cc6KI5Hb.s:6617   .debug_loc:000000000000077b .LLST38
     /tmp/cc6KI5Hb.s:1188   .text:00000000000006a4 .LVL107
     /tmp/cc6KI5Hb.s:1227   .text:00000000000006e8 .LVL110
     /tmp/cc6KI5Hb.s:1235   .text:00000000000006fc .LVL111
     /tmp/cc6KI5Hb.s:7229   .debug_str:0000000000000130 .LASF243
     /tmp/cc6KI5Hb.s:7719   .debug_str:0000000000001200 .LASF245
     /tmp/cc6KI5Hb.s:1044   .text:0000000000000584 .LFB20
     /tmp/cc6KI5Hb.s:1139   .text:0000000000000654 .LFE20
     /tmp/cc6KI5Hb.s:6624   .debug_loc:000000000000079e .LLST34
     /tmp/cc6KI5Hb.s:1089   .text:00000000000005f8 .LBB13
     /tmp/cc6KI5Hb.s:1122   .text:000000000000063c .LBE13
     /tmp/cc6KI5Hb.s:6642   .debug_loc:00000000000007ea .LLST35
     /tmp/cc6KI5Hb.s:1111   .text:0000000000000624 .LVL100
     /tmp/cc6KI5Hb.s:1116   .text:0000000000000634 .LVL101
     /tmp/cc6KI5Hb.s:1066   .text:00000000000005b0 .LVL95
     /tmp/cc6KI5Hb.s:1073   .text:00000000000005c8 .LVL96
     /tmp/cc6KI5Hb.s:1080   .text:00000000000005e0 .LVL97
     /tmp/cc6KI5Hb.s:1087   .text:00000000000005f8 .LVL98
GAS LISTING /tmp/cc6KI5Hb.s 			page 76


     /tmp/cc6KI5Hb.s:7643   .debug_str:0000000000000ea3 .LASF246
     /tmp/cc6KI5Hb.s:7387   .debug_str:00000000000005e2 .LASF247
     /tmp/cc6KI5Hb.s:980    .text:0000000000000538 .LFB19
     /tmp/cc6KI5Hb.s:1021   .text:0000000000000584 .LFE19
     /tmp/cc6KI5Hb.s:6654   .debug_loc:0000000000000821 .LLST32
     /tmp/cc6KI5Hb.s:6668   .debug_loc:000000000000085a .LLST33
     /tmp/cc6KI5Hb.s:7745   .debug_str:00000000000012ce .LASF248
     /tmp/cc6KI5Hb.s:7699   .debug_str:0000000000001137 .LASF251
     /tmp/cc6KI5Hb.s:875    .text:00000000000004b8 .LFB18
     /tmp/cc6KI5Hb.s:974    .text:0000000000000538 .LFE18
     /tmp/cc6KI5Hb.s:6682   .debug_loc:0000000000000893 .LLST29
     /tmp/cc6KI5Hb.s:7271   .debug_str:00000000000002da .LASF249
     /tmp/cc6KI5Hb.s:6693   .debug_loc:00000000000008c9 .LLST30
     /tmp/cc6KI5Hb.s:6704   .debug_loc:00000000000008ff .LLST31
     /tmp/cc6KI5Hb.s:7579   .debug_str:0000000000000c9d .LASF250
     /tmp/cc6KI5Hb.s:7747   .debug_str:00000000000012d7 .LASF252
     /tmp/cc6KI5Hb.s:785    .text:0000000000000450 .LFB17
     /tmp/cc6KI5Hb.s:869    .text:00000000000004b8 .LFE17
     /tmp/cc6KI5Hb.s:6715   .debug_loc:0000000000000935 .LLST23
     /tmp/cc6KI5Hb.s:7315   .debug_str:0000000000000411 .LASF253
     /tmp/cc6KI5Hb.s:6729   .debug_loc:000000000000096e .LLST24
     /tmp/cc6KI5Hb.s:7343   .debug_str:00000000000004b9 .LASF254
     /tmp/cc6KI5Hb.s:6746   .debug_loc:00000000000009ba .LLST25
     /tmp/cc6KI5Hb.s:821    .text:0000000000000478 .LBB7
     /tmp/cc6KI5Hb.s:857    .text:00000000000004a8 .LBE7
     /tmp/cc6KI5Hb.s:6757   .debug_loc:00000000000009f0 .LLST26
     /tmp/cc6KI5Hb.s:834    .text:000000000000048c .LBB8
     /tmp/cc6KI5Hb.s:856    .text:00000000000004a8 .LBE8
     /tmp/cc6KI5Hb.s:7547   .debug_str:0000000000000b5f .LASF255
     /tmp/cc6KI5Hb.s:6769   .debug_loc:0000000000000a27 .LLST27
     /tmp/cc6KI5Hb.s:7317   .debug_str:000000000000041a .LASF256
     /tmp/cc6KI5Hb.s:6780   .debug_loc:0000000000000a5d .LLST28
     /tmp/cc6KI5Hb.s:7395   .debug_str:0000000000000647 .LASF257
     /tmp/cc6KI5Hb.s:7221   .debug_str:00000000000000d0 .LASF258
     /tmp/cc6KI5Hb.s:679    .text:00000000000003b4 .LFB16
     /tmp/cc6KI5Hb.s:779    .text:0000000000000450 .LFE16
     /tmp/cc6KI5Hb.s:6791   .debug_loc:0000000000000a93 .LLST20
     /tmp/cc6KI5Hb.s:7531   .debug_str:0000000000000aeb .LASF259
     /tmp/cc6KI5Hb.s:7283   .debug_str:000000000000031a .LASF260
     /tmp/cc6KI5Hb.s:6809   .debug_loc:0000000000000adf .LLST21
     /tmp/cc6KI5Hb.s:744    .text:000000000000041c .LBB6
     /tmp/cc6KI5Hb.s:765    .text:000000000000043c .LBE6
     /tmp/cc6KI5Hb.s:6834   .debug_loc:0000000000000b33 .LLST22
     /tmp/cc6KI5Hb.s:701    .text:00000000000003e4 .LVL59
     /tmp/cc6KI5Hb.s:7559   .debug_str:0000000000000bba .LASF261
     /tmp/cc6KI5Hb.s:7485   .debug_str:000000000000092e .LASF262
     /tmp/cc6KI5Hb.s:625    .text:000000000000035c .LFB15
     /tmp/cc6KI5Hb.s:673    .text:00000000000003b4 .LFE15
     /tmp/cc6KI5Hb.s:6846   .debug_loc:0000000000000b6a .LLST18
     /tmp/cc6KI5Hb.s:6864   .debug_loc:0000000000000bb6 .LLST19
     /tmp/cc6KI5Hb.s:650    .text:000000000000038c .LVL53
     /tmp/cc6KI5Hb.s:656    .text:000000000000039c .LVL54
     /tmp/cc6KI5Hb.s:7323   .debug_str:0000000000000431 .LASF263
     /tmp/cc6KI5Hb.s:7707   .debug_str:0000000000001184 .LASF264
     /tmp/cc6KI5Hb.s:571    .text:0000000000000304 .LFB14
     /tmp/cc6KI5Hb.s:619    .text:000000000000035c .LFE14
     /tmp/cc6KI5Hb.s:6882   .debug_loc:0000000000000c02 .LLST16
GAS LISTING /tmp/cc6KI5Hb.s 			page 77


     /tmp/cc6KI5Hb.s:6900   .debug_loc:0000000000000c4e .LLST17
     /tmp/cc6KI5Hb.s:596    .text:0000000000000334 .LVL46
     /tmp/cc6KI5Hb.s:602    .text:0000000000000344 .LVL47
     /tmp/cc6KI5Hb.s:7421   .debug_str:000000000000071d .LASF265
     /tmp/cc6KI5Hb.s:7267   .debug_str:0000000000000289 .LASF266
     /tmp/cc6KI5Hb.s:515    .text:00000000000002ac .LFB13
     /tmp/cc6KI5Hb.s:565    .text:0000000000000304 .LFE13
     /tmp/cc6KI5Hb.s:6918   .debug_loc:0000000000000c9a .LLST14
     /tmp/cc6KI5Hb.s:6936   .debug_loc:0000000000000ce6 .LLST15
     /tmp/cc6KI5Hb.s:542    .text:00000000000002dc .LVL39
     /tmp/cc6KI5Hb.s:548    .text:00000000000002ec .LVL40
     /tmp/cc6KI5Hb.s:7245   .debug_str:00000000000001d4 .LASF267
     /tmp/cc6KI5Hb.s:7201   .debug_str:000000000000001b .LASF268
     /tmp/cc6KI5Hb.s:459    .text:0000000000000254 .LFB12
     /tmp/cc6KI5Hb.s:509    .text:00000000000002ac .LFE12
     /tmp/cc6KI5Hb.s:6943   .debug_loc:0000000000000d09 .LLST12
     /tmp/cc6KI5Hb.s:6961   .debug_loc:0000000000000d55 .LLST13
     /tmp/cc6KI5Hb.s:486    .text:0000000000000284 .LVL32
     /tmp/cc6KI5Hb.s:492    .text:0000000000000294 .LVL33
     /tmp/cc6KI5Hb.s:7215   .debug_str:00000000000000ab .LASF269
     /tmp/cc6KI5Hb.s:7735   .debug_str:0000000000001278 .LASF270
     /tmp/cc6KI5Hb.s:388    .text:00000000000001f8 .LFB11
     /tmp/cc6KI5Hb.s:453    .text:0000000000000254 .LFE11
     /tmp/cc6KI5Hb.s:7417   .debug_str:0000000000000706 .LASF271
     /tmp/cc6KI5Hb.s:7407   .debug_str:00000000000006c2 .LASF272
     /tmp/cc6KI5Hb.s:7683   .debug_str:0000000000001091 .LASF273
     /tmp/cc6KI5Hb.s:347    .text:00000000000001c8 .LFB10
     /tmp/cc6KI5Hb.s:382    .text:00000000000001f8 .LFE10
     /tmp/cc6KI5Hb.s:7291   .debug_str:0000000000000343 .LASF274
     /tmp/cc6KI5Hb.s:7379   .debug_str:00000000000005a7 .LASF275
     /tmp/cc6KI5Hb.s:318    .text:00000000000001a8 .LFB9
     /tmp/cc6KI5Hb.s:341    .text:00000000000001c8 .LFE9
     /tmp/cc6KI5Hb.s:6968   .debug_loc:0000000000000d78 .LLST11
     /tmp/cc6KI5Hb.s:7775   .debug_str:00000000000013b3 .LASF276
     /tmp/cc6KI5Hb.s:7293   .debug_str:0000000000000349 .LASF277
     /tmp/cc6KI5Hb.s:286    .text:0000000000000180 .LFB8
     /tmp/cc6KI5Hb.s:312    .text:00000000000001a8 .LFE8
     /tmp/cc6KI5Hb.s:6982   .debug_loc:0000000000000db1 .LLST10
     /tmp/cc6KI5Hb.s:7477   .debug_str:00000000000008eb .LASF278
     /tmp/cc6KI5Hb.s:7697   .debug_str:000000000000111c .LASF279
     /tmp/cc6KI5Hb.s:162    .text:00000000000000cc .LFB7
     /tmp/cc6KI5Hb.s:280    .text:0000000000000180 .LFE7
     /tmp/cc6KI5Hb.s:6996   .debug_loc:0000000000000dea .LLST5
     /tmp/cc6KI5Hb.s:7015   .debug_loc:0000000000000e46 .LLST6
     /tmp/cc6KI5Hb.s:7259   .debug_str:0000000000000240 .LASF280
     /tmp/cc6KI5Hb.s:7038   .debug_loc:0000000000000ea6 .LLST7
     /tmp/cc6KI5Hb.s:177    .text:00000000000000dc .LBB3
     /tmp/cc6KI5Hb.s:233    .text:000000000000012c .LBE3
     /tmp/cc6KI5Hb.s:7059   .debug_loc:0000000000000f04 .LLST8
     /tmp/cc6KI5Hb.s:7733   .debug_str:0000000000001273 .LASF281
     /tmp/cc6KI5Hb.s:7075   .debug_loc:0000000000000f4e .LLST9
     /tmp/cc6KI5Hb.s:7483   .debug_str:000000000000091a .LASF282
     /tmp/cc6KI5Hb.s:7403   .debug_str:0000000000000675 .LASF283
     /tmp/cc6KI5Hb.s:64     .text:0000000000000034 .LFB6
     /tmp/cc6KI5Hb.s:156    .text:00000000000000cc .LFE6
     /tmp/cc6KI5Hb.s:7082   .debug_loc:0000000000000f71 .LLST2
     /tmp/cc6KI5Hb.s:7693   .debug_str:00000000000010e7 .LASF284
GAS LISTING /tmp/cc6KI5Hb.s 			page 78


     /tmp/cc6KI5Hb.s:7105   .debug_loc:0000000000000fd3 .LLST3
     /tmp/cc6KI5Hb.s:90     .text:0000000000000058 .LBB2
     /tmp/cc6KI5Hb.s:108    .text:0000000000000078 .LBE2
     /tmp/cc6KI5Hb.s:7116   .debug_loc:0000000000001009 .LLST4
     /tmp/cc6KI5Hb.s:114    .text:000000000000008c .LVL8
     /tmp/cc6KI5Hb.s:7721   .debug_str:000000000000121a .LASF285
     /tmp/cc6KI5Hb.s:7311   .debug_str:00000000000003f2 .LASF286
     /tmp/cc6KI5Hb.s:10     .text:0000000000000000 .LFB5
     /tmp/cc6KI5Hb.s:53     .text:0000000000000034 .LFE5
     /tmp/cc6KI5Hb.s:7128   .debug_loc:0000000000001040 .LLST0
     /tmp/cc6KI5Hb.s:7139   .debug_loc:0000000000001076 .LLST1
     /tmp/cc6KI5Hb.s:7549   .debug_str:0000000000000b67 .LASF287
     /tmp/cc6KI5Hb.s:7309   .debug_str:00000000000003e7 .LASF289
     /tmp/cc6KI5Hb.s:7563   .debug_str:0000000000000bef .LASF288
     /tmp/cc6KI5Hb.s:7243   .debug_str:00000000000001c8 .LASF290
     /tmp/cc6KI5Hb.s:7227   .debug_str:000000000000011e .LASF291
     /tmp/cc6KI5Hb.s:7273   .debug_str:00000000000002e2 .LASF292
     /tmp/cc6KI5Hb.s:7681   .debug_str:000000000000106f .LASF293
     /tmp/cc6KI5Hb.s:7623   .debug_str:0000000000000e02 .LASF294
     /tmp/cc6KI5Hb.s:2130   .text:0000000000000cb0 .LVL212
     /tmp/cc6KI5Hb.s:2145   .text:0000000000000ccc .LVL213
     /tmp/cc6KI5Hb.s:2173   .text:0000000000000d10 .LVL218
     /tmp/cc6KI5Hb.s:2056   .text:0000000000000c44 .LVL205
     /tmp/cc6KI5Hb.s:2078   .text:0000000000000c6c .LVL206
     /tmp/cc6KI5Hb.s:2101   .text:0000000000000c94 .LVL209
     /tmp/cc6KI5Hb.s:2117   .text:0000000000000cac .LVL211
     /tmp/cc6KI5Hb.s:2113   .text:0000000000000ca4 .LVL210
     /tmp/cc6KI5Hb.s:2087   .text:0000000000000c74 .LVL207
     /tmp/cc6KI5Hb.s:1976   .text:0000000000000bc4 .LVL196
     /tmp/cc6KI5Hb.s:1999   .text:0000000000000be8 .LVL198
     /tmp/cc6KI5Hb.s:2042   .text:0000000000000c3c .LVL204
     /tmp/cc6KI5Hb.s:1991   .text:0000000000000be0 .LVL197
     /tmp/cc6KI5Hb.s:2012   .text:0000000000000c08 .LVL199
     /tmp/cc6KI5Hb.s:2039   .text:0000000000000c38 .LVL203
     /tmp/cc6KI5Hb.s:1883   .text:0000000000000b1c .LVL186
     /tmp/cc6KI5Hb.s:1908   .text:0000000000000b50 .LVL188
     /tmp/cc6KI5Hb.s:1910   .text:0000000000000b54 .LVL189
     /tmp/cc6KI5Hb.s:1914   .text:0000000000000b58 .LVL190
     /tmp/cc6KI5Hb.s:1919   .text:0000000000000b5c .LVL191
     /tmp/cc6KI5Hb.s:1933   .text:0000000000000b80 .LVL192
     /tmp/cc6KI5Hb.s:1953   .text:0000000000000ba8 .LVL194
     /tmp/cc6KI5Hb.s:1611   .text:000000000000090c .LVL153
     /tmp/cc6KI5Hb.s:1628   .text:0000000000000930 .LVL154
     /tmp/cc6KI5Hb.s:1751   .text:0000000000000a38 .LVL175
     /tmp/cc6KI5Hb.s:1673   .text:00000000000009b8 .LVL163
     /tmp/cc6KI5Hb.s:1748   .text:0000000000000a34 .LVL174
     /tmp/cc6KI5Hb.s:1539   .text:00000000000008c8 .LVL149
     /tmp/cc6KI5Hb.s:1571   .text:0000000000000904 .LVL152
     /tmp/cc6KI5Hb.s:1285   .text:0000000000000738 .LVL115
     /tmp/cc6KI5Hb.s:1303   .text:0000000000000758 .LVL116
     /tmp/cc6KI5Hb.s:1370   .text:00000000000007bc .LVL128
     /tmp/cc6KI5Hb.s:1376   .text:00000000000007c8 .LVL129
     /tmp/cc6KI5Hb.s:1347   .text:000000000000079c .LVL124
     /tmp/cc6KI5Hb.s:1351   .text:00000000000007a0 .LVL125
     /tmp/cc6KI5Hb.s:1356   .text:00000000000007ac .LVL127
     /tmp/cc6KI5Hb.s:1389   .text:00000000000007d8 .LVL131
     /tmp/cc6KI5Hb.s:1320   .text:0000000000000770 .LVL118
GAS LISTING /tmp/cc6KI5Hb.s 			page 79


     /tmp/cc6KI5Hb.s:1324   .text:0000000000000774 .LVL119
     /tmp/cc6KI5Hb.s:1337   .text:0000000000000790 .LVL122
     /tmp/cc6KI5Hb.s:1410   .text:00000000000007fc .LVL134
     /tmp/cc6KI5Hb.s:1414   .text:0000000000000800 .LVL135
     /tmp/cc6KI5Hb.s:1440   .text:000000000000081c .LVL138
     /tmp/cc6KI5Hb.s:1466   .text:0000000000000858 .LVL139
     /tmp/cc6KI5Hb.s:1519   .text:00000000000008b8 .LVL146
     /tmp/cc6KI5Hb.s:1516   .text:00000000000008b4 .LVL145
     /tmp/cc6KI5Hb.s:1522   .text:00000000000008bc .LVL147
     /tmp/cc6KI5Hb.s:1525   .text:00000000000008c0 .LVL148
     /tmp/cc6KI5Hb.s:1471   .text:0000000000000868 .LVL141
     /tmp/cc6KI5Hb.s:1513   .text:00000000000008b0 .LVL144
     /tmp/cc6KI5Hb.s:1247   .text:0000000000000700 .LVL112
     /tmp/cc6KI5Hb.s:1836   .text:0000000000000ad8 .LVL182
     /tmp/cc6KI5Hb.s:1869   .text:0000000000000b14 .LVL185
     /tmp/cc6KI5Hb.s:1148   .text:0000000000000654 .LVL105
     /tmp/cc6KI5Hb.s:1215   .text:00000000000006d0 .LVL108
     /tmp/cc6KI5Hb.s:1219   .text:00000000000006d8 .LVL109
     /tmp/cc6KI5Hb.s:1162   .text:0000000000000670 .LVL106
     /tmp/cc6KI5Hb.s:1047   .text:0000000000000584 .LVL93
     /tmp/cc6KI5Hb.s:1064   .text:00000000000005a8 .LVL94
     /tmp/cc6KI5Hb.s:1134   .text:000000000000064c .LVL104
     /tmp/cc6KI5Hb.s:1092   .text:00000000000005fc .LVL99
     /tmp/cc6KI5Hb.s:1131   .text:0000000000000648 .LVL103
     /tmp/cc6KI5Hb.s:983    .text:0000000000000538 .LVL90
     /tmp/cc6KI5Hb.s:999    .text:0000000000000558 .LVL92
     /tmp/cc6KI5Hb.s:995    .text:0000000000000550 .LVL91
     /tmp/cc6KI5Hb.s:878    .text:00000000000004b8 .LVL80
     /tmp/cc6KI5Hb.s:889    .text:00000000000004cc .LVL81
     /tmp/cc6KI5Hb.s:891    .text:00000000000004d0 .LVL82
     /tmp/cc6KI5Hb.s:897    .text:00000000000004d4 .LVL83
     /tmp/cc6KI5Hb.s:917    .text:00000000000004f0 .LVL84
     /tmp/cc6KI5Hb.s:922    .text:00000000000004f8 .LVL85
     /tmp/cc6KI5Hb.s:940    .text:000000000000050c .LVL87
     /tmp/cc6KI5Hb.s:946    .text:0000000000000510 .LVL88
     /tmp/cc6KI5Hb.s:966    .text:000000000000052c .LVL89
     /tmp/cc6KI5Hb.s:788    .text:0000000000000450 .LVL67
     /tmp/cc6KI5Hb.s:861    .text:00000000000004ac .LVL79
     /tmp/cc6KI5Hb.s:796    .text:000000000000045c .LVL68
     /tmp/cc6KI5Hb.s:799    .text:0000000000000460 .LVL69
     /tmp/cc6KI5Hb.s:852    .text:00000000000004a4 .LVL77
     /tmp/cc6KI5Hb.s:854    .text:00000000000004a8 .LVL78
     /tmp/cc6KI5Hb.s:819    .text:0000000000000478 .LVL71
     /tmp/cc6KI5Hb.s:849    .text:00000000000004a0 .LVL76
     /tmp/cc6KI5Hb.s:825    .text:0000000000000480 .LVL72
     /tmp/cc6KI5Hb.s:829    .text:0000000000000484 .LVL73
     /tmp/cc6KI5Hb.s:838    .text:0000000000000490 .LVL74
     /tmp/cc6KI5Hb.s:844    .text:0000000000000498 .LVL75
     /tmp/cc6KI5Hb.s:682    .text:00000000000003b4 .LVL57
     /tmp/cc6KI5Hb.s:699    .text:00000000000003dc .LVL58
     /tmp/cc6KI5Hb.s:774    .text:0000000000000448 .LVL66
     /tmp/cc6KI5Hb.s:730    .text:000000000000040c .LVL60
     /tmp/cc6KI5Hb.s:734    .text:0000000000000410 .LVL61
     /tmp/cc6KI5Hb.s:739    .text:0000000000000418 .LVL62
     /tmp/cc6KI5Hb.s:742    .text:000000000000041c .LVL63
     /tmp/cc6KI5Hb.s:747    .text:0000000000000420 .LVL64
     /tmp/cc6KI5Hb.s:628    .text:000000000000035c .LVL50
GAS LISTING /tmp/cc6KI5Hb.s 			page 80


     /tmp/cc6KI5Hb.s:648    .text:0000000000000384 .LVL52
     /tmp/cc6KI5Hb.s:668    .text:00000000000003ac .LVL56
     /tmp/cc6KI5Hb.s:646    .text:0000000000000380 .LVL51
     /tmp/cc6KI5Hb.s:665    .text:00000000000003a8 .LVL55
     /tmp/cc6KI5Hb.s:574    .text:0000000000000304 .LVL43
     /tmp/cc6KI5Hb.s:594    .text:000000000000032c .LVL45
     /tmp/cc6KI5Hb.s:614    .text:0000000000000354 .LVL49
     /tmp/cc6KI5Hb.s:592    .text:0000000000000328 .LVL44
     /tmp/cc6KI5Hb.s:611    .text:0000000000000350 .LVL48
     /tmp/cc6KI5Hb.s:518    .text:00000000000002ac .LVL36
     /tmp/cc6KI5Hb.s:540    .text:00000000000002d4 .LVL38
     /tmp/cc6KI5Hb.s:557    .text:00000000000002f8 .LVL41
     /tmp/cc6KI5Hb.s:535    .text:00000000000002cc .LVL37
     /tmp/cc6KI5Hb.s:560    .text:00000000000002fc .LVL42
     /tmp/cc6KI5Hb.s:462    .text:0000000000000254 .LVL29
     /tmp/cc6KI5Hb.s:484    .text:000000000000027c .LVL31
     /tmp/cc6KI5Hb.s:501    .text:00000000000002a0 .LVL34
     /tmp/cc6KI5Hb.s:479    .text:0000000000000274 .LVL30
     /tmp/cc6KI5Hb.s:504    .text:00000000000002a4 .LVL35
     /tmp/cc6KI5Hb.s:321    .text:00000000000001a8 .LVL25
     /tmp/cc6KI5Hb.s:331    .text:00000000000001b8 .LVL26
     /tmp/cc6KI5Hb.s:289    .text:0000000000000180 .LVL23
     /tmp/cc6KI5Hb.s:301    .text:0000000000000194 .LVL24
     /tmp/cc6KI5Hb.s:165    .text:00000000000000cc .LVL11
     /tmp/cc6KI5Hb.s:217    .text:0000000000000118 .LVL16
     /tmp/cc6KI5Hb.s:230    .text:000000000000012c .LVL19
     /tmp/cc6KI5Hb.s:236    .text:0000000000000130 .LVL20
     /tmp/cc6KI5Hb.s:174    .text:00000000000000dc .LVL12
     /tmp/cc6KI5Hb.s:227    .text:0000000000000128 .LVL18
     /tmp/cc6KI5Hb.s:239    .text:0000000000000134 .LVL21
     /tmp/cc6KI5Hb.s:248    .text:0000000000000144 .LVL22
     /tmp/cc6KI5Hb.s:223    .text:0000000000000124 .LVL17
     /tmp/cc6KI5Hb.s:180    .text:00000000000000e0 .LVL13
     /tmp/cc6KI5Hb.s:194    .text:00000000000000f4 .LVL14
     /tmp/cc6KI5Hb.s:67     .text:0000000000000034 .LVL3
     /tmp/cc6KI5Hb.s:94     .text:0000000000000060 .LVL6
     /tmp/cc6KI5Hb.s:148    .text:00000000000000c0 .LVL9
     /tmp/cc6KI5Hb.s:151    .text:00000000000000c4 .LVL10
     /tmp/cc6KI5Hb.s:84     .text:0000000000000054 .LVL4
     /tmp/cc6KI5Hb.s:89     .text:0000000000000058 .LVL5
     /tmp/cc6KI5Hb.s:14     .text:0000000000000000 .LVL0
     /tmp/cc6KI5Hb.s:34     .text:000000000000001c .LVL1
     /tmp/cc6KI5Hb.s:38     .text:0000000000000020 .LVL2
     /tmp/cc6KI5Hb.s:2196   .debug_info:0000000000000000 .Ldebug_info0
     /tmp/cc6KI5Hb.s:187    .text:00000000000000e8 .LBB4
     /tmp/cc6KI5Hb.s:205    .text:0000000000000108 .LBE4
     /tmp/cc6KI5Hb.s:211    .text:0000000000000110 .LBB5
     /tmp/cc6KI5Hb.s:232    .text:000000000000012c .LBE5
     /tmp/cc6KI5Hb.s:893    .text:00000000000004d0 .LBB9
     /tmp/cc6KI5Hb.s:899    .text:00000000000004d4 .LBE9
     /tmp/cc6KI5Hb.s:903    .text:00000000000004d8 .LBB10
     /tmp/cc6KI5Hb.s:924    .text:00000000000004f8 .LBE10
     /tmp/cc6KI5Hb.s:942    .text:000000000000050c .LBB11
     /tmp/cc6KI5Hb.s:948    .text:0000000000000510 .LBE11
     /tmp/cc6KI5Hb.s:952    .text:0000000000000514 .LBB12
     /tmp/cc6KI5Hb.s:972    .text:0000000000000538 .LBE12
     /tmp/cc6KI5Hb.s:1341   .text:0000000000000790 .LBB18
GAS LISTING /tmp/cc6KI5Hb.s 			page 81


     /tmp/cc6KI5Hb.s:1358   .text:00000000000007ac .LBE18
     /tmp/cc6KI5Hb.s:1380   .text:00000000000007c8 .LBB19
     /tmp/cc6KI5Hb.s:1391   .text:00000000000007d8 .LBE19
     /tmp/cc6KI5Hb.s:1993   .text:0000000000000be0 .LBB24
     /tmp/cc6KI5Hb.s:1996   .text:0000000000000be4 .LBE24
     /tmp/cc6KI5Hb.s:2001   .text:0000000000000be8 .LBB25
     /tmp/cc6KI5Hb.s:2022   .text:0000000000000c1c .LBE25

UNDEFINED SYMBOLS
_Z11buddy_allocP14buddyAllocatorm
_ZN8KConsole15trapPrintStringEPKc
_ZN8KConsole18trapPrintStringIntEPKcmi
_ZN8KConsole12trapPrintIntEmii
_Z10buddy_initPvm
_Z11getDeg2Ceilm
_Z10buddy_freeP14buddyAllocatorPvm
