GAS LISTING /tmp/ccIDWBF4.s 			page 1


   1              		.file	"slabTests.cpp"
   2              		.option pic
   3              		.option norelax
   4              		.text
   5              	.Ltext0:
   6              		.align	2
   7              		.globl	_Z12slabInitTestv
   9              	_Z12slabInitTestv:
  10              	.LFB0:
  11              		.file 1 "src/slabTests.cpp"
   1:src/slabTests.cpp **** #include "../h/slabTests.hpp"
   2:src/slabTests.cpp **** 
   3:src/slabTests.cpp **** void slabInitTest()
   4:src/slabTests.cpp **** {
  12              		.loc 1 4 1
  13              		.cfi_startproc
  14 0000 130101FF 		addi	sp,sp,-16
  15              		.cfi_def_cfa_offset 16
  16 0004 23341100 		sd	ra,8(sp)
  17 0008 23308100 		sd	s0,0(sp)
  18              		.cfi_offset 1, -8
  19              		.cfi_offset 8, -16
  20 000c 13040101 		addi	s0,sp,16
  21              		.cfi_def_cfa 8, 0
   5:src/slabTests.cpp ****     kmem_init((void*)HEAP_START_ADDR, 15);
  22              		.loc 1 5 5
  23              		.loc 1 5 14 is_stmt 0
  24 0010 9305F000 		li	a1,15
  25 0014 97070000 		la	a5,HEAP_START_ADDR
  25      83B70700 
  26 001c 03B50700 		ld	a0,0(a5)
  27 0020 97000000 		call	_Z9kmem_initPvi@plt
  27      E7800000 
  28              	.LVL0:
   6:src/slabTests.cpp **** }
  29              		.loc 1 6 1
  30 0028 83308100 		ld	ra,8(sp)
  31              		.cfi_restore 1
  32 002c 03340100 		ld	s0,0(sp)
  33              		.cfi_restore 8
  34              		.cfi_def_cfa 2, 16
  35 0030 13010101 		addi	sp,sp,16
  36              		.cfi_def_cfa_offset 0
  37 0034 67800000 		jr	ra
  38              		.cfi_endproc
  39              	.LFE0:
  41              		.section	.rodata.str1.8,"aMS",@progbits,1
  42              		.align	3
  43              	.LC0:
  44 0000 43616368 		.string	"Cache test"
  44      65207465 
  44      737400
  45 000b 00000000 		.align	3
  45      00
  46              	.LC1:
  47 0010 43616368 		.string	"Cache test 2"
  47      65207465 
GAS LISTING /tmp/ccIDWBF4.s 			page 2


  47      73742032 
  47      00
  48 001d 000000   		.align	3
  49              	.LC2:
  50 0020 43616368 		.string	"Cache test 3"
  50      65207465 
  50      73742033 
  50      00
  51              		.text
  52              		.align	2
  53              		.globl	_Z19slabCacheCreateTestv
  55              	_Z19slabCacheCreateTestv:
  56              	.LFB1:
   7:src/slabTests.cpp **** 
   8:src/slabTests.cpp **** void slabCacheCreateTest()
   9:src/slabTests.cpp **** {
  57              		.loc 1 9 1 is_stmt 1
  58              		.cfi_startproc
  59 0038 130101FE 		addi	sp,sp,-32
  60              		.cfi_def_cfa_offset 32
  61 003c 233C1100 		sd	ra,24(sp)
  62 0040 23388100 		sd	s0,16(sp)
  63 0044 23349100 		sd	s1,8(sp)
  64 0048 23302101 		sd	s2,0(sp)
  65              		.cfi_offset 1, -8
  66              		.cfi_offset 8, -16
  67              		.cfi_offset 9, -24
  68              		.cfi_offset 18, -32
  69 004c 13040102 		addi	s0,sp,32
  70              		.cfi_def_cfa 8, 0
  10:src/slabTests.cpp ****     kmem_init((void*)HEAP_START_ADDR, 15);
  71              		.loc 1 10 5
  72              		.loc 1 10 14 is_stmt 0
  73 0050 9305F000 		li	a1,15
  74 0054 97070000 		la	a5,HEAP_START_ADDR
  74      83B70700 
  75 005c 03B50700 		ld	a0,0(a5)
  76 0060 97000000 		call	_Z9kmem_initPvi@plt
  76      E7800000 
  77              	.LVL1:
  11:src/slabTests.cpp ****     kmem_cache_t* cache = kmem_cache_create("Cache test", 10, nullptr,nullptr);
  78              		.loc 1 11 5 is_stmt 1
  79              		.loc 1 11 44 is_stmt 0
  80 0068 93060000 		li	a3,0
  81 006c 13060000 		li	a2,0
  82 0070 9305A000 		li	a1,10
  83 0074 17050000 		lla	a0,.LC0
  83      13050500 
  84 007c 97000000 		call	_Z17kmem_cache_createPKcmPFvPvES3_@plt
  84      E7800000 
  85              	.LVL2:
  86 0084 93040500 		mv	s1,a0
  87              	.LVL3:
  12:src/slabTests.cpp ****     kmem_cache_t* cache2 = kmem_cache_create("Cache test 2", 10, nullptr,nullptr);
  88              		.loc 1 12 5 is_stmt 1
  89              		.loc 1 12 45 is_stmt 0
  90 0088 93060000 		li	a3,0
GAS LISTING /tmp/ccIDWBF4.s 			page 3


  91 008c 13060000 		li	a2,0
  92 0090 9305A000 		li	a1,10
  93 0094 17050000 		lla	a0,.LC1
  93      13050500 
  94 009c 97000000 		call	_Z17kmem_cache_createPKcmPFvPvES3_@plt
  94      E7800000 
  95              	.LVL4:
  96 00a4 13090500 		mv	s2,a0
  97              	.LVL5:
  13:src/slabTests.cpp ****     kmem_cache_t* cache3 = kmem_cache_create("Cache test 3", 10, nullptr,nullptr);
  98              		.loc 1 13 5 is_stmt 1
  99              		.loc 1 13 45 is_stmt 0
 100 00a8 93060000 		li	a3,0
 101 00ac 13060000 		li	a2,0
 102 00b0 9305A000 		li	a1,10
 103 00b4 17050000 		lla	a0,.LC2
 103      13050500 
 104              	.LVL6:
 105 00bc 97000000 		call	_Z17kmem_cache_createPKcmPFvPvES3_@plt
 105      E7800000 
 106              	.LVL7:
  14:src/slabTests.cpp ****     if(cache && cache2 && cache3)
 107              		.loc 1 14 5 is_stmt 1
 108 00c4 638A0400 		beqz	s1,.L3
 109              		.loc 1 14 14 is_stmt 0 discriminator 1
 110 00c8 63080900 		beqz	s2,.L3
 111              		.loc 1 14 24 discriminator 2
 112 00cc 63060500 		beqz	a0,.L3
  15:src/slabTests.cpp ****         printSlabAllocatorInfo();
 113              		.loc 1 15 9 is_stmt 1
 114              		.loc 1 15 31 is_stmt 0
 115 00d0 97000000 		call	_Z22printSlabAllocatorInfov@plt
 115      E7800000 
 116              	.LVL8:
 117              	.L3:
  16:src/slabTests.cpp **** }
 118              		.loc 1 16 1
 119 00d8 83308101 		ld	ra,24(sp)
 120              		.cfi_restore 1
 121 00dc 03340101 		ld	s0,16(sp)
 122              		.cfi_restore 8
 123              		.cfi_def_cfa 2, 32
 124 00e0 83348100 		ld	s1,8(sp)
 125              		.cfi_restore 9
 126              	.LVL9:
 127 00e4 03390100 		ld	s2,0(sp)
 128              		.cfi_restore 18
 129              	.LVL10:
 130 00e8 13010102 		addi	sp,sp,32
 131              		.cfi_def_cfa_offset 0
 132 00ec 67800000 		jr	ra
 133              		.cfi_endproc
 134              	.LFE1:
 136              		.align	2
 137              		.globl	_Z20slabCacheCreateTest2v
 139              	_Z20slabCacheCreateTest2v:
 140              	.LFB2:
GAS LISTING /tmp/ccIDWBF4.s 			page 4


  17:src/slabTests.cpp **** 
  18:src/slabTests.cpp **** void slabCacheCreateTest2()
  19:src/slabTests.cpp **** {
 141              		.loc 1 19 1 is_stmt 1
 142              		.cfi_startproc
 143 00f0 130101FE 		addi	sp,sp,-32
 144              		.cfi_def_cfa_offset 32
 145 00f4 233C1100 		sd	ra,24(sp)
 146 00f8 23388100 		sd	s0,16(sp)
 147 00fc 23349100 		sd	s1,8(sp)
 148 0100 23302101 		sd	s2,0(sp)
 149              		.cfi_offset 1, -8
 150              		.cfi_offset 8, -16
 151              		.cfi_offset 9, -24
 152              		.cfi_offset 18, -32
 153 0104 13040102 		addi	s0,sp,32
 154              		.cfi_def_cfa 8, 0
  20:src/slabTests.cpp ****     kmem_init((void*)HEAP_START_ADDR, 15);
 155              		.loc 1 20 5
 156              		.loc 1 20 14 is_stmt 0
 157 0108 9305F000 		li	a1,15
 158 010c 97070000 		la	a5,HEAP_START_ADDR
 158      83B70700 
 159 0114 03B50700 		ld	a0,0(a5)
 160 0118 97000000 		call	_Z9kmem_initPvi@plt
 160      E7800000 
 161              	.LVL11:
  21:src/slabTests.cpp ****     kmem_cache_t * cache = nullptr;
 162              		.loc 1 21 5 is_stmt 1
  22:src/slabTests.cpp ****     for(int i = 1;i<=60;i++)
 163              		.loc 1 22 5
 164              	.LBB2:
 165              		.loc 1 22 13 is_stmt 0
 166 0120 93041000 		li	s1,1
 167              	.LBE2:
  21:src/slabTests.cpp ****     kmem_cache_t * cache = nullptr;
 168              		.loc 1 21 20
 169 0124 13090000 		li	s2,0
 170 0128 6F008002 		j	.L8
 171              	.LVL12:
 172              	.L10:
 173              	.LBB3:
  23:src/slabTests.cpp ****     {
  24:src/slabTests.cpp ****         cache = kmem_cache_create("Cache test", 10, nullptr,nullptr);
 174              		.loc 1 24 9 is_stmt 1 discriminator 2
 175              		.loc 1 24 34 is_stmt 0 discriminator 2
 176 012c 93060000 		li	a3,0
 177 0130 13060000 		li	a2,0
 178 0134 9305A000 		li	a1,10
 179 0138 17050000 		lla	a0,.LC0
 179      13050500 
 180 0140 97000000 		call	_Z17kmem_cache_createPKcmPFvPvES3_@plt
 180      E7800000 
 181              	.LVL13:
 182 0148 13090500 		mv	s2,a0
 183              	.LVL14:
  22:src/slabTests.cpp ****     for(int i = 1;i<=60;i++)
GAS LISTING /tmp/ccIDWBF4.s 			page 5


 184              		.loc 1 22 5 is_stmt 1 discriminator 2
 185 014c 9B841400 		addiw	s1,s1,1
 186              	.LVL15:
 187              	.L8:
  22:src/slabTests.cpp ****     for(int i = 1;i<=60;i++)
 188              		.loc 1 22 20 discriminator 3
 189 0150 9307C003 		li	a5,60
 190 0154 E3DC97FC 		ble	s1,a5,.L10
 191              	.LBE3:
  25:src/slabTests.cpp ****     }
  26:src/slabTests.cpp ****     printSlabAllocatorInfo();
 192              		.loc 1 26 5
 193              		.loc 1 26 27 is_stmt 0
 194 0158 97000000 		call	_Z22printSlabAllocatorInfov@plt
 194      E7800000 
 195              	.LVL16:
  27:src/slabTests.cpp ****     kmem_cache_destroy(cache);
 196              		.loc 1 27 5 is_stmt 1
 197              		.loc 1 27 23 is_stmt 0
 198 0160 13050900 		mv	a0,s2
 199 0164 97000000 		call	_Z18kmem_cache_destroyP12kmem_cache_s@plt
 199      E7800000 
 200              	.LVL17:
  28:src/slabTests.cpp **** }...
 201              		.loc 1 28 1
 202 016c 83308101 		ld	ra,24(sp)
 203              		.cfi_restore 1
 204 0170 03340101 		ld	s0,16(sp)
 205              		.cfi_restore 8
 206              		.cfi_def_cfa 2, 32
 207 0174 83348100 		ld	s1,8(sp)
 208              		.cfi_restore 9
 209              	.LVL18:
 210 0178 03390100 		ld	s2,0(sp)
 211              		.cfi_restore 18
 212              	.LVL19:
 213 017c 13010102 		addi	sp,sp,32
 214              		.cfi_def_cfa_offset 0
 215 0180 67800000 		jr	ra
 216              		.cfi_endproc
 217              	.LFE2:
 219              	.Letext0:
 220              		.file 2 "src/../h/../lib/hw.h"
 221              		.file 3 "src/../h/slabAllocator.hpp"
GAS LISTING /tmp/ccIDWBF4.s 			page 6


DEFINED SYMBOLS
                            *ABS*:0000000000000000 slabTests.cpp
     /tmp/ccIDWBF4.s:9      .text:0000000000000000 _Z12slabInitTestv
     /tmp/ccIDWBF4.s:13     .text:0000000000000000 .L0 
     /tmp/ccIDWBF4.s:14     .text:0000000000000000 .L0 
     /tmp/ccIDWBF4.s:15     .text:0000000000000004 .L0 
     /tmp/ccIDWBF4.s:18     .text:000000000000000c .L0 
     /tmp/ccIDWBF4.s:19     .text:000000000000000c .L0 
     /tmp/ccIDWBF4.s:21     .text:0000000000000010 .L0 
     /tmp/ccIDWBF4.s:23     .text:0000000000000010 .L0 
     /tmp/ccIDWBF4.s:24     .text:0000000000000010 .L0 
     /tmp/ccIDWBF4.s:30     .text:0000000000000028 .L0 
     /tmp/ccIDWBF4.s:31     .text:000000000000002c .L0 
     /tmp/ccIDWBF4.s:33     .text:0000000000000030 .L0 
     /tmp/ccIDWBF4.s:34     .text:0000000000000030 .L0 
     /tmp/ccIDWBF4.s:36     .text:0000000000000034 .L0 
     /tmp/ccIDWBF4.s:38     .text:0000000000000038 .L0 
     /tmp/ccIDWBF4.s:55     .text:0000000000000038 _Z19slabCacheCreateTestv
     /tmp/ccIDWBF4.s:58     .text:0000000000000038 .L0 
     /tmp/ccIDWBF4.s:59     .text:0000000000000038 .L0 
     /tmp/ccIDWBF4.s:60     .text:000000000000003c .L0 
     /tmp/ccIDWBF4.s:65     .text:000000000000004c .L0 
     /tmp/ccIDWBF4.s:66     .text:000000000000004c .L0 
     /tmp/ccIDWBF4.s:67     .text:000000000000004c .L0 
     /tmp/ccIDWBF4.s:68     .text:000000000000004c .L0 
     /tmp/ccIDWBF4.s:70     .text:0000000000000050 .L0 
     /tmp/ccIDWBF4.s:72     .text:0000000000000050 .L0 
     /tmp/ccIDWBF4.s:73     .text:0000000000000050 .L0 
     /tmp/ccIDWBF4.s:79     .text:0000000000000068 .L0 
     /tmp/ccIDWBF4.s:80     .text:0000000000000068 .L0 
     /tmp/ccIDWBF4.s:89     .text:0000000000000088 .L0 
     /tmp/ccIDWBF4.s:90     .text:0000000000000088 .L0 
     /tmp/ccIDWBF4.s:99     .text:00000000000000a8 .L0 
     /tmp/ccIDWBF4.s:100    .text:00000000000000a8 .L0 
     /tmp/ccIDWBF4.s:108    .text:00000000000000c4 .L0 
     /tmp/ccIDWBF4.s:110    .text:00000000000000c8 .L0 
     /tmp/ccIDWBF4.s:112    .text:00000000000000cc .L0 
     /tmp/ccIDWBF4.s:114    .text:00000000000000d0 .L0 
     /tmp/ccIDWBF4.s:115    .text:00000000000000d0 .L0 
     /tmp/ccIDWBF4.s:119    .text:00000000000000d8 .L0 
     /tmp/ccIDWBF4.s:120    .text:00000000000000dc .L0 
     /tmp/ccIDWBF4.s:122    .text:00000000000000e0 .L0 
     /tmp/ccIDWBF4.s:123    .text:00000000000000e0 .L0 
     /tmp/ccIDWBF4.s:125    .text:00000000000000e4 .L0 
     /tmp/ccIDWBF4.s:128    .text:00000000000000e8 .L0 
     /tmp/ccIDWBF4.s:131    .text:00000000000000ec .L0 
     /tmp/ccIDWBF4.s:133    .text:00000000000000f0 .L0 
     /tmp/ccIDWBF4.s:139    .text:00000000000000f0 _Z20slabCacheCreateTest2v
     /tmp/ccIDWBF4.s:142    .text:00000000000000f0 .L0 
     /tmp/ccIDWBF4.s:143    .text:00000000000000f0 .L0 
     /tmp/ccIDWBF4.s:144    .text:00000000000000f4 .L0 
     /tmp/ccIDWBF4.s:149    .text:0000000000000104 .L0 
     /tmp/ccIDWBF4.s:150    .text:0000000000000104 .L0 
     /tmp/ccIDWBF4.s:151    .text:0000000000000104 .L0 
     /tmp/ccIDWBF4.s:152    .text:0000000000000104 .L0 
     /tmp/ccIDWBF4.s:154    .text:0000000000000108 .L0 
     /tmp/ccIDWBF4.s:156    .text:0000000000000108 .L0 
GAS LISTING /tmp/ccIDWBF4.s 			page 7


     /tmp/ccIDWBF4.s:157    .text:0000000000000108 .L0 
     /tmp/ccIDWBF4.s:163    .text:0000000000000120 .L0 
     /tmp/ccIDWBF4.s:165    .text:0000000000000120 .L0 
     /tmp/ccIDWBF4.s:166    .text:0000000000000120 .L0 
     /tmp/ccIDWBF4.s:169    .text:0000000000000124 .L0 
     /tmp/ccIDWBF4.s:175    .text:000000000000012c .L0 
     /tmp/ccIDWBF4.s:176    .text:000000000000012c .L0 
     /tmp/ccIDWBF4.s:185    .text:000000000000014c .L0 
     /tmp/ccIDWBF4.s:189    .text:0000000000000150 .L0 
     /tmp/ccIDWBF4.s:193    .text:0000000000000158 .L0 
     /tmp/ccIDWBF4.s:194    .text:0000000000000158 .L0 
     /tmp/ccIDWBF4.s:197    .text:0000000000000160 .L0 
     /tmp/ccIDWBF4.s:198    .text:0000000000000160 .L0 
     /tmp/ccIDWBF4.s:202    .text:000000000000016c .L0 
     /tmp/ccIDWBF4.s:203    .text:0000000000000170 .L0 
     /tmp/ccIDWBF4.s:205    .text:0000000000000174 .L0 
     /tmp/ccIDWBF4.s:206    .text:0000000000000174 .L0 
     /tmp/ccIDWBF4.s:208    .text:0000000000000178 .L0 
     /tmp/ccIDWBF4.s:211    .text:000000000000017c .L0 
     /tmp/ccIDWBF4.s:214    .text:0000000000000180 .L0 
     /tmp/ccIDWBF4.s:216    .text:0000000000000184 .L0 
     /tmp/ccIDWBF4.s:222    .text:0000000000000184 .L0 
     /tmp/ccIDWBF4.s:25     .text:0000000000000014 .L0 
     /tmp/ccIDWBF4.s:74     .text:0000000000000054 .L0 
     /tmp/ccIDWBF4.s:43     .rodata.str1.8:0000000000000000 .LC0
     /tmp/ccIDWBF4.s:83     .text:0000000000000074 .L0 
     /tmp/ccIDWBF4.s:46     .rodata.str1.8:0000000000000010 .LC1
     /tmp/ccIDWBF4.s:93     .text:0000000000000094 .L0 
     /tmp/ccIDWBF4.s:49     .rodata.str1.8:0000000000000020 .LC2
     /tmp/ccIDWBF4.s:103    .text:00000000000000b4 .L0 
     /tmp/ccIDWBF4.s:158    .text:000000000000010c .L0 
     /tmp/ccIDWBF4.s:179    .text:0000000000000138 .L0 
     /tmp/ccIDWBF4.s:117    .text:00000000000000d8 .L3
     /tmp/ccIDWBF4.s:187    .text:0000000000000150 .L8
     /tmp/ccIDWBF4.s:172    .text:000000000000012c .L10
     /tmp/ccIDWBF4.s:608    .debug_abbrev:0000000000000000 .Ldebug_abbrev0
     /tmp/ccIDWBF4.s:1012   .debug_str:00000000000001d3 .LASF35
     /tmp/ccIDWBF4.s:994    .debug_str:000000000000011b .LASF36
     /tmp/ccIDWBF4.s:990    .debug_str:00000000000000f1 .LASF37
     /tmp/ccIDWBF4.s:5      .text:0000000000000000 .Ltext0
     /tmp/ccIDWBF4.s:219    .text:0000000000000184 .Letext0
     /tmp/ccIDWBF4.s:956    .debug_line:0000000000000000 .Ldebug_line0
     /tmp/ccIDWBF4.s:960    .debug_str:0000000000000007 .LASF0
     /tmp/ccIDWBF4.s:1010   .debug_str:00000000000001c0 .LASF1
     /tmp/ccIDWBF4.s:964    .debug_str:0000000000000030 .LASF2
     /tmp/ccIDWBF4.s:986    .debug_str:00000000000000d3 .LASF4
     /tmp/ccIDWBF4.s:980    .debug_str:0000000000000099 .LASF3
     /tmp/ccIDWBF4.s:970    .debug_str:000000000000005b .LASF5
     /tmp/ccIDWBF4.s:984    .debug_str:00000000000000c0 .LASF6
     /tmp/ccIDWBF4.s:1008   .debug_str:00000000000001ad .LASF7
     /tmp/ccIDWBF4.s:1024   .debug_str:0000000000000300 .LASF8
     /tmp/ccIDWBF4.s:966    .debug_str:000000000000003e .LASF9
     /tmp/ccIDWBF4.s:968    .debug_str:000000000000004c .LASF10
     /tmp/ccIDWBF4.s:1014   .debug_str:0000000000000297 .LASF11
     /tmp/ccIDWBF4.s:974    .debug_str:000000000000006c .LASF12
     /tmp/ccIDWBF4.s:1030   .debug_str:0000000000000335 .LASF13
     /tmp/ccIDWBF4.s:992    .debug_str:000000000000010f .LASF14
GAS LISTING /tmp/ccIDWBF4.s 			page 8


     /tmp/ccIDWBF4.s:1004   .debug_str:0000000000000185 .LASF15
     /tmp/ccIDWBF4.s:998    .debug_str:0000000000000133 .LASF16
     /tmp/ccIDWBF4.s:1016   .debug_str:00000000000002a6 .LASF17
     /tmp/ccIDWBF4.s:978    .debug_str:000000000000008c .LASF38
     /tmp/ccIDWBF4.s:982    .debug_str:00000000000000ab .LASF19
     /tmp/ccIDWBF4.s:1018   .debug_str:00000000000002b3 .LASF21
     /tmp/ccIDWBF4.s:140    .text:00000000000000f0 .LFB2
     /tmp/ccIDWBF4.s:217    .text:0000000000000184 .LFE2
     /tmp/ccIDWBF4.s:996    .debug_str:000000000000012d .LASF18
     /tmp/ccIDWBF4.s:878    .debug_loc:0000000000000000 .LLST3
     /tmp/ccIDWBF4.s:948    .debug_ranges:0000000000000000 .Ldebug_ranges0
     /tmp/ccIDWBF4.s:898    .debug_loc:000000000000005d .LLST4
     /tmp/ccIDWBF4.s:181    .text:0000000000000148 .LVL13
     /tmp/ccIDWBF4.s:161    .text:0000000000000120 .LVL11
     /tmp/ccIDWBF4.s:195    .text:0000000000000160 .LVL16
     /tmp/ccIDWBF4.s:200    .text:000000000000016c .LVL17
     /tmp/ccIDWBF4.s:1032   .debug_str:0000000000000345 .LASF20
     /tmp/ccIDWBF4.s:1002   .debug_str:000000000000016c .LASF22
     /tmp/ccIDWBF4.s:56     .text:0000000000000038 .LFB1
     /tmp/ccIDWBF4.s:134    .text:00000000000000f0 .LFE1
     /tmp/ccIDWBF4.s:910    .debug_loc:0000000000000094 .LLST0
     /tmp/ccIDWBF4.s:1034   .debug_str:0000000000000359 .LASF23
     /tmp/ccIDWBF4.s:917    .debug_loc:00000000000000b7 .LLST1
     /tmp/ccIDWBF4.s:958    .debug_str:0000000000000000 .LASF24
     /tmp/ccIDWBF4.s:928    .debug_loc:00000000000000ed .LLST2
     /tmp/ccIDWBF4.s:77     .text:0000000000000068 .LVL1
     /tmp/ccIDWBF4.s:85     .text:0000000000000084 .LVL2
     /tmp/ccIDWBF4.s:95     .text:00000000000000a4 .LVL4
     /tmp/ccIDWBF4.s:106    .text:00000000000000c4 .LVL7
     /tmp/ccIDWBF4.s:116    .text:00000000000000d8 .LVL8
     /tmp/ccIDWBF4.s:1022   .debug_str:00000000000002f3 .LASF25
     /tmp/ccIDWBF4.s:1028   .debug_str:0000000000000323 .LASF26
     /tmp/ccIDWBF4.s:10     .text:0000000000000000 .LFB0
     /tmp/ccIDWBF4.s:39     .text:0000000000000038 .LFE0
     /tmp/ccIDWBF4.s:28     .text:0000000000000028 .LVL0
     /tmp/ccIDWBF4.s:1000   .debug_str:0000000000000149 .LASF27
     /tmp/ccIDWBF4.s:1006   .debug_str:000000000000019b .LASF29
     /tmp/ccIDWBF4.s:976    .debug_str:000000000000007c .LASF28
     /tmp/ccIDWBF4.s:972    .debug_str:0000000000000062 .LASF30
     /tmp/ccIDWBF4.s:962    .debug_str:0000000000000014 .LASF31
     /tmp/ccIDWBF4.s:988    .debug_str:00000000000000da .LASF32
     /tmp/ccIDWBF4.s:1020   .debug_str:00000000000002cd .LASF33
     /tmp/ccIDWBF4.s:1026   .debug_str:0000000000000310 .LASF34
     /tmp/ccIDWBF4.s:171    .text:000000000000012c .LVL12
     /tmp/ccIDWBF4.s:183    .text:000000000000014c .LVL14
     /tmp/ccIDWBF4.s:186    .text:0000000000000150 .LVL15
     /tmp/ccIDWBF4.s:212    .text:000000000000017c .LVL19
     /tmp/ccIDWBF4.s:209    .text:0000000000000178 .LVL18
     /tmp/ccIDWBF4.s:87     .text:0000000000000088 .LVL3
     /tmp/ccIDWBF4.s:126    .text:00000000000000e4 .LVL9
     /tmp/ccIDWBF4.s:97     .text:00000000000000a8 .LVL5
     /tmp/ccIDWBF4.s:104    .text:00000000000000bc .LVL6
     /tmp/ccIDWBF4.s:129    .text:00000000000000e8 .LVL10
     /tmp/ccIDWBF4.s:223    .debug_info:0000000000000000 .Ldebug_info0
     /tmp/ccIDWBF4.s:164    .text:0000000000000120 .LBB2
     /tmp/ccIDWBF4.s:167    .text:0000000000000124 .LBE2
     /tmp/ccIDWBF4.s:173    .text:000000000000012c .LBB3
GAS LISTING /tmp/ccIDWBF4.s 			page 9


     /tmp/ccIDWBF4.s:191    .text:0000000000000158 .LBE3

UNDEFINED SYMBOLS
HEAP_START_ADDR
_Z9kmem_initPvi
_Z17kmem_cache_createPKcmPFvPvES3_
_Z22printSlabAllocatorInfov
_Z18kmem_cache_destroyP12kmem_cache_s
