GAS LISTING /tmp/ccyhTnIv.s 			page 1


   1              		.file	"slabAllocator.cpp"
   2              		.option pic
   3              		.option norelax
   4              		.text
   5              	.Ltext0:
   6              		.align	2
   7              		.globl	_Z6strcpyPKcPc
   9              	_Z6strcpyPKcPc:
  10              	.LFB5:
  11              		.file 1 "src/slabAllocator.cpp"
   1:src/slabAllocator.cpp **** #include "../h/slabAllocator.hpp"
   2:src/slabAllocator.cpp **** #include "../h/buddyAllocator.hpp"
   3:src/slabAllocator.cpp **** #include "../h/KConsole.hpp"
   4:src/slabAllocator.cpp **** 
   5:src/slabAllocator.cpp **** //TODO
   6:src/slabAllocator.cpp **** //check values of the constants
   7:src/slabAllocator.cpp **** #define SLAB_ALLOCATED_LOOKUP 32
   8:src/slabAllocator.cpp **** #define CACHE_NAME_SIZE 64
   9:src/slabAllocator.cpp **** #define CACHE_BUFFER_SMALL 5
  10:src/slabAllocator.cpp **** #define CACHE_BUFFER_BIG 17
  11:src/slabAllocator.cpp **** #define CACHE_BUFFER_SIZE CACHE_BUFFER_BIG - CACHE_BUFFER_SMALL + 1
  12:src/slabAllocator.cpp **** #define CACHE_OF_CACHES_SLAB_SIZE 2
  13:src/slabAllocator.cpp **** #define NO_ERROR 0
  14:src/slabAllocator.cpp **** #define EXPAND_ERROR 0b1
  15:src/slabAllocator.cpp **** #define DESTROY_ERROR 0b10
  16:src/slabAllocator.cpp **** #define FREE_ERROR 0b100
  17:src/slabAllocator.cpp **** 
  18:src/slabAllocator.cpp **** //TODO
  19:src/slabAllocator.cpp **** //do i need to clear the errors
  20:src/slabAllocator.cpp **** 
  21:src/slabAllocator.cpp **** typedef struct slab_s
  22:src/slabAllocator.cpp **** {
  23:src/slabAllocator.cpp ****     slab_s* prev;
  24:src/slabAllocator.cpp ****     slab_s* next;
  25:src/slabAllocator.cpp ****     kmem_cache_t* owner;
  26:src/slabAllocator.cpp ****     size_t numOfObjects;
  27:src/slabAllocator.cpp ****     size_t numOfAllocatedObjects;
  28:src/slabAllocator.cpp ****     unsigned char allocated[SLAB_ALLOCATED_LOOKUP];
  29:src/slabAllocator.cpp **** }slab_t;
  30:src/slabAllocator.cpp **** 
  31:src/slabAllocator.cpp **** typedef struct kmem_cache_s
  32:src/slabAllocator.cpp **** {
  33:src/slabAllocator.cpp ****     char cacheName[CACHE_NAME_SIZE];
  34:src/slabAllocator.cpp ****     slab_t* slabs_empty;
  35:src/slabAllocator.cpp ****     slab_t* slabs_full;
  36:src/slabAllocator.cpp ****     slab_t* slabs_partial;
  37:src/slabAllocator.cpp ****     size_t slab_size;
  38:src/slabAllocator.cpp ****     size_t obj_size;
  39:src/slabAllocator.cpp ****     void (*ctor)(void*);
  40:src/slabAllocator.cpp ****     void (*dtor)(void*);
  41:src/slabAllocator.cpp ****     int errors;
  42:src/slabAllocator.cpp **** }kmem_cache_t;
  43:src/slabAllocator.cpp **** 
  44:src/slabAllocator.cpp **** typedef struct slab_allocator_s
  45:src/slabAllocator.cpp **** {
  46:src/slabAllocator.cpp ****     buddyAllocator* buddy;
  47:src/slabAllocator.cpp ****     kmem_cache_t* cachesBuffers[CACHE_BUFFER_SIZE];
GAS LISTING /tmp/ccyhTnIv.s 			page 2


  48:src/slabAllocator.cpp ****     kmem_cache_t cacheOfCaches;
  49:src/slabAllocator.cpp **** }slab_allocator_t;
  50:src/slabAllocator.cpp **** 
  51:src/slabAllocator.cpp **** //singleton slab allocator
  52:src/slabAllocator.cpp **** static slab_allocator_t* slabAllocator = nullptr;
  53:src/slabAllocator.cpp **** 
  54:src/slabAllocator.cpp **** //helping functions
  55:src/slabAllocator.cpp **** void strcpy(const char* src, char* dst)
  56:src/slabAllocator.cpp **** {
  12              		.loc 1 56 1
  13              		.cfi_startproc
  14              	.LVL0:
  15 0000 130101FF 		addi	sp,sp,-16
  16              		.cfi_def_cfa_offset 16
  17 0004 23348100 		sd	s0,8(sp)
  18              		.cfi_offset 8, -8
  19 0008 13040101 		addi	s0,sp,16
  20              		.cfi_def_cfa 8, 0
  21              	.L3:
  57:src/slabAllocator.cpp ****     while(*src != '\0')
  22              		.loc 1 57 5
  23              		.loc 1 57 16
  24              		.loc 1 57 11 is_stmt 0
  25 000c 83470500 		lbu	a5,0(a0)
  26              		.loc 1 57 16
  27 0010 638A0700 		beqz	a5,.L2
  58:src/slabAllocator.cpp ****     {
  59:src/slabAllocator.cpp ****         *dst = *src;
  28              		.loc 1 59 9 is_stmt 1
  29              		.loc 1 59 14 is_stmt 0
  30 0014 2380F500 		sb	a5,0(a1)
  60:src/slabAllocator.cpp ****         src++; dst++;
  31              		.loc 1 60 9 is_stmt 1
  32              		.loc 1 60 12 is_stmt 0
  33 0018 13051500 		addi	a0,a0,1
  34              	.LVL1:
  35              		.loc 1 60 16 is_stmt 1
  36              		.loc 1 60 19 is_stmt 0
  37 001c 93851500 		addi	a1,a1,1
  38              	.LVL2:
  57:src/slabAllocator.cpp ****     while(*src != '\0')
  39              		.loc 1 57 5
  40 0020 6FF0DFFE 		j	.L3
  41              	.L2:
  61:src/slabAllocator.cpp ****     }
  62:src/slabAllocator.cpp ****     *dst = *src;
  42              		.loc 1 62 5 is_stmt 1
  43              		.loc 1 62 10 is_stmt 0
  44 0024 2380F500 		sb	a5,0(a1)
  63:src/slabAllocator.cpp **** }
  45              		.loc 1 63 1
  46 0028 03348100 		ld	s0,8(sp)
  47              		.cfi_restore 8
  48              		.cfi_def_cfa 2, 16
  49 002c 13010101 		addi	sp,sp,16
  50              		.cfi_def_cfa_offset 0
  51 0030 67800000 		jr	ra
GAS LISTING /tmp/ccyhTnIv.s 			page 3


  52              		.cfi_endproc
  53              	.LFE5:
  55              		.section	.rodata.str1.8,"aMS",@progbits,1
  56              		.align	3
  57              	.LC0:
  58 0000 43616368 		.string	"Cache of caches"
  58      65206F66 
  58      20636163 
  58      68657300 
  59              		.text
  60              		.align	2
  61              		.globl	_Z19slab_allocator_initP14buddyAllocator
  63              	_Z19slab_allocator_initP14buddyAllocator:
  64              	.LFB6:
  64:src/slabAllocator.cpp **** 
  65:src/slabAllocator.cpp **** slab_allocator_t* slab_allocator_init(buddyAllocator *buddy)
  66:src/slabAllocator.cpp **** {
  65              		.loc 1 66 1 is_stmt 1
  66              		.cfi_startproc
  67              	.LVL3:
  68 0034 130101FE 		addi	sp,sp,-32
  69              		.cfi_def_cfa_offset 32
  70 0038 233C1100 		sd	ra,24(sp)
  71 003c 23388100 		sd	s0,16(sp)
  72 0040 23349100 		sd	s1,8(sp)
  73 0044 23302101 		sd	s2,0(sp)
  74              		.cfi_offset 1, -8
  75              		.cfi_offset 8, -16
  76              		.cfi_offset 9, -24
  77              		.cfi_offset 18, -32
  78 0048 13040102 		addi	s0,sp,32
  79              		.cfi_def_cfa 8, 0
  80 004c 93040500 		mv	s1,a0
  67:src/slabAllocator.cpp ****     slab_allocator_t* slabAllocatorLocal = (slab_allocator_t*)(buddy + 1);
  81              		.loc 1 67 5
  82              		.loc 1 67 23 is_stmt 0
  83 0050 1309050E 		addi	s2,a0,224
  84              	.LVL4:
  68:src/slabAllocator.cpp **** 
  69:src/slabAllocator.cpp ****     slabAllocatorLocal->buddy = buddy;
  85              		.loc 1 69 5 is_stmt 1
  86              		.loc 1 69 31 is_stmt 0
  87 0054 2330A50E 		sd	a0,224(a0)
  70:src/slabAllocator.cpp ****     for(size_t i = 0; i < CACHE_BUFFER_SIZE;i++)
  88              		.loc 1 70 5 is_stmt 1
  89              	.LVL5:
  90              	.LBB2:
  91              		.loc 1 70 16 is_stmt 0
  92 0058 93070000 		li	a5,0
  93 005c 6F004001 		j	.L7
  94              	.LVL6:
  95              	.L9:
  71:src/slabAllocator.cpp ****         slabAllocatorLocal->cachesBuffers[i] = nullptr;
  96              		.loc 1 71 9 is_stmt 1 discriminator 2
  97              		.loc 1 71 46 is_stmt 0 discriminator 2
  98 0060 13973700 		slli	a4,a5,3
  99 0064 3387E400 		add	a4,s1,a4
GAS LISTING /tmp/ccyhTnIv.s 			page 4


 100 0068 2334070E 		sd	zero,232(a4)
  70:src/slabAllocator.cpp ****     for(size_t i = 0; i < CACHE_BUFFER_SIZE;i++)
 101              		.loc 1 70 5 is_stmt 1 discriminator 2
 102 006c 93871700 		addi	a5,a5,1
 103              	.LVL7:
 104              	.L7:
  70:src/slabAllocator.cpp ****     for(size_t i = 0; i < CACHE_BUFFER_SIZE;i++)
 105              		.loc 1 70 25 discriminator 3
 106 0070 1307C000 		li	a4,12
 107 0074 E376F7FE 		bleu	a5,a4,.L9
 108              	.LBE2:
  72:src/slabAllocator.cpp **** 
  73:src/slabAllocator.cpp ****     strcpy("Cache of caches", slabAllocatorLocal->cacheOfCaches.cacheName);
 109              		.loc 1 73 5
 110              		.loc 1 73 11 is_stmt 0
 111 0078 93850415 		addi	a1,s1,336
 112 007c 17050000 		lla	a0,.LC0
 112      13050500 
 113 0084 97000000 		call	_Z6strcpyPKcPc
 113      E7800000 
 114              	.LVL8:
  74:src/slabAllocator.cpp ****     slabAllocatorLocal->cacheOfCaches.ctor = nullptr;
 115              		.loc 1 74 5 is_stmt 1
 116              		.loc 1 74 44 is_stmt 0
 117 008c 23BC041A 		sd	zero,440(s1)
  75:src/slabAllocator.cpp ****     slabAllocatorLocal->cacheOfCaches.dtor = nullptr;
 118              		.loc 1 75 5 is_stmt 1
 119              		.loc 1 75 44 is_stmt 0
 120 0090 23B0041C 		sd	zero,448(s1)
  76:src/slabAllocator.cpp ****     slabAllocatorLocal->cacheOfCaches.slabs_empty = nullptr;
 121              		.loc 1 76 5 is_stmt 1
 122              		.loc 1 76 51 is_stmt 0
 123 0094 23B80418 		sd	zero,400(s1)
  77:src/slabAllocator.cpp ****     slabAllocatorLocal->cacheOfCaches.slabs_full = nullptr;
 124              		.loc 1 77 5 is_stmt 1
 125              		.loc 1 77 50 is_stmt 0
 126 0098 23BC0418 		sd	zero,408(s1)
  78:src/slabAllocator.cpp ****     slabAllocatorLocal->cacheOfCaches.slabs_partial = nullptr;
 127              		.loc 1 78 5 is_stmt 1
 128              		.loc 1 78 53 is_stmt 0
 129 009c 23B0041A 		sd	zero,416(s1)
  79:src/slabAllocator.cpp ****     slabAllocatorLocal->cacheOfCaches.slab_size = CACHE_OF_CACHES_SLAB_SIZE;
 130              		.loc 1 79 5 is_stmt 1
 131              		.loc 1 79 49 is_stmt 0
 132 00a0 93072000 		li	a5,2
 133 00a4 23B4F41A 		sd	a5,424(s1)
  80:src/slabAllocator.cpp ****     slabAllocatorLocal->cacheOfCaches.obj_size = sizeof(kmem_cache_t);
 134              		.loc 1 80 5 is_stmt 1
 135              		.loc 1 80 48 is_stmt 0
 136 00a8 93070008 		li	a5,128
 137 00ac 23B8F41A 		sd	a5,432(s1)
  81:src/slabAllocator.cpp ****     slabAllocatorLocal->cacheOfCaches.errors = NO_ERROR;
 138              		.loc 1 81 5 is_stmt 1
 139              		.loc 1 81 46 is_stmt 0
 140 00b0 23A4041C 		sw	zero,456(s1)
  82:src/slabAllocator.cpp ****     return slabAllocatorLocal;
 141              		.loc 1 82 5 is_stmt 1
GAS LISTING /tmp/ccyhTnIv.s 			page 5


  83:src/slabAllocator.cpp **** }
 142              		.loc 1 83 1 is_stmt 0
 143 00b4 13050900 		mv	a0,s2
 144 00b8 83308101 		ld	ra,24(sp)
 145              		.cfi_restore 1
 146 00bc 03340101 		ld	s0,16(sp)
 147              		.cfi_restore 8
 148              		.cfi_def_cfa 2, 32
 149 00c0 83348100 		ld	s1,8(sp)
 150              		.cfi_restore 9
 151              	.LVL9:
 152 00c4 03390100 		ld	s2,0(sp)
 153              		.cfi_restore 18
 154              	.LVL10:
 155 00c8 13010102 		addi	sp,sp,32
 156              		.cfi_def_cfa_offset 0
 157 00cc 67800000 		jr	ra
 158              		.cfi_endproc
 159              	.LFE6:
 161              		.align	2
 162              		.globl	_Z14allocateObjectP6slab_s
 164              	_Z14allocateObjectP6slab_s:
 165              	.LFB7:
  84:src/slabAllocator.cpp **** 
  85:src/slabAllocator.cpp **** void* allocateObject(slab_t* slab)
  86:src/slabAllocator.cpp **** {
 166              		.loc 1 86 1 is_stmt 1
 167              		.cfi_startproc
 168              	.LVL11:
 169 00d0 130101FF 		addi	sp,sp,-16
 170              		.cfi_def_cfa_offset 16
 171 00d4 23348100 		sd	s0,8(sp)
 172              		.cfi_offset 8, -8
 173 00d8 13040101 		addi	s0,sp,16
 174              		.cfi_def_cfa 8, 0
 175 00dc 93050500 		mv	a1,a0
  87:src/slabAllocator.cpp ****     int index = -1;
 176              		.loc 1 87 5
 177              	.LVL12:
  88:src/slabAllocator.cpp ****     void* addr = nullptr;
 178              		.loc 1 88 5
  89:src/slabAllocator.cpp ****     for(size_t i = 0;i < slab->numOfObjects;i++)
 179              		.loc 1 89 5
 180              	.LBB3:
 181              		.loc 1 89 16 is_stmt 0
 182 00e0 93070000 		li	a5,0
 183              	.LVL13:
 184              	.L13:
 185              		.loc 1 89 24 is_stmt 1 discriminator 1
 186              		.loc 1 89 32 is_stmt 0 discriminator 1
 187 00e4 03B78501 		ld	a4,24(a1)
 188              		.loc 1 89 24 discriminator 1
 189 00e8 63F4E704 		bleu	a4,a5,.L15
 190              	.LBB4:
  90:src/slabAllocator.cpp ****     {
  91:src/slabAllocator.cpp ****         size_t mask = 1 << (i%8);
 191              		.loc 1 91 9 is_stmt 1
GAS LISTING /tmp/ccyhTnIv.s 			page 6


 192              		.loc 1 91 30 is_stmt 0
 193 00ec 13F77700 		andi	a4,a5,7
 194              		.loc 1 91 25
 195 00f0 13061000 		li	a2,1
 196 00f4 BB16E600 		sllw	a3,a2,a4
 197              	.LVL14:
  92:src/slabAllocator.cpp ****         if(!((uint8)slab->allocated[i/8] & mask))
 198              		.loc 1 92 9 is_stmt 1
 199              		.loc 1 92 38 is_stmt 0
 200 00f8 13D73700 		srli	a4,a5,3
 201              		.loc 1 92 40
 202 00fc 3387E500 		add	a4,a1,a4
 203 0100 03478702 		lbu	a4,40(a4)
 204              		.loc 1 92 42
 205 0104 3377D700 		and	a4,a4,a3
 206              		.loc 1 92 9
 207 0108 63060700 		beqz	a4,.L17
 208              	.LBE4:
  89:src/slabAllocator.cpp ****     for(size_t i = 0;i < slab->numOfObjects;i++)
 209              		.loc 1 89 5 is_stmt 1 discriminator 2
 210 010c 93871700 		addi	a5,a5,1
 211              	.LVL15:
 212 0110 6FF05FFD 		j	.L13
 213              	.L17:
 214              	.LBB5:
  93:src/slabAllocator.cpp ****         {
  94:src/slabAllocator.cpp ****             addr = (void*)((size_t)slab + sizeof(slab_t)+ i*slab->owner->obj_size);
 215              		.loc 1 94 13
 216              		.loc 1 94 67 is_stmt 0
 217 0114 03B70501 		ld	a4,16(a1)
 218              		.loc 1 94 74
 219 0118 03350706 		ld	a0,96(a4)
 220              	.LVL16:
 221              		.loc 1 94 60
 222 011c 3305F502 		mul	a0,a0,a5
 223              		.loc 1 94 57
 224 0120 3385A500 		add	a0,a1,a0
 225 0124 13058504 		addi	a0,a0,72
 226              	.LVL17:
  95:src/slabAllocator.cpp ****             index = i;
 227              		.loc 1 95 13 is_stmt 1
 228              		.loc 1 95 19 is_stmt 0
 229 0128 9B870700 		sext.w	a5,a5
 230              	.LVL18:
  96:src/slabAllocator.cpp ****             break;
 231              		.loc 1 96 13 is_stmt 1
 232 012c 6F00C000 		j	.L11
 233              	.LVL19:
 234              	.L15:
 235              	.LBE5:
 236              	.LBE3:
  88:src/slabAllocator.cpp ****     for(size_t i = 0;i < slab->numOfObjects;i++)
 237              		.loc 1 88 11 is_stmt 0
 238 0130 13050000 		li	a0,0
 239              	.LVL20:
  87:src/slabAllocator.cpp ****     void* addr = nullptr;
 240              		.loc 1 87 9
GAS LISTING /tmp/ccyhTnIv.s 			page 7


 241 0134 9307F0FF 		li	a5,-1
 242              	.LVL21:
 243              	.L11:
  97:src/slabAllocator.cpp ****         }
  98:src/slabAllocator.cpp ****     }
  99:src/slabAllocator.cpp ****     if(addr == nullptr)
 244              		.loc 1 99 5 is_stmt 1
 245 0138 63000504 		beqz	a0,.L10
 100:src/slabAllocator.cpp ****         return nullptr;
 101:src/slabAllocator.cpp **** 
 102:src/slabAllocator.cpp ****     //KConsole::trapPrintStringInt("Allocated index ",index);
 103:src/slabAllocator.cpp **** 
 104:src/slabAllocator.cpp ****     //TODO
 105:src/slabAllocator.cpp ****     //implement functions to set bit and check it
 106:src/slabAllocator.cpp ****     slab->allocated[index/8]=(uint8)slab->allocated[index/8] | (1 << (index%8));
 246              		.loc 1 106 5
 247              		.loc 1 106 58 is_stmt 0
 248 013c 9BD6F741 		sraiw	a3,a5,31
 249 0140 9BD6D601 		srliw	a3,a3,29
 250 0144 BB87F600 		addw	a5,a3,a5
 251              	.LVL22:
 252 0148 1BD73740 		sraiw	a4,a5,3
 253              		.loc 1 106 60
 254 014c 3387E500 		add	a4,a1,a4
 255              		.loc 1 106 30
 256 0150 03068702 		lb	a2,40(a4)
 257              		.loc 1 106 76
 258 0154 93F77700 		andi	a5,a5,7
 259 0158 BB87D740 		subw	a5,a5,a3
 260              		.loc 1 106 67
 261 015c 93061000 		li	a3,1
 262 0160 BB97F600 		sllw	a5,a3,a5
 263              		.loc 1 106 62
 264 0164 B367F600 		or	a5,a2,a5
 265              		.loc 1 106 29
 266 0168 2304F702 		sb	a5,40(a4)
 107:src/slabAllocator.cpp ****     slab->numOfAllocatedObjects++;
 267              		.loc 1 107 5 is_stmt 1
 268              		.loc 1 107 11 is_stmt 0
 269 016c 83B70502 		ld	a5,32(a1)
 270              		.loc 1 107 32
 271 0170 93871700 		addi	a5,a5,1
 272 0174 23B0F502 		sd	a5,32(a1)
 108:src/slabAllocator.cpp **** 
 109:src/slabAllocator.cpp ****     return addr;
 273              		.loc 1 109 5 is_stmt 1
 274              	.L10:
 110:src/slabAllocator.cpp **** }
 275              		.loc 1 110 1 is_stmt 0
 276 0178 03348100 		ld	s0,8(sp)
 277              		.cfi_restore 8
 278              		.cfi_def_cfa 2, 16
 279 017c 13010101 		addi	sp,sp,16
 280              		.cfi_def_cfa_offset 0
 281 0180 67800000 		jr	ra
 282              		.cfi_endproc
 283              	.LFE7:
GAS LISTING /tmp/ccyhTnIv.s 			page 8


 285              		.align	2
 286              		.globl	_Z4fullP6slab_s
 288              	_Z4fullP6slab_s:
 289              	.LFB8:
 111:src/slabAllocator.cpp **** 
 112:src/slabAllocator.cpp **** bool full(slab_t* slab)
 113:src/slabAllocator.cpp **** {
 290              		.loc 1 113 1 is_stmt 1
 291              		.cfi_startproc
 292              	.LVL23:
 293 0184 130101FF 		addi	sp,sp,-16
 294              		.cfi_def_cfa_offset 16
 295 0188 23348100 		sd	s0,8(sp)
 296              		.cfi_offset 8, -8
 297 018c 13040101 		addi	s0,sp,16
 298              		.cfi_def_cfa 8, 0
 114:src/slabAllocator.cpp ****     return slab->numOfAllocatedObjects == slab->numOfObjects;
 299              		.loc 1 114 5
 300              		.loc 1 114 18 is_stmt 0
 301 0190 83370502 		ld	a5,32(a0)
 302              		.loc 1 114 49
 303 0194 03358501 		ld	a0,24(a0)
 304              	.LVL24:
 305 0198 3305F540 		sub	a0,a0,a5
 115:src/slabAllocator.cpp **** }
 306              		.loc 1 115 1
 307 019c 13351500 		seqz	a0,a0
 308 01a0 03348100 		ld	s0,8(sp)
 309              		.cfi_restore 8
 310              		.cfi_def_cfa 2, 16
 311 01a4 13010101 		addi	sp,sp,16
 312              		.cfi_def_cfa_offset 0
 313 01a8 67800000 		jr	ra
 314              		.cfi_endproc
 315              	.LFE8:
 317              		.align	2
 318              		.globl	_Z5emptyP6slab_s
 320              	_Z5emptyP6slab_s:
 321              	.LFB9:
 116:src/slabAllocator.cpp **** 
 117:src/slabAllocator.cpp **** bool empty(slab_t* slab)
 118:src/slabAllocator.cpp **** {
 322              		.loc 1 118 1 is_stmt 1
 323              		.cfi_startproc
 324              	.LVL25:
 325 01ac 130101FF 		addi	sp,sp,-16
 326              		.cfi_def_cfa_offset 16
 327 01b0 23348100 		sd	s0,8(sp)
 328              		.cfi_offset 8, -8
 329 01b4 13040101 		addi	s0,sp,16
 330              		.cfi_def_cfa 8, 0
 119:src/slabAllocator.cpp ****     return slab->numOfAllocatedObjects == 0;
 331              		.loc 1 119 5
 332              		.loc 1 119 18 is_stmt 0
 333 01b8 03350502 		ld	a0,32(a0)
 334              	.LVL26:
 120:src/slabAllocator.cpp **** }
GAS LISTING /tmp/ccyhTnIv.s 			page 9


 335              		.loc 1 120 1
 336 01bc 13351500 		seqz	a0,a0
 337 01c0 03348100 		ld	s0,8(sp)
 338              		.cfi_restore 8
 339              		.cfi_def_cfa 2, 16
 340 01c4 13010101 		addi	sp,sp,16
 341              		.cfi_def_cfa_offset 0
 342 01c8 67800000 		jr	ra
 343              		.cfi_endproc
 344              	.LFE9:
 346              		.align	2
 347              		.globl	_Z18insertIntoSlabListP6slab_sPS0_
 349              	_Z18insertIntoSlabListP6slab_sPS0_:
 350              	.LFB10:
 121:src/slabAllocator.cpp **** 
 122:src/slabAllocator.cpp **** void insertIntoSlabList(slab_t* slab, slab_t** slab_head)
 123:src/slabAllocator.cpp **** {
 351              		.loc 1 123 1 is_stmt 1
 352              		.cfi_startproc
 353              	.LVL27:
 354 01cc 130101FF 		addi	sp,sp,-16
 355              		.cfi_def_cfa_offset 16
 356 01d0 23348100 		sd	s0,8(sp)
 357              		.cfi_offset 8, -8
 358 01d4 13040101 		addi	s0,sp,16
 359              		.cfi_def_cfa 8, 0
 124:src/slabAllocator.cpp ****     slab->prev = nullptr;
 360              		.loc 1 124 5
 361              		.loc 1 124 16 is_stmt 0
 362 01d8 23300500 		sd	zero,0(a0)
 125:src/slabAllocator.cpp ****     slab->next = *slab_head;
 363              		.loc 1 125 5 is_stmt 1
 364              		.loc 1 125 18 is_stmt 0
 365 01dc 83B70500 		ld	a5,0(a1)
 366              		.loc 1 125 16
 367 01e0 2334F500 		sd	a5,8(a0)
 126:src/slabAllocator.cpp ****     if(*slab_head != nullptr)
 368              		.loc 1 126 5 is_stmt 1
 369 01e4 63840700 		beqz	a5,.L23
 127:src/slabAllocator.cpp ****         (*slab_head)->prev = slab;
 370              		.loc 1 127 9
 371              		.loc 1 127 28 is_stmt 0
 372 01e8 23B0A700 		sd	a0,0(a5)
 373              	.L23:
 128:src/slabAllocator.cpp ****     *slab_head = slab;
 374              		.loc 1 128 5 is_stmt 1
 375              		.loc 1 128 16 is_stmt 0
 376 01ec 23B0A500 		sd	a0,0(a1)
 129:src/slabAllocator.cpp **** }
 377              		.loc 1 129 1
 378 01f0 03348100 		ld	s0,8(sp)
 379              		.cfi_restore 8
 380              		.cfi_def_cfa 2, 16
 381 01f4 13010101 		addi	sp,sp,16
 382              		.cfi_def_cfa_offset 0
 383 01f8 67800000 		jr	ra
 384              		.cfi_endproc
GAS LISTING /tmp/ccyhTnIv.s 			page 10


 385              	.LFE10:
 387              		.align	2
 388              		.globl	_Z18removeFromSlabListP6slab_sPS0_
 390              	_Z18removeFromSlabListP6slab_sPS0_:
 391              	.LFB11:
 130:src/slabAllocator.cpp **** 
 131:src/slabAllocator.cpp **** void removeFromSlabList(slab_t* slab, slab_t** slab_head)
 132:src/slabAllocator.cpp **** {
 392              		.loc 1 132 1 is_stmt 1
 393              		.cfi_startproc
 394              	.LVL28:
 395 01fc 130101FF 		addi	sp,sp,-16
 396              		.cfi_def_cfa_offset 16
 397 0200 23348100 		sd	s0,8(sp)
 398              		.cfi_offset 8, -8
 399 0204 13040101 		addi	s0,sp,16
 400              		.cfi_def_cfa 8, 0
 133:src/slabAllocator.cpp ****     if(slab->prev == nullptr) //same as slab == *slab_head
 401              		.loc 1 133 5
 402              		.loc 1 133 14 is_stmt 0
 403 0208 83370500 		ld	a5,0(a0)
 404              		.loc 1 133 5
 405 020c 63860702 		beqz	a5,.L31
 134:src/slabAllocator.cpp ****     {
 135:src/slabAllocator.cpp ****         if(slab->next) slab->next->prev = nullptr;
 136:src/slabAllocator.cpp ****         (*slab_head) = slab->next;
 137:src/slabAllocator.cpp ****         slab->next = slab->prev = nullptr;
 138:src/slabAllocator.cpp ****     }
 139:src/slabAllocator.cpp ****     else
 140:src/slabAllocator.cpp ****     {
 141:src/slabAllocator.cpp ****         slab->prev->next = slab->next;
 406              		.loc 1 141 9 is_stmt 1
 407              		.loc 1 141 34 is_stmt 0
 408 0210 03378500 		ld	a4,8(a0)
 409              		.loc 1 141 26
 410 0214 23B4E700 		sd	a4,8(a5)
 142:src/slabAllocator.cpp ****         if(slab->next) slab->next->prev = slab->prev;
 411              		.loc 1 142 9 is_stmt 1
 412 0218 63060700 		beqz	a4,.L29
 413              		.loc 1 142 24 discriminator 1
 414              		.loc 1 142 49 is_stmt 0 discriminator 1
 415 021c 83370500 		ld	a5,0(a0)
 416              		.loc 1 142 41 discriminator 1
 417 0220 2330F700 		sd	a5,0(a4)
 418              	.L29:
 143:src/slabAllocator.cpp ****         slab->next = slab->prev = nullptr;
 419              		.loc 1 143 9 is_stmt 1
 420              		.loc 1 143 33 is_stmt 0
 421 0224 23300500 		sd	zero,0(a0)
 422              		.loc 1 143 20
 423 0228 23340500 		sd	zero,8(a0)
 424              	.L25:
 144:src/slabAllocator.cpp ****     }
 145:src/slabAllocator.cpp **** }
 425              		.loc 1 145 1
 426 022c 03348100 		ld	s0,8(sp)
 427              		.cfi_remember_state
GAS LISTING /tmp/ccyhTnIv.s 			page 11


 428              		.cfi_restore 8
 429              		.cfi_def_cfa 2, 16
 430 0230 13010101 		addi	sp,sp,16
 431              		.cfi_def_cfa_offset 0
 432 0234 67800000 		jr	ra
 433              	.L31:
 434              		.cfi_restore_state
 135:src/slabAllocator.cpp ****         (*slab_head) = slab->next;
 435              		.loc 1 135 9 is_stmt 1
 135:src/slabAllocator.cpp ****         (*slab_head) = slab->next;
 436              		.loc 1 135 18 is_stmt 0
 437 0238 83378500 		ld	a5,8(a0)
 135:src/slabAllocator.cpp ****         (*slab_head) = slab->next;
 438              		.loc 1 135 9
 439 023c 63840700 		beqz	a5,.L27
 135:src/slabAllocator.cpp ****         (*slab_head) = slab->next;
 440              		.loc 1 135 24 is_stmt 1 discriminator 1
 135:src/slabAllocator.cpp ****         (*slab_head) = slab->next;
 441              		.loc 1 135 41 is_stmt 0 discriminator 1
 442 0240 23B00700 		sd	zero,0(a5)
 443              	.L27:
 136:src/slabAllocator.cpp ****         slab->next = slab->prev = nullptr;
 444              		.loc 1 136 9 is_stmt 1
 136:src/slabAllocator.cpp ****         slab->next = slab->prev = nullptr;
 445              		.loc 1 136 30 is_stmt 0
 446 0244 83378500 		ld	a5,8(a0)
 136:src/slabAllocator.cpp ****         slab->next = slab->prev = nullptr;
 447              		.loc 1 136 22
 448 0248 23B0F500 		sd	a5,0(a1)
 137:src/slabAllocator.cpp ****     }
 449              		.loc 1 137 9 is_stmt 1
 137:src/slabAllocator.cpp ****     }
 450              		.loc 1 137 33 is_stmt 0
 451 024c 23300500 		sd	zero,0(a0)
 137:src/slabAllocator.cpp ****     }
 452              		.loc 1 137 20
 453 0250 23340500 		sd	zero,8(a0)
 454 0254 6FF09FFD 		j	.L25
 455              		.cfi_endproc
 456              	.LFE11:
 458              		.align	2
 459              		.globl	_Z16putPartialToFullP12kmem_cache_s
 461              	_Z16putPartialToFullP12kmem_cache_s:
 462              	.LFB12:
 146:src/slabAllocator.cpp **** 
 147:src/slabAllocator.cpp **** void putPartialToFull(kmem_cache_t* cachep)
 148:src/slabAllocator.cpp **** {
 463              		.loc 1 148 1 is_stmt 1
 464              		.cfi_startproc
 465              	.LVL29:
 466 0258 130101FE 		addi	sp,sp,-32
 467              		.cfi_def_cfa_offset 32
 468 025c 233C1100 		sd	ra,24(sp)
 469 0260 23388100 		sd	s0,16(sp)
 470 0264 23349100 		sd	s1,8(sp)
 471 0268 23302101 		sd	s2,0(sp)
 472              		.cfi_offset 1, -8
GAS LISTING /tmp/ccyhTnIv.s 			page 12


 473              		.cfi_offset 8, -16
 474              		.cfi_offset 9, -24
 475              		.cfi_offset 18, -32
 476 026c 13040102 		addi	s0,sp,32
 477              		.cfi_def_cfa 8, 0
 478 0270 93040500 		mv	s1,a0
 149:src/slabAllocator.cpp ****     slab_t* slab = cachep->slabs_partial;
 479              		.loc 1 149 5
 480              		.loc 1 149 13 is_stmt 0
 481 0274 03390505 		ld	s2,80(a0)
 482              	.LVL30:
 150:src/slabAllocator.cpp ****     removeFromSlabList(slab, &cachep->slabs_partial);
 483              		.loc 1 150 5 is_stmt 1
 484              		.loc 1 150 23 is_stmt 0
 485 0278 93050505 		addi	a1,a0,80
 486 027c 13050900 		mv	a0,s2
 487              	.LVL31:
 488 0280 97000000 		call	_Z18removeFromSlabListP6slab_sPS0_
 488      E7800000 
 489              	.LVL32:
 151:src/slabAllocator.cpp ****     insertIntoSlabList(slab, &cachep->slabs_full);
 490              		.loc 1 151 5 is_stmt 1
 491              		.loc 1 151 23 is_stmt 0
 492 0288 93858404 		addi	a1,s1,72
 493 028c 13050900 		mv	a0,s2
 494 0290 97000000 		call	_Z18insertIntoSlabListP6slab_sPS0_
 494      E7800000 
 495              	.LVL33:
 152:src/slabAllocator.cpp **** }
 496              		.loc 1 152 1
 497 0298 83308101 		ld	ra,24(sp)
 498              		.cfi_restore 1
 499 029c 03340101 		ld	s0,16(sp)
 500              		.cfi_restore 8
 501              		.cfi_def_cfa 2, 32
 502 02a0 83348100 		ld	s1,8(sp)
 503              		.cfi_restore 9
 504              	.LVL34:
 505 02a4 03390100 		ld	s2,0(sp)
 506              		.cfi_restore 18
 507              	.LVL35:
 508 02a8 13010102 		addi	sp,sp,32
 509              		.cfi_def_cfa_offset 0
 510 02ac 67800000 		jr	ra
 511              		.cfi_endproc
 512              	.LFE12:
 514              		.align	2
 515              		.globl	_Z17putEmptyToPartialP12kmem_cache_s
 517              	_Z17putEmptyToPartialP12kmem_cache_s:
 518              	.LFB13:
 153:src/slabAllocator.cpp **** 
 154:src/slabAllocator.cpp **** void putEmptyToPartial(kmem_cache_t* cachep)
 155:src/slabAllocator.cpp **** {
 519              		.loc 1 155 1 is_stmt 1
 520              		.cfi_startproc
 521              	.LVL36:
 522 02b0 130101FE 		addi	sp,sp,-32
GAS LISTING /tmp/ccyhTnIv.s 			page 13


 523              		.cfi_def_cfa_offset 32
 524 02b4 233C1100 		sd	ra,24(sp)
 525 02b8 23388100 		sd	s0,16(sp)
 526 02bc 23349100 		sd	s1,8(sp)
 527 02c0 23302101 		sd	s2,0(sp)
 528              		.cfi_offset 1, -8
 529              		.cfi_offset 8, -16
 530              		.cfi_offset 9, -24
 531              		.cfi_offset 18, -32
 532 02c4 13040102 		addi	s0,sp,32
 533              		.cfi_def_cfa 8, 0
 534 02c8 93040500 		mv	s1,a0
 156:src/slabAllocator.cpp ****     slab_t* slab = cachep->slabs_empty;
 535              		.loc 1 156 5
 536              		.loc 1 156 13 is_stmt 0
 537 02cc 03390504 		ld	s2,64(a0)
 538              	.LVL37:
 157:src/slabAllocator.cpp ****     removeFromSlabList(slab, &cachep->slabs_empty);
 539              		.loc 1 157 5 is_stmt 1
 540              		.loc 1 157 23 is_stmt 0
 541 02d0 93050504 		addi	a1,a0,64
 542 02d4 13050900 		mv	a0,s2
 543              	.LVL38:
 544 02d8 97000000 		call	_Z18removeFromSlabListP6slab_sPS0_
 544      E7800000 
 545              	.LVL39:
 158:src/slabAllocator.cpp ****     insertIntoSlabList(slab, &cachep->slabs_partial);
 546              		.loc 1 158 5 is_stmt 1
 547              		.loc 1 158 23 is_stmt 0
 548 02e0 93850405 		addi	a1,s1,80
 549 02e4 13050900 		mv	a0,s2
 550 02e8 97000000 		call	_Z18insertIntoSlabListP6slab_sPS0_
 550      E7800000 
 551              	.LVL40:
 159:src/slabAllocator.cpp **** }
 552              		.loc 1 159 1
 553 02f0 83308101 		ld	ra,24(sp)
 554              		.cfi_restore 1
 555 02f4 03340101 		ld	s0,16(sp)
 556              		.cfi_restore 8
 557              		.cfi_def_cfa 2, 32
 558 02f8 83348100 		ld	s1,8(sp)
 559              		.cfi_restore 9
 560              	.LVL41:
 561 02fc 03390100 		ld	s2,0(sp)
 562              		.cfi_restore 18
 563              	.LVL42:
 564 0300 13010102 		addi	sp,sp,32
 565              		.cfi_def_cfa_offset 0
 566 0304 67800000 		jr	ra
 567              		.cfi_endproc
 568              	.LFE13:
 570              		.align	2
 571              		.globl	_Z14removeFullSlabP12kmem_cache_sP6slab_s
 573              	_Z14removeFullSlabP12kmem_cache_sP6slab_s:
 574              	.LFB14:
 160:src/slabAllocator.cpp **** 
GAS LISTING /tmp/ccyhTnIv.s 			page 14


 161:src/slabAllocator.cpp **** void removeFullSlab(kmem_cache_t* cachep, slab_t* slab)
 162:src/slabAllocator.cpp **** {
 575              		.loc 1 162 1 is_stmt 1
 576              		.cfi_startproc
 577              	.LVL43:
 578 0308 130101FE 		addi	sp,sp,-32
 579              		.cfi_def_cfa_offset 32
 580 030c 233C1100 		sd	ra,24(sp)
 581 0310 23388100 		sd	s0,16(sp)
 582 0314 23349100 		sd	s1,8(sp)
 583 0318 23302101 		sd	s2,0(sp)
 584              		.cfi_offset 1, -8
 585              		.cfi_offset 8, -16
 586              		.cfi_offset 9, -24
 587              		.cfi_offset 18, -32
 588 031c 13040102 		addi	s0,sp,32
 589              		.cfi_def_cfa 8, 0
 590 0320 13090500 		mv	s2,a0
 591 0324 93840500 		mv	s1,a1
 163:src/slabAllocator.cpp ****     removeFromSlabList(slab, &cachep->slabs_full);
 592              		.loc 1 163 5
 593              		.loc 1 163 23 is_stmt 0
 594 0328 93058504 		addi	a1,a0,72
 595              	.LVL44:
 596 032c 13850400 		mv	a0,s1
 597              	.LVL45:
 598 0330 97000000 		call	_Z18removeFromSlabListP6slab_sPS0_
 598      E7800000 
 599              	.LVL46:
 164:src/slabAllocator.cpp ****     insertIntoSlabList(slab, &cachep->slabs_partial);
 600              		.loc 1 164 5 is_stmt 1
 601              		.loc 1 164 23 is_stmt 0
 602 0338 93050905 		addi	a1,s2,80
 603 033c 13850400 		mv	a0,s1
 604 0340 97000000 		call	_Z18insertIntoSlabListP6slab_sPS0_
 604      E7800000 
 605              	.LVL47:
 165:src/slabAllocator.cpp **** }
 606              		.loc 1 165 1
 607 0348 83308101 		ld	ra,24(sp)
 608              		.cfi_restore 1
 609 034c 03340101 		ld	s0,16(sp)
 610              		.cfi_restore 8
 611              		.cfi_def_cfa 2, 32
 612 0350 83348100 		ld	s1,8(sp)
 613              		.cfi_restore 9
 614              	.LVL48:
 615 0354 03390100 		ld	s2,0(sp)
 616              		.cfi_restore 18
 617              	.LVL49:
 618 0358 13010102 		addi	sp,sp,32
 619              		.cfi_def_cfa_offset 0
 620 035c 67800000 		jr	ra
 621              		.cfi_endproc
 622              	.LFE14:
 624              		.align	2
 625              		.globl	_Z17removePartialSlabP12kmem_cache_sP6slab_s
GAS LISTING /tmp/ccyhTnIv.s 			page 15


 627              	_Z17removePartialSlabP12kmem_cache_sP6slab_s:
 628              	.LFB15:
 166:src/slabAllocator.cpp **** 
 167:src/slabAllocator.cpp **** void removePartialSlab(kmem_cache_t * cachep, slab_t* slab)
 168:src/slabAllocator.cpp **** {
 629              		.loc 1 168 1 is_stmt 1
 630              		.cfi_startproc
 631              	.LVL50:
 632 0360 130101FE 		addi	sp,sp,-32
 633              		.cfi_def_cfa_offset 32
 634 0364 233C1100 		sd	ra,24(sp)
 635 0368 23388100 		sd	s0,16(sp)
 636 036c 23349100 		sd	s1,8(sp)
 637 0370 23302101 		sd	s2,0(sp)
 638              		.cfi_offset 1, -8
 639              		.cfi_offset 8, -16
 640              		.cfi_offset 9, -24
 641              		.cfi_offset 18, -32
 642 0374 13040102 		addi	s0,sp,32
 643              		.cfi_def_cfa 8, 0
 644 0378 13090500 		mv	s2,a0
 645 037c 93840500 		mv	s1,a1
 169:src/slabAllocator.cpp ****     removeFromSlabList(slab, &cachep->slabs_partial);
 646              		.loc 1 169 5
 647              		.loc 1 169 23 is_stmt 0
 648 0380 93050505 		addi	a1,a0,80
 649              	.LVL51:
 650 0384 13850400 		mv	a0,s1
 651              	.LVL52:
 652 0388 97000000 		call	_Z18removeFromSlabListP6slab_sPS0_
 652      E7800000 
 653              	.LVL53:
 170:src/slabAllocator.cpp ****     insertIntoSlabList(slab, &cachep->slabs_empty);
 654              		.loc 1 170 5 is_stmt 1
 655              		.loc 1 170 23 is_stmt 0
 656 0390 93050904 		addi	a1,s2,64
 657 0394 13850400 		mv	a0,s1
 658 0398 97000000 		call	_Z18insertIntoSlabListP6slab_sPS0_
 658      E7800000 
 659              	.LVL54:
 171:src/slabAllocator.cpp **** }
 660              		.loc 1 171 1
 661 03a0 83308101 		ld	ra,24(sp)
 662              		.cfi_restore 1
 663 03a4 03340101 		ld	s0,16(sp)
 664              		.cfi_restore 8
 665              		.cfi_def_cfa 2, 32
 666 03a8 83348100 		ld	s1,8(sp)
 667              		.cfi_restore 9
 668              	.LVL55:
 669 03ac 03390100 		ld	s2,0(sp)
 670              		.cfi_restore 18
 671              	.LVL56:
 672 03b0 13010102 		addi	sp,sp,32
 673              		.cfi_def_cfa_offset 0
 674 03b4 67800000 		jr	ra
 675              		.cfi_endproc
GAS LISTING /tmp/ccyhTnIv.s 			page 16


 676              	.LFE15:
 678              		.align	2
 679              		.globl	_Z12allocateSlabP12kmem_cache_s
 681              	_Z12allocateSlabP12kmem_cache_s:
 682              	.LFB16:
 172:src/slabAllocator.cpp **** 
 173:src/slabAllocator.cpp **** void allocateSlab(kmem_cache_t* cachep)
 174:src/slabAllocator.cpp **** {
 683              		.loc 1 174 1 is_stmt 1
 684              		.cfi_startproc
 685              	.LVL57:
 686 03b8 130101FD 		addi	sp,sp,-48
 687              		.cfi_def_cfa_offset 48
 688 03bc 23341102 		sd	ra,40(sp)
 689 03c0 23308102 		sd	s0,32(sp)
 690 03c4 233C9100 		sd	s1,24(sp)
 691 03c8 23382101 		sd	s2,16(sp)
 692 03cc 23343101 		sd	s3,8(sp)
 693              		.cfi_offset 1, -8
 694              		.cfi_offset 8, -16
 695              		.cfi_offset 9, -24
 696              		.cfi_offset 18, -32
 697              		.cfi_offset 19, -40
 698 03d0 13040103 		addi	s0,sp,48
 699              		.cfi_def_cfa 8, 0
 700 03d4 93090500 		mv	s3,a0
 175:src/slabAllocator.cpp ****     slab_t* newSlab = (slab_t*)buddy_alloc(slabAllocator->buddy,cachep->slab_size);
 701              		.loc 1 175 5
 702              		.loc 1 175 43 is_stmt 0
 703 03d8 83358505 		ld	a1,88(a0)
 704 03dc 97070000 		ld	a5,.LANCHOR0
 704      83B70700 
 705 03e4 03B50700 		ld	a0,0(a5)
 706              	.LVL58:
 707 03e8 97000000 		call	_Z11buddy_allocP14buddyAllocatorm@plt
 707      E7800000 
 708              	.LVL59:
 176:src/slabAllocator.cpp ****     if(newSlab == nullptr)
 709              		.loc 1 176 5 is_stmt 1
 710 03f0 630C0508 		beqz	a0,.L40
 711 03f4 93040500 		mv	s1,a0
 177:src/slabAllocator.cpp ****         return;
 178:src/slabAllocator.cpp ****     newSlab->next = cachep->slabs_empty;
 712              		.loc 1 178 5
 713              		.loc 1 178 29 is_stmt 0
 714 03f8 83B70904 		ld	a5,64(s3)
 715              		.loc 1 178 19
 716 03fc 2334F500 		sd	a5,8(a0)
 179:src/slabAllocator.cpp ****     if(cachep->slabs_empty != nullptr)
 717              		.loc 1 179 5 is_stmt 1
 718 0400 63840700 		beqz	a5,.L42
 180:src/slabAllocator.cpp ****         cachep->slabs_empty->prev = newSlab;
 719              		.loc 1 180 9
 720              		.loc 1 180 35 is_stmt 0
 721 0404 23B0A700 		sd	a0,0(a5)
 722              	.LVL60:
 723              	.L42:
GAS LISTING /tmp/ccyhTnIv.s 			page 17


 181:src/slabAllocator.cpp ****     cachep->slabs_empty = newSlab;
 724              		.loc 1 181 5 is_stmt 1
 725              		.loc 1 181 25 is_stmt 0
 726 0408 23B09904 		sd	s1,64(s3)
 182:src/slabAllocator.cpp ****     newSlab->prev = nullptr;
 727              		.loc 1 182 5 is_stmt 1
 728              		.loc 1 182 19 is_stmt 0
 729 040c 23B00400 		sd	zero,0(s1)
 183:src/slabAllocator.cpp ****     newSlab->numOfAllocatedObjects = 0;
 730              		.loc 1 183 5 is_stmt 1
 731              		.loc 1 183 36 is_stmt 0
 732 0410 23B00402 		sd	zero,32(s1)
 184:src/slabAllocator.cpp ****     newSlab->owner = cachep;
 733              		.loc 1 184 5 is_stmt 1
 734              		.loc 1 184 20 is_stmt 0
 735 0414 23B83401 		sd	s3,16(s1)
 185:src/slabAllocator.cpp ****     size_t sizeInBytes = cachep->slab_size*BLOCK_SIZE;
 736              		.loc 1 185 5 is_stmt 1
 737              		.loc 1 185 34 is_stmt 0
 738 0418 83B68905 		ld	a3,88(s3)
 739              		.loc 1 185 12
 740 041c 9396C600 		slli	a3,a3,12
 741              	.LVL61:
 186:src/slabAllocator.cpp ****     newSlab->numOfObjects = (sizeInBytes - sizeof(slab_t)) / cachep->obj_size; // TODO can this par
 742              		.loc 1 186 5 is_stmt 1
 743              		.loc 1 186 42 is_stmt 0
 744 0420 938686FB 		addi	a3,a3,-72
 745              	.LVL62:
 746              		.loc 1 186 70
 747 0424 83B70906 		ld	a5,96(s3)
 748              		.loc 1 186 60
 749 0428 B3D6F602 		divu	a3,a3,a5
 750              	.LVL63:
 751              		.loc 1 186 27
 752 042c 23BCD400 		sd	a3,24(s1)
 753              	.LVL64:
 187:src/slabAllocator.cpp ****     for(size_t i = 0; i < (newSlab->numOfObjects + 7) / 8;i++)
 754              		.loc 1 187 5 is_stmt 1
 755              	.LBB6:
 756              		.loc 1 187 16 is_stmt 0
 757 0430 13070000 		li	a4,0
 758              	.LVL65:
 759              	.L44:
 760              		.loc 1 187 25 is_stmt 1 discriminator 3
 761              		.loc 1 187 50 is_stmt 0 discriminator 3
 762 0434 93877600 		addi	a5,a3,7
 763              		.loc 1 187 55 discriminator 3
 764 0438 93D73700 		srli	a5,a5,3
 765              		.loc 1 187 25 discriminator 3
 766 043c 637AF700 		bleu	a5,a4,.L43
 188:src/slabAllocator.cpp ****         newSlab->allocated[i] = 0;
 767              		.loc 1 188 9 is_stmt 1 discriminator 2
 768              		.loc 1 188 31 is_stmt 0 discriminator 2
 769 0440 B387E400 		add	a5,s1,a4
 770 0444 23840702 		sb	zero,40(a5)
 187:src/slabAllocator.cpp ****     for(size_t i = 0; i < (newSlab->numOfObjects + 7) / 8;i++)
 771              		.loc 1 187 5 is_stmt 1 discriminator 2
GAS LISTING /tmp/ccyhTnIv.s 			page 18


 772 0448 13071700 		addi	a4,a4,1
 773              	.LVL66:
 774 044c 6FF09FFE 		j	.L44
 775              	.L43:
 776              	.LBE6:
 189:src/slabAllocator.cpp **** 
 190:src/slabAllocator.cpp ****     //TODO
 191:src/slabAllocator.cpp ****     //test it
 192:src/slabAllocator.cpp ****     if(cachep->ctor != nullptr)
 777              		.loc 1 192 5
 778              	.LBB7:
 779              		.loc 1 192 16 is_stmt 0
 780 0450 83B78906 		ld	a5,104(s3)
 781              		.loc 1 192 5
 782 0454 638A0702 		beqz	a5,.L40
 783              	.LBB8:
 193:src/slabAllocator.cpp ****     {
 194:src/slabAllocator.cpp ****         for(size_t i = 0;i < newSlab->numOfObjects;i++)
 784              		.loc 1 194 20
 785 0458 13090000 		li	s2,0
 786              	.LVL67:
 787              	.L45:
 788              		.loc 1 194 28 is_stmt 1 discriminator 3
 789              		.loc 1 194 39 is_stmt 0 discriminator 3
 790 045c 83B78401 		ld	a5,24(s1)
 791              		.loc 1 194 28 discriminator 3
 792 0460 6374F902 		bleu	a5,s2,.L40
 195:src/slabAllocator.cpp ****             cachep->ctor((void*)((size_t)newSlab + sizeof(slab_t) + i*newSlab->owner->obj_size));
 793              		.loc 1 195 13 is_stmt 1 discriminator 2
 794              		.loc 1 195 21 is_stmt 0 discriminator 2
 795 0464 83B78906 		ld	a5,104(s3)
 796              		.loc 1 195 80 discriminator 2
 797 0468 03B70401 		ld	a4,16(s1)
 798              		.loc 1 195 87 discriminator 2
 799 046c 03350706 		ld	a0,96(a4)
 800              		.loc 1 195 70 discriminator 2
 801 0470 33052503 		mul	a0,a0,s2
 802              		.loc 1 195 67 discriminator 2
 803 0474 3385A400 		add	a0,s1,a0
 804              		.loc 1 195 25 discriminator 2
 805 0478 13058504 		addi	a0,a0,72
 806 047c E7800700 		jalr	a5
 807              	.LVL68:
 194:src/slabAllocator.cpp ****             cachep->ctor((void*)((size_t)newSlab + sizeof(slab_t) + i*newSlab->owner->obj_size));
 808              		.loc 1 194 9 is_stmt 1 discriminator 2
 809 0480 13091900 		addi	s2,s2,1
 810              	.LVL69:
 811 0484 6FF09FFD 		j	.L45
 812              	.LVL70:
 813              	.L40:
 814              	.LBE8:
 815              	.LBE7:
 196:src/slabAllocator.cpp ****     }
 197:src/slabAllocator.cpp **** 
 198:src/slabAllocator.cpp **** }
 816              		.loc 1 198 1 is_stmt 0
 817 0488 83308102 		ld	ra,40(sp)
GAS LISTING /tmp/ccyhTnIv.s 			page 19


 818              		.cfi_restore 1
 819 048c 03340102 		ld	s0,32(sp)
 820              		.cfi_restore 8
 821              		.cfi_def_cfa 2, 48
 822 0490 83348101 		ld	s1,24(sp)
 823              		.cfi_restore 9
 824 0494 03390101 		ld	s2,16(sp)
 825              		.cfi_restore 18
 826 0498 83398100 		ld	s3,8(sp)
 827              		.cfi_restore 19
 828              	.LVL71:
 829 049c 13010103 		addi	sp,sp,48
 830              		.cfi_def_cfa_offset 0
 831 04a0 67800000 		jr	ra
 832              		.cfi_endproc
 833              	.LFE16:
 835              		.align	2
 836              		.globl	_Z18getOptimalSlabSizem
 838              	_Z18getOptimalSlabSizem:
 839              	.LFB17:
 199:src/slabAllocator.cpp **** 
 200:src/slabAllocator.cpp **** size_t getOptimalSlabSize(size_t obj_size)
 201:src/slabAllocator.cpp **** {
 840              		.loc 1 201 1 is_stmt 1
 841              		.cfi_startproc
 842              	.LVL72:
 843 04a4 130101FF 		addi	sp,sp,-16
 844              		.cfi_def_cfa_offset 16
 845 04a8 23348100 		sd	s0,8(sp)
 846              		.cfi_offset 8, -8
 847 04ac 13040101 		addi	s0,sp,16
 848              		.cfi_def_cfa 8, 0
 202:src/slabAllocator.cpp ****     size_t bestSize = BLOCK_SIZE;
 849              		.loc 1 202 5
 850              	.LVL73:
 851              		.loc 1 202 12 is_stmt 0
 852 04b0 B7170000 		li	a5,4096
 853              	.LVL74:
 854              	.L49:
 203:src/slabAllocator.cpp ****     while(bestSize < obj_size + sizeof(slab_t))
 855              		.loc 1 203 5 is_stmt 1
 856              		.loc 1 203 20
 857              		.loc 1 203 31 is_stmt 0
 858 04b4 13078504 		addi	a4,a0,72
 859              		.loc 1 203 20
 860 04b8 63F6E700 		bleu	a4,a5,.L48
 204:src/slabAllocator.cpp ****         bestSize<<=1;
 861              		.loc 1 204 9 is_stmt 1
 862              		.loc 1 204 17 is_stmt 0
 863 04bc 93971700 		slli	a5,a5,1
 864              	.LVL75:
 203:src/slabAllocator.cpp ****     while(bestSize < obj_size + sizeof(slab_t))
 865              		.loc 1 203 5
 866 04c0 6FF05FFF 		j	.L49
 867              	.L48:
 205:src/slabAllocator.cpp ****     size_t optimalWaste = (bestSize - sizeof(slab_t)) % obj_size;
 868              		.loc 1 205 5 is_stmt 1
GAS LISTING /tmp/ccyhTnIv.s 			page 20


 869              		.loc 1 205 37 is_stmt 0
 870 04c4 938587FB 		addi	a1,a5,-72
 871              		.loc 1 205 12
 872 04c8 B3F5A502 		remu	a1,a1,a0
 873              	.LVL76:
 206:src/slabAllocator.cpp **** 
 207:src/slabAllocator.cpp ****     for(int i = 1;i<=4;i++) //TODO change constants
 874              		.loc 1 207 5 is_stmt 1
 875              	.LBB9:
 876              		.loc 1 207 13 is_stmt 0
 877 04cc 13071000 		li	a4,1
 878 04d0 6F008000 		j	.L52
 879              	.LVL77:
 880              	.L51:
 881              		.loc 1 207 5 is_stmt 1 discriminator 2
 882 04d4 1B071700 		addiw	a4,a4,1
 883              	.LVL78:
 884              	.L52:
 885              		.loc 1 207 20 discriminator 1
 886 04d8 93064000 		li	a3,4
 887 04dc 63C0E602 		bgt	a4,a3,.L50
 888              	.LBB10:
 208:src/slabAllocator.cpp ****     {
 209:src/slabAllocator.cpp ****         size_t newSize = bestSize << i;
 889              		.loc 1 209 9
 890              		.loc 1 209 16 is_stmt 0
 891 04e0 3396E700 		sll	a2,a5,a4
 892              	.LVL79:
 210:src/slabAllocator.cpp ****         size_t newWaste = (newSize - sizeof(slab_t)) % obj_size;
 893              		.loc 1 210 9 is_stmt 1
 894              		.loc 1 210 36 is_stmt 0
 895 04e4 930686FB 		addi	a3,a2,-72
 896              		.loc 1 210 16
 897 04e8 B3F6A602 		remu	a3,a3,a0
 898              	.LVL80:
 211:src/slabAllocator.cpp ****         if(newWaste < optimalWaste)
 899              		.loc 1 211 9 is_stmt 1
 900 04ec E3F4B6FE 		bleu	a1,a3,.L51
 212:src/slabAllocator.cpp ****         {
 213:src/slabAllocator.cpp ****             optimalWaste = newWaste;
 901              		.loc 1 213 26 is_stmt 0
 902 04f0 93850600 		mv	a1,a3
 903              	.LVL81:
 214:src/slabAllocator.cpp ****             bestSize = newSize;
 904              		.loc 1 214 22
 905 04f4 93070600 		mv	a5,a2
 906              	.LVL82:
 907 04f8 6FF0DFFD 		j	.L51
 908              	.LVL83:
 909              	.L50:
 910              	.LBE10:
 911              	.LBE9:
 215:src/slabAllocator.cpp ****         }
 216:src/slabAllocator.cpp ****     }
 217:src/slabAllocator.cpp **** 
 218:src/slabAllocator.cpp ****     return bestSize / BLOCK_SIZE;
 912              		.loc 1 218 5 is_stmt 1
GAS LISTING /tmp/ccyhTnIv.s 			page 21


 219:src/slabAllocator.cpp **** }
 913              		.loc 1 219 1 is_stmt 0
 914 04fc 13D5C700 		srli	a0,a5,12
 915              	.LVL84:
 916 0500 03348100 		ld	s0,8(sp)
 917              		.cfi_restore 8
 918              		.cfi_def_cfa 2, 16
 919 0504 13010101 		addi	sp,sp,16
 920              		.cfi_def_cfa_offset 0
 921 0508 67800000 		jr	ra
 922              		.cfi_endproc
 923              	.LFE17:
 925              		.align	2
 926              		.globl	_Z8findSlabP12kmem_cache_sPKv
 928              	_Z8findSlabP12kmem_cache_sPKv:
 929              	.LFB18:
 220:src/slabAllocator.cpp **** 
 221:src/slabAllocator.cpp **** //finds the slab where objp is
 222:src/slabAllocator.cpp **** slab_t* findSlab(kmem_cache_t* cachep, const void* objp)
 223:src/slabAllocator.cpp **** {
 930              		.loc 1 223 1 is_stmt 1
 931              		.cfi_startproc
 932              	.LVL85:
 933 050c 130101FF 		addi	sp,sp,-16
 934              		.cfi_def_cfa_offset 16
 935 0510 23348100 		sd	s0,8(sp)
 936              		.cfi_offset 8, -8
 937 0514 13040101 		addi	s0,sp,16
 938              		.cfi_def_cfa 8, 0
 939 0518 93060500 		mv	a3,a0
 224:src/slabAllocator.cpp ****     if(cachep == nullptr || objp == nullptr)
 940              		.loc 1 224 5
 941 051c 630C0502 		beqz	a0,.L55
 942              		.loc 1 224 26 is_stmt 0 discriminator 1
 943 0520 638A0506 		beqz	a1,.L63
 225:src/slabAllocator.cpp ****         return nullptr;
 226:src/slabAllocator.cpp ****     slab_t* slab = cachep->slabs_full;
 944              		.loc 1 226 5 is_stmt 1
 945              		.loc 1 226 13 is_stmt 0
 946 0524 03358504 		ld	a0,72(a0)
 947              	.LVL86:
 948 0528 6F008000 		j	.L59
 949              	.LVL87:
 950              	.L58:
 951              	.LBB11:
 227:src/slabAllocator.cpp ****     while(slab != nullptr)
 228:src/slabAllocator.cpp ****     {
 229:src/slabAllocator.cpp ****         size_t endAddr = (size_t)slab + sizeof(slab_t) + slab->numOfObjects*slab->owner->obj_size;
 230:src/slabAllocator.cpp ****         if((size_t)objp > (size_t)slab && (size_t)objp < endAddr)
 231:src/slabAllocator.cpp ****             return slab;
 232:src/slabAllocator.cpp ****         slab = slab->next;
 952              		.loc 1 232 9 is_stmt 1
 953              		.loc 1 232 14 is_stmt 0
 954 052c 03358500 		ld	a0,8(a0)
 955              	.LVL88:
 956              	.L59:
 957              	.LBE11:
GAS LISTING /tmp/ccyhTnIv.s 			page 22


 227:src/slabAllocator.cpp ****     while(slab != nullptr)
 958              		.loc 1 227 5 is_stmt 1
 227:src/slabAllocator.cpp ****     while(slab != nullptr)
 959              		.loc 1 227 16
 960 0530 63080502 		beqz	a0,.L57
 961              	.LBB12:
 229:src/slabAllocator.cpp ****         if((size_t)objp > (size_t)slab && (size_t)objp < endAddr)
 962              		.loc 1 229 9
 229:src/slabAllocator.cpp ****         if((size_t)objp > (size_t)slab && (size_t)objp < endAddr)
 963              		.loc 1 229 64 is_stmt 0
 964 0534 83378501 		ld	a5,24(a0)
 229:src/slabAllocator.cpp ****         if((size_t)objp > (size_t)slab && (size_t)objp < endAddr)
 965              		.loc 1 229 83
 966 0538 03370501 		ld	a4,16(a0)
 229:src/slabAllocator.cpp ****         if((size_t)objp > (size_t)slab && (size_t)objp < endAddr)
 967              		.loc 1 229 90
 968 053c 03370706 		ld	a4,96(a4)
 229:src/slabAllocator.cpp ****         if((size_t)objp > (size_t)slab && (size_t)objp < endAddr)
 969              		.loc 1 229 76
 970 0540 B387E702 		mul	a5,a5,a4
 229:src/slabAllocator.cpp ****         if((size_t)objp > (size_t)slab && (size_t)objp < endAddr)
 971              		.loc 1 229 56
 972 0544 B387A700 		add	a5,a5,a0
 229:src/slabAllocator.cpp ****         if((size_t)objp > (size_t)slab && (size_t)objp < endAddr)
 973              		.loc 1 229 16
 974 0548 93878704 		addi	a5,a5,72
 975              	.LVL89:
 230:src/slabAllocator.cpp ****             return slab;
 976              		.loc 1 230 9 is_stmt 1
 977 054c E370B5FE 		bgeu	a0,a1,.L58
 230:src/slabAllocator.cpp ****             return slab;
 978              		.loc 1 230 40 is_stmt 0 discriminator 1
 979 0550 E3FEF5FC 		bgeu	a1,a5,.L58
 980              	.LVL90:
 981              	.L55:
 982              	.LBE12:
 233:src/slabAllocator.cpp ****     }
 234:src/slabAllocator.cpp **** 
 235:src/slabAllocator.cpp ****     slab = cachep->slabs_partial;
 236:src/slabAllocator.cpp ****     while(slab != nullptr)
 237:src/slabAllocator.cpp ****     {
 238:src/slabAllocator.cpp ****         size_t endAddr = (size_t)slab + sizeof(slab_t) + slab->numOfObjects*slab->owner->obj_size;
 239:src/slabAllocator.cpp ****         if((size_t)objp > (size_t)slab && (size_t)objp < endAddr)
 240:src/slabAllocator.cpp ****             return slab;
 241:src/slabAllocator.cpp ****         slab = slab->next;
 242:src/slabAllocator.cpp ****     }
 243:src/slabAllocator.cpp **** 
 244:src/slabAllocator.cpp ****     return nullptr;
 245:src/slabAllocator.cpp **** }
 983              		.loc 1 245 1
 984 0554 03348100 		ld	s0,8(sp)
 985              		.cfi_remember_state
 986              		.cfi_restore 8
 987              		.cfi_def_cfa 2, 16
 988 0558 13010101 		addi	sp,sp,16
 989              		.cfi_def_cfa_offset 0
 990 055c 67800000 		jr	ra
GAS LISTING /tmp/ccyhTnIv.s 			page 23


 991              	.LVL91:
 992              	.L57:
 993              		.cfi_restore_state
 235:src/slabAllocator.cpp ****     while(slab != nullptr)
 994              		.loc 1 235 5 is_stmt 1
 235:src/slabAllocator.cpp ****     while(slab != nullptr)
 995              		.loc 1 235 10 is_stmt 0
 996 0560 03B50605 		ld	a0,80(a3)
 997              	.LVL92:
 998 0564 6F008000 		j	.L61
 999              	.LVL93:
 1000              	.L60:
 1001              	.LBB13:
 241:src/slabAllocator.cpp ****     }
 1002              		.loc 1 241 9 is_stmt 1
 241:src/slabAllocator.cpp ****     }
 1003              		.loc 1 241 14 is_stmt 0
 1004 0568 03358500 		ld	a0,8(a0)
 1005              	.LVL94:
 1006              	.L61:
 1007              	.LBE13:
 236:src/slabAllocator.cpp ****     {
 1008              		.loc 1 236 5 is_stmt 1
 236:src/slabAllocator.cpp ****     {
 1009              		.loc 1 236 16
 1010 056c E30405FE 		beqz	a0,.L55
 1011              	.LBB14:
 238:src/slabAllocator.cpp ****         if((size_t)objp > (size_t)slab && (size_t)objp < endAddr)
 1012              		.loc 1 238 9
 238:src/slabAllocator.cpp ****         if((size_t)objp > (size_t)slab && (size_t)objp < endAddr)
 1013              		.loc 1 238 64 is_stmt 0
 1014 0570 83378501 		ld	a5,24(a0)
 238:src/slabAllocator.cpp ****         if((size_t)objp > (size_t)slab && (size_t)objp < endAddr)
 1015              		.loc 1 238 83
 1016 0574 03370501 		ld	a4,16(a0)
 238:src/slabAllocator.cpp ****         if((size_t)objp > (size_t)slab && (size_t)objp < endAddr)
 1017              		.loc 1 238 90
 1018 0578 03370706 		ld	a4,96(a4)
 238:src/slabAllocator.cpp ****         if((size_t)objp > (size_t)slab && (size_t)objp < endAddr)
 1019              		.loc 1 238 76
 1020 057c B387E702 		mul	a5,a5,a4
 238:src/slabAllocator.cpp ****         if((size_t)objp > (size_t)slab && (size_t)objp < endAddr)
 1021              		.loc 1 238 56
 1022 0580 B387A700 		add	a5,a5,a0
 238:src/slabAllocator.cpp ****         if((size_t)objp > (size_t)slab && (size_t)objp < endAddr)
 1023              		.loc 1 238 16
 1024 0584 93878704 		addi	a5,a5,72
 1025              	.LVL95:
 239:src/slabAllocator.cpp ****             return slab;
 1026              		.loc 1 239 9 is_stmt 1
 1027 0588 E370B5FE 		bgeu	a0,a1,.L60
 239:src/slabAllocator.cpp ****             return slab;
 1028              		.loc 1 239 40 is_stmt 0 discriminator 1
 1029 058c E3FEF5FC 		bgeu	a1,a5,.L60
 1030 0590 6FF05FFC 		j	.L55
 1031              	.LVL96:
 1032              	.L63:
GAS LISTING /tmp/ccyhTnIv.s 			page 24


 1033              	.LBE14:
 225:src/slabAllocator.cpp ****     slab_t* slab = cachep->slabs_full;
 1034              		.loc 1 225 16
 1035 0594 13850500 		mv	a0,a1
 1036              	.LVL97:
 1037 0598 6FF0DFFB 		j	.L55
 1038              		.cfi_endproc
 1039              	.LFE18:
 1041              		.align	2
 1042              		.globl	_Z19resetAllocatedIndexP6slab_si
 1044              	_Z19resetAllocatedIndexP6slab_si:
 1045              	.LFB19:
 246:src/slabAllocator.cpp **** 
 247:src/slabAllocator.cpp **** void resetAllocatedIndex(slab_t* slab, int index)
 248:src/slabAllocator.cpp **** {
 1046              		.loc 1 248 1 is_stmt 1
 1047              		.cfi_startproc
 1048              	.LVL98:
 1049 059c 130101FF 		addi	sp,sp,-16
 1050              		.cfi_def_cfa_offset 16
 1051 05a0 23348100 		sd	s0,8(sp)
 1052              		.cfi_offset 8, -8
 1053 05a4 13040101 		addi	s0,sp,16
 1054              		.cfi_def_cfa 8, 0
 249:src/slabAllocator.cpp ****     slab->allocated[index / 8]=(uint8)slab->allocated[index/8] & ~(1 << (index%8));
 1055              		.loc 1 249 5
 1056              		.loc 1 249 60 is_stmt 0
 1057 05a8 9BD7F541 		sraiw	a5,a1,31
 1058 05ac 9BD7D701 		srliw	a5,a5,29
 1059 05b0 BB85B700 		addw	a1,a5,a1
 1060              	.LVL99:
 1061 05b4 1BD73540 		sraiw	a4,a1,3
 1062              		.loc 1 249 62
 1063 05b8 3305E500 		add	a0,a0,a4
 1064              	.LVL100:
 1065              		.loc 1 249 32
 1066 05bc 03078502 		lb	a4,40(a0)
 1067              		.loc 1 249 79
 1068 05c0 93F57500 		andi	a1,a1,7
 1069 05c4 BB85F540 		subw	a1,a1,a5
 1070              		.loc 1 249 70
 1071 05c8 93071000 		li	a5,1
 1072 05cc BB95B700 		sllw	a1,a5,a1
 1073              		.loc 1 249 64
 1074 05d0 93C5F5FF 		not	a1,a1
 1075 05d4 B375B700 		and	a1,a4,a1
 1076              		.loc 1 249 31
 1077 05d8 2304B502 		sb	a1,40(a0)
 250:src/slabAllocator.cpp **** }
 1078              		.loc 1 250 1
 1079 05dc 03348100 		ld	s0,8(sp)
 1080              		.cfi_restore 8
 1081              		.cfi_def_cfa 2, 16
 1082 05e0 13010101 		addi	sp,sp,16
 1083              		.cfi_def_cfa_offset 0
 1084 05e4 67800000 		jr	ra
 1085              		.cfi_endproc
GAS LISTING /tmp/ccyhTnIv.s 			page 25


 1086              	.LFE19:
 1088              		.section	.rodata.str1.8
 1089              		.align	3
 1090              	.LC1:
 1091 0010 4F6E6520 		.string	"One slab info---------\n"
 1091      736C6162 
 1091      20696E66 
 1091      6F2D2D2D 
 1091      2D2D2D2D 
 1092              		.align	3
 1093              	.LC2:
 1094 0028 536C6162 		.string	"Slab address "
 1094      20616464 
 1094      72657373 
 1094      2000
 1095 0036 0000     		.align	3
 1096              	.LC3:
 1097 0038 4E756D62 		.string	"Number of allocated objects "
 1097      6572206F 
 1097      6620616C 
 1097      6C6F6361 
 1097      74656420 
 1098 0055 000000   		.align	3
 1099              	.LC4:
 1100 0058 4E756D62 		.string	"Number of objects "
 1100      6572206F 
 1100      66206F62 
 1100      6A656374 
 1100      732000
 1101 006b 00000000 		.align	3
 1101      00
 1102              	.LC5:
 1103 0070 0A00     		.string	"\n"
 1104              		.text
 1105              		.align	2
 1106              		.globl	_Z13printSlabInfoP6slab_s
 1108              	_Z13printSlabInfoP6slab_s:
 1109              	.LFB20:
 251:src/slabAllocator.cpp **** 
 252:src/slabAllocator.cpp **** void printSlabInfo(slab_t* slab)
 253:src/slabAllocator.cpp **** {
 1110              		.loc 1 253 1 is_stmt 1
 1111              		.cfi_startproc
 1112              	.LVL101:
 1113 05e8 130101FE 		addi	sp,sp,-32
 1114              		.cfi_def_cfa_offset 32
 1115 05ec 233C1100 		sd	ra,24(sp)
 1116 05f0 23388100 		sd	s0,16(sp)
 1117 05f4 23349100 		sd	s1,8(sp)
 1118 05f8 23302101 		sd	s2,0(sp)
 1119              		.cfi_offset 1, -8
 1120              		.cfi_offset 8, -16
 1121              		.cfi_offset 9, -24
 1122              		.cfi_offset 18, -32
 1123 05fc 13040102 		addi	s0,sp,32
 1124              		.cfi_def_cfa 8, 0
 1125 0600 13090500 		mv	s2,a0
GAS LISTING /tmp/ccyhTnIv.s 			page 26


 254:src/slabAllocator.cpp ****     KConsole::trapPrintString("One slab info---------\n");
 1126              		.loc 1 254 5
 1127              		.loc 1 254 30 is_stmt 0
 1128 0604 17050000 		lla	a0,.LC1
 1128      13050500 
 1129              	.LVL102:
 1130 060c 97000000 		call	_ZN8KConsole15trapPrintStringEPKc@plt
 1130      E7800000 
 1131              	.LVL103:
 255:src/slabAllocator.cpp ****     KConsole::trapPrintStringInt("Slab address ",(size_t)slab,16);
 1132              		.loc 1 255 5 is_stmt 1
 1133              		.loc 1 255 33 is_stmt 0
 1134 0614 13060001 		li	a2,16
 1135 0618 93050900 		mv	a1,s2
 1136 061c 17050000 		lla	a0,.LC2
 1136      13050500 
 1137 0624 97000000 		call	_ZN8KConsole18trapPrintStringIntEPKcmi@plt
 1137      E7800000 
 1138              	.LVL104:
 256:src/slabAllocator.cpp ****     KConsole::trapPrintStringInt("Number of allocated objects ",slab->numOfAllocatedObjects);
 1139              		.loc 1 256 5 is_stmt 1
 1140              		.loc 1 256 33 is_stmt 0
 1141 062c 1306A000 		li	a2,10
 1142 0630 83350902 		ld	a1,32(s2)
 1143 0634 17050000 		lla	a0,.LC3
 1143      13050500 
 1144 063c 97000000 		call	_ZN8KConsole18trapPrintStringIntEPKcmi@plt
 1144      E7800000 
 1145              	.LVL105:
 257:src/slabAllocator.cpp ****     KConsole::trapPrintStringInt("Number of objects ", slab->numOfObjects);
 1146              		.loc 1 257 5 is_stmt 1
 1147              		.loc 1 257 33 is_stmt 0
 1148 0644 1306A000 		li	a2,10
 1149 0648 83358901 		ld	a1,24(s2)
 1150 064c 17050000 		lla	a0,.LC4
 1150      13050500 
 1151 0654 97000000 		call	_ZN8KConsole18trapPrintStringIntEPKcmi@plt
 1151      E7800000 
 1152              	.LVL106:
 258:src/slabAllocator.cpp ****     for(size_t i = 0;i < (slab->numOfObjects + 7) / 8;i++)
 1153              		.loc 1 258 5 is_stmt 1
 1154              	.LBB15:
 1155              		.loc 1 258 16 is_stmt 0
 1156 065c 93040000 		li	s1,0
 1157              	.LVL107:
 1158              	.L69:
 1159              		.loc 1 258 24 is_stmt 1 discriminator 3
 1160              		.loc 1 258 33 is_stmt 0 discriminator 3
 1161 0660 83378901 		ld	a5,24(s2)
 1162              		.loc 1 258 46 discriminator 3
 1163 0664 93877700 		addi	a5,a5,7
 1164              		.loc 1 258 51 discriminator 3
 1165 0668 93D73700 		srli	a5,a5,3
 1166              		.loc 1 258 24 discriminator 3
 1167 066c 63FAF402 		bleu	a5,s1,.L67
 259:src/slabAllocator.cpp ****     {
 260:src/slabAllocator.cpp ****         KConsole::trapPrintInt((size_t)slab->allocated[i], 16);
GAS LISTING /tmp/ccyhTnIv.s 			page 27


 1168              		.loc 1 260 9 is_stmt 1 discriminator 2
 1169              		.loc 1 260 57 is_stmt 0 discriminator 2
 1170 0670 B3079900 		add	a5,s2,s1
 1171              		.loc 1 260 31 discriminator 2
 1172 0674 13060000 		li	a2,0
 1173 0678 93050001 		li	a1,16
 1174 067c 03C58702 		lbu	a0,40(a5)
 1175 0680 97000000 		call	_ZN8KConsole12trapPrintIntEmii@plt
 1175      E7800000 
 1176              	.LVL108:
 261:src/slabAllocator.cpp ****         KConsole::trapPrintString("\n");
 1177              		.loc 1 261 9 is_stmt 1 discriminator 2
 1178              		.loc 1 261 34 is_stmt 0 discriminator 2
 1179 0688 17050000 		lla	a0,.LC5
 1179      13050500 
 1180 0690 97000000 		call	_ZN8KConsole15trapPrintStringEPKc@plt
 1180      E7800000 
 1181              	.LVL109:
 258:src/slabAllocator.cpp ****     for(size_t i = 0;i < (slab->numOfObjects + 7) / 8;i++)
 1182              		.loc 1 258 5 is_stmt 1 discriminator 2
 1183 0698 93841400 		addi	s1,s1,1
 1184              	.LVL110:
 1185 069c 6FF05FFC 		j	.L69
 1186              	.L67:
 1187              	.LBE15:
 262:src/slabAllocator.cpp ****     }
 263:src/slabAllocator.cpp **** }
 1188              		.loc 1 263 1 is_stmt 0
 1189 06a0 83308101 		ld	ra,24(sp)
 1190              		.cfi_restore 1
 1191 06a4 03340101 		ld	s0,16(sp)
 1192              		.cfi_restore 8
 1193              		.cfi_def_cfa 2, 32
 1194 06a8 83348100 		ld	s1,8(sp)
 1195              		.cfi_restore 9
 1196              	.LVL111:
 1197 06ac 03390100 		ld	s2,0(sp)
 1198              		.cfi_restore 18
 1199              	.LVL112:
 1200 06b0 13010102 		addi	sp,sp,32
 1201              		.cfi_def_cfa_offset 0
 1202 06b4 67800000 		jr	ra
 1203              		.cfi_endproc
 1204              	.LFE20:
 1206              		.align	2
 1207              		.globl	_Z16free_slab_objectP6slab_sPKv
 1209              	_Z16free_slab_objectP6slab_sPKv:
 1210              	.LFB21:
 264:src/slabAllocator.cpp **** 
 265:src/slabAllocator.cpp **** void free_slab_object(slab_t* slab, const void* objp)
 266:src/slabAllocator.cpp **** {
 1211              		.loc 1 266 1 is_stmt 1
 1212              		.cfi_startproc
 1213              	.LVL113:
 267:src/slabAllocator.cpp ****     if(slab == nullptr || objp == nullptr)
 1214              		.loc 1 267 5
 1215 06b8 6304050E 		beqz	a0,.L76
GAS LISTING /tmp/ccyhTnIv.s 			page 28


 266:src/slabAllocator.cpp ****     if(slab == nullptr || objp == nullptr)
 1216              		.loc 1 266 1 is_stmt 0 discriminator 1
 1217 06bc 130101FE 		addi	sp,sp,-32
 1218              		.cfi_def_cfa_offset 32
 1219 06c0 233C1100 		sd	ra,24(sp)
 1220 06c4 23388100 		sd	s0,16(sp)
 1221 06c8 23349100 		sd	s1,8(sp)
 1222              		.cfi_offset 1, -8
 1223              		.cfi_offset 8, -16
 1224              		.cfi_offset 9, -24
 1225 06cc 13040102 		addi	s0,sp,32
 1226              		.cfi_def_cfa 8, 0
 1227 06d0 93040500 		mv	s1,a0
 1228 06d4 93860500 		mv	a3,a1
 1229              		.loc 1 267 24 discriminator 1
 1230 06d8 63860502 		beqz	a1,.L71
 268:src/slabAllocator.cpp ****         return;
 269:src/slabAllocator.cpp ****     int indexOfObject = ((size_t)objp - sizeof(slab_t) - (size_t)slab) / slab->owner->obj_size;
 1231              		.loc 1 269 5 is_stmt 1
 1232              		.loc 1 269 56 is_stmt 0
 1233 06dc 3387A540 		sub	a4,a1,a0
 1234 06e0 130787FB 		addi	a4,a4,-72
 1235              		.loc 1 269 80
 1236 06e4 83370501 		ld	a5,16(a0)
 1237              		.loc 1 269 87
 1238 06e8 83B70706 		ld	a5,96(a5)
 1239              		.loc 1 269 72
 1240 06ec 3357F702 		divu	a4,a4,a5
 1241              		.loc 1 269 9
 1242 06f0 9B050700 		sext.w	a1,a4
 1243              	.LVL114:
 270:src/slabAllocator.cpp ****     if((size_t)objp != (size_t)slab + sizeof(slab_t) + indexOfObject*slab->owner->obj_size) //addre
 1244              		.loc 1 270 5 is_stmt 1
 1245              		.loc 1 270 69 is_stmt 0
 1246 06f4 B387B702 		mul	a5,a5,a1
 1247              		.loc 1 270 54
 1248 06f8 B307F500 		add	a5,a0,a5
 1249 06fc 93878704 		addi	a5,a5,72
 1250              		.loc 1 270 5
 1251 0700 638CF600 		beq	a3,a5,.L79
 1252              	.LVL115:
 1253              	.L71:
 271:src/slabAllocator.cpp ****         return;
 272:src/slabAllocator.cpp **** 
 273:src/slabAllocator.cpp ****     //TODO
 274:src/slabAllocator.cpp ****     //test if the index was even marked as taken
 275:src/slabAllocator.cpp ****     resetAllocatedIndex(slab, indexOfObject);
 276:src/slabAllocator.cpp ****     if(slab->numOfObjects == slab->numOfAllocatedObjects)
 277:src/slabAllocator.cpp ****     {
 278:src/slabAllocator.cpp ****         removeFullSlab(slab->owner, slab);
 279:src/slabAllocator.cpp ****         slab->numOfAllocatedObjects--;
 280:src/slabAllocator.cpp ****         if(empty(slab))
 281:src/slabAllocator.cpp ****             removePartialSlab(slab->owner, slab);
 282:src/slabAllocator.cpp ****     }
 283:src/slabAllocator.cpp ****     else if(slab->numOfAllocatedObjects == 1)
 284:src/slabAllocator.cpp ****     {
 285:src/slabAllocator.cpp ****         removePartialSlab(slab->owner, slab);
GAS LISTING /tmp/ccyhTnIv.s 			page 29


 286:src/slabAllocator.cpp ****         slab->numOfAllocatedObjects--;
 287:src/slabAllocator.cpp ****     }
 288:src/slabAllocator.cpp ****     else
 289:src/slabAllocator.cpp ****         slab->numOfAllocatedObjects--;
 290:src/slabAllocator.cpp **** }
 1254              		.loc 1 290 1
 1255 0704 83308101 		ld	ra,24(sp)
 1256              		.cfi_remember_state
 1257              		.cfi_restore 1
 1258 0708 03340101 		ld	s0,16(sp)
 1259              		.cfi_restore 8
 1260              		.cfi_def_cfa 2, 32
 1261 070c 83348100 		ld	s1,8(sp)
 1262              		.cfi_restore 9
 1263              	.LVL116:
 1264 0710 13010102 		addi	sp,sp,32
 1265              		.cfi_def_cfa_offset 0
 1266 0714 67800000 		jr	ra
 1267              	.LVL117:
 1268              	.L79:
 1269              		.cfi_restore_state
 275:src/slabAllocator.cpp ****     if(slab->numOfObjects == slab->numOfAllocatedObjects)
 1270              		.loc 1 275 5 is_stmt 1
 275:src/slabAllocator.cpp ****     if(slab->numOfObjects == slab->numOfAllocatedObjects)
 1271              		.loc 1 275 24 is_stmt 0
 1272 0718 97000000 		call	_Z19resetAllocatedIndexP6slab_si
 1272      E7800000 
 1273              	.LVL118:
 276:src/slabAllocator.cpp ****     {
 1274              		.loc 1 276 5 is_stmt 1
 276:src/slabAllocator.cpp ****     {
 1275              		.loc 1 276 14 is_stmt 0
 1276 0720 03B78401 		ld	a4,24(s1)
 276:src/slabAllocator.cpp ****     {
 1277              		.loc 1 276 36
 1278 0724 83B70402 		ld	a5,32(s1)
 276:src/slabAllocator.cpp ****     {
 1279              		.loc 1 276 5
 1280 0728 630CF700 		beq	a4,a5,.L80
 283:src/slabAllocator.cpp ****     {
 1281              		.loc 1 283 10 is_stmt 1
 1282 072c 13071000 		li	a4,1
 1283 0730 6388E704 		beq	a5,a4,.L81
 289:src/slabAllocator.cpp **** }
 1284              		.loc 1 289 9
 289:src/slabAllocator.cpp **** }
 1285              		.loc 1 289 36 is_stmt 0
 1286 0734 9387F7FF 		addi	a5,a5,-1
 1287 0738 23B0F402 		sd	a5,32(s1)
 1288 073c 6FF09FFC 		j	.L71
 1289              	.L80:
 278:src/slabAllocator.cpp ****         slab->numOfAllocatedObjects--;
 1290              		.loc 1 278 9 is_stmt 1
 278:src/slabAllocator.cpp ****         slab->numOfAllocatedObjects--;
 1291              		.loc 1 278 23 is_stmt 0
 1292 0740 93850400 		mv	a1,s1
 1293 0744 03B50401 		ld	a0,16(s1)
GAS LISTING /tmp/ccyhTnIv.s 			page 30


 1294 0748 97000000 		call	_Z14removeFullSlabP12kmem_cache_sP6slab_s
 1294      E7800000 
 1295              	.LVL119:
 279:src/slabAllocator.cpp ****         if(empty(slab))
 1296              		.loc 1 279 9 is_stmt 1
 279:src/slabAllocator.cpp ****         if(empty(slab))
 1297              		.loc 1 279 15 is_stmt 0
 1298 0750 83B70402 		ld	a5,32(s1)
 279:src/slabAllocator.cpp ****         if(empty(slab))
 1299              		.loc 1 279 36
 1300 0754 9387F7FF 		addi	a5,a5,-1
 1301 0758 23B0F402 		sd	a5,32(s1)
 280:src/slabAllocator.cpp ****             removePartialSlab(slab->owner, slab);
 1302              		.loc 1 280 9 is_stmt 1
 280:src/slabAllocator.cpp ****             removePartialSlab(slab->owner, slab);
 1303              		.loc 1 280 17 is_stmt 0
 1304 075c 13850400 		mv	a0,s1
 1305 0760 97000000 		call	_Z5emptyP6slab_s
 1305      E7800000 
 1306              	.LVL120:
 280:src/slabAllocator.cpp ****             removePartialSlab(slab->owner, slab);
 1307              		.loc 1 280 9
 1308 0768 E30E05F8 		beqz	a0,.L71
 281:src/slabAllocator.cpp ****     }
 1309              		.loc 1 281 13 is_stmt 1
 281:src/slabAllocator.cpp ****     }
 1310              		.loc 1 281 30 is_stmt 0
 1311 076c 93850400 		mv	a1,s1
 1312 0770 03B50401 		ld	a0,16(s1)
 1313 0774 97000000 		call	_Z17removePartialSlabP12kmem_cache_sP6slab_s
 1313      E7800000 
 1314              	.LVL121:
 1315 077c 6FF09FF8 		j	.L71
 1316              	.L81:
 285:src/slabAllocator.cpp ****         slab->numOfAllocatedObjects--;
 1317              		.loc 1 285 9 is_stmt 1
 285:src/slabAllocator.cpp ****         slab->numOfAllocatedObjects--;
 1318              		.loc 1 285 26 is_stmt 0
 1319 0780 93850400 		mv	a1,s1
 1320 0784 03B50401 		ld	a0,16(s1)
 1321 0788 97000000 		call	_Z17removePartialSlabP12kmem_cache_sP6slab_s
 1321      E7800000 
 1322              	.LVL122:
 286:src/slabAllocator.cpp ****     }
 1323              		.loc 1 286 9 is_stmt 1
 286:src/slabAllocator.cpp ****     }
 1324              		.loc 1 286 15 is_stmt 0
 1325 0790 83B70402 		ld	a5,32(s1)
 286:src/slabAllocator.cpp ****     }
 1326              		.loc 1 286 36
 1327 0794 9387F7FF 		addi	a5,a5,-1
 1328 0798 23B0F402 		sd	a5,32(s1)
 1329 079c 6FF09FF6 		j	.L71
 1330              	.LVL123:
 1331              	.L76:
 1332              		.cfi_def_cfa_register 2
 1333              		.cfi_restore 1
GAS LISTING /tmp/ccyhTnIv.s 			page 31


 1334              		.cfi_restore 8
 1335              		.cfi_restore 9
 1336 07a0 67800000 		ret
 1337              		.cfi_endproc
 1338              	.LFE21:
 1340              		.align	2
 1341              		.globl	_Z9kmem_initPvi
 1343              	_Z9kmem_initPvi:
 1344              	.LFB23:
 291:src/slabAllocator.cpp **** 
 292:src/slabAllocator.cpp **** void printSlabAllocatorInfo()
 293:src/slabAllocator.cpp **** {
 294:src/slabAllocator.cpp ****     KConsole::trapPrintString("Slab allocator info-------------------------------------------------
 295:src/slabAllocator.cpp ****     KConsole::trapPrintStringInt("Slab allocator buddy address ", (size_t)slabAllocator->buddy,16);
 296:src/slabAllocator.cpp ****     KConsole::trapPrintStringInt("Slab allocator address ", (size_t)slabAllocator, 16);
 297:src/slabAllocator.cpp ****     KConsole::trapPrintString("Cache of caches info\n");
 298:src/slabAllocator.cpp ****     kmem_cache_info(&slabAllocator->cacheOfCaches);
 299:src/slabAllocator.cpp ****     KConsole::trapPrintString("Caches for buffers\n");
 300:src/slabAllocator.cpp ****     for(size_t i = 0;i < CACHE_BUFFER_SIZE;i++)
 301:src/slabAllocator.cpp ****     {
 302:src/slabAllocator.cpp ****         if(slabAllocator->cachesBuffers[i] != nullptr)
 303:src/slabAllocator.cpp ****         {
 304:src/slabAllocator.cpp ****             kmem_cache_info(slabAllocator->cachesBuffers[i]);
 305:src/slabAllocator.cpp ****         }
 306:src/slabAllocator.cpp ****     }
 307:src/slabAllocator.cpp **** }
 308:src/slabAllocator.cpp **** 
 309:src/slabAllocator.cpp **** //slab allocator public interface------------------------------------------------------------------
 310:src/slabAllocator.cpp **** void kmem_init(void *space, int block_num)
 311:src/slabAllocator.cpp **** {
 1345              		.loc 1 311 1 is_stmt 1
 1346              		.cfi_startproc
 1347              	.LVL124:
 1348 07a4 130101FF 		addi	sp,sp,-16
 1349              		.cfi_def_cfa_offset 16
 1350 07a8 23341100 		sd	ra,8(sp)
 1351 07ac 23308100 		sd	s0,0(sp)
 1352              		.cfi_offset 1, -8
 1353              		.cfi_offset 8, -16
 1354 07b0 13040101 		addi	s0,sp,16
 1355              		.cfi_def_cfa 8, 0
 312:src/slabAllocator.cpp ****     buddyAllocator* buddy = buddy_init(space, block_num);
 1356              		.loc 1 312 5
 1357              		.loc 1 312 39 is_stmt 0
 1358 07b4 97000000 		call	_Z10buddy_initPvm@plt
 1358      E7800000 
 1359              	.LVL125:
 313:src/slabAllocator.cpp ****     slabAllocator = slab_allocator_init(buddy);
 1360              		.loc 1 313 5 is_stmt 1
 1361              		.loc 1 313 40 is_stmt 0
 1362 07bc 97000000 		call	_Z19slab_allocator_initP14buddyAllocator
 1362      E7800000 
 1363              	.LVL126:
 1364              		.loc 1 313 19
 1365 07c4 97070000 		sd	a0,.LANCHOR0,a5
 1365      23B0A700 
 314:src/slabAllocator.cpp ****     //printSlabAllocatorInfo();
GAS LISTING /tmp/ccyhTnIv.s 			page 32


 315:src/slabAllocator.cpp **** }
 1366              		.loc 1 315 1
 1367 07cc 83308100 		ld	ra,8(sp)
 1368              		.cfi_restore 1
 1369 07d0 03340100 		ld	s0,0(sp)
 1370              		.cfi_restore 8
 1371              		.cfi_def_cfa 2, 16
 1372 07d4 13010101 		addi	sp,sp,16
 1373              		.cfi_def_cfa_offset 0
 1374 07d8 67800000 		jr	ra
 1375              		.cfi_endproc
 1376              	.LFE23:
 1378              		.align	2
 1379              		.globl	_Z16kmem_cache_allocP12kmem_cache_s
 1381              	_Z16kmem_cache_allocP12kmem_cache_s:
 1382              	.LFB25:
 316:src/slabAllocator.cpp **** 
 317:src/slabAllocator.cpp **** //TODO
 318:src/slabAllocator.cpp **** //protect everything from nullptrs
 319:src/slabAllocator.cpp **** kmem_cache_t *kmem_cache_create(const char *name, size_t size,
 320:src/slabAllocator.cpp ****                                 void (*ctor)(void *),
 321:src/slabAllocator.cpp ****                                 void (*dtor)(void *))
 322:src/slabAllocator.cpp **** {
 323:src/slabAllocator.cpp ****     kmem_cache_t* newCache = (kmem_cache_t*)kmem_cache_alloc(&slabAllocator->cacheOfCaches);
 324:src/slabAllocator.cpp ****     newCache->slabs_empty = nullptr;
 325:src/slabAllocator.cpp ****     newCache->slabs_partial = nullptr;
 326:src/slabAllocator.cpp ****     newCache->slabs_full = nullptr;
 327:src/slabAllocator.cpp ****     newCache->dtor = dtor;
 328:src/slabAllocator.cpp ****     newCache->ctor = ctor;
 329:src/slabAllocator.cpp ****     strcpy(name, newCache->cacheName);
 330:src/slabAllocator.cpp ****     newCache->obj_size = size;
 331:src/slabAllocator.cpp ****     newCache->slab_size = getOptimalSlabSize(size);
 332:src/slabAllocator.cpp ****     newCache->errors = NO_ERROR;
 333:src/slabAllocator.cpp ****     return newCache;
 334:src/slabAllocator.cpp **** }
 335:src/slabAllocator.cpp **** 
 336:src/slabAllocator.cpp **** void *kmem_cache_alloc(kmem_cache_t *cachep)
 337:src/slabAllocator.cpp **** {
 1383              		.loc 1 337 1 is_stmt 1
 1384              		.cfi_startproc
 1385              	.LVL127:
 1386 07dc 130101FE 		addi	sp,sp,-32
 1387              		.cfi_def_cfa_offset 32
 1388 07e0 233C1100 		sd	ra,24(sp)
 1389 07e4 23388100 		sd	s0,16(sp)
 1390 07e8 23349100 		sd	s1,8(sp)
 1391 07ec 23302101 		sd	s2,0(sp)
 1392              		.cfi_offset 1, -8
 1393              		.cfi_offset 8, -16
 1394              		.cfi_offset 9, -24
 1395              		.cfi_offset 18, -32
 1396 07f0 13040102 		addi	s0,sp,32
 1397              		.cfi_def_cfa 8, 0
 1398 07f4 93040500 		mv	s1,a0
 338:src/slabAllocator.cpp ****     if(cachep->slabs_partial != nullptr)
 1399              		.loc 1 338 5
 1400              	.LBB16:
GAS LISTING /tmp/ccyhTnIv.s 			page 33


 1401              		.loc 1 338 16 is_stmt 0
 1402 07f8 03350505 		ld	a0,80(a0)
 1403              	.LVL128:
 1404              		.loc 1 338 5
 1405 07fc 631A0504 		bnez	a0,.L93
 1406              	.LBE16:
 339:src/slabAllocator.cpp ****     {
 340:src/slabAllocator.cpp ****         void* allocatedAddr = allocateObject(cachep->slabs_partial);
 341:src/slabAllocator.cpp ****         if(full(cachep->slabs_partial))
 342:src/slabAllocator.cpp ****             putPartialToFull(cachep);
 343:src/slabAllocator.cpp ****         return allocatedAddr;
 344:src/slabAllocator.cpp ****     }
 345:src/slabAllocator.cpp ****     else if(cachep->slabs_empty != nullptr)
 1407              		.loc 1 345 10 is_stmt 1
 1408              	.LBB23:
 1409              	.LBB17:
 1410              		.loc 1 345 21 is_stmt 0
 1411 0800 03B50404 		ld	a0,64(s1)
 1412              		.loc 1 345 10
 1413 0804 630A0508 		beqz	a0,.L88
 1414              	.LBB18:
 346:src/slabAllocator.cpp ****     {
 347:src/slabAllocator.cpp ****         void* allocatedAddr = allocateObject(cachep->slabs_empty);
 1415              		.loc 1 347 9 is_stmt 1
 1416              		.loc 1 347 45 is_stmt 0
 1417 0808 97000000 		call	_Z14allocateObjectP6slab_s
 1417      E7800000 
 1418              	.LVL129:
 1419 0810 13090500 		mv	s2,a0
 1420              	.LVL130:
 348:src/slabAllocator.cpp ****         if(!empty(cachep->slabs_empty))
 1421              		.loc 1 348 9 is_stmt 1
 1422              		.loc 1 348 18 is_stmt 0
 1423 0814 03B50404 		ld	a0,64(s1)
 1424              	.LVL131:
 1425 0818 97000000 		call	_Z5emptyP6slab_s
 1425      E7800000 
 1426              	.LVL132:
 1427              		.loc 1 348 9
 1428 0820 63160504 		bnez	a0,.L84
 349:src/slabAllocator.cpp ****         {
 350:src/slabAllocator.cpp ****             putEmptyToPartial(cachep);
 1429              		.loc 1 350 13 is_stmt 1
 1430              		.loc 1 350 30 is_stmt 0
 1431 0824 13850400 		mv	a0,s1
 1432 0828 97000000 		call	_Z17putEmptyToPartialP12kmem_cache_s
 1432      E7800000 
 1433              	.LVL133:
 351:src/slabAllocator.cpp ****             if(full(cachep->slabs_partial))
 1434              		.loc 1 351 13 is_stmt 1
 1435              		.loc 1 351 20 is_stmt 0
 1436 0830 03B50405 		ld	a0,80(s1)
 1437 0834 97000000 		call	_Z4fullP6slab_s
 1437      E7800000 
 1438              	.LVL134:
 1439              		.loc 1 351 13
 1440 083c 63080502 		beqz	a0,.L84
GAS LISTING /tmp/ccyhTnIv.s 			page 34


 352:src/slabAllocator.cpp ****                 putPartialToFull(cachep);
 1441              		.loc 1 352 17 is_stmt 1
 1442              		.loc 1 352 33 is_stmt 0
 1443 0840 13850400 		mv	a0,s1
 1444 0844 97000000 		call	_Z16putPartialToFullP12kmem_cache_s
 1444      E7800000 
 1445              	.LVL135:
 353:src/slabAllocator.cpp ****         }
 354:src/slabAllocator.cpp ****         return allocatedAddr;
 1446              		.loc 1 354 9 is_stmt 1
 1447              		.loc 1 354 16 is_stmt 0
 1448 084c 6F000002 		j	.L84
 1449              	.LVL136:
 1450              	.L93:
 1451              	.LBE18:
 1452              	.LBE17:
 1453              	.LBB20:
 340:src/slabAllocator.cpp ****         if(full(cachep->slabs_partial))
 1454              		.loc 1 340 9 is_stmt 1
 340:src/slabAllocator.cpp ****         if(full(cachep->slabs_partial))
 1455              		.loc 1 340 45 is_stmt 0
 1456 0850 97000000 		call	_Z14allocateObjectP6slab_s
 1456      E7800000 
 1457              	.LVL137:
 1458 0858 13090500 		mv	s2,a0
 1459              	.LVL138:
 341:src/slabAllocator.cpp ****             putPartialToFull(cachep);
 1460              		.loc 1 341 9 is_stmt 1
 341:src/slabAllocator.cpp ****             putPartialToFull(cachep);
 1461              		.loc 1 341 16 is_stmt 0
 1462 085c 03B50405 		ld	a0,80(s1)
 1463              	.LVL139:
 1464 0860 97000000 		call	_Z4fullP6slab_s
 1464      E7800000 
 1465              	.LVL140:
 341:src/slabAllocator.cpp ****             putPartialToFull(cachep);
 1466              		.loc 1 341 9
 1467 0868 63100502 		bnez	a0,.L94
 1468              	.LVL141:
 1469              	.L84:
 1470              	.LBE20:
 1471              	.LBE23:
 355:src/slabAllocator.cpp ****     }
 356:src/slabAllocator.cpp ****     else
 357:src/slabAllocator.cpp ****     {
 358:src/slabAllocator.cpp ****         allocateSlab(cachep);
 359:src/slabAllocator.cpp ****         if(cachep->slabs_empty == nullptr)
 360:src/slabAllocator.cpp ****         {
 361:src/slabAllocator.cpp ****             cachep->errors|=EXPAND_ERROR;
 362:src/slabAllocator.cpp ****             return nullptr;
 363:src/slabAllocator.cpp ****         }
 364:src/slabAllocator.cpp ****         void* allocatedAddr = allocateObject(cachep->slabs_empty);
 365:src/slabAllocator.cpp ****         if(!empty(cachep->slabs_empty))
 366:src/slabAllocator.cpp ****         {
 367:src/slabAllocator.cpp ****             putEmptyToPartial(cachep);
 368:src/slabAllocator.cpp ****             if(full(cachep->slabs_partial))
 369:src/slabAllocator.cpp ****                 putPartialToFull(cachep);
GAS LISTING /tmp/ccyhTnIv.s 			page 35


 370:src/slabAllocator.cpp ****         }
 371:src/slabAllocator.cpp ****         return allocatedAddr;
 372:src/slabAllocator.cpp ****     }
 373:src/slabAllocator.cpp ****     return nullptr;
 374:src/slabAllocator.cpp **** }
 1472              		.loc 1 374 1
 1473 086c 13050900 		mv	a0,s2
 1474 0870 83308101 		ld	ra,24(sp)
 1475              		.cfi_remember_state
 1476              		.cfi_restore 1
 1477 0874 03340101 		ld	s0,16(sp)
 1478              		.cfi_restore 8
 1479              		.cfi_def_cfa 2, 32
 1480 0878 83348100 		ld	s1,8(sp)
 1481              		.cfi_restore 9
 1482              	.LVL142:
 1483 087c 03390100 		ld	s2,0(sp)
 1484              		.cfi_restore 18
 1485 0880 13010102 		addi	sp,sp,32
 1486              		.cfi_def_cfa_offset 0
 1487 0884 67800000 		jr	ra
 1488              	.LVL143:
 1489              	.L94:
 1490              		.cfi_restore_state
 1491              	.LBB24:
 1492              	.LBB21:
 342:src/slabAllocator.cpp ****         return allocatedAddr;
 1493              		.loc 1 342 13 is_stmt 1
 342:src/slabAllocator.cpp ****         return allocatedAddr;
 1494              		.loc 1 342 29 is_stmt 0
 1495 0888 13850400 		mv	a0,s1
 1496 088c 97000000 		call	_Z16putPartialToFullP12kmem_cache_s
 1496      E7800000 
 1497              	.LVL144:
 343:src/slabAllocator.cpp ****     }
 1498              		.loc 1 343 9 is_stmt 1
 343:src/slabAllocator.cpp ****     }
 1499              		.loc 1 343 16 is_stmt 0
 1500 0894 6FF09FFD 		j	.L84
 1501              	.LVL145:
 1502              	.L88:
 1503              	.LBE21:
 1504              	.LBB22:
 1505              	.LBB19:
 358:src/slabAllocator.cpp ****         if(cachep->slabs_empty == nullptr)
 1506              		.loc 1 358 9 is_stmt 1
 358:src/slabAllocator.cpp ****         if(cachep->slabs_empty == nullptr)
 1507              		.loc 1 358 21 is_stmt 0
 1508 0898 13850400 		mv	a0,s1
 1509 089c 97000000 		call	_Z12allocateSlabP12kmem_cache_s
 1509      E7800000 
 1510              	.LVL146:
 359:src/slabAllocator.cpp ****         {
 1511              		.loc 1 359 9 is_stmt 1
 359:src/slabAllocator.cpp ****         {
 1512              		.loc 1 359 20 is_stmt 0
 1513 08a4 03B90404 		ld	s2,64(s1)
GAS LISTING /tmp/ccyhTnIv.s 			page 36


 359:src/slabAllocator.cpp ****         {
 1514              		.loc 1 359 9
 1515 08a8 63080904 		beqz	s2,.L95
 364:src/slabAllocator.cpp ****         if(!empty(cachep->slabs_empty))
 1516              		.loc 1 364 9 is_stmt 1
 364:src/slabAllocator.cpp ****         if(!empty(cachep->slabs_empty))
 1517              		.loc 1 364 45 is_stmt 0
 1518 08ac 13050900 		mv	a0,s2
 1519 08b0 97000000 		call	_Z14allocateObjectP6slab_s
 1519      E7800000 
 1520              	.LVL147:
 1521 08b8 13090500 		mv	s2,a0
 1522              	.LVL148:
 365:src/slabAllocator.cpp ****         {
 1523              		.loc 1 365 9 is_stmt 1
 365:src/slabAllocator.cpp ****         {
 1524              		.loc 1 365 18 is_stmt 0
 1525 08bc 03B50404 		ld	a0,64(s1)
 1526              	.LVL149:
 1527 08c0 97000000 		call	_Z5emptyP6slab_s
 1527      E7800000 
 1528              	.LVL150:
 365:src/slabAllocator.cpp ****         {
 1529              		.loc 1 365 9
 1530 08c8 E31205FA 		bnez	a0,.L84
 367:src/slabAllocator.cpp ****             if(full(cachep->slabs_partial))
 1531              		.loc 1 367 13 is_stmt 1
 367:src/slabAllocator.cpp ****             if(full(cachep->slabs_partial))
 1532              		.loc 1 367 30 is_stmt 0
 1533 08cc 13850400 		mv	a0,s1
 1534 08d0 97000000 		call	_Z17putEmptyToPartialP12kmem_cache_s
 1534      E7800000 
 1535              	.LVL151:
 368:src/slabAllocator.cpp ****                 putPartialToFull(cachep);
 1536              		.loc 1 368 13 is_stmt 1
 368:src/slabAllocator.cpp ****                 putPartialToFull(cachep);
 1537              		.loc 1 368 20 is_stmt 0
 1538 08d8 03B50405 		ld	a0,80(s1)
 1539 08dc 97000000 		call	_Z4fullP6slab_s
 1539      E7800000 
 1540              	.LVL152:
 368:src/slabAllocator.cpp ****                 putPartialToFull(cachep);
 1541              		.loc 1 368 13
 1542 08e4 E30405F8 		beqz	a0,.L84
 369:src/slabAllocator.cpp ****         }
 1543              		.loc 1 369 17 is_stmt 1
 369:src/slabAllocator.cpp ****         }
 1544              		.loc 1 369 33 is_stmt 0
 1545 08e8 13850400 		mv	a0,s1
 1546 08ec 97000000 		call	_Z16putPartialToFullP12kmem_cache_s
 1546      E7800000 
 1547              	.LVL153:
 371:src/slabAllocator.cpp ****     }
 1548              		.loc 1 371 9 is_stmt 1
 371:src/slabAllocator.cpp ****     }
 1549              		.loc 1 371 16 is_stmt 0
 1550 08f4 6FF09FF7 		j	.L84
GAS LISTING /tmp/ccyhTnIv.s 			page 37


 1551              	.LVL154:
 1552              	.L95:
 361:src/slabAllocator.cpp ****             return nullptr;
 1553              		.loc 1 361 13 is_stmt 1
 361:src/slabAllocator.cpp ****             return nullptr;
 1554              		.loc 1 361 27 is_stmt 0
 1555 08f8 83A78407 		lw	a5,120(s1)
 1556 08fc 93E71700 		ori	a5,a5,1
 1557 0900 23ACF406 		sw	a5,120(s1)
 362:src/slabAllocator.cpp ****         }
 1558              		.loc 1 362 13 is_stmt 1
 362:src/slabAllocator.cpp ****         }
 1559              		.loc 1 362 20 is_stmt 0
 1560 0904 6FF09FF6 		j	.L84
 1561              	.LBE19:
 1562              	.LBE22:
 1563              	.LBE24:
 1564              		.cfi_endproc
 1565              	.LFE25:
 1567              		.align	2
 1568              		.globl	_Z17kmem_cache_createPKcmPFvPvES3_
 1570              	_Z17kmem_cache_createPKcmPFvPvES3_:
 1571              	.LFB24:
 322:src/slabAllocator.cpp ****     kmem_cache_t* newCache = (kmem_cache_t*)kmem_cache_alloc(&slabAllocator->cacheOfCaches);
 1572              		.loc 1 322 1 is_stmt 1
 1573              		.cfi_startproc
 1574              	.LVL155:
 1575 0908 130101FC 		addi	sp,sp,-64
 1576              		.cfi_def_cfa_offset 64
 1577 090c 233C1102 		sd	ra,56(sp)
 1578 0910 23388102 		sd	s0,48(sp)
 1579 0914 23349102 		sd	s1,40(sp)
 1580 0918 23302103 		sd	s2,32(sp)
 1581 091c 233C3101 		sd	s3,24(sp)
 1582 0920 23384101 		sd	s4,16(sp)
 1583 0924 23345101 		sd	s5,8(sp)
 1584              		.cfi_offset 1, -8
 1585              		.cfi_offset 8, -16
 1586              		.cfi_offset 9, -24
 1587              		.cfi_offset 18, -32
 1588              		.cfi_offset 19, -40
 1589              		.cfi_offset 20, -48
 1590              		.cfi_offset 21, -56
 1591 0928 13040104 		addi	s0,sp,64
 1592              		.cfi_def_cfa 8, 0
 1593 092c 93090500 		mv	s3,a0
 1594 0930 13890500 		mv	s2,a1
 1595 0934 130A0600 		mv	s4,a2
 1596 0938 938A0600 		mv	s5,a3
 323:src/slabAllocator.cpp ****     newCache->slabs_empty = nullptr;
 1597              		.loc 1 323 5
 323:src/slabAllocator.cpp ****     newCache->slabs_empty = nullptr;
 1598              		.loc 1 323 61 is_stmt 0
 1599 093c 17050000 		ld	a0,.LANCHOR0
 1599      03350500 
 1600              	.LVL156:
 1601 0944 13050507 		addi	a0,a0,112
GAS LISTING /tmp/ccyhTnIv.s 			page 38


 1602 0948 97000000 		call	_Z16kmem_cache_allocP12kmem_cache_s
 1602      E7800000 
 1603              	.LVL157:
 1604 0950 93040500 		mv	s1,a0
 1605              	.LVL158:
 324:src/slabAllocator.cpp ****     newCache->slabs_partial = nullptr;
 1606              		.loc 1 324 5 is_stmt 1
 324:src/slabAllocator.cpp ****     newCache->slabs_partial = nullptr;
 1607              		.loc 1 324 27 is_stmt 0
 1608 0954 23300504 		sd	zero,64(a0)
 325:src/slabAllocator.cpp ****     newCache->slabs_full = nullptr;
 1609              		.loc 1 325 5 is_stmt 1
 325:src/slabAllocator.cpp ****     newCache->slabs_full = nullptr;
 1610              		.loc 1 325 29 is_stmt 0
 1611 0958 23380504 		sd	zero,80(a0)
 326:src/slabAllocator.cpp ****     newCache->dtor = dtor;
 1612              		.loc 1 326 5 is_stmt 1
 326:src/slabAllocator.cpp ****     newCache->dtor = dtor;
 1613              		.loc 1 326 26 is_stmt 0
 1614 095c 23340504 		sd	zero,72(a0)
 327:src/slabAllocator.cpp ****     newCache->ctor = ctor;
 1615              		.loc 1 327 5 is_stmt 1
 327:src/slabAllocator.cpp ****     newCache->ctor = ctor;
 1616              		.loc 1 327 20 is_stmt 0
 1617 0960 23385507 		sd	s5,112(a0)
 328:src/slabAllocator.cpp ****     strcpy(name, newCache->cacheName);
 1618              		.loc 1 328 5 is_stmt 1
 328:src/slabAllocator.cpp ****     strcpy(name, newCache->cacheName);
 1619              		.loc 1 328 20 is_stmt 0
 1620 0964 23344507 		sd	s4,104(a0)
 329:src/slabAllocator.cpp ****     newCache->obj_size = size;
 1621              		.loc 1 329 5 is_stmt 1
 329:src/slabAllocator.cpp ****     newCache->obj_size = size;
 1622              		.loc 1 329 11 is_stmt 0
 1623 0968 93050500 		mv	a1,a0
 1624 096c 13850900 		mv	a0,s3
 1625 0970 97000000 		call	_Z6strcpyPKcPc
 1625      E7800000 
 1626              	.LVL159:
 330:src/slabAllocator.cpp ****     newCache->slab_size = getOptimalSlabSize(size);
 1627              		.loc 1 330 5 is_stmt 1
 330:src/slabAllocator.cpp ****     newCache->slab_size = getOptimalSlabSize(size);
 1628              		.loc 1 330 24 is_stmt 0
 1629 0978 23B02407 		sd	s2,96(s1)
 331:src/slabAllocator.cpp ****     newCache->errors = NO_ERROR;
 1630              		.loc 1 331 5 is_stmt 1
 331:src/slabAllocator.cpp ****     newCache->errors = NO_ERROR;
 1631              		.loc 1 331 45 is_stmt 0
 1632 097c 13050900 		mv	a0,s2
 1633 0980 97000000 		call	_Z18getOptimalSlabSizem
 1633      E7800000 
 1634              	.LVL160:
 331:src/slabAllocator.cpp ****     newCache->errors = NO_ERROR;
 1635              		.loc 1 331 25
 1636 0988 23BCA404 		sd	a0,88(s1)
 332:src/slabAllocator.cpp ****     return newCache;
 1637              		.loc 1 332 5 is_stmt 1
GAS LISTING /tmp/ccyhTnIv.s 			page 39


 332:src/slabAllocator.cpp ****     return newCache;
 1638              		.loc 1 332 22 is_stmt 0
 1639 098c 23AC0406 		sw	zero,120(s1)
 333:src/slabAllocator.cpp **** }
 1640              		.loc 1 333 5 is_stmt 1
 334:src/slabAllocator.cpp **** 
 1641              		.loc 1 334 1 is_stmt 0
 1642 0990 13850400 		mv	a0,s1
 1643 0994 83308103 		ld	ra,56(sp)
 1644              		.cfi_restore 1
 1645 0998 03340103 		ld	s0,48(sp)
 1646              		.cfi_restore 8
 1647              		.cfi_def_cfa 2, 64
 1648 099c 83348102 		ld	s1,40(sp)
 1649              		.cfi_restore 9
 1650              	.LVL161:
 1651 09a0 03390102 		ld	s2,32(sp)
 1652              		.cfi_restore 18
 1653              	.LVL162:
 1654 09a4 83398101 		ld	s3,24(sp)
 1655              		.cfi_restore 19
 1656              	.LVL163:
 1657 09a8 033A0101 		ld	s4,16(sp)
 1658              		.cfi_restore 20
 1659              	.LVL164:
 1660 09ac 833A8100 		ld	s5,8(sp)
 1661              		.cfi_restore 21
 1662              	.LVL165:
 1663 09b0 13010104 		addi	sp,sp,64
 1664              		.cfi_def_cfa_offset 0
 1665 09b4 67800000 		jr	ra
 1666              		.cfi_endproc
 1667              	.LFE24:
 1669              		.align	2
 1670              		.globl	_Z15kmem_cache_freeP12kmem_cache_sPv
 1672              	_Z15kmem_cache_freeP12kmem_cache_sPv:
 1673              	.LFB26:
 375:src/slabAllocator.cpp **** 
 376:src/slabAllocator.cpp **** void kmem_cache_free(kmem_cache_t *cachep, void *objp)
 377:src/slabAllocator.cpp **** {
 1674              		.loc 1 377 1 is_stmt 1
 1675              		.cfi_startproc
 1676              	.LVL166:
 378:src/slabAllocator.cpp ****     if(cachep == nullptr || objp == nullptr)
 1677              		.loc 1 378 5
 1678 09b8 63040508 		beqz	a0,.L103
 377:src/slabAllocator.cpp ****     if(cachep == nullptr || objp == nullptr)
 1679              		.loc 1 377 1 is_stmt 0 discriminator 1
 1680 09bc 130101FD 		addi	sp,sp,-48
 1681              		.cfi_def_cfa_offset 48
 1682 09c0 23341102 		sd	ra,40(sp)
 1683 09c4 23308102 		sd	s0,32(sp)
 1684 09c8 233C9100 		sd	s1,24(sp)
 1685 09cc 23382101 		sd	s2,16(sp)
 1686 09d0 23343101 		sd	s3,8(sp)
 1687              		.cfi_offset 1, -8
 1688              		.cfi_offset 8, -16
GAS LISTING /tmp/ccyhTnIv.s 			page 40


 1689              		.cfi_offset 9, -24
 1690              		.cfi_offset 18, -32
 1691              		.cfi_offset 19, -40
 1692 09d4 13040103 		addi	s0,sp,48
 1693              		.cfi_def_cfa 8, 0
 1694 09d8 13090500 		mv	s2,a0
 1695 09dc 93840500 		mv	s1,a1
 1696              		.loc 1 378 26 discriminator 1
 1697 09e0 63820504 		beqz	a1,.L98
 379:src/slabAllocator.cpp ****         return;
 380:src/slabAllocator.cpp ****     slab_t* slab = findSlab(cachep, objp);
 1698              		.loc 1 380 5 is_stmt 1
 1699              		.loc 1 380 28 is_stmt 0
 1700 09e4 97000000 		call	_Z8findSlabP12kmem_cache_sPKv
 1700      E7800000 
 1701              	.LVL167:
 1702 09ec 93090500 		mv	s3,a0
 1703              	.LVL168:
 381:src/slabAllocator.cpp ****     if(slab == nullptr) return;
 1704              		.loc 1 381 5 is_stmt 1
 1705 09f0 630A0502 		beqz	a0,.L98
 382:src/slabAllocator.cpp **** 
 383:src/slabAllocator.cpp ****     //TODO
 384:src/slabAllocator.cpp ****     //test it
 385:src/slabAllocator.cpp ****     if(cachep->dtor != nullptr)
 1706              		.loc 1 385 5
 1707              		.loc 1 385 16 is_stmt 0
 1708 09f4 83370907 		ld	a5,112(s2)
 1709              		.loc 1 385 5
 1710 09f8 63860700 		beqz	a5,.L100
 386:src/slabAllocator.cpp ****         cachep->dtor(objp);
 1711              		.loc 1 386 9 is_stmt 1
 1712              		.loc 1 386 21 is_stmt 0
 1713 09fc 13850400 		mv	a0,s1
 1714              	.LVL169:
 1715 0a00 E7800700 		jalr	a5
 1716              	.LVL170:
 1717              	.L100:
 387:src/slabAllocator.cpp ****     if(cachep->ctor != nullptr)
 1718              		.loc 1 387 5 is_stmt 1
 1719              		.loc 1 387 16 is_stmt 0
 1720 0a04 83378906 		ld	a5,104(s2)
 1721              		.loc 1 387 5
 1722 0a08 63860700 		beqz	a5,.L101
 388:src/slabAllocator.cpp ****         cachep->ctor(objp);
 1723              		.loc 1 388 9 is_stmt 1
 1724              		.loc 1 388 21 is_stmt 0
 1725 0a0c 13850400 		mv	a0,s1
 1726 0a10 E7800700 		jalr	a5
 1727              	.LVL171:
 1728              	.L101:
 389:src/slabAllocator.cpp **** 
 390:src/slabAllocator.cpp ****     free_slab_object(slab, objp);
 1729              		.loc 1 390 5 is_stmt 1
 1730              		.loc 1 390 21 is_stmt 0
 1731 0a14 93850400 		mv	a1,s1
 1732 0a18 13850900 		mv	a0,s3
GAS LISTING /tmp/ccyhTnIv.s 			page 41


 1733 0a1c 97000000 		call	_Z16free_slab_objectP6slab_sPKv
 1733      E7800000 
 1734              	.LVL172:
 1735              	.L98:
 391:src/slabAllocator.cpp **** }
 1736              		.loc 1 391 1
 1737 0a24 83308102 		ld	ra,40(sp)
 1738              		.cfi_restore 1
 1739 0a28 03340102 		ld	s0,32(sp)
 1740              		.cfi_restore 8
 1741              		.cfi_def_cfa 2, 48
 1742 0a2c 83348101 		ld	s1,24(sp)
 1743              		.cfi_restore 9
 1744              	.LVL173:
 1745 0a30 03390101 		ld	s2,16(sp)
 1746              		.cfi_restore 18
 1747              	.LVL174:
 1748 0a34 83398100 		ld	s3,8(sp)
 1749              		.cfi_restore 19
 1750 0a38 13010103 		addi	sp,sp,48
 1751              		.cfi_def_cfa_offset 0
 1752 0a3c 67800000 		jr	ra
 1753              	.LVL175:
 1754              	.L103:
 1755 0a40 67800000 		ret
 1756              		.cfi_endproc
 1757              	.LFE26:
 1759              		.section	.rodata.str1.8
 1760 0072 00000000 		.align	3
 1760      0000
 1761              	.LC6:
 1762 0078 4B6D656D 		.string	"Kmem Cache Info-------------------------------------\n"
 1762      20436163 
 1762      68652049 
 1762      6E666F2D 
 1762      2D2D2D2D 
 1763 00ae 0000     		.align	3
 1764              	.LC7:
 1765 00b0 43616368 		.string	"Cache Name "
 1765      65204E61 
 1765      6D652000 
 1766 00bc 00000000 		.align	3
 1767              	.LC8:
 1768 00c0 43616368 		.string	"Cache slab size in blocks "
 1768      6520736C 
 1768      61622073 
 1768      697A6520 
 1768      696E2062 
 1769 00db 00000000 		.align	3
 1769      00
 1770              	.LC9:
 1771 00e0 43616368 		.string	"Cache obj size in bytes "
 1771      65206F62 
 1771      6A207369 
 1771      7A652069 
 1771      6E206279 
 1772 00f9 00000000 		.align	3
GAS LISTING /tmp/ccyhTnIv.s 			page 42


 1772      000000
 1773              	.LC10:
 1774 0100 536C6162 		.string	"Slabs info-------------------\n"
 1774      7320696E 
 1774      666F2D2D 
 1774      2D2D2D2D 
 1774      2D2D2D2D 
 1775 011f 00       		.align	3
 1776              	.LC11:
 1777 0120 46756C6C 		.string	"Full slabs\n"
 1777      20736C61 
 1777      62730A00 
 1778 012c 00000000 		.align	3
 1779              	.LC12:
 1780 0130 50617274 		.string	"Partial slabs\n"
 1780      69616C20 
 1780      736C6162 
 1780      730A00
 1781 013f 00       		.align	3
 1782              	.LC13:
 1783 0140 456D7074 		.string	"Empty slabs\n"
 1783      7920736C 
 1783      6162730A 
 1783      00
 1784              		.text
 1785              		.align	2
 1786              		.globl	_Z15kmem_cache_infoP12kmem_cache_s
 1788              	_Z15kmem_cache_infoP12kmem_cache_s:
 1789              	.LFB27:
 392:src/slabAllocator.cpp **** 
 393:src/slabAllocator.cpp **** //TODO
 394:src/slabAllocator.cpp **** //what needs to be printed
 395:src/slabAllocator.cpp **** void kmem_cache_info(kmem_cache_t *cachep)
 396:src/slabAllocator.cpp **** {
 1790              		.loc 1 396 1 is_stmt 1
 1791              		.cfi_startproc
 1792              	.LVL176:
 1793 0a44 130101FE 		addi	sp,sp,-32
 1794              		.cfi_def_cfa_offset 32
 1795 0a48 233C1100 		sd	ra,24(sp)
 1796 0a4c 23388100 		sd	s0,16(sp)
 1797 0a50 23349100 		sd	s1,8(sp)
 1798 0a54 23302101 		sd	s2,0(sp)
 1799              		.cfi_offset 1, -8
 1800              		.cfi_offset 8, -16
 1801              		.cfi_offset 9, -24
 1802              		.cfi_offset 18, -32
 1803 0a58 13040102 		addi	s0,sp,32
 1804              		.cfi_def_cfa 8, 0
 1805 0a5c 13090500 		mv	s2,a0
 397:src/slabAllocator.cpp ****     KConsole::trapPrintString("Kmem Cache Info-------------------------------------\n");
 1806              		.loc 1 397 5
 1807              		.loc 1 397 30 is_stmt 0
 1808 0a60 17050000 		lla	a0,.LC6
 1808      13050500 
 1809              	.LVL177:
 1810 0a68 97000000 		call	_ZN8KConsole15trapPrintStringEPKc@plt
GAS LISTING /tmp/ccyhTnIv.s 			page 43


 1810      E7800000 
 1811              	.LVL178:
 398:src/slabAllocator.cpp ****     KConsole::trapPrintString("Cache Name ");
 1812              		.loc 1 398 5 is_stmt 1
 1813              		.loc 1 398 30 is_stmt 0
 1814 0a70 17050000 		lla	a0,.LC7
 1814      13050500 
 1815 0a78 97000000 		call	_ZN8KConsole15trapPrintStringEPKc@plt
 1815      E7800000 
 1816              	.LVL179:
 399:src/slabAllocator.cpp ****     KConsole::trapPrintString(cachep->cacheName); KConsole::trapPrintString("\n");
 1817              		.loc 1 399 5 is_stmt 1
 1818              		.loc 1 399 30 is_stmt 0
 1819 0a80 13050900 		mv	a0,s2
 1820 0a84 97000000 		call	_ZN8KConsole15trapPrintStringEPKc@plt
 1820      E7800000 
 1821              	.LVL180:
 1822              		.loc 1 399 51 is_stmt 1
 1823              		.loc 1 399 76 is_stmt 0
 1824 0a8c 17050000 		lla	a0,.LC5
 1824      13050500 
 1825 0a94 97000000 		call	_ZN8KConsole15trapPrintStringEPKc@plt
 1825      E7800000 
 1826              	.LVL181:
 400:src/slabAllocator.cpp ****     KConsole::trapPrintStringInt("Cache slab size in blocks ", cachep->slab_size);
 1827              		.loc 1 400 5 is_stmt 1
 1828              		.loc 1 400 33 is_stmt 0
 1829 0a9c 1306A000 		li	a2,10
 1830 0aa0 83358905 		ld	a1,88(s2)
 1831 0aa4 17050000 		lla	a0,.LC8
 1831      13050500 
 1832 0aac 97000000 		call	_ZN8KConsole18trapPrintStringIntEPKcmi@plt
 1832      E7800000 
 1833              	.LVL182:
 401:src/slabAllocator.cpp ****     KConsole::trapPrintStringInt("Cache obj size in bytes ", cachep->obj_size);
 1834              		.loc 1 401 5 is_stmt 1
 1835              		.loc 1 401 33 is_stmt 0
 1836 0ab4 1306A000 		li	a2,10
 1837 0ab8 83350906 		ld	a1,96(s2)
 1838 0abc 17050000 		lla	a0,.LC9
 1838      13050500 
 1839 0ac4 97000000 		call	_ZN8KConsole18trapPrintStringIntEPKcmi@plt
 1839      E7800000 
 1840              	.LVL183:
 402:src/slabAllocator.cpp ****     
 403:src/slabAllocator.cpp ****     KConsole::trapPrintString("Slabs info-------------------\n");
 1841              		.loc 1 403 5 is_stmt 1
 1842              		.loc 1 403 30 is_stmt 0
 1843 0acc 17050000 		lla	a0,.LC10
 1843      13050500 
 1844 0ad4 97000000 		call	_ZN8KConsole15trapPrintStringEPKc@plt
 1844      E7800000 
 1845              	.LVL184:
 404:src/slabAllocator.cpp **** 
 405:src/slabAllocator.cpp ****     KConsole::trapPrintString("Full slabs\n");
 1846              		.loc 1 405 5 is_stmt 1
 1847              		.loc 1 405 30 is_stmt 0
GAS LISTING /tmp/ccyhTnIv.s 			page 44


 1848 0adc 17050000 		lla	a0,.LC11
 1848      13050500 
 1849 0ae4 97000000 		call	_ZN8KConsole15trapPrintStringEPKc@plt
 1849      E7800000 
 1850              	.LVL185:
 406:src/slabAllocator.cpp ****     slab_t* slab = cachep->slabs_full;
 1851              		.loc 1 406 5 is_stmt 1
 1852              		.loc 1 406 13 is_stmt 0
 1853 0aec 83348904 		ld	s1,72(s2)
 1854              	.LVL186:
 1855              	.L108:
 407:src/slabAllocator.cpp ****     while(slab != nullptr)
 1856              		.loc 1 407 5 is_stmt 1
 1857              		.loc 1 407 16
 1858 0af0 638C0400 		beqz	s1,.L107
 408:src/slabAllocator.cpp ****     {
 409:src/slabAllocator.cpp ****         printSlabInfo(slab);
 1859              		.loc 1 409 9
 1860              		.loc 1 409 22 is_stmt 0
 1861 0af4 13850400 		mv	a0,s1
 1862 0af8 97000000 		call	_Z13printSlabInfoP6slab_s
 1862      E7800000 
 1863              	.LVL187:
 410:src/slabAllocator.cpp ****         slab = slab->next;
 1864              		.loc 1 410 9 is_stmt 1
 1865              		.loc 1 410 14 is_stmt 0
 1866 0b00 83B48400 		ld	s1,8(s1)
 1867              	.LVL188:
 407:src/slabAllocator.cpp ****     while(slab != nullptr)
 1868              		.loc 1 407 5
 1869 0b04 6FF0DFFE 		j	.L108
 1870              	.L107:
 411:src/slabAllocator.cpp ****     }
 412:src/slabAllocator.cpp **** 
 413:src/slabAllocator.cpp ****     KConsole::trapPrintString("Partial slabs\n");
 1871              		.loc 1 413 5 is_stmt 1
 1872              		.loc 1 413 30 is_stmt 0
 1873 0b08 17050000 		lla	a0,.LC12
 1873      13050500 
 1874 0b10 97000000 		call	_ZN8KConsole15trapPrintStringEPKc@plt
 1874      E7800000 
 1875              	.LVL189:
 414:src/slabAllocator.cpp ****     slab = cachep->slabs_partial;
 1876              		.loc 1 414 5 is_stmt 1
 1877              		.loc 1 414 10 is_stmt 0
 1878 0b18 83340905 		ld	s1,80(s2)
 1879              	.LVL190:
 1880              	.L110:
 415:src/slabAllocator.cpp ****     while(slab != nullptr)
 1881              		.loc 1 415 5 is_stmt 1
 1882              		.loc 1 415 16
 1883 0b1c 638C0400 		beqz	s1,.L109
 416:src/slabAllocator.cpp ****     {
 417:src/slabAllocator.cpp ****         printSlabInfo(slab);
 1884              		.loc 1 417 9
 1885              		.loc 1 417 22 is_stmt 0
 1886 0b20 13850400 		mv	a0,s1
GAS LISTING /tmp/ccyhTnIv.s 			page 45


 1887 0b24 97000000 		call	_Z13printSlabInfoP6slab_s
 1887      E7800000 
 1888              	.LVL191:
 418:src/slabAllocator.cpp ****         slab = slab->next;
 1889              		.loc 1 418 9 is_stmt 1
 1890              		.loc 1 418 14 is_stmt 0
 1891 0b2c 83B48400 		ld	s1,8(s1)
 1892              	.LVL192:
 415:src/slabAllocator.cpp ****     while(slab != nullptr)
 1893              		.loc 1 415 5
 1894 0b30 6FF0DFFE 		j	.L110
 1895              	.L109:
 419:src/slabAllocator.cpp ****     }
 420:src/slabAllocator.cpp **** 
 421:src/slabAllocator.cpp ****     KConsole::trapPrintString("Empty slabs\n");
 1896              		.loc 1 421 5 is_stmt 1
 1897              		.loc 1 421 30 is_stmt 0
 1898 0b34 17050000 		lla	a0,.LC13
 1898      13050500 
 1899 0b3c 97000000 		call	_ZN8KConsole15trapPrintStringEPKc@plt
 1899      E7800000 
 1900              	.LVL193:
 422:src/slabAllocator.cpp ****     slab = cachep->slabs_empty;
 1901              		.loc 1 422 5 is_stmt 1
 1902              		.loc 1 422 10 is_stmt 0
 1903 0b44 83340904 		ld	s1,64(s2)
 1904              	.LVL194:
 1905              	.L112:
 423:src/slabAllocator.cpp ****     while(slab != nullptr)
 1906              		.loc 1 423 5 is_stmt 1
 1907              		.loc 1 423 16
 1908 0b48 638C0400 		beqz	s1,.L106
 424:src/slabAllocator.cpp ****     {
 425:src/slabAllocator.cpp ****         printSlabInfo(slab);
 1909              		.loc 1 425 9
 1910              		.loc 1 425 22 is_stmt 0
 1911 0b4c 13850400 		mv	a0,s1
 1912 0b50 97000000 		call	_Z13printSlabInfoP6slab_s
 1912      E7800000 
 1913              	.LVL195:
 426:src/slabAllocator.cpp ****         slab = slab->next;
 1914              		.loc 1 426 9 is_stmt 1
 1915              		.loc 1 426 14 is_stmt 0
 1916 0b58 83B48400 		ld	s1,8(s1)
 1917              	.LVL196:
 423:src/slabAllocator.cpp ****     while(slab != nullptr)
 1918              		.loc 1 423 5
 1919 0b5c 6FF0DFFE 		j	.L112
 1920              	.L106:
 427:src/slabAllocator.cpp ****     }
 428:src/slabAllocator.cpp **** }
 1921              		.loc 1 428 1
 1922 0b60 83308101 		ld	ra,24(sp)
 1923              		.cfi_restore 1
 1924 0b64 03340101 		ld	s0,16(sp)
 1925              		.cfi_restore 8
 1926              		.cfi_def_cfa 2, 32
GAS LISTING /tmp/ccyhTnIv.s 			page 46


 1927 0b68 83348100 		ld	s1,8(sp)
 1928              		.cfi_restore 9
 1929              	.LVL197:
 1930 0b6c 03390100 		ld	s2,0(sp)
 1931              		.cfi_restore 18
 1932              	.LVL198:
 1933 0b70 13010102 		addi	sp,sp,32
 1934              		.cfi_def_cfa_offset 0
 1935 0b74 67800000 		jr	ra
 1936              		.cfi_endproc
 1937              	.LFE27:
 1939              		.section	.rodata.str1.8
 1940 014d 000000   		.align	3
 1941              	.LC14:
 1942 0150 536C6162 		.string	"Slab allocator info----------------------------------------------------------\n"
 1942      20616C6C 
 1942      6F636174 
 1942      6F722069 
 1942      6E666F2D 
 1943 019f 00       		.align	3
 1944              	.LC15:
 1945 01a0 536C6162 		.string	"Slab allocator buddy address "
 1945      20616C6C 
 1945      6F636174 
 1945      6F722062 
 1945      75646479 
 1946 01be 0000     		.align	3
 1947              	.LC16:
 1948 01c0 536C6162 		.string	"Slab allocator address "
 1948      20616C6C 
 1948      6F636174 
 1948      6F722061 
 1948      64647265 
 1949              		.align	3
 1950              	.LC17:
 1951 01d8 43616368 		.string	"Cache of caches info\n"
 1951      65206F66 
 1951      20636163 
 1951      68657320 
 1951      696E666F 
 1952 01ee 0000     		.align	3
 1953              	.LC18:
 1954 01f0 43616368 		.string	"Caches for buffers\n"
 1954      65732066 
 1954      6F722062 
 1954      75666665 
 1954      72730A00 
 1955              		.text
 1956              		.align	2
 1957              		.globl	_Z22printSlabAllocatorInfov
 1959              	_Z22printSlabAllocatorInfov:
 1960              	.LFB22:
 293:src/slabAllocator.cpp ****     KConsole::trapPrintString("Slab allocator info-------------------------------------------------
 1961              		.loc 1 293 1 is_stmt 1
 1962              		.cfi_startproc
 1963 0b78 130101FE 		addi	sp,sp,-32
 1964              		.cfi_def_cfa_offset 32
GAS LISTING /tmp/ccyhTnIv.s 			page 47


 1965 0b7c 233C1100 		sd	ra,24(sp)
 1966 0b80 23388100 		sd	s0,16(sp)
 1967 0b84 23349100 		sd	s1,8(sp)
 1968              		.cfi_offset 1, -8
 1969              		.cfi_offset 8, -16
 1970              		.cfi_offset 9, -24
 1971 0b88 13040102 		addi	s0,sp,32
 1972              		.cfi_def_cfa 8, 0
 294:src/slabAllocator.cpp ****     KConsole::trapPrintStringInt("Slab allocator buddy address ", (size_t)slabAllocator->buddy,16);
 1973              		.loc 1 294 5
 294:src/slabAllocator.cpp ****     KConsole::trapPrintStringInt("Slab allocator buddy address ", (size_t)slabAllocator->buddy,16);
 1974              		.loc 1 294 30 is_stmt 0
 1975 0b8c 17050000 		lla	a0,.LC14
 1975      13050500 
 1976 0b94 97000000 		call	_ZN8KConsole15trapPrintStringEPKc@plt
 1976      E7800000 
 1977              	.LVL199:
 295:src/slabAllocator.cpp ****     KConsole::trapPrintStringInt("Slab allocator address ", (size_t)slabAllocator, 16);
 1978              		.loc 1 295 5 is_stmt 1
 295:src/slabAllocator.cpp ****     KConsole::trapPrintStringInt("Slab allocator address ", (size_t)slabAllocator, 16);
 1979              		.loc 1 295 90 is_stmt 0
 1980 0b9c 97040000 		lla	s1,.LANCHOR0
 1980      93840400 
 1981 0ba4 83B70400 		ld	a5,0(s1)
 295:src/slabAllocator.cpp ****     KConsole::trapPrintStringInt("Slab allocator address ", (size_t)slabAllocator, 16);
 1982              		.loc 1 295 33
 1983 0ba8 13060001 		li	a2,16
 1984 0bac 83B50700 		ld	a1,0(a5)
 1985 0bb0 17050000 		lla	a0,.LC15
 1985      13050500 
 1986 0bb8 97000000 		call	_ZN8KConsole18trapPrintStringIntEPKcmi@plt
 1986      E7800000 
 1987              	.LVL200:
 296:src/slabAllocator.cpp ****     KConsole::trapPrintString("Cache of caches info\n");
 1988              		.loc 1 296 5 is_stmt 1
 296:src/slabAllocator.cpp ****     KConsole::trapPrintString("Cache of caches info\n");
 1989              		.loc 1 296 33 is_stmt 0
 1990 0bc0 13060001 		li	a2,16
 1991 0bc4 83B50400 		ld	a1,0(s1)
 1992 0bc8 17050000 		lla	a0,.LC16
 1992      13050500 
 1993 0bd0 97000000 		call	_ZN8KConsole18trapPrintStringIntEPKcmi@plt
 1993      E7800000 
 1994              	.LVL201:
 297:src/slabAllocator.cpp ****     kmem_cache_info(&slabAllocator->cacheOfCaches);
 1995              		.loc 1 297 5 is_stmt 1
 297:src/slabAllocator.cpp ****     kmem_cache_info(&slabAllocator->cacheOfCaches);
 1996              		.loc 1 297 30 is_stmt 0
 1997 0bd8 17050000 		lla	a0,.LC17
 1997      13050500 
 1998 0be0 97000000 		call	_ZN8KConsole15trapPrintStringEPKc@plt
 1998      E7800000 
 1999              	.LVL202:
 298:src/slabAllocator.cpp ****     KConsole::trapPrintString("Caches for buffers\n");
 2000              		.loc 1 298 5 is_stmt 1
 298:src/slabAllocator.cpp ****     KConsole::trapPrintString("Caches for buffers\n");
 2001              		.loc 1 298 37 is_stmt 0
GAS LISTING /tmp/ccyhTnIv.s 			page 48


 2002 0be8 03B50400 		ld	a0,0(s1)
 298:src/slabAllocator.cpp ****     KConsole::trapPrintString("Caches for buffers\n");
 2003              		.loc 1 298 20
 2004 0bec 13050507 		addi	a0,a0,112
 2005 0bf0 97000000 		call	_Z15kmem_cache_infoP12kmem_cache_s
 2005      E7800000 
 2006              	.LVL203:
 299:src/slabAllocator.cpp ****     for(size_t i = 0;i < CACHE_BUFFER_SIZE;i++)
 2007              		.loc 1 299 5 is_stmt 1
 299:src/slabAllocator.cpp ****     for(size_t i = 0;i < CACHE_BUFFER_SIZE;i++)
 2008              		.loc 1 299 30 is_stmt 0
 2009 0bf8 17050000 		lla	a0,.LC18
 2009      13050500 
 2010 0c00 97000000 		call	_ZN8KConsole15trapPrintStringEPKc@plt
 2010      E7800000 
 2011              	.LVL204:
 300:src/slabAllocator.cpp ****     {
 2012              		.loc 1 300 5 is_stmt 1
 2013              	.LBB25:
 300:src/slabAllocator.cpp ****     {
 2014              		.loc 1 300 16 is_stmt 0
 2015 0c08 93040000 		li	s1,0
 2016 0c0c 6F000001 		j	.L117
 2017              	.LVL205:
 2018              	.L119:
 304:src/slabAllocator.cpp ****         }
 2019              		.loc 1 304 13 is_stmt 1
 304:src/slabAllocator.cpp ****         }
 2020              		.loc 1 304 28 is_stmt 0
 2021 0c10 97000000 		call	_Z15kmem_cache_infoP12kmem_cache_s
 2021      E7800000 
 2022              	.LVL206:
 2023              	.L116:
 300:src/slabAllocator.cpp ****     {
 2024              		.loc 1 300 5 is_stmt 1 discriminator 2
 2025 0c18 93841400 		addi	s1,s1,1
 2026              	.LVL207:
 2027              	.L117:
 300:src/slabAllocator.cpp ****     {
 2028              		.loc 1 300 24 discriminator 1
 2029 0c1c 9307C000 		li	a5,12
 2030 0c20 63E09702 		bgtu	s1,a5,.L114
 302:src/slabAllocator.cpp ****         {
 2031              		.loc 1 302 9
 302:src/slabAllocator.cpp ****         {
 2032              		.loc 1 302 42 is_stmt 0
 2033 0c24 93973400 		slli	a5,s1,3
 2034 0c28 17070000 		ld	a4,.LANCHOR0
 2034      03370700 
 2035 0c30 B307F700 		add	a5,a4,a5
 2036 0c34 03B58700 		ld	a0,8(a5)
 302:src/slabAllocator.cpp ****         {
 2037              		.loc 1 302 9
 2038 0c38 E31C05FC 		bnez	a0,.L119
 2039 0c3c 6FF0DFFD 		j	.L116
 2040              	.L114:
 2041              	.LBE25:
GAS LISTING /tmp/ccyhTnIv.s 			page 49


 307:src/slabAllocator.cpp **** 
 2042              		.loc 1 307 1
 2043 0c40 83308101 		ld	ra,24(sp)
 2044              		.cfi_restore 1
 2045 0c44 03340101 		ld	s0,16(sp)
 2046              		.cfi_restore 8
 2047              		.cfi_def_cfa 2, 32
 2048 0c48 83348100 		ld	s1,8(sp)
 2049              		.cfi_restore 9
 2050              	.LVL208:
 2051 0c4c 13010102 		addi	sp,sp,32
 2052              		.cfi_def_cfa_offset 0
 2053 0c50 67800000 		jr	ra
 2054              		.cfi_endproc
 2055              	.LFE22:
 2057              		.section	.rodata.str1.8
 2058 0204 00000000 		.align	3
 2059              	.LC19:
 2060 0208 43616368 		.string	"Cache for small buffers"
 2060      6520666F 
 2060      7220736D 
 2060      616C6C20 
 2060      62756666 
 2061              		.text
 2062              		.align	2
 2063              		.globl	_Z7kmallocm
 2065              	_Z7kmallocm:
 2066              	.LFB28:
 429:src/slabAllocator.cpp **** 
 430:src/slabAllocator.cpp **** void *kmalloc(size_t size)
 431:src/slabAllocator.cpp **** {
 2067              		.loc 1 431 1 is_stmt 1
 2068              		.cfi_startproc
 2069              	.LVL209:
 2070 0c54 130101FD 		addi	sp,sp,-48
 2071              		.cfi_def_cfa_offset 48
 2072 0c58 23341102 		sd	ra,40(sp)
 2073 0c5c 23308102 		sd	s0,32(sp)
 2074 0c60 233C9100 		sd	s1,24(sp)
 2075 0c64 23382101 		sd	s2,16(sp)
 2076 0c68 23343101 		sd	s3,8(sp)
 2077 0c6c 23304101 		sd	s4,0(sp)
 2078              		.cfi_offset 1, -8
 2079              		.cfi_offset 8, -16
 2080              		.cfi_offset 9, -24
 2081              		.cfi_offset 18, -32
 2082              		.cfi_offset 19, -40
 2083              		.cfi_offset 20, -48
 2084 0c70 13040103 		addi	s0,sp,48
 2085              		.cfi_def_cfa 8, 0
 2086 0c74 93090500 		mv	s3,a0
 432:src/slabAllocator.cpp ****     size_t level = getDeg2Ceil(size);
 2087              		.loc 1 432 5
 2088              		.loc 1 432 31 is_stmt 0
 2089 0c78 97000000 		call	_Z11getDeg2Ceilm@plt
 2089      E7800000 
 2090              	.LVL210:
GAS LISTING /tmp/ccyhTnIv.s 			page 50


 433:src/slabAllocator.cpp ****     if(level < CACHE_BUFFER_SMALL)
 2091              		.loc 1 433 5 is_stmt 1
 2092 0c80 93074000 		li	a5,4
 2093 0c84 63FAA700 		bleu	a0,a5,.L124
 434:src/slabAllocator.cpp ****         level = CACHE_BUFFER_SMALL;
 435:src/slabAllocator.cpp ****     if(level > CACHE_BUFFER_BIG)
 2094              		.loc 1 435 5
 2095 0c88 93071001 		li	a5,17
 2096 0c8c 63F8A700 		bleu	a0,a5,.L121
 436:src/slabAllocator.cpp ****         return nullptr;
 2097              		.loc 1 436 16 is_stmt 0
 2098 0c90 13050000 		li	a0,0
 2099              	.LVL211:
 2100 0c94 6F000004 		j	.L120
 2101              	.LVL212:
 2102              	.L124:
 434:src/slabAllocator.cpp ****         level = CACHE_BUFFER_SMALL;
 2103              		.loc 1 434 15
 2104 0c98 13055000 		li	a0,5
 2105              	.LVL213:
 2106              	.L121:
 437:src/slabAllocator.cpp ****     size_t index = level - CACHE_BUFFER_SMALL;
 2107              		.loc 1 437 5 is_stmt 1
 2108              		.loc 1 437 12 is_stmt 0
 2109 0c9c 9304B5FF 		addi	s1,a0,-5
 2110              	.LVL214:
 438:src/slabAllocator.cpp ****     if(slabAllocator->cachesBuffers[index] == nullptr)
 2111              		.loc 1 438 5 is_stmt 1
 2112              		.loc 1 438 42 is_stmt 0
 2113 0ca0 17090000 		ld	s2,.LANCHOR0
 2113      03390900 
 2114 0ca8 93973400 		slli	a5,s1,3
 2115 0cac B307F900 		add	a5,s2,a5
 2116 0cb0 83B78700 		ld	a5,8(a5)
 2117              		.loc 1 438 5
 2118 0cb4 63800704 		beqz	a5,.L127
 2119              	.L123:
 439:src/slabAllocator.cpp ****     {
 440:src/slabAllocator.cpp ****         slabAllocator->cachesBuffers[index] = (kmem_cache_t*)kmem_cache_alloc(&slabAllocator->cache
 441:src/slabAllocator.cpp ****         slabAllocator->cachesBuffers[index]->slabs_empty = nullptr;
 442:src/slabAllocator.cpp ****         slabAllocator->cachesBuffers[index]->slabs_partial = nullptr;
 443:src/slabAllocator.cpp ****         slabAllocator->cachesBuffers[index]->slabs_full = nullptr;
 444:src/slabAllocator.cpp ****         slabAllocator->cachesBuffers[index]->dtor = nullptr;
 445:src/slabAllocator.cpp ****         slabAllocator->cachesBuffers[index]->ctor = nullptr;
 446:src/slabAllocator.cpp ****         strcpy("Cache for small buffers", slabAllocator->cachesBuffers[index]->cacheName);
 447:src/slabAllocator.cpp ****         slabAllocator->cachesBuffers[index]->obj_size = size;
 448:src/slabAllocator.cpp ****         slabAllocator->cachesBuffers[index]->slab_size = getOptimalSlabSize(size);
 449:src/slabAllocator.cpp ****         slabAllocator->cachesBuffers[index]->errors = NO_ERROR;
 450:src/slabAllocator.cpp ****     }
 451:src/slabAllocator.cpp **** 
 452:src/slabAllocator.cpp ****     return kmem_cache_alloc(slabAllocator->cachesBuffers[index]);
 2120              		.loc 1 452 5 is_stmt 1
 2121              		.loc 1 452 28 is_stmt 0
 2122 0cb8 13953400 		slli	a0,s1,3
 2123 0cbc 97040000 		ld	s1,.LANCHOR0
 2123      83B40400 
 2124              	.LVL215:
GAS LISTING /tmp/ccyhTnIv.s 			page 51


 2125 0cc4 3385A400 		add	a0,s1,a0
 2126 0cc8 03358500 		ld	a0,8(a0)
 2127 0ccc 97000000 		call	_Z16kmem_cache_allocP12kmem_cache_s
 2127      E7800000 
 2128              	.LVL216:
 2129              	.L120:
 453:src/slabAllocator.cpp **** }
 2130              		.loc 1 453 1
 2131 0cd4 83308102 		ld	ra,40(sp)
 2132              		.cfi_remember_state
 2133              		.cfi_restore 1
 2134 0cd8 03340102 		ld	s0,32(sp)
 2135              		.cfi_restore 8
 2136              		.cfi_def_cfa 2, 48
 2137 0cdc 83348101 		ld	s1,24(sp)
 2138              		.cfi_restore 9
 2139 0ce0 03390101 		ld	s2,16(sp)
 2140              		.cfi_restore 18
 2141 0ce4 83398100 		ld	s3,8(sp)
 2142              		.cfi_restore 19
 2143              	.LVL217:
 2144 0ce8 033A0100 		ld	s4,0(sp)
 2145              		.cfi_restore 20
 2146 0cec 13010103 		addi	sp,sp,48
 2147              		.cfi_def_cfa_offset 0
 2148 0cf0 67800000 		jr	ra
 2149              	.LVL218:
 2150              	.L127:
 2151              		.cfi_restore_state
 440:src/slabAllocator.cpp ****         slabAllocator->cachesBuffers[index]->slabs_empty = nullptr;
 2152              		.loc 1 440 9 is_stmt 1
 440:src/slabAllocator.cpp ****         slabAllocator->cachesBuffers[index]->slabs_empty = nullptr;
 2153              		.loc 1 440 78 is_stmt 0
 2154 0cf4 13050907 		addi	a0,s2,112
 2155 0cf8 97000000 		call	_Z16kmem_cache_allocP12kmem_cache_s
 2155      E7800000 
 2156              	.LVL219:
 440:src/slabAllocator.cpp ****         slabAllocator->cachesBuffers[index]->slabs_empty = nullptr;
 2157              		.loc 1 440 45
 2158 0d00 139A3400 		slli	s4,s1,3
 2159 0d04 33094901 		add	s2,s2,s4
 2160 0d08 2334A900 		sd	a0,8(s2)
 441:src/slabAllocator.cpp ****         slabAllocator->cachesBuffers[index]->slabs_partial = nullptr;
 2161              		.loc 1 441 9 is_stmt 1
 441:src/slabAllocator.cpp ****         slabAllocator->cachesBuffers[index]->slabs_partial = nullptr;
 2162              		.loc 1 441 43 is_stmt 0
 2163 0d0c 17090000 		lla	s2,.LANCHOR0
 2163      13090900 
 2164 0d14 83370900 		ld	a5,0(s2)
 2165 0d18 B3874701 		add	a5,a5,s4
 2166 0d1c 03B78700 		ld	a4,8(a5)
 441:src/slabAllocator.cpp ****         slabAllocator->cachesBuffers[index]->slabs_partial = nullptr;
 2167              		.loc 1 441 58
 2168 0d20 23300704 		sd	zero,64(a4)
 442:src/slabAllocator.cpp ****         slabAllocator->cachesBuffers[index]->slabs_full = nullptr;
 2169              		.loc 1 442 9 is_stmt 1
 442:src/slabAllocator.cpp ****         slabAllocator->cachesBuffers[index]->slabs_full = nullptr;
GAS LISTING /tmp/ccyhTnIv.s 			page 52


 2170              		.loc 1 442 43 is_stmt 0
 2171 0d24 03B78700 		ld	a4,8(a5)
 442:src/slabAllocator.cpp ****         slabAllocator->cachesBuffers[index]->slabs_full = nullptr;
 2172              		.loc 1 442 60
 2173 0d28 23380704 		sd	zero,80(a4)
 443:src/slabAllocator.cpp ****         slabAllocator->cachesBuffers[index]->dtor = nullptr;
 2174              		.loc 1 443 9 is_stmt 1
 443:src/slabAllocator.cpp ****         slabAllocator->cachesBuffers[index]->dtor = nullptr;
 2175              		.loc 1 443 43 is_stmt 0
 2176 0d2c 03B78700 		ld	a4,8(a5)
 443:src/slabAllocator.cpp ****         slabAllocator->cachesBuffers[index]->dtor = nullptr;
 2177              		.loc 1 443 57
 2178 0d30 23340704 		sd	zero,72(a4)
 444:src/slabAllocator.cpp ****         slabAllocator->cachesBuffers[index]->ctor = nullptr;
 2179              		.loc 1 444 9 is_stmt 1
 444:src/slabAllocator.cpp ****         slabAllocator->cachesBuffers[index]->ctor = nullptr;
 2180              		.loc 1 444 43 is_stmt 0
 2181 0d34 03B78700 		ld	a4,8(a5)
 444:src/slabAllocator.cpp ****         slabAllocator->cachesBuffers[index]->ctor = nullptr;
 2182              		.loc 1 444 51
 2183 0d38 23380706 		sd	zero,112(a4)
 445:src/slabAllocator.cpp ****         strcpy("Cache for small buffers", slabAllocator->cachesBuffers[index]->cacheName);
 2184              		.loc 1 445 9 is_stmt 1
 445:src/slabAllocator.cpp ****         strcpy("Cache for small buffers", slabAllocator->cachesBuffers[index]->cacheName);
 2185              		.loc 1 445 43 is_stmt 0
 2186 0d3c 03B78700 		ld	a4,8(a5)
 445:src/slabAllocator.cpp ****         strcpy("Cache for small buffers", slabAllocator->cachesBuffers[index]->cacheName);
 2187              		.loc 1 445 51
 2188 0d40 23340706 		sd	zero,104(a4)
 446:src/slabAllocator.cpp ****         slabAllocator->cachesBuffers[index]->obj_size = size;
 2189              		.loc 1 446 9 is_stmt 1
 446:src/slabAllocator.cpp ****         slabAllocator->cachesBuffers[index]->obj_size = size;
 2190              		.loc 1 446 15 is_stmt 0
 2191 0d44 83B58700 		ld	a1,8(a5)
 2192 0d48 17050000 		lla	a0,.LC19
 2192      13050500 
 2193 0d50 97000000 		call	_Z6strcpyPKcPc
 2193      E7800000 
 2194              	.LVL220:
 447:src/slabAllocator.cpp ****         slabAllocator->cachesBuffers[index]->slab_size = getOptimalSlabSize(size);
 2195              		.loc 1 447 9 is_stmt 1
 447:src/slabAllocator.cpp ****         slabAllocator->cachesBuffers[index]->slab_size = getOptimalSlabSize(size);
 2196              		.loc 1 447 43 is_stmt 0
 2197 0d58 03390900 		ld	s2,0(s2)
 2198 0d5c 33094901 		add	s2,s2,s4
 2199 0d60 83378900 		ld	a5,8(s2)
 447:src/slabAllocator.cpp ****         slabAllocator->cachesBuffers[index]->slab_size = getOptimalSlabSize(size);
 2200              		.loc 1 447 55
 2201 0d64 23B03707 		sd	s3,96(a5)
 448:src/slabAllocator.cpp ****         slabAllocator->cachesBuffers[index]->errors = NO_ERROR;
 2202              		.loc 1 448 9 is_stmt 1
 448:src/slabAllocator.cpp ****         slabAllocator->cachesBuffers[index]->errors = NO_ERROR;
 2203              		.loc 1 448 43 is_stmt 0
 2204 0d68 033A8900 		ld	s4,8(s2)
 448:src/slabAllocator.cpp ****         slabAllocator->cachesBuffers[index]->errors = NO_ERROR;
 2205              		.loc 1 448 76
 2206 0d6c 13850900 		mv	a0,s3
GAS LISTING /tmp/ccyhTnIv.s 			page 53


 2207 0d70 97000000 		call	_Z18getOptimalSlabSizem
 2207      E7800000 
 2208              	.LVL221:
 448:src/slabAllocator.cpp ****         slabAllocator->cachesBuffers[index]->errors = NO_ERROR;
 2209              		.loc 1 448 56
 2210 0d78 233CAA04 		sd	a0,88(s4)
 449:src/slabAllocator.cpp ****     }
 2211              		.loc 1 449 9 is_stmt 1
 449:src/slabAllocator.cpp ****     }
 2212              		.loc 1 449 43 is_stmt 0
 2213 0d7c 83378900 		ld	a5,8(s2)
 449:src/slabAllocator.cpp ****     }
 2214              		.loc 1 449 53
 2215 0d80 23AC0706 		sw	zero,120(a5)
 2216 0d84 6FF05FF3 		j	.L123
 2217              		.cfi_endproc
 2218              	.LFE28:
 2220              		.align	2
 2221              		.globl	_Z5kfreePKv
 2223              	_Z5kfreePKv:
 2224              	.LFB29:
 454:src/slabAllocator.cpp **** 
 455:src/slabAllocator.cpp **** void kfree(const void *objp)
 456:src/slabAllocator.cpp **** {
 2225              		.loc 1 456 1 is_stmt 1
 2226              		.cfi_startproc
 2227              	.LVL222:
 457:src/slabAllocator.cpp ****     if(objp == nullptr)
 2228              		.loc 1 457 5
 2229 0d88 63020508 		beqz	a0,.L133
 456:src/slabAllocator.cpp ****     if(objp == nullptr)
 2230              		.loc 1 456 1 is_stmt 0
 2231 0d8c 130101FE 		addi	sp,sp,-32
 2232              		.cfi_def_cfa_offset 32
 2233 0d90 233C1100 		sd	ra,24(sp)
 2234 0d94 23388100 		sd	s0,16(sp)
 2235 0d98 23349100 		sd	s1,8(sp)
 2236 0d9c 23302101 		sd	s2,0(sp)
 2237              		.cfi_offset 1, -8
 2238              		.cfi_offset 8, -16
 2239              		.cfi_offset 9, -24
 2240              		.cfi_offset 18, -32
 2241 0da0 13040102 		addi	s0,sp,32
 2242              		.cfi_def_cfa 8, 0
 2243 0da4 13090500 		mv	s2,a0
 2244              	.LBB26:
 458:src/slabAllocator.cpp ****         return;
 459:src/slabAllocator.cpp ****     slab_t* slab = nullptr;
 460:src/slabAllocator.cpp ****     for(size_t i = 0;i < CACHE_BUFFER_SIZE;i++)
 2245              		.loc 1 460 16
 2246 0da8 93040000 		li	s1,0
 2247              	.LBE26:
 459:src/slabAllocator.cpp ****     for(size_t i = 0;i < CACHE_BUFFER_SIZE;i++)
 2248              		.loc 1 459 13
 2249 0dac 13050000 		li	a0,0
 2250              	.LVL223:
 2251              	.L131:
GAS LISTING /tmp/ccyhTnIv.s 			page 54


 2252              	.LBB27:
 2253              		.loc 1 460 24 is_stmt 1 discriminator 1
 2254 0db0 9307C000 		li	a5,12
 2255 0db4 63E89702 		bgtu	s1,a5,.L130
 461:src/slabAllocator.cpp ****     {
 462:src/slabAllocator.cpp ****         slab = findSlab(slabAllocator->cachesBuffers[i], objp);
 2256              		.loc 1 462 9
 2257              		.loc 1 462 24 is_stmt 0
 2258 0db8 93973400 		slli	a5,s1,3
 2259 0dbc 17070000 		ld	a4,.LANCHOR0
 2259      03370700 
 2260 0dc4 B307F700 		add	a5,a4,a5
 2261 0dc8 93050900 		mv	a1,s2
 2262 0dcc 03B58700 		ld	a0,8(a5)
 2263              	.LVL224:
 2264 0dd0 97000000 		call	_Z8findSlabP12kmem_cache_sPKv
 2264      E7800000 
 2265              	.LVL225:
 463:src/slabAllocator.cpp ****         if(slab != nullptr) break;
 2266              		.loc 1 463 9 is_stmt 1
 2267 0dd8 63160500 		bnez	a0,.L130
 460:src/slabAllocator.cpp ****     {
 2268              		.loc 1 460 5 discriminator 2
 2269 0ddc 93841400 		addi	s1,s1,1
 2270              	.LVL226:
 2271 0de0 6FF01FFD 		j	.L131
 2272              	.L130:
 2273              	.LBE27:
 464:src/slabAllocator.cpp ****     }
 465:src/slabAllocator.cpp ****     if(slab != nullptr)
 2274              		.loc 1 465 5
 2275 0de4 63080500 		beqz	a0,.L128
 466:src/slabAllocator.cpp ****     {
 467:src/slabAllocator.cpp ****         free_slab_object(slab, objp);
 2276              		.loc 1 467 9
 2277              		.loc 1 467 25 is_stmt 0
 2278 0de8 93050900 		mv	a1,s2
 2279 0dec 97000000 		call	_Z16free_slab_objectP6slab_sPKv
 2279      E7800000 
 2280              	.LVL227:
 2281              	.L128:
 468:src/slabAllocator.cpp ****     }
 469:src/slabAllocator.cpp **** }
 2282              		.loc 1 469 1
 2283 0df4 83308101 		ld	ra,24(sp)
 2284              		.cfi_restore 1
 2285 0df8 03340101 		ld	s0,16(sp)
 2286              		.cfi_restore 8
 2287              		.cfi_def_cfa 2, 32
 2288 0dfc 83348100 		ld	s1,8(sp)
 2289              		.cfi_restore 9
 2290              	.LVL228:
 2291 0e00 03390100 		ld	s2,0(sp)
 2292              		.cfi_restore 18
 2293              	.LVL229:
 2294 0e04 13010102 		addi	sp,sp,32
 2295              		.cfi_def_cfa_offset 0
GAS LISTING /tmp/ccyhTnIv.s 			page 55


 2296 0e08 67800000 		jr	ra
 2297              	.LVL230:
 2298              	.L133:
 2299 0e0c 67800000 		ret
 2300              		.cfi_endproc
 2301              	.LFE29:
 2303              		.align	2
 2304              		.globl	_Z17destroy_slab_listP6slab_s
 2306              	_Z17destroy_slab_listP6slab_s:
 2307              	.LFB30:
 470:src/slabAllocator.cpp **** 
 471:src/slabAllocator.cpp **** int destroy_slab_list(slab_t* slab)
 472:src/slabAllocator.cpp **** {
 2308              		.loc 1 472 1 is_stmt 1
 2309              		.cfi_startproc
 2310              	.LVL231:
 2311 0e10 130101FD 		addi	sp,sp,-48
 2312              		.cfi_def_cfa_offset 48
 2313 0e14 23341102 		sd	ra,40(sp)
 2314 0e18 23308102 		sd	s0,32(sp)
 2315 0e1c 233C9100 		sd	s1,24(sp)
 2316 0e20 23382101 		sd	s2,16(sp)
 2317 0e24 23343101 		sd	s3,8(sp)
 2318              		.cfi_offset 1, -8
 2319              		.cfi_offset 8, -16
 2320              		.cfi_offset 9, -24
 2321              		.cfi_offset 18, -32
 2322              		.cfi_offset 19, -40
 2323 0e28 13040103 		addi	s0,sp,48
 2324              		.cfi_def_cfa 8, 0
 473:src/slabAllocator.cpp ****     if(slab == nullptr) return 0;
 2325              		.loc 1 473 5
 2326 0e2c 63000504 		beqz	a0,.L139
 2327 0e30 93050500 		mv	a1,a0
 474:src/slabAllocator.cpp ****     size_t sz = slab->owner->slab_size;
 2328              		.loc 1 474 5
 2329              		.loc 1 474 23 is_stmt 0
 2330 0e34 83370501 		ld	a5,16(a0)
 2331              		.loc 1 474 12
 2332 0e38 03B98705 		ld	s2,88(a5)
 2333              	.LVL232:
 475:src/slabAllocator.cpp ****     int totalBlocks = 0;
 2334              		.loc 1 475 5 is_stmt 1
 2335              		.loc 1 475 9 is_stmt 0
 2336 0e3c 93040000 		li	s1,0
 2337              	.LVL233:
 2338              	.L138:
 476:src/slabAllocator.cpp ****     while(slab != nullptr)
 2339              		.loc 1 476 5 is_stmt 1
 2340              		.loc 1 476 16
 2341 0e40 63880502 		beqz	a1,.L137
 2342              	.LBB28:
 477:src/slabAllocator.cpp ****     {
 478:src/slabAllocator.cpp ****         slab_t* nextSlab = slab->next;
 2343              		.loc 1 478 9
 2344              		.loc 1 478 17 is_stmt 0
 2345 0e44 83B98500 		ld	s3,8(a1)
GAS LISTING /tmp/ccyhTnIv.s 			page 56


 2346              	.LVL234:
 479:src/slabAllocator.cpp ****         buddy_free(slabAllocator->buddy, slab, sz);
 2347              		.loc 1 479 9 is_stmt 1
 2348              		.loc 1 479 19 is_stmt 0
 2349 0e48 13060900 		mv	a2,s2
 2350 0e4c 97070000 		ld	a5,.LANCHOR0
 2350      83B70700 
 2351 0e54 03B50700 		ld	a0,0(a5)
 2352 0e58 97000000 		call	_Z10buddy_freeP14buddyAllocatorPvm@plt
 2352      E7800000 
 2353              	.LVL235:
 480:src/slabAllocator.cpp ****         slab = nextSlab;
 2354              		.loc 1 480 9 is_stmt 1
 481:src/slabAllocator.cpp ****         totalBlocks+=sz;
 2355              		.loc 1 481 9
 2356              		.loc 1 481 20 is_stmt 0
 2357 0e60 BB049900 		addw	s1,s2,s1
 2358              	.LVL236:
 480:src/slabAllocator.cpp ****         slab = nextSlab;
 2359              		.loc 1 480 14
 2360 0e64 93850900 		mv	a1,s3
 2361              	.LBE28:
 476:src/slabAllocator.cpp ****     {
 2362              		.loc 1 476 5
 2363 0e68 6FF09FFD 		j	.L138
 2364              	.LVL237:
 2365              	.L139:
 473:src/slabAllocator.cpp ****     size_t sz = slab->owner->slab_size;
 2366              		.loc 1 473 32
 2367 0e6c 93040000 		li	s1,0
 2368              	.LVL238:
 2369              	.L137:
 482:src/slabAllocator.cpp ****     }
 483:src/slabAllocator.cpp ****     return totalBlocks;
 484:src/slabAllocator.cpp **** }
 2370              		.loc 1 484 1
 2371 0e70 13850400 		mv	a0,s1
 2372 0e74 83308102 		ld	ra,40(sp)
 2373              		.cfi_restore 1
 2374 0e78 03340102 		ld	s0,32(sp)
 2375              		.cfi_restore 8
 2376              		.cfi_def_cfa 2, 48
 2377 0e7c 83348101 		ld	s1,24(sp)
 2378              		.cfi_restore 9
 2379 0e80 03390101 		ld	s2,16(sp)
 2380              		.cfi_restore 18
 2381 0e84 83398100 		ld	s3,8(sp)
 2382              		.cfi_restore 19
 2383 0e88 13010103 		addi	sp,sp,48
 2384              		.cfi_def_cfa_offset 0
 2385 0e8c 67800000 		jr	ra
 2386              		.cfi_endproc
 2387              	.LFE30:
 2389              		.align	2
 2390              		.globl	_Z18kmem_cache_destroyP12kmem_cache_s
 2392              	_Z18kmem_cache_destroyP12kmem_cache_s:
 2393              	.LFB31:
GAS LISTING /tmp/ccyhTnIv.s 			page 57


 485:src/slabAllocator.cpp **** 
 486:src/slabAllocator.cpp **** void kmem_cache_destroy(kmem_cache_t *cachep)
 487:src/slabAllocator.cpp **** {
 2394              		.loc 1 487 1 is_stmt 1
 2395              		.cfi_startproc
 2396              	.LVL239:
 2397 0e90 130101FE 		addi	sp,sp,-32
 2398              		.cfi_def_cfa_offset 32
 2399 0e94 233C1100 		sd	ra,24(sp)
 2400 0e98 23388100 		sd	s0,16(sp)
 2401 0e9c 23349100 		sd	s1,8(sp)
 2402              		.cfi_offset 1, -8
 2403              		.cfi_offset 8, -16
 2404              		.cfi_offset 9, -24
 2405 0ea0 13040102 		addi	s0,sp,32
 2406              		.cfi_def_cfa 8, 0
 2407 0ea4 93040500 		mv	s1,a0
 488:src/slabAllocator.cpp ****     if(cachep->slabs_partial != nullptr || cachep->slabs_full != nullptr)
 2408              		.loc 1 488 5
 2409              		.loc 1 488 16 is_stmt 0
 2410 0ea8 83370505 		ld	a5,80(a0)
 2411              		.loc 1 488 5
 2412 0eac 63820702 		beqz	a5,.L146
 2413              	.L142:
 489:src/slabAllocator.cpp ****     {
 490:src/slabAllocator.cpp ****         cachep->errors|=DESTROY_ERROR;
 2414              		.loc 1 490 9 is_stmt 1
 2415              		.loc 1 490 23 is_stmt 0
 2416 0eb0 83A78407 		lw	a5,120(s1)
 2417 0eb4 93E72700 		ori	a5,a5,2
 2418 0eb8 23ACF406 		sw	a5,120(s1)
 491:src/slabAllocator.cpp ****         return;
 2419              		.loc 1 491 9 is_stmt 1
 2420              	.LVL240:
 2421              	.L141:
 492:src/slabAllocator.cpp ****     }
 493:src/slabAllocator.cpp ****     destroy_slab_list(cachep->slabs_empty);
 494:src/slabAllocator.cpp ****     destroy_slab_list(cachep->slabs_partial);
 495:src/slabAllocator.cpp ****     destroy_slab_list(cachep->slabs_full);
 496:src/slabAllocator.cpp ****     kmem_cache_free(&slabAllocator->cacheOfCaches,cachep);
 497:src/slabAllocator.cpp **** }
 2422              		.loc 1 497 1 is_stmt 0
 2423 0ebc 83308101 		ld	ra,24(sp)
 2424              		.cfi_remember_state
 2425              		.cfi_restore 1
 2426 0ec0 03340101 		ld	s0,16(sp)
 2427              		.cfi_restore 8
 2428              		.cfi_def_cfa 2, 32
 2429 0ec4 83348100 		ld	s1,8(sp)
 2430              		.cfi_restore 9
 2431              	.LVL241:
 2432 0ec8 13010102 		addi	sp,sp,32
 2433              		.cfi_def_cfa_offset 0
 2434 0ecc 67800000 		jr	ra
 2435              	.LVL242:
 2436              	.L146:
 2437              		.cfi_restore_state
GAS LISTING /tmp/ccyhTnIv.s 			page 58


 488:src/slabAllocator.cpp ****     {
 2438              		.loc 1 488 52 discriminator 1
 2439 0ed0 83378504 		ld	a5,72(a0)
 488:src/slabAllocator.cpp ****     {
 2440              		.loc 1 488 41 discriminator 1
 2441 0ed4 E39E07FC 		bnez	a5,.L142
 493:src/slabAllocator.cpp ****     destroy_slab_list(cachep->slabs_partial);
 2442              		.loc 1 493 5 is_stmt 1
 493:src/slabAllocator.cpp ****     destroy_slab_list(cachep->slabs_partial);
 2443              		.loc 1 493 22 is_stmt 0
 2444 0ed8 03350504 		ld	a0,64(a0)
 2445 0edc 97000000 		call	_Z17destroy_slab_listP6slab_s
 2445      E7800000 
 2446              	.LVL243:
 494:src/slabAllocator.cpp ****     destroy_slab_list(cachep->slabs_full);
 2447              		.loc 1 494 5 is_stmt 1
 494:src/slabAllocator.cpp ****     destroy_slab_list(cachep->slabs_full);
 2448              		.loc 1 494 22 is_stmt 0
 2449 0ee4 03B50405 		ld	a0,80(s1)
 2450 0ee8 97000000 		call	_Z17destroy_slab_listP6slab_s
 2450      E7800000 
 2451              	.LVL244:
 495:src/slabAllocator.cpp ****     kmem_cache_free(&slabAllocator->cacheOfCaches,cachep);
 2452              		.loc 1 495 5 is_stmt 1
 495:src/slabAllocator.cpp ****     kmem_cache_free(&slabAllocator->cacheOfCaches,cachep);
 2453              		.loc 1 495 22 is_stmt 0
 2454 0ef0 03B58404 		ld	a0,72(s1)
 2455 0ef4 97000000 		call	_Z17destroy_slab_listP6slab_s
 2455      E7800000 
 2456              	.LVL245:
 496:src/slabAllocator.cpp **** }
 2457              		.loc 1 496 5 is_stmt 1
 496:src/slabAllocator.cpp **** }
 2458              		.loc 1 496 20 is_stmt 0
 2459 0efc 93850400 		mv	a1,s1
 2460 0f00 17050000 		ld	a0,.LANCHOR0
 2460      03350500 
 2461 0f08 13050507 		addi	a0,a0,112
 2462 0f0c 97000000 		call	_Z15kmem_cache_freeP12kmem_cache_sPv
 2462      E7800000 
 2463              	.LVL246:
 2464 0f14 6FF09FFA 		j	.L141
 2465              		.cfi_endproc
 2466              	.LFE31:
 2468              		.align	2
 2469              		.globl	_Z17kmem_cache_shrinkP12kmem_cache_s
 2471              	_Z17kmem_cache_shrinkP12kmem_cache_s:
 2472              	.LFB32:
 498:src/slabAllocator.cpp **** 
 499:src/slabAllocator.cpp **** int kmem_cache_shrink(kmem_cache_t *cachep)
 500:src/slabAllocator.cpp **** {
 2473              		.loc 1 500 1 is_stmt 1
 2474              		.cfi_startproc
 2475              	.LVL247:
 501:src/slabAllocator.cpp ****     if(cachep == nullptr)
 2476              		.loc 1 501 5
 2477 0f18 63000504 		beqz	a0,.L149
GAS LISTING /tmp/ccyhTnIv.s 			page 59


 500:src/slabAllocator.cpp ****     if(cachep == nullptr)
 2478              		.loc 1 500 1 is_stmt 0
 2479 0f1c 130101FE 		addi	sp,sp,-32
 2480              		.cfi_def_cfa_offset 32
 2481 0f20 233C1100 		sd	ra,24(sp)
 2482 0f24 23388100 		sd	s0,16(sp)
 2483 0f28 23349100 		sd	s1,8(sp)
 2484              		.cfi_offset 1, -8
 2485              		.cfi_offset 8, -16
 2486              		.cfi_offset 9, -24
 2487 0f2c 13040102 		addi	s0,sp,32
 2488              		.cfi_def_cfa 8, 0
 2489 0f30 93040500 		mv	s1,a0
 502:src/slabAllocator.cpp ****         return 0;
 503:src/slabAllocator.cpp ****     int totalBlocks = destroy_slab_list(cachep->slabs_empty);
 2490              		.loc 1 503 5 is_stmt 1
 2491              		.loc 1 503 40 is_stmt 0
 2492 0f34 03350504 		ld	a0,64(a0)
 2493              	.LVL248:
 2494 0f38 97000000 		call	_Z17destroy_slab_listP6slab_s
 2494      E7800000 
 2495              	.LVL249:
 504:src/slabAllocator.cpp ****     cachep->slabs_empty = nullptr;
 2496              		.loc 1 504 5 is_stmt 1
 2497              		.loc 1 504 25 is_stmt 0
 2498 0f40 23B00404 		sd	zero,64(s1)
 505:src/slabAllocator.cpp ****     return totalBlocks;
 2499              		.loc 1 505 5 is_stmt 1
 506:src/slabAllocator.cpp **** }
 2500              		.loc 1 506 1 is_stmt 0
 2501 0f44 83308101 		ld	ra,24(sp)
 2502              		.cfi_restore 1
 2503 0f48 03340101 		ld	s0,16(sp)
 2504              		.cfi_restore 8
 2505              		.cfi_def_cfa 2, 32
 2506 0f4c 83348100 		ld	s1,8(sp)
 2507              		.cfi_restore 9
 2508              	.LVL250:
 2509 0f50 13010102 		addi	sp,sp,32
 2510              		.cfi_def_cfa_offset 0
 2511 0f54 67800000 		jr	ra
 2512              	.LVL251:
 2513              	.L149:
 502:src/slabAllocator.cpp ****     int totalBlocks = destroy_slab_list(cachep->slabs_empty);
 2514              		.loc 1 502 16
 2515 0f58 13050000 		li	a0,0
 2516              	.LVL252:
 2517              		.loc 1 506 1
 2518 0f5c 67800000 		ret
 2519              		.cfi_endproc
 2520              	.LFE32:
 2522              		.section	.rodata.str1.8
 2523              		.align	3
 2524              	.LC20:
 2525 0220 45585041 		.string	"EXPAND ERROR\n"
 2525      4E442045 
 2525      52524F52 
GAS LISTING /tmp/ccyhTnIv.s 			page 60


 2525      0A00
 2526 022e 0000     		.align	3
 2527              	.LC21:
 2528 0230 44455354 		.string	"DESTROY ERROR"
 2528      524F5920 
 2528      4552524F 
 2528      5200
 2529              		.text
 2530              		.align	2
 2531              		.globl	_Z16kmem_cache_errorP12kmem_cache_s
 2533              	_Z16kmem_cache_errorP12kmem_cache_s:
 2534              	.LFB33:
 507:src/slabAllocator.cpp **** 
 508:src/slabAllocator.cpp **** int kmem_cache_error(kmem_cache_t *cachep)
 509:src/slabAllocator.cpp **** {
 2535              		.loc 1 509 1 is_stmt 1
 2536              		.cfi_startproc
 2537              	.LVL253:
 510:src/slabAllocator.cpp ****     if(cachep == nullptr)
 2538              		.loc 1 510 5
 2539 0f60 630A0506 		beqz	a0,.L158
 509:src/slabAllocator.cpp ****     if(cachep == nullptr)
 2540              		.loc 1 509 1 is_stmt 0
 2541 0f64 130101FE 		addi	sp,sp,-32
 2542              		.cfi_def_cfa_offset 32
 2543 0f68 233C1100 		sd	ra,24(sp)
 2544 0f6c 23388100 		sd	s0,16(sp)
 2545 0f70 23349100 		sd	s1,8(sp)
 2546              		.cfi_offset 1, -8
 2547              		.cfi_offset 8, -16
 2548              		.cfi_offset 9, -24
 2549 0f74 13040102 		addi	s0,sp,32
 2550              		.cfi_def_cfa 8, 0
 2551 0f78 93040500 		mv	s1,a0
 511:src/slabAllocator.cpp ****         return 0;
 512:src/slabAllocator.cpp **** 
 513:src/slabAllocator.cpp ****     if(cachep->errors & EXPAND_ERROR)
 2552              		.loc 1 513 5 is_stmt 1
 2553              		.loc 1 513 16 is_stmt 0
 2554 0f7c 83278507 		lw	a5,120(a0)
 2555              		.loc 1 513 23
 2556 0f80 93F71700 		andi	a5,a5,1
 2557              		.loc 1 513 5
 2558 0f84 63940702 		bnez	a5,.L163
 2559              	.LVL254:
 2560              	.L156:
 514:src/slabAllocator.cpp ****         KConsole::trapPrintString("EXPAND ERROR\n");
 515:src/slabAllocator.cpp ****     if(cachep->errors & DESTROY_ERROR)
 2561              		.loc 1 515 5 is_stmt 1
 2562              		.loc 1 515 16 is_stmt 0
 2563 0f88 83A78407 		lw	a5,120(s1)
 2564              		.loc 1 515 23
 2565 0f8c 93F72700 		andi	a5,a5,2
 2566              		.loc 1 515 5
 2567 0f90 63980702 		bnez	a5,.L164
 2568              	.L157:
 516:src/slabAllocator.cpp ****         KConsole::trapPrintString("DESTROY ERROR");
GAS LISTING /tmp/ccyhTnIv.s 			page 61


 517:src/slabAllocator.cpp **** 
 518:src/slabAllocator.cpp ****     return cachep->errors;
 2569              		.loc 1 518 5 is_stmt 1
 2570              		.loc 1 518 20 is_stmt 0
 2571 0f94 03A58407 		lw	a0,120(s1)
 519:src/slabAllocator.cpp **** }
 2572              		.loc 1 519 1
 2573 0f98 83308101 		ld	ra,24(sp)
 2574              		.cfi_remember_state
 2575              		.cfi_restore 1
 2576 0f9c 03340101 		ld	s0,16(sp)
 2577              		.cfi_restore 8
 2578              		.cfi_def_cfa 2, 32
 2579 0fa0 83348100 		ld	s1,8(sp)
 2580              		.cfi_restore 9
 2581              	.LVL255:
 2582 0fa4 13010102 		addi	sp,sp,32
 2583              		.cfi_def_cfa_offset 0
 2584 0fa8 67800000 		jr	ra
 2585              	.LVL256:
 2586              	.L163:
 2587              		.cfi_restore_state
 514:src/slabAllocator.cpp ****         KConsole::trapPrintString("EXPAND ERROR\n");
 2588              		.loc 1 514 9 is_stmt 1
 514:src/slabAllocator.cpp ****         KConsole::trapPrintString("EXPAND ERROR\n");
 2589              		.loc 1 514 34 is_stmt 0
 2590 0fac 17050000 		lla	a0,.LC20
 2590      13050500 
 2591 0fb4 97000000 		call	_ZN8KConsole15trapPrintStringEPKc@plt
 2591      E7800000 
 2592              	.LVL257:
 2593 0fbc 6FF0DFFC 		j	.L156
 2594              	.L164:
 516:src/slabAllocator.cpp ****         KConsole::trapPrintString("DESTROY ERROR");
 2595              		.loc 1 516 9 is_stmt 1
 516:src/slabAllocator.cpp ****         KConsole::trapPrintString("DESTROY ERROR");
 2596              		.loc 1 516 34 is_stmt 0
 2597 0fc0 17050000 		lla	a0,.LC21
 2597      13050500 
 2598 0fc8 97000000 		call	_ZN8KConsole15trapPrintStringEPKc@plt
 2598      E7800000 
 2599              	.LVL258:
 2600 0fd0 6FF05FFC 		j	.L157
 2601              	.LVL259:
 2602              	.L158:
 2603              		.cfi_def_cfa_register 2
 2604              		.cfi_restore 1
 2605              		.cfi_restore 8
 2606              		.cfi_restore 9
 511:src/slabAllocator.cpp **** 
 2607              		.loc 1 511 16
 2608 0fd4 13050000 		li	a0,0
 2609              	.LVL260:
 2610              		.loc 1 519 1
 2611 0fd8 67800000 		ret
 2612              		.cfi_endproc
 2613              	.LFE33:
GAS LISTING /tmp/ccyhTnIv.s 			page 62


 2615              		.bss
 2616              		.align	3
 2617              		.set	.LANCHOR0,. + 0
 2620              	_ZL13slabAllocator:
 2621 0000 00000000 		.zero	8
 2621      00000000 
 2622              		.text
 2623              	.Letext0:
 2624              		.file 2 "src/../h/../lib/hw.h"
 2625              		.file 3 "src/../h/slabAllocator.hpp"
 2626              		.file 4 "src/../h/buddyAllocator.hpp"
 2627              		.file 5 "src/../h/PCB.hpp"
 2628              		.file 6 "src/../h/KSemaphore.hpp"
 2629              		.file 7 "src/../h/KConsole.hpp"
GAS LISTING /tmp/ccyhTnIv.s 			page 63


DEFINED SYMBOLS
                            *ABS*:0000000000000000 slabAllocator.cpp
     /tmp/ccyhTnIv.s:9      .text:0000000000000000 _Z6strcpyPKcPc
     /tmp/ccyhTnIv.s:13     .text:0000000000000000 .L0 
     /tmp/ccyhTnIv.s:15     .text:0000000000000000 .L0 
     /tmp/ccyhTnIv.s:16     .text:0000000000000004 .L0 
     /tmp/ccyhTnIv.s:18     .text:0000000000000008 .L0 
     /tmp/ccyhTnIv.s:20     .text:000000000000000c .L0 
     /tmp/ccyhTnIv.s:23     .text:000000000000000c .L0 
     /tmp/ccyhTnIv.s:24     .text:000000000000000c .L0 
     /tmp/ccyhTnIv.s:25     .text:000000000000000c .L0 
     /tmp/ccyhTnIv.s:27     .text:0000000000000010 .L0 
     /tmp/ccyhTnIv.s:29     .text:0000000000000014 .L0 
     /tmp/ccyhTnIv.s:30     .text:0000000000000014 .L0 
     /tmp/ccyhTnIv.s:32     .text:0000000000000018 .L0 
     /tmp/ccyhTnIv.s:33     .text:0000000000000018 .L0 
     /tmp/ccyhTnIv.s:36     .text:000000000000001c .L0 
     /tmp/ccyhTnIv.s:37     .text:000000000000001c .L0 
     /tmp/ccyhTnIv.s:40     .text:0000000000000020 .L0 
     /tmp/ccyhTnIv.s:43     .text:0000000000000024 .L0 
     /tmp/ccyhTnIv.s:44     .text:0000000000000024 .L0 
     /tmp/ccyhTnIv.s:46     .text:0000000000000028 .L0 
     /tmp/ccyhTnIv.s:47     .text:000000000000002c .L0 
     /tmp/ccyhTnIv.s:48     .text:000000000000002c .L0 
     /tmp/ccyhTnIv.s:50     .text:0000000000000030 .L0 
     /tmp/ccyhTnIv.s:52     .text:0000000000000034 .L0 
     /tmp/ccyhTnIv.s:63     .text:0000000000000034 _Z19slab_allocator_initP14buddyAllocator
     /tmp/ccyhTnIv.s:66     .text:0000000000000034 .L0 
     /tmp/ccyhTnIv.s:68     .text:0000000000000034 .L0 
     /tmp/ccyhTnIv.s:69     .text:0000000000000038 .L0 
     /tmp/ccyhTnIv.s:74     .text:0000000000000048 .L0 
     /tmp/ccyhTnIv.s:75     .text:0000000000000048 .L0 
     /tmp/ccyhTnIv.s:76     .text:0000000000000048 .L0 
     /tmp/ccyhTnIv.s:77     .text:0000000000000048 .L0 
     /tmp/ccyhTnIv.s:79     .text:000000000000004c .L0 
     /tmp/ccyhTnIv.s:82     .text:0000000000000050 .L0 
     /tmp/ccyhTnIv.s:83     .text:0000000000000050 .L0 
     /tmp/ccyhTnIv.s:86     .text:0000000000000054 .L0 
     /tmp/ccyhTnIv.s:87     .text:0000000000000054 .L0 
     /tmp/ccyhTnIv.s:91     .text:0000000000000058 .L0 
     /tmp/ccyhTnIv.s:92     .text:0000000000000058 .L0 
     /tmp/ccyhTnIv.s:97     .text:0000000000000060 .L0 
     /tmp/ccyhTnIv.s:98     .text:0000000000000060 .L0 
     /tmp/ccyhTnIv.s:102    .text:000000000000006c .L0 
     /tmp/ccyhTnIv.s:106    .text:0000000000000070 .L0 
     /tmp/ccyhTnIv.s:110    .text:0000000000000078 .L0 
     /tmp/ccyhTnIv.s:111    .text:0000000000000078 .L0 
     /tmp/ccyhTnIv.s:116    .text:000000000000008c .L0 
     /tmp/ccyhTnIv.s:117    .text:000000000000008c .L0 
     /tmp/ccyhTnIv.s:119    .text:0000000000000090 .L0 
     /tmp/ccyhTnIv.s:120    .text:0000000000000090 .L0 
     /tmp/ccyhTnIv.s:122    .text:0000000000000094 .L0 
     /tmp/ccyhTnIv.s:123    .text:0000000000000094 .L0 
     /tmp/ccyhTnIv.s:125    .text:0000000000000098 .L0 
     /tmp/ccyhTnIv.s:126    .text:0000000000000098 .L0 
     /tmp/ccyhTnIv.s:128    .text:000000000000009c .L0 
     /tmp/ccyhTnIv.s:129    .text:000000000000009c .L0 
GAS LISTING /tmp/ccyhTnIv.s 			page 64


     /tmp/ccyhTnIv.s:131    .text:00000000000000a0 .L0 
     /tmp/ccyhTnIv.s:132    .text:00000000000000a0 .L0 
     /tmp/ccyhTnIv.s:135    .text:00000000000000a8 .L0 
     /tmp/ccyhTnIv.s:136    .text:00000000000000a8 .L0 
     /tmp/ccyhTnIv.s:139    .text:00000000000000b0 .L0 
     /tmp/ccyhTnIv.s:140    .text:00000000000000b0 .L0 
     /tmp/ccyhTnIv.s:142    .text:00000000000000b4 .L0 
     /tmp/ccyhTnIv.s:143    .text:00000000000000b4 .L0 
     /tmp/ccyhTnIv.s:145    .text:00000000000000bc .L0 
     /tmp/ccyhTnIv.s:147    .text:00000000000000c0 .L0 
     /tmp/ccyhTnIv.s:148    .text:00000000000000c0 .L0 
     /tmp/ccyhTnIv.s:150    .text:00000000000000c4 .L0 
     /tmp/ccyhTnIv.s:153    .text:00000000000000c8 .L0 
     /tmp/ccyhTnIv.s:156    .text:00000000000000cc .L0 
     /tmp/ccyhTnIv.s:158    .text:00000000000000d0 .L0 
     /tmp/ccyhTnIv.s:164    .text:00000000000000d0 _Z14allocateObjectP6slab_s
     /tmp/ccyhTnIv.s:167    .text:00000000000000d0 .L0 
     /tmp/ccyhTnIv.s:169    .text:00000000000000d0 .L0 
     /tmp/ccyhTnIv.s:170    .text:00000000000000d4 .L0 
     /tmp/ccyhTnIv.s:172    .text:00000000000000d8 .L0 
     /tmp/ccyhTnIv.s:174    .text:00000000000000dc .L0 
     /tmp/ccyhTnIv.s:178    .text:00000000000000e0 .L0 
     /tmp/ccyhTnIv.s:179    .text:00000000000000e0 .L0 
     /tmp/ccyhTnIv.s:181    .text:00000000000000e0 .L0 
     /tmp/ccyhTnIv.s:182    .text:00000000000000e0 .L0 
     /tmp/ccyhTnIv.s:186    .text:00000000000000e4 .L0 
     /tmp/ccyhTnIv.s:187    .text:00000000000000e4 .L0 
     /tmp/ccyhTnIv.s:189    .text:00000000000000e8 .L0 
     /tmp/ccyhTnIv.s:192    .text:00000000000000ec .L0 
     /tmp/ccyhTnIv.s:193    .text:00000000000000ec .L0 
     /tmp/ccyhTnIv.s:195    .text:00000000000000f0 .L0 
     /tmp/ccyhTnIv.s:199    .text:00000000000000f8 .L0 
     /tmp/ccyhTnIv.s:200    .text:00000000000000f8 .L0 
     /tmp/ccyhTnIv.s:202    .text:00000000000000fc .L0 
     /tmp/ccyhTnIv.s:205    .text:0000000000000104 .L0 
     /tmp/ccyhTnIv.s:207    .text:0000000000000108 .L0 
     /tmp/ccyhTnIv.s:210    .text:000000000000010c .L0 
     /tmp/ccyhTnIv.s:216    .text:0000000000000114 .L0 
     /tmp/ccyhTnIv.s:217    .text:0000000000000114 .L0 
     /tmp/ccyhTnIv.s:219    .text:0000000000000118 .L0 
     /tmp/ccyhTnIv.s:222    .text:000000000000011c .L0 
     /tmp/ccyhTnIv.s:224    .text:0000000000000120 .L0 
     /tmp/ccyhTnIv.s:228    .text:0000000000000128 .L0 
     /tmp/ccyhTnIv.s:229    .text:0000000000000128 .L0 
     /tmp/ccyhTnIv.s:232    .text:000000000000012c .L0 
     /tmp/ccyhTnIv.s:238    .text:0000000000000130 .L0 
     /tmp/ccyhTnIv.s:241    .text:0000000000000134 .L0 
     /tmp/ccyhTnIv.s:245    .text:0000000000000138 .L0 
     /tmp/ccyhTnIv.s:247    .text:000000000000013c .L0 
     /tmp/ccyhTnIv.s:248    .text:000000000000013c .L0 
     /tmp/ccyhTnIv.s:254    .text:000000000000014c .L0 
     /tmp/ccyhTnIv.s:256    .text:0000000000000150 .L0 
     /tmp/ccyhTnIv.s:258    .text:0000000000000154 .L0 
     /tmp/ccyhTnIv.s:261    .text:000000000000015c .L0 
     /tmp/ccyhTnIv.s:264    .text:0000000000000164 .L0 
     /tmp/ccyhTnIv.s:266    .text:0000000000000168 .L0 
     /tmp/ccyhTnIv.s:268    .text:000000000000016c .L0 
GAS LISTING /tmp/ccyhTnIv.s 			page 65


     /tmp/ccyhTnIv.s:269    .text:000000000000016c .L0 
     /tmp/ccyhTnIv.s:271    .text:0000000000000170 .L0 
     /tmp/ccyhTnIv.s:275    .text:0000000000000178 .L0 
     /tmp/ccyhTnIv.s:276    .text:0000000000000178 .L0 
     /tmp/ccyhTnIv.s:277    .text:000000000000017c .L0 
     /tmp/ccyhTnIv.s:278    .text:000000000000017c .L0 
     /tmp/ccyhTnIv.s:280    .text:0000000000000180 .L0 
     /tmp/ccyhTnIv.s:282    .text:0000000000000184 .L0 
     /tmp/ccyhTnIv.s:288    .text:0000000000000184 _Z4fullP6slab_s
     /tmp/ccyhTnIv.s:291    .text:0000000000000184 .L0 
     /tmp/ccyhTnIv.s:293    .text:0000000000000184 .L0 
     /tmp/ccyhTnIv.s:294    .text:0000000000000188 .L0 
     /tmp/ccyhTnIv.s:296    .text:000000000000018c .L0 
     /tmp/ccyhTnIv.s:298    .text:0000000000000190 .L0 
     /tmp/ccyhTnIv.s:300    .text:0000000000000190 .L0 
     /tmp/ccyhTnIv.s:301    .text:0000000000000190 .L0 
     /tmp/ccyhTnIv.s:303    .text:0000000000000194 .L0 
     /tmp/ccyhTnIv.s:307    .text:000000000000019c .L0 
     /tmp/ccyhTnIv.s:309    .text:00000000000001a4 .L0 
     /tmp/ccyhTnIv.s:310    .text:00000000000001a4 .L0 
     /tmp/ccyhTnIv.s:312    .text:00000000000001a8 .L0 
     /tmp/ccyhTnIv.s:314    .text:00000000000001ac .L0 
     /tmp/ccyhTnIv.s:320    .text:00000000000001ac _Z5emptyP6slab_s
     /tmp/ccyhTnIv.s:323    .text:00000000000001ac .L0 
     /tmp/ccyhTnIv.s:325    .text:00000000000001ac .L0 
     /tmp/ccyhTnIv.s:326    .text:00000000000001b0 .L0 
     /tmp/ccyhTnIv.s:328    .text:00000000000001b4 .L0 
     /tmp/ccyhTnIv.s:330    .text:00000000000001b8 .L0 
     /tmp/ccyhTnIv.s:332    .text:00000000000001b8 .L0 
     /tmp/ccyhTnIv.s:333    .text:00000000000001b8 .L0 
     /tmp/ccyhTnIv.s:336    .text:00000000000001bc .L0 
     /tmp/ccyhTnIv.s:338    .text:00000000000001c4 .L0 
     /tmp/ccyhTnIv.s:339    .text:00000000000001c4 .L0 
     /tmp/ccyhTnIv.s:341    .text:00000000000001c8 .L0 
     /tmp/ccyhTnIv.s:343    .text:00000000000001cc .L0 
     /tmp/ccyhTnIv.s:349    .text:00000000000001cc _Z18insertIntoSlabListP6slab_sPS0_
     /tmp/ccyhTnIv.s:352    .text:00000000000001cc .L0 
     /tmp/ccyhTnIv.s:354    .text:00000000000001cc .L0 
     /tmp/ccyhTnIv.s:355    .text:00000000000001d0 .L0 
     /tmp/ccyhTnIv.s:357    .text:00000000000001d4 .L0 
     /tmp/ccyhTnIv.s:359    .text:00000000000001d8 .L0 
     /tmp/ccyhTnIv.s:361    .text:00000000000001d8 .L0 
     /tmp/ccyhTnIv.s:362    .text:00000000000001d8 .L0 
     /tmp/ccyhTnIv.s:364    .text:00000000000001dc .L0 
     /tmp/ccyhTnIv.s:365    .text:00000000000001dc .L0 
     /tmp/ccyhTnIv.s:367    .text:00000000000001e0 .L0 
     /tmp/ccyhTnIv.s:369    .text:00000000000001e4 .L0 
     /tmp/ccyhTnIv.s:371    .text:00000000000001e8 .L0 
     /tmp/ccyhTnIv.s:372    .text:00000000000001e8 .L0 
     /tmp/ccyhTnIv.s:375    .text:00000000000001ec .L0 
     /tmp/ccyhTnIv.s:376    .text:00000000000001ec .L0 
     /tmp/ccyhTnIv.s:378    .text:00000000000001f0 .L0 
     /tmp/ccyhTnIv.s:379    .text:00000000000001f4 .L0 
     /tmp/ccyhTnIv.s:380    .text:00000000000001f4 .L0 
     /tmp/ccyhTnIv.s:382    .text:00000000000001f8 .L0 
     /tmp/ccyhTnIv.s:384    .text:00000000000001fc .L0 
     /tmp/ccyhTnIv.s:390    .text:00000000000001fc _Z18removeFromSlabListP6slab_sPS0_
GAS LISTING /tmp/ccyhTnIv.s 			page 66


     /tmp/ccyhTnIv.s:393    .text:00000000000001fc .L0 
     /tmp/ccyhTnIv.s:395    .text:00000000000001fc .L0 
     /tmp/ccyhTnIv.s:396    .text:0000000000000200 .L0 
     /tmp/ccyhTnIv.s:398    .text:0000000000000204 .L0 
     /tmp/ccyhTnIv.s:400    .text:0000000000000208 .L0 
     /tmp/ccyhTnIv.s:402    .text:0000000000000208 .L0 
     /tmp/ccyhTnIv.s:403    .text:0000000000000208 .L0 
     /tmp/ccyhTnIv.s:405    .text:000000000000020c .L0 
     /tmp/ccyhTnIv.s:407    .text:0000000000000210 .L0 
     /tmp/ccyhTnIv.s:408    .text:0000000000000210 .L0 
     /tmp/ccyhTnIv.s:410    .text:0000000000000214 .L0 
     /tmp/ccyhTnIv.s:412    .text:0000000000000218 .L0 
     /tmp/ccyhTnIv.s:414    .text:000000000000021c .L0 
     /tmp/ccyhTnIv.s:415    .text:000000000000021c .L0 
     /tmp/ccyhTnIv.s:417    .text:0000000000000220 .L0 
     /tmp/ccyhTnIv.s:420    .text:0000000000000224 .L0 
     /tmp/ccyhTnIv.s:421    .text:0000000000000224 .L0 
     /tmp/ccyhTnIv.s:423    .text:0000000000000228 .L0 
     /tmp/ccyhTnIv.s:426    .text:000000000000022c .L0 
     /tmp/ccyhTnIv.s:427    .text:0000000000000230 .L0 
     /tmp/ccyhTnIv.s:428    .text:0000000000000230 .L0 
     /tmp/ccyhTnIv.s:429    .text:0000000000000230 .L0 
     /tmp/ccyhTnIv.s:431    .text:0000000000000234 .L0 
     /tmp/ccyhTnIv.s:434    .text:0000000000000238 .L0 
     /tmp/ccyhTnIv.s:436    .text:0000000000000238 .L0 
     /tmp/ccyhTnIv.s:437    .text:0000000000000238 .L0 
     /tmp/ccyhTnIv.s:439    .text:000000000000023c .L0 
     /tmp/ccyhTnIv.s:441    .text:0000000000000240 .L0 
     /tmp/ccyhTnIv.s:442    .text:0000000000000240 .L0 
     /tmp/ccyhTnIv.s:445    .text:0000000000000244 .L0 
     /tmp/ccyhTnIv.s:446    .text:0000000000000244 .L0 
     /tmp/ccyhTnIv.s:448    .text:0000000000000248 .L0 
     /tmp/ccyhTnIv.s:450    .text:000000000000024c .L0 
     /tmp/ccyhTnIv.s:451    .text:000000000000024c .L0 
     /tmp/ccyhTnIv.s:453    .text:0000000000000250 .L0 
     /tmp/ccyhTnIv.s:455    .text:0000000000000258 .L0 
     /tmp/ccyhTnIv.s:461    .text:0000000000000258 _Z16putPartialToFullP12kmem_cache_s
     /tmp/ccyhTnIv.s:464    .text:0000000000000258 .L0 
     /tmp/ccyhTnIv.s:466    .text:0000000000000258 .L0 
     /tmp/ccyhTnIv.s:467    .text:000000000000025c .L0 
     /tmp/ccyhTnIv.s:472    .text:000000000000026c .L0 
     /tmp/ccyhTnIv.s:473    .text:000000000000026c .L0 
     /tmp/ccyhTnIv.s:474    .text:000000000000026c .L0 
     /tmp/ccyhTnIv.s:475    .text:000000000000026c .L0 
     /tmp/ccyhTnIv.s:477    .text:0000000000000270 .L0 
     /tmp/ccyhTnIv.s:480    .text:0000000000000274 .L0 
     /tmp/ccyhTnIv.s:481    .text:0000000000000274 .L0 
     /tmp/ccyhTnIv.s:484    .text:0000000000000278 .L0 
     /tmp/ccyhTnIv.s:485    .text:0000000000000278 .L0 
     /tmp/ccyhTnIv.s:491    .text:0000000000000288 .L0 
     /tmp/ccyhTnIv.s:492    .text:0000000000000288 .L0 
     /tmp/ccyhTnIv.s:497    .text:0000000000000298 .L0 
     /tmp/ccyhTnIv.s:498    .text:000000000000029c .L0 
     /tmp/ccyhTnIv.s:500    .text:00000000000002a0 .L0 
     /tmp/ccyhTnIv.s:501    .text:00000000000002a0 .L0 
     /tmp/ccyhTnIv.s:503    .text:00000000000002a4 .L0 
     /tmp/ccyhTnIv.s:506    .text:00000000000002a8 .L0 
GAS LISTING /tmp/ccyhTnIv.s 			page 67


     /tmp/ccyhTnIv.s:509    .text:00000000000002ac .L0 
     /tmp/ccyhTnIv.s:511    .text:00000000000002b0 .L0 
     /tmp/ccyhTnIv.s:517    .text:00000000000002b0 _Z17putEmptyToPartialP12kmem_cache_s
     /tmp/ccyhTnIv.s:520    .text:00000000000002b0 .L0 
     /tmp/ccyhTnIv.s:522    .text:00000000000002b0 .L0 
     /tmp/ccyhTnIv.s:523    .text:00000000000002b4 .L0 
     /tmp/ccyhTnIv.s:528    .text:00000000000002c4 .L0 
     /tmp/ccyhTnIv.s:529    .text:00000000000002c4 .L0 
     /tmp/ccyhTnIv.s:530    .text:00000000000002c4 .L0 
     /tmp/ccyhTnIv.s:531    .text:00000000000002c4 .L0 
     /tmp/ccyhTnIv.s:533    .text:00000000000002c8 .L0 
     /tmp/ccyhTnIv.s:536    .text:00000000000002cc .L0 
     /tmp/ccyhTnIv.s:537    .text:00000000000002cc .L0 
     /tmp/ccyhTnIv.s:540    .text:00000000000002d0 .L0 
     /tmp/ccyhTnIv.s:541    .text:00000000000002d0 .L0 
     /tmp/ccyhTnIv.s:547    .text:00000000000002e0 .L0 
     /tmp/ccyhTnIv.s:548    .text:00000000000002e0 .L0 
     /tmp/ccyhTnIv.s:553    .text:00000000000002f0 .L0 
     /tmp/ccyhTnIv.s:554    .text:00000000000002f4 .L0 
     /tmp/ccyhTnIv.s:556    .text:00000000000002f8 .L0 
     /tmp/ccyhTnIv.s:557    .text:00000000000002f8 .L0 
     /tmp/ccyhTnIv.s:559    .text:00000000000002fc .L0 
     /tmp/ccyhTnIv.s:562    .text:0000000000000300 .L0 
     /tmp/ccyhTnIv.s:565    .text:0000000000000304 .L0 
     /tmp/ccyhTnIv.s:567    .text:0000000000000308 .L0 
     /tmp/ccyhTnIv.s:573    .text:0000000000000308 _Z14removeFullSlabP12kmem_cache_sP6slab_s
     /tmp/ccyhTnIv.s:576    .text:0000000000000308 .L0 
     /tmp/ccyhTnIv.s:578    .text:0000000000000308 .L0 
     /tmp/ccyhTnIv.s:579    .text:000000000000030c .L0 
     /tmp/ccyhTnIv.s:584    .text:000000000000031c .L0 
     /tmp/ccyhTnIv.s:585    .text:000000000000031c .L0 
     /tmp/ccyhTnIv.s:586    .text:000000000000031c .L0 
     /tmp/ccyhTnIv.s:587    .text:000000000000031c .L0 
     /tmp/ccyhTnIv.s:589    .text:0000000000000320 .L0 
     /tmp/ccyhTnIv.s:593    .text:0000000000000328 .L0 
     /tmp/ccyhTnIv.s:594    .text:0000000000000328 .L0 
     /tmp/ccyhTnIv.s:601    .text:0000000000000338 .L0 
     /tmp/ccyhTnIv.s:602    .text:0000000000000338 .L0 
     /tmp/ccyhTnIv.s:607    .text:0000000000000348 .L0 
     /tmp/ccyhTnIv.s:608    .text:000000000000034c .L0 
     /tmp/ccyhTnIv.s:610    .text:0000000000000350 .L0 
     /tmp/ccyhTnIv.s:611    .text:0000000000000350 .L0 
     /tmp/ccyhTnIv.s:613    .text:0000000000000354 .L0 
     /tmp/ccyhTnIv.s:616    .text:0000000000000358 .L0 
     /tmp/ccyhTnIv.s:619    .text:000000000000035c .L0 
     /tmp/ccyhTnIv.s:621    .text:0000000000000360 .L0 
     /tmp/ccyhTnIv.s:627    .text:0000000000000360 _Z17removePartialSlabP12kmem_cache_sP6slab_s
     /tmp/ccyhTnIv.s:630    .text:0000000000000360 .L0 
     /tmp/ccyhTnIv.s:632    .text:0000000000000360 .L0 
     /tmp/ccyhTnIv.s:633    .text:0000000000000364 .L0 
     /tmp/ccyhTnIv.s:638    .text:0000000000000374 .L0 
     /tmp/ccyhTnIv.s:639    .text:0000000000000374 .L0 
     /tmp/ccyhTnIv.s:640    .text:0000000000000374 .L0 
     /tmp/ccyhTnIv.s:641    .text:0000000000000374 .L0 
     /tmp/ccyhTnIv.s:643    .text:0000000000000378 .L0 
     /tmp/ccyhTnIv.s:647    .text:0000000000000380 .L0 
     /tmp/ccyhTnIv.s:648    .text:0000000000000380 .L0 
GAS LISTING /tmp/ccyhTnIv.s 			page 68


     /tmp/ccyhTnIv.s:655    .text:0000000000000390 .L0 
     /tmp/ccyhTnIv.s:656    .text:0000000000000390 .L0 
     /tmp/ccyhTnIv.s:661    .text:00000000000003a0 .L0 
     /tmp/ccyhTnIv.s:662    .text:00000000000003a4 .L0 
     /tmp/ccyhTnIv.s:664    .text:00000000000003a8 .L0 
     /tmp/ccyhTnIv.s:665    .text:00000000000003a8 .L0 
     /tmp/ccyhTnIv.s:667    .text:00000000000003ac .L0 
     /tmp/ccyhTnIv.s:670    .text:00000000000003b0 .L0 
     /tmp/ccyhTnIv.s:673    .text:00000000000003b4 .L0 
     /tmp/ccyhTnIv.s:675    .text:00000000000003b8 .L0 
     /tmp/ccyhTnIv.s:681    .text:00000000000003b8 _Z12allocateSlabP12kmem_cache_s
     /tmp/ccyhTnIv.s:684    .text:00000000000003b8 .L0 
     /tmp/ccyhTnIv.s:686    .text:00000000000003b8 .L0 
     /tmp/ccyhTnIv.s:687    .text:00000000000003bc .L0 
     /tmp/ccyhTnIv.s:693    .text:00000000000003d0 .L0 
     /tmp/ccyhTnIv.s:694    .text:00000000000003d0 .L0 
     /tmp/ccyhTnIv.s:695    .text:00000000000003d0 .L0 
     /tmp/ccyhTnIv.s:696    .text:00000000000003d0 .L0 
     /tmp/ccyhTnIv.s:697    .text:00000000000003d0 .L0 
     /tmp/ccyhTnIv.s:699    .text:00000000000003d4 .L0 
     /tmp/ccyhTnIv.s:702    .text:00000000000003d8 .L0 
     /tmp/ccyhTnIv.s:703    .text:00000000000003d8 .L0 
     /tmp/ccyhTnIv.s:710    .text:00000000000003f0 .L0 
     /tmp/ccyhTnIv.s:713    .text:00000000000003f8 .L0 
     /tmp/ccyhTnIv.s:714    .text:00000000000003f8 .L0 
     /tmp/ccyhTnIv.s:716    .text:00000000000003fc .L0 
     /tmp/ccyhTnIv.s:718    .text:0000000000000400 .L0 
     /tmp/ccyhTnIv.s:720    .text:0000000000000404 .L0 
     /tmp/ccyhTnIv.s:721    .text:0000000000000404 .L0 
     /tmp/ccyhTnIv.s:725    .text:0000000000000408 .L0 
     /tmp/ccyhTnIv.s:726    .text:0000000000000408 .L0 
     /tmp/ccyhTnIv.s:728    .text:000000000000040c .L0 
     /tmp/ccyhTnIv.s:729    .text:000000000000040c .L0 
     /tmp/ccyhTnIv.s:731    .text:0000000000000410 .L0 
     /tmp/ccyhTnIv.s:732    .text:0000000000000410 .L0 
     /tmp/ccyhTnIv.s:734    .text:0000000000000414 .L0 
     /tmp/ccyhTnIv.s:735    .text:0000000000000414 .L0 
     /tmp/ccyhTnIv.s:737    .text:0000000000000418 .L0 
     /tmp/ccyhTnIv.s:738    .text:0000000000000418 .L0 
     /tmp/ccyhTnIv.s:740    .text:000000000000041c .L0 
     /tmp/ccyhTnIv.s:743    .text:0000000000000420 .L0 
     /tmp/ccyhTnIv.s:744    .text:0000000000000420 .L0 
     /tmp/ccyhTnIv.s:747    .text:0000000000000424 .L0 
     /tmp/ccyhTnIv.s:749    .text:0000000000000428 .L0 
     /tmp/ccyhTnIv.s:752    .text:000000000000042c .L0 
     /tmp/ccyhTnIv.s:756    .text:0000000000000430 .L0 
     /tmp/ccyhTnIv.s:757    .text:0000000000000430 .L0 
     /tmp/ccyhTnIv.s:761    .text:0000000000000434 .L0 
     /tmp/ccyhTnIv.s:762    .text:0000000000000434 .L0 
     /tmp/ccyhTnIv.s:764    .text:0000000000000438 .L0 
     /tmp/ccyhTnIv.s:766    .text:000000000000043c .L0 
     /tmp/ccyhTnIv.s:768    .text:0000000000000440 .L0 
     /tmp/ccyhTnIv.s:769    .text:0000000000000440 .L0 
     /tmp/ccyhTnIv.s:772    .text:0000000000000448 .L0 
     /tmp/ccyhTnIv.s:779    .text:0000000000000450 .L0 
     /tmp/ccyhTnIv.s:780    .text:0000000000000450 .L0 
     /tmp/ccyhTnIv.s:782    .text:0000000000000454 .L0 
GAS LISTING /tmp/ccyhTnIv.s 			page 69


     /tmp/ccyhTnIv.s:785    .text:0000000000000458 .L0 
     /tmp/ccyhTnIv.s:789    .text:000000000000045c .L0 
     /tmp/ccyhTnIv.s:790    .text:000000000000045c .L0 
     /tmp/ccyhTnIv.s:792    .text:0000000000000460 .L0 
     /tmp/ccyhTnIv.s:794    .text:0000000000000464 .L0 
     /tmp/ccyhTnIv.s:795    .text:0000000000000464 .L0 
     /tmp/ccyhTnIv.s:797    .text:0000000000000468 .L0 
     /tmp/ccyhTnIv.s:799    .text:000000000000046c .L0 
     /tmp/ccyhTnIv.s:801    .text:0000000000000470 .L0 
     /tmp/ccyhTnIv.s:803    .text:0000000000000474 .L0 
     /tmp/ccyhTnIv.s:805    .text:0000000000000478 .L0 
     /tmp/ccyhTnIv.s:809    .text:0000000000000480 .L0 
     /tmp/ccyhTnIv.s:817    .text:0000000000000488 .L0 
     /tmp/ccyhTnIv.s:818    .text:000000000000048c .L0 
     /tmp/ccyhTnIv.s:820    .text:0000000000000490 .L0 
     /tmp/ccyhTnIv.s:821    .text:0000000000000490 .L0 
     /tmp/ccyhTnIv.s:823    .text:0000000000000494 .L0 
     /tmp/ccyhTnIv.s:825    .text:0000000000000498 .L0 
     /tmp/ccyhTnIv.s:827    .text:000000000000049c .L0 
     /tmp/ccyhTnIv.s:830    .text:00000000000004a0 .L0 
     /tmp/ccyhTnIv.s:832    .text:00000000000004a4 .L0 
     /tmp/ccyhTnIv.s:838    .text:00000000000004a4 _Z18getOptimalSlabSizem
     /tmp/ccyhTnIv.s:841    .text:00000000000004a4 .L0 
     /tmp/ccyhTnIv.s:843    .text:00000000000004a4 .L0 
     /tmp/ccyhTnIv.s:844    .text:00000000000004a8 .L0 
     /tmp/ccyhTnIv.s:846    .text:00000000000004ac .L0 
     /tmp/ccyhTnIv.s:848    .text:00000000000004b0 .L0 
     /tmp/ccyhTnIv.s:851    .text:00000000000004b0 .L0 
     /tmp/ccyhTnIv.s:852    .text:00000000000004b0 .L0 
     /tmp/ccyhTnIv.s:856    .text:00000000000004b4 .L0 
     /tmp/ccyhTnIv.s:857    .text:00000000000004b4 .L0 
     /tmp/ccyhTnIv.s:858    .text:00000000000004b4 .L0 
     /tmp/ccyhTnIv.s:860    .text:00000000000004b8 .L0 
     /tmp/ccyhTnIv.s:862    .text:00000000000004bc .L0 
     /tmp/ccyhTnIv.s:863    .text:00000000000004bc .L0 
     /tmp/ccyhTnIv.s:866    .text:00000000000004c0 .L0 
     /tmp/ccyhTnIv.s:869    .text:00000000000004c4 .L0 
     /tmp/ccyhTnIv.s:870    .text:00000000000004c4 .L0 
     /tmp/ccyhTnIv.s:872    .text:00000000000004c8 .L0 
     /tmp/ccyhTnIv.s:876    .text:00000000000004cc .L0 
     /tmp/ccyhTnIv.s:877    .text:00000000000004cc .L0 
     /tmp/ccyhTnIv.s:882    .text:00000000000004d4 .L0 
     /tmp/ccyhTnIv.s:886    .text:00000000000004d8 .L0 
     /tmp/ccyhTnIv.s:890    .text:00000000000004e0 .L0 
     /tmp/ccyhTnIv.s:891    .text:00000000000004e0 .L0 
     /tmp/ccyhTnIv.s:894    .text:00000000000004e4 .L0 
     /tmp/ccyhTnIv.s:895    .text:00000000000004e4 .L0 
     /tmp/ccyhTnIv.s:897    .text:00000000000004e8 .L0 
     /tmp/ccyhTnIv.s:900    .text:00000000000004ec .L0 
     /tmp/ccyhTnIv.s:902    .text:00000000000004f0 .L0 
     /tmp/ccyhTnIv.s:905    .text:00000000000004f4 .L0 
     /tmp/ccyhTnIv.s:913    .text:00000000000004fc .L0 
     /tmp/ccyhTnIv.s:914    .text:00000000000004fc .L0 
     /tmp/ccyhTnIv.s:917    .text:0000000000000504 .L0 
     /tmp/ccyhTnIv.s:918    .text:0000000000000504 .L0 
     /tmp/ccyhTnIv.s:920    .text:0000000000000508 .L0 
     /tmp/ccyhTnIv.s:922    .text:000000000000050c .L0 
GAS LISTING /tmp/ccyhTnIv.s 			page 70


     /tmp/ccyhTnIv.s:928    .text:000000000000050c _Z8findSlabP12kmem_cache_sPKv
     /tmp/ccyhTnIv.s:931    .text:000000000000050c .L0 
     /tmp/ccyhTnIv.s:933    .text:000000000000050c .L0 
     /tmp/ccyhTnIv.s:934    .text:0000000000000510 .L0 
     /tmp/ccyhTnIv.s:936    .text:0000000000000514 .L0 
     /tmp/ccyhTnIv.s:938    .text:0000000000000518 .L0 
     /tmp/ccyhTnIv.s:941    .text:000000000000051c .L0 
     /tmp/ccyhTnIv.s:943    .text:0000000000000520 .L0 
     /tmp/ccyhTnIv.s:945    .text:0000000000000524 .L0 
     /tmp/ccyhTnIv.s:946    .text:0000000000000524 .L0 
     /tmp/ccyhTnIv.s:953    .text:000000000000052c .L0 
     /tmp/ccyhTnIv.s:954    .text:000000000000052c .L0 
     /tmp/ccyhTnIv.s:959    .text:0000000000000530 .L0 
     /tmp/ccyhTnIv.s:960    .text:0000000000000530 .L0 
     /tmp/ccyhTnIv.s:963    .text:0000000000000534 .L0 
     /tmp/ccyhTnIv.s:964    .text:0000000000000534 .L0 
     /tmp/ccyhTnIv.s:966    .text:0000000000000538 .L0 
     /tmp/ccyhTnIv.s:968    .text:000000000000053c .L0 
     /tmp/ccyhTnIv.s:970    .text:0000000000000540 .L0 
     /tmp/ccyhTnIv.s:972    .text:0000000000000544 .L0 
     /tmp/ccyhTnIv.s:974    .text:0000000000000548 .L0 
     /tmp/ccyhTnIv.s:977    .text:000000000000054c .L0 
     /tmp/ccyhTnIv.s:979    .text:0000000000000550 .L0 
     /tmp/ccyhTnIv.s:984    .text:0000000000000554 .L0 
     /tmp/ccyhTnIv.s:985    .text:0000000000000558 .L0 
     /tmp/ccyhTnIv.s:986    .text:0000000000000558 .L0 
     /tmp/ccyhTnIv.s:987    .text:0000000000000558 .L0 
     /tmp/ccyhTnIv.s:989    .text:000000000000055c .L0 
     /tmp/ccyhTnIv.s:993    .text:0000000000000560 .L0 
     /tmp/ccyhTnIv.s:995    .text:0000000000000560 .L0 
     /tmp/ccyhTnIv.s:996    .text:0000000000000560 .L0 
     /tmp/ccyhTnIv.s:1003   .text:0000000000000568 .L0 
     /tmp/ccyhTnIv.s:1004   .text:0000000000000568 .L0 
     /tmp/ccyhTnIv.s:1009   .text:000000000000056c .L0 
     /tmp/ccyhTnIv.s:1010   .text:000000000000056c .L0 
     /tmp/ccyhTnIv.s:1013   .text:0000000000000570 .L0 
     /tmp/ccyhTnIv.s:1014   .text:0000000000000570 .L0 
     /tmp/ccyhTnIv.s:1016   .text:0000000000000574 .L0 
     /tmp/ccyhTnIv.s:1018   .text:0000000000000578 .L0 
     /tmp/ccyhTnIv.s:1020   .text:000000000000057c .L0 
     /tmp/ccyhTnIv.s:1022   .text:0000000000000580 .L0 
     /tmp/ccyhTnIv.s:1024   .text:0000000000000584 .L0 
     /tmp/ccyhTnIv.s:1027   .text:0000000000000588 .L0 
     /tmp/ccyhTnIv.s:1029   .text:000000000000058c .L0 
     /tmp/ccyhTnIv.s:1035   .text:0000000000000594 .L0 
     /tmp/ccyhTnIv.s:1038   .text:000000000000059c .L0 
     /tmp/ccyhTnIv.s:1044   .text:000000000000059c _Z19resetAllocatedIndexP6slab_si
     /tmp/ccyhTnIv.s:1047   .text:000000000000059c .L0 
     /tmp/ccyhTnIv.s:1049   .text:000000000000059c .L0 
     /tmp/ccyhTnIv.s:1050   .text:00000000000005a0 .L0 
     /tmp/ccyhTnIv.s:1052   .text:00000000000005a4 .L0 
     /tmp/ccyhTnIv.s:1054   .text:00000000000005a8 .L0 
     /tmp/ccyhTnIv.s:1056   .text:00000000000005a8 .L0 
     /tmp/ccyhTnIv.s:1057   .text:00000000000005a8 .L0 
     /tmp/ccyhTnIv.s:1063   .text:00000000000005b8 .L0 
     /tmp/ccyhTnIv.s:1066   .text:00000000000005bc .L0 
     /tmp/ccyhTnIv.s:1068   .text:00000000000005c0 .L0 
GAS LISTING /tmp/ccyhTnIv.s 			page 71


     /tmp/ccyhTnIv.s:1071   .text:00000000000005c8 .L0 
     /tmp/ccyhTnIv.s:1074   .text:00000000000005d0 .L0 
     /tmp/ccyhTnIv.s:1077   .text:00000000000005d8 .L0 
     /tmp/ccyhTnIv.s:1079   .text:00000000000005dc .L0 
     /tmp/ccyhTnIv.s:1080   .text:00000000000005e0 .L0 
     /tmp/ccyhTnIv.s:1081   .text:00000000000005e0 .L0 
     /tmp/ccyhTnIv.s:1083   .text:00000000000005e4 .L0 
     /tmp/ccyhTnIv.s:1085   .text:00000000000005e8 .L0 
     /tmp/ccyhTnIv.s:1108   .text:00000000000005e8 _Z13printSlabInfoP6slab_s
     /tmp/ccyhTnIv.s:1111   .text:00000000000005e8 .L0 
     /tmp/ccyhTnIv.s:1113   .text:00000000000005e8 .L0 
     /tmp/ccyhTnIv.s:1114   .text:00000000000005ec .L0 
     /tmp/ccyhTnIv.s:1119   .text:00000000000005fc .L0 
     /tmp/ccyhTnIv.s:1120   .text:00000000000005fc .L0 
     /tmp/ccyhTnIv.s:1121   .text:00000000000005fc .L0 
     /tmp/ccyhTnIv.s:1122   .text:00000000000005fc .L0 
     /tmp/ccyhTnIv.s:1124   .text:0000000000000600 .L0 
     /tmp/ccyhTnIv.s:1127   .text:0000000000000604 .L0 
     /tmp/ccyhTnIv.s:1128   .text:0000000000000604 .L0 
     /tmp/ccyhTnIv.s:1133   .text:0000000000000614 .L0 
     /tmp/ccyhTnIv.s:1134   .text:0000000000000614 .L0 
     /tmp/ccyhTnIv.s:1140   .text:000000000000062c .L0 
     /tmp/ccyhTnIv.s:1141   .text:000000000000062c .L0 
     /tmp/ccyhTnIv.s:1147   .text:0000000000000644 .L0 
     /tmp/ccyhTnIv.s:1148   .text:0000000000000644 .L0 
     /tmp/ccyhTnIv.s:1155   .text:000000000000065c .L0 
     /tmp/ccyhTnIv.s:1156   .text:000000000000065c .L0 
     /tmp/ccyhTnIv.s:1160   .text:0000000000000660 .L0 
     /tmp/ccyhTnIv.s:1161   .text:0000000000000660 .L0 
     /tmp/ccyhTnIv.s:1163   .text:0000000000000664 .L0 
     /tmp/ccyhTnIv.s:1165   .text:0000000000000668 .L0 
     /tmp/ccyhTnIv.s:1167   .text:000000000000066c .L0 
     /tmp/ccyhTnIv.s:1169   .text:0000000000000670 .L0 
     /tmp/ccyhTnIv.s:1170   .text:0000000000000670 .L0 
     /tmp/ccyhTnIv.s:1172   .text:0000000000000674 .L0 
     /tmp/ccyhTnIv.s:1178   .text:0000000000000688 .L0 
     /tmp/ccyhTnIv.s:1179   .text:0000000000000688 .L0 
     /tmp/ccyhTnIv.s:1183   .text:0000000000000698 .L0 
     /tmp/ccyhTnIv.s:1189   .text:00000000000006a0 .L0 
     /tmp/ccyhTnIv.s:1190   .text:00000000000006a4 .L0 
     /tmp/ccyhTnIv.s:1192   .text:00000000000006a8 .L0 
     /tmp/ccyhTnIv.s:1193   .text:00000000000006a8 .L0 
     /tmp/ccyhTnIv.s:1195   .text:00000000000006ac .L0 
     /tmp/ccyhTnIv.s:1198   .text:00000000000006b0 .L0 
     /tmp/ccyhTnIv.s:1201   .text:00000000000006b4 .L0 
     /tmp/ccyhTnIv.s:1203   .text:00000000000006b8 .L0 
     /tmp/ccyhTnIv.s:1209   .text:00000000000006b8 _Z16free_slab_objectP6slab_sPKv
     /tmp/ccyhTnIv.s:1212   .text:00000000000006b8 .L0 
     /tmp/ccyhTnIv.s:1214   .text:00000000000006b8 .L0 
     /tmp/ccyhTnIv.s:1215   .text:00000000000006b8 .L0 
     /tmp/ccyhTnIv.s:1217   .text:00000000000006bc .L0 
     /tmp/ccyhTnIv.s:1218   .text:00000000000006c0 .L0 
     /tmp/ccyhTnIv.s:1222   .text:00000000000006cc .L0 
     /tmp/ccyhTnIv.s:1223   .text:00000000000006cc .L0 
     /tmp/ccyhTnIv.s:1224   .text:00000000000006cc .L0 
     /tmp/ccyhTnIv.s:1226   .text:00000000000006d0 .L0 
     /tmp/ccyhTnIv.s:1230   .text:00000000000006d8 .L0 
GAS LISTING /tmp/ccyhTnIv.s 			page 72


     /tmp/ccyhTnIv.s:1232   .text:00000000000006dc .L0 
     /tmp/ccyhTnIv.s:1233   .text:00000000000006dc .L0 
     /tmp/ccyhTnIv.s:1236   .text:00000000000006e4 .L0 
     /tmp/ccyhTnIv.s:1238   .text:00000000000006e8 .L0 
     /tmp/ccyhTnIv.s:1240   .text:00000000000006ec .L0 
     /tmp/ccyhTnIv.s:1242   .text:00000000000006f0 .L0 
     /tmp/ccyhTnIv.s:1245   .text:00000000000006f4 .L0 
     /tmp/ccyhTnIv.s:1246   .text:00000000000006f4 .L0 
     /tmp/ccyhTnIv.s:1248   .text:00000000000006f8 .L0 
     /tmp/ccyhTnIv.s:1251   .text:0000000000000700 .L0 
     /tmp/ccyhTnIv.s:1255   .text:0000000000000704 .L0 
     /tmp/ccyhTnIv.s:1256   .text:0000000000000708 .L0 
     /tmp/ccyhTnIv.s:1257   .text:0000000000000708 .L0 
     /tmp/ccyhTnIv.s:1259   .text:000000000000070c .L0 
     /tmp/ccyhTnIv.s:1260   .text:000000000000070c .L0 
     /tmp/ccyhTnIv.s:1262   .text:0000000000000710 .L0 
     /tmp/ccyhTnIv.s:1265   .text:0000000000000714 .L0 
     /tmp/ccyhTnIv.s:1269   .text:0000000000000718 .L0 
     /tmp/ccyhTnIv.s:1271   .text:0000000000000718 .L0 
     /tmp/ccyhTnIv.s:1272   .text:0000000000000718 .L0 
     /tmp/ccyhTnIv.s:1275   .text:0000000000000720 .L0 
     /tmp/ccyhTnIv.s:1276   .text:0000000000000720 .L0 
     /tmp/ccyhTnIv.s:1278   .text:0000000000000724 .L0 
     /tmp/ccyhTnIv.s:1280   .text:0000000000000728 .L0 
     /tmp/ccyhTnIv.s:1282   .text:000000000000072c .L0 
     /tmp/ccyhTnIv.s:1285   .text:0000000000000734 .L0 
     /tmp/ccyhTnIv.s:1286   .text:0000000000000734 .L0 
     /tmp/ccyhTnIv.s:1291   .text:0000000000000740 .L0 
     /tmp/ccyhTnIv.s:1292   .text:0000000000000740 .L0 
     /tmp/ccyhTnIv.s:1297   .text:0000000000000750 .L0 
     /tmp/ccyhTnIv.s:1298   .text:0000000000000750 .L0 
     /tmp/ccyhTnIv.s:1300   .text:0000000000000754 .L0 
     /tmp/ccyhTnIv.s:1303   .text:000000000000075c .L0 
     /tmp/ccyhTnIv.s:1304   .text:000000000000075c .L0 
     /tmp/ccyhTnIv.s:1308   .text:0000000000000768 .L0 
     /tmp/ccyhTnIv.s:1310   .text:000000000000076c .L0 
     /tmp/ccyhTnIv.s:1311   .text:000000000000076c .L0 
     /tmp/ccyhTnIv.s:1318   .text:0000000000000780 .L0 
     /tmp/ccyhTnIv.s:1319   .text:0000000000000780 .L0 
     /tmp/ccyhTnIv.s:1324   .text:0000000000000790 .L0 
     /tmp/ccyhTnIv.s:1325   .text:0000000000000790 .L0 
     /tmp/ccyhTnIv.s:1327   .text:0000000000000794 .L0 
     /tmp/ccyhTnIv.s:1332   .text:00000000000007a0 .L0 
     /tmp/ccyhTnIv.s:1333   .text:00000000000007a0 .L0 
     /tmp/ccyhTnIv.s:1334   .text:00000000000007a0 .L0 
     /tmp/ccyhTnIv.s:1335   .text:00000000000007a0 .L0 
     /tmp/ccyhTnIv.s:1337   .text:00000000000007a4 .L0 
     /tmp/ccyhTnIv.s:1343   .text:00000000000007a4 _Z9kmem_initPvi
     /tmp/ccyhTnIv.s:1346   .text:00000000000007a4 .L0 
     /tmp/ccyhTnIv.s:1348   .text:00000000000007a4 .L0 
     /tmp/ccyhTnIv.s:1349   .text:00000000000007a8 .L0 
     /tmp/ccyhTnIv.s:1352   .text:00000000000007b0 .L0 
     /tmp/ccyhTnIv.s:1353   .text:00000000000007b0 .L0 
     /tmp/ccyhTnIv.s:1355   .text:00000000000007b4 .L0 
     /tmp/ccyhTnIv.s:1357   .text:00000000000007b4 .L0 
     /tmp/ccyhTnIv.s:1358   .text:00000000000007b4 .L0 
     /tmp/ccyhTnIv.s:1361   .text:00000000000007bc .L0 
GAS LISTING /tmp/ccyhTnIv.s 			page 73


     /tmp/ccyhTnIv.s:1362   .text:00000000000007bc .L0 
     /tmp/ccyhTnIv.s:1365   .text:00000000000007c4 .L0 
     /tmp/ccyhTnIv.s:1367   .text:00000000000007cc .L0 
     /tmp/ccyhTnIv.s:1368   .text:00000000000007d0 .L0 
     /tmp/ccyhTnIv.s:1370   .text:00000000000007d4 .L0 
     /tmp/ccyhTnIv.s:1371   .text:00000000000007d4 .L0 
     /tmp/ccyhTnIv.s:1373   .text:00000000000007d8 .L0 
     /tmp/ccyhTnIv.s:1375   .text:00000000000007dc .L0 
     /tmp/ccyhTnIv.s:1381   .text:00000000000007dc _Z16kmem_cache_allocP12kmem_cache_s
     /tmp/ccyhTnIv.s:1384   .text:00000000000007dc .L0 
     /tmp/ccyhTnIv.s:1386   .text:00000000000007dc .L0 
     /tmp/ccyhTnIv.s:1387   .text:00000000000007e0 .L0 
     /tmp/ccyhTnIv.s:1392   .text:00000000000007f0 .L0 
     /tmp/ccyhTnIv.s:1393   .text:00000000000007f0 .L0 
     /tmp/ccyhTnIv.s:1394   .text:00000000000007f0 .L0 
     /tmp/ccyhTnIv.s:1395   .text:00000000000007f0 .L0 
     /tmp/ccyhTnIv.s:1397   .text:00000000000007f4 .L0 
     /tmp/ccyhTnIv.s:1401   .text:00000000000007f8 .L0 
     /tmp/ccyhTnIv.s:1402   .text:00000000000007f8 .L0 
     /tmp/ccyhTnIv.s:1405   .text:00000000000007fc .L0 
     /tmp/ccyhTnIv.s:1410   .text:0000000000000800 .L0 
     /tmp/ccyhTnIv.s:1411   .text:0000000000000800 .L0 
     /tmp/ccyhTnIv.s:1413   .text:0000000000000804 .L0 
     /tmp/ccyhTnIv.s:1416   .text:0000000000000808 .L0 
     /tmp/ccyhTnIv.s:1417   .text:0000000000000808 .L0 
     /tmp/ccyhTnIv.s:1422   .text:0000000000000814 .L0 
     /tmp/ccyhTnIv.s:1423   .text:0000000000000814 .L0 
     /tmp/ccyhTnIv.s:1428   .text:0000000000000820 .L0 
     /tmp/ccyhTnIv.s:1430   .text:0000000000000824 .L0 
     /tmp/ccyhTnIv.s:1431   .text:0000000000000824 .L0 
     /tmp/ccyhTnIv.s:1435   .text:0000000000000830 .L0 
     /tmp/ccyhTnIv.s:1436   .text:0000000000000830 .L0 
     /tmp/ccyhTnIv.s:1440   .text:000000000000083c .L0 
     /tmp/ccyhTnIv.s:1442   .text:0000000000000840 .L0 
     /tmp/ccyhTnIv.s:1443   .text:0000000000000840 .L0 
     /tmp/ccyhTnIv.s:1447   .text:000000000000084c .L0 
     /tmp/ccyhTnIv.s:1448   .text:000000000000084c .L0 
     /tmp/ccyhTnIv.s:1455   .text:0000000000000850 .L0 
     /tmp/ccyhTnIv.s:1456   .text:0000000000000850 .L0 
     /tmp/ccyhTnIv.s:1461   .text:000000000000085c .L0 
     /tmp/ccyhTnIv.s:1462   .text:000000000000085c .L0 
     /tmp/ccyhTnIv.s:1467   .text:0000000000000868 .L0 
     /tmp/ccyhTnIv.s:1473   .text:000000000000086c .L0 
     /tmp/ccyhTnIv.s:1475   .text:0000000000000874 .L0 
     /tmp/ccyhTnIv.s:1476   .text:0000000000000874 .L0 
     /tmp/ccyhTnIv.s:1478   .text:0000000000000878 .L0 
     /tmp/ccyhTnIv.s:1479   .text:0000000000000878 .L0 
     /tmp/ccyhTnIv.s:1481   .text:000000000000087c .L0 
     /tmp/ccyhTnIv.s:1484   .text:0000000000000880 .L0 
     /tmp/ccyhTnIv.s:1486   .text:0000000000000884 .L0 
     /tmp/ccyhTnIv.s:1490   .text:0000000000000888 .L0 
     /tmp/ccyhTnIv.s:1494   .text:0000000000000888 .L0 
     /tmp/ccyhTnIv.s:1495   .text:0000000000000888 .L0 
     /tmp/ccyhTnIv.s:1499   .text:0000000000000894 .L0 
     /tmp/ccyhTnIv.s:1500   .text:0000000000000894 .L0 
     /tmp/ccyhTnIv.s:1507   .text:0000000000000898 .L0 
     /tmp/ccyhTnIv.s:1508   .text:0000000000000898 .L0 
GAS LISTING /tmp/ccyhTnIv.s 			page 74


     /tmp/ccyhTnIv.s:1512   .text:00000000000008a4 .L0 
     /tmp/ccyhTnIv.s:1513   .text:00000000000008a4 .L0 
     /tmp/ccyhTnIv.s:1515   .text:00000000000008a8 .L0 
     /tmp/ccyhTnIv.s:1517   .text:00000000000008ac .L0 
     /tmp/ccyhTnIv.s:1518   .text:00000000000008ac .L0 
     /tmp/ccyhTnIv.s:1524   .text:00000000000008bc .L0 
     /tmp/ccyhTnIv.s:1525   .text:00000000000008bc .L0 
     /tmp/ccyhTnIv.s:1530   .text:00000000000008c8 .L0 
     /tmp/ccyhTnIv.s:1532   .text:00000000000008cc .L0 
     /tmp/ccyhTnIv.s:1533   .text:00000000000008cc .L0 
     /tmp/ccyhTnIv.s:1537   .text:00000000000008d8 .L0 
     /tmp/ccyhTnIv.s:1538   .text:00000000000008d8 .L0 
     /tmp/ccyhTnIv.s:1542   .text:00000000000008e4 .L0 
     /tmp/ccyhTnIv.s:1544   .text:00000000000008e8 .L0 
     /tmp/ccyhTnIv.s:1545   .text:00000000000008e8 .L0 
     /tmp/ccyhTnIv.s:1549   .text:00000000000008f4 .L0 
     /tmp/ccyhTnIv.s:1550   .text:00000000000008f4 .L0 
     /tmp/ccyhTnIv.s:1554   .text:00000000000008f8 .L0 
     /tmp/ccyhTnIv.s:1555   .text:00000000000008f8 .L0 
     /tmp/ccyhTnIv.s:1559   .text:0000000000000904 .L0 
     /tmp/ccyhTnIv.s:1560   .text:0000000000000904 .L0 
     /tmp/ccyhTnIv.s:1564   .text:0000000000000908 .L0 
     /tmp/ccyhTnIv.s:1570   .text:0000000000000908 _Z17kmem_cache_createPKcmPFvPvES3_
     /tmp/ccyhTnIv.s:1573   .text:0000000000000908 .L0 
     /tmp/ccyhTnIv.s:1575   .text:0000000000000908 .L0 
     /tmp/ccyhTnIv.s:1576   .text:000000000000090c .L0 
     /tmp/ccyhTnIv.s:1584   .text:0000000000000928 .L0 
     /tmp/ccyhTnIv.s:1585   .text:0000000000000928 .L0 
     /tmp/ccyhTnIv.s:1586   .text:0000000000000928 .L0 
     /tmp/ccyhTnIv.s:1587   .text:0000000000000928 .L0 
     /tmp/ccyhTnIv.s:1588   .text:0000000000000928 .L0 
     /tmp/ccyhTnIv.s:1589   .text:0000000000000928 .L0 
     /tmp/ccyhTnIv.s:1590   .text:0000000000000928 .L0 
     /tmp/ccyhTnIv.s:1592   .text:000000000000092c .L0 
     /tmp/ccyhTnIv.s:1598   .text:000000000000093c .L0 
     /tmp/ccyhTnIv.s:1599   .text:000000000000093c .L0 
     /tmp/ccyhTnIv.s:1607   .text:0000000000000954 .L0 
     /tmp/ccyhTnIv.s:1608   .text:0000000000000954 .L0 
     /tmp/ccyhTnIv.s:1610   .text:0000000000000958 .L0 
     /tmp/ccyhTnIv.s:1611   .text:0000000000000958 .L0 
     /tmp/ccyhTnIv.s:1613   .text:000000000000095c .L0 
     /tmp/ccyhTnIv.s:1614   .text:000000000000095c .L0 
     /tmp/ccyhTnIv.s:1616   .text:0000000000000960 .L0 
     /tmp/ccyhTnIv.s:1617   .text:0000000000000960 .L0 
     /tmp/ccyhTnIv.s:1619   .text:0000000000000964 .L0 
     /tmp/ccyhTnIv.s:1620   .text:0000000000000964 .L0 
     /tmp/ccyhTnIv.s:1622   .text:0000000000000968 .L0 
     /tmp/ccyhTnIv.s:1623   .text:0000000000000968 .L0 
     /tmp/ccyhTnIv.s:1628   .text:0000000000000978 .L0 
     /tmp/ccyhTnIv.s:1629   .text:0000000000000978 .L0 
     /tmp/ccyhTnIv.s:1631   .text:000000000000097c .L0 
     /tmp/ccyhTnIv.s:1632   .text:000000000000097c .L0 
     /tmp/ccyhTnIv.s:1636   .text:0000000000000988 .L0 
     /tmp/ccyhTnIv.s:1638   .text:000000000000098c .L0 
     /tmp/ccyhTnIv.s:1639   .text:000000000000098c .L0 
     /tmp/ccyhTnIv.s:1641   .text:0000000000000990 .L0 
     /tmp/ccyhTnIv.s:1642   .text:0000000000000990 .L0 
GAS LISTING /tmp/ccyhTnIv.s 			page 75


     /tmp/ccyhTnIv.s:1644   .text:0000000000000998 .L0 
     /tmp/ccyhTnIv.s:1646   .text:000000000000099c .L0 
     /tmp/ccyhTnIv.s:1647   .text:000000000000099c .L0 
     /tmp/ccyhTnIv.s:1649   .text:00000000000009a0 .L0 
     /tmp/ccyhTnIv.s:1652   .text:00000000000009a4 .L0 
     /tmp/ccyhTnIv.s:1655   .text:00000000000009a8 .L0 
     /tmp/ccyhTnIv.s:1658   .text:00000000000009ac .L0 
     /tmp/ccyhTnIv.s:1661   .text:00000000000009b0 .L0 
     /tmp/ccyhTnIv.s:1664   .text:00000000000009b4 .L0 
     /tmp/ccyhTnIv.s:1666   .text:00000000000009b8 .L0 
     /tmp/ccyhTnIv.s:1672   .text:00000000000009b8 _Z15kmem_cache_freeP12kmem_cache_sPv
     /tmp/ccyhTnIv.s:1675   .text:00000000000009b8 .L0 
     /tmp/ccyhTnIv.s:1677   .text:00000000000009b8 .L0 
     /tmp/ccyhTnIv.s:1678   .text:00000000000009b8 .L0 
     /tmp/ccyhTnIv.s:1680   .text:00000000000009bc .L0 
     /tmp/ccyhTnIv.s:1681   .text:00000000000009c0 .L0 
     /tmp/ccyhTnIv.s:1687   .text:00000000000009d4 .L0 
     /tmp/ccyhTnIv.s:1688   .text:00000000000009d4 .L0 
     /tmp/ccyhTnIv.s:1689   .text:00000000000009d4 .L0 
     /tmp/ccyhTnIv.s:1690   .text:00000000000009d4 .L0 
     /tmp/ccyhTnIv.s:1691   .text:00000000000009d4 .L0 
     /tmp/ccyhTnIv.s:1693   .text:00000000000009d8 .L0 
     /tmp/ccyhTnIv.s:1697   .text:00000000000009e0 .L0 
     /tmp/ccyhTnIv.s:1699   .text:00000000000009e4 .L0 
     /tmp/ccyhTnIv.s:1700   .text:00000000000009e4 .L0 
     /tmp/ccyhTnIv.s:1705   .text:00000000000009f0 .L0 
     /tmp/ccyhTnIv.s:1707   .text:00000000000009f4 .L0 
     /tmp/ccyhTnIv.s:1708   .text:00000000000009f4 .L0 
     /tmp/ccyhTnIv.s:1710   .text:00000000000009f8 .L0 
     /tmp/ccyhTnIv.s:1712   .text:00000000000009fc .L0 
     /tmp/ccyhTnIv.s:1713   .text:00000000000009fc .L0 
     /tmp/ccyhTnIv.s:1719   .text:0000000000000a04 .L0 
     /tmp/ccyhTnIv.s:1720   .text:0000000000000a04 .L0 
     /tmp/ccyhTnIv.s:1722   .text:0000000000000a08 .L0 
     /tmp/ccyhTnIv.s:1724   .text:0000000000000a0c .L0 
     /tmp/ccyhTnIv.s:1725   .text:0000000000000a0c .L0 
     /tmp/ccyhTnIv.s:1730   .text:0000000000000a14 .L0 
     /tmp/ccyhTnIv.s:1731   .text:0000000000000a14 .L0 
     /tmp/ccyhTnIv.s:1737   .text:0000000000000a24 .L0 
     /tmp/ccyhTnIv.s:1738   .text:0000000000000a28 .L0 
     /tmp/ccyhTnIv.s:1740   .text:0000000000000a2c .L0 
     /tmp/ccyhTnIv.s:1741   .text:0000000000000a2c .L0 
     /tmp/ccyhTnIv.s:1743   .text:0000000000000a30 .L0 
     /tmp/ccyhTnIv.s:1746   .text:0000000000000a34 .L0 
     /tmp/ccyhTnIv.s:1749   .text:0000000000000a38 .L0 
     /tmp/ccyhTnIv.s:1751   .text:0000000000000a3c .L0 
     /tmp/ccyhTnIv.s:1756   .text:0000000000000a44 .L0 
     /tmp/ccyhTnIv.s:1788   .text:0000000000000a44 _Z15kmem_cache_infoP12kmem_cache_s
     /tmp/ccyhTnIv.s:1791   .text:0000000000000a44 .L0 
     /tmp/ccyhTnIv.s:1793   .text:0000000000000a44 .L0 
     /tmp/ccyhTnIv.s:1794   .text:0000000000000a48 .L0 
     /tmp/ccyhTnIv.s:1799   .text:0000000000000a58 .L0 
     /tmp/ccyhTnIv.s:1800   .text:0000000000000a58 .L0 
     /tmp/ccyhTnIv.s:1801   .text:0000000000000a58 .L0 
     /tmp/ccyhTnIv.s:1802   .text:0000000000000a58 .L0 
     /tmp/ccyhTnIv.s:1804   .text:0000000000000a5c .L0 
     /tmp/ccyhTnIv.s:1807   .text:0000000000000a60 .L0 
GAS LISTING /tmp/ccyhTnIv.s 			page 76


     /tmp/ccyhTnIv.s:1808   .text:0000000000000a60 .L0 
     /tmp/ccyhTnIv.s:1813   .text:0000000000000a70 .L0 
     /tmp/ccyhTnIv.s:1814   .text:0000000000000a70 .L0 
     /tmp/ccyhTnIv.s:1818   .text:0000000000000a80 .L0 
     /tmp/ccyhTnIv.s:1819   .text:0000000000000a80 .L0 
     /tmp/ccyhTnIv.s:1823   .text:0000000000000a8c .L0 
     /tmp/ccyhTnIv.s:1824   .text:0000000000000a8c .L0 
     /tmp/ccyhTnIv.s:1828   .text:0000000000000a9c .L0 
     /tmp/ccyhTnIv.s:1829   .text:0000000000000a9c .L0 
     /tmp/ccyhTnIv.s:1835   .text:0000000000000ab4 .L0 
     /tmp/ccyhTnIv.s:1836   .text:0000000000000ab4 .L0 
     /tmp/ccyhTnIv.s:1842   .text:0000000000000acc .L0 
     /tmp/ccyhTnIv.s:1843   .text:0000000000000acc .L0 
     /tmp/ccyhTnIv.s:1847   .text:0000000000000adc .L0 
     /tmp/ccyhTnIv.s:1848   .text:0000000000000adc .L0 
     /tmp/ccyhTnIv.s:1852   .text:0000000000000aec .L0 
     /tmp/ccyhTnIv.s:1853   .text:0000000000000aec .L0 
     /tmp/ccyhTnIv.s:1857   .text:0000000000000af0 .L0 
     /tmp/ccyhTnIv.s:1858   .text:0000000000000af0 .L0 
     /tmp/ccyhTnIv.s:1860   .text:0000000000000af4 .L0 
     /tmp/ccyhTnIv.s:1861   .text:0000000000000af4 .L0 
     /tmp/ccyhTnIv.s:1865   .text:0000000000000b00 .L0 
     /tmp/ccyhTnIv.s:1866   .text:0000000000000b00 .L0 
     /tmp/ccyhTnIv.s:1869   .text:0000000000000b04 .L0 
     /tmp/ccyhTnIv.s:1872   .text:0000000000000b08 .L0 
     /tmp/ccyhTnIv.s:1873   .text:0000000000000b08 .L0 
     /tmp/ccyhTnIv.s:1877   .text:0000000000000b18 .L0 
     /tmp/ccyhTnIv.s:1878   .text:0000000000000b18 .L0 
     /tmp/ccyhTnIv.s:1882   .text:0000000000000b1c .L0 
     /tmp/ccyhTnIv.s:1883   .text:0000000000000b1c .L0 
     /tmp/ccyhTnIv.s:1885   .text:0000000000000b20 .L0 
     /tmp/ccyhTnIv.s:1886   .text:0000000000000b20 .L0 
     /tmp/ccyhTnIv.s:1890   .text:0000000000000b2c .L0 
     /tmp/ccyhTnIv.s:1891   .text:0000000000000b2c .L0 
     /tmp/ccyhTnIv.s:1894   .text:0000000000000b30 .L0 
     /tmp/ccyhTnIv.s:1897   .text:0000000000000b34 .L0 
     /tmp/ccyhTnIv.s:1898   .text:0000000000000b34 .L0 
     /tmp/ccyhTnIv.s:1902   .text:0000000000000b44 .L0 
     /tmp/ccyhTnIv.s:1903   .text:0000000000000b44 .L0 
     /tmp/ccyhTnIv.s:1907   .text:0000000000000b48 .L0 
     /tmp/ccyhTnIv.s:1908   .text:0000000000000b48 .L0 
     /tmp/ccyhTnIv.s:1910   .text:0000000000000b4c .L0 
     /tmp/ccyhTnIv.s:1911   .text:0000000000000b4c .L0 
     /tmp/ccyhTnIv.s:1915   .text:0000000000000b58 .L0 
     /tmp/ccyhTnIv.s:1916   .text:0000000000000b58 .L0 
     /tmp/ccyhTnIv.s:1919   .text:0000000000000b5c .L0 
     /tmp/ccyhTnIv.s:1922   .text:0000000000000b60 .L0 
     /tmp/ccyhTnIv.s:1923   .text:0000000000000b64 .L0 
     /tmp/ccyhTnIv.s:1925   .text:0000000000000b68 .L0 
     /tmp/ccyhTnIv.s:1926   .text:0000000000000b68 .L0 
     /tmp/ccyhTnIv.s:1928   .text:0000000000000b6c .L0 
     /tmp/ccyhTnIv.s:1931   .text:0000000000000b70 .L0 
     /tmp/ccyhTnIv.s:1934   .text:0000000000000b74 .L0 
     /tmp/ccyhTnIv.s:1936   .text:0000000000000b78 .L0 
     /tmp/ccyhTnIv.s:1959   .text:0000000000000b78 _Z22printSlabAllocatorInfov
     /tmp/ccyhTnIv.s:1962   .text:0000000000000b78 .L0 
     /tmp/ccyhTnIv.s:1963   .text:0000000000000b78 .L0 
GAS LISTING /tmp/ccyhTnIv.s 			page 77


     /tmp/ccyhTnIv.s:1964   .text:0000000000000b7c .L0 
     /tmp/ccyhTnIv.s:1968   .text:0000000000000b88 .L0 
     /tmp/ccyhTnIv.s:1969   .text:0000000000000b88 .L0 
     /tmp/ccyhTnIv.s:1970   .text:0000000000000b88 .L0 
     /tmp/ccyhTnIv.s:1972   .text:0000000000000b8c .L0 
     /tmp/ccyhTnIv.s:1974   .text:0000000000000b8c .L0 
     /tmp/ccyhTnIv.s:1975   .text:0000000000000b8c .L0 
     /tmp/ccyhTnIv.s:1979   .text:0000000000000b9c .L0 
     /tmp/ccyhTnIv.s:1980   .text:0000000000000b9c .L0 
     /tmp/ccyhTnIv.s:1983   .text:0000000000000ba8 .L0 
     /tmp/ccyhTnIv.s:1989   .text:0000000000000bc0 .L0 
     /tmp/ccyhTnIv.s:1990   .text:0000000000000bc0 .L0 
     /tmp/ccyhTnIv.s:1996   .text:0000000000000bd8 .L0 
     /tmp/ccyhTnIv.s:1997   .text:0000000000000bd8 .L0 
     /tmp/ccyhTnIv.s:2001   .text:0000000000000be8 .L0 
     /tmp/ccyhTnIv.s:2002   .text:0000000000000be8 .L0 
     /tmp/ccyhTnIv.s:2004   .text:0000000000000bec .L0 
     /tmp/ccyhTnIv.s:2008   .text:0000000000000bf8 .L0 
     /tmp/ccyhTnIv.s:2009   .text:0000000000000bf8 .L0 
     /tmp/ccyhTnIv.s:2014   .text:0000000000000c08 .L0 
     /tmp/ccyhTnIv.s:2015   .text:0000000000000c08 .L0 
     /tmp/ccyhTnIv.s:2020   .text:0000000000000c10 .L0 
     /tmp/ccyhTnIv.s:2021   .text:0000000000000c10 .L0 
     /tmp/ccyhTnIv.s:2025   .text:0000000000000c18 .L0 
     /tmp/ccyhTnIv.s:2029   .text:0000000000000c1c .L0 
     /tmp/ccyhTnIv.s:2032   .text:0000000000000c24 .L0 
     /tmp/ccyhTnIv.s:2033   .text:0000000000000c24 .L0 
     /tmp/ccyhTnIv.s:2038   .text:0000000000000c38 .L0 
     /tmp/ccyhTnIv.s:2043   .text:0000000000000c40 .L0 
     /tmp/ccyhTnIv.s:2044   .text:0000000000000c44 .L0 
     /tmp/ccyhTnIv.s:2046   .text:0000000000000c48 .L0 
     /tmp/ccyhTnIv.s:2047   .text:0000000000000c48 .L0 
     /tmp/ccyhTnIv.s:2049   .text:0000000000000c4c .L0 
     /tmp/ccyhTnIv.s:2052   .text:0000000000000c50 .L0 
     /tmp/ccyhTnIv.s:2054   .text:0000000000000c54 .L0 
     /tmp/ccyhTnIv.s:2065   .text:0000000000000c54 _Z7kmallocm
     /tmp/ccyhTnIv.s:2068   .text:0000000000000c54 .L0 
     /tmp/ccyhTnIv.s:2070   .text:0000000000000c54 .L0 
     /tmp/ccyhTnIv.s:2071   .text:0000000000000c58 .L0 
     /tmp/ccyhTnIv.s:2078   .text:0000000000000c70 .L0 
     /tmp/ccyhTnIv.s:2079   .text:0000000000000c70 .L0 
     /tmp/ccyhTnIv.s:2080   .text:0000000000000c70 .L0 
     /tmp/ccyhTnIv.s:2081   .text:0000000000000c70 .L0 
     /tmp/ccyhTnIv.s:2082   .text:0000000000000c70 .L0 
     /tmp/ccyhTnIv.s:2083   .text:0000000000000c70 .L0 
     /tmp/ccyhTnIv.s:2085   .text:0000000000000c74 .L0 
     /tmp/ccyhTnIv.s:2088   .text:0000000000000c78 .L0 
     /tmp/ccyhTnIv.s:2089   .text:0000000000000c78 .L0 
     /tmp/ccyhTnIv.s:2092   .text:0000000000000c80 .L0 
     /tmp/ccyhTnIv.s:2095   .text:0000000000000c88 .L0 
     /tmp/ccyhTnIv.s:2098   .text:0000000000000c90 .L0 
     /tmp/ccyhTnIv.s:2104   .text:0000000000000c98 .L0 
     /tmp/ccyhTnIv.s:2108   .text:0000000000000c9c .L0 
     /tmp/ccyhTnIv.s:2109   .text:0000000000000c9c .L0 
     /tmp/ccyhTnIv.s:2112   .text:0000000000000ca0 .L0 
     /tmp/ccyhTnIv.s:2113   .text:0000000000000ca0 .L0 
     /tmp/ccyhTnIv.s:2118   .text:0000000000000cb4 .L0 
GAS LISTING /tmp/ccyhTnIv.s 			page 78


     /tmp/ccyhTnIv.s:2121   .text:0000000000000cb8 .L0 
     /tmp/ccyhTnIv.s:2122   .text:0000000000000cb8 .L0 
     /tmp/ccyhTnIv.s:2131   .text:0000000000000cd4 .L0 
     /tmp/ccyhTnIv.s:2132   .text:0000000000000cd8 .L0 
     /tmp/ccyhTnIv.s:2133   .text:0000000000000cd8 .L0 
     /tmp/ccyhTnIv.s:2135   .text:0000000000000cdc .L0 
     /tmp/ccyhTnIv.s:2136   .text:0000000000000cdc .L0 
     /tmp/ccyhTnIv.s:2138   .text:0000000000000ce0 .L0 
     /tmp/ccyhTnIv.s:2140   .text:0000000000000ce4 .L0 
     /tmp/ccyhTnIv.s:2142   .text:0000000000000ce8 .L0 
     /tmp/ccyhTnIv.s:2145   .text:0000000000000cec .L0 
     /tmp/ccyhTnIv.s:2147   .text:0000000000000cf0 .L0 
     /tmp/ccyhTnIv.s:2151   .text:0000000000000cf4 .L0 
     /tmp/ccyhTnIv.s:2153   .text:0000000000000cf4 .L0 
     /tmp/ccyhTnIv.s:2154   .text:0000000000000cf4 .L0 
     /tmp/ccyhTnIv.s:2158   .text:0000000000000d00 .L0 
     /tmp/ccyhTnIv.s:2162   .text:0000000000000d0c .L0 
     /tmp/ccyhTnIv.s:2163   .text:0000000000000d0c .L0 
     /tmp/ccyhTnIv.s:2168   .text:0000000000000d20 .L0 
     /tmp/ccyhTnIv.s:2170   .text:0000000000000d24 .L0 
     /tmp/ccyhTnIv.s:2171   .text:0000000000000d24 .L0 
     /tmp/ccyhTnIv.s:2173   .text:0000000000000d28 .L0 
     /tmp/ccyhTnIv.s:2175   .text:0000000000000d2c .L0 
     /tmp/ccyhTnIv.s:2176   .text:0000000000000d2c .L0 
     /tmp/ccyhTnIv.s:2178   .text:0000000000000d30 .L0 
     /tmp/ccyhTnIv.s:2180   .text:0000000000000d34 .L0 
     /tmp/ccyhTnIv.s:2181   .text:0000000000000d34 .L0 
     /tmp/ccyhTnIv.s:2183   .text:0000000000000d38 .L0 
     /tmp/ccyhTnIv.s:2185   .text:0000000000000d3c .L0 
     /tmp/ccyhTnIv.s:2186   .text:0000000000000d3c .L0 
     /tmp/ccyhTnIv.s:2188   .text:0000000000000d40 .L0 
     /tmp/ccyhTnIv.s:2190   .text:0000000000000d44 .L0 
     /tmp/ccyhTnIv.s:2191   .text:0000000000000d44 .L0 
     /tmp/ccyhTnIv.s:2196   .text:0000000000000d58 .L0 
     /tmp/ccyhTnIv.s:2197   .text:0000000000000d58 .L0 
     /tmp/ccyhTnIv.s:2201   .text:0000000000000d64 .L0 
     /tmp/ccyhTnIv.s:2203   .text:0000000000000d68 .L0 
     /tmp/ccyhTnIv.s:2204   .text:0000000000000d68 .L0 
     /tmp/ccyhTnIv.s:2206   .text:0000000000000d6c .L0 
     /tmp/ccyhTnIv.s:2210   .text:0000000000000d78 .L0 
     /tmp/ccyhTnIv.s:2212   .text:0000000000000d7c .L0 
     /tmp/ccyhTnIv.s:2213   .text:0000000000000d7c .L0 
     /tmp/ccyhTnIv.s:2215   .text:0000000000000d80 .L0 
     /tmp/ccyhTnIv.s:2217   .text:0000000000000d88 .L0 
     /tmp/ccyhTnIv.s:2223   .text:0000000000000d88 _Z5kfreePKv
     /tmp/ccyhTnIv.s:2226   .text:0000000000000d88 .L0 
     /tmp/ccyhTnIv.s:2228   .text:0000000000000d88 .L0 
     /tmp/ccyhTnIv.s:2229   .text:0000000000000d88 .L0 
     /tmp/ccyhTnIv.s:2231   .text:0000000000000d8c .L0 
     /tmp/ccyhTnIv.s:2232   .text:0000000000000d90 .L0 
     /tmp/ccyhTnIv.s:2237   .text:0000000000000da0 .L0 
     /tmp/ccyhTnIv.s:2238   .text:0000000000000da0 .L0 
     /tmp/ccyhTnIv.s:2239   .text:0000000000000da0 .L0 
     /tmp/ccyhTnIv.s:2240   .text:0000000000000da0 .L0 
     /tmp/ccyhTnIv.s:2242   .text:0000000000000da4 .L0 
     /tmp/ccyhTnIv.s:2246   .text:0000000000000da8 .L0 
     /tmp/ccyhTnIv.s:2249   .text:0000000000000dac .L0 
GAS LISTING /tmp/ccyhTnIv.s 			page 79


     /tmp/ccyhTnIv.s:2254   .text:0000000000000db0 .L0 
     /tmp/ccyhTnIv.s:2257   .text:0000000000000db8 .L0 
     /tmp/ccyhTnIv.s:2258   .text:0000000000000db8 .L0 
     /tmp/ccyhTnIv.s:2267   .text:0000000000000dd8 .L0 
     /tmp/ccyhTnIv.s:2269   .text:0000000000000ddc .L0 
     /tmp/ccyhTnIv.s:2275   .text:0000000000000de4 .L0 
     /tmp/ccyhTnIv.s:2277   .text:0000000000000de8 .L0 
     /tmp/ccyhTnIv.s:2278   .text:0000000000000de8 .L0 
     /tmp/ccyhTnIv.s:2283   .text:0000000000000df4 .L0 
     /tmp/ccyhTnIv.s:2284   .text:0000000000000df8 .L0 
     /tmp/ccyhTnIv.s:2286   .text:0000000000000dfc .L0 
     /tmp/ccyhTnIv.s:2287   .text:0000000000000dfc .L0 
     /tmp/ccyhTnIv.s:2289   .text:0000000000000e00 .L0 
     /tmp/ccyhTnIv.s:2292   .text:0000000000000e04 .L0 
     /tmp/ccyhTnIv.s:2295   .text:0000000000000e08 .L0 
     /tmp/ccyhTnIv.s:2300   .text:0000000000000e10 .L0 
     /tmp/ccyhTnIv.s:2306   .text:0000000000000e10 _Z17destroy_slab_listP6slab_s
     /tmp/ccyhTnIv.s:2309   .text:0000000000000e10 .L0 
     /tmp/ccyhTnIv.s:2311   .text:0000000000000e10 .L0 
     /tmp/ccyhTnIv.s:2312   .text:0000000000000e14 .L0 
     /tmp/ccyhTnIv.s:2318   .text:0000000000000e28 .L0 
     /tmp/ccyhTnIv.s:2319   .text:0000000000000e28 .L0 
     /tmp/ccyhTnIv.s:2320   .text:0000000000000e28 .L0 
     /tmp/ccyhTnIv.s:2321   .text:0000000000000e28 .L0 
     /tmp/ccyhTnIv.s:2322   .text:0000000000000e28 .L0 
     /tmp/ccyhTnIv.s:2324   .text:0000000000000e2c .L0 
     /tmp/ccyhTnIv.s:2326   .text:0000000000000e2c .L0 
     /tmp/ccyhTnIv.s:2329   .text:0000000000000e34 .L0 
     /tmp/ccyhTnIv.s:2330   .text:0000000000000e34 .L0 
     /tmp/ccyhTnIv.s:2332   .text:0000000000000e38 .L0 
     /tmp/ccyhTnIv.s:2335   .text:0000000000000e3c .L0 
     /tmp/ccyhTnIv.s:2336   .text:0000000000000e3c .L0 
     /tmp/ccyhTnIv.s:2340   .text:0000000000000e40 .L0 
     /tmp/ccyhTnIv.s:2341   .text:0000000000000e40 .L0 
     /tmp/ccyhTnIv.s:2344   .text:0000000000000e44 .L0 
     /tmp/ccyhTnIv.s:2345   .text:0000000000000e44 .L0 
     /tmp/ccyhTnIv.s:2348   .text:0000000000000e48 .L0 
     /tmp/ccyhTnIv.s:2349   .text:0000000000000e48 .L0 
     /tmp/ccyhTnIv.s:2355   .text:0000000000000e60 .L0 
     /tmp/ccyhTnIv.s:2356   .text:0000000000000e60 .L0 
     /tmp/ccyhTnIv.s:2357   .text:0000000000000e60 .L0 
     /tmp/ccyhTnIv.s:2360   .text:0000000000000e64 .L0 
     /tmp/ccyhTnIv.s:2363   .text:0000000000000e68 .L0 
     /tmp/ccyhTnIv.s:2367   .text:0000000000000e6c .L0 
     /tmp/ccyhTnIv.s:2371   .text:0000000000000e70 .L0 
     /tmp/ccyhTnIv.s:2373   .text:0000000000000e78 .L0 
     /tmp/ccyhTnIv.s:2375   .text:0000000000000e7c .L0 
     /tmp/ccyhTnIv.s:2376   .text:0000000000000e7c .L0 
     /tmp/ccyhTnIv.s:2378   .text:0000000000000e80 .L0 
     /tmp/ccyhTnIv.s:2380   .text:0000000000000e84 .L0 
     /tmp/ccyhTnIv.s:2382   .text:0000000000000e88 .L0 
     /tmp/ccyhTnIv.s:2384   .text:0000000000000e8c .L0 
     /tmp/ccyhTnIv.s:2386   .text:0000000000000e90 .L0 
     /tmp/ccyhTnIv.s:2392   .text:0000000000000e90 _Z18kmem_cache_destroyP12kmem_cache_s
     /tmp/ccyhTnIv.s:2395   .text:0000000000000e90 .L0 
     /tmp/ccyhTnIv.s:2397   .text:0000000000000e90 .L0 
     /tmp/ccyhTnIv.s:2398   .text:0000000000000e94 .L0 
GAS LISTING /tmp/ccyhTnIv.s 			page 80


     /tmp/ccyhTnIv.s:2402   .text:0000000000000ea0 .L0 
     /tmp/ccyhTnIv.s:2403   .text:0000000000000ea0 .L0 
     /tmp/ccyhTnIv.s:2404   .text:0000000000000ea0 .L0 
     /tmp/ccyhTnIv.s:2406   .text:0000000000000ea4 .L0 
     /tmp/ccyhTnIv.s:2409   .text:0000000000000ea8 .L0 
     /tmp/ccyhTnIv.s:2410   .text:0000000000000ea8 .L0 
     /tmp/ccyhTnIv.s:2412   .text:0000000000000eac .L0 
     /tmp/ccyhTnIv.s:2415   .text:0000000000000eb0 .L0 
     /tmp/ccyhTnIv.s:2416   .text:0000000000000eb0 .L0 
     /tmp/ccyhTnIv.s:2422   .text:0000000000000ebc .L0 
     /tmp/ccyhTnIv.s:2423   .text:0000000000000ebc .L0 
     /tmp/ccyhTnIv.s:2424   .text:0000000000000ec0 .L0 
     /tmp/ccyhTnIv.s:2425   .text:0000000000000ec0 .L0 
     /tmp/ccyhTnIv.s:2427   .text:0000000000000ec4 .L0 
     /tmp/ccyhTnIv.s:2428   .text:0000000000000ec4 .L0 
     /tmp/ccyhTnIv.s:2430   .text:0000000000000ec8 .L0 
     /tmp/ccyhTnIv.s:2433   .text:0000000000000ecc .L0 
     /tmp/ccyhTnIv.s:2437   .text:0000000000000ed0 .L0 
     /tmp/ccyhTnIv.s:2439   .text:0000000000000ed0 .L0 
     /tmp/ccyhTnIv.s:2441   .text:0000000000000ed4 .L0 
     /tmp/ccyhTnIv.s:2443   .text:0000000000000ed8 .L0 
     /tmp/ccyhTnIv.s:2444   .text:0000000000000ed8 .L0 
     /tmp/ccyhTnIv.s:2448   .text:0000000000000ee4 .L0 
     /tmp/ccyhTnIv.s:2449   .text:0000000000000ee4 .L0 
     /tmp/ccyhTnIv.s:2453   .text:0000000000000ef0 .L0 
     /tmp/ccyhTnIv.s:2454   .text:0000000000000ef0 .L0 
     /tmp/ccyhTnIv.s:2458   .text:0000000000000efc .L0 
     /tmp/ccyhTnIv.s:2459   .text:0000000000000efc .L0 
     /tmp/ccyhTnIv.s:2465   .text:0000000000000f18 .L0 
     /tmp/ccyhTnIv.s:2471   .text:0000000000000f18 _Z17kmem_cache_shrinkP12kmem_cache_s
     /tmp/ccyhTnIv.s:2474   .text:0000000000000f18 .L0 
     /tmp/ccyhTnIv.s:2476   .text:0000000000000f18 .L0 
     /tmp/ccyhTnIv.s:2477   .text:0000000000000f18 .L0 
     /tmp/ccyhTnIv.s:2479   .text:0000000000000f1c .L0 
     /tmp/ccyhTnIv.s:2480   .text:0000000000000f20 .L0 
     /tmp/ccyhTnIv.s:2484   .text:0000000000000f2c .L0 
     /tmp/ccyhTnIv.s:2485   .text:0000000000000f2c .L0 
     /tmp/ccyhTnIv.s:2486   .text:0000000000000f2c .L0 
     /tmp/ccyhTnIv.s:2488   .text:0000000000000f30 .L0 
     /tmp/ccyhTnIv.s:2491   .text:0000000000000f34 .L0 
     /tmp/ccyhTnIv.s:2492   .text:0000000000000f34 .L0 
     /tmp/ccyhTnIv.s:2497   .text:0000000000000f40 .L0 
     /tmp/ccyhTnIv.s:2498   .text:0000000000000f40 .L0 
     /tmp/ccyhTnIv.s:2500   .text:0000000000000f44 .L0 
     /tmp/ccyhTnIv.s:2501   .text:0000000000000f44 .L0 
     /tmp/ccyhTnIv.s:2502   .text:0000000000000f48 .L0 
     /tmp/ccyhTnIv.s:2504   .text:0000000000000f4c .L0 
     /tmp/ccyhTnIv.s:2505   .text:0000000000000f4c .L0 
     /tmp/ccyhTnIv.s:2507   .text:0000000000000f50 .L0 
     /tmp/ccyhTnIv.s:2510   .text:0000000000000f54 .L0 
     /tmp/ccyhTnIv.s:2515   .text:0000000000000f58 .L0 
     /tmp/ccyhTnIv.s:2518   .text:0000000000000f5c .L0 
     /tmp/ccyhTnIv.s:2519   .text:0000000000000f60 .L0 
     /tmp/ccyhTnIv.s:2533   .text:0000000000000f60 _Z16kmem_cache_errorP12kmem_cache_s
     /tmp/ccyhTnIv.s:2536   .text:0000000000000f60 .L0 
     /tmp/ccyhTnIv.s:2538   .text:0000000000000f60 .L0 
     /tmp/ccyhTnIv.s:2539   .text:0000000000000f60 .L0 
GAS LISTING /tmp/ccyhTnIv.s 			page 81


     /tmp/ccyhTnIv.s:2541   .text:0000000000000f64 .L0 
     /tmp/ccyhTnIv.s:2542   .text:0000000000000f68 .L0 
     /tmp/ccyhTnIv.s:2546   .text:0000000000000f74 .L0 
     /tmp/ccyhTnIv.s:2547   .text:0000000000000f74 .L0 
     /tmp/ccyhTnIv.s:2548   .text:0000000000000f74 .L0 
     /tmp/ccyhTnIv.s:2550   .text:0000000000000f78 .L0 
     /tmp/ccyhTnIv.s:2553   .text:0000000000000f7c .L0 
     /tmp/ccyhTnIv.s:2554   .text:0000000000000f7c .L0 
     /tmp/ccyhTnIv.s:2556   .text:0000000000000f80 .L0 
     /tmp/ccyhTnIv.s:2558   .text:0000000000000f84 .L0 
     /tmp/ccyhTnIv.s:2562   .text:0000000000000f88 .L0 
     /tmp/ccyhTnIv.s:2563   .text:0000000000000f88 .L0 
     /tmp/ccyhTnIv.s:2565   .text:0000000000000f8c .L0 
     /tmp/ccyhTnIv.s:2567   .text:0000000000000f90 .L0 
     /tmp/ccyhTnIv.s:2570   .text:0000000000000f94 .L0 
     /tmp/ccyhTnIv.s:2571   .text:0000000000000f94 .L0 
     /tmp/ccyhTnIv.s:2573   .text:0000000000000f98 .L0 
     /tmp/ccyhTnIv.s:2574   .text:0000000000000f9c .L0 
     /tmp/ccyhTnIv.s:2575   .text:0000000000000f9c .L0 
     /tmp/ccyhTnIv.s:2577   .text:0000000000000fa0 .L0 
     /tmp/ccyhTnIv.s:2578   .text:0000000000000fa0 .L0 
     /tmp/ccyhTnIv.s:2580   .text:0000000000000fa4 .L0 
     /tmp/ccyhTnIv.s:2583   .text:0000000000000fa8 .L0 
     /tmp/ccyhTnIv.s:2587   .text:0000000000000fac .L0 
     /tmp/ccyhTnIv.s:2589   .text:0000000000000fac .L0 
     /tmp/ccyhTnIv.s:2590   .text:0000000000000fac .L0 
     /tmp/ccyhTnIv.s:2596   .text:0000000000000fc0 .L0 
     /tmp/ccyhTnIv.s:2597   .text:0000000000000fc0 .L0 
     /tmp/ccyhTnIv.s:2603   .text:0000000000000fd4 .L0 
     /tmp/ccyhTnIv.s:2604   .text:0000000000000fd4 .L0 
     /tmp/ccyhTnIv.s:2605   .text:0000000000000fd4 .L0 
     /tmp/ccyhTnIv.s:2606   .text:0000000000000fd4 .L0 
     /tmp/ccyhTnIv.s:2608   .text:0000000000000fd4 .L0 
     /tmp/ccyhTnIv.s:2611   .text:0000000000000fd8 .L0 
     /tmp/ccyhTnIv.s:2612   .text:0000000000000fdc .L0 
     /tmp/ccyhTnIv.s:2617   .bss:0000000000000000 .LANCHOR0
     /tmp/ccyhTnIv.s:2620   .bss:0000000000000000 _ZL13slabAllocator
     /tmp/ccyhTnIv.s:2630   .text:0000000000000fdc .L0 
     /tmp/ccyhTnIv.s:57     .rodata.str1.8:0000000000000000 .LC0
     /tmp/ccyhTnIv.s:112    .text:000000000000007c .L0 
     /tmp/ccyhTnIv.s:704    .text:00000000000003dc .L0 
     /tmp/ccyhTnIv.s:1090   .rodata.str1.8:0000000000000010 .LC1
     /tmp/ccyhTnIv.s:1128   .text:0000000000000604 .L0 
     /tmp/ccyhTnIv.s:1093   .rodata.str1.8:0000000000000028 .LC2
     /tmp/ccyhTnIv.s:1136   .text:000000000000061c .L0 
     /tmp/ccyhTnIv.s:1096   .rodata.str1.8:0000000000000038 .LC3
     /tmp/ccyhTnIv.s:1143   .text:0000000000000634 .L0 
     /tmp/ccyhTnIv.s:1099   .rodata.str1.8:0000000000000058 .LC4
     /tmp/ccyhTnIv.s:1150   .text:000000000000064c .L0 
     /tmp/ccyhTnIv.s:1102   .rodata.str1.8:0000000000000070 .LC5
     /tmp/ccyhTnIv.s:1179   .text:0000000000000688 .L0 
     /tmp/ccyhTnIv.s:1365   .text:00000000000007c4 .L0 
     /tmp/ccyhTnIv.s:1599   .text:000000000000093c .L0 
     /tmp/ccyhTnIv.s:1761   .rodata.str1.8:0000000000000078 .LC6
     /tmp/ccyhTnIv.s:1808   .text:0000000000000a60 .L0 
     /tmp/ccyhTnIv.s:1764   .rodata.str1.8:00000000000000b0 .LC7
     /tmp/ccyhTnIv.s:1814   .text:0000000000000a70 .L0 
GAS LISTING /tmp/ccyhTnIv.s 			page 82


     /tmp/ccyhTnIv.s:1824   .text:0000000000000a8c .L0 
     /tmp/ccyhTnIv.s:1767   .rodata.str1.8:00000000000000c0 .LC8
     /tmp/ccyhTnIv.s:1831   .text:0000000000000aa4 .L0 
     /tmp/ccyhTnIv.s:1770   .rodata.str1.8:00000000000000e0 .LC9
     /tmp/ccyhTnIv.s:1838   .text:0000000000000abc .L0 
     /tmp/ccyhTnIv.s:1773   .rodata.str1.8:0000000000000100 .LC10
     /tmp/ccyhTnIv.s:1843   .text:0000000000000acc .L0 
     /tmp/ccyhTnIv.s:1776   .rodata.str1.8:0000000000000120 .LC11
     /tmp/ccyhTnIv.s:1848   .text:0000000000000adc .L0 
     /tmp/ccyhTnIv.s:1779   .rodata.str1.8:0000000000000130 .LC12
     /tmp/ccyhTnIv.s:1873   .text:0000000000000b08 .L0 
     /tmp/ccyhTnIv.s:1782   .rodata.str1.8:0000000000000140 .LC13
     /tmp/ccyhTnIv.s:1898   .text:0000000000000b34 .L0 
     /tmp/ccyhTnIv.s:1941   .rodata.str1.8:0000000000000150 .LC14
     /tmp/ccyhTnIv.s:1975   .text:0000000000000b8c .L0 
     /tmp/ccyhTnIv.s:1980   .text:0000000000000b9c .L0 
     /tmp/ccyhTnIv.s:1944   .rodata.str1.8:00000000000001a0 .LC15
     /tmp/ccyhTnIv.s:1985   .text:0000000000000bb0 .L0 
     /tmp/ccyhTnIv.s:1947   .rodata.str1.8:00000000000001c0 .LC16
     /tmp/ccyhTnIv.s:1992   .text:0000000000000bc8 .L0 
     /tmp/ccyhTnIv.s:1950   .rodata.str1.8:00000000000001d8 .LC17
     /tmp/ccyhTnIv.s:1997   .text:0000000000000bd8 .L0 
     /tmp/ccyhTnIv.s:1953   .rodata.str1.8:00000000000001f0 .LC18
     /tmp/ccyhTnIv.s:2009   .text:0000000000000bf8 .L0 
     /tmp/ccyhTnIv.s:2034   .text:0000000000000c28 .L0 
     /tmp/ccyhTnIv.s:2113   .text:0000000000000ca0 .L0 
     /tmp/ccyhTnIv.s:2123   .text:0000000000000cbc .L0 
     /tmp/ccyhTnIv.s:2163   .text:0000000000000d0c .L0 
     /tmp/ccyhTnIv.s:2059   .rodata.str1.8:0000000000000208 .LC19
     /tmp/ccyhTnIv.s:2192   .text:0000000000000d48 .L0 
     /tmp/ccyhTnIv.s:2259   .text:0000000000000dbc .L0 
     /tmp/ccyhTnIv.s:2350   .text:0000000000000e4c .L0 
     /tmp/ccyhTnIv.s:2460   .text:0000000000000f00 .L0 
     /tmp/ccyhTnIv.s:2524   .rodata.str1.8:0000000000000220 .LC20
     /tmp/ccyhTnIv.s:2590   .text:0000000000000fac .L0 
     /tmp/ccyhTnIv.s:2527   .rodata.str1.8:0000000000000230 .LC21
     /tmp/ccyhTnIv.s:2597   .text:0000000000000fc0 .L0 
     /tmp/ccyhTnIv.s:41     .text:0000000000000024 .L2
     /tmp/ccyhTnIv.s:21     .text:000000000000000c .L3
     /tmp/ccyhTnIv.s:104    .text:0000000000000070 .L7
     /tmp/ccyhTnIv.s:95     .text:0000000000000060 .L9
     /tmp/ccyhTnIv.s:234    .text:0000000000000130 .L15
     /tmp/ccyhTnIv.s:213    .text:0000000000000114 .L17
     /tmp/ccyhTnIv.s:184    .text:00000000000000e4 .L13
     /tmp/ccyhTnIv.s:243    .text:0000000000000138 .L11
     /tmp/ccyhTnIv.s:274    .text:0000000000000178 .L10
     /tmp/ccyhTnIv.s:373    .text:00000000000001ec .L23
     /tmp/ccyhTnIv.s:433    .text:0000000000000238 .L31
     /tmp/ccyhTnIv.s:418    .text:0000000000000224 .L29
     /tmp/ccyhTnIv.s:443    .text:0000000000000244 .L27
     /tmp/ccyhTnIv.s:424    .text:000000000000022c .L25
     /tmp/ccyhTnIv.s:813    .text:0000000000000488 .L40
     /tmp/ccyhTnIv.s:723    .text:0000000000000408 .L42
     /tmp/ccyhTnIv.s:775    .text:0000000000000450 .L43
     /tmp/ccyhTnIv.s:759    .text:0000000000000434 .L44
     /tmp/ccyhTnIv.s:787    .text:000000000000045c .L45
     /tmp/ccyhTnIv.s:867    .text:00000000000004c4 .L48
GAS LISTING /tmp/ccyhTnIv.s 			page 83


     /tmp/ccyhTnIv.s:854    .text:00000000000004b4 .L49
     /tmp/ccyhTnIv.s:884    .text:00000000000004d8 .L52
     /tmp/ccyhTnIv.s:909    .text:00000000000004fc .L50
     /tmp/ccyhTnIv.s:880    .text:00000000000004d4 .L51
     /tmp/ccyhTnIv.s:981    .text:0000000000000554 .L55
     /tmp/ccyhTnIv.s:1032   .text:0000000000000594 .L63
     /tmp/ccyhTnIv.s:956    .text:0000000000000530 .L59
     /tmp/ccyhTnIv.s:992    .text:0000000000000560 .L57
     /tmp/ccyhTnIv.s:950    .text:000000000000052c .L58
     /tmp/ccyhTnIv.s:1006   .text:000000000000056c .L61
     /tmp/ccyhTnIv.s:1000   .text:0000000000000568 .L60
     /tmp/ccyhTnIv.s:1186   .text:00000000000006a0 .L67
     /tmp/ccyhTnIv.s:1158   .text:0000000000000660 .L69
     /tmp/ccyhTnIv.s:1331   .text:00000000000007a0 .L76
     /tmp/ccyhTnIv.s:1253   .text:0000000000000704 .L71
     /tmp/ccyhTnIv.s:1268   .text:0000000000000718 .L79
     /tmp/ccyhTnIv.s:1289   .text:0000000000000740 .L80
     /tmp/ccyhTnIv.s:1316   .text:0000000000000780 .L81
     /tmp/ccyhTnIv.s:1450   .text:0000000000000850 .L93
     /tmp/ccyhTnIv.s:1502   .text:0000000000000898 .L88
     /tmp/ccyhTnIv.s:1469   .text:000000000000086c .L84
     /tmp/ccyhTnIv.s:1489   .text:0000000000000888 .L94
     /tmp/ccyhTnIv.s:1552   .text:00000000000008f8 .L95
     /tmp/ccyhTnIv.s:1754   .text:0000000000000a40 .L103
     /tmp/ccyhTnIv.s:1735   .text:0000000000000a24 .L98
     /tmp/ccyhTnIv.s:1717   .text:0000000000000a04 .L100
     /tmp/ccyhTnIv.s:1728   .text:0000000000000a14 .L101
     /tmp/ccyhTnIv.s:1870   .text:0000000000000b08 .L107
     /tmp/ccyhTnIv.s:1855   .text:0000000000000af0 .L108
     /tmp/ccyhTnIv.s:1895   .text:0000000000000b34 .L109
     /tmp/ccyhTnIv.s:1880   .text:0000000000000b1c .L110
     /tmp/ccyhTnIv.s:1920   .text:0000000000000b60 .L106
     /tmp/ccyhTnIv.s:1905   .text:0000000000000b48 .L112
     /tmp/ccyhTnIv.s:2027   .text:0000000000000c1c .L117
     /tmp/ccyhTnIv.s:2040   .text:0000000000000c40 .L114
     /tmp/ccyhTnIv.s:2018   .text:0000000000000c10 .L119
     /tmp/ccyhTnIv.s:2023   .text:0000000000000c18 .L116
     /tmp/ccyhTnIv.s:2102   .text:0000000000000c98 .L124
     /tmp/ccyhTnIv.s:2106   .text:0000000000000c9c .L121
     /tmp/ccyhTnIv.s:2129   .text:0000000000000cd4 .L120
     /tmp/ccyhTnIv.s:2150   .text:0000000000000cf4 .L127
     /tmp/ccyhTnIv.s:2119   .text:0000000000000cb8 .L123
     /tmp/ccyhTnIv.s:2298   .text:0000000000000e0c .L133
     /tmp/ccyhTnIv.s:2272   .text:0000000000000de4 .L130
     /tmp/ccyhTnIv.s:2251   .text:0000000000000db0 .L131
     /tmp/ccyhTnIv.s:2281   .text:0000000000000df4 .L128
     /tmp/ccyhTnIv.s:2365   .text:0000000000000e6c .L139
     /tmp/ccyhTnIv.s:2369   .text:0000000000000e70 .L137
     /tmp/ccyhTnIv.s:2338   .text:0000000000000e40 .L138
     /tmp/ccyhTnIv.s:2436   .text:0000000000000ed0 .L146
     /tmp/ccyhTnIv.s:2413   .text:0000000000000eb0 .L142
     /tmp/ccyhTnIv.s:2421   .text:0000000000000ebc .L141
     /tmp/ccyhTnIv.s:2513   .text:0000000000000f58 .L149
     /tmp/ccyhTnIv.s:2602   .text:0000000000000fd4 .L158
     /tmp/ccyhTnIv.s:2586   .text:0000000000000fac .L163
     /tmp/ccyhTnIv.s:2594   .text:0000000000000fc0 .L164
     /tmp/ccyhTnIv.s:2560   .text:0000000000000f88 .L156
GAS LISTING /tmp/ccyhTnIv.s 			page 84


     /tmp/ccyhTnIv.s:2568   .text:0000000000000f94 .L157
     /tmp/ccyhTnIv.s:5857   .debug_abbrev:0000000000000000 .Ldebug_abbrev0
     /tmp/ccyhTnIv.s:8471   .debug_str:0000000000000f1d .LASF301
     /tmp/ccyhTnIv.s:8275   .debug_str:000000000000086d .LASF302
     /tmp/ccyhTnIv.s:8153   .debug_str:000000000000048f .LASF303
     /tmp/ccyhTnIv.s:5      .text:0000000000000000 .Ltext0
     /tmp/ccyhTnIv.s:2623   .text:0000000000000fdc .Letext0
     /tmp/ccyhTnIv.s:8009   .debug_line:0000000000000000 .Ldebug_line0
     /tmp/ccyhTnIv.s:8227   .debug_str:00000000000006e7 .LASF0
     /tmp/ccyhTnIv.s:8257   .debug_str:00000000000007ef .LASF1
     /tmp/ccyhTnIv.s:8409   .debug_str:0000000000000d07 .LASF2
     /tmp/ccyhTnIv.s:8159   .debug_str:00000000000004bd .LASF3
     /tmp/ccyhTnIv.s:8425   .debug_str:0000000000000d86 .LASF4
     /tmp/ccyhTnIv.s:8239   .debug_str:0000000000000736 .LASF5
     /tmp/ccyhTnIv.s:8031   .debug_str:00000000000000be .LASF6
     /tmp/ccyhTnIv.s:8359   .debug_str:0000000000000b45 .LASF7
     /tmp/ccyhTnIv.s:8249   .debug_str:00000000000007a0 .LASF8
     /tmp/ccyhTnIv.s:8187   .debug_str:0000000000000578 .LASF9
     /tmp/ccyhTnIv.s:8197   .debug_str:00000000000005c5 .LASF10
     /tmp/ccyhTnIv.s:8091   .debug_str:00000000000002fd .LASF11
     /tmp/ccyhTnIv.s:8067   .debug_str:0000000000000201 .LASF12
     /tmp/ccyhTnIv.s:8175   .debug_str:0000000000000524 .LASF13
     /tmp/ccyhTnIv.s:8109   .debug_str:0000000000000359 .LASF14
     /tmp/ccyhTnIv.s:8089   .debug_str:00000000000002ed .LASF15
     /tmp/ccyhTnIv.s:8475   .debug_str:0000000000001003 .LASF16
     /tmp/ccyhTnIv.s:8147   .debug_str:000000000000045f .LASF17
     /tmp/ccyhTnIv.s:8461   .debug_str:0000000000000eae .LASF18
     /tmp/ccyhTnIv.s:8171   .debug_str:0000000000000506 .LASF19
     /tmp/ccyhTnIv.s:8169   .debug_str:00000000000004f9 .LASF30
     /tmp/ccyhTnIv.s:8189   .debug_str:0000000000000588 .LASF20
     /tmp/ccyhTnIv.s:8167   .debug_str:00000000000004ed .LASF21
     /tmp/ccyhTnIv.s:8313   .debug_str:00000000000009b8 .LASF22
     /tmp/ccyhTnIv.s:8191   .debug_str:0000000000000592 .LASF23
     /tmp/ccyhTnIv.s:8453   .debug_str:0000000000000e79 .LASF24
     /tmp/ccyhTnIv.s:8563   .debug_str:0000000000001301 .LASF25
     /tmp/ccyhTnIv.s:8289   .debug_str:00000000000008e8 .LASF26
     /tmp/ccyhTnIv.s:8225   .debug_str:00000000000006e2 .LASF27
     /tmp/ccyhTnIv.s:8235   .debug_str:000000000000071d .LASF28
     /tmp/ccyhTnIv.s:8489   .debug_str:0000000000001043 .LASF29
     /tmp/ccyhTnIv.s:8363   .debug_str:0000000000000b60 .LASF31
     /tmp/ccyhTnIv.s:8093   .debug_str:000000000000030c .LASF32
     /tmp/ccyhTnIv.s:8393   .debug_str:0000000000000c7b .LASF33
     /tmp/ccyhTnIv.s:8485   .debug_str:0000000000001037 .LASF34
     /tmp/ccyhTnIv.s:8271   .debug_str:000000000000084c .LASF35
     /tmp/ccyhTnIv.s:8287   .debug_str:00000000000008d9 .LASF36
     /tmp/ccyhTnIv.s:8295   .debug_str:0000000000000901 .LASF37
     /tmp/ccyhTnIv.s:8501   .debug_str:000000000000108f .LASF38
     /tmp/ccyhTnIv.s:8539   .debug_str:000000000000121a .LASF39
     /tmp/ccyhTnIv.s:8261   .debug_str:000000000000080d .LASF40
     /tmp/ccyhTnIv.s:8163   .debug_str:00000000000004d1 .LASF41
     /tmp/ccyhTnIv.s:8493   .debug_str:0000000000001053 .LASF304
     /tmp/ccyhTnIv.s:8487   .debug_str:000000000000103d .LASF42
     /tmp/ccyhTnIv.s:8445   .debug_str:0000000000000e26 .LASF43
     /tmp/ccyhTnIv.s:8101   .debug_str:000000000000032f .LASF44
     /tmp/ccyhTnIv.s:8069   .debug_str:0000000000000214 .LASF45
     /tmp/ccyhTnIv.s:8361   .debug_str:0000000000000b58 .LASF46
     /tmp/ccyhTnIv.s:8099   .debug_str:0000000000000326 .LASF47
GAS LISTING /tmp/ccyhTnIv.s 			page 85


     /tmp/ccyhTnIv.s:8483   .debug_str:000000000000102f .LASF48
     /tmp/ccyhTnIv.s:8215   .debug_str:0000000000000675 .LASF49
     /tmp/ccyhTnIv.s:8033   .debug_str:00000000000000c5 .LASF55
     /tmp/ccyhTnIv.s:8527   .debug_str:0000000000001196 .LASF305
     /tmp/ccyhTnIv.s:8345   .debug_str:0000000000000ae8 .LASF50
     /tmp/ccyhTnIv.s:8255   .debug_str:00000000000007ea .LASF51
     /tmp/ccyhTnIv.s:8603   .debug_str:0000000000001429 .LASF53
     /tmp/ccyhTnIv.s:8595   .debug_str:00000000000013f7 .LASF52
     /tmp/ccyhTnIv.s:8511   .debug_str:00000000000010f7 .LASF54
     /tmp/ccyhTnIv.s:8133   .debug_str:000000000000041a .LASF78
     /tmp/ccyhTnIv.s:8045   .debug_str:000000000000013e .LASF80
     /tmp/ccyhTnIv.s:8499   .debug_str:0000000000001087 .LASF56
     /tmp/ccyhTnIv.s:8433   .debug_str:0000000000000dc5 .LASF57
     /tmp/ccyhTnIv.s:8265   .debug_str:0000000000000822 .LASF60
     /tmp/ccyhTnIv.s:8279   .debug_str:0000000000000888 .LASF62
     /tmp/ccyhTnIv.s:8611   .debug_str:0000000000001492 .LASF58
     /tmp/ccyhTnIv.s:8155   .debug_str:00000000000004a4 .LASF59
     /tmp/ccyhTnIv.s:8023   .debug_str:000000000000007d .LASF104
     /tmp/ccyhTnIv.s:8121   .debug_str:00000000000003d1 .LASF106
     /tmp/ccyhTnIv.s:8437   .debug_str:0000000000000de2 .LASF61
     /tmp/ccyhTnIv.s:8317   .debug_str:00000000000009c9 .LASF63
     /tmp/ccyhTnIv.s:8419   .debug_str:0000000000000d4c .LASF64
     /tmp/ccyhTnIv.s:8469   .debug_str:0000000000000f01 .LASF65
     /tmp/ccyhTnIv.s:8319   .debug_str:00000000000009dc .LASF66
     /tmp/ccyhTnIv.s:8017   .debug_str:000000000000003f .LASF67
     /tmp/ccyhTnIv.s:8585   .debug_str:00000000000013b3 .LASF68
     /tmp/ccyhTnIv.s:8357   .debug_str:0000000000000b2b .LASF69
     /tmp/ccyhTnIv.s:8459   .debug_str:0000000000000ea0 .LASF70
     /tmp/ccyhTnIv.s:8375   .debug_str:0000000000000bba .LASF71
     /tmp/ccyhTnIv.s:8127   .debug_str:00000000000003f8 .LASF72
     /tmp/ccyhTnIv.s:8179   .debug_str:0000000000000549 .LASF73
     /tmp/ccyhTnIv.s:8401   .debug_str:0000000000000cce .LASF74
     /tmp/ccyhTnIv.s:8587   .debug_str:00000000000013c2 .LASF75
     /tmp/ccyhTnIv.s:8589   .debug_str:00000000000013d1 .LASF76
     /tmp/ccyhTnIv.s:8241   .debug_str:0000000000000748 .LASF77
     /tmp/ccyhTnIv.s:8455   .debug_str:0000000000000e83 .LASF79
     /tmp/ccyhTnIv.s:8601   .debug_str:0000000000001413 .LASF81
     /tmp/ccyhTnIv.s:8201   .debug_str:00000000000005e4 .LASF82
     /tmp/ccyhTnIv.s:8177   .debug_str:0000000000000533 .LASF83
     /tmp/ccyhTnIv.s:8431   .debug_str:0000000000000dbd .LASF84
     /tmp/ccyhTnIv.s:8229   .debug_str:00000000000006f4 .LASF85
     /tmp/ccyhTnIv.s:8327   .debug_str:0000000000000a16 .LASF86
     /tmp/ccyhTnIv.s:8115   .debug_str:00000000000003a9 .LASF87
     /tmp/ccyhTnIv.s:8383   .debug_str:0000000000000c0c .LASF88
     /tmp/ccyhTnIv.s:8621   .debug_str:00000000000014f4 .LASF89
     /tmp/ccyhTnIv.s:8333   .debug_str:0000000000000a5f .LASF90
     /tmp/ccyhTnIv.s:8417   .debug_str:0000000000000d39 .LASF91
     /tmp/ccyhTnIv.s:8439   .debug_str:0000000000000deb .LASF92
     /tmp/ccyhTnIv.s:8549   .debug_str:000000000000125c .LASF93
     /tmp/ccyhTnIv.s:8303   .debug_str:0000000000000962 .LASF94
     /tmp/ccyhTnIv.s:8531   .debug_str:00000000000011d8 .LASF95
     /tmp/ccyhTnIv.s:8467   .debug_str:0000000000000ee1 .LASF96
     /tmp/ccyhTnIv.s:8351   .debug_str:0000000000000aff .LASF97
     /tmp/ccyhTnIv.s:8335   .debug_str:0000000000000a80 .LASF98
     /tmp/ccyhTnIv.s:8141   .debug_str:000000000000043d .LASF99
     /tmp/ccyhTnIv.s:8231   .debug_str:0000000000000708 .LASF100
     /tmp/ccyhTnIv.s:8307   .debug_str:000000000000099f .LASF101
GAS LISTING /tmp/ccyhTnIv.s 			page 86


     /tmp/ccyhTnIv.s:8513   .debug_str:0000000000001107 .LASF102
     /tmp/ccyhTnIv.s:8183   .debug_str:000000000000055f .LASF103
     /tmp/ccyhTnIv.s:8593   .debug_str:00000000000013e9 .LASF105
     /tmp/ccyhTnIv.s:8055   .debug_str:00000000000001a0 .LASF107
     /tmp/ccyhTnIv.s:8165   .debug_str:00000000000004d8 .LASF108
     /tmp/ccyhTnIv.s:8083   .debug_str:00000000000002ae .LASF109
     /tmp/ccyhTnIv.s:8583   .debug_str:00000000000013ac .LASF110
     /tmp/ccyhTnIv.s:8079   .debug_str:0000000000000278 .LASF111
     /tmp/ccyhTnIv.s:8021   .debug_str:0000000000000078 .LASF112
     /tmp/ccyhTnIv.s:8545   .debug_str:000000000000124b .LASF113
     /tmp/ccyhTnIv.s:8285   .debug_str:00000000000008d1 .LASF114
     /tmp/ccyhTnIv.s:8139   .debug_str:0000000000000437 .LASF115
     /tmp/ccyhTnIv.s:8525   .debug_str:000000000000118e .LASF116
     /tmp/ccyhTnIv.s:8199   .debug_str:00000000000005d3 .LASF117
     /tmp/ccyhTnIv.s:8291   .debug_str:00000000000008ed .LASF118
     /tmp/ccyhTnIv.s:8389   .debug_str:0000000000000c4b .LASF119
     /tmp/ccyhTnIv.s:8193   .debug_str:00000000000005a0 .LASF120
     /tmp/ccyhTnIv.s:8413   .debug_str:0000000000000d21 .LASF121
     /tmp/ccyhTnIv.s:8387   .debug_str:0000000000000c37 .LASF122
     /tmp/ccyhTnIv.s:8135   .debug_str:0000000000000423 .LASF123
     /tmp/ccyhTnIv.s:8451   .debug_str:0000000000000e62 .LASF124
     /tmp/ccyhTnIv.s:8479   .debug_str:0000000000001022 .LASF125
     /tmp/ccyhTnIv.s:8323   .debug_str:00000000000009f4 .LASF126
     /tmp/ccyhTnIv.s:8013   .debug_str:000000000000000f .LASF127
     /tmp/ccyhTnIv.s:8415   .debug_str:0000000000000d2d .LASF128
     /tmp/ccyhTnIv.s:8297   .debug_str:000000000000090d .LASF129
     /tmp/ccyhTnIv.s:8407   .debug_str:0000000000000cf2 .LASF130
     /tmp/ccyhTnIv.s:8095   .debug_str:0000000000000311 .LASF131
     /tmp/ccyhTnIv.s:8103   .debug_str:0000000000000339 .LASF132
     /tmp/ccyhTnIv.s:8321   .debug_str:00000000000009eb .LASF133
     /tmp/ccyhTnIv.s:8423   .debug_str:0000000000000d7b .LASF134
     /tmp/ccyhTnIv.s:8011   .debug_str:0000000000000000 .LASF135
     /tmp/ccyhTnIv.s:8209   .debug_str:0000000000000632 .LASF136
     /tmp/ccyhTnIv.s:8523   .debug_str:000000000000117f .LASF137
     /tmp/ccyhTnIv.s:8473   .debug_str:0000000000000fe1 .LASF138
     /tmp/ccyhTnIv.s:8441   .debug_str:0000000000000e09 .LASF139
     /tmp/ccyhTnIv.s:8113   .debug_str:0000000000000385 .LASF140
     /tmp/ccyhTnIv.s:8343   .debug_str:0000000000000ad8 .LASF141
     /tmp/ccyhTnIv.s:8379   .debug_str:0000000000000bd8 .LASF142
     /tmp/ccyhTnIv.s:8341   .debug_str:0000000000000ad2 .LASF143
     /tmp/ccyhTnIv.s:8615   .debug_str:00000000000014c5 .LASF144
     /tmp/ccyhTnIv.s:8025   .debug_str:000000000000008d .LASF145
     /tmp/ccyhTnIv.s:8283   .debug_str:00000000000008b7 .LASF146
     /tmp/ccyhTnIv.s:8609   .debug_str:0000000000001482 .LASF147
     /tmp/ccyhTnIv.s:8427   .debug_str:0000000000000d8d .LASF148
     /tmp/ccyhTnIv.s:8477   .debug_str:000000000000100f .LASF149
     /tmp/ccyhTnIv.s:8421   .debug_str:0000000000000d55 .LASF150
     /tmp/ccyhTnIv.s:8617   .debug_str:00000000000014dd .LASF151
     /tmp/ccyhTnIv.s:8253   .debug_str:00000000000007c6 .LASF152
     /tmp/ccyhTnIv.s:8325   .debug_str:0000000000000a0d .LASF153
     /tmp/ccyhTnIv.s:8065   .debug_str:00000000000001f1 .LASF154
     /tmp/ccyhTnIv.s:8517   .debug_str:0000000000001124 .LASF155
     /tmp/ccyhTnIv.s:8429   .debug_str:0000000000000db0 .LASF156
     /tmp/ccyhTnIv.s:8019   .debug_str:0000000000000059 .LASF157
     /tmp/ccyhTnIv.s:8053   .debug_str:000000000000018d .LASF158
     /tmp/ccyhTnIv.s:8337   .debug_str:0000000000000a9f .LASF159
     /tmp/ccyhTnIv.s:8353   .debug_str:0000000000000b13 .LASF160
GAS LISTING /tmp/ccyhTnIv.s 			page 87


     /tmp/ccyhTnIv.s:8213   .debug_str:0000000000000661 .LASF161
     /tmp/ccyhTnIv.s:8347   .debug_str:0000000000000aed .LASF162
     /tmp/ccyhTnIv.s:8259   .debug_str:0000000000000802 .LASF163
     /tmp/ccyhTnIv.s:8373   .debug_str:0000000000000bb0 .LASF164
     /tmp/ccyhTnIv.s:8551   .debug_str:000000000000126f .LASF165
     /tmp/ccyhTnIv.s:8491   .debug_str:0000000000001048 .LASF166
     /tmp/ccyhTnIv.s:8547   .debug_str:0000000000001250 .LASF167
     /tmp/ccyhTnIv.s:8561   .debug_str:00000000000012f4 .LASF168
     /tmp/ccyhTnIv.s:8311   .debug_str:00000000000009ac .LASF169
     /tmp/ccyhTnIv.s:8371   .debug_str:0000000000000ba4 .LASF170
     /tmp/ccyhTnIv.s:8457   .debug_str:0000000000000e8e .LASF173
     /tmp/ccyhTnIv.s:8447   .debug_str:0000000000000e2e .LASF175
     /tmp/ccyhTnIv.s:8537   .debug_str:0000000000001208 .LASF171
     /tmp/ccyhTnIv.s:8581   .debug_str:000000000000138a .LASF172
     /tmp/ccyhTnIv.s:8535   .debug_str:00000000000011f6 .LASF174
     /tmp/ccyhTnIv.s:8037   .debug_str:00000000000000f0 .LASF176
     /tmp/ccyhTnIv.s:8251   .debug_str:00000000000007b3 .LASF177
     /tmp/ccyhTnIv.s:8077   .debug_str:0000000000000255 .LASF178
     /tmp/ccyhTnIv.s:8145   .debug_str:000000000000044c .LASF179
     /tmp/ccyhTnIv.s:8071   .debug_str:000000000000021d .LASF180
     /tmp/ccyhTnIv.s:8047   .debug_str:0000000000000151 .LASF181
     /tmp/ccyhTnIv.s:8559   .debug_str:00000000000012e5 .LASF182
     /tmp/ccyhTnIv.s:8305   .debug_str:0000000000000980 .LASF183
     /tmp/ccyhTnIv.s:8579   .debug_str:0000000000001371 .LASF184
     /tmp/ccyhTnIv.s:8243   .debug_str:0000000000000755 .LASF185
     /tmp/ccyhTnIv.s:8269   .debug_str:0000000000000834 .LASF186
     /tmp/ccyhTnIv.s:8605   .debug_str:0000000000001435 .LASF187
     /tmp/ccyhTnIv.s:8173   .debug_str:0000000000000513 .LASF188
     /tmp/ccyhTnIv.s:8571   .debug_str:0000000000001339 .LASF189
     /tmp/ccyhTnIv.s:8185   .debug_str:000000000000056b .LASF190
     /tmp/ccyhTnIv.s:8591   .debug_str:00000000000013dc .LASF191
     /tmp/ccyhTnIv.s:8205   .debug_str:0000000000000610 .LASF192
     /tmp/ccyhTnIv.s:8039   .debug_str:0000000000000112 .LASF193
     /tmp/ccyhTnIv.s:8273   .debug_str:0000000000000851 .LASF194
     /tmp/ccyhTnIv.s:8339   .debug_str:0000000000000ac6 .LASF195
     /tmp/ccyhTnIv.s:8049   .debug_str:000000000000016c .LASF196
     /tmp/ccyhTnIv.s:8507   .debug_str:00000000000010de .LASF197
     /tmp/ccyhTnIv.s:8051   .debug_str:0000000000000188 .LASF198
     /tmp/ccyhTnIv.s:8481   .debug_str:0000000000001029 .LASF199
     /tmp/ccyhTnIv.s:8405   .debug_str:0000000000000ce5 .LASF200
     /tmp/ccyhTnIv.s:8027   .debug_str:0000000000000095 .LASF201
     /tmp/ccyhTnIv.s:8331   .debug_str:0000000000000a55 .LASF202
     /tmp/ccyhTnIv.s:8149   .debug_str:0000000000000475 .LASF203
     /tmp/ccyhTnIv.s:8245   .debug_str:000000000000077e .LASF204
     /tmp/ccyhTnIv.s:8315   .debug_str:00000000000009c3 .LASF205
     /tmp/ccyhTnIv.s:8385   .debug_str:0000000000000c29 .LASF206
     /tmp/ccyhTnIv.s:8369   .debug_str:0000000000000b96 .LASF207
     /tmp/ccyhTnIv.s:8247   .debug_str:000000000000078f .LASF208
     /tmp/ccyhTnIv.s:8573   .debug_str:000000000000134b .LASF209
     /tmp/ccyhTnIv.s:8597   .debug_str:00000000000013fd .LASF210
     /tmp/ccyhTnIv.s:8607   .debug_str:000000000000145e .LASF212
     /tmp/ccyhTnIv.s:2534   .text:0000000000000f60 .LFB33
     /tmp/ccyhTnIv.s:2613   .text:0000000000000fdc .LFE33
     /tmp/ccyhTnIv.s:8217   .debug_str:000000000000067b .LASF214
     /tmp/ccyhTnIv.s:6842   .debug_loc:0000000000000000 .LLST73
     /tmp/ccyhTnIv.s:2592   .text:0000000000000fbc .LVL257
     /tmp/ccyhTnIv.s:2599   .text:0000000000000fd0 .LVL258
GAS LISTING /tmp/ccyhTnIv.s 			page 88


     /tmp/ccyhTnIv.s:8449   .debug_str:0000000000000e50 .LASF211
     /tmp/ccyhTnIv.s:8555   .debug_str:000000000000129d .LASF213
     /tmp/ccyhTnIv.s:2472   .text:0000000000000f18 .LFB32
     /tmp/ccyhTnIv.s:2520   .text:0000000000000f60 .LFE32
     /tmp/ccyhTnIv.s:6875   .debug_loc:0000000000000088 .LLST71
     /tmp/ccyhTnIv.s:8435   .debug_str:0000000000000dd6 .LASF215
     /tmp/ccyhTnIv.s:6904   .debug_loc:00000000000000fd .LLST72
     /tmp/ccyhTnIv.s:2495   .text:0000000000000f40 .LVL249
     /tmp/ccyhTnIv.s:8151   .debug_str:000000000000047c .LASF220
     /tmp/ccyhTnIv.s:8613   .debug_str:000000000000149f .LASF222
     /tmp/ccyhTnIv.s:2393   .text:0000000000000e90 .LFB31
     /tmp/ccyhTnIv.s:2466   .text:0000000000000f18 .LFE31
     /tmp/ccyhTnIv.s:6911   .debug_loc:0000000000000120 .LLST70
     /tmp/ccyhTnIv.s:2446   .text:0000000000000ee4 .LVL243
     /tmp/ccyhTnIv.s:2451   .text:0000000000000ef0 .LVL244
     /tmp/ccyhTnIv.s:2456   .text:0000000000000efc .LVL245
     /tmp/ccyhTnIv.s:2463   .text:0000000000000f14 .LVL246
     /tmp/ccyhTnIv.s:8509   .debug_str:00000000000010e5 .LASF216
     /tmp/ccyhTnIv.s:8497   .debug_str:0000000000001069 .LASF217
     /tmp/ccyhTnIv.s:2307   .text:0000000000000e10 .LFB30
     /tmp/ccyhTnIv.s:2387   .text:0000000000000e90 .LFE30
     /tmp/ccyhTnIv.s:8355   .debug_str:0000000000000b26 .LASF218
     /tmp/ccyhTnIv.s:6933   .debug_loc:000000000000017f .LLST66
     /tmp/ccyhTnIv.s:6952   .debug_loc:00000000000001db .LLST67
     /tmp/ccyhTnIv.s:6959   .debug_loc:00000000000001fe .LLST68
     /tmp/ccyhTnIv.s:2342   .text:0000000000000e44 .LBB28
     /tmp/ccyhTnIv.s:2361   .text:0000000000000e68 .LBE28
     /tmp/ccyhTnIv.s:8533   .debug_str:00000000000011ed .LASF219
     /tmp/ccyhTnIv.s:6971   .debug_loc:0000000000000235 .LLST69
     /tmp/ccyhTnIv.s:2353   .text:0000000000000e60 .LVL235
     /tmp/ccyhTnIv.s:8181   .debug_str:0000000000000559 .LASF221
     /tmp/ccyhTnIv.s:8263   .debug_str:0000000000000816 .LASF223
     /tmp/ccyhTnIv.s:2224   .text:0000000000000d88 .LFB29
     /tmp/ccyhTnIv.s:2301   .text:0000000000000e10 .LFE29
     /tmp/ccyhTnIv.s:8277   .debug_str:0000000000000883 .LASF224
     /tmp/ccyhTnIv.s:6978   .debug_loc:0000000000000258 .LLST63
     /tmp/ccyhTnIv.s:7000   .debug_loc:00000000000002b7 .LLST64
     /tmp/ccyhTnIv.s:7977   .debug_ranges:0000000000000000 .Ldebug_ranges0
     /tmp/ccyhTnIv.s:7011   .debug_loc:00000000000002ed .LLST65
     /tmp/ccyhTnIv.s:2265   .text:0000000000000dd8 .LVL225
     /tmp/ccyhTnIv.s:2280   .text:0000000000000df4 .LVL227
     /tmp/ccyhTnIv.s:8575   .debug_str:0000000000001359 .LASF225
     /tmp/ccyhTnIv.s:8411   .debug_str:0000000000000d15 .LASF226
     /tmp/ccyhTnIv.s:2066   .text:0000000000000c54 .LFB28
     /tmp/ccyhTnIv.s:2218   .text:0000000000000d88 .LFE28
     /tmp/ccyhTnIv.s:8119   .debug_str:00000000000003cc .LASF227
     /tmp/ccyhTnIv.s:7018   .debug_loc:0000000000000310 .LLST60
     /tmp/ccyhTnIv.s:8143   .debug_str:0000000000000446 .LASF228
     /tmp/ccyhTnIv.s:7040   .debug_loc:000000000000036f .LLST61
     /tmp/ccyhTnIv.s:8063   .debug_str:00000000000001eb .LASF229
     /tmp/ccyhTnIv.s:7051   .debug_loc:00000000000003a5 .LLST62
     /tmp/ccyhTnIv.s:2090   .text:0000000000000c80 .LVL210
     /tmp/ccyhTnIv.s:2128   .text:0000000000000cd4 .LVL216
     /tmp/ccyhTnIv.s:2156   .text:0000000000000d00 .LVL219
     /tmp/ccyhTnIv.s:2194   .text:0000000000000d58 .LVL220
     /tmp/ccyhTnIv.s:2208   .text:0000000000000d78 .LVL221
     /tmp/ccyhTnIv.s:8495   .debug_str:0000000000001059 .LASF230
GAS LISTING /tmp/ccyhTnIv.s 			page 89


     /tmp/ccyhTnIv.s:8395   .debug_str:0000000000000c86 .LASF231
     /tmp/ccyhTnIv.s:1789   .text:0000000000000a44 .LFB27
     /tmp/ccyhTnIv.s:1937   .text:0000000000000b78 .LFE27
     /tmp/ccyhTnIv.s:7062   .debug_loc:00000000000003db .LLST57
     /tmp/ccyhTnIv.s:7080   .debug_loc:0000000000000427 .LLST58
     /tmp/ccyhTnIv.s:1811   .text:0000000000000a70 .LVL178
     /tmp/ccyhTnIv.s:1816   .text:0000000000000a80 .LVL179
     /tmp/ccyhTnIv.s:1821   .text:0000000000000a8c .LVL180
     /tmp/ccyhTnIv.s:1826   .text:0000000000000a9c .LVL181
     /tmp/ccyhTnIv.s:1833   .text:0000000000000ab4 .LVL182
     /tmp/ccyhTnIv.s:1840   .text:0000000000000acc .LVL183
     /tmp/ccyhTnIv.s:1845   .text:0000000000000adc .LVL184
     /tmp/ccyhTnIv.s:1850   .text:0000000000000aec .LVL185
     /tmp/ccyhTnIv.s:1863   .text:0000000000000b00 .LVL187
     /tmp/ccyhTnIv.s:1875   .text:0000000000000b18 .LVL189
     /tmp/ccyhTnIv.s:1888   .text:0000000000000b2c .LVL191
     /tmp/ccyhTnIv.s:1900   .text:0000000000000b44 .LVL193
     /tmp/ccyhTnIv.s:1913   .text:0000000000000b58 .LVL195
     /tmp/ccyhTnIv.s:8075   .debug_str:0000000000000245 .LASF232
     /tmp/ccyhTnIv.s:8391   .debug_str:0000000000000c56 .LASF233
     /tmp/ccyhTnIv.s:1673   .text:00000000000009b8 .LFB26
     /tmp/ccyhTnIv.s:1757   .text:0000000000000a44 .LFE26
     /tmp/ccyhTnIv.s:7087   .debug_loc:000000000000044a .LLST54
     /tmp/ccyhTnIv.s:7109   .debug_loc:00000000000004a9 .LLST55
     /tmp/ccyhTnIv.s:7131   .debug_loc:0000000000000508 .LLST56
     /tmp/ccyhTnIv.s:1701   .text:00000000000009ec .LVL167
     /tmp/ccyhTnIv.s:1716   .text:0000000000000a04 .LVL170
     /tmp/ccyhTnIv.s:1727   .text:0000000000000a14 .LVL171
     /tmp/ccyhTnIv.s:1734   .text:0000000000000a24 .LVL172
     /tmp/ccyhTnIv.s:8117   .debug_str:00000000000003bb .LASF234
     /tmp/ccyhTnIv.s:8221   .debug_str:00000000000006ab .LASF235
     /tmp/ccyhTnIv.s:1382   .text:00000000000007dc .LFB25
     /tmp/ccyhTnIv.s:1565   .text:0000000000000908 .LFE25
     /tmp/ccyhTnIv.s:7142   .debug_loc:000000000000053e .LLST45
     /tmp/ccyhTnIv.s:8161   .debug_str:00000000000004c3 .LASF236
     /tmp/ccyhTnIv.s:7164   .debug_loc:000000000000059d .LLST48
     /tmp/ccyhTnIv.s:1457   .text:0000000000000858 .LVL137
     /tmp/ccyhTnIv.s:1465   .text:0000000000000868 .LVL140
     /tmp/ccyhTnIv.s:1497   .text:0000000000000894 .LVL144
     /tmp/ccyhTnIv.s:1414   .text:0000000000000808 .LBB18
     /tmp/ccyhTnIv.s:1451   .text:0000000000000850 .LBE18
     /tmp/ccyhTnIv.s:7179   .debug_loc:00000000000005e6 .LLST46
     /tmp/ccyhTnIv.s:1418   .text:0000000000000810 .LVL129
     /tmp/ccyhTnIv.s:1426   .text:0000000000000820 .LVL132
     /tmp/ccyhTnIv.s:1433   .text:0000000000000830 .LVL133
     /tmp/ccyhTnIv.s:1438   .text:000000000000083c .LVL134
     /tmp/ccyhTnIv.s:1445   .text:000000000000084c .LVL135
     /tmp/ccyhTnIv.s:1505   .text:0000000000000898 .LBB19
     /tmp/ccyhTnIv.s:1561   .text:0000000000000908 .LBE19
     /tmp/ccyhTnIv.s:7190   .debug_loc:000000000000061c .LLST47
     /tmp/ccyhTnIv.s:1510   .text:00000000000008a4 .LVL146
     /tmp/ccyhTnIv.s:1520   .text:00000000000008b8 .LVL147
     /tmp/ccyhTnIv.s:1528   .text:00000000000008c8 .LVL150
     /tmp/ccyhTnIv.s:1535   .text:00000000000008d8 .LVL151
     /tmp/ccyhTnIv.s:1540   .text:00000000000008e4 .LVL152
     /tmp/ccyhTnIv.s:1547   .text:00000000000008f4 .LVL153
     /tmp/ccyhTnIv.s:8399   .debug_str:0000000000000cbc .LASF237
GAS LISTING /tmp/ccyhTnIv.s 			page 90


     /tmp/ccyhTnIv.s:8553   .debug_str:000000000000127a .LASF238
     /tmp/ccyhTnIv.s:1571   .text:0000000000000908 .LFB24
     /tmp/ccyhTnIv.s:1667   .text:00000000000009b8 .LFE24
     /tmp/ccyhTnIv.s:8267   .debug_str:000000000000082f .LASF239
     /tmp/ccyhTnIv.s:7201   .debug_loc:0000000000000652 .LLST49
     /tmp/ccyhTnIv.s:7219   .debug_loc:000000000000069e .LLST50
     /tmp/ccyhTnIv.s:7237   .debug_loc:00000000000006ea .LLST51
     /tmp/ccyhTnIv.s:7255   .debug_loc:0000000000000736 .LLST52
     /tmp/ccyhTnIv.s:8463   .debug_str:0000000000000ec4 .LASF240
     /tmp/ccyhTnIv.s:7273   .debug_loc:0000000000000782 .LLST53
     /tmp/ccyhTnIv.s:1603   .text:0000000000000950 .LVL157
     /tmp/ccyhTnIv.s:1626   .text:0000000000000978 .LVL159
     /tmp/ccyhTnIv.s:1634   .text:0000000000000988 .LVL160
     /tmp/ccyhTnIv.s:8403   .debug_str:0000000000000cdb .LASF241
     /tmp/ccyhTnIv.s:8577   .debug_str:0000000000001361 .LASF242
     /tmp/ccyhTnIv.s:1344   .text:00000000000007a4 .LFB23
     /tmp/ccyhTnIv.s:1376   .text:00000000000007dc .LFE23
     /tmp/ccyhTnIv.s:8061   .debug_str:00000000000001e5 .LASF243
     /tmp/ccyhTnIv.s:7284   .debug_loc:00000000000007b8 .LLST42
     /tmp/ccyhTnIv.s:8619   .debug_str:00000000000014ea .LASF244
     /tmp/ccyhTnIv.s:7298   .debug_loc:00000000000007f1 .LLST43
     /tmp/ccyhTnIv.s:7312   .debug_loc:000000000000082a .LLST44
     /tmp/ccyhTnIv.s:1359   .text:00000000000007bc .LVL125
     /tmp/ccyhTnIv.s:1363   .text:00000000000007c4 .LVL126
     /tmp/ccyhTnIv.s:8281   .debug_str:00000000000008a0 .LASF245
     /tmp/ccyhTnIv.s:8111   .debug_str:0000000000000369 .LASF246
     /tmp/ccyhTnIv.s:1960   .text:0000000000000b78 .LFB22
     /tmp/ccyhTnIv.s:2055   .text:0000000000000c54 .LFE22
     /tmp/ccyhTnIv.s:2013   .text:0000000000000c08 .LBB25
     /tmp/ccyhTnIv.s:2041   .text:0000000000000c40 .LBE25
     /tmp/ccyhTnIv.s:7319   .debug_loc:000000000000084d .LLST59
     /tmp/ccyhTnIv.s:2022   .text:0000000000000c18 .LVL206
     /tmp/ccyhTnIv.s:1977   .text:0000000000000b9c .LVL199
     /tmp/ccyhTnIv.s:1987   .text:0000000000000bc0 .LVL200
     /tmp/ccyhTnIv.s:1994   .text:0000000000000bd8 .LVL201
     /tmp/ccyhTnIv.s:1999   .text:0000000000000be8 .LVL202
     /tmp/ccyhTnIv.s:2006   .text:0000000000000bf8 .LVL203
     /tmp/ccyhTnIv.s:2011   .text:0000000000000c08 .LVL204
     /tmp/ccyhTnIv.s:8207   .debug_str:0000000000000621 .LASF247
     /tmp/ccyhTnIv.s:8329   .debug_str:0000000000000a35 .LASF248
     /tmp/ccyhTnIv.s:1210   .text:00000000000006b8 .LFB21
     /tmp/ccyhTnIv.s:1338   .text:00000000000007a4 .LFE21
     /tmp/ccyhTnIv.s:7331   .debug_loc:0000000000000884 .LLST39
     /tmp/ccyhTnIv.s:7357   .debug_loc:00000000000008f6 .LLST40
     /tmp/ccyhTnIv.s:8565   .debug_str:000000000000130a .LASF249
     /tmp/ccyhTnIv.s:7390   .debug_loc:000000000000097e .LLST41
     /tmp/ccyhTnIv.s:1273   .text:0000000000000720 .LVL118
     /tmp/ccyhTnIv.s:1295   .text:0000000000000750 .LVL119
     /tmp/ccyhTnIv.s:1306   .text:0000000000000768 .LVL120
     /tmp/ccyhTnIv.s:1314   .text:000000000000077c .LVL121
     /tmp/ccyhTnIv.s:1322   .text:0000000000000790 .LVL122
     /tmp/ccyhTnIv.s:8043   .debug_str:0000000000000130 .LASF250
     /tmp/ccyhTnIv.s:8541   .debug_str:000000000000122a .LASF252
     /tmp/ccyhTnIv.s:1109   .text:00000000000005e8 .LFB20
     /tmp/ccyhTnIv.s:1204   .text:00000000000006b8 .LFE20
     /tmp/ccyhTnIv.s:7401   .debug_loc:00000000000009b4 .LLST37
     /tmp/ccyhTnIv.s:1154   .text:000000000000065c .LBB15
GAS LISTING /tmp/ccyhTnIv.s 			page 91


     /tmp/ccyhTnIv.s:1187   .text:00000000000006a0 .LBE15
     /tmp/ccyhTnIv.s:7419   .debug_loc:0000000000000a00 .LLST38
     /tmp/ccyhTnIv.s:1176   .text:0000000000000688 .LVL108
     /tmp/ccyhTnIv.s:1181   .text:0000000000000698 .LVL109
     /tmp/ccyhTnIv.s:1131   .text:0000000000000614 .LVL103
     /tmp/ccyhTnIv.s:1138   .text:000000000000062c .LVL104
     /tmp/ccyhTnIv.s:1145   .text:0000000000000644 .LVL105
     /tmp/ccyhTnIv.s:1152   .text:000000000000065c .LVL106
     /tmp/ccyhTnIv.s:8465   .debug_str:0000000000000ecd .LASF251
     /tmp/ccyhTnIv.s:8203   .debug_str:00000000000005ef .LASF253
     /tmp/ccyhTnIv.s:1045   .text:000000000000059c .LFB19
     /tmp/ccyhTnIv.s:1086   .text:00000000000005e8 .LFE19
     /tmp/ccyhTnIv.s:7431   .debug_loc:0000000000000a37 .LLST35
     /tmp/ccyhTnIv.s:7445   .debug_loc:0000000000000a70 .LLST36
     /tmp/ccyhTnIv.s:8567   .debug_str:0000000000001318 .LASF254
     /tmp/ccyhTnIv.s:8521   .debug_str:0000000000001161 .LASF257
     /tmp/ccyhTnIv.s:929    .text:000000000000050c .LFB18
     /tmp/ccyhTnIv.s:1039   .text:000000000000059c .LFE18
     /tmp/ccyhTnIv.s:7459   .debug_loc:0000000000000aa9 .LLST31
     /tmp/ccyhTnIv.s:7478   .debug_loc:0000000000000b05 .LLST32
     /tmp/ccyhTnIv.s:8085   .debug_str:00000000000002da .LASF255
     /tmp/ccyhTnIv.s:7489   .debug_loc:0000000000000b3b .LLST33
     /tmp/ccyhTnIv.s:7500   .debug_loc:0000000000000b71 .LLST34
     /tmp/ccyhTnIv.s:8397   .debug_str:0000000000000ca9 .LASF256
     /tmp/ccyhTnIv.s:8569   .debug_str:0000000000001321 .LASF258
     /tmp/ccyhTnIv.s:839    .text:00000000000004a4 .LFB17
     /tmp/ccyhTnIv.s:923    .text:000000000000050c .LFE17
     /tmp/ccyhTnIv.s:7511   .debug_loc:0000000000000ba7 .LLST25
     /tmp/ccyhTnIv.s:8129   .debug_str:0000000000000408 .LASF259
     /tmp/ccyhTnIv.s:7525   .debug_loc:0000000000000be0 .LLST26
     /tmp/ccyhTnIv.s:8157   .debug_str:00000000000004b0 .LASF260
     /tmp/ccyhTnIv.s:7542   .debug_loc:0000000000000c2c .LLST27
     /tmp/ccyhTnIv.s:875    .text:00000000000004cc .LBB9
     /tmp/ccyhTnIv.s:911    .text:00000000000004fc .LBE9
     /tmp/ccyhTnIv.s:7553   .debug_loc:0000000000000c62 .LLST28
     /tmp/ccyhTnIv.s:888    .text:00000000000004e0 .LBB10
     /tmp/ccyhTnIv.s:910    .text:00000000000004fc .LBE10
     /tmp/ccyhTnIv.s:8365   .debug_str:0000000000000b6b .LASF261
     /tmp/ccyhTnIv.s:7565   .debug_loc:0000000000000c99 .LLST29
     /tmp/ccyhTnIv.s:8131   .debug_str:0000000000000411 .LASF262
     /tmp/ccyhTnIv.s:7576   .debug_loc:0000000000000ccf .LLST30
     /tmp/ccyhTnIv.s:8211   .debug_str:0000000000000654 .LASF263
     /tmp/ccyhTnIv.s:8035   .debug_str:00000000000000d0 .LASF264
     /tmp/ccyhTnIv.s:682    .text:00000000000003b8 .LFB16
     /tmp/ccyhTnIv.s:833    .text:00000000000004a4 .LFE16
     /tmp/ccyhTnIv.s:7587   .debug_loc:0000000000000d05 .LLST20
     /tmp/ccyhTnIv.s:8349   .debug_str:0000000000000af7 .LASF265
     /tmp/ccyhTnIv.s:7605   .debug_loc:0000000000000d51 .LLST21
     /tmp/ccyhTnIv.s:8097   .debug_str:000000000000031a .LASF266
     /tmp/ccyhTnIv.s:7616   .debug_loc:0000000000000d87 .LLST22
     /tmp/ccyhTnIv.s:755    .text:0000000000000430 .LBB6
     /tmp/ccyhTnIv.s:776    .text:0000000000000450 .LBE6
     /tmp/ccyhTnIv.s:7641   .debug_loc:0000000000000ddb .LLST23
     /tmp/ccyhTnIv.s:783    .text:0000000000000458 .LBB8
     /tmp/ccyhTnIv.s:814    .text:0000000000000488 .LBE8
     /tmp/ccyhTnIv.s:7653   .debug_loc:0000000000000e12 .LLST24
     /tmp/ccyhTnIv.s:708    .text:00000000000003f0 .LVL59
GAS LISTING /tmp/ccyhTnIv.s 			page 92


     /tmp/ccyhTnIv.s:8377   .debug_str:0000000000000bc6 .LASF267
     /tmp/ccyhTnIv.s:8301   .debug_str:0000000000000935 .LASF268
     /tmp/ccyhTnIv.s:628    .text:0000000000000360 .LFB15
     /tmp/ccyhTnIv.s:676    .text:00000000000003b8 .LFE15
     /tmp/ccyhTnIv.s:7660   .debug_loc:0000000000000e35 .LLST18
     /tmp/ccyhTnIv.s:7678   .debug_loc:0000000000000e81 .LLST19
     /tmp/ccyhTnIv.s:653    .text:0000000000000390 .LVL53
     /tmp/ccyhTnIv.s:659    .text:00000000000003a0 .LVL54
     /tmp/ccyhTnIv.s:8137   .debug_str:0000000000000428 .LASF269
     /tmp/ccyhTnIv.s:8529   .debug_str:00000000000011ae .LASF270
     /tmp/ccyhTnIv.s:574    .text:0000000000000308 .LFB14
     /tmp/ccyhTnIv.s:622    .text:0000000000000360 .LFE14
     /tmp/ccyhTnIv.s:7696   .debug_loc:0000000000000ecd .LLST16
     /tmp/ccyhTnIv.s:7714   .debug_loc:0000000000000f19 .LLST17
     /tmp/ccyhTnIv.s:599    .text:0000000000000338 .LVL46
     /tmp/ccyhTnIv.s:605    .text:0000000000000348 .LVL47
     /tmp/ccyhTnIv.s:8237   .debug_str:0000000000000724 .LASF271
     /tmp/ccyhTnIv.s:8081   .debug_str:0000000000000289 .LASF272
     /tmp/ccyhTnIv.s:518    .text:00000000000002b0 .LFB13
     /tmp/ccyhTnIv.s:568    .text:0000000000000308 .LFE13
     /tmp/ccyhTnIv.s:7732   .debug_loc:0000000000000f65 .LLST14
     /tmp/ccyhTnIv.s:7750   .debug_loc:0000000000000fb1 .LLST15
     /tmp/ccyhTnIv.s:545    .text:00000000000002e0 .LVL39
     /tmp/ccyhTnIv.s:551    .text:00000000000002f0 .LVL40
     /tmp/ccyhTnIv.s:8059   .debug_str:00000000000001d4 .LASF273
     /tmp/ccyhTnIv.s:8015   .debug_str:000000000000001b .LASF274
     /tmp/ccyhTnIv.s:462    .text:0000000000000258 .LFB12
     /tmp/ccyhTnIv.s:512    .text:00000000000002b0 .LFE12
     /tmp/ccyhTnIv.s:7757   .debug_loc:0000000000000fd4 .LLST12
     /tmp/ccyhTnIv.s:7775   .debug_loc:0000000000001020 .LLST13
     /tmp/ccyhTnIv.s:489    .text:0000000000000288 .LVL32
     /tmp/ccyhTnIv.s:495    .text:0000000000000298 .LVL33
     /tmp/ccyhTnIv.s:8029   .debug_str:00000000000000ab .LASF275
     /tmp/ccyhTnIv.s:8557   .debug_str:00000000000012c2 .LASF276
     /tmp/ccyhTnIv.s:391    .text:00000000000001fc .LFB11
     /tmp/ccyhTnIv.s:456    .text:0000000000000258 .LFE11
     /tmp/ccyhTnIv.s:8233   .debug_str:0000000000000713 .LASF277
     /tmp/ccyhTnIv.s:8223   .debug_str:00000000000006cf .LASF278
     /tmp/ccyhTnIv.s:8505   .debug_str:00000000000010bb .LASF279
     /tmp/ccyhTnIv.s:350    .text:00000000000001cc .LFB10
     /tmp/ccyhTnIv.s:385    .text:00000000000001fc .LFE10
     /tmp/ccyhTnIv.s:8105   .debug_str:0000000000000343 .LASF280
     /tmp/ccyhTnIv.s:8195   .debug_str:00000000000005b4 .LASF281
     /tmp/ccyhTnIv.s:321    .text:00000000000001ac .LFB9
     /tmp/ccyhTnIv.s:344    .text:00000000000001cc .LFE9
     /tmp/ccyhTnIv.s:7782   .debug_loc:0000000000001043 .LLST11
     /tmp/ccyhTnIv.s:8599   .debug_str:000000000000140e .LASF282
     /tmp/ccyhTnIv.s:8107   .debug_str:0000000000000349 .LASF283
     /tmp/ccyhTnIv.s:289    .text:0000000000000184 .LFB8
     /tmp/ccyhTnIv.s:315    .text:00000000000001ac .LFE8
     /tmp/ccyhTnIv.s:7796   .debug_loc:000000000000107c .LLST10
     /tmp/ccyhTnIv.s:8293   .debug_str:00000000000008f2 .LASF284
     /tmp/ccyhTnIv.s:8519   .debug_str:0000000000001146 .LASF285
     /tmp/ccyhTnIv.s:165    .text:00000000000000d0 .LFB7
     /tmp/ccyhTnIv.s:283    .text:0000000000000184 .LFE7
     /tmp/ccyhTnIv.s:7810   .debug_loc:00000000000010b5 .LLST5
     /tmp/ccyhTnIv.s:7829   .debug_loc:0000000000001111 .LLST6
GAS LISTING /tmp/ccyhTnIv.s 			page 93


     /tmp/ccyhTnIv.s:8073   .debug_str:0000000000000240 .LASF286
     /tmp/ccyhTnIv.s:7852   .debug_loc:0000000000001171 .LLST7
     /tmp/ccyhTnIv.s:180    .text:00000000000000e0 .LBB3
     /tmp/ccyhTnIv.s:236    .text:0000000000000130 .LBE3
     /tmp/ccyhTnIv.s:7873   .debug_loc:00000000000011cf .LLST8
     /tmp/ccyhTnIv.s:8309   .debug_str:00000000000009a7 .LASF287
     /tmp/ccyhTnIv.s:7889   .debug_loc:0000000000001219 .LLST9
     /tmp/ccyhTnIv.s:8299   .debug_str:0000000000000921 .LASF288
     /tmp/ccyhTnIv.s:8219   .debug_str:0000000000000682 .LASF289
     /tmp/ccyhTnIv.s:64     .text:0000000000000034 .LFB6
     /tmp/ccyhTnIv.s:159    .text:00000000000000d0 .LFE6
     /tmp/ccyhTnIv.s:7896   .debug_loc:000000000000123c .LLST2
     /tmp/ccyhTnIv.s:8515   .debug_str:0000000000001111 .LASF290
     /tmp/ccyhTnIv.s:7919   .debug_loc:000000000000129e .LLST3
     /tmp/ccyhTnIv.s:90     .text:0000000000000058 .LBB2
     /tmp/ccyhTnIv.s:108    .text:0000000000000078 .LBE2
     /tmp/ccyhTnIv.s:7930   .debug_loc:00000000000012d4 .LLST4
     /tmp/ccyhTnIv.s:114    .text:000000000000008c .LVL8
     /tmp/ccyhTnIv.s:8543   .debug_str:0000000000001244 .LASF291
     /tmp/ccyhTnIv.s:8125   .debug_str:00000000000003e9 .LASF292
     /tmp/ccyhTnIv.s:10     .text:0000000000000000 .LFB5
     /tmp/ccyhTnIv.s:53     .text:0000000000000034 .LFE5
     /tmp/ccyhTnIv.s:7942   .debug_loc:000000000000130b .LLST0
     /tmp/ccyhTnIv.s:7953   .debug_loc:0000000000001341 .LLST1
     /tmp/ccyhTnIv.s:8367   .debug_str:0000000000000b73 .LASF293
     /tmp/ccyhTnIv.s:8123   .debug_str:00000000000003de .LASF295
     /tmp/ccyhTnIv.s:8381   .debug_str:0000000000000bfb .LASF294
     /tmp/ccyhTnIv.s:8057   .debug_str:00000000000001c8 .LASF296
     /tmp/ccyhTnIv.s:8041   .debug_str:000000000000011e .LASF297
     /tmp/ccyhTnIv.s:8087   .debug_str:00000000000002e2 .LASF298
     /tmp/ccyhTnIv.s:8503   .debug_str:0000000000001099 .LASF299
     /tmp/ccyhTnIv.s:8443   .debug_str:0000000000000e1a .LASF300
     /tmp/ccyhTnIv.s:2537   .text:0000000000000f60 .LVL253
     /tmp/ccyhTnIv.s:2559   .text:0000000000000f88 .LVL254
     /tmp/ccyhTnIv.s:2581   .text:0000000000000fa4 .LVL255
     /tmp/ccyhTnIv.s:2585   .text:0000000000000fac .LVL256
     /tmp/ccyhTnIv.s:2601   .text:0000000000000fd4 .LVL259
     /tmp/ccyhTnIv.s:2609   .text:0000000000000fd8 .LVL260
     /tmp/ccyhTnIv.s:2475   .text:0000000000000f18 .LVL247
     /tmp/ccyhTnIv.s:2493   .text:0000000000000f38 .LVL248
     /tmp/ccyhTnIv.s:2508   .text:0000000000000f50 .LVL250
     /tmp/ccyhTnIv.s:2512   .text:0000000000000f58 .LVL251
     /tmp/ccyhTnIv.s:2516   .text:0000000000000f5c .LVL252
     /tmp/ccyhTnIv.s:2396   .text:0000000000000e90 .LVL239
     /tmp/ccyhTnIv.s:2420   .text:0000000000000ebc .LVL240
     /tmp/ccyhTnIv.s:2431   .text:0000000000000ec8 .LVL241
     /tmp/ccyhTnIv.s:2435   .text:0000000000000ed0 .LVL242
     /tmp/ccyhTnIv.s:2310   .text:0000000000000e10 .LVL231
     /tmp/ccyhTnIv.s:2337   .text:0000000000000e40 .LVL233
     /tmp/ccyhTnIv.s:2364   .text:0000000000000e6c .LVL237
     /tmp/ccyhTnIv.s:2368   .text:0000000000000e70 .LVL238
     /tmp/ccyhTnIv.s:2333   .text:0000000000000e3c .LVL232
     /tmp/ccyhTnIv.s:2358   .text:0000000000000e64 .LVL236
     /tmp/ccyhTnIv.s:2346   .text:0000000000000e48 .LVL234
     /tmp/ccyhTnIv.s:2227   .text:0000000000000d88 .LVL222
     /tmp/ccyhTnIv.s:2250   .text:0000000000000db0 .LVL223
     /tmp/ccyhTnIv.s:2293   .text:0000000000000e04 .LVL229
GAS LISTING /tmp/ccyhTnIv.s 			page 94


     /tmp/ccyhTnIv.s:2297   .text:0000000000000e0c .LVL230
     /tmp/ccyhTnIv.s:2263   .text:0000000000000dd0 .LVL224
     /tmp/ccyhTnIv.s:2290   .text:0000000000000e00 .LVL228
     /tmp/ccyhTnIv.s:2069   .text:0000000000000c54 .LVL209
     /tmp/ccyhTnIv.s:2143   .text:0000000000000ce8 .LVL217
     /tmp/ccyhTnIv.s:2149   .text:0000000000000cf4 .LVL218
     /tmp/ccyhTnIv.s:2099   .text:0000000000000c94 .LVL211
     /tmp/ccyhTnIv.s:2101   .text:0000000000000c98 .LVL212
     /tmp/ccyhTnIv.s:2105   .text:0000000000000c9c .LVL213
     /tmp/ccyhTnIv.s:2110   .text:0000000000000ca0 .LVL214
     /tmp/ccyhTnIv.s:2124   .text:0000000000000cc4 .LVL215
     /tmp/ccyhTnIv.s:1792   .text:0000000000000a44 .LVL176
     /tmp/ccyhTnIv.s:1809   .text:0000000000000a68 .LVL177
     /tmp/ccyhTnIv.s:1932   .text:0000000000000b70 .LVL198
     /tmp/ccyhTnIv.s:1854   .text:0000000000000af0 .LVL186
     /tmp/ccyhTnIv.s:1929   .text:0000000000000b6c .LVL197
     /tmp/ccyhTnIv.s:1676   .text:00000000000009b8 .LVL166
     /tmp/ccyhTnIv.s:1747   .text:0000000000000a34 .LVL174
     /tmp/ccyhTnIv.s:1753   .text:0000000000000a40 .LVL175
     /tmp/ccyhTnIv.s:1744   .text:0000000000000a30 .LVL173
     /tmp/ccyhTnIv.s:1703   .text:00000000000009f0 .LVL168
     /tmp/ccyhTnIv.s:1714   .text:0000000000000a00 .LVL169
     /tmp/ccyhTnIv.s:1385   .text:00000000000007dc .LVL127
     /tmp/ccyhTnIv.s:1403   .text:00000000000007fc .LVL128
     /tmp/ccyhTnIv.s:1482   .text:000000000000087c .LVL142
     /tmp/ccyhTnIv.s:1488   .text:0000000000000888 .LVL143
     /tmp/ccyhTnIv.s:1459   .text:000000000000085c .LVL138
     /tmp/ccyhTnIv.s:1463   .text:0000000000000860 .LVL139
     /tmp/ccyhTnIv.s:1468   .text:000000000000086c .LVL141
     /tmp/ccyhTnIv.s:1501   .text:0000000000000898 .LVL145
     /tmp/ccyhTnIv.s:1420   .text:0000000000000814 .LVL130
     /tmp/ccyhTnIv.s:1424   .text:0000000000000818 .LVL131
     /tmp/ccyhTnIv.s:1449   .text:0000000000000850 .LVL136
     /tmp/ccyhTnIv.s:1522   .text:00000000000008bc .LVL148
     /tmp/ccyhTnIv.s:1526   .text:00000000000008c0 .LVL149
     /tmp/ccyhTnIv.s:1551   .text:00000000000008f8 .LVL154
     /tmp/ccyhTnIv.s:1574   .text:0000000000000908 .LVL155
     /tmp/ccyhTnIv.s:1600   .text:0000000000000944 .LVL156
     /tmp/ccyhTnIv.s:1656   .text:00000000000009a8 .LVL163
     /tmp/ccyhTnIv.s:1653   .text:00000000000009a4 .LVL162
     /tmp/ccyhTnIv.s:1659   .text:00000000000009ac .LVL164
     /tmp/ccyhTnIv.s:1662   .text:00000000000009b0 .LVL165
     /tmp/ccyhTnIv.s:1605   .text:0000000000000954 .LVL158
     /tmp/ccyhTnIv.s:1650   .text:00000000000009a0 .LVL161
     /tmp/ccyhTnIv.s:1347   .text:00000000000007a4 .LVL124
     /tmp/ccyhTnIv.s:2017   .text:0000000000000c10 .LVL205
     /tmp/ccyhTnIv.s:2050   .text:0000000000000c4c .LVL208
     /tmp/ccyhTnIv.s:1213   .text:00000000000006b8 .LVL113
     /tmp/ccyhTnIv.s:1252   .text:0000000000000704 .LVL115
     /tmp/ccyhTnIv.s:1263   .text:0000000000000710 .LVL116
     /tmp/ccyhTnIv.s:1267   .text:0000000000000718 .LVL117
     /tmp/ccyhTnIv.s:1330   .text:00000000000007a0 .LVL123
     /tmp/ccyhTnIv.s:1243   .text:00000000000006f4 .LVL114
     /tmp/ccyhTnIv.s:1112   .text:00000000000005e8 .LVL101
     /tmp/ccyhTnIv.s:1129   .text:000000000000060c .LVL102
     /tmp/ccyhTnIv.s:1199   .text:00000000000006b0 .LVL112
     /tmp/ccyhTnIv.s:1157   .text:0000000000000660 .LVL107
GAS LISTING /tmp/ccyhTnIv.s 			page 95


     /tmp/ccyhTnIv.s:1196   .text:00000000000006ac .LVL111
     /tmp/ccyhTnIv.s:1048   .text:000000000000059c .LVL98
     /tmp/ccyhTnIv.s:1064   .text:00000000000005bc .LVL100
     /tmp/ccyhTnIv.s:1060   .text:00000000000005b4 .LVL99
     /tmp/ccyhTnIv.s:932    .text:000000000000050c .LVL85
     /tmp/ccyhTnIv.s:947    .text:0000000000000528 .LVL86
     /tmp/ccyhTnIv.s:1031   .text:0000000000000594 .LVL96
     /tmp/ccyhTnIv.s:1036   .text:0000000000000598 .LVL97
     /tmp/ccyhTnIv.s:980    .text:0000000000000554 .LVL90
     /tmp/ccyhTnIv.s:991    .text:0000000000000560 .LVL91
     /tmp/ccyhTnIv.s:949    .text:000000000000052c .LVL87
     /tmp/ccyhTnIv.s:955    .text:0000000000000530 .LVL88
     /tmp/ccyhTnIv.s:975    .text:000000000000054c .LVL89
     /tmp/ccyhTnIv.s:999    .text:0000000000000568 .LVL93
     /tmp/ccyhTnIv.s:1005   .text:000000000000056c .LVL94
     /tmp/ccyhTnIv.s:1025   .text:0000000000000588 .LVL95
     /tmp/ccyhTnIv.s:842    .text:00000000000004a4 .LVL72
     /tmp/ccyhTnIv.s:915    .text:0000000000000500 .LVL84
     /tmp/ccyhTnIv.s:850    .text:00000000000004b0 .LVL73
     /tmp/ccyhTnIv.s:853    .text:00000000000004b4 .LVL74
     /tmp/ccyhTnIv.s:906    .text:00000000000004f8 .LVL82
     /tmp/ccyhTnIv.s:908    .text:00000000000004fc .LVL83
     /tmp/ccyhTnIv.s:873    .text:00000000000004cc .LVL76
     /tmp/ccyhTnIv.s:903    .text:00000000000004f4 .LVL81
     /tmp/ccyhTnIv.s:879    .text:00000000000004d4 .LVL77
     /tmp/ccyhTnIv.s:883    .text:00000000000004d8 .LVL78
     /tmp/ccyhTnIv.s:892    .text:00000000000004e4 .LVL79
     /tmp/ccyhTnIv.s:898    .text:00000000000004ec .LVL80
     /tmp/ccyhTnIv.s:685    .text:00000000000003b8 .LVL57
     /tmp/ccyhTnIv.s:706    .text:00000000000003e8 .LVL58
     /tmp/ccyhTnIv.s:828    .text:000000000000049c .LVL71
     /tmp/ccyhTnIv.s:722    .text:0000000000000408 .LVL60
     /tmp/ccyhTnIv.s:812    .text:0000000000000488 .LVL70
     /tmp/ccyhTnIv.s:741    .text:0000000000000420 .LVL61
     /tmp/ccyhTnIv.s:745    .text:0000000000000424 .LVL62
     /tmp/ccyhTnIv.s:750    .text:000000000000042c .LVL63
     /tmp/ccyhTnIv.s:753    .text:0000000000000430 .LVL64
     /tmp/ccyhTnIv.s:758    .text:0000000000000434 .LVL65
     /tmp/ccyhTnIv.s:786    .text:000000000000045c .LVL67
     /tmp/ccyhTnIv.s:631    .text:0000000000000360 .LVL50
     /tmp/ccyhTnIv.s:651    .text:0000000000000388 .LVL52
     /tmp/ccyhTnIv.s:671    .text:00000000000003b0 .LVL56
     /tmp/ccyhTnIv.s:649    .text:0000000000000384 .LVL51
     /tmp/ccyhTnIv.s:668    .text:00000000000003ac .LVL55
     /tmp/ccyhTnIv.s:577    .text:0000000000000308 .LVL43
     /tmp/ccyhTnIv.s:597    .text:0000000000000330 .LVL45
     /tmp/ccyhTnIv.s:617    .text:0000000000000358 .LVL49
     /tmp/ccyhTnIv.s:595    .text:000000000000032c .LVL44
     /tmp/ccyhTnIv.s:614    .text:0000000000000354 .LVL48
     /tmp/ccyhTnIv.s:521    .text:00000000000002b0 .LVL36
     /tmp/ccyhTnIv.s:543    .text:00000000000002d8 .LVL38
     /tmp/ccyhTnIv.s:560    .text:00000000000002fc .LVL41
     /tmp/ccyhTnIv.s:538    .text:00000000000002d0 .LVL37
     /tmp/ccyhTnIv.s:563    .text:0000000000000300 .LVL42
     /tmp/ccyhTnIv.s:465    .text:0000000000000258 .LVL29
     /tmp/ccyhTnIv.s:487    .text:0000000000000280 .LVL31
     /tmp/ccyhTnIv.s:504    .text:00000000000002a4 .LVL34
GAS LISTING /tmp/ccyhTnIv.s 			page 96


     /tmp/ccyhTnIv.s:482    .text:0000000000000278 .LVL30
     /tmp/ccyhTnIv.s:507    .text:00000000000002a8 .LVL35
     /tmp/ccyhTnIv.s:324    .text:00000000000001ac .LVL25
     /tmp/ccyhTnIv.s:334    .text:00000000000001bc .LVL26
     /tmp/ccyhTnIv.s:292    .text:0000000000000184 .LVL23
     /tmp/ccyhTnIv.s:304    .text:0000000000000198 .LVL24
     /tmp/ccyhTnIv.s:168    .text:00000000000000d0 .LVL11
     /tmp/ccyhTnIv.s:220    .text:000000000000011c .LVL16
     /tmp/ccyhTnIv.s:233    .text:0000000000000130 .LVL19
     /tmp/ccyhTnIv.s:239    .text:0000000000000134 .LVL20
     /tmp/ccyhTnIv.s:177    .text:00000000000000e0 .LVL12
     /tmp/ccyhTnIv.s:230    .text:000000000000012c .LVL18
     /tmp/ccyhTnIv.s:242    .text:0000000000000138 .LVL21
     /tmp/ccyhTnIv.s:251    .text:0000000000000148 .LVL22
     /tmp/ccyhTnIv.s:226    .text:0000000000000128 .LVL17
     /tmp/ccyhTnIv.s:183    .text:00000000000000e4 .LVL13
     /tmp/ccyhTnIv.s:197    .text:00000000000000f8 .LVL14
     /tmp/ccyhTnIv.s:67     .text:0000000000000034 .LVL3
     /tmp/ccyhTnIv.s:94     .text:0000000000000060 .LVL6
     /tmp/ccyhTnIv.s:151    .text:00000000000000c4 .LVL9
     /tmp/ccyhTnIv.s:154    .text:00000000000000c8 .LVL10
     /tmp/ccyhTnIv.s:84     .text:0000000000000054 .LVL4
     /tmp/ccyhTnIv.s:89     .text:0000000000000058 .LVL5
     /tmp/ccyhTnIv.s:14     .text:0000000000000000 .LVL0
     /tmp/ccyhTnIv.s:34     .text:000000000000001c .LVL1
     /tmp/ccyhTnIv.s:38     .text:0000000000000020 .LVL2
     /tmp/ccyhTnIv.s:2631   .debug_info:0000000000000000 .Ldebug_info0
     /tmp/ccyhTnIv.s:190    .text:00000000000000ec .LBB4
     /tmp/ccyhTnIv.s:208    .text:000000000000010c .LBE4
     /tmp/ccyhTnIv.s:214    .text:0000000000000114 .LBB5
     /tmp/ccyhTnIv.s:235    .text:0000000000000130 .LBE5
     /tmp/ccyhTnIv.s:951    .text:000000000000052c .LBB11
     /tmp/ccyhTnIv.s:957    .text:0000000000000530 .LBE11
     /tmp/ccyhTnIv.s:961    .text:0000000000000534 .LBB12
     /tmp/ccyhTnIv.s:982    .text:0000000000000554 .LBE12
     /tmp/ccyhTnIv.s:1001   .text:0000000000000568 .LBB13
     /tmp/ccyhTnIv.s:1007   .text:000000000000056c .LBE13
     /tmp/ccyhTnIv.s:1011   .text:0000000000000570 .LBB14
     /tmp/ccyhTnIv.s:1033   .text:0000000000000594 .LBE14
     /tmp/ccyhTnIv.s:1453   .text:0000000000000850 .LBB20
     /tmp/ccyhTnIv.s:1470   .text:000000000000086c .LBE20
     /tmp/ccyhTnIv.s:1492   .text:0000000000000888 .LBB21
     /tmp/ccyhTnIv.s:1503   .text:0000000000000898 .LBE21
     /tmp/ccyhTnIv.s:2244   .text:0000000000000da8 .LBB26
     /tmp/ccyhTnIv.s:2247   .text:0000000000000dac .LBE26
     /tmp/ccyhTnIv.s:2252   .text:0000000000000db0 .LBB27
     /tmp/ccyhTnIv.s:2273   .text:0000000000000de4 .LBE27

UNDEFINED SYMBOLS
_Z11buddy_allocP14buddyAllocatorm
_ZN8KConsole15trapPrintStringEPKc
_ZN8KConsole18trapPrintStringIntEPKcmi
_ZN8KConsole12trapPrintIntEmii
_Z10buddy_initPvm
_Z11getDeg2Ceilm
_Z10buddy_freeP14buddyAllocatorPvm
