GAS LISTING /tmp/cc5xgKhq.s 			page 1


   1              		.file	"slabAllocator.cpp"
   2              		.option pic
   3              		.option norelax
   4              		.text
   5              	.Ltext0:
   6              		.align	2
   7              		.globl	_Z6strcpyPKcPc
   9              	_Z6strcpyPKcPc:
  10              	.LFB5:
  11              		.file 1 "src/slabAllocator.cpp"
   1:src/slabAllocator.cpp **** #include "../h/slabAllocator.hpp"
   2:src/slabAllocator.cpp **** #include "../h/buddyAllocator.hpp"
   3:src/slabAllocator.cpp **** #include "../h/KConsole.hpp"
   4:src/slabAllocator.cpp **** 
   5:src/slabAllocator.cpp **** #define SLAB_ALLOCATED_LOOKUP 32
   6:src/slabAllocator.cpp **** #define CACHE_NAME_SIZE 512
   7:src/slabAllocator.cpp **** #define CACHE_BUFFER_SMALL 5
   8:src/slabAllocator.cpp **** #define CACHE_BUFFER_BIG 17
   9:src/slabAllocator.cpp **** #define CACHE_BUFFER_SIZE CACHE_BUFFER_BIG - CACHE_BUFFER_SMALL + 1
  10:src/slabAllocator.cpp **** #define CACHE_OF_CACHES_SLAB_SIZE 2
  11:src/slabAllocator.cpp **** 
  12:src/slabAllocator.cpp **** typedef struct slab_s
  13:src/slabAllocator.cpp **** {
  14:src/slabAllocator.cpp ****     slab_s* prev;
  15:src/slabAllocator.cpp ****     slab_s* next;
  16:src/slabAllocator.cpp ****     kmem_cache_t* owner;
  17:src/slabAllocator.cpp ****     size_t numOfObjects;
  18:src/slabAllocator.cpp ****     size_t numOfAllocatedObjects;
  19:src/slabAllocator.cpp ****     void* startAddress;
  20:src/slabAllocator.cpp ****     unsigned char allocated[SLAB_ALLOCATED_LOOKUP];
  21:src/slabAllocator.cpp **** }slab_t;
  22:src/slabAllocator.cpp **** 
  23:src/slabAllocator.cpp **** typedef struct kmem_cache_s
  24:src/slabAllocator.cpp **** {
  25:src/slabAllocator.cpp ****     char cacheName[CACHE_NAME_SIZE];
  26:src/slabAllocator.cpp ****     kmem_cache_s* next;
  27:src/slabAllocator.cpp ****     kmem_cache_s* prev;
  28:src/slabAllocator.cpp ****     slab_t* slabs_empty;
  29:src/slabAllocator.cpp ****     slab_t* slabs_full;
  30:src/slabAllocator.cpp ****     slab_t* slabs_partial;
  31:src/slabAllocator.cpp ****     size_t slab_size;
  32:src/slabAllocator.cpp ****     size_t obj_size;
  33:src/slabAllocator.cpp ****     void (*ctor)(void*);
  34:src/slabAllocator.cpp ****     void (*dtor)(void*);
  35:src/slabAllocator.cpp **** }kmem_cache_t;
  36:src/slabAllocator.cpp **** 
  37:src/slabAllocator.cpp **** typedef struct slab_allocator_s
  38:src/slabAllocator.cpp **** {
  39:src/slabAllocator.cpp ****     buddyAllocator* buddy;
  40:src/slabAllocator.cpp ****     kmem_cache_t* cacheList;
  41:src/slabAllocator.cpp ****     kmem_cache_t* cachesBuffers[CACHE_BUFFER_SIZE];
  42:src/slabAllocator.cpp ****     kmem_cache_t cacheOfCaches;
  43:src/slabAllocator.cpp **** }slab_allocator_t;
  44:src/slabAllocator.cpp **** 
  45:src/slabAllocator.cpp **** //singleton slab allocator
  46:src/slabAllocator.cpp **** static slab_allocator_t* slabAllocator = nullptr;
  47:src/slabAllocator.cpp **** 
GAS LISTING /tmp/cc5xgKhq.s 			page 2


  48:src/slabAllocator.cpp **** //helping functions
  49:src/slabAllocator.cpp **** void strcpy(const char* src, char* dst)
  50:src/slabAllocator.cpp **** {
  12              		.loc 1 50 1
  13              		.cfi_startproc
  14              	.LVL0:
  15 0000 130101FF 		addi	sp,sp,-16
  16              		.cfi_def_cfa_offset 16
  17 0004 23348100 		sd	s0,8(sp)
  18              		.cfi_offset 8, -8
  19 0008 13040101 		addi	s0,sp,16
  20              		.cfi_def_cfa 8, 0
  21              	.L3:
  51:src/slabAllocator.cpp ****     while(*src != '\0')
  22              		.loc 1 51 5
  23              		.loc 1 51 16
  24              		.loc 1 51 11 is_stmt 0
  25 000c 83470500 		lbu	a5,0(a0)
  26              		.loc 1 51 16
  27 0010 63880700 		beqz	a5,.L1
  52:src/slabAllocator.cpp ****     {
  53:src/slabAllocator.cpp ****         *dst = *src;
  28              		.loc 1 53 9 is_stmt 1
  29              		.loc 1 53 14 is_stmt 0
  30 0014 2380F500 		sb	a5,0(a1)
  54:src/slabAllocator.cpp ****         src++;
  31              		.loc 1 54 9 is_stmt 1
  32              		.loc 1 54 12 is_stmt 0
  33 0018 13051500 		addi	a0,a0,1
  34              	.LVL1:
  51:src/slabAllocator.cpp ****     while(*src != '\0')
  35              		.loc 1 51 5
  36 001c 6FF01FFF 		j	.L3
  37              	.L1:
  55:src/slabAllocator.cpp ****     }
  56:src/slabAllocator.cpp **** }
  38              		.loc 1 56 1
  39 0020 03348100 		ld	s0,8(sp)
  40              		.cfi_restore 8
  41              		.cfi_def_cfa 2, 16
  42 0024 13010101 		addi	sp,sp,16
  43              		.cfi_def_cfa_offset 0
  44 0028 67800000 		jr	ra
  45              		.cfi_endproc
  46              	.LFE5:
  48              		.section	.rodata.str1.8,"aMS",@progbits,1
  49              		.align	3
  50              	.LC0:
  51 0000 43616368 		.string	"Cache of caches"
  51      65206F66 
  51      20636163 
  51      68657300 
  52              		.text
  53              		.align	2
  54              		.globl	_Z19slab_allocator_initP14buddyAllocator
  56              	_Z19slab_allocator_initP14buddyAllocator:
  57              	.LFB6:
GAS LISTING /tmp/cc5xgKhq.s 			page 3


  57:src/slabAllocator.cpp **** 
  58:src/slabAllocator.cpp **** slab_allocator_t* slab_allocator_init(buddyAllocator *buddy)
  59:src/slabAllocator.cpp **** {
  58              		.loc 1 59 1 is_stmt 1
  59              		.cfi_startproc
  60              	.LVL2:
  61 002c 130101FE 		addi	sp,sp,-32
  62              		.cfi_def_cfa_offset 32
  63 0030 233C1100 		sd	ra,24(sp)
  64 0034 23388100 		sd	s0,16(sp)
  65 0038 23349100 		sd	s1,8(sp)
  66 003c 23302101 		sd	s2,0(sp)
  67              		.cfi_offset 1, -8
  68              		.cfi_offset 8, -16
  69              		.cfi_offset 9, -24
  70              		.cfi_offset 18, -32
  71 0040 13040102 		addi	s0,sp,32
  72              		.cfi_def_cfa 8, 0
  73 0044 93040500 		mv	s1,a0
  60:src/slabAllocator.cpp ****     slab_allocator_t* slabAllocatorLocal = (slab_allocator_t*)(buddy + 1);
  74              		.loc 1 60 5
  75              		.loc 1 60 23 is_stmt 0
  76 0048 1309050E 		addi	s2,a0,224
  77              	.LVL3:
  61:src/slabAllocator.cpp **** 
  62:src/slabAllocator.cpp ****     slabAllocatorLocal->buddy = buddy;
  78              		.loc 1 62 5 is_stmt 1
  79              		.loc 1 62 31 is_stmt 0
  80 004c 2330A50E 		sd	a0,224(a0)
  63:src/slabAllocator.cpp ****     slabAllocatorLocal->cacheList = nullptr;
  81              		.loc 1 63 5 is_stmt 1
  82              		.loc 1 63 35 is_stmt 0
  83 0050 2334050E 		sd	zero,232(a0)
  64:src/slabAllocator.cpp ****     for(size_t i = 0; i < CACHE_BUFFER_SIZE;i++)
  84              		.loc 1 64 5 is_stmt 1
  85              	.LVL4:
  86              	.LBB2:
  87              		.loc 1 64 16 is_stmt 0
  88 0054 13070000 		li	a4,0
  89 0058 6F008001 		j	.L7
  90              	.LVL5:
  91              	.L9:
  65:src/slabAllocator.cpp ****         slabAllocatorLocal->cachesBuffers[i] = nullptr;
  92              		.loc 1 65 9 is_stmt 1 discriminator 2
  93              		.loc 1 65 46 is_stmt 0 discriminator 2
  94 005c 93072700 		addi	a5,a4,2
  95 0060 93973700 		slli	a5,a5,3
  96 0064 B387F400 		add	a5,s1,a5
  97 0068 23B0070E 		sd	zero,224(a5)
  64:src/slabAllocator.cpp ****     for(size_t i = 0; i < CACHE_BUFFER_SIZE;i++)
  98              		.loc 1 64 5 is_stmt 1 discriminator 2
  99 006c 13071700 		addi	a4,a4,1
 100              	.LVL6:
 101              	.L7:
  64:src/slabAllocator.cpp ****     for(size_t i = 0; i < CACHE_BUFFER_SIZE;i++)
 102              		.loc 1 64 25 discriminator 3
 103 0070 9307C000 		li	a5,12
GAS LISTING /tmp/cc5xgKhq.s 			page 4


 104 0074 E3F4E7FE 		bleu	a4,a5,.L9
 105              	.LBE2:
  66:src/slabAllocator.cpp **** 
  67:src/slabAllocator.cpp ****     //TODO
  68:src/slabAllocator.cpp ****     //char* name = "Cache of caches";
  69:src/slabAllocator.cpp ****     strcpy("Cache of caches", slabAllocatorLocal->cacheOfCaches.cacheName);
 106              		.loc 1 69 5
 107              		.loc 1 69 11 is_stmt 0
 108 0078 93858415 		addi	a1,s1,344
 109 007c 17050000 		lla	a0,.LC0
 109      13050500 
 110 0084 97000000 		call	_Z6strcpyPKcPc
 110      E7800000 
 111              	.LVL7:
  70:src/slabAllocator.cpp ****     slabAllocatorLocal->cacheOfCaches.next = nullptr;
 112              		.loc 1 70 5 is_stmt 1
 113              		.loc 1 70 44 is_stmt 0
 114 008c 23BC0434 		sd	zero,856(s1)
  71:src/slabAllocator.cpp ****     slabAllocatorLocal->cacheOfCaches.prev = nullptr;
 115              		.loc 1 71 5 is_stmt 1
 116              		.loc 1 71 44 is_stmt 0
 117 0090 23B00436 		sd	zero,864(s1)
  72:src/slabAllocator.cpp ****     slabAllocatorLocal->cacheOfCaches.ctor = nullptr;
 118              		.loc 1 72 5 is_stmt 1
 119              		.loc 1 72 44 is_stmt 0
 120 0094 23B80438 		sd	zero,912(s1)
  73:src/slabAllocator.cpp ****     slabAllocatorLocal->cacheOfCaches.dtor = nullptr;
 121              		.loc 1 73 5 is_stmt 1
 122              		.loc 1 73 44 is_stmt 0
 123 0098 23BC0438 		sd	zero,920(s1)
  74:src/slabAllocator.cpp ****     slabAllocatorLocal->cacheOfCaches.slabs_empty = nullptr;
 124              		.loc 1 74 5 is_stmt 1
 125              		.loc 1 74 51 is_stmt 0
 126 009c 23B40436 		sd	zero,872(s1)
  75:src/slabAllocator.cpp ****     slabAllocatorLocal->cacheOfCaches.slabs_full = nullptr;
 127              		.loc 1 75 5 is_stmt 1
 128              		.loc 1 75 50 is_stmt 0
 129 00a0 23B80436 		sd	zero,880(s1)
  76:src/slabAllocator.cpp ****     slabAllocatorLocal->cacheOfCaches.slabs_partial = nullptr;
 130              		.loc 1 76 5 is_stmt 1
 131              		.loc 1 76 53 is_stmt 0
 132 00a4 23BC0436 		sd	zero,888(s1)
  77:src/slabAllocator.cpp ****     slabAllocatorLocal->cacheOfCaches.slab_size = CACHE_OF_CACHES_SLAB_SIZE;
 133              		.loc 1 77 5 is_stmt 1
 134              		.loc 1 77 49 is_stmt 0
 135 00a8 93072000 		li	a5,2
 136 00ac 23B0F438 		sd	a5,896(s1)
  78:src/slabAllocator.cpp ****     slabAllocatorLocal->cacheOfCaches.obj_size = sizeof(kmem_cache_t);
 137              		.loc 1 78 5 is_stmt 1
 138              		.loc 1 78 48 is_stmt 0
 139 00b0 93078024 		li	a5,584
 140 00b4 23B4F438 		sd	a5,904(s1)
  79:src/slabAllocator.cpp ****     return slabAllocatorLocal;
 141              		.loc 1 79 5 is_stmt 1
  80:src/slabAllocator.cpp **** }
 142              		.loc 1 80 1 is_stmt 0
 143 00b8 13050900 		mv	a0,s2
GAS LISTING /tmp/cc5xgKhq.s 			page 5


 144 00bc 83308101 		ld	ra,24(sp)
 145              		.cfi_restore 1
 146 00c0 03340101 		ld	s0,16(sp)
 147              		.cfi_restore 8
 148              		.cfi_def_cfa 2, 32
 149 00c4 83348100 		ld	s1,8(sp)
 150              		.cfi_restore 9
 151              	.LVL8:
 152 00c8 03390100 		ld	s2,0(sp)
 153              		.cfi_restore 18
 154              	.LVL9:
 155 00cc 13010102 		addi	sp,sp,32
 156              		.cfi_def_cfa_offset 0
 157 00d0 67800000 		jr	ra
 158              		.cfi_endproc
 159              	.LFE6:
 161              		.align	2
 162              		.globl	_Z14allocateObjectP6slab_s
 164              	_Z14allocateObjectP6slab_s:
 165              	.LFB7:
  81:src/slabAllocator.cpp **** 
  82:src/slabAllocator.cpp **** void* allocateObject(slab_t* slab)
  83:src/slabAllocator.cpp **** {
 166              		.loc 1 83 1 is_stmt 1
 167              		.cfi_startproc
 168              	.LVL10:
 169 00d4 130101FF 		addi	sp,sp,-16
 170              		.cfi_def_cfa_offset 16
 171 00d8 23348100 		sd	s0,8(sp)
 172              		.cfi_offset 8, -8
 173 00dc 13040101 		addi	s0,sp,16
 174              		.cfi_def_cfa 8, 0
 175 00e0 93050500 		mv	a1,a0
  84:src/slabAllocator.cpp ****     int index = -1;
 176              		.loc 1 84 5
 177              	.LVL11:
  85:src/slabAllocator.cpp ****     void* addr = nullptr;
 178              		.loc 1 85 5
  86:src/slabAllocator.cpp ****     for(size_t i = 0;i < slab->numOfObjects;i++)
 179              		.loc 1 86 5
 180              	.LBB3:
 181              		.loc 1 86 16 is_stmt 0
 182 00e4 93070000 		li	a5,0
 183              	.LVL12:
 184              	.L13:
 185              		.loc 1 86 24 is_stmt 1 discriminator 1
 186              		.loc 1 86 32 is_stmt 0 discriminator 1
 187 00e8 03B78501 		ld	a4,24(a1)
 188              		.loc 1 86 24 discriminator 1
 189 00ec 63F6E704 		bleu	a4,a5,.L15
 190              	.LBB4:
  87:src/slabAllocator.cpp ****     {
  88:src/slabAllocator.cpp ****         size_t mask = 1 << (i%8);
 191              		.loc 1 88 9 is_stmt 1
 192              		.loc 1 88 30 is_stmt 0
 193 00f0 13F77700 		andi	a4,a5,7
 194              		.loc 1 88 25
GAS LISTING /tmp/cc5xgKhq.s 			page 6


 195 00f4 13061000 		li	a2,1
 196 00f8 BB16E600 		sllw	a3,a2,a4
 197              	.LVL13:
  89:src/slabAllocator.cpp ****         if((uint8)slab->allocated[i/8] & mask)
 198              		.loc 1 89 9 is_stmt 1
 199              		.loc 1 89 36 is_stmt 0
 200 00fc 13D73700 		srli	a4,a5,3
 201              		.loc 1 89 38
 202 0100 3387E500 		add	a4,a1,a4
 203 0104 03470703 		lbu	a4,48(a4)
 204              		.loc 1 89 40
 205 0108 3377D700 		and	a4,a4,a3
 206              		.loc 1 89 9
 207 010c 63160700 		bnez	a4,.L17
 208              	.LBE4:
  86:src/slabAllocator.cpp ****     for(size_t i = 0;i < slab->numOfObjects;i++)
 209              		.loc 1 86 5 is_stmt 1 discriminator 2
 210 0110 93871700 		addi	a5,a5,1
 211              	.LVL14:
 212 0114 6FF05FFD 		j	.L13
 213              	.L17:
 214              	.LBB5:
  90:src/slabAllocator.cpp ****         {
  91:src/slabAllocator.cpp ****             addr = (void*)((size_t)slab->startAddress + sizeof(slab_t)+ i*slab->owner->obj_size);
 215              		.loc 1 91 13
 216              		.loc 1 91 42 is_stmt 0
 217 0118 03B58502 		ld	a0,40(a1)
 218              	.LVL15:
 219              		.loc 1 91 81
 220 011c 03B70501 		ld	a4,16(a1)
 221              		.loc 1 91 88
 222 0120 03370723 		ld	a4,560(a4)
 223              		.loc 1 91 74
 224 0124 3307F702 		mul	a4,a4,a5
 225              		.loc 1 91 71
 226 0128 3305E500 		add	a0,a0,a4
 227 012c 13050505 		addi	a0,a0,80
 228              	.LVL16:
  92:src/slabAllocator.cpp ****             index = i;
 229              		.loc 1 92 13 is_stmt 1
 230              		.loc 1 92 19 is_stmt 0
 231 0130 9B870700 		sext.w	a5,a5
 232              	.LVL17:
  93:src/slabAllocator.cpp ****             break;
 233              		.loc 1 93 13 is_stmt 1
 234 0134 6F00C000 		j	.L11
 235              	.LVL18:
 236              	.L15:
 237              	.LBE5:
 238              	.LBE3:
  85:src/slabAllocator.cpp ****     for(size_t i = 0;i < slab->numOfObjects;i++)
 239              		.loc 1 85 11 is_stmt 0
 240 0138 13050000 		li	a0,0
 241              	.LVL19:
  84:src/slabAllocator.cpp ****     void* addr = nullptr;
 242              		.loc 1 84 9
 243 013c 9307F0FF 		li	a5,-1
GAS LISTING /tmp/cc5xgKhq.s 			page 7


 244              	.LVL20:
 245              	.L11:
  94:src/slabAllocator.cpp ****         }
  95:src/slabAllocator.cpp ****     }
  96:src/slabAllocator.cpp ****     if(addr == nullptr)
 246              		.loc 1 96 5 is_stmt 1
 247 0140 63000504 		beqz	a0,.L10
  97:src/slabAllocator.cpp ****         return nullptr;
  98:src/slabAllocator.cpp **** 
  99:src/slabAllocator.cpp ****     slab->allocated[index / 8]=(uint8)slab->allocated[index/8] | (1 << (index%8));
 248              		.loc 1 99 5
 249              		.loc 1 99 60 is_stmt 0
 250 0144 9BD6F741 		sraiw	a3,a5,31
 251 0148 9BD6D601 		srliw	a3,a3,29
 252 014c BB87F600 		addw	a5,a3,a5
 253              	.LVL21:
 254 0150 1BD73740 		sraiw	a4,a5,3
 255              		.loc 1 99 62
 256 0154 3387E500 		add	a4,a1,a4
 257              		.loc 1 99 32
 258 0158 03060703 		lb	a2,48(a4)
 259              		.loc 1 99 78
 260 015c 93F77700 		andi	a5,a5,7
 261 0160 BB87D740 		subw	a5,a5,a3
 262              		.loc 1 99 69
 263 0164 93061000 		li	a3,1
 264 0168 BB97F600 		sllw	a5,a3,a5
 265              		.loc 1 99 64
 266 016c B367F600 		or	a5,a2,a5
 267              		.loc 1 99 31
 268 0170 2308F702 		sb	a5,48(a4)
 100:src/slabAllocator.cpp ****     slab->numOfAllocatedObjects++;
 269              		.loc 1 100 5 is_stmt 1
 270              		.loc 1 100 11 is_stmt 0
 271 0174 83B70502 		ld	a5,32(a1)
 272              		.loc 1 100 32
 273 0178 93871700 		addi	a5,a5,1
 274 017c 23B0F502 		sd	a5,32(a1)
 101:src/slabAllocator.cpp **** 
 102:src/slabAllocator.cpp ****     return addr;
 275              		.loc 1 102 5 is_stmt 1
 276              	.L10:
 103:src/slabAllocator.cpp **** }
 277              		.loc 1 103 1 is_stmt 0
 278 0180 03348100 		ld	s0,8(sp)
 279              		.cfi_restore 8
 280              		.cfi_def_cfa 2, 16
 281 0184 13010101 		addi	sp,sp,16
 282              		.cfi_def_cfa_offset 0
 283 0188 67800000 		jr	ra
 284              		.cfi_endproc
 285              	.LFE7:
 287              		.align	2
 288              		.globl	_Z4fullP6slab_s
 290              	_Z4fullP6slab_s:
 291              	.LFB8:
 104:src/slabAllocator.cpp **** bool full(slab_t* slab)
GAS LISTING /tmp/cc5xgKhq.s 			page 8


 105:src/slabAllocator.cpp **** {
 292              		.loc 1 105 1 is_stmt 1
 293              		.cfi_startproc
 294              	.LVL22:
 295 018c 130101FF 		addi	sp,sp,-16
 296              		.cfi_def_cfa_offset 16
 297 0190 23348100 		sd	s0,8(sp)
 298              		.cfi_offset 8, -8
 299 0194 13040101 		addi	s0,sp,16
 300              		.cfi_def_cfa 8, 0
 106:src/slabAllocator.cpp ****     return slab->numOfAllocatedObjects == slab->numOfObjects;
 301              		.loc 1 106 5
 302              		.loc 1 106 18 is_stmt 0
 303 0198 83370502 		ld	a5,32(a0)
 304              		.loc 1 106 49
 305 019c 03358501 		ld	a0,24(a0)
 306              	.LVL23:
 307 01a0 3305F540 		sub	a0,a0,a5
 107:src/slabAllocator.cpp **** }
 308              		.loc 1 107 1
 309 01a4 13351500 		seqz	a0,a0
 310 01a8 03348100 		ld	s0,8(sp)
 311              		.cfi_restore 8
 312              		.cfi_def_cfa 2, 16
 313 01ac 13010101 		addi	sp,sp,16
 314              		.cfi_def_cfa_offset 0
 315 01b0 67800000 		jr	ra
 316              		.cfi_endproc
 317              	.LFE8:
 319              		.align	2
 320              		.globl	_Z5emptyP6slab_s
 322              	_Z5emptyP6slab_s:
 323              	.LFB9:
 108:src/slabAllocator.cpp **** 
 109:src/slabAllocator.cpp **** bool empty(slab_t* slab)
 110:src/slabAllocator.cpp **** {
 324              		.loc 1 110 1 is_stmt 1
 325              		.cfi_startproc
 326              	.LVL24:
 327 01b4 130101FF 		addi	sp,sp,-16
 328              		.cfi_def_cfa_offset 16
 329 01b8 23348100 		sd	s0,8(sp)
 330              		.cfi_offset 8, -8
 331 01bc 13040101 		addi	s0,sp,16
 332              		.cfi_def_cfa 8, 0
 111:src/slabAllocator.cpp ****     return slab->numOfAllocatedObjects == 0;
 333              		.loc 1 111 5
 334              		.loc 1 111 18 is_stmt 0
 335 01c0 03350502 		ld	a0,32(a0)
 336              	.LVL25:
 112:src/slabAllocator.cpp **** }
 337              		.loc 1 112 1
 338 01c4 13351500 		seqz	a0,a0
 339 01c8 03348100 		ld	s0,8(sp)
 340              		.cfi_restore 8
 341              		.cfi_def_cfa 2, 16
 342 01cc 13010101 		addi	sp,sp,16
GAS LISTING /tmp/cc5xgKhq.s 			page 9


 343              		.cfi_def_cfa_offset 0
 344 01d0 67800000 		jr	ra
 345              		.cfi_endproc
 346              	.LFE9:
 348              		.align	2
 349              		.globl	_Z16putPartialToFullP12kmem_cache_s
 351              	_Z16putPartialToFullP12kmem_cache_s:
 352              	.LFB10:
 113:src/slabAllocator.cpp **** 
 114:src/slabAllocator.cpp **** void putPartialToFull(kmem_cache_t* cachep)
 115:src/slabAllocator.cpp **** {
 353              		.loc 1 115 1 is_stmt 1
 354              		.cfi_startproc
 355              	.LVL26:
 356 01d4 130101FF 		addi	sp,sp,-16
 357              		.cfi_def_cfa_offset 16
 358 01d8 23348100 		sd	s0,8(sp)
 359              		.cfi_offset 8, -8
 360 01dc 13040101 		addi	s0,sp,16
 361              		.cfi_def_cfa 8, 0
 116:src/slabAllocator.cpp ****     slab_t* slab = cachep->slabs_partial;
 362              		.loc 1 116 5
 363              		.loc 1 116 13 is_stmt 0
 364 01e0 83370522 		ld	a5,544(a0)
 365              	.LVL27:
 117:src/slabAllocator.cpp ****     cachep->slabs_partial = cachep->slabs_partial->next;
 366              		.loc 1 117 5 is_stmt 1
 367              		.loc 1 117 52 is_stmt 0
 368 01e4 03B78700 		ld	a4,8(a5)
 369              		.loc 1 117 27
 370 01e8 2330E522 		sd	a4,544(a0)
 118:src/slabAllocator.cpp ****     if(cachep->slabs_partial!=nullptr)
 371              		.loc 1 118 5 is_stmt 1
 372 01ec 63040700 		beqz	a4,.L23
 119:src/slabAllocator.cpp ****         cachep->slabs_partial = nullptr;
 373              		.loc 1 119 9
 374              		.loc 1 119 31 is_stmt 0
 375 01f0 23300522 		sd	zero,544(a0)
 376              	.L23:
 120:src/slabAllocator.cpp ****     slab->next = cachep->slabs_full;
 377              		.loc 1 120 5 is_stmt 1
 378              		.loc 1 120 26 is_stmt 0
 379 01f4 03378521 		ld	a4,536(a0)
 380              		.loc 1 120 16
 381 01f8 23B4E700 		sd	a4,8(a5)
 121:src/slabAllocator.cpp ****     if(cachep->slabs_full != nullptr)
 382              		.loc 1 121 5 is_stmt 1
 383              		.loc 1 121 16 is_stmt 0
 384 01fc 03378521 		ld	a4,536(a0)
 385              		.loc 1 121 5
 386 0200 63040700 		beqz	a4,.L24
 122:src/slabAllocator.cpp ****         cachep->slabs_full->prev = slab;
 387              		.loc 1 122 9 is_stmt 1
 388              		.loc 1 122 34 is_stmt 0
 389 0204 2330F700 		sd	a5,0(a4)
 390              	.L24:
 123:src/slabAllocator.cpp ****     cachep->slabs_full = slab;
GAS LISTING /tmp/cc5xgKhq.s 			page 10


 391              		.loc 1 123 5 is_stmt 1
 392              		.loc 1 123 24 is_stmt 0
 393 0208 233CF520 		sd	a5,536(a0)
 124:src/slabAllocator.cpp ****     slab->prev = nullptr;
 394              		.loc 1 124 5 is_stmt 1
 395              		.loc 1 124 16 is_stmt 0
 396 020c 23B00700 		sd	zero,0(a5)
 125:src/slabAllocator.cpp **** }
 397              		.loc 1 125 1
 398 0210 03348100 		ld	s0,8(sp)
 399              		.cfi_restore 8
 400              		.cfi_def_cfa 2, 16
 401 0214 13010101 		addi	sp,sp,16
 402              		.cfi_def_cfa_offset 0
 403 0218 67800000 		jr	ra
 404              		.cfi_endproc
 405              	.LFE10:
 407              		.align	2
 408              		.globl	_Z17putEmptyToPartialP12kmem_cache_s
 410              	_Z17putEmptyToPartialP12kmem_cache_s:
 411              	.LFB11:
 126:src/slabAllocator.cpp **** 
 127:src/slabAllocator.cpp **** void putEmptyToPartial(kmem_cache_t* cachep)
 128:src/slabAllocator.cpp **** {
 412              		.loc 1 128 1 is_stmt 1
 413              		.cfi_startproc
 414              	.LVL28:
 415 021c 130101FF 		addi	sp,sp,-16
 416              		.cfi_def_cfa_offset 16
 417 0220 23348100 		sd	s0,8(sp)
 418              		.cfi_offset 8, -8
 419 0224 13040101 		addi	s0,sp,16
 420              		.cfi_def_cfa 8, 0
 129:src/slabAllocator.cpp ****     slab_t* slab = cachep->slabs_empty;
 421              		.loc 1 129 5
 422              		.loc 1 129 13 is_stmt 0
 423 0228 83370521 		ld	a5,528(a0)
 424              	.LVL29:
 130:src/slabAllocator.cpp ****     cachep->slabs_empty = cachep->slabs_empty->next;
 425              		.loc 1 130 5 is_stmt 1
 426              		.loc 1 130 48 is_stmt 0
 427 022c 03B78700 		ld	a4,8(a5)
 428              		.loc 1 130 25
 429 0230 2338E520 		sd	a4,528(a0)
 131:src/slabAllocator.cpp ****     if(cachep->slabs_empty != nullptr)
 430              		.loc 1 131 5 is_stmt 1
 431 0234 63040700 		beqz	a4,.L27
 132:src/slabAllocator.cpp ****         cachep->slabs_empty = nullptr;
 432              		.loc 1 132 9
 433              		.loc 1 132 29 is_stmt 0
 434 0238 23380520 		sd	zero,528(a0)
 435              	.L27:
 133:src/slabAllocator.cpp ****     slab->next = cachep->slabs_partial;
 436              		.loc 1 133 5 is_stmt 1
 437              		.loc 1 133 26 is_stmt 0
 438 023c 03370522 		ld	a4,544(a0)
 439              		.loc 1 133 16
GAS LISTING /tmp/cc5xgKhq.s 			page 11


 440 0240 23B4E700 		sd	a4,8(a5)
 134:src/slabAllocator.cpp ****     if(cachep->slabs_partial != nullptr)
 441              		.loc 1 134 5 is_stmt 1
 442              		.loc 1 134 16 is_stmt 0
 443 0244 03370522 		ld	a4,544(a0)
 444              		.loc 1 134 5
 445 0248 63040700 		beqz	a4,.L28
 135:src/slabAllocator.cpp ****         cachep->slabs_partial->prev = slab;
 446              		.loc 1 135 9 is_stmt 1
 447              		.loc 1 135 37 is_stmt 0
 448 024c 2330F700 		sd	a5,0(a4)
 449              	.L28:
 136:src/slabAllocator.cpp ****     cachep->slabs_partial = slab;
 450              		.loc 1 136 5 is_stmt 1
 451              		.loc 1 136 27 is_stmt 0
 452 0250 2330F522 		sd	a5,544(a0)
 137:src/slabAllocator.cpp ****     slab->prev = nullptr;
 453              		.loc 1 137 5 is_stmt 1
 454              		.loc 1 137 16 is_stmt 0
 455 0254 23B00700 		sd	zero,0(a5)
 138:src/slabAllocator.cpp **** }
 456              		.loc 1 138 1
 457 0258 03348100 		ld	s0,8(sp)
 458              		.cfi_restore 8
 459              		.cfi_def_cfa 2, 16
 460 025c 13010101 		addi	sp,sp,16
 461              		.cfi_def_cfa_offset 0
 462 0260 67800000 		jr	ra
 463              		.cfi_endproc
 464              	.LFE11:
 466              		.align	2
 467              		.globl	_Z12allocateSlabP12kmem_cache_s
 469              	_Z12allocateSlabP12kmem_cache_s:
 470              	.LFB12:
 139:src/slabAllocator.cpp **** 
 140:src/slabAllocator.cpp **** void allocateSlab(kmem_cache_t* cachep)
 141:src/slabAllocator.cpp **** {
 471              		.loc 1 141 1 is_stmt 1
 472              		.cfi_startproc
 473              	.LVL30:
 474 0264 130101FE 		addi	sp,sp,-32
 475              		.cfi_def_cfa_offset 32
 476 0268 233C1100 		sd	ra,24(sp)
 477 026c 23388100 		sd	s0,16(sp)
 478 0270 23349100 		sd	s1,8(sp)
 479              		.cfi_offset 1, -8
 480              		.cfi_offset 8, -16
 481              		.cfi_offset 9, -24
 482 0274 13040102 		addi	s0,sp,32
 483              		.cfi_def_cfa 8, 0
 484 0278 93040500 		mv	s1,a0
 142:src/slabAllocator.cpp ****     slab_t* newSlab = (slab_t*)buddy_alloc(slabAllocator->buddy,cachep->slab_size*BLOCK_SIZE);
 485              		.loc 1 142 5
 486              		.loc 1 142 73 is_stmt 0
 487 027c 83358522 		ld	a1,552(a0)
 488              		.loc 1 142 43
 489 0280 9395C500 		slli	a1,a1,12
GAS LISTING /tmp/cc5xgKhq.s 			page 12


 490 0284 97070000 		ld	a5,.LANCHOR0
 490      83B70700 
 491 028c 03B50700 		ld	a0,0(a5)
 492              	.LVL31:
 493 0290 97000000 		call	_Z11buddy_allocP14buddyAllocatorm@plt
 493      E7800000 
 494              	.LVL32:
 143:src/slabAllocator.cpp ****     newSlab->next = cachep->slabs_empty;
 495              		.loc 1 143 5 is_stmt 1
 496              		.loc 1 143 29 is_stmt 0
 497 0298 83B70421 		ld	a5,528(s1)
 498              		.loc 1 143 19
 499 029c 2334F500 		sd	a5,8(a0)
 144:src/slabAllocator.cpp ****     if(cachep->slabs_empty != nullptr)
 500              		.loc 1 144 5 is_stmt 1
 501 02a0 63840700 		beqz	a5,.L31
 145:src/slabAllocator.cpp ****         cachep->slabs_empty->prev = newSlab;
 502              		.loc 1 145 9
 503              		.loc 1 145 35 is_stmt 0
 504 02a4 23B0A700 		sd	a0,0(a5)
 505              	.L31:
 146:src/slabAllocator.cpp ****     cachep->slabs_empty = newSlab;
 506              		.loc 1 146 5 is_stmt 1
 507              		.loc 1 146 25 is_stmt 0
 508 02a8 23B8A420 		sd	a0,528(s1)
 147:src/slabAllocator.cpp ****     newSlab->prev = nullptr;
 509              		.loc 1 147 5 is_stmt 1
 510              		.loc 1 147 19 is_stmt 0
 511 02ac 23300500 		sd	zero,0(a0)
 148:src/slabAllocator.cpp ****     newSlab->numOfAllocatedObjects = 0;
 512              		.loc 1 148 5 is_stmt 1
 513              		.loc 1 148 36 is_stmt 0
 514 02b0 23300502 		sd	zero,32(a0)
 149:src/slabAllocator.cpp ****     newSlab->owner = cachep;
 515              		.loc 1 149 5 is_stmt 1
 516              		.loc 1 149 20 is_stmt 0
 517 02b4 23389500 		sd	s1,16(a0)
 150:src/slabAllocator.cpp ****     newSlab->startAddress = (void*)newSlab;
 518              		.loc 1 150 5 is_stmt 1
 519              		.loc 1 150 27 is_stmt 0
 520 02b8 2334A502 		sd	a0,40(a0)
 151:src/slabAllocator.cpp ****     size_t sizeInBytes = cachep->slab_size*BLOCK_SIZE;
 521              		.loc 1 151 5 is_stmt 1
 522              		.loc 1 151 34 is_stmt 0
 523 02bc 83B68422 		ld	a3,552(s1)
 524              		.loc 1 151 12
 525 02c0 9396C600 		slli	a3,a3,12
 526              	.LVL33:
 152:src/slabAllocator.cpp ****     newSlab->numOfObjects = (sizeInBytes - sizeof(slab_t)) / cachep->obj_size; // TODO can this par
 527              		.loc 1 152 5 is_stmt 1
 528              		.loc 1 152 42 is_stmt 0
 529 02c4 938606FB 		addi	a3,a3,-80
 530              	.LVL34:
 531              		.loc 1 152 70
 532 02c8 83B70423 		ld	a5,560(s1)
 533              		.loc 1 152 60
 534 02cc B3D6F602 		divu	a3,a3,a5
GAS LISTING /tmp/cc5xgKhq.s 			page 13


 535              	.LVL35:
 536              		.loc 1 152 27
 537 02d0 233CD500 		sd	a3,24(a0)
 538              	.LVL36:
 153:src/slabAllocator.cpp ****     for(size_t i = 0; i < newSlab->numOfObjects / 8;i++)
 539              		.loc 1 153 5 is_stmt 1
 540              	.LBB6:
 541              		.loc 1 153 16 is_stmt 0
 542 02d4 93070000 		li	a5,0
 543              	.LVL37:
 544              	.L33:
 545              		.loc 1 153 25 is_stmt 1 discriminator 3
 546              		.loc 1 153 49 is_stmt 0 discriminator 3
 547 02d8 13D73600 		srli	a4,a3,3
 548              		.loc 1 153 25 discriminator 3
 549 02dc 63FAE700 		bleu	a4,a5,.L30
 154:src/slabAllocator.cpp ****         newSlab->allocated[i] = 0;
 550              		.loc 1 154 9 is_stmt 1 discriminator 2
 551              		.loc 1 154 31 is_stmt 0 discriminator 2
 552 02e0 3307F500 		add	a4,a0,a5
 553 02e4 23080702 		sb	zero,48(a4)
 153:src/slabAllocator.cpp ****     for(size_t i = 0; i < newSlab->numOfObjects / 8;i++)
 554              		.loc 1 153 5 is_stmt 1 discriminator 2
 555 02e8 93871700 		addi	a5,a5,1
 556              	.LVL38:
 557 02ec 6FF0DFFE 		j	.L33
 558              	.L30:
 559              	.LBE6:
 155:src/slabAllocator.cpp **** }
 560              		.loc 1 155 1 is_stmt 0
 561 02f0 83308101 		ld	ra,24(sp)
 562              		.cfi_restore 1
 563 02f4 03340101 		ld	s0,16(sp)
 564              		.cfi_restore 8
 565              		.cfi_def_cfa 2, 32
 566 02f8 83348100 		ld	s1,8(sp)
 567              		.cfi_restore 9
 568              	.LVL39:
 569 02fc 13010102 		addi	sp,sp,32
 570              		.cfi_def_cfa_offset 0
 571 0300 67800000 		jr	ra
 572              		.cfi_endproc
 573              	.LFE12:
 575              		.align	2
 576              		.globl	_Z18getOptimalSlabSizem
 578              	_Z18getOptimalSlabSizem:
 579              	.LFB13:
 156:src/slabAllocator.cpp **** 
 157:src/slabAllocator.cpp **** size_t getOptimalSlabSize(size_t obj_size)
 158:src/slabAllocator.cpp **** {
 580              		.loc 1 158 1 is_stmt 1
 581              		.cfi_startproc
 582              	.LVL40:
 583 0304 130101FF 		addi	sp,sp,-16
 584              		.cfi_def_cfa_offset 16
 585 0308 23348100 		sd	s0,8(sp)
 586              		.cfi_offset 8, -8
GAS LISTING /tmp/cc5xgKhq.s 			page 14


 587 030c 13040101 		addi	s0,sp,16
 588              		.cfi_def_cfa 8, 0
 159:src/slabAllocator.cpp ****     size_t bestSize = BLOCK_SIZE;
 589              		.loc 1 159 5
 590              	.LVL41:
 591              		.loc 1 159 12 is_stmt 0
 592 0310 B7170000 		li	a5,4096
 593              	.LVL42:
 594              	.L37:
 160:src/slabAllocator.cpp ****     while(bestSize < obj_size + sizeof(slab_t))
 595              		.loc 1 160 5 is_stmt 1
 596              		.loc 1 160 20
 597              		.loc 1 160 31 is_stmt 0
 598 0314 13070505 		addi	a4,a0,80
 599              		.loc 1 160 20
 600 0318 63F6E700 		bleu	a4,a5,.L36
 161:src/slabAllocator.cpp ****         bestSize<<=1;
 601              		.loc 1 161 9 is_stmt 1
 602              		.loc 1 161 17 is_stmt 0
 603 031c 93971700 		slli	a5,a5,1
 604              	.LVL43:
 160:src/slabAllocator.cpp ****     while(bestSize < obj_size + sizeof(slab_t))
 605              		.loc 1 160 5
 606 0320 6FF05FFF 		j	.L37
 607              	.L36:
 162:src/slabAllocator.cpp ****     size_t optimalWaste = (bestSize - sizeof(slab_t)) % obj_size;
 608              		.loc 1 162 5 is_stmt 1
 609              		.loc 1 162 37 is_stmt 0
 610 0324 938507FB 		addi	a1,a5,-80
 611              		.loc 1 162 12
 612 0328 B3F5A502 		remu	a1,a1,a0
 613              	.LVL44:
 163:src/slabAllocator.cpp **** 
 164:src/slabAllocator.cpp ****     for(int i = 1;i<=4;i++) //change constants
 614              		.loc 1 164 5 is_stmt 1
 615              	.LBB7:
 616              		.loc 1 164 13 is_stmt 0
 617 032c 13071000 		li	a4,1
 618 0330 6F008000 		j	.L40
 619              	.LVL45:
 620              	.L39:
 621              		.loc 1 164 5 is_stmt 1 discriminator 2
 622 0334 1B071700 		addiw	a4,a4,1
 623              	.LVL46:
 624              	.L40:
 625              		.loc 1 164 20 discriminator 1
 626 0338 93064000 		li	a3,4
 627 033c 63C0E602 		bgt	a4,a3,.L38
 628              	.LBB8:
 165:src/slabAllocator.cpp ****     {
 166:src/slabAllocator.cpp ****         size_t newSize = bestSize << i;
 629              		.loc 1 166 9
 630              		.loc 1 166 16 is_stmt 0
 631 0340 3396E700 		sll	a2,a5,a4
 632              	.LVL47:
 167:src/slabAllocator.cpp ****         size_t newWaste = (newSize - sizeof(slab_t)) % obj_size;
 633              		.loc 1 167 9 is_stmt 1
GAS LISTING /tmp/cc5xgKhq.s 			page 15


 634              		.loc 1 167 36 is_stmt 0
 635 0344 930606FB 		addi	a3,a2,-80
 636              		.loc 1 167 16
 637 0348 B3F6A602 		remu	a3,a3,a0
 638              	.LVL48:
 168:src/slabAllocator.cpp ****         if(newWaste < optimalWaste)
 639              		.loc 1 168 9 is_stmt 1
 640 034c E3F4B6FE 		bleu	a1,a3,.L39
 169:src/slabAllocator.cpp ****         {
 170:src/slabAllocator.cpp ****             optimalWaste = newWaste;
 641              		.loc 1 170 26 is_stmt 0
 642 0350 93850600 		mv	a1,a3
 643              	.LVL49:
 171:src/slabAllocator.cpp ****             bestSize = newSize;
 644              		.loc 1 171 22
 645 0354 93070600 		mv	a5,a2
 646              	.LVL50:
 647 0358 6FF0DFFD 		j	.L39
 648              	.LVL51:
 649              	.L38:
 650              	.LBE8:
 651              	.LBE7:
 172:src/slabAllocator.cpp ****         }
 173:src/slabAllocator.cpp ****     }
 174:src/slabAllocator.cpp **** 
 175:src/slabAllocator.cpp ****     return bestSize / BLOCK_SIZE;
 652              		.loc 1 175 5 is_stmt 1
 176:src/slabAllocator.cpp **** }
 653              		.loc 1 176 1 is_stmt 0
 654 035c 13D5C700 		srli	a0,a5,12
 655              	.LVL52:
 656 0360 03348100 		ld	s0,8(sp)
 657              		.cfi_restore 8
 658              		.cfi_def_cfa 2, 16
 659 0364 13010101 		addi	sp,sp,16
 660              		.cfi_def_cfa_offset 0
 661 0368 67800000 		jr	ra
 662              		.cfi_endproc
 663              	.LFE13:
 665              		.align	2
 666              		.globl	_Z8findSlabP12kmem_cache_sPv
 668              	_Z8findSlabP12kmem_cache_sPv:
 669              	.LFB14:
 177:src/slabAllocator.cpp **** 
 178:src/slabAllocator.cpp **** //finds the slab where objp is
 179:src/slabAllocator.cpp **** slab_t* findSlab(kmem_cache_t* cachep, void* objp)
 180:src/slabAllocator.cpp **** {
 670              		.loc 1 180 1 is_stmt 1
 671              		.cfi_startproc
 672              	.LVL53:
 673 036c 130101FF 		addi	sp,sp,-16
 674              		.cfi_def_cfa_offset 16
 675 0370 23348100 		sd	s0,8(sp)
 676              		.cfi_offset 8, -8
 677 0374 13040101 		addi	s0,sp,16
 678              		.cfi_def_cfa 8, 0
 679 0378 93060500 		mv	a3,a0
GAS LISTING /tmp/cc5xgKhq.s 			page 16


 181:src/slabAllocator.cpp ****     slab_t* slab = cachep->slabs_full;
 680              		.loc 1 181 5
 681              		.loc 1 181 13 is_stmt 0
 682 037c 03358521 		ld	a0,536(a0)
 683              	.LVL54:
 684 0380 6F008000 		j	.L47
 685              	.LVL55:
 686              	.L45:
 687              	.LBB9:
 182:src/slabAllocator.cpp ****     while(slab != nullptr)
 183:src/slabAllocator.cpp ****     {
 184:src/slabAllocator.cpp ****         size_t endAddr = (size_t)slab + sizeof(slab_t) + slab->numOfObjects*slab->owner->obj_size;
 185:src/slabAllocator.cpp ****         if((size_t)objp > (size_t)slab && (size_t)objp < endAddr)
 186:src/slabAllocator.cpp ****             return slab;
 187:src/slabAllocator.cpp ****         slab = slab->next;
 688              		.loc 1 187 9 is_stmt 1
 689              		.loc 1 187 14 is_stmt 0
 690 0384 03358500 		ld	a0,8(a0)
 691              	.LVL56:
 692              	.L47:
 693              	.LBE9:
 182:src/slabAllocator.cpp ****     while(slab != nullptr)
 694              		.loc 1 182 5 is_stmt 1
 182:src/slabAllocator.cpp ****     while(slab != nullptr)
 695              		.loc 1 182 16
 696 0388 63080502 		beqz	a0,.L44
 697              	.LBB10:
 184:src/slabAllocator.cpp ****         if((size_t)objp > (size_t)slab && (size_t)objp < endAddr)
 698              		.loc 1 184 9
 184:src/slabAllocator.cpp ****         if((size_t)objp > (size_t)slab && (size_t)objp < endAddr)
 699              		.loc 1 184 64 is_stmt 0
 700 038c 83378501 		ld	a5,24(a0)
 184:src/slabAllocator.cpp ****         if((size_t)objp > (size_t)slab && (size_t)objp < endAddr)
 701              		.loc 1 184 83
 702 0390 03370501 		ld	a4,16(a0)
 184:src/slabAllocator.cpp ****         if((size_t)objp > (size_t)slab && (size_t)objp < endAddr)
 703              		.loc 1 184 90
 704 0394 03370723 		ld	a4,560(a4)
 184:src/slabAllocator.cpp ****         if((size_t)objp > (size_t)slab && (size_t)objp < endAddr)
 705              		.loc 1 184 76
 706 0398 B387E702 		mul	a5,a5,a4
 184:src/slabAllocator.cpp ****         if((size_t)objp > (size_t)slab && (size_t)objp < endAddr)
 707              		.loc 1 184 56
 708 039c B387A700 		add	a5,a5,a0
 184:src/slabAllocator.cpp ****         if((size_t)objp > (size_t)slab && (size_t)objp < endAddr)
 709              		.loc 1 184 16
 710 03a0 93870705 		addi	a5,a5,80
 711              	.LVL57:
 185:src/slabAllocator.cpp ****             return slab;
 712              		.loc 1 185 9 is_stmt 1
 713 03a4 E370B5FE 		bgeu	a0,a1,.L45
 185:src/slabAllocator.cpp ****             return slab;
 714              		.loc 1 185 40 is_stmt 0 discriminator 1
 715 03a8 E3FEF5FC 		bgeu	a1,a5,.L45
 716              	.LVL58:
 717              	.L43:
 718              	.LBE10:
GAS LISTING /tmp/cc5xgKhq.s 			page 17


 188:src/slabAllocator.cpp ****     }
 189:src/slabAllocator.cpp **** 
 190:src/slabAllocator.cpp ****     slab = cachep->slabs_partial;
 191:src/slabAllocator.cpp ****     while(slab != nullptr)
 192:src/slabAllocator.cpp ****     {
 193:src/slabAllocator.cpp ****         size_t endAddr = (size_t)slab + sizeof(slab_t) + slab->numOfObjects*slab->owner->obj_size;
 194:src/slabAllocator.cpp ****         if((size_t)objp > (size_t)slab && (size_t)objp < endAddr)
 195:src/slabAllocator.cpp ****             return slab;
 196:src/slabAllocator.cpp ****         slab = slab->next;
 197:src/slabAllocator.cpp ****     }
 198:src/slabAllocator.cpp **** 
 199:src/slabAllocator.cpp ****     return nullptr;
 200:src/slabAllocator.cpp **** }
 719              		.loc 1 200 1
 720 03ac 03348100 		ld	s0,8(sp)
 721              		.cfi_remember_state
 722              		.cfi_restore 8
 723              		.cfi_def_cfa 2, 16
 724 03b0 13010101 		addi	sp,sp,16
 725              		.cfi_def_cfa_offset 0
 726 03b4 67800000 		jr	ra
 727              	.L44:
 728              		.cfi_restore_state
 190:src/slabAllocator.cpp ****     while(slab != nullptr)
 729              		.loc 1 190 5 is_stmt 1
 190:src/slabAllocator.cpp ****     while(slab != nullptr)
 730              		.loc 1 190 10 is_stmt 0
 731 03b8 03B50622 		ld	a0,544(a3)
 732              	.LVL59:
 733 03bc 6F008000 		j	.L49
 734              	.LVL60:
 735              	.L48:
 736              	.LBB11:
 196:src/slabAllocator.cpp ****     }
 737              		.loc 1 196 9 is_stmt 1
 196:src/slabAllocator.cpp ****     }
 738              		.loc 1 196 14 is_stmt 0
 739 03c0 03358500 		ld	a0,8(a0)
 740              	.LVL61:
 741              	.L49:
 742              	.LBE11:
 191:src/slabAllocator.cpp ****     {
 743              		.loc 1 191 5 is_stmt 1
 191:src/slabAllocator.cpp ****     {
 744              		.loc 1 191 16
 745 03c4 E30405FE 		beqz	a0,.L43
 746              	.LBB12:
 193:src/slabAllocator.cpp ****         if((size_t)objp > (size_t)slab && (size_t)objp < endAddr)
 747              		.loc 1 193 9
 193:src/slabAllocator.cpp ****         if((size_t)objp > (size_t)slab && (size_t)objp < endAddr)
 748              		.loc 1 193 64 is_stmt 0
 749 03c8 83378501 		ld	a5,24(a0)
 193:src/slabAllocator.cpp ****         if((size_t)objp > (size_t)slab && (size_t)objp < endAddr)
 750              		.loc 1 193 83
 751 03cc 03370501 		ld	a4,16(a0)
 193:src/slabAllocator.cpp ****         if((size_t)objp > (size_t)slab && (size_t)objp < endAddr)
 752              		.loc 1 193 90
GAS LISTING /tmp/cc5xgKhq.s 			page 18


 753 03d0 03370723 		ld	a4,560(a4)
 193:src/slabAllocator.cpp ****         if((size_t)objp > (size_t)slab && (size_t)objp < endAddr)
 754              		.loc 1 193 76
 755 03d4 B387E702 		mul	a5,a5,a4
 193:src/slabAllocator.cpp ****         if((size_t)objp > (size_t)slab && (size_t)objp < endAddr)
 756              		.loc 1 193 56
 757 03d8 B387A700 		add	a5,a5,a0
 193:src/slabAllocator.cpp ****         if((size_t)objp > (size_t)slab && (size_t)objp < endAddr)
 758              		.loc 1 193 16
 759 03dc 93870705 		addi	a5,a5,80
 760              	.LVL62:
 194:src/slabAllocator.cpp ****             return slab;
 761              		.loc 1 194 9 is_stmt 1
 762 03e0 E370B5FE 		bgeu	a0,a1,.L48
 194:src/slabAllocator.cpp ****             return slab;
 763              		.loc 1 194 40 is_stmt 0 discriminator 1
 764 03e4 E3FEF5FC 		bgeu	a1,a5,.L48
 765 03e8 6FF05FFC 		j	.L43
 766              	.LBE12:
 767              		.cfi_endproc
 768              	.LFE14:
 770              		.align	2
 771              		.globl	_Z19resetAllocatedIndexP6slab_si
 773              	_Z19resetAllocatedIndexP6slab_si:
 774              	.LFB15:
 201:src/slabAllocator.cpp **** 
 202:src/slabAllocator.cpp **** void resetAllocatedIndex(slab_t* slab, int index)
 203:src/slabAllocator.cpp **** {
 775              		.loc 1 203 1 is_stmt 1
 776              		.cfi_startproc
 777              	.LVL63:
 778 03ec 130101FF 		addi	sp,sp,-16
 779              		.cfi_def_cfa_offset 16
 780 03f0 23348100 		sd	s0,8(sp)
 781              		.cfi_offset 8, -8
 782 03f4 13040101 		addi	s0,sp,16
 783              		.cfi_def_cfa 8, 0
 204:src/slabAllocator.cpp ****     //TODO test it
 205:src/slabAllocator.cpp ****     slab->allocated[index / 8]=(uint8)slab->allocated[index/8] & ~(1 << (index%8));
 784              		.loc 1 205 5
 785              		.loc 1 205 60 is_stmt 0
 786 03f8 9BD7F541 		sraiw	a5,a1,31
 787 03fc 9BD7D701 		srliw	a5,a5,29
 788 0400 BB85B700 		addw	a1,a5,a1
 789              	.LVL64:
 790 0404 1BD73540 		sraiw	a4,a1,3
 791              		.loc 1 205 62
 792 0408 3305E500 		add	a0,a0,a4
 793              	.LVL65:
 794              		.loc 1 205 32
 795 040c 03070503 		lb	a4,48(a0)
 796              		.loc 1 205 79
 797 0410 93F57500 		andi	a1,a1,7
 798 0414 BB85F540 		subw	a1,a1,a5
 799              		.loc 1 205 70
 800 0418 93071000 		li	a5,1
 801 041c BB95B700 		sllw	a1,a5,a1
GAS LISTING /tmp/cc5xgKhq.s 			page 19


 802              		.loc 1 205 64
 803 0420 93C5F5FF 		not	a1,a1
 804 0424 B375B700 		and	a1,a4,a1
 805              		.loc 1 205 31
 806 0428 2308B502 		sb	a1,48(a0)
 206:src/slabAllocator.cpp **** }
 807              		.loc 1 206 1
 808 042c 03348100 		ld	s0,8(sp)
 809              		.cfi_restore 8
 810              		.cfi_def_cfa 2, 16
 811 0430 13010101 		addi	sp,sp,16
 812              		.cfi_def_cfa_offset 0
 813 0434 67800000 		jr	ra
 814              		.cfi_endproc
 815              	.LFE15:
 817              		.align	2
 818              		.globl	_Z14removeFullSlabP12kmem_cache_sP6slab_s
 820              	_Z14removeFullSlabP12kmem_cache_sP6slab_s:
 821              	.LFB16:
 207:src/slabAllocator.cpp **** 
 208:src/slabAllocator.cpp **** void removeFullSlab(kmem_cache_t * cachep, slab_t* slab)
 209:src/slabAllocator.cpp **** {
 822              		.loc 1 209 1 is_stmt 1
 823              		.cfi_startproc
 824              	.LVL66:
 825 0438 130101FF 		addi	sp,sp,-16
 826              		.cfi_def_cfa_offset 16
 827 043c 23348100 		sd	s0,8(sp)
 828              		.cfi_offset 8, -8
 829 0440 13040101 		addi	s0,sp,16
 830              		.cfi_def_cfa 8, 0
 210:src/slabAllocator.cpp ****     if(slab->prev)
 831              		.loc 1 210 5
 832              		.loc 1 210 14 is_stmt 0
 833 0444 83B70500 		ld	a5,0(a1)
 834              		.loc 1 210 5
 835 0448 63800704 		beqz	a5,.L54
 211:src/slabAllocator.cpp ****     {
 212:src/slabAllocator.cpp ****         slab->prev->next = slab->next;
 836              		.loc 1 212 9 is_stmt 1
 837              		.loc 1 212 34 is_stmt 0
 838 044c 03B78500 		ld	a4,8(a1)
 839              		.loc 1 212 26
 840 0450 23B4E700 		sd	a4,8(a5)
 213:src/slabAllocator.cpp ****         slab->next->prev = slab->prev;
 841              		.loc 1 213 9 is_stmt 1
 842              		.loc 1 213 15 is_stmt 0
 843 0454 83B78500 		ld	a5,8(a1)
 844              		.loc 1 213 34
 845 0458 03B70500 		ld	a4,0(a1)
 846              		.loc 1 213 26
 847 045c 23B0E700 		sd	a4,0(a5)
 848              	.L55:
 214:src/slabAllocator.cpp ****     }
 215:src/slabAllocator.cpp ****     else
 216:src/slabAllocator.cpp ****     {
 217:src/slabAllocator.cpp ****         slab->next->prev = nullptr;
GAS LISTING /tmp/cc5xgKhq.s 			page 20


 218:src/slabAllocator.cpp ****         cachep->slabs_full = slab->next;
 219:src/slabAllocator.cpp ****     }
 220:src/slabAllocator.cpp ****     slab->next = cachep->slabs_partial;
 849              		.loc 1 220 5 is_stmt 1
 850              		.loc 1 220 26 is_stmt 0
 851 0460 83370522 		ld	a5,544(a0)
 852              		.loc 1 220 16
 853 0464 23B4F500 		sd	a5,8(a1)
 221:src/slabAllocator.cpp ****     slab->prev = nullptr;
 854              		.loc 1 221 5 is_stmt 1
 855              		.loc 1 221 16 is_stmt 0
 856 0468 23B00500 		sd	zero,0(a1)
 222:src/slabAllocator.cpp ****     if(cachep->slabs_partial)
 857              		.loc 1 222 5 is_stmt 1
 858              		.loc 1 222 16 is_stmt 0
 859 046c 83370522 		ld	a5,544(a0)
 860              		.loc 1 222 5
 861 0470 63840700 		beqz	a5,.L56
 223:src/slabAllocator.cpp ****         cachep->slabs_partial->prev = slab;
 862              		.loc 1 223 9 is_stmt 1
 863              		.loc 1 223 37 is_stmt 0
 864 0474 23B0B700 		sd	a1,0(a5)
 865              	.L56:
 224:src/slabAllocator.cpp ****     cachep->slabs_partial = slab;
 866              		.loc 1 224 5 is_stmt 1
 867              		.loc 1 224 27 is_stmt 0
 868 0478 2330B522 		sd	a1,544(a0)
 225:src/slabAllocator.cpp **** }
 869              		.loc 1 225 1
 870 047c 03348100 		ld	s0,8(sp)
 871              		.cfi_remember_state
 872              		.cfi_restore 8
 873              		.cfi_def_cfa 2, 16
 874 0480 13010101 		addi	sp,sp,16
 875              		.cfi_def_cfa_offset 0
 876 0484 67800000 		jr	ra
 877              	.L54:
 878              		.cfi_restore_state
 217:src/slabAllocator.cpp ****         cachep->slabs_full = slab->next;
 879              		.loc 1 217 9 is_stmt 1
 217:src/slabAllocator.cpp ****         cachep->slabs_full = slab->next;
 880              		.loc 1 217 15 is_stmt 0
 881 0488 83B78500 		ld	a5,8(a1)
 217:src/slabAllocator.cpp ****         cachep->slabs_full = slab->next;
 882              		.loc 1 217 26
 883 048c 23B00700 		sd	zero,0(a5)
 218:src/slabAllocator.cpp ****     }
 884              		.loc 1 218 9 is_stmt 1
 218:src/slabAllocator.cpp ****     }
 885              		.loc 1 218 36 is_stmt 0
 886 0490 83B78500 		ld	a5,8(a1)
 218:src/slabAllocator.cpp ****     }
 887              		.loc 1 218 28
 888 0494 233CF520 		sd	a5,536(a0)
 889 0498 6FF09FFC 		j	.L55
 890              		.cfi_endproc
 891              	.LFE16:
GAS LISTING /tmp/cc5xgKhq.s 			page 21


 893              		.align	2
 894              		.globl	_Z17removePartialSlabP12kmem_cache_sP6slab_s
 896              	_Z17removePartialSlabP12kmem_cache_sP6slab_s:
 897              	.LFB17:
 226:src/slabAllocator.cpp **** 
 227:src/slabAllocator.cpp **** void removePartialSlab(kmem_cache_t * cachep, slab_t* slab)
 228:src/slabAllocator.cpp **** {
 898              		.loc 1 228 1 is_stmt 1
 899              		.cfi_startproc
 900              	.LVL67:
 901 049c 130101FF 		addi	sp,sp,-16
 902              		.cfi_def_cfa_offset 16
 903 04a0 23348100 		sd	s0,8(sp)
 904              		.cfi_offset 8, -8
 905 04a4 13040101 		addi	s0,sp,16
 906              		.cfi_def_cfa 8, 0
 229:src/slabAllocator.cpp ****     if(slab->prev)
 907              		.loc 1 229 5
 908              		.loc 1 229 14 is_stmt 0
 909 04a8 83B70500 		ld	a5,0(a1)
 910              		.loc 1 229 5
 911 04ac 63800704 		beqz	a5,.L59
 230:src/slabAllocator.cpp ****     {
 231:src/slabAllocator.cpp ****         slab->prev->next = slab->next;
 912              		.loc 1 231 9 is_stmt 1
 913              		.loc 1 231 34 is_stmt 0
 914 04b0 03B78500 		ld	a4,8(a1)
 915              		.loc 1 231 26
 916 04b4 23B4E700 		sd	a4,8(a5)
 232:src/slabAllocator.cpp ****         slab->next->prev = slab->prev;
 917              		.loc 1 232 9 is_stmt 1
 918              		.loc 1 232 15 is_stmt 0
 919 04b8 83B78500 		ld	a5,8(a1)
 920              		.loc 1 232 34
 921 04bc 03B70500 		ld	a4,0(a1)
 922              		.loc 1 232 26
 923 04c0 23B0E700 		sd	a4,0(a5)
 924              	.L60:
 233:src/slabAllocator.cpp ****     }
 234:src/slabAllocator.cpp ****     else
 235:src/slabAllocator.cpp ****     {
 236:src/slabAllocator.cpp ****         slab->next->prev = nullptr;
 237:src/slabAllocator.cpp ****         cachep->slabs_partial = slab->next;
 238:src/slabAllocator.cpp ****     }
 239:src/slabAllocator.cpp ****     slab->next = cachep->slabs_empty;
 925              		.loc 1 239 5 is_stmt 1
 926              		.loc 1 239 26 is_stmt 0
 927 04c4 83370521 		ld	a5,528(a0)
 928              		.loc 1 239 16
 929 04c8 23B4F500 		sd	a5,8(a1)
 240:src/slabAllocator.cpp ****     slab->prev = nullptr;
 930              		.loc 1 240 5 is_stmt 1
 931              		.loc 1 240 16 is_stmt 0
 932 04cc 23B00500 		sd	zero,0(a1)
 241:src/slabAllocator.cpp ****     if(cachep->slabs_empty)
 933              		.loc 1 241 5 is_stmt 1
 934              		.loc 1 241 16 is_stmt 0
GAS LISTING /tmp/cc5xgKhq.s 			page 22


 935 04d0 83370521 		ld	a5,528(a0)
 936              		.loc 1 241 5
 937 04d4 63840700 		beqz	a5,.L61
 242:src/slabAllocator.cpp ****         cachep->slabs_empty->prev = slab;
 938              		.loc 1 242 9 is_stmt 1
 939              		.loc 1 242 35 is_stmt 0
 940 04d8 23B0B700 		sd	a1,0(a5)
 941              	.L61:
 243:src/slabAllocator.cpp ****     cachep->slabs_empty = slab;
 942              		.loc 1 243 5 is_stmt 1
 943              		.loc 1 243 25 is_stmt 0
 944 04dc 2338B520 		sd	a1,528(a0)
 244:src/slabAllocator.cpp **** }
 945              		.loc 1 244 1
 946 04e0 03348100 		ld	s0,8(sp)
 947              		.cfi_remember_state
 948              		.cfi_restore 8
 949              		.cfi_def_cfa 2, 16
 950 04e4 13010101 		addi	sp,sp,16
 951              		.cfi_def_cfa_offset 0
 952 04e8 67800000 		jr	ra
 953              	.L59:
 954              		.cfi_restore_state
 236:src/slabAllocator.cpp ****         cachep->slabs_partial = slab->next;
 955              		.loc 1 236 9 is_stmt 1
 236:src/slabAllocator.cpp ****         cachep->slabs_partial = slab->next;
 956              		.loc 1 236 15 is_stmt 0
 957 04ec 83B78500 		ld	a5,8(a1)
 236:src/slabAllocator.cpp ****         cachep->slabs_partial = slab->next;
 958              		.loc 1 236 26
 959 04f0 23B00700 		sd	zero,0(a5)
 237:src/slabAllocator.cpp ****     }
 960              		.loc 1 237 9 is_stmt 1
 237:src/slabAllocator.cpp ****     }
 961              		.loc 1 237 39 is_stmt 0
 962 04f4 83B78500 		ld	a5,8(a1)
 237:src/slabAllocator.cpp ****     }
 963              		.loc 1 237 31
 964 04f8 2330F522 		sd	a5,544(a0)
 965 04fc 6FF09FFC 		j	.L60
 966              		.cfi_endproc
 967              	.LFE17:
 969              		.section	.rodata.str1.8
 970              		.align	3
 971              	.LC1:
 972 0010 536C6162 		.string	"Slab address "
 972      20616464 
 972      72657373 
 972      2000
 973 001e 0000     		.align	3
 974              	.LC2:
 975 0020 0A00     		.string	"\n"
 976 0022 00000000 		.align	3
 976      0000
 977              	.LC3:
 978 0028 4E756D62 		.string	"Number of allocated objects "
 978      6572206F 
GAS LISTING /tmp/cc5xgKhq.s 			page 23


 978      6620616C 
 978      6C6F6361 
 978      74656420 
 979 0045 000000   		.align	3
 980              	.LC4:
 981 0048 4E756D62 		.string	"Number of objects "
 981      6572206F 
 981      66206F62 
 981      6A656374 
 981      732000
 982              		.text
 983              		.align	2
 984              		.globl	_Z13printSlabInfoP6slab_s
 986              	_Z13printSlabInfoP6slab_s:
 987              	.LFB18:
 245:src/slabAllocator.cpp **** 
 246:src/slabAllocator.cpp **** void printSlabInfo(slab_t* slab)
 247:src/slabAllocator.cpp **** {
 988              		.loc 1 247 1 is_stmt 1
 989              		.cfi_startproc
 990              	.LVL68:
 991 0500 130101FE 		addi	sp,sp,-32
 992              		.cfi_def_cfa_offset 32
 993 0504 233C1100 		sd	ra,24(sp)
 994 0508 23388100 		sd	s0,16(sp)
 995 050c 23349100 		sd	s1,8(sp)
 996              		.cfi_offset 1, -8
 997              		.cfi_offset 8, -16
 998              		.cfi_offset 9, -24
 999 0510 13040102 		addi	s0,sp,32
 1000              		.cfi_def_cfa 8, 0
 1001 0514 93040500 		mv	s1,a0
 248:src/slabAllocator.cpp ****     KConsole::trapPrintString("Slab address ");
 1002              		.loc 1 248 5
 1003              		.loc 1 248 30 is_stmt 0
 1004 0518 17050000 		lla	a0,.LC1
 1004      13050500 
 1005              	.LVL69:
 1006 0520 97000000 		call	_ZN8KConsole15trapPrintStringEPKc@plt
 1006      E7800000 
 1007              	.LVL70:
 249:src/slabAllocator.cpp ****     KConsole::trapPrintInt((size_t)slab);KConsole::trapPrintString("\n");
 1008              		.loc 1 249 5 is_stmt 1
 1009              		.loc 1 249 27 is_stmt 0
 1010 0528 13060000 		li	a2,0
 1011 052c 9305A000 		li	a1,10
 1012 0530 13850400 		mv	a0,s1
 1013 0534 97000000 		call	_ZN8KConsole12trapPrintIntEmii@plt
 1013      E7800000 
 1014              	.LVL71:
 1015              		.loc 1 249 42 is_stmt 1
 1016              		.loc 1 249 67 is_stmt 0
 1017 053c 17050000 		lla	a0,.LC2
 1017      13050500 
 1018 0544 97000000 		call	_ZN8KConsole15trapPrintStringEPKc@plt
 1018      E7800000 
 1019              	.LVL72:
GAS LISTING /tmp/cc5xgKhq.s 			page 24


 250:src/slabAllocator.cpp ****     KConsole::trapPrintString("Number of allocated objects ");
 1020              		.loc 1 250 5 is_stmt 1
 1021              		.loc 1 250 30 is_stmt 0
 1022 054c 17050000 		lla	a0,.LC3
 1022      13050500 
 1023 0554 97000000 		call	_ZN8KConsole15trapPrintStringEPKc@plt
 1023      E7800000 
 1024              	.LVL73:
 251:src/slabAllocator.cpp ****     KConsole::trapPrintInt(slab->numOfAllocatedObjects);KConsole::trapPrintString("\n");
 1025              		.loc 1 251 5 is_stmt 1
 1026              		.loc 1 251 27 is_stmt 0
 1027 055c 13060000 		li	a2,0
 1028 0560 9305A000 		li	a1,10
 1029 0564 03B50402 		ld	a0,32(s1)
 1030 0568 97000000 		call	_ZN8KConsole12trapPrintIntEmii@plt
 1030      E7800000 
 1031              	.LVL74:
 1032              		.loc 1 251 57 is_stmt 1
 1033              		.loc 1 251 82 is_stmt 0
 1034 0570 17050000 		lla	a0,.LC2
 1034      13050500 
 1035 0578 97000000 		call	_ZN8KConsole15trapPrintStringEPKc@plt
 1035      E7800000 
 1036              	.LVL75:
 252:src/slabAllocator.cpp ****     KConsole::trapPrintString("Number of objects ");
 1037              		.loc 1 252 5 is_stmt 1
 1038              		.loc 1 252 30 is_stmt 0
 1039 0580 17050000 		lla	a0,.LC4
 1039      13050500 
 1040 0588 97000000 		call	_ZN8KConsole15trapPrintStringEPKc@plt
 1040      E7800000 
 1041              	.LVL76:
 253:src/slabAllocator.cpp ****     KConsole::trapPrintInt(slab->numOfObjects);KConsole::trapPrintString("\n");
 1042              		.loc 1 253 5 is_stmt 1
 1043              		.loc 1 253 27 is_stmt 0
 1044 0590 13060000 		li	a2,0
 1045 0594 9305A000 		li	a1,10
 1046 0598 03B58401 		ld	a0,24(s1)
 1047 059c 97000000 		call	_ZN8KConsole12trapPrintIntEmii@plt
 1047      E7800000 
 1048              	.LVL77:
 1049              		.loc 1 253 48 is_stmt 1
 1050              		.loc 1 253 73 is_stmt 0
 1051 05a4 17050000 		lla	a0,.LC2
 1051      13050500 
 1052 05ac 97000000 		call	_ZN8KConsole15trapPrintStringEPKc@plt
 1052      E7800000 
 1053              	.LVL78:
 254:src/slabAllocator.cpp **** }
 1054              		.loc 1 254 1
 1055 05b4 83308101 		ld	ra,24(sp)
 1056              		.cfi_restore 1
 1057 05b8 03340101 		ld	s0,16(sp)
 1058              		.cfi_restore 8
 1059              		.cfi_def_cfa 2, 32
 1060 05bc 83348100 		ld	s1,8(sp)
 1061              		.cfi_restore 9
GAS LISTING /tmp/cc5xgKhq.s 			page 25


 1062              	.LVL79:
 1063 05c0 13010102 		addi	sp,sp,32
 1064              		.cfi_def_cfa_offset 0
 1065 05c4 67800000 		jr	ra
 1066              		.cfi_endproc
 1067              	.LFE18:
 1069              		.align	2
 1070              		.globl	_Z9kmem_initPvi
 1072              	_Z9kmem_initPvi:
 1073              	.LFB19:
 255:src/slabAllocator.cpp **** 
 256:src/slabAllocator.cpp **** //slab allocator public interface------------------------------------------------------------------
 257:src/slabAllocator.cpp **** void kmem_init(void *space, int block_num)
 258:src/slabAllocator.cpp **** {
 1074              		.loc 1 258 1 is_stmt 1
 1075              		.cfi_startproc
 1076              	.LVL80:
 1077 05c8 130101FF 		addi	sp,sp,-16
 1078              		.cfi_def_cfa_offset 16
 1079 05cc 23341100 		sd	ra,8(sp)
 1080 05d0 23308100 		sd	s0,0(sp)
 1081              		.cfi_offset 1, -8
 1082              		.cfi_offset 8, -16
 1083 05d4 13040101 		addi	s0,sp,16
 1084              		.cfi_def_cfa 8, 0
 259:src/slabAllocator.cpp ****     buddyAllocator* buddy = buddy_init(space, block_num);
 1085              		.loc 1 259 5
 1086              		.loc 1 259 39 is_stmt 0
 1087 05d8 97000000 		call	_Z10buddy_initPvm@plt
 1087      E7800000 
 1088              	.LVL81:
 260:src/slabAllocator.cpp ****     slabAllocator = slab_allocator_init(buddy);
 1089              		.loc 1 260 5 is_stmt 1
 1090              		.loc 1 260 40 is_stmt 0
 1091 05e0 97000000 		call	_Z19slab_allocator_initP14buddyAllocator
 1091      E7800000 
 1092              	.LVL82:
 1093              		.loc 1 260 19
 1094 05e8 97070000 		sd	a0,.LANCHOR0,a5
 1094      23B0A700 
 261:src/slabAllocator.cpp **** }
 1095              		.loc 1 261 1
 1096 05f0 83308100 		ld	ra,8(sp)
 1097              		.cfi_restore 1
 1098 05f4 03340100 		ld	s0,0(sp)
 1099              		.cfi_restore 8
 1100              		.cfi_def_cfa 2, 16
 1101 05f8 13010101 		addi	sp,sp,16
 1102              		.cfi_def_cfa_offset 0
 1103 05fc 67800000 		jr	ra
 1104              		.cfi_endproc
 1105              	.LFE19:
 1107              		.align	2
 1108              		.globl	_Z16kmem_cache_allocP12kmem_cache_s
 1110              	_Z16kmem_cache_allocP12kmem_cache_s:
 1111              	.LFB21:
 262:src/slabAllocator.cpp **** 
GAS LISTING /tmp/cc5xgKhq.s 			page 26


 263:src/slabAllocator.cpp **** kmem_cache_t *kmem_cache_create(const char *name, size_t size,
 264:src/slabAllocator.cpp ****                                 void (*ctor)(void *),
 265:src/slabAllocator.cpp ****                                 void (*dtor)(void *))
 266:src/slabAllocator.cpp **** {
 267:src/slabAllocator.cpp ****     kmem_cache_t* newCache = (kmem_cache_t*)kmem_cache_alloc(&slabAllocator->cacheOfCaches);
 268:src/slabAllocator.cpp ****     newCache->slabs_empty = nullptr;
 269:src/slabAllocator.cpp ****     newCache->slabs_partial = nullptr;
 270:src/slabAllocator.cpp ****     newCache->slabs_full = nullptr;
 271:src/slabAllocator.cpp ****     newCache->next = newCache->prev = nullptr;
 272:src/slabAllocator.cpp ****     newCache->dtor = dtor;
 273:src/slabAllocator.cpp ****     newCache->ctor = ctor;
 274:src/slabAllocator.cpp ****     strcpy(name, newCache->cacheName);
 275:src/slabAllocator.cpp ****     newCache->obj_size = size;
 276:src/slabAllocator.cpp ****     newCache->slab_size = getOptimalSlabSize(size);
 277:src/slabAllocator.cpp ****     return nullptr;
 278:src/slabAllocator.cpp **** }
 279:src/slabAllocator.cpp **** 
 280:src/slabAllocator.cpp **** void *kmem_cache_alloc(kmem_cache_t *cachep)
 281:src/slabAllocator.cpp **** {
 1112              		.loc 1 281 1 is_stmt 1
 1113              		.cfi_startproc
 1114              	.LVL83:
 1115 0600 130101FE 		addi	sp,sp,-32
 1116              		.cfi_def_cfa_offset 32
 1117 0604 233C1100 		sd	ra,24(sp)
 1118 0608 23388100 		sd	s0,16(sp)
 1119 060c 23349100 		sd	s1,8(sp)
 1120 0610 23302101 		sd	s2,0(sp)
 1121              		.cfi_offset 1, -8
 1122              		.cfi_offset 8, -16
 1123              		.cfi_offset 9, -24
 1124              		.cfi_offset 18, -32
 1125 0614 13040102 		addi	s0,sp,32
 1126              		.cfi_def_cfa 8, 0
 1127 0618 93040500 		mv	s1,a0
 282:src/slabAllocator.cpp ****     if(cachep->slabs_partial != nullptr)
 1128              		.loc 1 282 5
 1129              	.LBB13:
 1130              		.loc 1 282 16 is_stmt 0
 1131 061c 03350522 		ld	a0,544(a0)
 1132              	.LVL84:
 1133              		.loc 1 282 5
 1134 0620 631C0502 		bnez	a0,.L75
 1135              	.LBE13:
 283:src/slabAllocator.cpp ****     {
 284:src/slabAllocator.cpp ****         void* allocatedAddr = allocateObject(cachep->slabs_partial);
 285:src/slabAllocator.cpp ****         if(full(cachep->slabs_partial))
 286:src/slabAllocator.cpp ****             putPartialToFull(cachep);
 287:src/slabAllocator.cpp ****         return allocatedAddr;
 288:src/slabAllocator.cpp ****     }
 289:src/slabAllocator.cpp ****     else if(cachep->slabs_empty != nullptr)
 1136              		.loc 1 289 10 is_stmt 1
 1137              	.LBB20:
 1138              	.LBB14:
 1139              		.loc 1 289 21 is_stmt 0
 1140 0624 03B50421 		ld	a0,528(s1)
 1141              		.loc 1 289 10
GAS LISTING /tmp/cc5xgKhq.s 			page 27


 1142 0628 630C0506 		beqz	a0,.L71
 1143              	.LBB15:
 290:src/slabAllocator.cpp ****     {
 291:src/slabAllocator.cpp ****         void* allocatedAddr = allocateObject(cachep->slabs_empty);
 1144              		.loc 1 291 9 is_stmt 1
 1145              		.loc 1 291 45 is_stmt 0
 1146 062c 97000000 		call	_Z14allocateObjectP6slab_s
 1146      E7800000 
 1147              	.LVL85:
 1148 0634 13090500 		mv	s2,a0
 1149              	.LVL86:
 292:src/slabAllocator.cpp ****         if(!empty(cachep->slabs_empty))
 1150              		.loc 1 292 9 is_stmt 1
 1151              		.loc 1 292 18 is_stmt 0
 1152 0638 03B50421 		ld	a0,528(s1)
 1153              	.LVL87:
 1154 063c 97000000 		call	_Z5emptyP6slab_s
 1154      E7800000 
 1155              	.LVL88:
 1156              		.loc 1 292 9
 1157 0644 63180502 		bnez	a0,.L67
 293:src/slabAllocator.cpp ****             putEmptyToPartial(cachep);
 1158              		.loc 1 293 13 is_stmt 1
 1159              		.loc 1 293 30 is_stmt 0
 1160 0648 13850400 		mv	a0,s1
 1161 064c 97000000 		call	_Z17putEmptyToPartialP12kmem_cache_s
 1161      E7800000 
 1162              	.LVL89:
 294:src/slabAllocator.cpp ****         return allocatedAddr;
 1163              		.loc 1 294 9 is_stmt 1
 1164              		.loc 1 294 16 is_stmt 0
 1165 0654 6F000002 		j	.L67
 1166              	.LVL90:
 1167              	.L75:
 1168              	.LBE15:
 1169              	.LBE14:
 1170              	.LBB17:
 284:src/slabAllocator.cpp ****         if(full(cachep->slabs_partial))
 1171              		.loc 1 284 9 is_stmt 1
 284:src/slabAllocator.cpp ****         if(full(cachep->slabs_partial))
 1172              		.loc 1 284 45 is_stmt 0
 1173 0658 97000000 		call	_Z14allocateObjectP6slab_s
 1173      E7800000 
 1174              	.LVL91:
 1175 0660 13090500 		mv	s2,a0
 1176              	.LVL92:
 285:src/slabAllocator.cpp ****             putPartialToFull(cachep);
 1177              		.loc 1 285 9 is_stmt 1
 285:src/slabAllocator.cpp ****             putPartialToFull(cachep);
 1178              		.loc 1 285 16 is_stmt 0
 1179 0664 03B50422 		ld	a0,544(s1)
 1180              	.LVL93:
 1181 0668 97000000 		call	_Z4fullP6slab_s
 1181      E7800000 
 1182              	.LVL94:
 285:src/slabAllocator.cpp ****             putPartialToFull(cachep);
 1183              		.loc 1 285 9
GAS LISTING /tmp/cc5xgKhq.s 			page 28


 1184 0670 63100502 		bnez	a0,.L76
 1185              	.LVL95:
 1186              	.L67:
 1187              	.LBE17:
 1188              	.LBE20:
 295:src/slabAllocator.cpp ****     }
 296:src/slabAllocator.cpp ****     else
 297:src/slabAllocator.cpp ****     {
 298:src/slabAllocator.cpp ****         allocateSlab(cachep);
 299:src/slabAllocator.cpp ****         if(cachep->slabs_empty == nullptr)
 300:src/slabAllocator.cpp ****             return nullptr;
 301:src/slabAllocator.cpp ****         void* allocatedAddr = allocateObject(cachep->slabs_empty);
 302:src/slabAllocator.cpp ****         if(!empty(cachep->slabs_empty))
 303:src/slabAllocator.cpp ****             putEmptyToPartial(cachep);
 304:src/slabAllocator.cpp ****         return allocatedAddr;
 305:src/slabAllocator.cpp ****     }
 306:src/slabAllocator.cpp ****     return nullptr;
 307:src/slabAllocator.cpp **** }
 1189              		.loc 1 307 1
 1190 0674 13050900 		mv	a0,s2
 1191 0678 83308101 		ld	ra,24(sp)
 1192              		.cfi_remember_state
 1193              		.cfi_restore 1
 1194 067c 03340101 		ld	s0,16(sp)
 1195              		.cfi_restore 8
 1196              		.cfi_def_cfa 2, 32
 1197 0680 83348100 		ld	s1,8(sp)
 1198              		.cfi_restore 9
 1199              	.LVL96:
 1200 0684 03390100 		ld	s2,0(sp)
 1201              		.cfi_restore 18
 1202 0688 13010102 		addi	sp,sp,32
 1203              		.cfi_def_cfa_offset 0
 1204 068c 67800000 		jr	ra
 1205              	.LVL97:
 1206              	.L76:
 1207              		.cfi_restore_state
 1208              	.LBB21:
 1209              	.LBB18:
 286:src/slabAllocator.cpp ****         return allocatedAddr;
 1210              		.loc 1 286 13 is_stmt 1
 286:src/slabAllocator.cpp ****         return allocatedAddr;
 1211              		.loc 1 286 29 is_stmt 0
 1212 0690 13850400 		mv	a0,s1
 1213 0694 97000000 		call	_Z16putPartialToFullP12kmem_cache_s
 1213      E7800000 
 1214              	.LVL98:
 287:src/slabAllocator.cpp ****     }
 1215              		.loc 1 287 9 is_stmt 1
 287:src/slabAllocator.cpp ****     }
 1216              		.loc 1 287 16 is_stmt 0
 1217 069c 6FF09FFD 		j	.L67
 1218              	.LVL99:
 1219              	.L71:
 1220              	.LBE18:
 1221              	.LBB19:
 1222              	.LBB16:
GAS LISTING /tmp/cc5xgKhq.s 			page 29


 298:src/slabAllocator.cpp ****         if(cachep->slabs_empty == nullptr)
 1223              		.loc 1 298 9 is_stmt 1
 298:src/slabAllocator.cpp ****         if(cachep->slabs_empty == nullptr)
 1224              		.loc 1 298 21 is_stmt 0
 1225 06a0 13850400 		mv	a0,s1
 1226 06a4 97000000 		call	_Z12allocateSlabP12kmem_cache_s
 1226      E7800000 
 1227              	.LVL100:
 299:src/slabAllocator.cpp ****             return nullptr;
 1228              		.loc 1 299 9 is_stmt 1
 299:src/slabAllocator.cpp ****             return nullptr;
 1229              		.loc 1 299 20 is_stmt 0
 1230 06ac 03B90421 		ld	s2,528(s1)
 299:src/slabAllocator.cpp ****             return nullptr;
 1231              		.loc 1 299 9
 1232 06b0 E30209FC 		beqz	s2,.L67
 301:src/slabAllocator.cpp ****         if(!empty(cachep->slabs_empty))
 1233              		.loc 1 301 9 is_stmt 1
 301:src/slabAllocator.cpp ****         if(!empty(cachep->slabs_empty))
 1234              		.loc 1 301 45 is_stmt 0
 1235 06b4 13050900 		mv	a0,s2
 1236 06b8 97000000 		call	_Z14allocateObjectP6slab_s
 1236      E7800000 
 1237              	.LVL101:
 1238 06c0 13090500 		mv	s2,a0
 1239              	.LVL102:
 302:src/slabAllocator.cpp ****             putEmptyToPartial(cachep);
 1240              		.loc 1 302 9 is_stmt 1
 302:src/slabAllocator.cpp ****             putEmptyToPartial(cachep);
 1241              		.loc 1 302 18 is_stmt 0
 1242 06c4 03B50421 		ld	a0,528(s1)
 1243              	.LVL103:
 1244 06c8 97000000 		call	_Z5emptyP6slab_s
 1244      E7800000 
 1245              	.LVL104:
 302:src/slabAllocator.cpp ****             putEmptyToPartial(cachep);
 1246              		.loc 1 302 9
 1247 06d0 E31205FA 		bnez	a0,.L67
 303:src/slabAllocator.cpp ****         return allocatedAddr;
 1248              		.loc 1 303 13 is_stmt 1
 303:src/slabAllocator.cpp ****         return allocatedAddr;
 1249              		.loc 1 303 30 is_stmt 0
 1250 06d4 13850400 		mv	a0,s1
 1251 06d8 97000000 		call	_Z17putEmptyToPartialP12kmem_cache_s
 1251      E7800000 
 1252              	.LVL105:
 304:src/slabAllocator.cpp ****     }
 1253              		.loc 1 304 9 is_stmt 1
 304:src/slabAllocator.cpp ****     }
 1254              		.loc 1 304 16 is_stmt 0
 1255 06e0 6FF05FF9 		j	.L67
 1256              	.LBE16:
 1257              	.LBE19:
 1258              	.LBE21:
 1259              		.cfi_endproc
 1260              	.LFE21:
 1262              		.align	2
GAS LISTING /tmp/cc5xgKhq.s 			page 30


 1263              		.globl	_Z17kmem_cache_createPKcmPFvPvES3_
 1265              	_Z17kmem_cache_createPKcmPFvPvES3_:
 1266              	.LFB20:
 266:src/slabAllocator.cpp ****     kmem_cache_t* newCache = (kmem_cache_t*)kmem_cache_alloc(&slabAllocator->cacheOfCaches);
 1267              		.loc 1 266 1 is_stmt 1
 1268              		.cfi_startproc
 1269              	.LVL106:
 1270 06e4 130101FC 		addi	sp,sp,-64
 1271              		.cfi_def_cfa_offset 64
 1272 06e8 233C1102 		sd	ra,56(sp)
 1273 06ec 23388102 		sd	s0,48(sp)
 1274 06f0 23349102 		sd	s1,40(sp)
 1275 06f4 23302103 		sd	s2,32(sp)
 1276 06f8 233C3101 		sd	s3,24(sp)
 1277 06fc 23384101 		sd	s4,16(sp)
 1278 0700 23345101 		sd	s5,8(sp)
 1279              		.cfi_offset 1, -8
 1280              		.cfi_offset 8, -16
 1281              		.cfi_offset 9, -24
 1282              		.cfi_offset 18, -32
 1283              		.cfi_offset 19, -40
 1284              		.cfi_offset 20, -48
 1285              		.cfi_offset 21, -56
 1286 0704 13040104 		addi	s0,sp,64
 1287              		.cfi_def_cfa 8, 0
 1288 0708 93090500 		mv	s3,a0
 1289 070c 13890500 		mv	s2,a1
 1290 0710 130A0600 		mv	s4,a2
 1291 0714 938A0600 		mv	s5,a3
 267:src/slabAllocator.cpp ****     newCache->slabs_empty = nullptr;
 1292              		.loc 1 267 5
 267:src/slabAllocator.cpp ****     newCache->slabs_empty = nullptr;
 1293              		.loc 1 267 61 is_stmt 0
 1294 0718 17050000 		ld	a0,.LANCHOR0
 1294      03350500 
 1295              	.LVL107:
 1296 0720 13058507 		addi	a0,a0,120
 1297 0724 97000000 		call	_Z16kmem_cache_allocP12kmem_cache_s
 1297      E7800000 
 1298              	.LVL108:
 1299 072c 93040500 		mv	s1,a0
 1300              	.LVL109:
 268:src/slabAllocator.cpp ****     newCache->slabs_partial = nullptr;
 1301              		.loc 1 268 5 is_stmt 1
 268:src/slabAllocator.cpp ****     newCache->slabs_partial = nullptr;
 1302              		.loc 1 268 27 is_stmt 0
 1303 0730 23380520 		sd	zero,528(a0)
 269:src/slabAllocator.cpp ****     newCache->slabs_full = nullptr;
 1304              		.loc 1 269 5 is_stmt 1
 269:src/slabAllocator.cpp ****     newCache->slabs_full = nullptr;
 1305              		.loc 1 269 29 is_stmt 0
 1306 0734 23300522 		sd	zero,544(a0)
 270:src/slabAllocator.cpp ****     newCache->next = newCache->prev = nullptr;
 1307              		.loc 1 270 5 is_stmt 1
 270:src/slabAllocator.cpp ****     newCache->next = newCache->prev = nullptr;
 1308              		.loc 1 270 26 is_stmt 0
 1309 0738 233C0520 		sd	zero,536(a0)
GAS LISTING /tmp/cc5xgKhq.s 			page 31


 271:src/slabAllocator.cpp ****     newCache->dtor = dtor;
 1310              		.loc 1 271 5 is_stmt 1
 271:src/slabAllocator.cpp ****     newCache->dtor = dtor;
 1311              		.loc 1 271 37 is_stmt 0
 1312 073c 23340520 		sd	zero,520(a0)
 271:src/slabAllocator.cpp ****     newCache->dtor = dtor;
 1313              		.loc 1 271 20
 1314 0740 23300520 		sd	zero,512(a0)
 272:src/slabAllocator.cpp ****     newCache->ctor = ctor;
 1315              		.loc 1 272 5 is_stmt 1
 272:src/slabAllocator.cpp ****     newCache->ctor = ctor;
 1316              		.loc 1 272 20 is_stmt 0
 1317 0744 23305525 		sd	s5,576(a0)
 273:src/slabAllocator.cpp ****     strcpy(name, newCache->cacheName);
 1318              		.loc 1 273 5 is_stmt 1
 273:src/slabAllocator.cpp ****     strcpy(name, newCache->cacheName);
 1319              		.loc 1 273 20 is_stmt 0
 1320 0748 233C4523 		sd	s4,568(a0)
 274:src/slabAllocator.cpp ****     newCache->obj_size = size;
 1321              		.loc 1 274 5 is_stmt 1
 274:src/slabAllocator.cpp ****     newCache->obj_size = size;
 1322              		.loc 1 274 11 is_stmt 0
 1323 074c 93050500 		mv	a1,a0
 1324 0750 13850900 		mv	a0,s3
 1325 0754 97000000 		call	_Z6strcpyPKcPc
 1325      E7800000 
 1326              	.LVL110:
 275:src/slabAllocator.cpp ****     newCache->slab_size = getOptimalSlabSize(size);
 1327              		.loc 1 275 5 is_stmt 1
 275:src/slabAllocator.cpp ****     newCache->slab_size = getOptimalSlabSize(size);
 1328              		.loc 1 275 24 is_stmt 0
 1329 075c 23B82423 		sd	s2,560(s1)
 276:src/slabAllocator.cpp ****     return nullptr;
 1330              		.loc 1 276 5 is_stmt 1
 276:src/slabAllocator.cpp ****     return nullptr;
 1331              		.loc 1 276 45 is_stmt 0
 1332 0760 13050900 		mv	a0,s2
 1333 0764 97000000 		call	_Z18getOptimalSlabSizem
 1333      E7800000 
 1334              	.LVL111:
 276:src/slabAllocator.cpp ****     return nullptr;
 1335              		.loc 1 276 25
 1336 076c 23B4A422 		sd	a0,552(s1)
 277:src/slabAllocator.cpp **** }
 1337              		.loc 1 277 5 is_stmt 1
 278:src/slabAllocator.cpp **** 
 1338              		.loc 1 278 1 is_stmt 0
 1339 0770 13050000 		li	a0,0
 1340 0774 83308103 		ld	ra,56(sp)
 1341              		.cfi_restore 1
 1342 0778 03340103 		ld	s0,48(sp)
 1343              		.cfi_restore 8
 1344              		.cfi_def_cfa 2, 64
 1345 077c 83348102 		ld	s1,40(sp)
 1346              		.cfi_restore 9
 1347              	.LVL112:
 1348 0780 03390102 		ld	s2,32(sp)
GAS LISTING /tmp/cc5xgKhq.s 			page 32


 1349              		.cfi_restore 18
 1350              	.LVL113:
 1351 0784 83398101 		ld	s3,24(sp)
 1352              		.cfi_restore 19
 1353              	.LVL114:
 1354 0788 033A0101 		ld	s4,16(sp)
 1355              		.cfi_restore 20
 1356              	.LVL115:
 1357 078c 833A8100 		ld	s5,8(sp)
 1358              		.cfi_restore 21
 1359              	.LVL116:
 1360 0790 13010104 		addi	sp,sp,64
 1361              		.cfi_def_cfa_offset 0
 1362 0794 67800000 		jr	ra
 1363              		.cfi_endproc
 1364              	.LFE20:
 1366              		.align	2
 1367              		.globl	_Z15kmem_cache_freeP12kmem_cache_sPv
 1369              	_Z15kmem_cache_freeP12kmem_cache_sPv:
 1370              	.LFB22:
 308:src/slabAllocator.cpp **** 
 309:src/slabAllocator.cpp **** void kmem_cache_free(kmem_cache_t *cachep, void *objp)
 310:src/slabAllocator.cpp **** {
 1371              		.loc 1 310 1 is_stmt 1
 1372              		.cfi_startproc
 1373              	.LVL117:
 1374 0798 130101FD 		addi	sp,sp,-48
 1375              		.cfi_def_cfa_offset 48
 1376 079c 23341102 		sd	ra,40(sp)
 1377 07a0 23308102 		sd	s0,32(sp)
 1378 07a4 233C9100 		sd	s1,24(sp)
 1379 07a8 23382101 		sd	s2,16(sp)
 1380 07ac 23343101 		sd	s3,8(sp)
 1381              		.cfi_offset 1, -8
 1382              		.cfi_offset 8, -16
 1383              		.cfi_offset 9, -24
 1384              		.cfi_offset 18, -32
 1385              		.cfi_offset 19, -40
 1386 07b0 13040103 		addi	s0,sp,48
 1387              		.cfi_def_cfa 8, 0
 1388 07b4 93090500 		mv	s3,a0
 1389 07b8 13890500 		mv	s2,a1
 311:src/slabAllocator.cpp ****     slab_t* slab = findSlab(cachep, objp);
 1390              		.loc 1 311 5
 1391              		.loc 1 311 28 is_stmt 0
 1392 07bc 97000000 		call	_Z8findSlabP12kmem_cache_sPv
 1392      E7800000 
 1393              	.LVL118:
 312:src/slabAllocator.cpp ****     if(slab == nullptr) return;
 1394              		.loc 1 312 5 is_stmt 1
 1395 07c4 63080502 		beqz	a0,.L79
 1396 07c8 93040500 		mv	s1,a0
 313:src/slabAllocator.cpp **** 
 314:src/slabAllocator.cpp ****     int indexOfObject = ((size_t)objp - sizeof(slab_t) - (size_t)slab) / slab->owner->obj_size;
 1397              		.loc 1 314 5
 1398              		.loc 1 314 56 is_stmt 0
 1399 07cc B305A940 		sub	a1,s2,a0
GAS LISTING /tmp/cc5xgKhq.s 			page 33


 1400 07d0 938505FB 		addi	a1,a1,-80
 1401              		.loc 1 314 80
 1402 07d4 83370501 		ld	a5,16(a0)
 1403              		.loc 1 314 87
 1404 07d8 83B70723 		ld	a5,560(a5)
 1405              		.loc 1 314 72
 1406 07dc B3D5F502 		divu	a1,a1,a5
 1407              		.loc 1 314 9
 1408 07e0 9B850500 		sext.w	a1,a1
 1409              	.LVL119:
 315:src/slabAllocator.cpp ****     if((size_t)objp != (size_t)slab + sizeof(slab_t) + indexOfObject*slab->owner->obj_size) //addre
 1410              		.loc 1 315 5 is_stmt 1
 1411              		.loc 1 315 69 is_stmt 0
 1412 07e4 B387B702 		mul	a5,a5,a1
 1413              		.loc 1 315 54
 1414 07e8 B307F500 		add	a5,a0,a5
 1415 07ec 93870705 		addi	a5,a5,80
 1416              		.loc 1 315 5
 1417 07f0 6300F902 		beq	s2,a5,.L84
 1418              	.LVL120:
 1419              	.L79:
 316:src/slabAllocator.cpp ****         return;
 317:src/slabAllocator.cpp **** 
 318:src/slabAllocator.cpp ****     resetAllocatedIndex(slab, indexOfObject);
 319:src/slabAllocator.cpp ****     if(slab->numOfObjects == slab->numOfAllocatedObjects)
 320:src/slabAllocator.cpp ****         removeFullSlab(cachep, slab);
 321:src/slabAllocator.cpp ****     else if(slab->numOfAllocatedObjects == 1)
 322:src/slabAllocator.cpp ****         removePartialSlab(cachep, slab);
 323:src/slabAllocator.cpp ****     slab->numOfAllocatedObjects--;
 324:src/slabAllocator.cpp **** }
 1420              		.loc 1 324 1
 1421 07f4 83308102 		ld	ra,40(sp)
 1422              		.cfi_remember_state
 1423              		.cfi_restore 1
 1424 07f8 03340102 		ld	s0,32(sp)
 1425              		.cfi_restore 8
 1426              		.cfi_def_cfa 2, 48
 1427 07fc 83348101 		ld	s1,24(sp)
 1428              		.cfi_restore 9
 1429 0800 03390101 		ld	s2,16(sp)
 1430              		.cfi_restore 18
 1431              	.LVL121:
 1432 0804 83398100 		ld	s3,8(sp)
 1433              		.cfi_restore 19
 1434              	.LVL122:
 1435 0808 13010103 		addi	sp,sp,48
 1436              		.cfi_def_cfa_offset 0
 1437 080c 67800000 		jr	ra
 1438              	.LVL123:
 1439              	.L84:
 1440              		.cfi_restore_state
 318:src/slabAllocator.cpp ****     if(slab->numOfObjects == slab->numOfAllocatedObjects)
 1441              		.loc 1 318 5 is_stmt 1
 318:src/slabAllocator.cpp ****     if(slab->numOfObjects == slab->numOfAllocatedObjects)
 1442              		.loc 1 318 24 is_stmt 0
 1443 0810 97000000 		call	_Z19resetAllocatedIndexP6slab_si
 1443      E7800000 
GAS LISTING /tmp/cc5xgKhq.s 			page 34


 1444              	.LVL124:
 319:src/slabAllocator.cpp ****         removeFullSlab(cachep, slab);
 1445              		.loc 1 319 5 is_stmt 1
 319:src/slabAllocator.cpp ****         removeFullSlab(cachep, slab);
 1446              		.loc 1 319 14 is_stmt 0
 1447 0818 03B78401 		ld	a4,24(s1)
 319:src/slabAllocator.cpp ****         removeFullSlab(cachep, slab);
 1448              		.loc 1 319 36
 1449 081c 83B70402 		ld	a5,32(s1)
 319:src/slabAllocator.cpp ****         removeFullSlab(cachep, slab);
 1450              		.loc 1 319 5
 1451 0820 630EF700 		beq	a4,a5,.L85
 321:src/slabAllocator.cpp ****         removePartialSlab(cachep, slab);
 1452              		.loc 1 321 10 is_stmt 1
 1453 0824 13071000 		li	a4,1
 1454 0828 6384E702 		beq	a5,a4,.L86
 1455              	.L82:
 323:src/slabAllocator.cpp **** }
 1456              		.loc 1 323 5
 323:src/slabAllocator.cpp **** }
 1457              		.loc 1 323 11 is_stmt 0
 1458 082c 83B70402 		ld	a5,32(s1)
 323:src/slabAllocator.cpp **** }
 1459              		.loc 1 323 32
 1460 0830 9387F7FF 		addi	a5,a5,-1
 1461 0834 23B0F402 		sd	a5,32(s1)
 1462 0838 6FF0DFFB 		j	.L79
 1463              	.L85:
 320:src/slabAllocator.cpp ****     else if(slab->numOfAllocatedObjects == 1)
 1464              		.loc 1 320 9 is_stmt 1
 320:src/slabAllocator.cpp ****     else if(slab->numOfAllocatedObjects == 1)
 1465              		.loc 1 320 23 is_stmt 0
 1466 083c 93850400 		mv	a1,s1
 1467 0840 13850900 		mv	a0,s3
 1468 0844 97000000 		call	_Z14removeFullSlabP12kmem_cache_sP6slab_s
 1468      E7800000 
 1469              	.LVL125:
 1470 084c 6FF01FFE 		j	.L82
 1471              	.L86:
 322:src/slabAllocator.cpp ****     slab->numOfAllocatedObjects--;
 1472              		.loc 1 322 9 is_stmt 1
 322:src/slabAllocator.cpp ****     slab->numOfAllocatedObjects--;
 1473              		.loc 1 322 26 is_stmt 0
 1474 0850 93850400 		mv	a1,s1
 1475 0854 13850900 		mv	a0,s3
 1476 0858 97000000 		call	_Z17removePartialSlabP12kmem_cache_sP6slab_s
 1476      E7800000 
 1477              	.LVL126:
 1478 0860 6FF0DFFC 		j	.L82
 1479              		.cfi_endproc
 1480              	.LFE22:
 1482              		.section	.rodata.str1.8
 1483 005b 00000000 		.align	3
 1483      00
 1484              	.LC5:
 1485 0060 4B6D656D 		.string	"Kmem Cache Info-------------------\n"
 1485      20436163 
GAS LISTING /tmp/cc5xgKhq.s 			page 35


 1485      68652049 
 1485      6E666F2D 
 1485      2D2D2D2D 
 1486 0084 00000000 		.align	3
 1487              	.LC6:
 1488 0088 43616368 		.string	"Cache Name "
 1488      65204E61 
 1488      6D652000 
 1489 0094 00000000 		.align	3
 1490              	.LC7:
 1491 0098 43616368 		.string	"Cache slab size in blocks "
 1491      6520736C 
 1491      61622073 
 1491      697A6520 
 1491      696E2062 
 1492 00b3 00000000 		.align	3
 1492      00
 1493              	.LC8:
 1494 00b8 43616368 		.string	"Cache obj size in bytes "
 1494      65206F62 
 1494      6A207369 
 1494      7A652069 
 1494      6E206279 
 1495 00d1 00000000 		.align	3
 1495      000000
 1496              	.LC9:
 1497 00d8 536C6162 		.string	"Slabs info----\n"
 1497      7320696E 
 1497      666F2D2D 
 1497      2D2D0A00 
 1498              		.align	3
 1499              	.LC10:
 1500 00e8 46756C6C 		.string	"Full slabs\n"
 1500      20736C61 
 1500      62730A00 
 1501 00f4 00000000 		.align	3
 1502              	.LC11:
 1503 00f8 50617274 		.string	"Partial slabs\n"
 1503      69616C20 
 1503      736C6162 
 1503      730A00
 1504 0107 00       		.align	3
 1505              	.LC12:
 1506 0108 456D7074 		.string	"Empty slabs\n"
 1506      7920736C 
 1506      6162730A 
 1506      00
 1507              		.text
 1508              		.align	2
 1509              		.globl	_Z15kmem_cache_infoP12kmem_cache_s
 1511              	_Z15kmem_cache_infoP12kmem_cache_s:
 1512              	.LFB23:
 325:src/slabAllocator.cpp **** 
 326:src/slabAllocator.cpp **** //TODO
 327:src/slabAllocator.cpp **** //what needs to be printed
 328:src/slabAllocator.cpp **** void kmem_cache_info(kmem_cache_t *cachep)
 329:src/slabAllocator.cpp **** {
GAS LISTING /tmp/cc5xgKhq.s 			page 36


 1513              		.loc 1 329 1 is_stmt 1
 1514              		.cfi_startproc
 1515              	.LVL127:
 1516 0864 130101FE 		addi	sp,sp,-32
 1517              		.cfi_def_cfa_offset 32
 1518 0868 233C1100 		sd	ra,24(sp)
 1519 086c 23388100 		sd	s0,16(sp)
 1520 0870 23349100 		sd	s1,8(sp)
 1521 0874 23302101 		sd	s2,0(sp)
 1522              		.cfi_offset 1, -8
 1523              		.cfi_offset 8, -16
 1524              		.cfi_offset 9, -24
 1525              		.cfi_offset 18, -32
 1526 0878 13040102 		addi	s0,sp,32
 1527              		.cfi_def_cfa 8, 0
 1528 087c 13090500 		mv	s2,a0
 330:src/slabAllocator.cpp ****     KConsole::trapPrintString("Kmem Cache Info-------------------\n");
 1529              		.loc 1 330 5
 1530              		.loc 1 330 30 is_stmt 0
 1531 0880 17050000 		lla	a0,.LC5
 1531      13050500 
 1532              	.LVL128:
 1533 0888 97000000 		call	_ZN8KConsole15trapPrintStringEPKc@plt
 1533      E7800000 
 1534              	.LVL129:
 331:src/slabAllocator.cpp ****     KConsole::trapPrintString("Cache Name ");
 1535              		.loc 1 331 5 is_stmt 1
 1536              		.loc 1 331 30 is_stmt 0
 1537 0890 17050000 		lla	a0,.LC6
 1537      13050500 
 1538 0898 97000000 		call	_ZN8KConsole15trapPrintStringEPKc@plt
 1538      E7800000 
 1539              	.LVL130:
 332:src/slabAllocator.cpp ****     KConsole::trapPrintString(cachep->cacheName); KConsole::trapPrintString("\n");
 1540              		.loc 1 332 5 is_stmt 1
 1541              		.loc 1 332 30 is_stmt 0
 1542 08a0 13050900 		mv	a0,s2
 1543 08a4 97000000 		call	_ZN8KConsole15trapPrintStringEPKc@plt
 1543      E7800000 
 1544              	.LVL131:
 1545              		.loc 1 332 51 is_stmt 1
 1546              		.loc 1 332 76 is_stmt 0
 1547 08ac 17050000 		lla	a0,.LC2
 1547      13050500 
 1548 08b4 97000000 		call	_ZN8KConsole15trapPrintStringEPKc@plt
 1548      E7800000 
 1549              	.LVL132:
 333:src/slabAllocator.cpp ****     KConsole::trapPrintString("Cache slab size in blocks ");
 1550              		.loc 1 333 5 is_stmt 1
 1551              		.loc 1 333 30 is_stmt 0
 1552 08bc 17050000 		lla	a0,.LC7
 1552      13050500 
 1553 08c4 97000000 		call	_ZN8KConsole15trapPrintStringEPKc@plt
 1553      E7800000 
 1554              	.LVL133:
 334:src/slabAllocator.cpp ****     KConsole::trapPrintInt(cachep->slab_size); KConsole::trapPrintString("\n");
 1555              		.loc 1 334 5 is_stmt 1
GAS LISTING /tmp/cc5xgKhq.s 			page 37


 1556              		.loc 1 334 27 is_stmt 0
 1557 08cc 13060000 		li	a2,0
 1558 08d0 9305A000 		li	a1,10
 1559 08d4 03358922 		ld	a0,552(s2)
 1560 08d8 97000000 		call	_ZN8KConsole12trapPrintIntEmii@plt
 1560      E7800000 
 1561              	.LVL134:
 1562              		.loc 1 334 48 is_stmt 1
 1563              		.loc 1 334 73 is_stmt 0
 1564 08e0 17050000 		lla	a0,.LC2
 1564      13050500 
 1565 08e8 97000000 		call	_ZN8KConsole15trapPrintStringEPKc@plt
 1565      E7800000 
 1566              	.LVL135:
 335:src/slabAllocator.cpp ****     KConsole::trapPrintString("Cache obj size in bytes ");
 1567              		.loc 1 335 5 is_stmt 1
 1568              		.loc 1 335 30 is_stmt 0
 1569 08f0 17050000 		lla	a0,.LC8
 1569      13050500 
 1570 08f8 97000000 		call	_ZN8KConsole15trapPrintStringEPKc@plt
 1570      E7800000 
 1571              	.LVL136:
 336:src/slabAllocator.cpp ****     KConsole::trapPrintInt(cachep->obj_size); KConsole::trapPrintString("\n");
 1572              		.loc 1 336 5 is_stmt 1
 1573              		.loc 1 336 27 is_stmt 0
 1574 0900 13060000 		li	a2,0
 1575 0904 9305A000 		li	a1,10
 1576 0908 03350923 		ld	a0,560(s2)
 1577 090c 97000000 		call	_ZN8KConsole12trapPrintIntEmii@plt
 1577      E7800000 
 1578              	.LVL137:
 1579              		.loc 1 336 47 is_stmt 1
 1580              		.loc 1 336 72 is_stmt 0
 1581 0914 17050000 		lla	a0,.LC2
 1581      13050500 
 1582 091c 97000000 		call	_ZN8KConsole15trapPrintStringEPKc@plt
 1582      E7800000 
 1583              	.LVL138:
 337:src/slabAllocator.cpp ****     KConsole::trapPrintString("Slabs info----\n");
 1584              		.loc 1 337 5 is_stmt 1
 1585              		.loc 1 337 30 is_stmt 0
 1586 0924 17050000 		lla	a0,.LC9
 1586      13050500 
 1587 092c 97000000 		call	_ZN8KConsole15trapPrintStringEPKc@plt
 1587      E7800000 
 1588              	.LVL139:
 338:src/slabAllocator.cpp **** 
 339:src/slabAllocator.cpp ****     KConsole::trapPrintString("Full slabs\n");
 1589              		.loc 1 339 5 is_stmt 1
 1590              		.loc 1 339 30 is_stmt 0
 1591 0934 17050000 		lla	a0,.LC10
 1591      13050500 
 1592 093c 97000000 		call	_ZN8KConsole15trapPrintStringEPKc@plt
 1592      E7800000 
 1593              	.LVL140:
 340:src/slabAllocator.cpp ****     slab_t* slab = cachep->slabs_full;
 1594              		.loc 1 340 5 is_stmt 1
GAS LISTING /tmp/cc5xgKhq.s 			page 38


 1595              		.loc 1 340 13 is_stmt 0
 1596 0944 83348921 		ld	s1,536(s2)
 1597              	.LVL141:
 1598              	.L89:
 341:src/slabAllocator.cpp ****     while(slab != nullptr)
 1599              		.loc 1 341 5 is_stmt 1
 1600              		.loc 1 341 16
 1601 0948 638C0400 		beqz	s1,.L88
 342:src/slabAllocator.cpp ****     {
 343:src/slabAllocator.cpp ****         printSlabInfo(slab);
 1602              		.loc 1 343 9
 1603              		.loc 1 343 22 is_stmt 0
 1604 094c 13850400 		mv	a0,s1
 1605 0950 97000000 		call	_Z13printSlabInfoP6slab_s
 1605      E7800000 
 1606              	.LVL142:
 344:src/slabAllocator.cpp ****         slab = slab->next;
 1607              		.loc 1 344 9 is_stmt 1
 1608              		.loc 1 344 14 is_stmt 0
 1609 0958 83B48400 		ld	s1,8(s1)
 1610              	.LVL143:
 341:src/slabAllocator.cpp ****     while(slab != nullptr)
 1611              		.loc 1 341 5
 1612 095c 6FF0DFFE 		j	.L89
 1613              	.L88:
 345:src/slabAllocator.cpp ****     }
 346:src/slabAllocator.cpp **** 
 347:src/slabAllocator.cpp ****     KConsole::trapPrintString("Partial slabs\n");
 1614              		.loc 1 347 5 is_stmt 1
 1615              		.loc 1 347 30 is_stmt 0
 1616 0960 17050000 		lla	a0,.LC11
 1616      13050500 
 1617 0968 97000000 		call	_ZN8KConsole15trapPrintStringEPKc@plt
 1617      E7800000 
 1618              	.LVL144:
 348:src/slabAllocator.cpp ****     slab = cachep->slabs_partial;
 1619              		.loc 1 348 5 is_stmt 1
 1620              		.loc 1 348 10 is_stmt 0
 1621 0970 83340922 		ld	s1,544(s2)
 1622              	.LVL145:
 1623              	.L91:
 349:src/slabAllocator.cpp ****     while(slab != nullptr)
 1624              		.loc 1 349 5 is_stmt 1
 1625              		.loc 1 349 16
 1626 0974 638C0400 		beqz	s1,.L90
 350:src/slabAllocator.cpp ****     {
 351:src/slabAllocator.cpp ****         printSlabInfo(slab);
 1627              		.loc 1 351 9
 1628              		.loc 1 351 22 is_stmt 0
 1629 0978 13850400 		mv	a0,s1
 1630 097c 97000000 		call	_Z13printSlabInfoP6slab_s
 1630      E7800000 
 1631              	.LVL146:
 352:src/slabAllocator.cpp ****         slab = slab->next;
 1632              		.loc 1 352 9 is_stmt 1
 1633              		.loc 1 352 14 is_stmt 0
 1634 0984 83B48400 		ld	s1,8(s1)
GAS LISTING /tmp/cc5xgKhq.s 			page 39


 1635              	.LVL147:
 349:src/slabAllocator.cpp ****     while(slab != nullptr)
 1636              		.loc 1 349 5
 1637 0988 6FF0DFFE 		j	.L91
 1638              	.L90:
 353:src/slabAllocator.cpp ****     }
 354:src/slabAllocator.cpp **** 
 355:src/slabAllocator.cpp ****     KConsole::trapPrintString("Empty slabs\n");
 1639              		.loc 1 355 5 is_stmt 1
 1640              		.loc 1 355 30 is_stmt 0
 1641 098c 17050000 		lla	a0,.LC12
 1641      13050500 
 1642 0994 97000000 		call	_ZN8KConsole15trapPrintStringEPKc@plt
 1642      E7800000 
 1643              	.LVL148:
 356:src/slabAllocator.cpp ****     slab = cachep->slabs_empty;
 1644              		.loc 1 356 5 is_stmt 1
 1645              		.loc 1 356 10 is_stmt 0
 1646 099c 83340921 		ld	s1,528(s2)
 1647              	.LVL149:
 1648              	.L93:
 357:src/slabAllocator.cpp ****     while(slab != nullptr)
 1649              		.loc 1 357 5 is_stmt 1
 1650              		.loc 1 357 16
 1651 09a0 638C0400 		beqz	s1,.L87
 358:src/slabAllocator.cpp ****     {
 359:src/slabAllocator.cpp ****         printSlabInfo(slab);
 1652              		.loc 1 359 9
 1653              		.loc 1 359 22 is_stmt 0
 1654 09a4 13850400 		mv	a0,s1
 1655 09a8 97000000 		call	_Z13printSlabInfoP6slab_s
 1655      E7800000 
 1656              	.LVL150:
 360:src/slabAllocator.cpp ****         slab = slab->next;
 1657              		.loc 1 360 9 is_stmt 1
 1658              		.loc 1 360 14 is_stmt 0
 1659 09b0 83B48400 		ld	s1,8(s1)
 1660              	.LVL151:
 357:src/slabAllocator.cpp ****     while(slab != nullptr)
 1661              		.loc 1 357 5
 1662 09b4 6FF0DFFE 		j	.L93
 1663              	.L87:
 361:src/slabAllocator.cpp ****     }
 362:src/slabAllocator.cpp **** }
 1664              		.loc 1 362 1
 1665 09b8 83308101 		ld	ra,24(sp)
 1666              		.cfi_restore 1
 1667 09bc 03340101 		ld	s0,16(sp)
 1668              		.cfi_restore 8
 1669              		.cfi_def_cfa 2, 32
 1670 09c0 83348100 		ld	s1,8(sp)
 1671              		.cfi_restore 9
 1672              	.LVL152:
 1673 09c4 03390100 		ld	s2,0(sp)
 1674              		.cfi_restore 18
 1675              	.LVL153:
 1676 09c8 13010102 		addi	sp,sp,32
GAS LISTING /tmp/cc5xgKhq.s 			page 40


 1677              		.cfi_def_cfa_offset 0
 1678 09cc 67800000 		jr	ra
 1679              		.cfi_endproc
 1680              	.LFE23:
 1682              		.bss
 1683              		.align	3
 1684              		.set	.LANCHOR0,. + 0
 1687              	_ZL13slabAllocator:
 1688 0000 00000000 		.zero	8
 1688      00000000 
 1689              		.text
 1690              	.Letext0:
 1691              		.file 2 "src/../h/../lib/hw.h"
 1692              		.file 3 "src/../h/slabAllocator.hpp"
 1693              		.file 4 "src/../h/buddyAllocator.hpp"
 1694              		.file 5 "src/../h/PCB.hpp"
 1695              		.file 6 "src/../h/KSemaphore.hpp"
 1696              		.file 7 "src/../h/KConsole.hpp"
GAS LISTING /tmp/cc5xgKhq.s 			page 41


DEFINED SYMBOLS
                            *ABS*:0000000000000000 slabAllocator.cpp
     /tmp/cc5xgKhq.s:9      .text:0000000000000000 _Z6strcpyPKcPc
     /tmp/cc5xgKhq.s:13     .text:0000000000000000 .L0 
     /tmp/cc5xgKhq.s:15     .text:0000000000000000 .L0 
     /tmp/cc5xgKhq.s:16     .text:0000000000000004 .L0 
     /tmp/cc5xgKhq.s:18     .text:0000000000000008 .L0 
     /tmp/cc5xgKhq.s:20     .text:000000000000000c .L0 
     /tmp/cc5xgKhq.s:23     .text:000000000000000c .L0 
     /tmp/cc5xgKhq.s:24     .text:000000000000000c .L0 
     /tmp/cc5xgKhq.s:25     .text:000000000000000c .L0 
     /tmp/cc5xgKhq.s:27     .text:0000000000000010 .L0 
     /tmp/cc5xgKhq.s:29     .text:0000000000000014 .L0 
     /tmp/cc5xgKhq.s:30     .text:0000000000000014 .L0 
     /tmp/cc5xgKhq.s:32     .text:0000000000000018 .L0 
     /tmp/cc5xgKhq.s:33     .text:0000000000000018 .L0 
     /tmp/cc5xgKhq.s:36     .text:000000000000001c .L0 
     /tmp/cc5xgKhq.s:39     .text:0000000000000020 .L0 
     /tmp/cc5xgKhq.s:40     .text:0000000000000024 .L0 
     /tmp/cc5xgKhq.s:41     .text:0000000000000024 .L0 
     /tmp/cc5xgKhq.s:43     .text:0000000000000028 .L0 
     /tmp/cc5xgKhq.s:45     .text:000000000000002c .L0 
     /tmp/cc5xgKhq.s:56     .text:000000000000002c _Z19slab_allocator_initP14buddyAllocator
     /tmp/cc5xgKhq.s:59     .text:000000000000002c .L0 
     /tmp/cc5xgKhq.s:61     .text:000000000000002c .L0 
     /tmp/cc5xgKhq.s:62     .text:0000000000000030 .L0 
     /tmp/cc5xgKhq.s:67     .text:0000000000000040 .L0 
     /tmp/cc5xgKhq.s:68     .text:0000000000000040 .L0 
     /tmp/cc5xgKhq.s:69     .text:0000000000000040 .L0 
     /tmp/cc5xgKhq.s:70     .text:0000000000000040 .L0 
     /tmp/cc5xgKhq.s:72     .text:0000000000000044 .L0 
     /tmp/cc5xgKhq.s:75     .text:0000000000000048 .L0 
     /tmp/cc5xgKhq.s:76     .text:0000000000000048 .L0 
     /tmp/cc5xgKhq.s:79     .text:000000000000004c .L0 
     /tmp/cc5xgKhq.s:80     .text:000000000000004c .L0 
     /tmp/cc5xgKhq.s:82     .text:0000000000000050 .L0 
     /tmp/cc5xgKhq.s:83     .text:0000000000000050 .L0 
     /tmp/cc5xgKhq.s:87     .text:0000000000000054 .L0 
     /tmp/cc5xgKhq.s:88     .text:0000000000000054 .L0 
     /tmp/cc5xgKhq.s:93     .text:000000000000005c .L0 
     /tmp/cc5xgKhq.s:94     .text:000000000000005c .L0 
     /tmp/cc5xgKhq.s:99     .text:000000000000006c .L0 
     /tmp/cc5xgKhq.s:103    .text:0000000000000070 .L0 
     /tmp/cc5xgKhq.s:107    .text:0000000000000078 .L0 
     /tmp/cc5xgKhq.s:108    .text:0000000000000078 .L0 
     /tmp/cc5xgKhq.s:113    .text:000000000000008c .L0 
     /tmp/cc5xgKhq.s:114    .text:000000000000008c .L0 
     /tmp/cc5xgKhq.s:116    .text:0000000000000090 .L0 
     /tmp/cc5xgKhq.s:117    .text:0000000000000090 .L0 
     /tmp/cc5xgKhq.s:119    .text:0000000000000094 .L0 
     /tmp/cc5xgKhq.s:120    .text:0000000000000094 .L0 
     /tmp/cc5xgKhq.s:122    .text:0000000000000098 .L0 
     /tmp/cc5xgKhq.s:123    .text:0000000000000098 .L0 
     /tmp/cc5xgKhq.s:125    .text:000000000000009c .L0 
     /tmp/cc5xgKhq.s:126    .text:000000000000009c .L0 
     /tmp/cc5xgKhq.s:128    .text:00000000000000a0 .L0 
     /tmp/cc5xgKhq.s:129    .text:00000000000000a0 .L0 
GAS LISTING /tmp/cc5xgKhq.s 			page 42


     /tmp/cc5xgKhq.s:131    .text:00000000000000a4 .L0 
     /tmp/cc5xgKhq.s:132    .text:00000000000000a4 .L0 
     /tmp/cc5xgKhq.s:134    .text:00000000000000a8 .L0 
     /tmp/cc5xgKhq.s:135    .text:00000000000000a8 .L0 
     /tmp/cc5xgKhq.s:138    .text:00000000000000b0 .L0 
     /tmp/cc5xgKhq.s:139    .text:00000000000000b0 .L0 
     /tmp/cc5xgKhq.s:142    .text:00000000000000b8 .L0 
     /tmp/cc5xgKhq.s:143    .text:00000000000000b8 .L0 
     /tmp/cc5xgKhq.s:145    .text:00000000000000c0 .L0 
     /tmp/cc5xgKhq.s:147    .text:00000000000000c4 .L0 
     /tmp/cc5xgKhq.s:148    .text:00000000000000c4 .L0 
     /tmp/cc5xgKhq.s:150    .text:00000000000000c8 .L0 
     /tmp/cc5xgKhq.s:153    .text:00000000000000cc .L0 
     /tmp/cc5xgKhq.s:156    .text:00000000000000d0 .L0 
     /tmp/cc5xgKhq.s:158    .text:00000000000000d4 .L0 
     /tmp/cc5xgKhq.s:164    .text:00000000000000d4 _Z14allocateObjectP6slab_s
     /tmp/cc5xgKhq.s:167    .text:00000000000000d4 .L0 
     /tmp/cc5xgKhq.s:169    .text:00000000000000d4 .L0 
     /tmp/cc5xgKhq.s:170    .text:00000000000000d8 .L0 
     /tmp/cc5xgKhq.s:172    .text:00000000000000dc .L0 
     /tmp/cc5xgKhq.s:174    .text:00000000000000e0 .L0 
     /tmp/cc5xgKhq.s:178    .text:00000000000000e4 .L0 
     /tmp/cc5xgKhq.s:179    .text:00000000000000e4 .L0 
     /tmp/cc5xgKhq.s:181    .text:00000000000000e4 .L0 
     /tmp/cc5xgKhq.s:182    .text:00000000000000e4 .L0 
     /tmp/cc5xgKhq.s:186    .text:00000000000000e8 .L0 
     /tmp/cc5xgKhq.s:187    .text:00000000000000e8 .L0 
     /tmp/cc5xgKhq.s:189    .text:00000000000000ec .L0 
     /tmp/cc5xgKhq.s:192    .text:00000000000000f0 .L0 
     /tmp/cc5xgKhq.s:193    .text:00000000000000f0 .L0 
     /tmp/cc5xgKhq.s:195    .text:00000000000000f4 .L0 
     /tmp/cc5xgKhq.s:199    .text:00000000000000fc .L0 
     /tmp/cc5xgKhq.s:200    .text:00000000000000fc .L0 
     /tmp/cc5xgKhq.s:202    .text:0000000000000100 .L0 
     /tmp/cc5xgKhq.s:205    .text:0000000000000108 .L0 
     /tmp/cc5xgKhq.s:207    .text:000000000000010c .L0 
     /tmp/cc5xgKhq.s:210    .text:0000000000000110 .L0 
     /tmp/cc5xgKhq.s:216    .text:0000000000000118 .L0 
     /tmp/cc5xgKhq.s:217    .text:0000000000000118 .L0 
     /tmp/cc5xgKhq.s:220    .text:000000000000011c .L0 
     /tmp/cc5xgKhq.s:222    .text:0000000000000120 .L0 
     /tmp/cc5xgKhq.s:224    .text:0000000000000124 .L0 
     /tmp/cc5xgKhq.s:226    .text:0000000000000128 .L0 
     /tmp/cc5xgKhq.s:230    .text:0000000000000130 .L0 
     /tmp/cc5xgKhq.s:231    .text:0000000000000130 .L0 
     /tmp/cc5xgKhq.s:234    .text:0000000000000134 .L0 
     /tmp/cc5xgKhq.s:240    .text:0000000000000138 .L0 
     /tmp/cc5xgKhq.s:243    .text:000000000000013c .L0 
     /tmp/cc5xgKhq.s:247    .text:0000000000000140 .L0 
     /tmp/cc5xgKhq.s:249    .text:0000000000000144 .L0 
     /tmp/cc5xgKhq.s:250    .text:0000000000000144 .L0 
     /tmp/cc5xgKhq.s:256    .text:0000000000000154 .L0 
     /tmp/cc5xgKhq.s:258    .text:0000000000000158 .L0 
     /tmp/cc5xgKhq.s:260    .text:000000000000015c .L0 
     /tmp/cc5xgKhq.s:263    .text:0000000000000164 .L0 
     /tmp/cc5xgKhq.s:266    .text:000000000000016c .L0 
     /tmp/cc5xgKhq.s:268    .text:0000000000000170 .L0 
GAS LISTING /tmp/cc5xgKhq.s 			page 43


     /tmp/cc5xgKhq.s:270    .text:0000000000000174 .L0 
     /tmp/cc5xgKhq.s:271    .text:0000000000000174 .L0 
     /tmp/cc5xgKhq.s:273    .text:0000000000000178 .L0 
     /tmp/cc5xgKhq.s:277    .text:0000000000000180 .L0 
     /tmp/cc5xgKhq.s:278    .text:0000000000000180 .L0 
     /tmp/cc5xgKhq.s:279    .text:0000000000000184 .L0 
     /tmp/cc5xgKhq.s:280    .text:0000000000000184 .L0 
     /tmp/cc5xgKhq.s:282    .text:0000000000000188 .L0 
     /tmp/cc5xgKhq.s:284    .text:000000000000018c .L0 
     /tmp/cc5xgKhq.s:290    .text:000000000000018c _Z4fullP6slab_s
     /tmp/cc5xgKhq.s:293    .text:000000000000018c .L0 
     /tmp/cc5xgKhq.s:295    .text:000000000000018c .L0 
     /tmp/cc5xgKhq.s:296    .text:0000000000000190 .L0 
     /tmp/cc5xgKhq.s:298    .text:0000000000000194 .L0 
     /tmp/cc5xgKhq.s:300    .text:0000000000000198 .L0 
     /tmp/cc5xgKhq.s:302    .text:0000000000000198 .L0 
     /tmp/cc5xgKhq.s:303    .text:0000000000000198 .L0 
     /tmp/cc5xgKhq.s:305    .text:000000000000019c .L0 
     /tmp/cc5xgKhq.s:309    .text:00000000000001a4 .L0 
     /tmp/cc5xgKhq.s:311    .text:00000000000001ac .L0 
     /tmp/cc5xgKhq.s:312    .text:00000000000001ac .L0 
     /tmp/cc5xgKhq.s:314    .text:00000000000001b0 .L0 
     /tmp/cc5xgKhq.s:316    .text:00000000000001b4 .L0 
     /tmp/cc5xgKhq.s:322    .text:00000000000001b4 _Z5emptyP6slab_s
     /tmp/cc5xgKhq.s:325    .text:00000000000001b4 .L0 
     /tmp/cc5xgKhq.s:327    .text:00000000000001b4 .L0 
     /tmp/cc5xgKhq.s:328    .text:00000000000001b8 .L0 
     /tmp/cc5xgKhq.s:330    .text:00000000000001bc .L0 
     /tmp/cc5xgKhq.s:332    .text:00000000000001c0 .L0 
     /tmp/cc5xgKhq.s:334    .text:00000000000001c0 .L0 
     /tmp/cc5xgKhq.s:335    .text:00000000000001c0 .L0 
     /tmp/cc5xgKhq.s:338    .text:00000000000001c4 .L0 
     /tmp/cc5xgKhq.s:340    .text:00000000000001cc .L0 
     /tmp/cc5xgKhq.s:341    .text:00000000000001cc .L0 
     /tmp/cc5xgKhq.s:343    .text:00000000000001d0 .L0 
     /tmp/cc5xgKhq.s:345    .text:00000000000001d4 .L0 
     /tmp/cc5xgKhq.s:351    .text:00000000000001d4 _Z16putPartialToFullP12kmem_cache_s
     /tmp/cc5xgKhq.s:354    .text:00000000000001d4 .L0 
     /tmp/cc5xgKhq.s:356    .text:00000000000001d4 .L0 
     /tmp/cc5xgKhq.s:357    .text:00000000000001d8 .L0 
     /tmp/cc5xgKhq.s:359    .text:00000000000001dc .L0 
     /tmp/cc5xgKhq.s:361    .text:00000000000001e0 .L0 
     /tmp/cc5xgKhq.s:363    .text:00000000000001e0 .L0 
     /tmp/cc5xgKhq.s:364    .text:00000000000001e0 .L0 
     /tmp/cc5xgKhq.s:367    .text:00000000000001e4 .L0 
     /tmp/cc5xgKhq.s:368    .text:00000000000001e4 .L0 
     /tmp/cc5xgKhq.s:370    .text:00000000000001e8 .L0 
     /tmp/cc5xgKhq.s:372    .text:00000000000001ec .L0 
     /tmp/cc5xgKhq.s:374    .text:00000000000001f0 .L0 
     /tmp/cc5xgKhq.s:375    .text:00000000000001f0 .L0 
     /tmp/cc5xgKhq.s:378    .text:00000000000001f4 .L0 
     /tmp/cc5xgKhq.s:379    .text:00000000000001f4 .L0 
     /tmp/cc5xgKhq.s:381    .text:00000000000001f8 .L0 
     /tmp/cc5xgKhq.s:383    .text:00000000000001fc .L0 
     /tmp/cc5xgKhq.s:384    .text:00000000000001fc .L0 
     /tmp/cc5xgKhq.s:386    .text:0000000000000200 .L0 
     /tmp/cc5xgKhq.s:388    .text:0000000000000204 .L0 
GAS LISTING /tmp/cc5xgKhq.s 			page 44


     /tmp/cc5xgKhq.s:389    .text:0000000000000204 .L0 
     /tmp/cc5xgKhq.s:392    .text:0000000000000208 .L0 
     /tmp/cc5xgKhq.s:393    .text:0000000000000208 .L0 
     /tmp/cc5xgKhq.s:395    .text:000000000000020c .L0 
     /tmp/cc5xgKhq.s:396    .text:000000000000020c .L0 
     /tmp/cc5xgKhq.s:398    .text:0000000000000210 .L0 
     /tmp/cc5xgKhq.s:399    .text:0000000000000214 .L0 
     /tmp/cc5xgKhq.s:400    .text:0000000000000214 .L0 
     /tmp/cc5xgKhq.s:402    .text:0000000000000218 .L0 
     /tmp/cc5xgKhq.s:404    .text:000000000000021c .L0 
     /tmp/cc5xgKhq.s:410    .text:000000000000021c _Z17putEmptyToPartialP12kmem_cache_s
     /tmp/cc5xgKhq.s:413    .text:000000000000021c .L0 
     /tmp/cc5xgKhq.s:415    .text:000000000000021c .L0 
     /tmp/cc5xgKhq.s:416    .text:0000000000000220 .L0 
     /tmp/cc5xgKhq.s:418    .text:0000000000000224 .L0 
     /tmp/cc5xgKhq.s:420    .text:0000000000000228 .L0 
     /tmp/cc5xgKhq.s:422    .text:0000000000000228 .L0 
     /tmp/cc5xgKhq.s:423    .text:0000000000000228 .L0 
     /tmp/cc5xgKhq.s:426    .text:000000000000022c .L0 
     /tmp/cc5xgKhq.s:427    .text:000000000000022c .L0 
     /tmp/cc5xgKhq.s:429    .text:0000000000000230 .L0 
     /tmp/cc5xgKhq.s:431    .text:0000000000000234 .L0 
     /tmp/cc5xgKhq.s:433    .text:0000000000000238 .L0 
     /tmp/cc5xgKhq.s:434    .text:0000000000000238 .L0 
     /tmp/cc5xgKhq.s:437    .text:000000000000023c .L0 
     /tmp/cc5xgKhq.s:438    .text:000000000000023c .L0 
     /tmp/cc5xgKhq.s:440    .text:0000000000000240 .L0 
     /tmp/cc5xgKhq.s:442    .text:0000000000000244 .L0 
     /tmp/cc5xgKhq.s:443    .text:0000000000000244 .L0 
     /tmp/cc5xgKhq.s:445    .text:0000000000000248 .L0 
     /tmp/cc5xgKhq.s:447    .text:000000000000024c .L0 
     /tmp/cc5xgKhq.s:448    .text:000000000000024c .L0 
     /tmp/cc5xgKhq.s:451    .text:0000000000000250 .L0 
     /tmp/cc5xgKhq.s:452    .text:0000000000000250 .L0 
     /tmp/cc5xgKhq.s:454    .text:0000000000000254 .L0 
     /tmp/cc5xgKhq.s:455    .text:0000000000000254 .L0 
     /tmp/cc5xgKhq.s:457    .text:0000000000000258 .L0 
     /tmp/cc5xgKhq.s:458    .text:000000000000025c .L0 
     /tmp/cc5xgKhq.s:459    .text:000000000000025c .L0 
     /tmp/cc5xgKhq.s:461    .text:0000000000000260 .L0 
     /tmp/cc5xgKhq.s:463    .text:0000000000000264 .L0 
     /tmp/cc5xgKhq.s:469    .text:0000000000000264 _Z12allocateSlabP12kmem_cache_s
     /tmp/cc5xgKhq.s:472    .text:0000000000000264 .L0 
     /tmp/cc5xgKhq.s:474    .text:0000000000000264 .L0 
     /tmp/cc5xgKhq.s:475    .text:0000000000000268 .L0 
     /tmp/cc5xgKhq.s:479    .text:0000000000000274 .L0 
     /tmp/cc5xgKhq.s:480    .text:0000000000000274 .L0 
     /tmp/cc5xgKhq.s:481    .text:0000000000000274 .L0 
     /tmp/cc5xgKhq.s:483    .text:0000000000000278 .L0 
     /tmp/cc5xgKhq.s:486    .text:000000000000027c .L0 
     /tmp/cc5xgKhq.s:487    .text:000000000000027c .L0 
     /tmp/cc5xgKhq.s:489    .text:0000000000000280 .L0 
     /tmp/cc5xgKhq.s:496    .text:0000000000000298 .L0 
     /tmp/cc5xgKhq.s:497    .text:0000000000000298 .L0 
     /tmp/cc5xgKhq.s:499    .text:000000000000029c .L0 
     /tmp/cc5xgKhq.s:501    .text:00000000000002a0 .L0 
     /tmp/cc5xgKhq.s:503    .text:00000000000002a4 .L0 
GAS LISTING /tmp/cc5xgKhq.s 			page 45


     /tmp/cc5xgKhq.s:504    .text:00000000000002a4 .L0 
     /tmp/cc5xgKhq.s:507    .text:00000000000002a8 .L0 
     /tmp/cc5xgKhq.s:508    .text:00000000000002a8 .L0 
     /tmp/cc5xgKhq.s:510    .text:00000000000002ac .L0 
     /tmp/cc5xgKhq.s:511    .text:00000000000002ac .L0 
     /tmp/cc5xgKhq.s:513    .text:00000000000002b0 .L0 
     /tmp/cc5xgKhq.s:514    .text:00000000000002b0 .L0 
     /tmp/cc5xgKhq.s:516    .text:00000000000002b4 .L0 
     /tmp/cc5xgKhq.s:517    .text:00000000000002b4 .L0 
     /tmp/cc5xgKhq.s:519    .text:00000000000002b8 .L0 
     /tmp/cc5xgKhq.s:520    .text:00000000000002b8 .L0 
     /tmp/cc5xgKhq.s:522    .text:00000000000002bc .L0 
     /tmp/cc5xgKhq.s:523    .text:00000000000002bc .L0 
     /tmp/cc5xgKhq.s:525    .text:00000000000002c0 .L0 
     /tmp/cc5xgKhq.s:528    .text:00000000000002c4 .L0 
     /tmp/cc5xgKhq.s:529    .text:00000000000002c4 .L0 
     /tmp/cc5xgKhq.s:532    .text:00000000000002c8 .L0 
     /tmp/cc5xgKhq.s:534    .text:00000000000002cc .L0 
     /tmp/cc5xgKhq.s:537    .text:00000000000002d0 .L0 
     /tmp/cc5xgKhq.s:541    .text:00000000000002d4 .L0 
     /tmp/cc5xgKhq.s:542    .text:00000000000002d4 .L0 
     /tmp/cc5xgKhq.s:546    .text:00000000000002d8 .L0 
     /tmp/cc5xgKhq.s:547    .text:00000000000002d8 .L0 
     /tmp/cc5xgKhq.s:549    .text:00000000000002dc .L0 
     /tmp/cc5xgKhq.s:551    .text:00000000000002e0 .L0 
     /tmp/cc5xgKhq.s:552    .text:00000000000002e0 .L0 
     /tmp/cc5xgKhq.s:555    .text:00000000000002e8 .L0 
     /tmp/cc5xgKhq.s:561    .text:00000000000002f0 .L0 
     /tmp/cc5xgKhq.s:562    .text:00000000000002f4 .L0 
     /tmp/cc5xgKhq.s:564    .text:00000000000002f8 .L0 
     /tmp/cc5xgKhq.s:565    .text:00000000000002f8 .L0 
     /tmp/cc5xgKhq.s:567    .text:00000000000002fc .L0 
     /tmp/cc5xgKhq.s:570    .text:0000000000000300 .L0 
     /tmp/cc5xgKhq.s:572    .text:0000000000000304 .L0 
     /tmp/cc5xgKhq.s:578    .text:0000000000000304 _Z18getOptimalSlabSizem
     /tmp/cc5xgKhq.s:581    .text:0000000000000304 .L0 
     /tmp/cc5xgKhq.s:583    .text:0000000000000304 .L0 
     /tmp/cc5xgKhq.s:584    .text:0000000000000308 .L0 
     /tmp/cc5xgKhq.s:586    .text:000000000000030c .L0 
     /tmp/cc5xgKhq.s:588    .text:0000000000000310 .L0 
     /tmp/cc5xgKhq.s:591    .text:0000000000000310 .L0 
     /tmp/cc5xgKhq.s:592    .text:0000000000000310 .L0 
     /tmp/cc5xgKhq.s:596    .text:0000000000000314 .L0 
     /tmp/cc5xgKhq.s:597    .text:0000000000000314 .L0 
     /tmp/cc5xgKhq.s:598    .text:0000000000000314 .L0 
     /tmp/cc5xgKhq.s:600    .text:0000000000000318 .L0 
     /tmp/cc5xgKhq.s:602    .text:000000000000031c .L0 
     /tmp/cc5xgKhq.s:603    .text:000000000000031c .L0 
     /tmp/cc5xgKhq.s:606    .text:0000000000000320 .L0 
     /tmp/cc5xgKhq.s:609    .text:0000000000000324 .L0 
     /tmp/cc5xgKhq.s:610    .text:0000000000000324 .L0 
     /tmp/cc5xgKhq.s:612    .text:0000000000000328 .L0 
     /tmp/cc5xgKhq.s:616    .text:000000000000032c .L0 
     /tmp/cc5xgKhq.s:617    .text:000000000000032c .L0 
     /tmp/cc5xgKhq.s:622    .text:0000000000000334 .L0 
     /tmp/cc5xgKhq.s:626    .text:0000000000000338 .L0 
     /tmp/cc5xgKhq.s:630    .text:0000000000000340 .L0 
GAS LISTING /tmp/cc5xgKhq.s 			page 46


     /tmp/cc5xgKhq.s:631    .text:0000000000000340 .L0 
     /tmp/cc5xgKhq.s:634    .text:0000000000000344 .L0 
     /tmp/cc5xgKhq.s:635    .text:0000000000000344 .L0 
     /tmp/cc5xgKhq.s:637    .text:0000000000000348 .L0 
     /tmp/cc5xgKhq.s:640    .text:000000000000034c .L0 
     /tmp/cc5xgKhq.s:642    .text:0000000000000350 .L0 
     /tmp/cc5xgKhq.s:645    .text:0000000000000354 .L0 
     /tmp/cc5xgKhq.s:653    .text:000000000000035c .L0 
     /tmp/cc5xgKhq.s:654    .text:000000000000035c .L0 
     /tmp/cc5xgKhq.s:657    .text:0000000000000364 .L0 
     /tmp/cc5xgKhq.s:658    .text:0000000000000364 .L0 
     /tmp/cc5xgKhq.s:660    .text:0000000000000368 .L0 
     /tmp/cc5xgKhq.s:662    .text:000000000000036c .L0 
     /tmp/cc5xgKhq.s:668    .text:000000000000036c _Z8findSlabP12kmem_cache_sPv
     /tmp/cc5xgKhq.s:671    .text:000000000000036c .L0 
     /tmp/cc5xgKhq.s:673    .text:000000000000036c .L0 
     /tmp/cc5xgKhq.s:674    .text:0000000000000370 .L0 
     /tmp/cc5xgKhq.s:676    .text:0000000000000374 .L0 
     /tmp/cc5xgKhq.s:678    .text:0000000000000378 .L0 
     /tmp/cc5xgKhq.s:681    .text:000000000000037c .L0 
     /tmp/cc5xgKhq.s:682    .text:000000000000037c .L0 
     /tmp/cc5xgKhq.s:689    .text:0000000000000384 .L0 
     /tmp/cc5xgKhq.s:690    .text:0000000000000384 .L0 
     /tmp/cc5xgKhq.s:695    .text:0000000000000388 .L0 
     /tmp/cc5xgKhq.s:696    .text:0000000000000388 .L0 
     /tmp/cc5xgKhq.s:699    .text:000000000000038c .L0 
     /tmp/cc5xgKhq.s:700    .text:000000000000038c .L0 
     /tmp/cc5xgKhq.s:702    .text:0000000000000390 .L0 
     /tmp/cc5xgKhq.s:704    .text:0000000000000394 .L0 
     /tmp/cc5xgKhq.s:706    .text:0000000000000398 .L0 
     /tmp/cc5xgKhq.s:708    .text:000000000000039c .L0 
     /tmp/cc5xgKhq.s:710    .text:00000000000003a0 .L0 
     /tmp/cc5xgKhq.s:713    .text:00000000000003a4 .L0 
     /tmp/cc5xgKhq.s:715    .text:00000000000003a8 .L0 
     /tmp/cc5xgKhq.s:720    .text:00000000000003ac .L0 
     /tmp/cc5xgKhq.s:721    .text:00000000000003b0 .L0 
     /tmp/cc5xgKhq.s:722    .text:00000000000003b0 .L0 
     /tmp/cc5xgKhq.s:723    .text:00000000000003b0 .L0 
     /tmp/cc5xgKhq.s:725    .text:00000000000003b4 .L0 
     /tmp/cc5xgKhq.s:728    .text:00000000000003b8 .L0 
     /tmp/cc5xgKhq.s:730    .text:00000000000003b8 .L0 
     /tmp/cc5xgKhq.s:731    .text:00000000000003b8 .L0 
     /tmp/cc5xgKhq.s:738    .text:00000000000003c0 .L0 
     /tmp/cc5xgKhq.s:739    .text:00000000000003c0 .L0 
     /tmp/cc5xgKhq.s:744    .text:00000000000003c4 .L0 
     /tmp/cc5xgKhq.s:745    .text:00000000000003c4 .L0 
     /tmp/cc5xgKhq.s:748    .text:00000000000003c8 .L0 
     /tmp/cc5xgKhq.s:749    .text:00000000000003c8 .L0 
     /tmp/cc5xgKhq.s:751    .text:00000000000003cc .L0 
     /tmp/cc5xgKhq.s:753    .text:00000000000003d0 .L0 
     /tmp/cc5xgKhq.s:755    .text:00000000000003d4 .L0 
     /tmp/cc5xgKhq.s:757    .text:00000000000003d8 .L0 
     /tmp/cc5xgKhq.s:759    .text:00000000000003dc .L0 
     /tmp/cc5xgKhq.s:762    .text:00000000000003e0 .L0 
     /tmp/cc5xgKhq.s:764    .text:00000000000003e4 .L0 
     /tmp/cc5xgKhq.s:767    .text:00000000000003ec .L0 
     /tmp/cc5xgKhq.s:773    .text:00000000000003ec _Z19resetAllocatedIndexP6slab_si
GAS LISTING /tmp/cc5xgKhq.s 			page 47


     /tmp/cc5xgKhq.s:776    .text:00000000000003ec .L0 
     /tmp/cc5xgKhq.s:778    .text:00000000000003ec .L0 
     /tmp/cc5xgKhq.s:779    .text:00000000000003f0 .L0 
     /tmp/cc5xgKhq.s:781    .text:00000000000003f4 .L0 
     /tmp/cc5xgKhq.s:783    .text:00000000000003f8 .L0 
     /tmp/cc5xgKhq.s:785    .text:00000000000003f8 .L0 
     /tmp/cc5xgKhq.s:786    .text:00000000000003f8 .L0 
     /tmp/cc5xgKhq.s:792    .text:0000000000000408 .L0 
     /tmp/cc5xgKhq.s:795    .text:000000000000040c .L0 
     /tmp/cc5xgKhq.s:797    .text:0000000000000410 .L0 
     /tmp/cc5xgKhq.s:800    .text:0000000000000418 .L0 
     /tmp/cc5xgKhq.s:803    .text:0000000000000420 .L0 
     /tmp/cc5xgKhq.s:806    .text:0000000000000428 .L0 
     /tmp/cc5xgKhq.s:808    .text:000000000000042c .L0 
     /tmp/cc5xgKhq.s:809    .text:0000000000000430 .L0 
     /tmp/cc5xgKhq.s:810    .text:0000000000000430 .L0 
     /tmp/cc5xgKhq.s:812    .text:0000000000000434 .L0 
     /tmp/cc5xgKhq.s:814    .text:0000000000000438 .L0 
     /tmp/cc5xgKhq.s:820    .text:0000000000000438 _Z14removeFullSlabP12kmem_cache_sP6slab_s
     /tmp/cc5xgKhq.s:823    .text:0000000000000438 .L0 
     /tmp/cc5xgKhq.s:825    .text:0000000000000438 .L0 
     /tmp/cc5xgKhq.s:826    .text:000000000000043c .L0 
     /tmp/cc5xgKhq.s:828    .text:0000000000000440 .L0 
     /tmp/cc5xgKhq.s:830    .text:0000000000000444 .L0 
     /tmp/cc5xgKhq.s:832    .text:0000000000000444 .L0 
     /tmp/cc5xgKhq.s:833    .text:0000000000000444 .L0 
     /tmp/cc5xgKhq.s:835    .text:0000000000000448 .L0 
     /tmp/cc5xgKhq.s:837    .text:000000000000044c .L0 
     /tmp/cc5xgKhq.s:838    .text:000000000000044c .L0 
     /tmp/cc5xgKhq.s:840    .text:0000000000000450 .L0 
     /tmp/cc5xgKhq.s:842    .text:0000000000000454 .L0 
     /tmp/cc5xgKhq.s:843    .text:0000000000000454 .L0 
     /tmp/cc5xgKhq.s:845    .text:0000000000000458 .L0 
     /tmp/cc5xgKhq.s:847    .text:000000000000045c .L0 
     /tmp/cc5xgKhq.s:850    .text:0000000000000460 .L0 
     /tmp/cc5xgKhq.s:851    .text:0000000000000460 .L0 
     /tmp/cc5xgKhq.s:853    .text:0000000000000464 .L0 
     /tmp/cc5xgKhq.s:855    .text:0000000000000468 .L0 
     /tmp/cc5xgKhq.s:856    .text:0000000000000468 .L0 
     /tmp/cc5xgKhq.s:858    .text:000000000000046c .L0 
     /tmp/cc5xgKhq.s:859    .text:000000000000046c .L0 
     /tmp/cc5xgKhq.s:861    .text:0000000000000470 .L0 
     /tmp/cc5xgKhq.s:863    .text:0000000000000474 .L0 
     /tmp/cc5xgKhq.s:864    .text:0000000000000474 .L0 
     /tmp/cc5xgKhq.s:867    .text:0000000000000478 .L0 
     /tmp/cc5xgKhq.s:868    .text:0000000000000478 .L0 
     /tmp/cc5xgKhq.s:870    .text:000000000000047c .L0 
     /tmp/cc5xgKhq.s:871    .text:0000000000000480 .L0 
     /tmp/cc5xgKhq.s:872    .text:0000000000000480 .L0 
     /tmp/cc5xgKhq.s:873    .text:0000000000000480 .L0 
     /tmp/cc5xgKhq.s:875    .text:0000000000000484 .L0 
     /tmp/cc5xgKhq.s:878    .text:0000000000000488 .L0 
     /tmp/cc5xgKhq.s:880    .text:0000000000000488 .L0 
     /tmp/cc5xgKhq.s:881    .text:0000000000000488 .L0 
     /tmp/cc5xgKhq.s:883    .text:000000000000048c .L0 
     /tmp/cc5xgKhq.s:885    .text:0000000000000490 .L0 
     /tmp/cc5xgKhq.s:886    .text:0000000000000490 .L0 
GAS LISTING /tmp/cc5xgKhq.s 			page 48


     /tmp/cc5xgKhq.s:888    .text:0000000000000494 .L0 
     /tmp/cc5xgKhq.s:890    .text:000000000000049c .L0 
     /tmp/cc5xgKhq.s:896    .text:000000000000049c _Z17removePartialSlabP12kmem_cache_sP6slab_s
     /tmp/cc5xgKhq.s:899    .text:000000000000049c .L0 
     /tmp/cc5xgKhq.s:901    .text:000000000000049c .L0 
     /tmp/cc5xgKhq.s:902    .text:00000000000004a0 .L0 
     /tmp/cc5xgKhq.s:904    .text:00000000000004a4 .L0 
     /tmp/cc5xgKhq.s:906    .text:00000000000004a8 .L0 
     /tmp/cc5xgKhq.s:908    .text:00000000000004a8 .L0 
     /tmp/cc5xgKhq.s:909    .text:00000000000004a8 .L0 
     /tmp/cc5xgKhq.s:911    .text:00000000000004ac .L0 
     /tmp/cc5xgKhq.s:913    .text:00000000000004b0 .L0 
     /tmp/cc5xgKhq.s:914    .text:00000000000004b0 .L0 
     /tmp/cc5xgKhq.s:916    .text:00000000000004b4 .L0 
     /tmp/cc5xgKhq.s:918    .text:00000000000004b8 .L0 
     /tmp/cc5xgKhq.s:919    .text:00000000000004b8 .L0 
     /tmp/cc5xgKhq.s:921    .text:00000000000004bc .L0 
     /tmp/cc5xgKhq.s:923    .text:00000000000004c0 .L0 
     /tmp/cc5xgKhq.s:926    .text:00000000000004c4 .L0 
     /tmp/cc5xgKhq.s:927    .text:00000000000004c4 .L0 
     /tmp/cc5xgKhq.s:929    .text:00000000000004c8 .L0 
     /tmp/cc5xgKhq.s:931    .text:00000000000004cc .L0 
     /tmp/cc5xgKhq.s:932    .text:00000000000004cc .L0 
     /tmp/cc5xgKhq.s:934    .text:00000000000004d0 .L0 
     /tmp/cc5xgKhq.s:935    .text:00000000000004d0 .L0 
     /tmp/cc5xgKhq.s:937    .text:00000000000004d4 .L0 
     /tmp/cc5xgKhq.s:939    .text:00000000000004d8 .L0 
     /tmp/cc5xgKhq.s:940    .text:00000000000004d8 .L0 
     /tmp/cc5xgKhq.s:943    .text:00000000000004dc .L0 
     /tmp/cc5xgKhq.s:944    .text:00000000000004dc .L0 
     /tmp/cc5xgKhq.s:946    .text:00000000000004e0 .L0 
     /tmp/cc5xgKhq.s:947    .text:00000000000004e4 .L0 
     /tmp/cc5xgKhq.s:948    .text:00000000000004e4 .L0 
     /tmp/cc5xgKhq.s:949    .text:00000000000004e4 .L0 
     /tmp/cc5xgKhq.s:951    .text:00000000000004e8 .L0 
     /tmp/cc5xgKhq.s:954    .text:00000000000004ec .L0 
     /tmp/cc5xgKhq.s:956    .text:00000000000004ec .L0 
     /tmp/cc5xgKhq.s:957    .text:00000000000004ec .L0 
     /tmp/cc5xgKhq.s:959    .text:00000000000004f0 .L0 
     /tmp/cc5xgKhq.s:961    .text:00000000000004f4 .L0 
     /tmp/cc5xgKhq.s:962    .text:00000000000004f4 .L0 
     /tmp/cc5xgKhq.s:964    .text:00000000000004f8 .L0 
     /tmp/cc5xgKhq.s:966    .text:0000000000000500 .L0 
     /tmp/cc5xgKhq.s:986    .text:0000000000000500 _Z13printSlabInfoP6slab_s
     /tmp/cc5xgKhq.s:989    .text:0000000000000500 .L0 
     /tmp/cc5xgKhq.s:991    .text:0000000000000500 .L0 
     /tmp/cc5xgKhq.s:992    .text:0000000000000504 .L0 
     /tmp/cc5xgKhq.s:996    .text:0000000000000510 .L0 
     /tmp/cc5xgKhq.s:997    .text:0000000000000510 .L0 
     /tmp/cc5xgKhq.s:998    .text:0000000000000510 .L0 
     /tmp/cc5xgKhq.s:1000   .text:0000000000000514 .L0 
     /tmp/cc5xgKhq.s:1003   .text:0000000000000518 .L0 
     /tmp/cc5xgKhq.s:1004   .text:0000000000000518 .L0 
     /tmp/cc5xgKhq.s:1009   .text:0000000000000528 .L0 
     /tmp/cc5xgKhq.s:1010   .text:0000000000000528 .L0 
     /tmp/cc5xgKhq.s:1016   .text:000000000000053c .L0 
     /tmp/cc5xgKhq.s:1017   .text:000000000000053c .L0 
GAS LISTING /tmp/cc5xgKhq.s 			page 49


     /tmp/cc5xgKhq.s:1021   .text:000000000000054c .L0 
     /tmp/cc5xgKhq.s:1022   .text:000000000000054c .L0 
     /tmp/cc5xgKhq.s:1026   .text:000000000000055c .L0 
     /tmp/cc5xgKhq.s:1027   .text:000000000000055c .L0 
     /tmp/cc5xgKhq.s:1033   .text:0000000000000570 .L0 
     /tmp/cc5xgKhq.s:1034   .text:0000000000000570 .L0 
     /tmp/cc5xgKhq.s:1038   .text:0000000000000580 .L0 
     /tmp/cc5xgKhq.s:1039   .text:0000000000000580 .L0 
     /tmp/cc5xgKhq.s:1043   .text:0000000000000590 .L0 
     /tmp/cc5xgKhq.s:1044   .text:0000000000000590 .L0 
     /tmp/cc5xgKhq.s:1050   .text:00000000000005a4 .L0 
     /tmp/cc5xgKhq.s:1051   .text:00000000000005a4 .L0 
     /tmp/cc5xgKhq.s:1055   .text:00000000000005b4 .L0 
     /tmp/cc5xgKhq.s:1056   .text:00000000000005b8 .L0 
     /tmp/cc5xgKhq.s:1058   .text:00000000000005bc .L0 
     /tmp/cc5xgKhq.s:1059   .text:00000000000005bc .L0 
     /tmp/cc5xgKhq.s:1061   .text:00000000000005c0 .L0 
     /tmp/cc5xgKhq.s:1064   .text:00000000000005c4 .L0 
     /tmp/cc5xgKhq.s:1066   .text:00000000000005c8 .L0 
     /tmp/cc5xgKhq.s:1072   .text:00000000000005c8 _Z9kmem_initPvi
     /tmp/cc5xgKhq.s:1075   .text:00000000000005c8 .L0 
     /tmp/cc5xgKhq.s:1077   .text:00000000000005c8 .L0 
     /tmp/cc5xgKhq.s:1078   .text:00000000000005cc .L0 
     /tmp/cc5xgKhq.s:1081   .text:00000000000005d4 .L0 
     /tmp/cc5xgKhq.s:1082   .text:00000000000005d4 .L0 
     /tmp/cc5xgKhq.s:1084   .text:00000000000005d8 .L0 
     /tmp/cc5xgKhq.s:1086   .text:00000000000005d8 .L0 
     /tmp/cc5xgKhq.s:1087   .text:00000000000005d8 .L0 
     /tmp/cc5xgKhq.s:1090   .text:00000000000005e0 .L0 
     /tmp/cc5xgKhq.s:1091   .text:00000000000005e0 .L0 
     /tmp/cc5xgKhq.s:1094   .text:00000000000005e8 .L0 
     /tmp/cc5xgKhq.s:1096   .text:00000000000005f0 .L0 
     /tmp/cc5xgKhq.s:1097   .text:00000000000005f4 .L0 
     /tmp/cc5xgKhq.s:1099   .text:00000000000005f8 .L0 
     /tmp/cc5xgKhq.s:1100   .text:00000000000005f8 .L0 
     /tmp/cc5xgKhq.s:1102   .text:00000000000005fc .L0 
     /tmp/cc5xgKhq.s:1104   .text:0000000000000600 .L0 
     /tmp/cc5xgKhq.s:1110   .text:0000000000000600 _Z16kmem_cache_allocP12kmem_cache_s
     /tmp/cc5xgKhq.s:1113   .text:0000000000000600 .L0 
     /tmp/cc5xgKhq.s:1115   .text:0000000000000600 .L0 
     /tmp/cc5xgKhq.s:1116   .text:0000000000000604 .L0 
     /tmp/cc5xgKhq.s:1121   .text:0000000000000614 .L0 
     /tmp/cc5xgKhq.s:1122   .text:0000000000000614 .L0 
     /tmp/cc5xgKhq.s:1123   .text:0000000000000614 .L0 
     /tmp/cc5xgKhq.s:1124   .text:0000000000000614 .L0 
     /tmp/cc5xgKhq.s:1126   .text:0000000000000618 .L0 
     /tmp/cc5xgKhq.s:1130   .text:000000000000061c .L0 
     /tmp/cc5xgKhq.s:1131   .text:000000000000061c .L0 
     /tmp/cc5xgKhq.s:1134   .text:0000000000000620 .L0 
     /tmp/cc5xgKhq.s:1139   .text:0000000000000624 .L0 
     /tmp/cc5xgKhq.s:1140   .text:0000000000000624 .L0 
     /tmp/cc5xgKhq.s:1142   .text:0000000000000628 .L0 
     /tmp/cc5xgKhq.s:1145   .text:000000000000062c .L0 
     /tmp/cc5xgKhq.s:1146   .text:000000000000062c .L0 
     /tmp/cc5xgKhq.s:1151   .text:0000000000000638 .L0 
     /tmp/cc5xgKhq.s:1152   .text:0000000000000638 .L0 
     /tmp/cc5xgKhq.s:1157   .text:0000000000000644 .L0 
GAS LISTING /tmp/cc5xgKhq.s 			page 50


     /tmp/cc5xgKhq.s:1159   .text:0000000000000648 .L0 
     /tmp/cc5xgKhq.s:1160   .text:0000000000000648 .L0 
     /tmp/cc5xgKhq.s:1164   .text:0000000000000654 .L0 
     /tmp/cc5xgKhq.s:1165   .text:0000000000000654 .L0 
     /tmp/cc5xgKhq.s:1172   .text:0000000000000658 .L0 
     /tmp/cc5xgKhq.s:1173   .text:0000000000000658 .L0 
     /tmp/cc5xgKhq.s:1178   .text:0000000000000664 .L0 
     /tmp/cc5xgKhq.s:1179   .text:0000000000000664 .L0 
     /tmp/cc5xgKhq.s:1184   .text:0000000000000670 .L0 
     /tmp/cc5xgKhq.s:1190   .text:0000000000000674 .L0 
     /tmp/cc5xgKhq.s:1192   .text:000000000000067c .L0 
     /tmp/cc5xgKhq.s:1193   .text:000000000000067c .L0 
     /tmp/cc5xgKhq.s:1195   .text:0000000000000680 .L0 
     /tmp/cc5xgKhq.s:1196   .text:0000000000000680 .L0 
     /tmp/cc5xgKhq.s:1198   .text:0000000000000684 .L0 
     /tmp/cc5xgKhq.s:1201   .text:0000000000000688 .L0 
     /tmp/cc5xgKhq.s:1203   .text:000000000000068c .L0 
     /tmp/cc5xgKhq.s:1207   .text:0000000000000690 .L0 
     /tmp/cc5xgKhq.s:1211   .text:0000000000000690 .L0 
     /tmp/cc5xgKhq.s:1212   .text:0000000000000690 .L0 
     /tmp/cc5xgKhq.s:1216   .text:000000000000069c .L0 
     /tmp/cc5xgKhq.s:1217   .text:000000000000069c .L0 
     /tmp/cc5xgKhq.s:1224   .text:00000000000006a0 .L0 
     /tmp/cc5xgKhq.s:1225   .text:00000000000006a0 .L0 
     /tmp/cc5xgKhq.s:1229   .text:00000000000006ac .L0 
     /tmp/cc5xgKhq.s:1230   .text:00000000000006ac .L0 
     /tmp/cc5xgKhq.s:1232   .text:00000000000006b0 .L0 
     /tmp/cc5xgKhq.s:1234   .text:00000000000006b4 .L0 
     /tmp/cc5xgKhq.s:1235   .text:00000000000006b4 .L0 
     /tmp/cc5xgKhq.s:1241   .text:00000000000006c4 .L0 
     /tmp/cc5xgKhq.s:1242   .text:00000000000006c4 .L0 
     /tmp/cc5xgKhq.s:1247   .text:00000000000006d0 .L0 
     /tmp/cc5xgKhq.s:1249   .text:00000000000006d4 .L0 
     /tmp/cc5xgKhq.s:1250   .text:00000000000006d4 .L0 
     /tmp/cc5xgKhq.s:1254   .text:00000000000006e0 .L0 
     /tmp/cc5xgKhq.s:1255   .text:00000000000006e0 .L0 
     /tmp/cc5xgKhq.s:1259   .text:00000000000006e4 .L0 
     /tmp/cc5xgKhq.s:1265   .text:00000000000006e4 _Z17kmem_cache_createPKcmPFvPvES3_
     /tmp/cc5xgKhq.s:1268   .text:00000000000006e4 .L0 
     /tmp/cc5xgKhq.s:1270   .text:00000000000006e4 .L0 
     /tmp/cc5xgKhq.s:1271   .text:00000000000006e8 .L0 
     /tmp/cc5xgKhq.s:1279   .text:0000000000000704 .L0 
     /tmp/cc5xgKhq.s:1280   .text:0000000000000704 .L0 
     /tmp/cc5xgKhq.s:1281   .text:0000000000000704 .L0 
     /tmp/cc5xgKhq.s:1282   .text:0000000000000704 .L0 
     /tmp/cc5xgKhq.s:1283   .text:0000000000000704 .L0 
     /tmp/cc5xgKhq.s:1284   .text:0000000000000704 .L0 
     /tmp/cc5xgKhq.s:1285   .text:0000000000000704 .L0 
     /tmp/cc5xgKhq.s:1287   .text:0000000000000708 .L0 
     /tmp/cc5xgKhq.s:1293   .text:0000000000000718 .L0 
     /tmp/cc5xgKhq.s:1294   .text:0000000000000718 .L0 
     /tmp/cc5xgKhq.s:1302   .text:0000000000000730 .L0 
     /tmp/cc5xgKhq.s:1303   .text:0000000000000730 .L0 
     /tmp/cc5xgKhq.s:1305   .text:0000000000000734 .L0 
     /tmp/cc5xgKhq.s:1306   .text:0000000000000734 .L0 
     /tmp/cc5xgKhq.s:1308   .text:0000000000000738 .L0 
     /tmp/cc5xgKhq.s:1309   .text:0000000000000738 .L0 
GAS LISTING /tmp/cc5xgKhq.s 			page 51


     /tmp/cc5xgKhq.s:1311   .text:000000000000073c .L0 
     /tmp/cc5xgKhq.s:1312   .text:000000000000073c .L0 
     /tmp/cc5xgKhq.s:1314   .text:0000000000000740 .L0 
     /tmp/cc5xgKhq.s:1316   .text:0000000000000744 .L0 
     /tmp/cc5xgKhq.s:1317   .text:0000000000000744 .L0 
     /tmp/cc5xgKhq.s:1319   .text:0000000000000748 .L0 
     /tmp/cc5xgKhq.s:1320   .text:0000000000000748 .L0 
     /tmp/cc5xgKhq.s:1322   .text:000000000000074c .L0 
     /tmp/cc5xgKhq.s:1323   .text:000000000000074c .L0 
     /tmp/cc5xgKhq.s:1328   .text:000000000000075c .L0 
     /tmp/cc5xgKhq.s:1329   .text:000000000000075c .L0 
     /tmp/cc5xgKhq.s:1331   .text:0000000000000760 .L0 
     /tmp/cc5xgKhq.s:1332   .text:0000000000000760 .L0 
     /tmp/cc5xgKhq.s:1336   .text:000000000000076c .L0 
     /tmp/cc5xgKhq.s:1338   .text:0000000000000770 .L0 
     /tmp/cc5xgKhq.s:1339   .text:0000000000000770 .L0 
     /tmp/cc5xgKhq.s:1341   .text:0000000000000778 .L0 
     /tmp/cc5xgKhq.s:1343   .text:000000000000077c .L0 
     /tmp/cc5xgKhq.s:1344   .text:000000000000077c .L0 
     /tmp/cc5xgKhq.s:1346   .text:0000000000000780 .L0 
     /tmp/cc5xgKhq.s:1349   .text:0000000000000784 .L0 
     /tmp/cc5xgKhq.s:1352   .text:0000000000000788 .L0 
     /tmp/cc5xgKhq.s:1355   .text:000000000000078c .L0 
     /tmp/cc5xgKhq.s:1358   .text:0000000000000790 .L0 
     /tmp/cc5xgKhq.s:1361   .text:0000000000000794 .L0 
     /tmp/cc5xgKhq.s:1363   .text:0000000000000798 .L0 
     /tmp/cc5xgKhq.s:1369   .text:0000000000000798 _Z15kmem_cache_freeP12kmem_cache_sPv
     /tmp/cc5xgKhq.s:1372   .text:0000000000000798 .L0 
     /tmp/cc5xgKhq.s:1374   .text:0000000000000798 .L0 
     /tmp/cc5xgKhq.s:1375   .text:000000000000079c .L0 
     /tmp/cc5xgKhq.s:1381   .text:00000000000007b0 .L0 
     /tmp/cc5xgKhq.s:1382   .text:00000000000007b0 .L0 
     /tmp/cc5xgKhq.s:1383   .text:00000000000007b0 .L0 
     /tmp/cc5xgKhq.s:1384   .text:00000000000007b0 .L0 
     /tmp/cc5xgKhq.s:1385   .text:00000000000007b0 .L0 
     /tmp/cc5xgKhq.s:1387   .text:00000000000007b4 .L0 
     /tmp/cc5xgKhq.s:1391   .text:00000000000007bc .L0 
     /tmp/cc5xgKhq.s:1392   .text:00000000000007bc .L0 
     /tmp/cc5xgKhq.s:1395   .text:00000000000007c4 .L0 
     /tmp/cc5xgKhq.s:1398   .text:00000000000007cc .L0 
     /tmp/cc5xgKhq.s:1399   .text:00000000000007cc .L0 
     /tmp/cc5xgKhq.s:1402   .text:00000000000007d4 .L0 
     /tmp/cc5xgKhq.s:1404   .text:00000000000007d8 .L0 
     /tmp/cc5xgKhq.s:1406   .text:00000000000007dc .L0 
     /tmp/cc5xgKhq.s:1408   .text:00000000000007e0 .L0 
     /tmp/cc5xgKhq.s:1411   .text:00000000000007e4 .L0 
     /tmp/cc5xgKhq.s:1412   .text:00000000000007e4 .L0 
     /tmp/cc5xgKhq.s:1414   .text:00000000000007e8 .L0 
     /tmp/cc5xgKhq.s:1417   .text:00000000000007f0 .L0 
     /tmp/cc5xgKhq.s:1421   .text:00000000000007f4 .L0 
     /tmp/cc5xgKhq.s:1422   .text:00000000000007f8 .L0 
     /tmp/cc5xgKhq.s:1423   .text:00000000000007f8 .L0 
     /tmp/cc5xgKhq.s:1425   .text:00000000000007fc .L0 
     /tmp/cc5xgKhq.s:1426   .text:00000000000007fc .L0 
     /tmp/cc5xgKhq.s:1428   .text:0000000000000800 .L0 
     /tmp/cc5xgKhq.s:1430   .text:0000000000000804 .L0 
     /tmp/cc5xgKhq.s:1433   .text:0000000000000808 .L0 
GAS LISTING /tmp/cc5xgKhq.s 			page 52


     /tmp/cc5xgKhq.s:1436   .text:000000000000080c .L0 
     /tmp/cc5xgKhq.s:1440   .text:0000000000000810 .L0 
     /tmp/cc5xgKhq.s:1442   .text:0000000000000810 .L0 
     /tmp/cc5xgKhq.s:1443   .text:0000000000000810 .L0 
     /tmp/cc5xgKhq.s:1446   .text:0000000000000818 .L0 
     /tmp/cc5xgKhq.s:1447   .text:0000000000000818 .L0 
     /tmp/cc5xgKhq.s:1449   .text:000000000000081c .L0 
     /tmp/cc5xgKhq.s:1451   .text:0000000000000820 .L0 
     /tmp/cc5xgKhq.s:1453   .text:0000000000000824 .L0 
     /tmp/cc5xgKhq.s:1457   .text:000000000000082c .L0 
     /tmp/cc5xgKhq.s:1458   .text:000000000000082c .L0 
     /tmp/cc5xgKhq.s:1460   .text:0000000000000830 .L0 
     /tmp/cc5xgKhq.s:1465   .text:000000000000083c .L0 
     /tmp/cc5xgKhq.s:1466   .text:000000000000083c .L0 
     /tmp/cc5xgKhq.s:1473   .text:0000000000000850 .L0 
     /tmp/cc5xgKhq.s:1474   .text:0000000000000850 .L0 
     /tmp/cc5xgKhq.s:1479   .text:0000000000000864 .L0 
     /tmp/cc5xgKhq.s:1511   .text:0000000000000864 _Z15kmem_cache_infoP12kmem_cache_s
     /tmp/cc5xgKhq.s:1514   .text:0000000000000864 .L0 
     /tmp/cc5xgKhq.s:1516   .text:0000000000000864 .L0 
     /tmp/cc5xgKhq.s:1517   .text:0000000000000868 .L0 
     /tmp/cc5xgKhq.s:1522   .text:0000000000000878 .L0 
     /tmp/cc5xgKhq.s:1523   .text:0000000000000878 .L0 
     /tmp/cc5xgKhq.s:1524   .text:0000000000000878 .L0 
     /tmp/cc5xgKhq.s:1525   .text:0000000000000878 .L0 
     /tmp/cc5xgKhq.s:1527   .text:000000000000087c .L0 
     /tmp/cc5xgKhq.s:1530   .text:0000000000000880 .L0 
     /tmp/cc5xgKhq.s:1531   .text:0000000000000880 .L0 
     /tmp/cc5xgKhq.s:1536   .text:0000000000000890 .L0 
     /tmp/cc5xgKhq.s:1537   .text:0000000000000890 .L0 
     /tmp/cc5xgKhq.s:1541   .text:00000000000008a0 .L0 
     /tmp/cc5xgKhq.s:1542   .text:00000000000008a0 .L0 
     /tmp/cc5xgKhq.s:1546   .text:00000000000008ac .L0 
     /tmp/cc5xgKhq.s:1547   .text:00000000000008ac .L0 
     /tmp/cc5xgKhq.s:1551   .text:00000000000008bc .L0 
     /tmp/cc5xgKhq.s:1552   .text:00000000000008bc .L0 
     /tmp/cc5xgKhq.s:1556   .text:00000000000008cc .L0 
     /tmp/cc5xgKhq.s:1557   .text:00000000000008cc .L0 
     /tmp/cc5xgKhq.s:1563   .text:00000000000008e0 .L0 
     /tmp/cc5xgKhq.s:1564   .text:00000000000008e0 .L0 
     /tmp/cc5xgKhq.s:1568   .text:00000000000008f0 .L0 
     /tmp/cc5xgKhq.s:1569   .text:00000000000008f0 .L0 
     /tmp/cc5xgKhq.s:1573   .text:0000000000000900 .L0 
     /tmp/cc5xgKhq.s:1574   .text:0000000000000900 .L0 
     /tmp/cc5xgKhq.s:1580   .text:0000000000000914 .L0 
     /tmp/cc5xgKhq.s:1581   .text:0000000000000914 .L0 
     /tmp/cc5xgKhq.s:1585   .text:0000000000000924 .L0 
     /tmp/cc5xgKhq.s:1586   .text:0000000000000924 .L0 
     /tmp/cc5xgKhq.s:1590   .text:0000000000000934 .L0 
     /tmp/cc5xgKhq.s:1591   .text:0000000000000934 .L0 
     /tmp/cc5xgKhq.s:1595   .text:0000000000000944 .L0 
     /tmp/cc5xgKhq.s:1596   .text:0000000000000944 .L0 
     /tmp/cc5xgKhq.s:1600   .text:0000000000000948 .L0 
     /tmp/cc5xgKhq.s:1601   .text:0000000000000948 .L0 
     /tmp/cc5xgKhq.s:1603   .text:000000000000094c .L0 
     /tmp/cc5xgKhq.s:1604   .text:000000000000094c .L0 
     /tmp/cc5xgKhq.s:1608   .text:0000000000000958 .L0 
GAS LISTING /tmp/cc5xgKhq.s 			page 53


     /tmp/cc5xgKhq.s:1609   .text:0000000000000958 .L0 
     /tmp/cc5xgKhq.s:1612   .text:000000000000095c .L0 
     /tmp/cc5xgKhq.s:1615   .text:0000000000000960 .L0 
     /tmp/cc5xgKhq.s:1616   .text:0000000000000960 .L0 
     /tmp/cc5xgKhq.s:1620   .text:0000000000000970 .L0 
     /tmp/cc5xgKhq.s:1621   .text:0000000000000970 .L0 
     /tmp/cc5xgKhq.s:1625   .text:0000000000000974 .L0 
     /tmp/cc5xgKhq.s:1626   .text:0000000000000974 .L0 
     /tmp/cc5xgKhq.s:1628   .text:0000000000000978 .L0 
     /tmp/cc5xgKhq.s:1629   .text:0000000000000978 .L0 
     /tmp/cc5xgKhq.s:1633   .text:0000000000000984 .L0 
     /tmp/cc5xgKhq.s:1634   .text:0000000000000984 .L0 
     /tmp/cc5xgKhq.s:1637   .text:0000000000000988 .L0 
     /tmp/cc5xgKhq.s:1640   .text:000000000000098c .L0 
     /tmp/cc5xgKhq.s:1641   .text:000000000000098c .L0 
     /tmp/cc5xgKhq.s:1645   .text:000000000000099c .L0 
     /tmp/cc5xgKhq.s:1646   .text:000000000000099c .L0 
     /tmp/cc5xgKhq.s:1650   .text:00000000000009a0 .L0 
     /tmp/cc5xgKhq.s:1651   .text:00000000000009a0 .L0 
     /tmp/cc5xgKhq.s:1653   .text:00000000000009a4 .L0 
     /tmp/cc5xgKhq.s:1654   .text:00000000000009a4 .L0 
     /tmp/cc5xgKhq.s:1658   .text:00000000000009b0 .L0 
     /tmp/cc5xgKhq.s:1659   .text:00000000000009b0 .L0 
     /tmp/cc5xgKhq.s:1662   .text:00000000000009b4 .L0 
     /tmp/cc5xgKhq.s:1665   .text:00000000000009b8 .L0 
     /tmp/cc5xgKhq.s:1666   .text:00000000000009bc .L0 
     /tmp/cc5xgKhq.s:1668   .text:00000000000009c0 .L0 
     /tmp/cc5xgKhq.s:1669   .text:00000000000009c0 .L0 
     /tmp/cc5xgKhq.s:1671   .text:00000000000009c4 .L0 
     /tmp/cc5xgKhq.s:1674   .text:00000000000009c8 .L0 
     /tmp/cc5xgKhq.s:1677   .text:00000000000009cc .L0 
     /tmp/cc5xgKhq.s:1679   .text:00000000000009d0 .L0 
     /tmp/cc5xgKhq.s:1684   .bss:0000000000000000 .LANCHOR0
     /tmp/cc5xgKhq.s:1687   .bss:0000000000000000 _ZL13slabAllocator
     /tmp/cc5xgKhq.s:1697   .text:00000000000009d0 .L0 
     /tmp/cc5xgKhq.s:50     .rodata.str1.8:0000000000000000 .LC0
     /tmp/cc5xgKhq.s:109    .text:000000000000007c .L0 
     /tmp/cc5xgKhq.s:490    .text:0000000000000284 .L0 
     /tmp/cc5xgKhq.s:971    .rodata.str1.8:0000000000000010 .LC1
     /tmp/cc5xgKhq.s:1004   .text:0000000000000518 .L0 
     /tmp/cc5xgKhq.s:974    .rodata.str1.8:0000000000000020 .LC2
     /tmp/cc5xgKhq.s:1017   .text:000000000000053c .L0 
     /tmp/cc5xgKhq.s:977    .rodata.str1.8:0000000000000028 .LC3
     /tmp/cc5xgKhq.s:1022   .text:000000000000054c .L0 
     /tmp/cc5xgKhq.s:1034   .text:0000000000000570 .L0 
     /tmp/cc5xgKhq.s:980    .rodata.str1.8:0000000000000048 .LC4
     /tmp/cc5xgKhq.s:1039   .text:0000000000000580 .L0 
     /tmp/cc5xgKhq.s:1051   .text:00000000000005a4 .L0 
     /tmp/cc5xgKhq.s:1094   .text:00000000000005e8 .L0 
     /tmp/cc5xgKhq.s:1294   .text:0000000000000718 .L0 
     /tmp/cc5xgKhq.s:1484   .rodata.str1.8:0000000000000060 .LC5
     /tmp/cc5xgKhq.s:1531   .text:0000000000000880 .L0 
     /tmp/cc5xgKhq.s:1487   .rodata.str1.8:0000000000000088 .LC6
     /tmp/cc5xgKhq.s:1537   .text:0000000000000890 .L0 
     /tmp/cc5xgKhq.s:1547   .text:00000000000008ac .L0 
     /tmp/cc5xgKhq.s:1490   .rodata.str1.8:0000000000000098 .LC7
     /tmp/cc5xgKhq.s:1552   .text:00000000000008bc .L0 
GAS LISTING /tmp/cc5xgKhq.s 			page 54


     /tmp/cc5xgKhq.s:1564   .text:00000000000008e0 .L0 
     /tmp/cc5xgKhq.s:1493   .rodata.str1.8:00000000000000b8 .LC8
     /tmp/cc5xgKhq.s:1569   .text:00000000000008f0 .L0 
     /tmp/cc5xgKhq.s:1581   .text:0000000000000914 .L0 
     /tmp/cc5xgKhq.s:1496   .rodata.str1.8:00000000000000d8 .LC9
     /tmp/cc5xgKhq.s:1586   .text:0000000000000924 .L0 
     /tmp/cc5xgKhq.s:1499   .rodata.str1.8:00000000000000e8 .LC10
     /tmp/cc5xgKhq.s:1591   .text:0000000000000934 .L0 
     /tmp/cc5xgKhq.s:1502   .rodata.str1.8:00000000000000f8 .LC11
     /tmp/cc5xgKhq.s:1616   .text:0000000000000960 .L0 
     /tmp/cc5xgKhq.s:1505   .rodata.str1.8:0000000000000108 .LC12
     /tmp/cc5xgKhq.s:1641   .text:000000000000098c .L0 
     /tmp/cc5xgKhq.s:37     .text:0000000000000020 .L1
     /tmp/cc5xgKhq.s:21     .text:000000000000000c .L3
     /tmp/cc5xgKhq.s:101    .text:0000000000000070 .L7
     /tmp/cc5xgKhq.s:91     .text:000000000000005c .L9
     /tmp/cc5xgKhq.s:236    .text:0000000000000138 .L15
     /tmp/cc5xgKhq.s:213    .text:0000000000000118 .L17
     /tmp/cc5xgKhq.s:184    .text:00000000000000e8 .L13
     /tmp/cc5xgKhq.s:245    .text:0000000000000140 .L11
     /tmp/cc5xgKhq.s:276    .text:0000000000000180 .L10
     /tmp/cc5xgKhq.s:376    .text:00000000000001f4 .L23
     /tmp/cc5xgKhq.s:390    .text:0000000000000208 .L24
     /tmp/cc5xgKhq.s:435    .text:000000000000023c .L27
     /tmp/cc5xgKhq.s:449    .text:0000000000000250 .L28
     /tmp/cc5xgKhq.s:505    .text:00000000000002a8 .L31
     /tmp/cc5xgKhq.s:558    .text:00000000000002f0 .L30
     /tmp/cc5xgKhq.s:544    .text:00000000000002d8 .L33
     /tmp/cc5xgKhq.s:607    .text:0000000000000324 .L36
     /tmp/cc5xgKhq.s:594    .text:0000000000000314 .L37
     /tmp/cc5xgKhq.s:624    .text:0000000000000338 .L40
     /tmp/cc5xgKhq.s:649    .text:000000000000035c .L38
     /tmp/cc5xgKhq.s:620    .text:0000000000000334 .L39
     /tmp/cc5xgKhq.s:692    .text:0000000000000388 .L47
     /tmp/cc5xgKhq.s:727    .text:00000000000003b8 .L44
     /tmp/cc5xgKhq.s:686    .text:0000000000000384 .L45
     /tmp/cc5xgKhq.s:741    .text:00000000000003c4 .L49
     /tmp/cc5xgKhq.s:717    .text:00000000000003ac .L43
     /tmp/cc5xgKhq.s:735    .text:00000000000003c0 .L48
     /tmp/cc5xgKhq.s:877    .text:0000000000000488 .L54
     /tmp/cc5xgKhq.s:865    .text:0000000000000478 .L56
     /tmp/cc5xgKhq.s:848    .text:0000000000000460 .L55
     /tmp/cc5xgKhq.s:953    .text:00000000000004ec .L59
     /tmp/cc5xgKhq.s:941    .text:00000000000004dc .L61
     /tmp/cc5xgKhq.s:924    .text:00000000000004c4 .L60
     /tmp/cc5xgKhq.s:1167   .text:0000000000000658 .L75
     /tmp/cc5xgKhq.s:1219   .text:00000000000006a0 .L71
     /tmp/cc5xgKhq.s:1186   .text:0000000000000674 .L67
     /tmp/cc5xgKhq.s:1206   .text:0000000000000690 .L76
     /tmp/cc5xgKhq.s:1419   .text:00000000000007f4 .L79
     /tmp/cc5xgKhq.s:1439   .text:0000000000000810 .L84
     /tmp/cc5xgKhq.s:1463   .text:000000000000083c .L85
     /tmp/cc5xgKhq.s:1471   .text:0000000000000850 .L86
     /tmp/cc5xgKhq.s:1455   .text:000000000000082c .L82
     /tmp/cc5xgKhq.s:1613   .text:0000000000000960 .L88
     /tmp/cc5xgKhq.s:1598   .text:0000000000000948 .L89
     /tmp/cc5xgKhq.s:1638   .text:000000000000098c .L90
GAS LISTING /tmp/cc5xgKhq.s 			page 55


     /tmp/cc5xgKhq.s:1623   .text:0000000000000974 .L91
     /tmp/cc5xgKhq.s:1663   .text:00000000000009b8 .L87
     /tmp/cc5xgKhq.s:1648   .text:00000000000009a0 .L93
     /tmp/cc5xgKhq.s:4284   .debug_abbrev:0000000000000000 .Ldebug_abbrev0
     /tmp/cc5xgKhq.s:6405   .debug_str:0000000000000e75 .LASF271
     /tmp/cc5xgKhq.s:6191   .debug_str:00000000000007c3 .LASF272
     /tmp/cc5xgKhq.s:6111   .debug_str:00000000000004e8 .LASF273
     /tmp/cc5xgKhq.s:5      .text:0000000000000000 .Ltext0
     /tmp/cc5xgKhq.s:1690   .text:00000000000009d0 .Letext0
     /tmp/cc5xgKhq.s:5951   .debug_line:0000000000000000 .Ldebug_line0
     /tmp/cc5xgKhq.s:6145   .debug_str:0000000000000648 .LASF0
     /tmp/cc5xgKhq.s:6175   .debug_str:0000000000000751 .LASF1
     /tmp/cc5xgKhq.s:6319   .debug_str:0000000000000be1 .LASF2
     /tmp/cc5xgKhq.s:6083   .debug_str:000000000000042f .LASF3
     /tmp/cc5xgKhq.s:6335   .debug_str:0000000000000c64 .LASF4
     /tmp/cc5xgKhq.s:6157   .debug_str:0000000000000698 .LASF5
     /tmp/cc5xgKhq.s:5971   .debug_str:00000000000000ab .LASF6
     /tmp/cc5xgKhq.s:6271   .debug_str:0000000000000a46 .LASF7
     /tmp/cc5xgKhq.s:6167   .debug_str:0000000000000702 .LASF8
     /tmp/cc5xgKhq.s:6107   .debug_str:00000000000004ce .LASF9
     /tmp/cc5xgKhq.s:6119   .debug_str:0000000000000539 .LASF10
     /tmp/cc5xgKhq.s:6025   .debug_str:00000000000002bb .LASF11
     /tmp/cc5xgKhq.s:6099   .debug_str:0000000000000496 .LASF12
     /tmp/cc5xgKhq.s:6043   .debug_str:0000000000000317 .LASF13
     /tmp/cc5xgKhq.s:6023   .debug_str:00000000000002ab .LASF14
     /tmp/cc5xgKhq.s:6379   .debug_str:0000000000000dff .LASF15
     /tmp/cc5xgKhq.s:6075   .debug_str:00000000000003f9 .LASF16
     /tmp/cc5xgKhq.s:6367   .debug_str:0000000000000d6e .LASF17
     /tmp/cc5xgKhq.s:6095   .debug_str:0000000000000478 .LASF18
     /tmp/cc5xgKhq.s:6093   .debug_str:000000000000046b .LASF30
     /tmp/cc5xgKhq.s:6109   .debug_str:00000000000004de .LASF19
     /tmp/cc5xgKhq.s:6027   .debug_str:00000000000002ca .LASF20
     /tmp/cc5xgKhq.s:5989   .debug_str:0000000000000167 .LASF21
     /tmp/cc5xgKhq.s:6091   .debug_str:000000000000045f .LASF22
     /tmp/cc5xgKhq.s:6227   .debug_str:00000000000008f7 .LASF23
     /tmp/cc5xgKhq.s:6113   .debug_str:0000000000000506 .LASF24
     /tmp/cc5xgKhq.s:6359   .debug_str:0000000000000d39 .LASF25
     /tmp/cc5xgKhq.s:6455   .debug_str:00000000000010e5 .LASF26
     /tmp/cc5xgKhq.s:6203   .debug_str:0000000000000827 .LASF27
     /tmp/cc5xgKhq.s:6143   .debug_str:0000000000000643 .LASF28
     /tmp/cc5xgKhq.s:6393   .debug_str:0000000000000e3f .LASF29
     /tmp/cc5xgKhq.s:6275   .debug_str:0000000000000a61 .LASF31
     /tmp/cc5xgKhq.s:6303   .debug_str:0000000000000b55 .LASF32
     /tmp/cc5xgKhq.s:6389   .debug_str:0000000000000e33 .LASF33
     /tmp/cc5xgKhq.s:6187   .debug_str:00000000000007a2 .LASF34
     /tmp/cc5xgKhq.s:6201   .debug_str:0000000000000818 .LASF35
     /tmp/cc5xgKhq.s:6209   .debug_str:0000000000000840 .LASF36
     /tmp/cc5xgKhq.s:6403   .debug_str:0000000000000e6b .LASF37
     /tmp/cc5xgKhq.s:6433   .debug_str:000000000000103c .LASF38
     /tmp/cc5xgKhq.s:6179   .debug_str:000000000000076f .LASF39
     /tmp/cc5xgKhq.s:6087   .debug_str:0000000000000443 .LASF40
     /tmp/cc5xgKhq.s:6397   .debug_str:0000000000000e4f .LASF274
     /tmp/cc5xgKhq.s:6391   .debug_str:0000000000000e39 .LASF41
     /tmp/cc5xgKhq.s:6353   .debug_str:0000000000000cf8 .LASF42
     /tmp/cc5xgKhq.s:6035   .debug_str:00000000000002ed .LASF43
     /tmp/cc5xgKhq.s:6003   .debug_str:00000000000001d2 .LASF44
     /tmp/cc5xgKhq.s:6273   .debug_str:0000000000000a59 .LASF45
GAS LISTING /tmp/cc5xgKhq.s 			page 56


     /tmp/cc5xgKhq.s:6033   .debug_str:00000000000002e4 .LASF46
     /tmp/cc5xgKhq.s:6387   .debug_str:0000000000000e2b .LASF47
     /tmp/cc5xgKhq.s:6137   .debug_str:0000000000000612 .LASF48
     /tmp/cc5xgKhq.s:5973   .debug_str:00000000000000b2 .LASF54
     /tmp/cc5xgKhq.s:6423   .debug_str:0000000000000fc1 .LASF275
     /tmp/cc5xgKhq.s:6257   .debug_str:00000000000009e9 .LASF49
     /tmp/cc5xgKhq.s:6173   .debug_str:000000000000074c .LASF50
     /tmp/cc5xgKhq.s:6487   .debug_str:00000000000011e6 .LASF52
     /tmp/cc5xgKhq.s:6483   .debug_str:00000000000011ca .LASF51
     /tmp/cc5xgKhq.s:6409   .debug_str:0000000000000f40 .LASF53
     /tmp/cc5xgKhq.s:6063   .debug_str:00000000000003ba .LASF77
     /tmp/cc5xgKhq.s:5983   .debug_str:000000000000011d .LASF79
     /tmp/cc5xgKhq.s:6401   .debug_str:0000000000000e63 .LASF55
     /tmp/cc5xgKhq.s:6343   .debug_str:0000000000000ca3 .LASF56
     /tmp/cc5xgKhq.s:6181   .debug_str:0000000000000778 .LASF59
     /tmp/cc5xgKhq.s:6195   .debug_str:00000000000007de .LASF61
     /tmp/cc5xgKhq.s:6493   .debug_str:000000000000122b .LASF57
     /tmp/cc5xgKhq.s:6079   .debug_str:0000000000000416 .LASF58
     /tmp/cc5xgKhq.s:5965   .debug_str:000000000000007d .LASF103
     /tmp/cc5xgKhq.s:6153   .debug_str:0000000000000679 .LASF105
     /tmp/cc5xgKhq.s:6345   .debug_str:0000000000000cb4 .LASF60
     /tmp/cc5xgKhq.s:6231   .debug_str:0000000000000908 .LASF62
     /tmp/cc5xgKhq.s:6329   .debug_str:0000000000000c2a .LASF63
     /tmp/cc5xgKhq.s:6375   .debug_str:0000000000000dc1 .LASF64
     /tmp/cc5xgKhq.s:6233   .debug_str:000000000000091b .LASF65
     /tmp/cc5xgKhq.s:5959   .debug_str:000000000000003f .LASF66
     /tmp/cc5xgKhq.s:6473   .debug_str:0000000000001186 .LASF67
     /tmp/cc5xgKhq.s:6269   .debug_str:0000000000000a2c .LASF68
     /tmp/cc5xgKhq.s:6365   .debug_str:0000000000000d60 .LASF69
     /tmp/cc5xgKhq.s:6285   .debug_str:0000000000000a98 .LASF70
     /tmp/cc5xgKhq.s:6057   .debug_str:0000000000000398 .LASF71
     /tmp/cc5xgKhq.s:6101   .debug_str:00000000000004a5 .LASF72
     /tmp/cc5xgKhq.s:6311   .debug_str:0000000000000ba8 .LASF73
     /tmp/cc5xgKhq.s:6475   .debug_str:0000000000001195 .LASF74
     /tmp/cc5xgKhq.s:6477   .debug_str:00000000000011a4 .LASF75
     /tmp/cc5xgKhq.s:6159   .debug_str:00000000000006aa .LASF76
     /tmp/cc5xgKhq.s:6361   .debug_str:0000000000000d43 .LASF78
     /tmp/cc5xgKhq.s:6485   .debug_str:00000000000011d0 .LASF80
     /tmp/cc5xgKhq.s:6123   .debug_str:0000000000000570 .LASF81
     /tmp/cc5xgKhq.s:6053   .debug_str:0000000000000373 .LASF82
     /tmp/cc5xgKhq.s:6341   .debug_str:0000000000000c9b .LASF83
     /tmp/cc5xgKhq.s:6147   .debug_str:0000000000000655 .LASF84
     /tmp/cc5xgKhq.s:6241   .debug_str:0000000000000955 .LASF85
     /tmp/cc5xgKhq.s:6047   .debug_str:000000000000034b .LASF86
     /tmp/cc5xgKhq.s:6291   .debug_str:0000000000000ad9 .LASF87
     /tmp/cc5xgKhq.s:6503   .debug_str:0000000000001284 .LASF88
     /tmp/cc5xgKhq.s:6245   .debug_str:000000000000097e .LASF89
     /tmp/cc5xgKhq.s:6327   .debug_str:0000000000000c17 .LASF90
     /tmp/cc5xgKhq.s:6347   .debug_str:0000000000000cbd .LASF91
     /tmp/cc5xgKhq.s:6443   .debug_str:000000000000107e .LASF92
     /tmp/cc5xgKhq.s:6217   .debug_str:00000000000008a1 .LASF93
     /tmp/cc5xgKhq.s:6427   .debug_str:0000000000001003 .LASF94
     /tmp/cc5xgKhq.s:6373   .debug_str:0000000000000da1 .LASF95
     /tmp/cc5xgKhq.s:6263   .debug_str:0000000000000a00 .LASF96
     /tmp/cc5xgKhq.s:6247   .debug_str:000000000000099f .LASF97
     /tmp/cc5xgKhq.s:6071   .debug_str:00000000000003dd .LASF98
     /tmp/cc5xgKhq.s:6149   .debug_str:0000000000000669 .LASF99
GAS LISTING /tmp/cc5xgKhq.s 			page 57


     /tmp/cc5xgKhq.s:6221   .debug_str:00000000000008de .LASF100
     /tmp/cc5xgKhq.s:6411   .debug_str:0000000000000f50 .LASF101
     /tmp/cc5xgKhq.s:6103   .debug_str:00000000000004b5 .LASF102
     /tmp/cc5xgKhq.s:6481   .debug_str:00000000000011bc .LASF104
     /tmp/cc5xgKhq.s:5991   .debug_str:000000000000016c .LASF106
     /tmp/cc5xgKhq.s:6089   .debug_str:000000000000044a .LASF107
     /tmp/cc5xgKhq.s:6017   .debug_str:000000000000026c .LASF108
     /tmp/cc5xgKhq.s:6471   .debug_str:000000000000117f .LASF109
     /tmp/cc5xgKhq.s:6013   .debug_str:0000000000000236 .LASF110
     /tmp/cc5xgKhq.s:5963   .debug_str:0000000000000078 .LASF111
     /tmp/cc5xgKhq.s:6439   .debug_str:000000000000106d .LASF112
     /tmp/cc5xgKhq.s:6199   .debug_str:0000000000000810 .LASF113
     /tmp/cc5xgKhq.s:6069   .debug_str:00000000000003d7 .LASF114
     /tmp/cc5xgKhq.s:6421   .debug_str:0000000000000fb9 .LASF115
     /tmp/cc5xgKhq.s:6001   .debug_str:00000000000001c1 .LASF116
     /tmp/cc5xgKhq.s:6205   .debug_str:000000000000082c .LASF117
     /tmp/cc5xgKhq.s:6299   .debug_str:0000000000000b25 .LASF118
     /tmp/cc5xgKhq.s:6115   .debug_str:0000000000000514 .LASF119
     /tmp/cc5xgKhq.s:6323   .debug_str:0000000000000bff .LASF120
     /tmp/cc5xgKhq.s:6297   .debug_str:0000000000000b11 .LASF121
     /tmp/cc5xgKhq.s:6065   .debug_str:00000000000003c3 .LASF122
     /tmp/cc5xgKhq.s:6357   .debug_str:0000000000000d22 .LASF123
     /tmp/cc5xgKhq.s:6383   .debug_str:0000000000000e1e .LASF124
     /tmp/cc5xgKhq.s:6237   .debug_str:0000000000000933 .LASF125
     /tmp/cc5xgKhq.s:5955   .debug_str:000000000000000f .LASF126
     /tmp/cc5xgKhq.s:6325   .debug_str:0000000000000c0b .LASF127
     /tmp/cc5xgKhq.s:6211   .debug_str:000000000000084c .LASF128
     /tmp/cc5xgKhq.s:6317   .debug_str:0000000000000bcc .LASF129
     /tmp/cc5xgKhq.s:6029   .debug_str:00000000000002cf .LASF130
     /tmp/cc5xgKhq.s:6037   .debug_str:00000000000002f7 .LASF131
     /tmp/cc5xgKhq.s:6235   .debug_str:000000000000092a .LASF132
     /tmp/cc5xgKhq.s:6333   .debug_str:0000000000000c59 .LASF133
     /tmp/cc5xgKhq.s:5953   .debug_str:0000000000000000 .LASF134
     /tmp/cc5xgKhq.s:6131   .debug_str:00000000000005cf .LASF135
     /tmp/cc5xgKhq.s:6419   .debug_str:0000000000000faa .LASF136
     /tmp/cc5xgKhq.s:6377   .debug_str:0000000000000ddd .LASF137
     /tmp/cc5xgKhq.s:6349   .debug_str:0000000000000cdb .LASF138
     /tmp/cc5xgKhq.s:6045   .debug_str:0000000000000327 .LASF139
     /tmp/cc5xgKhq.s:6255   .debug_str:00000000000009d9 .LASF140
     /tmp/cc5xgKhq.s:6289   .debug_str:0000000000000ab6 .LASF141
     /tmp/cc5xgKhq.s:6253   .debug_str:00000000000009d3 .LASF142
     /tmp/cc5xgKhq.s:6497   .debug_str:0000000000001255 .LASF143
     /tmp/cc5xgKhq.s:5967   .debug_str:000000000000008d .LASF144
     /tmp/cc5xgKhq.s:6197   .debug_str:00000000000007f6 .LASF145
     /tmp/cc5xgKhq.s:6491   .debug_str:000000000000121b .LASF146
     /tmp/cc5xgKhq.s:6337   .debug_str:0000000000000c6b .LASF147
     /tmp/cc5xgKhq.s:6381   .debug_str:0000000000000e0b .LASF148
     /tmp/cc5xgKhq.s:6331   .debug_str:0000000000000c33 .LASF149
     /tmp/cc5xgKhq.s:6499   .debug_str:000000000000126d .LASF150
     /tmp/cc5xgKhq.s:6171   .debug_str:0000000000000728 .LASF151
     /tmp/cc5xgKhq.s:6239   .debug_str:000000000000094c .LASF152
     /tmp/cc5xgKhq.s:5999   .debug_str:00000000000001b1 .LASF153
     /tmp/cc5xgKhq.s:6415   .debug_str:0000000000000f6d .LASF154
     /tmp/cc5xgKhq.s:6339   .debug_str:0000000000000c8e .LASF155
     /tmp/cc5xgKhq.s:5961   .debug_str:0000000000000059 .LASF156
     /tmp/cc5xgKhq.s:6265   .debug_str:0000000000000a14 .LASF157
     /tmp/cc5xgKhq.s:6135   .debug_str:00000000000005fe .LASF158
GAS LISTING /tmp/cc5xgKhq.s 			page 58


     /tmp/cc5xgKhq.s:6259   .debug_str:00000000000009ee .LASF159
     /tmp/cc5xgKhq.s:6177   .debug_str:0000000000000764 .LASF160
     /tmp/cc5xgKhq.s:6283   .debug_str:0000000000000a8e .LASF161
     /tmp/cc5xgKhq.s:6445   .debug_str:0000000000001091 .LASF162
     /tmp/cc5xgKhq.s:6395   .debug_str:0000000000000e44 .LASF163
     /tmp/cc5xgKhq.s:6441   .debug_str:0000000000001072 .LASF164
     /tmp/cc5xgKhq.s:6453   .debug_str:00000000000010d8 .LASF165
     /tmp/cc5xgKhq.s:6225   .debug_str:00000000000008eb .LASF166
     /tmp/cc5xgKhq.s:6281   .debug_str:0000000000000a82 .LASF167
     /tmp/cc5xgKhq.s:6363   .debug_str:0000000000000d4e .LASF170
     /tmp/cc5xgKhq.s:6355   .debug_str:0000000000000d00 .LASF172
     /tmp/cc5xgKhq.s:6431   .debug_str:000000000000102a .LASF168
     /tmp/cc5xgKhq.s:6469   .debug_str:000000000000115d .LASF169
     /tmp/cc5xgKhq.s:6429   .debug_str:0000000000001018 .LASF171
     /tmp/cc5xgKhq.s:5975   .debug_str:00000000000000bd .LASF173
     /tmp/cc5xgKhq.s:6169   .debug_str:0000000000000715 .LASF174
     /tmp/cc5xgKhq.s:6011   .debug_str:0000000000000213 .LASF175
     /tmp/cc5xgKhq.s:6073   .debug_str:00000000000003e6 .LASF176
     /tmp/cc5xgKhq.s:6005   .debug_str:00000000000001db .LASF177
     /tmp/cc5xgKhq.s:5985   .debug_str:0000000000000130 .LASF178
     /tmp/cc5xgKhq.s:6451   .debug_str:00000000000010c9 .LASF179
     /tmp/cc5xgKhq.s:6219   .debug_str:00000000000008bf .LASF180
     /tmp/cc5xgKhq.s:6467   .debug_str:0000000000001144 .LASF181
     /tmp/cc5xgKhq.s:6161   .debug_str:00000000000006b7 .LASF182
     /tmp/cc5xgKhq.s:6185   .debug_str:000000000000078a .LASF183
     /tmp/cc5xgKhq.s:6489   .debug_str:00000000000011f2 .LASF184
     /tmp/cc5xgKhq.s:6097   .debug_str:0000000000000485 .LASF185
     /tmp/cc5xgKhq.s:6461   .debug_str:0000000000001114 .LASF186
     /tmp/cc5xgKhq.s:6105   .debug_str:00000000000004c1 .LASF187
     /tmp/cc5xgKhq.s:6479   .debug_str:00000000000011af .LASF188
     /tmp/cc5xgKhq.s:6127   .debug_str:000000000000059c .LASF189
     /tmp/cc5xgKhq.s:5977   .debug_str:00000000000000df .LASF190
     /tmp/cc5xgKhq.s:6189   .debug_str:00000000000007a7 .LASF191
     /tmp/cc5xgKhq.s:6251   .debug_str:00000000000009c7 .LASF192
     /tmp/cc5xgKhq.s:5987   .debug_str:000000000000014b .LASF193
     /tmp/cc5xgKhq.s:6407   .debug_str:0000000000000f39 .LASF194
     /tmp/cc5xgKhq.s:6385   .debug_str:0000000000000e25 .LASF195
     /tmp/cc5xgKhq.s:6315   .debug_str:0000000000000bbf .LASF196
     /tmp/cc5xgKhq.s:5969   .debug_str:0000000000000095 .LASF197
     /tmp/cc5xgKhq.s:6293   .debug_str:0000000000000af6 .LASF198
     /tmp/cc5xgKhq.s:6243   .debug_str:0000000000000974 .LASF199
     /tmp/cc5xgKhq.s:6077   .debug_str:000000000000040f .LASF200
     /tmp/cc5xgKhq.s:6163   .debug_str:00000000000006e0 .LASF201
     /tmp/cc5xgKhq.s:6229   .debug_str:0000000000000902 .LASF202
     /tmp/cc5xgKhq.s:6449   .debug_str:00000000000010bf .LASF203
     /tmp/cc5xgKhq.s:6295   .debug_str:0000000000000b03 .LASF204
     /tmp/cc5xgKhq.s:6279   .debug_str:0000000000000a74 .LASF205
     /tmp/cc5xgKhq.s:6165   .debug_str:00000000000006f1 .LASF206
     /tmp/cc5xgKhq.s:6463   .debug_str:0000000000001126 .LASF207
     /tmp/cc5xgKhq.s:6321   .debug_str:0000000000000bef .LASF209
     /tmp/cc5xgKhq.s:6305   .debug_str:0000000000000b60 .LASF211
     /tmp/cc5xgKhq.s:1512   .text:0000000000000864 .LFB23
     /tmp/cc5xgKhq.s:1680   .text:00000000000009d0 .LFE23
     /tmp/cc5xgKhq.s:6139   .debug_str:0000000000000618 .LASF213
     /tmp/cc5xgKhq.s:5267   .debug_loc:0000000000000000 .LLST42
     /tmp/cc5xgKhq.s:6267   .debug_str:0000000000000a27 .LASF208
     /tmp/cc5xgKhq.s:5285   .debug_loc:000000000000004c .LLST43
GAS LISTING /tmp/cc5xgKhq.s 			page 59


     /tmp/cc5xgKhq.s:1534   .text:0000000000000890 .LVL129
     /tmp/cc5xgKhq.s:1539   .text:00000000000008a0 .LVL130
     /tmp/cc5xgKhq.s:1544   .text:00000000000008ac .LVL131
     /tmp/cc5xgKhq.s:1549   .text:00000000000008bc .LVL132
     /tmp/cc5xgKhq.s:1554   .text:00000000000008cc .LVL133
     /tmp/cc5xgKhq.s:1561   .text:00000000000008e0 .LVL134
     /tmp/cc5xgKhq.s:1566   .text:00000000000008f0 .LVL135
     /tmp/cc5xgKhq.s:1571   .text:0000000000000900 .LVL136
     /tmp/cc5xgKhq.s:1578   .text:0000000000000914 .LVL137
     /tmp/cc5xgKhq.s:1583   .text:0000000000000924 .LVL138
     /tmp/cc5xgKhq.s:1588   .text:0000000000000934 .LVL139
     /tmp/cc5xgKhq.s:1593   .text:0000000000000944 .LVL140
     /tmp/cc5xgKhq.s:1606   .text:0000000000000958 .LVL142
     /tmp/cc5xgKhq.s:1618   .text:0000000000000970 .LVL144
     /tmp/cc5xgKhq.s:1631   .text:0000000000000984 .LVL146
     /tmp/cc5xgKhq.s:1643   .text:000000000000099c .LVL148
     /tmp/cc5xgKhq.s:1656   .text:00000000000009b0 .LVL150
     /tmp/cc5xgKhq.s:6009   .debug_str:0000000000000203 .LASF210
     /tmp/cc5xgKhq.s:6301   .debug_str:0000000000000b30 .LASF212
     /tmp/cc5xgKhq.s:1370   .text:0000000000000798 .LFB22
     /tmp/cc5xgKhq.s:1480   .text:0000000000000864 .LFE22
     /tmp/cc5xgKhq.s:5292   .debug_loc:000000000000006f .LLST38
     /tmp/cc5xgKhq.s:6193   .debug_str:00000000000007d9 .LASF214
     /tmp/cc5xgKhq.s:5314   .debug_loc:00000000000000ce .LLST39
     /tmp/cc5xgKhq.s:5336   .debug_loc:000000000000012d .LLST40
     /tmp/cc5xgKhq.s:6457   .debug_str:00000000000010ee .LASF215
     /tmp/cc5xgKhq.s:5347   .debug_loc:0000000000000163 .LLST41
     /tmp/cc5xgKhq.s:1393   .text:00000000000007c4 .LVL118
     /tmp/cc5xgKhq.s:1444   .text:0000000000000818 .LVL124
     /tmp/cc5xgKhq.s:1469   .text:000000000000084c .LVL125
     /tmp/cc5xgKhq.s:1477   .text:0000000000000860 .LVL126
     /tmp/cc5xgKhq.s:6049   .debug_str:000000000000035d .LASF217
     /tmp/cc5xgKhq.s:6141   .debug_str:000000000000061f .LASF219
     /tmp/cc5xgKhq.s:1111   .text:0000000000000600 .LFB21
     /tmp/cc5xgKhq.s:1260   .text:00000000000006e4 .LFE21
     /tmp/cc5xgKhq.s:5358   .debug_loc:0000000000000199 .LLST29
     /tmp/cc5xgKhq.s:5925   .debug_ranges:0000000000000000 .Ldebug_ranges0
     /tmp/cc5xgKhq.s:6085   .debug_str:0000000000000435 .LASF216
     /tmp/cc5xgKhq.s:5380   .debug_loc:00000000000001f8 .LLST32
     /tmp/cc5xgKhq.s:1174   .text:0000000000000660 .LVL91
     /tmp/cc5xgKhq.s:1182   .text:0000000000000670 .LVL94
     /tmp/cc5xgKhq.s:1214   .text:000000000000069c .LVL98
     /tmp/cc5xgKhq.s:1143   .text:000000000000062c .LBB15
     /tmp/cc5xgKhq.s:1168   .text:0000000000000658 .LBE15
     /tmp/cc5xgKhq.s:5395   .debug_loc:0000000000000241 .LLST30
     /tmp/cc5xgKhq.s:1147   .text:0000000000000634 .LVL85
     /tmp/cc5xgKhq.s:1155   .text:0000000000000644 .LVL88
     /tmp/cc5xgKhq.s:1162   .text:0000000000000654 .LVL89
     /tmp/cc5xgKhq.s:1222   .text:00000000000006a0 .LBB16
     /tmp/cc5xgKhq.s:1256   .text:00000000000006e4 .LBE16
     /tmp/cc5xgKhq.s:5406   .debug_loc:0000000000000277 .LLST31
     /tmp/cc5xgKhq.s:1227   .text:00000000000006ac .LVL100
     /tmp/cc5xgKhq.s:1237   .text:00000000000006c0 .LVL101
     /tmp/cc5xgKhq.s:1245   .text:00000000000006d0 .LVL104
     /tmp/cc5xgKhq.s:1252   .text:00000000000006e0 .LVL105
     /tmp/cc5xgKhq.s:6309   .debug_str:0000000000000b96 .LASF218
     /tmp/cc5xgKhq.s:6447   .debug_str:000000000000109c .LASF220
GAS LISTING /tmp/cc5xgKhq.s 			page 60


     /tmp/cc5xgKhq.s:1266   .text:00000000000006e4 .LFB20
     /tmp/cc5xgKhq.s:1364   .text:0000000000000798 .LFE20
     /tmp/cc5xgKhq.s:6183   .debug_str:0000000000000785 .LASF221
     /tmp/cc5xgKhq.s:5417   .debug_loc:00000000000002ad .LLST33
     /tmp/cc5xgKhq.s:6051   .debug_str:000000000000036e .LASF222
     /tmp/cc5xgKhq.s:5435   .debug_loc:00000000000002f9 .LLST34
     /tmp/cc5xgKhq.s:5453   .debug_loc:0000000000000345 .LLST35
     /tmp/cc5xgKhq.s:5471   .debug_loc:0000000000000391 .LLST36
     /tmp/cc5xgKhq.s:6369   .debug_str:0000000000000d84 .LASF223
     /tmp/cc5xgKhq.s:5489   .debug_loc:00000000000003dd .LLST37
     /tmp/cc5xgKhq.s:1298   .text:000000000000072c .LVL108
     /tmp/cc5xgKhq.s:1326   .text:000000000000075c .LVL110
     /tmp/cc5xgKhq.s:1334   .text:000000000000076c .LVL111
     /tmp/cc5xgKhq.s:6313   .debug_str:0000000000000bb5 .LASF224
     /tmp/cc5xgKhq.s:6465   .debug_str:0000000000001134 .LASF225
     /tmp/cc5xgKhq.s:1073   .text:00000000000005c8 .LFB19
     /tmp/cc5xgKhq.s:1105   .text:0000000000000600 .LFE19
     /tmp/cc5xgKhq.s:5995   .debug_str:00000000000001a5 .LASF226
     /tmp/cc5xgKhq.s:5496   .debug_loc:0000000000000400 .LLST26
     /tmp/cc5xgKhq.s:6501   .debug_str:000000000000127a .LASF227
     /tmp/cc5xgKhq.s:5510   .debug_loc:0000000000000439 .LLST27
     /tmp/cc5xgKhq.s:5524   .debug_loc:0000000000000472 .LLST28
     /tmp/cc5xgKhq.s:1088   .text:00000000000005e0 .LVL81
     /tmp/cc5xgKhq.s:1092   .text:00000000000005e8 .LVL82
     /tmp/cc5xgKhq.s:6399   .debug_str:0000000000000e55 .LASF228
     /tmp/cc5xgKhq.s:6435   .debug_str:000000000000104c .LASF230
     /tmp/cc5xgKhq.s:987    .text:0000000000000500 .LFB18
     /tmp/cc5xgKhq.s:1067   .text:00000000000005c8 .LFE18
     /tmp/cc5xgKhq.s:5531   .debug_loc:0000000000000495 .LLST25
     /tmp/cc5xgKhq.s:1007   .text:0000000000000528 .LVL70
     /tmp/cc5xgKhq.s:1014   .text:000000000000053c .LVL71
     /tmp/cc5xgKhq.s:1019   .text:000000000000054c .LVL72
     /tmp/cc5xgKhq.s:1024   .text:000000000000055c .LVL73
     /tmp/cc5xgKhq.s:1031   .text:0000000000000570 .LVL74
     /tmp/cc5xgKhq.s:1036   .text:0000000000000580 .LVL75
     /tmp/cc5xgKhq.s:1041   .text:0000000000000590 .LVL76
     /tmp/cc5xgKhq.s:1048   .text:00000000000005a4 .LVL77
     /tmp/cc5xgKhq.s:1053   .text:00000000000005b4 .LVL78
     /tmp/cc5xgKhq.s:6287   .debug_str:0000000000000aa4 .LASF229
     /tmp/cc5xgKhq.s:6215   .debug_str:0000000000000874 .LASF231
     /tmp/cc5xgKhq.s:897    .text:000000000000049c .LFB17
     /tmp/cc5xgKhq.s:967    .text:0000000000000500 .LFE17
     /tmp/cc5xgKhq.s:6067   .debug_str:00000000000003c8 .LASF232
     /tmp/cc5xgKhq.s:6425   .debug_str:0000000000000fd9 .LASF233
     /tmp/cc5xgKhq.s:821    .text:0000000000000438 .LFB16
     /tmp/cc5xgKhq.s:891    .text:000000000000049c .LFE16
     /tmp/cc5xgKhq.s:6371   .debug_str:0000000000000d8d .LASF234
     /tmp/cc5xgKhq.s:6125   .debug_str:000000000000057b .LASF235
     /tmp/cc5xgKhq.s:774    .text:00000000000003ec .LFB15
     /tmp/cc5xgKhq.s:815    .text:0000000000000438 .LFE15
     /tmp/cc5xgKhq.s:5549   .debug_loc:00000000000004e1 .LLST23
     /tmp/cc5xgKhq.s:5997   .debug_str:00000000000001ab .LASF236
     /tmp/cc5xgKhq.s:5563   .debug_loc:000000000000051a .LLST24
     /tmp/cc5xgKhq.s:6249   .debug_str:00000000000009be .LASF237
     /tmp/cc5xgKhq.s:6495   .debug_str:0000000000001238 .LASF240
     /tmp/cc5xgKhq.s:669    .text:000000000000036c .LFB14
     /tmp/cc5xgKhq.s:768    .text:00000000000003ec .LFE14
GAS LISTING /tmp/cc5xgKhq.s 			page 61


     /tmp/cc5xgKhq.s:5577   .debug_loc:0000000000000553 .LLST20
     /tmp/cc5xgKhq.s:6019   .debug_str:0000000000000298 .LASF238
     /tmp/cc5xgKhq.s:5588   .debug_loc:0000000000000589 .LLST21
     /tmp/cc5xgKhq.s:5599   .debug_loc:00000000000005bf .LLST22
     /tmp/cc5xgKhq.s:6307   .debug_str:0000000000000b83 .LASF239
     /tmp/cc5xgKhq.s:6459   .debug_str:00000000000010fc .LASF241
     /tmp/cc5xgKhq.s:579    .text:0000000000000304 .LFB13
     /tmp/cc5xgKhq.s:663    .text:000000000000036c .LFE13
     /tmp/cc5xgKhq.s:5610   .debug_loc:00000000000005f5 .LLST14
     /tmp/cc5xgKhq.s:6059   .debug_str:00000000000003a8 .LASF242
     /tmp/cc5xgKhq.s:5624   .debug_loc:000000000000062e .LLST15
     /tmp/cc5xgKhq.s:6081   .debug_str:0000000000000422 .LASF243
     /tmp/cc5xgKhq.s:5641   .debug_loc:000000000000067a .LLST16
     /tmp/cc5xgKhq.s:615    .text:000000000000032c .LBB7
     /tmp/cc5xgKhq.s:651    .text:000000000000035c .LBE7
     /tmp/cc5xgKhq.s:5652   .debug_loc:00000000000006b0 .LLST17
     /tmp/cc5xgKhq.s:628    .text:0000000000000340 .LBB8
     /tmp/cc5xgKhq.s:650    .text:000000000000035c .LBE8
     /tmp/cc5xgKhq.s:6277   .debug_str:0000000000000a6c .LASF244
     /tmp/cc5xgKhq.s:5664   .debug_loc:00000000000006e7 .LLST18
     /tmp/cc5xgKhq.s:6061   .debug_str:00000000000003b1 .LASF245
     /tmp/cc5xgKhq.s:5675   .debug_loc:000000000000071d .LLST19
     /tmp/cc5xgKhq.s:6133   .debug_str:00000000000005f1 .LASF246
     /tmp/cc5xgKhq.s:5981   .debug_str:00000000000000fd .LASF247
     /tmp/cc5xgKhq.s:470    .text:0000000000000264 .LFB12
     /tmp/cc5xgKhq.s:573    .text:0000000000000304 .LFE12
     /tmp/cc5xgKhq.s:5686   .debug_loc:0000000000000753 .LLST11
     /tmp/cc5xgKhq.s:6261   .debug_str:00000000000009f8 .LASF248
     /tmp/cc5xgKhq.s:6031   .debug_str:00000000000002d8 .LASF249
     /tmp/cc5xgKhq.s:5704   .debug_loc:000000000000079f .LLST12
     /tmp/cc5xgKhq.s:540    .text:00000000000002d4 .LBB6
     /tmp/cc5xgKhq.s:559    .text:00000000000002f0 .LBE6
     /tmp/cc5xgKhq.s:5729   .debug_loc:00000000000007f4 .LLST13
     /tmp/cc5xgKhq.s:494    .text:0000000000000298 .LVL32
     /tmp/cc5xgKhq.s:6155   .debug_str:0000000000000686 .LASF250
     /tmp/cc5xgKhq.s:6015   .debug_str:0000000000000247 .LASF251
     /tmp/cc5xgKhq.s:411    .text:000000000000021c .LFB11
     /tmp/cc5xgKhq.s:464    .text:0000000000000264 .LFE11
     /tmp/cc5xgKhq.s:5993   .debug_str:0000000000000194 .LASF252
     /tmp/cc5xgKhq.s:5957   .debug_str:000000000000001b .LASF253
     /tmp/cc5xgKhq.s:352    .text:00000000000001d4 .LFB10
     /tmp/cc5xgKhq.s:405    .text:000000000000021c .LFE10
     /tmp/cc5xgKhq.s:6039   .debug_str:0000000000000301 .LASF254
     /tmp/cc5xgKhq.s:6117   .debug_str:0000000000000528 .LASF255
     /tmp/cc5xgKhq.s:323    .text:00000000000001b4 .LFB9
     /tmp/cc5xgKhq.s:346    .text:00000000000001d4 .LFE9
     /tmp/cc5xgKhq.s:5741   .debug_loc:000000000000082b .LLST10
     /tmp/cc5xgKhq.s:6151   .debug_str:0000000000000674 .LASF256
     /tmp/cc5xgKhq.s:6041   .debug_str:0000000000000307 .LASF257
     /tmp/cc5xgKhq.s:291    .text:000000000000018c .LFB8
     /tmp/cc5xgKhq.s:317    .text:00000000000001b4 .LFE8
     /tmp/cc5xgKhq.s:5755   .debug_loc:0000000000000864 .LLST9
     /tmp/cc5xgKhq.s:6207   .debug_str:0000000000000831 .LASF258
     /tmp/cc5xgKhq.s:6417   .debug_str:0000000000000f8f .LASF259
     /tmp/cc5xgKhq.s:165    .text:00000000000000d4 .LFB7
     /tmp/cc5xgKhq.s:285    .text:000000000000018c .LFE7
     /tmp/cc5xgKhq.s:5769   .debug_loc:000000000000089d .LLST4
GAS LISTING /tmp/cc5xgKhq.s 			page 62


     /tmp/cc5xgKhq.s:5788   .debug_loc:00000000000008f9 .LLST5
     /tmp/cc5xgKhq.s:6007   .debug_str:00000000000001fe .LASF260
     /tmp/cc5xgKhq.s:5811   .debug_loc:0000000000000959 .LLST6
     /tmp/cc5xgKhq.s:180    .text:00000000000000e4 .LBB3
     /tmp/cc5xgKhq.s:238    .text:0000000000000138 .LBE3
     /tmp/cc5xgKhq.s:5832   .debug_loc:00000000000009b7 .LLST7
     /tmp/cc5xgKhq.s:6223   .debug_str:00000000000008e6 .LASF261
     /tmp/cc5xgKhq.s:5848   .debug_loc:0000000000000a01 .LLST8
     /tmp/cc5xgKhq.s:6213   .debug_str:0000000000000860 .LASF262
     /tmp/cc5xgKhq.s:6121   .debug_str:0000000000000547 .LASF263
     /tmp/cc5xgKhq.s:57     .text:000000000000002c .LFB6
     /tmp/cc5xgKhq.s:159    .text:00000000000000d4 .LFE6
     /tmp/cc5xgKhq.s:5855   .debug_loc:0000000000000a24 .LLST1
     /tmp/cc5xgKhq.s:6413   .debug_str:0000000000000f5a .LASF264
     /tmp/cc5xgKhq.s:5878   .debug_loc:0000000000000a86 .LLST2
     /tmp/cc5xgKhq.s:86     .text:0000000000000054 .LBB2
     /tmp/cc5xgKhq.s:105    .text:0000000000000078 .LBE2
     /tmp/cc5xgKhq.s:5889   .debug_loc:0000000000000abc .LLST3
     /tmp/cc5xgKhq.s:111    .text:000000000000008c .LVL7
     /tmp/cc5xgKhq.s:6437   .debug_str:0000000000001066 .LASF265
     /tmp/cc5xgKhq.s:6055   .debug_str:0000000000000389 .LASF266
     /tmp/cc5xgKhq.s:10     .text:0000000000000000 .LFB5
     /tmp/cc5xgKhq.s:46     .text:000000000000002c .LFE5
     /tmp/cc5xgKhq.s:5901   .debug_loc:0000000000000af3 .LLST0
     /tmp/cc5xgKhq.s:5979   .debug_str:00000000000000eb .LASF267
     /tmp/cc5xgKhq.s:6021   .debug_str:00000000000002a0 .LASF269
     /tmp/cc5xgKhq.s:6129   .debug_str:00000000000005ad .LASF268
     /tmp/cc5xgKhq.s:6351   .debug_str:0000000000000cec .LASF270
     /tmp/cc5xgKhq.s:1515   .text:0000000000000864 .LVL127
     /tmp/cc5xgKhq.s:1532   .text:0000000000000888 .LVL128
     /tmp/cc5xgKhq.s:1675   .text:00000000000009c8 .LVL153
     /tmp/cc5xgKhq.s:1597   .text:0000000000000948 .LVL141
     /tmp/cc5xgKhq.s:1672   .text:00000000000009c4 .LVL152
     /tmp/cc5xgKhq.s:1373   .text:0000000000000798 .LVL117
     /tmp/cc5xgKhq.s:1434   .text:0000000000000808 .LVL122
     /tmp/cc5xgKhq.s:1438   .text:0000000000000810 .LVL123
     /tmp/cc5xgKhq.s:1431   .text:0000000000000804 .LVL121
     /tmp/cc5xgKhq.s:1418   .text:00000000000007f4 .LVL120
     /tmp/cc5xgKhq.s:1409   .text:00000000000007e4 .LVL119
     /tmp/cc5xgKhq.s:1114   .text:0000000000000600 .LVL83
     /tmp/cc5xgKhq.s:1132   .text:0000000000000620 .LVL84
     /tmp/cc5xgKhq.s:1199   .text:0000000000000684 .LVL96
     /tmp/cc5xgKhq.s:1205   .text:0000000000000690 .LVL97
     /tmp/cc5xgKhq.s:1176   .text:0000000000000664 .LVL92
     /tmp/cc5xgKhq.s:1180   .text:0000000000000668 .LVL93
     /tmp/cc5xgKhq.s:1185   .text:0000000000000674 .LVL95
     /tmp/cc5xgKhq.s:1218   .text:00000000000006a0 .LVL99
     /tmp/cc5xgKhq.s:1149   .text:0000000000000638 .LVL86
     /tmp/cc5xgKhq.s:1153   .text:000000000000063c .LVL87
     /tmp/cc5xgKhq.s:1166   .text:0000000000000658 .LVL90
     /tmp/cc5xgKhq.s:1239   .text:00000000000006c4 .LVL102
     /tmp/cc5xgKhq.s:1243   .text:00000000000006c8 .LVL103
     /tmp/cc5xgKhq.s:1269   .text:00000000000006e4 .LVL106
     /tmp/cc5xgKhq.s:1295   .text:0000000000000720 .LVL107
     /tmp/cc5xgKhq.s:1353   .text:0000000000000788 .LVL114
     /tmp/cc5xgKhq.s:1350   .text:0000000000000784 .LVL113
     /tmp/cc5xgKhq.s:1356   .text:000000000000078c .LVL115
GAS LISTING /tmp/cc5xgKhq.s 			page 63


     /tmp/cc5xgKhq.s:1359   .text:0000000000000790 .LVL116
     /tmp/cc5xgKhq.s:1300   .text:0000000000000730 .LVL109
     /tmp/cc5xgKhq.s:1347   .text:0000000000000780 .LVL112
     /tmp/cc5xgKhq.s:1076   .text:00000000000005c8 .LVL80
     /tmp/cc5xgKhq.s:990    .text:0000000000000500 .LVL68
     /tmp/cc5xgKhq.s:1005   .text:0000000000000520 .LVL69
     /tmp/cc5xgKhq.s:1062   .text:00000000000005c0 .LVL79
     /tmp/cc5xgKhq.s:777    .text:00000000000003ec .LVL63
     /tmp/cc5xgKhq.s:793    .text:000000000000040c .LVL65
     /tmp/cc5xgKhq.s:789    .text:0000000000000404 .LVL64
     /tmp/cc5xgKhq.s:672    .text:000000000000036c .LVL53
     /tmp/cc5xgKhq.s:683    .text:0000000000000380 .LVL54
     /tmp/cc5xgKhq.s:685    .text:0000000000000384 .LVL55
     /tmp/cc5xgKhq.s:691    .text:0000000000000388 .LVL56
     /tmp/cc5xgKhq.s:711    .text:00000000000003a4 .LVL57
     /tmp/cc5xgKhq.s:716    .text:00000000000003ac .LVL58
     /tmp/cc5xgKhq.s:734    .text:00000000000003c0 .LVL60
     /tmp/cc5xgKhq.s:740    .text:00000000000003c4 .LVL61
     /tmp/cc5xgKhq.s:760    .text:00000000000003e0 .LVL62
     /tmp/cc5xgKhq.s:582    .text:0000000000000304 .LVL40
     /tmp/cc5xgKhq.s:655    .text:0000000000000360 .LVL52
     /tmp/cc5xgKhq.s:590    .text:0000000000000310 .LVL41
     /tmp/cc5xgKhq.s:593    .text:0000000000000314 .LVL42
     /tmp/cc5xgKhq.s:646    .text:0000000000000358 .LVL50
     /tmp/cc5xgKhq.s:648    .text:000000000000035c .LVL51
     /tmp/cc5xgKhq.s:613    .text:000000000000032c .LVL44
     /tmp/cc5xgKhq.s:643    .text:0000000000000354 .LVL49
     /tmp/cc5xgKhq.s:619    .text:0000000000000334 .LVL45
     /tmp/cc5xgKhq.s:623    .text:0000000000000338 .LVL46
     /tmp/cc5xgKhq.s:632    .text:0000000000000344 .LVL47
     /tmp/cc5xgKhq.s:638    .text:000000000000034c .LVL48
     /tmp/cc5xgKhq.s:473    .text:0000000000000264 .LVL30
     /tmp/cc5xgKhq.s:492    .text:0000000000000290 .LVL31
     /tmp/cc5xgKhq.s:568    .text:00000000000002fc .LVL39
     /tmp/cc5xgKhq.s:526    .text:00000000000002c4 .LVL33
     /tmp/cc5xgKhq.s:530    .text:00000000000002c8 .LVL34
     /tmp/cc5xgKhq.s:535    .text:00000000000002d0 .LVL35
     /tmp/cc5xgKhq.s:538    .text:00000000000002d4 .LVL36
     /tmp/cc5xgKhq.s:543    .text:00000000000002d8 .LVL37
     /tmp/cc5xgKhq.s:326    .text:00000000000001b4 .LVL24
     /tmp/cc5xgKhq.s:336    .text:00000000000001c4 .LVL25
     /tmp/cc5xgKhq.s:294    .text:000000000000018c .LVL22
     /tmp/cc5xgKhq.s:306    .text:00000000000001a0 .LVL23
     /tmp/cc5xgKhq.s:168    .text:00000000000000d4 .LVL10
     /tmp/cc5xgKhq.s:218    .text:000000000000011c .LVL15
     /tmp/cc5xgKhq.s:235    .text:0000000000000138 .LVL18
     /tmp/cc5xgKhq.s:241    .text:000000000000013c .LVL19
     /tmp/cc5xgKhq.s:177    .text:00000000000000e4 .LVL11
     /tmp/cc5xgKhq.s:232    .text:0000000000000134 .LVL17
     /tmp/cc5xgKhq.s:244    .text:0000000000000140 .LVL20
     /tmp/cc5xgKhq.s:253    .text:0000000000000150 .LVL21
     /tmp/cc5xgKhq.s:228    .text:0000000000000130 .LVL16
     /tmp/cc5xgKhq.s:183    .text:00000000000000e8 .LVL12
     /tmp/cc5xgKhq.s:197    .text:00000000000000fc .LVL13
     /tmp/cc5xgKhq.s:60     .text:000000000000002c .LVL2
     /tmp/cc5xgKhq.s:90     .text:000000000000005c .LVL5
     /tmp/cc5xgKhq.s:151    .text:00000000000000c8 .LVL8
GAS LISTING /tmp/cc5xgKhq.s 			page 64


     /tmp/cc5xgKhq.s:154    .text:00000000000000cc .LVL9
     /tmp/cc5xgKhq.s:77     .text:000000000000004c .LVL3
     /tmp/cc5xgKhq.s:85     .text:0000000000000054 .LVL4
     /tmp/cc5xgKhq.s:14     .text:0000000000000000 .LVL0
     /tmp/cc5xgKhq.s:34     .text:000000000000001c .LVL1
     /tmp/cc5xgKhq.s:1698   .debug_info:0000000000000000 .Ldebug_info0
     /tmp/cc5xgKhq.s:190    .text:00000000000000f0 .LBB4
     /tmp/cc5xgKhq.s:208    .text:0000000000000110 .LBE4
     /tmp/cc5xgKhq.s:214    .text:0000000000000118 .LBB5
     /tmp/cc5xgKhq.s:237    .text:0000000000000138 .LBE5
     /tmp/cc5xgKhq.s:687    .text:0000000000000384 .LBB9
     /tmp/cc5xgKhq.s:693    .text:0000000000000388 .LBE9
     /tmp/cc5xgKhq.s:697    .text:000000000000038c .LBB10
     /tmp/cc5xgKhq.s:718    .text:00000000000003ac .LBE10
     /tmp/cc5xgKhq.s:736    .text:00000000000003c0 .LBB11
     /tmp/cc5xgKhq.s:742    .text:00000000000003c4 .LBE11
     /tmp/cc5xgKhq.s:746    .text:00000000000003c8 .LBB12
     /tmp/cc5xgKhq.s:766    .text:00000000000003ec .LBE12
     /tmp/cc5xgKhq.s:1170   .text:0000000000000658 .LBB17
     /tmp/cc5xgKhq.s:1187   .text:0000000000000674 .LBE17
     /tmp/cc5xgKhq.s:1209   .text:0000000000000690 .LBB18
     /tmp/cc5xgKhq.s:1220   .text:00000000000006a0 .LBE18

UNDEFINED SYMBOLS
_Z11buddy_allocP14buddyAllocatorm
_ZN8KConsole15trapPrintStringEPKc
_ZN8KConsole12trapPrintIntEmii
_Z10buddy_initPvm
