GAS LISTING /tmp/cc4hJLoc.s 			page 1


   1              		.file	"slabTests.cpp"
   2              		.option pic
   3              		.option norelax
   4              		.text
   5              	.Ltext0:
   6              		.align	2
   7              		.globl	_Z12slabInitTestv
   9              	_Z12slabInitTestv:
  10              	.LFB0:
  11              		.file 1 "src/slabTests.cpp"
   1:src/slabTests.cpp **** #include "../h/slabTests.hpp"
   2:src/slabTests.cpp **** 
   3:src/slabTests.cpp **** void slabInitTest()
   4:src/slabTests.cpp **** {
  12              		.loc 1 4 1
  13              		.cfi_startproc
  14 0000 130101FF 		addi	sp,sp,-16
  15              		.cfi_def_cfa_offset 16
  16 0004 23341100 		sd	ra,8(sp)
  17 0008 23308100 		sd	s0,0(sp)
  18              		.cfi_offset 1, -8
  19              		.cfi_offset 8, -16
  20 000c 13040101 		addi	s0,sp,16
  21              		.cfi_def_cfa 8, 0
   5:src/slabTests.cpp ****     kmem_init((void*)HEAP_START_ADDR, 15);
  22              		.loc 1 5 5
  23              		.loc 1 5 14 is_stmt 0
  24 0010 9305F000 		li	a1,15
  25 0014 97070000 		la	a5,HEAP_START_ADDR
  25      83B70700 
  26 001c 03B50700 		ld	a0,0(a5)
  27 0020 97000000 		call	_Z9kmem_initPvi@plt
  27      E7800000 
  28              	.LVL0:
   6:src/slabTests.cpp **** }
  29              		.loc 1 6 1
  30 0028 83308100 		ld	ra,8(sp)
  31              		.cfi_restore 1
  32 002c 03340100 		ld	s0,0(sp)
  33              		.cfi_restore 8
  34              		.cfi_def_cfa 2, 16
  35 0030 13010101 		addi	sp,sp,16
  36              		.cfi_def_cfa_offset 0
  37 0034 67800000 		jr	ra
  38              		.cfi_endproc
  39              	.LFE0:
  41              		.section	.rodata.str1.8,"aMS",@progbits,1
  42              		.align	3
  43              	.LC0:
  44 0000 43616368 		.string	"Cache test"
  44      65207465 
  44      737400
  45 000b 00000000 		.align	3
  45      00
  46              	.LC1:
  47 0010 43616368 		.string	"Cache test 2"
  47      65207465 
GAS LISTING /tmp/cc4hJLoc.s 			page 2


  47      73742032 
  47      00
  48 001d 000000   		.align	3
  49              	.LC2:
  50 0020 43616368 		.string	"Cache test 3"
  50      65207465 
  50      73742033 
  50      00
  51              		.text
  52              		.align	2
  53              		.globl	_Z19slabCacheCreateTestv
  55              	_Z19slabCacheCreateTestv:
  56              	.LFB1:
   7:src/slabTests.cpp **** 
   8:src/slabTests.cpp **** void slabCacheCreateTest()
   9:src/slabTests.cpp **** {
  57              		.loc 1 9 1 is_stmt 1
  58              		.cfi_startproc
  59 0038 130101FE 		addi	sp,sp,-32
  60              		.cfi_def_cfa_offset 32
  61 003c 233C1100 		sd	ra,24(sp)
  62 0040 23388100 		sd	s0,16(sp)
  63 0044 23349100 		sd	s1,8(sp)
  64 0048 23302101 		sd	s2,0(sp)
  65              		.cfi_offset 1, -8
  66              		.cfi_offset 8, -16
  67              		.cfi_offset 9, -24
  68              		.cfi_offset 18, -32
  69 004c 13040102 		addi	s0,sp,32
  70              		.cfi_def_cfa 8, 0
  10:src/slabTests.cpp ****     kmem_init((void*)HEAP_START_ADDR, 15);
  71              		.loc 1 10 5
  72              		.loc 1 10 14 is_stmt 0
  73 0050 9305F000 		li	a1,15
  74 0054 97070000 		la	a5,HEAP_START_ADDR
  74      83B70700 
  75 005c 03B50700 		ld	a0,0(a5)
  76 0060 97000000 		call	_Z9kmem_initPvi@plt
  76      E7800000 
  77              	.LVL1:
  11:src/slabTests.cpp ****     kmem_cache_t* cache = kmem_cache_create("Cache test", 10, nullptr,nullptr);
  78              		.loc 1 11 5 is_stmt 1
  79              		.loc 1 11 44 is_stmt 0
  80 0068 93060000 		li	a3,0
  81 006c 13060000 		li	a2,0
  82 0070 9305A000 		li	a1,10
  83 0074 17050000 		lla	a0,.LC0
  83      13050500 
  84 007c 97000000 		call	_Z17kmem_cache_createPKcmPFvPvES3_@plt
  84      E7800000 
  85              	.LVL2:
  86 0084 93040500 		mv	s1,a0
  87              	.LVL3:
  12:src/slabTests.cpp ****     kmem_cache_t* cache2 = kmem_cache_create("Cache test 2", 10, nullptr,nullptr);
  88              		.loc 1 12 5 is_stmt 1
  89              		.loc 1 12 45 is_stmt 0
  90 0088 93060000 		li	a3,0
GAS LISTING /tmp/cc4hJLoc.s 			page 3


  91 008c 13060000 		li	a2,0
  92 0090 9305A000 		li	a1,10
  93 0094 17050000 		lla	a0,.LC1
  93      13050500 
  94 009c 97000000 		call	_Z17kmem_cache_createPKcmPFvPvES3_@plt
  94      E7800000 
  95              	.LVL4:
  96 00a4 13090500 		mv	s2,a0
  97              	.LVL5:
  13:src/slabTests.cpp ****     kmem_cache_t* cache3 = kmem_cache_create("Cache test 3", 10, nullptr,nullptr);
  98              		.loc 1 13 5 is_stmt 1
  99              		.loc 1 13 45 is_stmt 0
 100 00a8 93060000 		li	a3,0
 101 00ac 13060000 		li	a2,0
 102 00b0 9305A000 		li	a1,10
 103 00b4 17050000 		lla	a0,.LC2
 103      13050500 
 104              	.LVL6:
 105 00bc 97000000 		call	_Z17kmem_cache_createPKcmPFvPvES3_@plt
 105      E7800000 
 106              	.LVL7:
  14:src/slabTests.cpp ****     if(cache && cache2 && cache3)
 107              		.loc 1 14 5 is_stmt 1
 108 00c4 638A0400 		beqz	s1,.L3
 109              		.loc 1 14 14 is_stmt 0 discriminator 1
 110 00c8 63080900 		beqz	s2,.L3
 111              		.loc 1 14 24 discriminator 2
 112 00cc 63060500 		beqz	a0,.L3
  15:src/slabTests.cpp ****         printSlabAllocatorInfo();
 113              		.loc 1 15 9 is_stmt 1
 114              		.loc 1 15 31 is_stmt 0
 115 00d0 97000000 		call	_Z22printSlabAllocatorInfov@plt
 115      E7800000 
 116              	.LVL8:
 117              	.L3:
  16:src/slabTests.cpp **** }
 118              		.loc 1 16 1
 119 00d8 83308101 		ld	ra,24(sp)
 120              		.cfi_restore 1
 121 00dc 03340101 		ld	s0,16(sp)
 122              		.cfi_restore 8
 123              		.cfi_def_cfa 2, 32
 124 00e0 83348100 		ld	s1,8(sp)
 125              		.cfi_restore 9
 126              	.LVL9:
 127 00e4 03390100 		ld	s2,0(sp)
 128              		.cfi_restore 18
 129              	.LVL10:
 130 00e8 13010102 		addi	sp,sp,32
 131              		.cfi_def_cfa_offset 0
 132 00ec 67800000 		jr	ra
 133              		.cfi_endproc
 134              	.LFE1:
 136              		.align	2
 137              		.globl	_Z20slabCacheCreateTest2v
 139              	_Z20slabCacheCreateTest2v:
 140              	.LFB2:
GAS LISTING /tmp/cc4hJLoc.s 			page 4


  17:src/slabTests.cpp **** 
  18:src/slabTests.cpp **** void slabCacheCreateTest2()
  19:src/slabTests.cpp **** {
 141              		.loc 1 19 1 is_stmt 1
 142              		.cfi_startproc
 143 00f0 130101FE 		addi	sp,sp,-32
 144              		.cfi_def_cfa_offset 32
 145 00f4 233C1100 		sd	ra,24(sp)
 146 00f8 23388100 		sd	s0,16(sp)
 147 00fc 23349100 		sd	s1,8(sp)
 148 0100 23302101 		sd	s2,0(sp)
 149              		.cfi_offset 1, -8
 150              		.cfi_offset 8, -16
 151              		.cfi_offset 9, -24
 152              		.cfi_offset 18, -32
 153 0104 13040102 		addi	s0,sp,32
 154              		.cfi_def_cfa 8, 0
  20:src/slabTests.cpp ****     kmem_init((void*)HEAP_START_ADDR, 15);
 155              		.loc 1 20 5
 156              		.loc 1 20 14 is_stmt 0
 157 0108 9305F000 		li	a1,15
 158 010c 97070000 		la	a5,HEAP_START_ADDR
 158      83B70700 
 159 0114 03B50700 		ld	a0,0(a5)
 160 0118 97000000 		call	_Z9kmem_initPvi@plt
 160      E7800000 
 161              	.LVL11:
  21:src/slabTests.cpp ****     kmem_cache_t * cache = nullptr;
 162              		.loc 1 21 5 is_stmt 1
  22:src/slabTests.cpp ****     for(int i = 1;i<=68;i++)
 163              		.loc 1 22 5
 164              	.LBB2:
 165              		.loc 1 22 13 is_stmt 0
 166 0120 93041000 		li	s1,1
 167              	.LBE2:
  21:src/slabTests.cpp ****     kmem_cache_t * cache = nullptr;
 168              		.loc 1 21 20
 169 0124 13090000 		li	s2,0
 170              	.LVL12:
 171              	.L8:
 172              	.LBB3:
 173              		.loc 1 22 20 is_stmt 1 discriminator 3
 174 0128 93074004 		li	a5,68
 175 012c 63C69702 		bgt	s1,a5,.L7
  23:src/slabTests.cpp ****     {
  24:src/slabTests.cpp ****         cache = kmem_cache_create("Cache test", 10, nullptr,nullptr);
 176              		.loc 1 24 9 discriminator 2
 177              		.loc 1 24 34 is_stmt 0 discriminator 2
 178 0130 93060000 		li	a3,0
 179 0134 13060000 		li	a2,0
 180 0138 9305A000 		li	a1,10
 181 013c 17050000 		lla	a0,.LC0
 181      13050500 
 182 0144 97000000 		call	_Z17kmem_cache_createPKcmPFvPvES3_@plt
 182      E7800000 
 183              	.LVL13:
 184 014c 13090500 		mv	s2,a0
GAS LISTING /tmp/cc4hJLoc.s 			page 5


 185              	.LVL14:
  22:src/slabTests.cpp ****     for(int i = 1;i<=68;i++)
 186              		.loc 1 22 5 is_stmt 1 discriminator 2
 187 0150 9B841400 		addiw	s1,s1,1
 188              	.LVL15:
 189 0154 6FF05FFD 		j	.L8
 190              	.LVL16:
 191              	.L7:
 192              	.LBE3:
  25:src/slabTests.cpp ****     }
  26:src/slabTests.cpp ****     printSlabAllocatorInfo();
 193              		.loc 1 26 5
 194              		.loc 1 26 27 is_stmt 0
 195 0158 97000000 		call	_Z22printSlabAllocatorInfov@plt
 195      E7800000 
 196              	.LVL17:
  27:src/slabTests.cpp ****     kmem_cache_destroy(cache);
 197              		.loc 1 27 5 is_stmt 1
 198              		.loc 1 27 23 is_stmt 0
 199 0160 13050900 		mv	a0,s2
 200 0164 97000000 		call	_Z18kmem_cache_destroyP12kmem_cache_s@plt
 200      E7800000 
 201              	.LVL18:
  28:src/slabTests.cpp ****     printSlabAllocatorInfo();
 202              		.loc 1 28 5 is_stmt 1
 203              		.loc 1 28 27 is_stmt 0
 204 016c 97000000 		call	_Z22printSlabAllocatorInfov@plt
 204      E7800000 
 205              	.LVL19:
  29:src/slabTests.cpp **** }...
 206              		.loc 1 29 1
 207 0174 83308101 		ld	ra,24(sp)
 208              		.cfi_restore 1
 209 0178 03340101 		ld	s0,16(sp)
 210              		.cfi_restore 8
 211              		.cfi_def_cfa 2, 32
 212 017c 83348100 		ld	s1,8(sp)
 213              		.cfi_restore 9
 214              	.LVL20:
 215 0180 03390100 		ld	s2,0(sp)
 216              		.cfi_restore 18
 217              	.LVL21:
 218 0184 13010102 		addi	sp,sp,32
 219              		.cfi_def_cfa_offset 0
 220 0188 67800000 		jr	ra
 221              		.cfi_endproc
 222              	.LFE2:
 224              	.Letext0:
 225              		.file 2 "src/../h/../lib/hw.h"
 226              		.file 3 "src/../h/slabAllocator.hpp"
GAS LISTING /tmp/cc4hJLoc.s 			page 6


DEFINED SYMBOLS
                            *ABS*:0000000000000000 slabTests.cpp
     /tmp/cc4hJLoc.s:9      .text:0000000000000000 _Z12slabInitTestv
     /tmp/cc4hJLoc.s:13     .text:0000000000000000 .L0 
     /tmp/cc4hJLoc.s:14     .text:0000000000000000 .L0 
     /tmp/cc4hJLoc.s:15     .text:0000000000000004 .L0 
     /tmp/cc4hJLoc.s:18     .text:000000000000000c .L0 
     /tmp/cc4hJLoc.s:19     .text:000000000000000c .L0 
     /tmp/cc4hJLoc.s:21     .text:0000000000000010 .L0 
     /tmp/cc4hJLoc.s:23     .text:0000000000000010 .L0 
     /tmp/cc4hJLoc.s:24     .text:0000000000000010 .L0 
     /tmp/cc4hJLoc.s:30     .text:0000000000000028 .L0 
     /tmp/cc4hJLoc.s:31     .text:000000000000002c .L0 
     /tmp/cc4hJLoc.s:33     .text:0000000000000030 .L0 
     /tmp/cc4hJLoc.s:34     .text:0000000000000030 .L0 
     /tmp/cc4hJLoc.s:36     .text:0000000000000034 .L0 
     /tmp/cc4hJLoc.s:38     .text:0000000000000038 .L0 
     /tmp/cc4hJLoc.s:55     .text:0000000000000038 _Z19slabCacheCreateTestv
     /tmp/cc4hJLoc.s:58     .text:0000000000000038 .L0 
     /tmp/cc4hJLoc.s:59     .text:0000000000000038 .L0 
     /tmp/cc4hJLoc.s:60     .text:000000000000003c .L0 
     /tmp/cc4hJLoc.s:65     .text:000000000000004c .L0 
     /tmp/cc4hJLoc.s:66     .text:000000000000004c .L0 
     /tmp/cc4hJLoc.s:67     .text:000000000000004c .L0 
     /tmp/cc4hJLoc.s:68     .text:000000000000004c .L0 
     /tmp/cc4hJLoc.s:70     .text:0000000000000050 .L0 
     /tmp/cc4hJLoc.s:72     .text:0000000000000050 .L0 
     /tmp/cc4hJLoc.s:73     .text:0000000000000050 .L0 
     /tmp/cc4hJLoc.s:79     .text:0000000000000068 .L0 
     /tmp/cc4hJLoc.s:80     .text:0000000000000068 .L0 
     /tmp/cc4hJLoc.s:89     .text:0000000000000088 .L0 
     /tmp/cc4hJLoc.s:90     .text:0000000000000088 .L0 
     /tmp/cc4hJLoc.s:99     .text:00000000000000a8 .L0 
     /tmp/cc4hJLoc.s:100    .text:00000000000000a8 .L0 
     /tmp/cc4hJLoc.s:108    .text:00000000000000c4 .L0 
     /tmp/cc4hJLoc.s:110    .text:00000000000000c8 .L0 
     /tmp/cc4hJLoc.s:112    .text:00000000000000cc .L0 
     /tmp/cc4hJLoc.s:114    .text:00000000000000d0 .L0 
     /tmp/cc4hJLoc.s:115    .text:00000000000000d0 .L0 
     /tmp/cc4hJLoc.s:119    .text:00000000000000d8 .L0 
     /tmp/cc4hJLoc.s:120    .text:00000000000000dc .L0 
     /tmp/cc4hJLoc.s:122    .text:00000000000000e0 .L0 
     /tmp/cc4hJLoc.s:123    .text:00000000000000e0 .L0 
     /tmp/cc4hJLoc.s:125    .text:00000000000000e4 .L0 
     /tmp/cc4hJLoc.s:128    .text:00000000000000e8 .L0 
     /tmp/cc4hJLoc.s:131    .text:00000000000000ec .L0 
     /tmp/cc4hJLoc.s:133    .text:00000000000000f0 .L0 
     /tmp/cc4hJLoc.s:139    .text:00000000000000f0 _Z20slabCacheCreateTest2v
     /tmp/cc4hJLoc.s:142    .text:00000000000000f0 .L0 
     /tmp/cc4hJLoc.s:143    .text:00000000000000f0 .L0 
     /tmp/cc4hJLoc.s:144    .text:00000000000000f4 .L0 
     /tmp/cc4hJLoc.s:149    .text:0000000000000104 .L0 
     /tmp/cc4hJLoc.s:150    .text:0000000000000104 .L0 
     /tmp/cc4hJLoc.s:151    .text:0000000000000104 .L0 
     /tmp/cc4hJLoc.s:152    .text:0000000000000104 .L0 
     /tmp/cc4hJLoc.s:154    .text:0000000000000108 .L0 
     /tmp/cc4hJLoc.s:156    .text:0000000000000108 .L0 
GAS LISTING /tmp/cc4hJLoc.s 			page 7


     /tmp/cc4hJLoc.s:157    .text:0000000000000108 .L0 
     /tmp/cc4hJLoc.s:163    .text:0000000000000120 .L0 
     /tmp/cc4hJLoc.s:165    .text:0000000000000120 .L0 
     /tmp/cc4hJLoc.s:166    .text:0000000000000120 .L0 
     /tmp/cc4hJLoc.s:169    .text:0000000000000124 .L0 
     /tmp/cc4hJLoc.s:174    .text:0000000000000128 .L0 
     /tmp/cc4hJLoc.s:177    .text:0000000000000130 .L0 
     /tmp/cc4hJLoc.s:178    .text:0000000000000130 .L0 
     /tmp/cc4hJLoc.s:187    .text:0000000000000150 .L0 
     /tmp/cc4hJLoc.s:194    .text:0000000000000158 .L0 
     /tmp/cc4hJLoc.s:195    .text:0000000000000158 .L0 
     /tmp/cc4hJLoc.s:198    .text:0000000000000160 .L0 
     /tmp/cc4hJLoc.s:199    .text:0000000000000160 .L0 
     /tmp/cc4hJLoc.s:203    .text:000000000000016c .L0 
     /tmp/cc4hJLoc.s:204    .text:000000000000016c .L0 
     /tmp/cc4hJLoc.s:207    .text:0000000000000174 .L0 
     /tmp/cc4hJLoc.s:208    .text:0000000000000178 .L0 
     /tmp/cc4hJLoc.s:210    .text:000000000000017c .L0 
     /tmp/cc4hJLoc.s:211    .text:000000000000017c .L0 
     /tmp/cc4hJLoc.s:213    .text:0000000000000180 .L0 
     /tmp/cc4hJLoc.s:216    .text:0000000000000184 .L0 
     /tmp/cc4hJLoc.s:219    .text:0000000000000188 .L0 
     /tmp/cc4hJLoc.s:221    .text:000000000000018c .L0 
     /tmp/cc4hJLoc.s:227    .text:000000000000018c .L0 
     /tmp/cc4hJLoc.s:25     .text:0000000000000014 .L0 
     /tmp/cc4hJLoc.s:74     .text:0000000000000054 .L0 
     /tmp/cc4hJLoc.s:43     .rodata.str1.8:0000000000000000 .LC0
     /tmp/cc4hJLoc.s:83     .text:0000000000000074 .L0 
     /tmp/cc4hJLoc.s:46     .rodata.str1.8:0000000000000010 .LC1
     /tmp/cc4hJLoc.s:93     .text:0000000000000094 .L0 
     /tmp/cc4hJLoc.s:49     .rodata.str1.8:0000000000000020 .LC2
     /tmp/cc4hJLoc.s:103    .text:00000000000000b4 .L0 
     /tmp/cc4hJLoc.s:158    .text:000000000000010c .L0 
     /tmp/cc4hJLoc.s:181    .text:000000000000013c .L0 
     /tmp/cc4hJLoc.s:117    .text:00000000000000d8 .L3
     /tmp/cc4hJLoc.s:191    .text:0000000000000158 .L7
     /tmp/cc4hJLoc.s:171    .text:0000000000000128 .L8
     /tmp/cc4hJLoc.s:617    .debug_abbrev:0000000000000000 .Ldebug_abbrev0
     /tmp/cc4hJLoc.s:1025   .debug_str:00000000000001d3 .LASF35
     /tmp/cc4hJLoc.s:1007   .debug_str:000000000000011b .LASF36
     /tmp/cc4hJLoc.s:1003   .debug_str:00000000000000f1 .LASF37
     /tmp/cc4hJLoc.s:5      .text:0000000000000000 .Ltext0
     /tmp/cc4hJLoc.s:224    .text:000000000000018c .Letext0
     /tmp/cc4hJLoc.s:969    .debug_line:0000000000000000 .Ldebug_line0
     /tmp/cc4hJLoc.s:973    .debug_str:0000000000000007 .LASF0
     /tmp/cc4hJLoc.s:1023   .debug_str:00000000000001c0 .LASF1
     /tmp/cc4hJLoc.s:977    .debug_str:0000000000000030 .LASF2
     /tmp/cc4hJLoc.s:999    .debug_str:00000000000000d3 .LASF4
     /tmp/cc4hJLoc.s:993    .debug_str:0000000000000099 .LASF3
     /tmp/cc4hJLoc.s:983    .debug_str:000000000000005b .LASF5
     /tmp/cc4hJLoc.s:997    .debug_str:00000000000000c0 .LASF6
     /tmp/cc4hJLoc.s:1021   .debug_str:00000000000001ad .LASF7
     /tmp/cc4hJLoc.s:1037   .debug_str:0000000000000300 .LASF8
     /tmp/cc4hJLoc.s:979    .debug_str:000000000000003e .LASF9
     /tmp/cc4hJLoc.s:981    .debug_str:000000000000004c .LASF10
     /tmp/cc4hJLoc.s:1027   .debug_str:0000000000000297 .LASF11
     /tmp/cc4hJLoc.s:987    .debug_str:000000000000006c .LASF12
GAS LISTING /tmp/cc4hJLoc.s 			page 8


     /tmp/cc4hJLoc.s:1043   .debug_str:0000000000000335 .LASF13
     /tmp/cc4hJLoc.s:1005   .debug_str:000000000000010f .LASF14
     /tmp/cc4hJLoc.s:1017   .debug_str:0000000000000185 .LASF15
     /tmp/cc4hJLoc.s:1011   .debug_str:0000000000000133 .LASF16
     /tmp/cc4hJLoc.s:1029   .debug_str:00000000000002a6 .LASF17
     /tmp/cc4hJLoc.s:991    .debug_str:000000000000008c .LASF38
     /tmp/cc4hJLoc.s:995    .debug_str:00000000000000ab .LASF19
     /tmp/cc4hJLoc.s:1031   .debug_str:00000000000002b3 .LASF21
     /tmp/cc4hJLoc.s:140    .text:00000000000000f0 .LFB2
     /tmp/cc4hJLoc.s:222    .text:000000000000018c .LFE2
     /tmp/cc4hJLoc.s:1009   .debug_str:000000000000012d .LASF18
     /tmp/cc4hJLoc.s:887    .debug_loc:0000000000000000 .LLST3
     /tmp/cc4hJLoc.s:961    .debug_ranges:0000000000000000 .Ldebug_ranges0
     /tmp/cc4hJLoc.s:907    .debug_loc:000000000000005d .LLST4
     /tmp/cc4hJLoc.s:183    .text:000000000000014c .LVL13
     /tmp/cc4hJLoc.s:161    .text:0000000000000120 .LVL11
     /tmp/cc4hJLoc.s:196    .text:0000000000000160 .LVL17
     /tmp/cc4hJLoc.s:201    .text:000000000000016c .LVL18
     /tmp/cc4hJLoc.s:205    .text:0000000000000174 .LVL19
     /tmp/cc4hJLoc.s:1045   .debug_str:0000000000000345 .LASF20
     /tmp/cc4hJLoc.s:1015   .debug_str:000000000000016c .LASF22
     /tmp/cc4hJLoc.s:56     .text:0000000000000038 .LFB1
     /tmp/cc4hJLoc.s:134    .text:00000000000000f0 .LFE1
     /tmp/cc4hJLoc.s:923    .debug_loc:00000000000000a7 .LLST0
     /tmp/cc4hJLoc.s:1047   .debug_str:0000000000000359 .LASF23
     /tmp/cc4hJLoc.s:930    .debug_loc:00000000000000ca .LLST1
     /tmp/cc4hJLoc.s:971    .debug_str:0000000000000000 .LASF24
     /tmp/cc4hJLoc.s:941    .debug_loc:0000000000000100 .LLST2
     /tmp/cc4hJLoc.s:77     .text:0000000000000068 .LVL1
     /tmp/cc4hJLoc.s:85     .text:0000000000000084 .LVL2
     /tmp/cc4hJLoc.s:95     .text:00000000000000a4 .LVL4
     /tmp/cc4hJLoc.s:106    .text:00000000000000c4 .LVL7
     /tmp/cc4hJLoc.s:116    .text:00000000000000d8 .LVL8
     /tmp/cc4hJLoc.s:1035   .debug_str:00000000000002f3 .LASF25
     /tmp/cc4hJLoc.s:1041   .debug_str:0000000000000323 .LASF26
     /tmp/cc4hJLoc.s:10     .text:0000000000000000 .LFB0
     /tmp/cc4hJLoc.s:39     .text:0000000000000038 .LFE0
     /tmp/cc4hJLoc.s:28     .text:0000000000000028 .LVL0
     /tmp/cc4hJLoc.s:1013   .debug_str:0000000000000149 .LASF27
     /tmp/cc4hJLoc.s:1019   .debug_str:000000000000019b .LASF29
     /tmp/cc4hJLoc.s:989    .debug_str:000000000000007c .LASF28
     /tmp/cc4hJLoc.s:985    .debug_str:0000000000000062 .LASF30
     /tmp/cc4hJLoc.s:975    .debug_str:0000000000000014 .LASF31
     /tmp/cc4hJLoc.s:1001   .debug_str:00000000000000da .LASF32
     /tmp/cc4hJLoc.s:1033   .debug_str:00000000000002cd .LASF33
     /tmp/cc4hJLoc.s:1039   .debug_str:0000000000000310 .LASF34
     /tmp/cc4hJLoc.s:170    .text:0000000000000128 .LVL12
     /tmp/cc4hJLoc.s:185    .text:0000000000000150 .LVL14
     /tmp/cc4hJLoc.s:190    .text:0000000000000158 .LVL16
     /tmp/cc4hJLoc.s:217    .text:0000000000000184 .LVL21
     /tmp/cc4hJLoc.s:188    .text:0000000000000154 .LVL15
     /tmp/cc4hJLoc.s:214    .text:0000000000000180 .LVL20
     /tmp/cc4hJLoc.s:87     .text:0000000000000088 .LVL3
     /tmp/cc4hJLoc.s:126    .text:00000000000000e4 .LVL9
     /tmp/cc4hJLoc.s:97     .text:00000000000000a8 .LVL5
     /tmp/cc4hJLoc.s:104    .text:00000000000000bc .LVL6
     /tmp/cc4hJLoc.s:129    .text:00000000000000e8 .LVL10
GAS LISTING /tmp/cc4hJLoc.s 			page 9


     /tmp/cc4hJLoc.s:228    .debug_info:0000000000000000 .Ldebug_info0
     /tmp/cc4hJLoc.s:164    .text:0000000000000120 .LBB2
     /tmp/cc4hJLoc.s:167    .text:0000000000000124 .LBE2
     /tmp/cc4hJLoc.s:172    .text:0000000000000128 .LBB3
     /tmp/cc4hJLoc.s:192    .text:0000000000000158 .LBE3

UNDEFINED SYMBOLS
HEAP_START_ADDR
_Z9kmem_initPvi
_Z17kmem_cache_createPKcmPFvPvES3_
_Z22printSlabAllocatorInfov
_Z18kmem_cache_destroyP12kmem_cache_s
