GAS LISTING /tmp/cc4hJLoc.s 			page 1


   1              		.file	"slabTests.cpp"
   2              		.option pic
   3              		.option norelax
   4              		.text
   5              	.Ltext0:
   6              		.align	2
   7              		.globl	_Z12slabInitTestv
   9              	_Z12slabInitTestv:
  10              	.LFB0:
  11              		.file 1 "src/slabTests.cpp"
   1:src/slabTests.cpp **** #include "../h/slabTests.hpp"
   2:src/slabTests.cpp **** 
   3:src/slabTests.cpp **** void slabInitTest()
   4:src/slabTests.cpp **** {
  12              		.loc 1 4 1
  13              		.cfi_startproc
  14 0000 130101FF 		addi	sp,sp,-16
  15              		.cfi_def_cfa_offset 16
  16 0004 23341100 		sd	ra,8(sp)
  17 0008 23308100 		sd	s0,0(sp)
  18              		.cfi_offset 1, -8
  19              		.cfi_offset 8, -16
  20 000c 13040101 		addi	s0,sp,16
  21              		.cfi_def_cfa 8, 0
   5:src/slabTests.cpp ****     kmem_init((void*)HEAP_START_ADDR, 15);
  22              		.loc 1 5 5
  23              		.loc 1 5 14 is_stmt 0
  24 0010 9305F000 		li	a1,15
  25 0014 97070000 		la	a5,HEAP_START_ADDR
  25      83B70700 
  26 001c 03B50700 		ld	a0,0(a5)
  27 0020 97000000 		call	_Z9kmem_initPvi@plt
  27      E7800000 
  28              	.LVL0:
   6:src/slabTests.cpp **** }
  29              		.loc 1 6 1
  30 0028 83308100 		ld	ra,8(sp)
  31              		.cfi_restore 1
  32 002c 03340100 		ld	s0,0(sp)
  33              		.cfi_restore 8
  34              		.cfi_def_cfa 2, 16
  35 0030 13010101 		addi	sp,sp,16
  36              		.cfi_def_cfa_offset 0
  37 0034 67800000 		jr	ra
  38              		.cfi_endproc
  39              	.LFE0:
  41              		.section	.rodata.str1.8,"aMS",@progbits,1
  42              		.align	3
  43              	.LC0:
  44 0000 43616368 		.string	"Cache test"
  44      65207465 
  44      737400
  45 000b 00000000 		.align	3
  45      00
  46              	.LC1:
  47 0010 43616368 		.string	"Cache test 2"
  47      65207465 
GAS LISTING /tmp/cc4hJLoc.s 			page 2


  47      73742032 
  47      00
  48 001d 000000   		.align	3
  49              	.LC2:
  50 0020 43616368 		.string	"Cache test 3"
  50      65207465 
  50      73742033 
  50      00
  51              		.text
  52              		.align	2
  53              		.globl	_Z19slabCacheCreateTestv
  55              	_Z19slabCacheCreateTestv:
  56              	.LFB1:
   7:src/slabTests.cpp **** 
   8:src/slabTests.cpp **** void slabCacheCreateTest()
   9:src/slabTests.cpp **** {
  57              		.loc 1 9 1 is_stmt 1
  58              		.cfi_startproc
  59 0038 130101FE 		addi	sp,sp,-32
  60              		.cfi_def_cfa_offset 32
  61 003c 233C1100 		sd	ra,24(sp)
  62 0040 23388100 		sd	s0,16(sp)
  63 0044 23349100 		sd	s1,8(sp)
  64 0048 23302101 		sd	s2,0(sp)
  65              		.cfi_offset 1, -8
  66              		.cfi_offset 8, -16
  67              		.cfi_offset 9, -24
  68              		.cfi_offset 18, -32
  69 004c 13040102 		addi	s0,sp,32
  70              		.cfi_def_cfa 8, 0
  10:src/slabTests.cpp ****     kmem_init((void*)HEAP_START_ADDR, 15);
  71              		.loc 1 10 5
  72              		.loc 1 10 14 is_stmt 0
  73 0050 9305F000 		li	a1,15
  74 0054 97070000 		la	a5,HEAP_START_ADDR
  74      83B70700 
  75 005c 03B50700 		ld	a0,0(a5)
  76 0060 97000000 		call	_Z9kmem_initPvi@plt
  76      E7800000 
  77              	.LVL1:
  11:src/slabTests.cpp ****     kmem_cache_t* cache = kmem_cache_create("Cache test", 10, nullptr,nullptr);
  78              		.loc 1 11 5 is_stmt 1
  79              		.loc 1 11 44 is_stmt 0
  80 0068 93060000 		li	a3,0
  81 006c 13060000 		li	a2,0
  82 0070 9305A000 		li	a1,10
  83 0074 17050000 		lla	a0,.LC0
  83      13050500 
  84 007c 97000000 		call	_Z17kmem_cache_createPKcmPFvPvES3_@plt
  84      E7800000 
  85              	.LVL2:
  86 0084 93040500 		mv	s1,a0
  87              	.LVL3:
  12:src/slabTests.cpp ****     kmem_cache_t* cache2 = kmem_cache_create("Cache test 2", 10, nullptr,nullptr);
  88              		.loc 1 12 5 is_stmt 1
  89              		.loc 1 12 45 is_stmt 0
  90 0088 93060000 		li	a3,0
GAS LISTING /tmp/cc4hJLoc.s 			page 3


  91 008c 13060000 		li	a2,0
  92 0090 9305A000 		li	a1,10
  93 0094 17050000 		lla	a0,.LC1
  93      13050500 
  94 009c 97000000 		call	_Z17kmem_cache_createPKcmPFvPvES3_@plt
  94      E7800000 
  95              	.LVL4:
  96 00a4 13090500 		mv	s2,a0
  97              	.LVL5:
  13:src/slabTests.cpp ****     kmem_cache_t* cache3 = kmem_cache_create("Cache test 3", 10, nullptr,nullptr);
  98              		.loc 1 13 5 is_stmt 1
  99              		.loc 1 13 45 is_stmt 0
 100 00a8 93060000 		li	a3,0
 101 00ac 13060000 		li	a2,0
 102 00b0 9305A000 		li	a1,10
 103 00b4 17050000 		lla	a0,.LC2
 103      13050500 
 104              	.LVL6:
 105 00bc 97000000 		call	_Z17kmem_cache_createPKcmPFvPvES3_@plt
 105      E7800000 
 106              	.LVL7:
  14:src/slabTests.cpp ****     if(cache && cache2 && cache3)
 107              		.loc 1 14 5 is_stmt 1
 108 00c4 638A0400 		beqz	s1,.L3
 109              		.loc 1 14 14 is_stmt 0 discriminator 1
 110 00c8 63080900 		beqz	s2,.L3
 111              		.loc 1 14 24 discriminator 2
 112 00cc 63060500 		beqz	a0,.L3
  15:src/slabTests.cpp ****         printSlabAllocatorInfo();
 113              		.loc 1 15 9 is_stmt 1
 114              		.loc 1 15 31 is_stmt 0
 115 00d0 97000000 		call	_Z22printSlabAllocatorInfov@plt
 115      E7800000 
 116              	.LVL8:
 117              	.L3:
  16:src/slabTests.cpp **** }
 118              		.loc 1 16 1
 119 00d8 83308101 		ld	ra,24(sp)
 120              		.cfi_restore 1
 121 00dc 03340101 		ld	s0,16(sp)
 122              		.cfi_restore 8
 123              		.cfi_def_cfa 2, 32
 124 00e0 83348100 		ld	s1,8(sp)
 125              		.cfi_restore 9
 126              	.LVL9:
 127 00e4 03390100 		ld	s2,0(sp)
 128              		.cfi_restore 18
 129              	.LVL10:
 130 00e8 13010102 		addi	sp,sp,32
 131              		.cfi_def_cfa_offset 0
 132 00ec 67800000 		jr	ra
 133              		.cfi_endproc
 134              	.LFE1:
 136              		.align	2
 137              		.globl	_Z20slabCacheCreateTest2v
 139              	_Z20slabCacheCreateTest2v:
 140              	.LFB2:
GAS LISTING /tmp/cc4hJLoc.s 			page 4


  17:src/slabTests.cpp **** 
  18:src/slabTests.cpp **** void slabCacheCreateTest2()
  19:src/slabTests.cpp **** {
 141              		.loc 1 19 1 is_stmt 1
 142              		.cfi_startproc
 143 00f0 130101FE 		addi	sp,sp,-32
 144              		.cfi_def_cfa_offset 32
 145 00f4 233C1100 		sd	ra,24(sp)
 146 00f8 23388100 		sd	s0,16(sp)
 147 00fc 23349100 		sd	s1,8(sp)
 148 0100 23302101 		sd	s2,0(sp)
 149              		.cfi_offset 1, -8
 150              		.cfi_offset 8, -16
 151              		.cfi_offset 9, -24
 152              		.cfi_offset 18, -32
 153 0104 13040102 		addi	s0,sp,32
 154              		.cfi_def_cfa 8, 0
  20:src/slabTests.cpp ****     kmem_init((void*)HEAP_START_ADDR, 15);
 155              		.loc 1 20 5
 156              		.loc 1 20 14 is_stmt 0
 157 0108 9305F000 		li	a1,15
 158 010c 97070000 		la	a5,HEAP_START_ADDR
 158      83B70700 
 159 0114 03B50700 		ld	a0,0(a5)
 160 0118 97000000 		call	_Z9kmem_initPvi@plt
 160      E7800000 
 161              	.LVL11:
  21:src/slabTests.cpp ****     kmem_cache_t * cache = nullptr;
 162              		.loc 1 21 5 is_stmt 1
  22:src/slabTests.cpp ****     for(int i = 1;i<=68;i++)
 163              		.loc 1 22 5
 164              	.LBB2:
 165              		.loc 1 22 13 is_stmt 0
 166 0120 93041000 		li	s1,1
 167              	.LBE2:
  21:src/slabTests.cpp ****     kmem_cache_t * cache = nullptr;
 168              		.loc 1 21 20
 169 0124 13090000 		li	s2,0
 170              	.LVL12:
 171              	.L8:
 172              	.LBB3:
 173              		.loc 1 22 20 is_stmt 1 discriminator 3
 174 0128 93074004 		li	a5,68
 175 012c 63C69702 		bgt	s1,a5,.L7
  23:src/slabTests.cpp ****     {
  24:src/slabTests.cpp ****         cache = kmem_cache_create("Cache test", 10, nullptr,nullptr);
 176              		.loc 1 24 9 discriminator 2
 177              		.loc 1 24 34 is_stmt 0 discriminator 2
 178 0130 93060000 		li	a3,0
 179 0134 13060000 		li	a2,0
 180 0138 9305A000 		li	a1,10
 181 013c 17050000 		lla	a0,.LC0
 181      13050500 
 182 0144 97000000 		call	_Z17kmem_cache_createPKcmPFvPvES3_@plt
 182      E7800000 
 183              	.LVL13:
 184 014c 13090500 		mv	s2,a0
GAS LISTING /tmp/cc4hJLoc.s 			page 5


 185              	.LVL14:
  22:src/slabTests.cpp ****     for(int i = 1;i<=68;i++)
 186              		.loc 1 22 5 is_stmt 1 discriminator 2
 187 0150 9B841400 		addiw	s1,s1,1
 188              	.LVL15:
 189 0154 6FF05FFD 		j	.L8
 190              	.LVL16:
 191              	.L7:
 192              	.LBE3:
  25:src/slabTests.cpp ****     }
  26:src/slabTests.cpp ****     printSlabAllocatorInfo();
 193              		.loc 1 26 5
 194              		.loc 1 26 27 is_stmt 0
 195 0158 97000000 		call	_Z22printSlabAllocatorInfov@plt
 195      E7800000 
 196              	.LVL17:
  27:src/slabTests.cpp ****     kmem_cache_destroy(cache);
 197              		.loc 1 27 5 is_stmt 1
 198              		.loc 1 27 23 is_stmt 0
 199 0160 13050900 		mv	a0,s2
 200 0164 97000000 		call	_Z18kmem_cache_destroyP12kmem_cache_s@plt
 200      E7800000 
 201              	.LVL18:
  28:src/slabTests.cpp ****     printSlabAllocatorInfo();
 202              		.loc 1 28 5 is_stmt 1
 203              		.loc 1 28 27 is_stmt 0
 204 016c 97000000 		call	_Z22printSlabAllocatorInfov@plt
 204      E7800000 
 205              	.LVL19:
  29:src/slabTests.cpp **** }...
 206              		.loc 1 29 1
 207 0174 83308101 		ld	ra,24(sp)
 208              		.cfi_restore 1
 209 0178 03340101 		ld	s0,16(sp)
 210              		.cfi_restore 8
 211              		.cfi_def_cfa 2, 32
 212 017c 83348100 		ld	s1,8(sp)
 213              		.cfi_restore 9
 214              	.LVL20:
 215 0180 03390100 		ld	s2,0(sp)
 216              		.cfi_restore 18
 217              	.LVL21:
 218 0184 13010102 		addi	sp,sp,32
 219              		.cfi_def_cfa_offset 0
 220 0188 67800000 		jr	ra
 221              		.cfi_endproc
 222              	.LFE2:
 224              	.Letext0:
 225              		.file 2 "src/../h/../lib/hw.h"
 226              		.file 3 "src/../h/slabAllocator.hpp"
GAS LISTING /tmp/cc4hJLoc.s 			page 6

