GAS LISTING /tmp/ccuvp5ur.s 			page 1


   1              		.file	"slabAllocator.cpp"
   2              		.option pic
   3              		.option norelax
   4              		.text
   5              	.Ltext0:
   6              		.align	2
   7              		.globl	_Z6strcpyPKcPc
   9              	_Z6strcpyPKcPc:
  10              	.LFB5:
  11              		.file 1 "src/slabAllocator.cpp"
   1:src/slabAllocator.cpp **** #include "../h/slabAllocator.hpp"
   2:src/slabAllocator.cpp **** #include "../h/buddyAllocator.hpp"
   3:src/slabAllocator.cpp **** #include "../h/KConsole.hpp"
   4:src/slabAllocator.cpp **** 
   5:src/slabAllocator.cpp **** #define SLAB_ALLOCATED_LOOKUP 32
   6:src/slabAllocator.cpp **** #define CACHE_NAME_SIZE 512
   7:src/slabAllocator.cpp **** #define CACHE_BUFFER_SMALL 5
   8:src/slabAllocator.cpp **** #define CACHE_BUFFER_BIG 17
   9:src/slabAllocator.cpp **** #define CACHE_BUFFER_SIZE CACHE_BUFFER_BIG - CACHE_BUFFER_SMALL + 1
  10:src/slabAllocator.cpp **** #define CACHE_OF_CACHES_SLAB_SIZE 2
  11:src/slabAllocator.cpp **** 
  12:src/slabAllocator.cpp **** typedef struct slab_s
  13:src/slabAllocator.cpp **** {
  14:src/slabAllocator.cpp ****     slab_s* prev;
  15:src/slabAllocator.cpp ****     slab_s* next;
  16:src/slabAllocator.cpp ****     kmem_cache_t* owner;
  17:src/slabAllocator.cpp ****     size_t numOfObjects;
  18:src/slabAllocator.cpp ****     size_t numOfAllocatedObjects;
  19:src/slabAllocator.cpp ****     void* startAddress;
  20:src/slabAllocator.cpp ****     unsigned char allocated[SLAB_ALLOCATED_LOOKUP];
  21:src/slabAllocator.cpp **** }slab_t;
  22:src/slabAllocator.cpp **** 
  23:src/slabAllocator.cpp **** typedef struct kmem_cache_s
  24:src/slabAllocator.cpp **** {
  25:src/slabAllocator.cpp ****     char cacheName[CACHE_NAME_SIZE];
  26:src/slabAllocator.cpp ****     kmem_cache_s* next;
  27:src/slabAllocator.cpp ****     kmem_cache_s* prev;
  28:src/slabAllocator.cpp ****     slab_t* slabs_empty;
  29:src/slabAllocator.cpp ****     slab_t* slabs_full;
  30:src/slabAllocator.cpp ****     slab_t* slabs_partial;
  31:src/slabAllocator.cpp ****     size_t slab_size;
  32:src/slabAllocator.cpp ****     size_t obj_size;
  33:src/slabAllocator.cpp ****     void (*ctor)(void*);
  34:src/slabAllocator.cpp ****     void (*dtor)(void*);
  35:src/slabAllocator.cpp **** }kmem_cache_t;
  36:src/slabAllocator.cpp **** 
  37:src/slabAllocator.cpp **** typedef struct slab_allocator_s
  38:src/slabAllocator.cpp **** {
  39:src/slabAllocator.cpp ****     buddyAllocator* buddy;
  40:src/slabAllocator.cpp ****     kmem_cache_t* cacheList;
  41:src/slabAllocator.cpp ****     kmem_cache_t* cachesBuffers[CACHE_BUFFER_SIZE];
  42:src/slabAllocator.cpp ****     kmem_cache_t cacheOfCaches;
  43:src/slabAllocator.cpp **** }slab_allocator_t;
  44:src/slabAllocator.cpp **** 
  45:src/slabAllocator.cpp **** //singleton slab allocator
  46:src/slabAllocator.cpp **** static slab_allocator_t* slabAllocator = nullptr;
  47:src/slabAllocator.cpp **** 
GAS LISTING /tmp/ccuvp5ur.s 			page 2


  48:src/slabAllocator.cpp **** //helping functions
  49:src/slabAllocator.cpp **** void strcpy(const char* src, char* dst)
  50:src/slabAllocator.cpp **** {
  12              		.loc 1 50 1
  13              		.cfi_startproc
  14              	.LVL0:
  15 0000 130101FF 		addi	sp,sp,-16
  16              		.cfi_def_cfa_offset 16
  17 0004 23348100 		sd	s0,8(sp)
  18              		.cfi_offset 8, -8
  19 0008 13040101 		addi	s0,sp,16
  20              		.cfi_def_cfa 8, 0
  21              	.L3:
  51:src/slabAllocator.cpp ****     while(*src != '\0')
  22              		.loc 1 51 5
  23              		.loc 1 51 16
  24              		.loc 1 51 11 is_stmt 0
  25 000c 83470500 		lbu	a5,0(a0)
  26              		.loc 1 51 16
  27 0010 63880700 		beqz	a5,.L1
  52:src/slabAllocator.cpp ****     {
  53:src/slabAllocator.cpp ****         *dst = *src;
  28              		.loc 1 53 9 is_stmt 1
  29              		.loc 1 53 14 is_stmt 0
  30 0014 2380F500 		sb	a5,0(a1)
  54:src/slabAllocator.cpp ****         src++;
  31              		.loc 1 54 9 is_stmt 1
  32              		.loc 1 54 12 is_stmt 0
  33 0018 13051500 		addi	a0,a0,1
  34              	.LVL1:
  51:src/slabAllocator.cpp ****     while(*src != '\0')
  35              		.loc 1 51 5
  36 001c 6FF01FFF 		j	.L3
  37              	.L1:
  55:src/slabAllocator.cpp ****     }
  56:src/slabAllocator.cpp **** }
  38              		.loc 1 56 1
  39 0020 03348100 		ld	s0,8(sp)
  40              		.cfi_restore 8
  41              		.cfi_def_cfa 2, 16
  42 0024 13010101 		addi	sp,sp,16
  43              		.cfi_def_cfa_offset 0
  44 0028 67800000 		jr	ra
  45              		.cfi_endproc
  46              	.LFE5:
  48              		.section	.rodata.str1.8,"aMS",@progbits,1
  49              		.align	3
  50              	.LC0:
  51 0000 43616368 		.string	"Cache of caches"
  51      65206F66 
  51      20636163 
  51      68657300 
  52              		.text
  53              		.align	2
  54              		.globl	_Z19slab_allocator_initP14buddyAllocator
  56              	_Z19slab_allocator_initP14buddyAllocator:
  57              	.LFB6:
GAS LISTING /tmp/ccuvp5ur.s 			page 3


  57:src/slabAllocator.cpp **** 
  58:src/slabAllocator.cpp **** slab_allocator_t* slab_allocator_init(buddyAllocator *buddy)
  59:src/slabAllocator.cpp **** {
  58              		.loc 1 59 1 is_stmt 1
  59              		.cfi_startproc
  60              	.LVL2:
  61 002c 130101FE 		addi	sp,sp,-32
  62              		.cfi_def_cfa_offset 32
  63 0030 233C1100 		sd	ra,24(sp)
  64 0034 23388100 		sd	s0,16(sp)
  65 0038 23349100 		sd	s1,8(sp)
  66 003c 23302101 		sd	s2,0(sp)
  67              		.cfi_offset 1, -8
  68              		.cfi_offset 8, -16
  69              		.cfi_offset 9, -24
  70              		.cfi_offset 18, -32
  71 0040 13040102 		addi	s0,sp,32
  72              		.cfi_def_cfa 8, 0
  73 0044 93040500 		mv	s1,a0
  60:src/slabAllocator.cpp ****     slab_allocator_t* slabAllocatorLocal = (slab_allocator_t*)(buddy + 1);
  74              		.loc 1 60 5
  75              		.loc 1 60 23 is_stmt 0
  76 0048 1309050E 		addi	s2,a0,224
  77              	.LVL3:
  61:src/slabAllocator.cpp **** 
  62:src/slabAllocator.cpp ****     slabAllocatorLocal->buddy = buddy;
  78              		.loc 1 62 5 is_stmt 1
  79              		.loc 1 62 31 is_stmt 0
  80 004c 2330A50E 		sd	a0,224(a0)
  63:src/slabAllocator.cpp ****     slabAllocatorLocal->cacheList = nullptr;
  81              		.loc 1 63 5 is_stmt 1
  82              		.loc 1 63 35 is_stmt 0
  83 0050 2334050E 		sd	zero,232(a0)
  64:src/slabAllocator.cpp ****     for(size_t i = 0; i < CACHE_BUFFER_SIZE;i++)
  84              		.loc 1 64 5 is_stmt 1
  85              	.LVL4:
  86              	.LBB2:
  87              		.loc 1 64 16 is_stmt 0
  88 0054 13070000 		li	a4,0
  89 0058 6F008001 		j	.L7
  90              	.LVL5:
  91              	.L9:
  65:src/slabAllocator.cpp ****         slabAllocatorLocal->cachesBuffers[i] = nullptr;
  92              		.loc 1 65 9 is_stmt 1 discriminator 2
  93              		.loc 1 65 46 is_stmt 0 discriminator 2
  94 005c 93072700 		addi	a5,a4,2
  95 0060 93973700 		slli	a5,a5,3
  96 0064 B387F400 		add	a5,s1,a5
  97 0068 23B0070E 		sd	zero,224(a5)
  64:src/slabAllocator.cpp ****     for(size_t i = 0; i < CACHE_BUFFER_SIZE;i++)
  98              		.loc 1 64 5 is_stmt 1 discriminator 2
  99 006c 13071700 		addi	a4,a4,1
 100              	.LVL6:
 101              	.L7:
  64:src/slabAllocator.cpp ****     for(size_t i = 0; i < CACHE_BUFFER_SIZE;i++)
 102              		.loc 1 64 25 discriminator 3
 103 0070 9307C000 		li	a5,12
GAS LISTING /tmp/ccuvp5ur.s 			page 4


 104 0074 E3F4E7FE 		bleu	a4,a5,.L9
 105              	.LBE2:
  66:src/slabAllocator.cpp **** 
  67:src/slabAllocator.cpp ****     strcpy("Cache of caches", slabAllocatorLocal->cacheOfCaches.cacheName);
 106              		.loc 1 67 5
 107              		.loc 1 67 11 is_stmt 0
 108 0078 93858415 		addi	a1,s1,344
 109 007c 17050000 		lla	a0,.LC0
 109      13050500 
 110 0084 97000000 		call	_Z6strcpyPKcPc
 110      E7800000 
 111              	.LVL7:
  68:src/slabAllocator.cpp ****     slabAllocatorLocal->cacheOfCaches.next = nullptr;
 112              		.loc 1 68 5 is_stmt 1
 113              		.loc 1 68 44 is_stmt 0
 114 008c 23BC0434 		sd	zero,856(s1)
  69:src/slabAllocator.cpp ****     slabAllocatorLocal->cacheOfCaches.prev = nullptr;
 115              		.loc 1 69 5 is_stmt 1
 116              		.loc 1 69 44 is_stmt 0
 117 0090 23B00436 		sd	zero,864(s1)
  70:src/slabAllocator.cpp ****     slabAllocatorLocal->cacheOfCaches.ctor = nullptr;
 118              		.loc 1 70 5 is_stmt 1
 119              		.loc 1 70 44 is_stmt 0
 120 0094 23B80438 		sd	zero,912(s1)
  71:src/slabAllocator.cpp ****     slabAllocatorLocal->cacheOfCaches.dtor = nullptr;
 121              		.loc 1 71 5 is_stmt 1
 122              		.loc 1 71 44 is_stmt 0
 123 0098 23BC0438 		sd	zero,920(s1)
  72:src/slabAllocator.cpp ****     slabAllocatorLocal->cacheOfCaches.slabs_empty = nullptr;
 124              		.loc 1 72 5 is_stmt 1
 125              		.loc 1 72 51 is_stmt 0
 126 009c 23B40436 		sd	zero,872(s1)
  73:src/slabAllocator.cpp ****     slabAllocatorLocal->cacheOfCaches.slabs_full = nullptr;
 127              		.loc 1 73 5 is_stmt 1
 128              		.loc 1 73 50 is_stmt 0
 129 00a0 23B80436 		sd	zero,880(s1)
  74:src/slabAllocator.cpp ****     slabAllocatorLocal->cacheOfCaches.slabs_partial = nullptr;
 130              		.loc 1 74 5 is_stmt 1
 131              		.loc 1 74 53 is_stmt 0
 132 00a4 23BC0436 		sd	zero,888(s1)
  75:src/slabAllocator.cpp ****     slabAllocatorLocal->cacheOfCaches.slab_size = CACHE_OF_CACHES_SLAB_SIZE;
 133              		.loc 1 75 5 is_stmt 1
 134              		.loc 1 75 49 is_stmt 0
 135 00a8 93072000 		li	a5,2
 136 00ac 23B0F438 		sd	a5,896(s1)
  76:src/slabAllocator.cpp ****     slabAllocatorLocal->cacheOfCaches.obj_size = sizeof(kmem_cache_t);
 137              		.loc 1 76 5 is_stmt 1
 138              		.loc 1 76 48 is_stmt 0
 139 00b0 93078024 		li	a5,584
 140 00b4 23B4F438 		sd	a5,904(s1)
  77:src/slabAllocator.cpp ****     return slabAllocatorLocal;
 141              		.loc 1 77 5 is_stmt 1
  78:src/slabAllocator.cpp **** }
 142              		.loc 1 78 1 is_stmt 0
 143 00b8 13050900 		mv	a0,s2
 144 00bc 83308101 		ld	ra,24(sp)
 145              		.cfi_restore 1
GAS LISTING /tmp/ccuvp5ur.s 			page 5


 146 00c0 03340101 		ld	s0,16(sp)
 147              		.cfi_restore 8
 148              		.cfi_def_cfa 2, 32
 149 00c4 83348100 		ld	s1,8(sp)
 150              		.cfi_restore 9
 151              	.LVL8:
 152 00c8 03390100 		ld	s2,0(sp)
 153              		.cfi_restore 18
 154              	.LVL9:
 155 00cc 13010102 		addi	sp,sp,32
 156              		.cfi_def_cfa_offset 0
 157 00d0 67800000 		jr	ra
 158              		.cfi_endproc
 159              	.LFE6:
 161              		.align	2
 162              		.globl	_Z14allocateObjectP6slab_s
 164              	_Z14allocateObjectP6slab_s:
 165              	.LFB7:
  79:src/slabAllocator.cpp **** 
  80:src/slabAllocator.cpp **** void* allocateObject(slab_t* slab)
  81:src/slabAllocator.cpp **** {
 166              		.loc 1 81 1 is_stmt 1
 167              		.cfi_startproc
 168              	.LVL10:
 169 00d4 130101FF 		addi	sp,sp,-16
 170              		.cfi_def_cfa_offset 16
 171 00d8 23348100 		sd	s0,8(sp)
 172              		.cfi_offset 8, -8
 173 00dc 13040101 		addi	s0,sp,16
 174              		.cfi_def_cfa 8, 0
 175 00e0 93050500 		mv	a1,a0
  82:src/slabAllocator.cpp ****     int index = -1;
 176              		.loc 1 82 5
 177              	.LVL11:
  83:src/slabAllocator.cpp ****     void* addr = nullptr;
 178              		.loc 1 83 5
  84:src/slabAllocator.cpp ****     for(size_t i = 0;i < slab->numOfObjects;i++)
 179              		.loc 1 84 5
 180              	.LBB3:
 181              		.loc 1 84 16 is_stmt 0
 182 00e4 93070000 		li	a5,0
 183              	.LVL12:
 184              	.L13:
 185              		.loc 1 84 24 is_stmt 1 discriminator 1
 186              		.loc 1 84 32 is_stmt 0 discriminator 1
 187 00e8 03B78501 		ld	a4,24(a1)
 188              		.loc 1 84 24 discriminator 1
 189 00ec 63F6E704 		bleu	a4,a5,.L15
 190              	.LBB4:
  85:src/slabAllocator.cpp ****     {
  86:src/slabAllocator.cpp ****         size_t mask = 1 << (i%8);
 191              		.loc 1 86 9 is_stmt 1
 192              		.loc 1 86 30 is_stmt 0
 193 00f0 13F77700 		andi	a4,a5,7
 194              		.loc 1 86 25
 195 00f4 13061000 		li	a2,1
 196 00f8 BB16E600 		sllw	a3,a2,a4
GAS LISTING /tmp/ccuvp5ur.s 			page 6


 197              	.LVL13:
  87:src/slabAllocator.cpp ****         if((uint8)slab->allocated[i/8] & mask)
 198              		.loc 1 87 9 is_stmt 1
 199              		.loc 1 87 36 is_stmt 0
 200 00fc 13D73700 		srli	a4,a5,3
 201              		.loc 1 87 38
 202 0100 3387E500 		add	a4,a1,a4
 203 0104 03470703 		lbu	a4,48(a4)
 204              		.loc 1 87 40
 205 0108 3377D700 		and	a4,a4,a3
 206              		.loc 1 87 9
 207 010c 63160700 		bnez	a4,.L17
 208              	.LBE4:
  84:src/slabAllocator.cpp ****     for(size_t i = 0;i < slab->numOfObjects;i++)
 209              		.loc 1 84 5 is_stmt 1 discriminator 2
 210 0110 93871700 		addi	a5,a5,1
 211              	.LVL14:
 212 0114 6FF05FFD 		j	.L13
 213              	.L17:
 214              	.LBB5:
  88:src/slabAllocator.cpp ****         {
  89:src/slabAllocator.cpp ****             addr = (void*)((size_t)slab->startAddress + sizeof(slab_t)+ i*slab->owner->obj_size);
 215              		.loc 1 89 13
 216              		.loc 1 89 42 is_stmt 0
 217 0118 03B58502 		ld	a0,40(a1)
 218              	.LVL15:
 219              		.loc 1 89 81
 220 011c 03B70501 		ld	a4,16(a1)
 221              		.loc 1 89 88
 222 0120 03370723 		ld	a4,560(a4)
 223              		.loc 1 89 74
 224 0124 3307F702 		mul	a4,a4,a5
 225              		.loc 1 89 71
 226 0128 3305E500 		add	a0,a0,a4
 227 012c 13050505 		addi	a0,a0,80
 228              	.LVL16:
  90:src/slabAllocator.cpp ****             index = i;
 229              		.loc 1 90 13 is_stmt 1
 230              		.loc 1 90 19 is_stmt 0
 231 0130 9B870700 		sext.w	a5,a5
 232              	.LVL17:
  91:src/slabAllocator.cpp ****             break;
 233              		.loc 1 91 13 is_stmt 1
 234 0134 6F00C000 		j	.L11
 235              	.LVL18:
 236              	.L15:
 237              	.LBE5:
 238              	.LBE3:
  83:src/slabAllocator.cpp ****     for(size_t i = 0;i < slab->numOfObjects;i++)
 239              		.loc 1 83 11 is_stmt 0
 240 0138 13050000 		li	a0,0
 241              	.LVL19:
  82:src/slabAllocator.cpp ****     void* addr = nullptr;
 242              		.loc 1 82 9
 243 013c 9307F0FF 		li	a5,-1
 244              	.LVL20:
 245              	.L11:
GAS LISTING /tmp/ccuvp5ur.s 			page 7


  92:src/slabAllocator.cpp ****         }
  93:src/slabAllocator.cpp ****     }
  94:src/slabAllocator.cpp ****     if(addr == nullptr)
 246              		.loc 1 94 5 is_stmt 1
 247 0140 63000504 		beqz	a0,.L10
  95:src/slabAllocator.cpp ****         return nullptr;
  96:src/slabAllocator.cpp **** 
  97:src/slabAllocator.cpp ****     slab->allocated[index / 8]=(uint8)slab->allocated[index/8] | (1 << (index%8));
 248              		.loc 1 97 5
 249              		.loc 1 97 60 is_stmt 0
 250 0144 9BD6F741 		sraiw	a3,a5,31
 251 0148 9BD6D601 		srliw	a3,a3,29
 252 014c BB87F600 		addw	a5,a3,a5
 253              	.LVL21:
 254 0150 1BD73740 		sraiw	a4,a5,3
 255              		.loc 1 97 62
 256 0154 3387E500 		add	a4,a1,a4
 257              		.loc 1 97 32
 258 0158 03060703 		lb	a2,48(a4)
 259              		.loc 1 97 78
 260 015c 93F77700 		andi	a5,a5,7
 261 0160 BB87D740 		subw	a5,a5,a3
 262              		.loc 1 97 69
 263 0164 93061000 		li	a3,1
 264 0168 BB97F600 		sllw	a5,a3,a5
 265              		.loc 1 97 64
 266 016c B367F600 		or	a5,a2,a5
 267              		.loc 1 97 31
 268 0170 2308F702 		sb	a5,48(a4)
  98:src/slabAllocator.cpp ****     slab->numOfAllocatedObjects++;
 269              		.loc 1 98 5 is_stmt 1
 270              		.loc 1 98 11 is_stmt 0
 271 0174 83B70502 		ld	a5,32(a1)
 272              		.loc 1 98 32
 273 0178 93871700 		addi	a5,a5,1
 274 017c 23B0F502 		sd	a5,32(a1)
  99:src/slabAllocator.cpp **** 
 100:src/slabAllocator.cpp ****     return addr;
 275              		.loc 1 100 5 is_stmt 1
 276              	.L10:
 101:src/slabAllocator.cpp **** }
 277              		.loc 1 101 1 is_stmt 0
 278 0180 03348100 		ld	s0,8(sp)
 279              		.cfi_restore 8
 280              		.cfi_def_cfa 2, 16
 281 0184 13010101 		addi	sp,sp,16
 282              		.cfi_def_cfa_offset 0
 283 0188 67800000 		jr	ra
 284              		.cfi_endproc
 285              	.LFE7:
 287              		.align	2
 288              		.globl	_Z4fullP6slab_s
 290              	_Z4fullP6slab_s:
 291              	.LFB8:
 102:src/slabAllocator.cpp **** bool full(slab_t* slab)
 103:src/slabAllocator.cpp **** {
 292              		.loc 1 103 1 is_stmt 1
GAS LISTING /tmp/ccuvp5ur.s 			page 8


 293              		.cfi_startproc
 294              	.LVL22:
 295 018c 130101FF 		addi	sp,sp,-16
 296              		.cfi_def_cfa_offset 16
 297 0190 23348100 		sd	s0,8(sp)
 298              		.cfi_offset 8, -8
 299 0194 13040101 		addi	s0,sp,16
 300              		.cfi_def_cfa 8, 0
 104:src/slabAllocator.cpp ****     return slab->numOfAllocatedObjects == slab->numOfObjects;
 301              		.loc 1 104 5
 302              		.loc 1 104 18 is_stmt 0
 303 0198 83370502 		ld	a5,32(a0)
 304              		.loc 1 104 49
 305 019c 03358501 		ld	a0,24(a0)
 306              	.LVL23:
 307 01a0 3305F540 		sub	a0,a0,a5
 105:src/slabAllocator.cpp **** }
 308              		.loc 1 105 1
 309 01a4 13351500 		seqz	a0,a0
 310 01a8 03348100 		ld	s0,8(sp)
 311              		.cfi_restore 8
 312              		.cfi_def_cfa 2, 16
 313 01ac 13010101 		addi	sp,sp,16
 314              		.cfi_def_cfa_offset 0
 315 01b0 67800000 		jr	ra
 316              		.cfi_endproc
 317              	.LFE8:
 319              		.align	2
 320              		.globl	_Z5emptyP6slab_s
 322              	_Z5emptyP6slab_s:
 323              	.LFB9:
 106:src/slabAllocator.cpp **** 
 107:src/slabAllocator.cpp **** bool empty(slab_t* slab)
 108:src/slabAllocator.cpp **** {
 324              		.loc 1 108 1 is_stmt 1
 325              		.cfi_startproc
 326              	.LVL24:
 327 01b4 130101FF 		addi	sp,sp,-16
 328              		.cfi_def_cfa_offset 16
 329 01b8 23348100 		sd	s0,8(sp)
 330              		.cfi_offset 8, -8
 331 01bc 13040101 		addi	s0,sp,16
 332              		.cfi_def_cfa 8, 0
 109:src/slabAllocator.cpp ****     return slab->numOfAllocatedObjects == 0;
 333              		.loc 1 109 5
 334              		.loc 1 109 18 is_stmt 0
 335 01c0 03350502 		ld	a0,32(a0)
 336              	.LVL25:
 110:src/slabAllocator.cpp **** }
 337              		.loc 1 110 1
 338 01c4 13351500 		seqz	a0,a0
 339 01c8 03348100 		ld	s0,8(sp)
 340              		.cfi_restore 8
 341              		.cfi_def_cfa 2, 16
 342 01cc 13010101 		addi	sp,sp,16
 343              		.cfi_def_cfa_offset 0
 344 01d0 67800000 		jr	ra
GAS LISTING /tmp/ccuvp5ur.s 			page 9


 345              		.cfi_endproc
 346              	.LFE9:
 348              		.align	2
 349              		.globl	_Z16putPartialToFullP12kmem_cache_s
 351              	_Z16putPartialToFullP12kmem_cache_s:
 352              	.LFB10:
 111:src/slabAllocator.cpp **** 
 112:src/slabAllocator.cpp **** void putPartialToFull(kmem_cache_t* cachep)
 113:src/slabAllocator.cpp **** {
 353              		.loc 1 113 1 is_stmt 1
 354              		.cfi_startproc
 355              	.LVL26:
 356 01d4 130101FF 		addi	sp,sp,-16
 357              		.cfi_def_cfa_offset 16
 358 01d8 23348100 		sd	s0,8(sp)
 359              		.cfi_offset 8, -8
 360 01dc 13040101 		addi	s0,sp,16
 361              		.cfi_def_cfa 8, 0
 114:src/slabAllocator.cpp ****     slab_t* slab = cachep->slabs_partial;
 362              		.loc 1 114 5
 363              		.loc 1 114 13 is_stmt 0
 364 01e0 83370522 		ld	a5,544(a0)
 365              	.LVL27:
 115:src/slabAllocator.cpp ****     cachep->slabs_partial = cachep->slabs_partial->next;
 366              		.loc 1 115 5 is_stmt 1
 367              		.loc 1 115 52 is_stmt 0
 368 01e4 03B78700 		ld	a4,8(a5)
 369              		.loc 1 115 27
 370 01e8 2330E522 		sd	a4,544(a0)
 116:src/slabAllocator.cpp ****     if(cachep->slabs_partial!=nullptr)
 371              		.loc 1 116 5 is_stmt 1
 372 01ec 63040700 		beqz	a4,.L23
 117:src/slabAllocator.cpp ****         cachep->slabs_partial = nullptr;
 373              		.loc 1 117 9
 374              		.loc 1 117 31 is_stmt 0
 375 01f0 23300522 		sd	zero,544(a0)
 376              	.L23:
 118:src/slabAllocator.cpp ****     slab->next = cachep->slabs_full;
 377              		.loc 1 118 5 is_stmt 1
 378              		.loc 1 118 26 is_stmt 0
 379 01f4 03378521 		ld	a4,536(a0)
 380              		.loc 1 118 16
 381 01f8 23B4E700 		sd	a4,8(a5)
 119:src/slabAllocator.cpp ****     if(cachep->slabs_full != nullptr)
 382              		.loc 1 119 5 is_stmt 1
 383              		.loc 1 119 16 is_stmt 0
 384 01fc 03378521 		ld	a4,536(a0)
 385              		.loc 1 119 5
 386 0200 63040700 		beqz	a4,.L24
 120:src/slabAllocator.cpp ****         cachep->slabs_full->prev = slab;
 387              		.loc 1 120 9 is_stmt 1
 388              		.loc 1 120 34 is_stmt 0
 389 0204 2330F700 		sd	a5,0(a4)
 390              	.L24:
 121:src/slabAllocator.cpp ****     cachep->slabs_full = slab;
 391              		.loc 1 121 5 is_stmt 1
 392              		.loc 1 121 24 is_stmt 0
GAS LISTING /tmp/ccuvp5ur.s 			page 10


 393 0208 233CF520 		sd	a5,536(a0)
 122:src/slabAllocator.cpp ****     slab->prev = nullptr;
 394              		.loc 1 122 5 is_stmt 1
 395              		.loc 1 122 16 is_stmt 0
 396 020c 23B00700 		sd	zero,0(a5)
 123:src/slabAllocator.cpp **** }
 397              		.loc 1 123 1
 398 0210 03348100 		ld	s0,8(sp)
 399              		.cfi_restore 8
 400              		.cfi_def_cfa 2, 16
 401 0214 13010101 		addi	sp,sp,16
 402              		.cfi_def_cfa_offset 0
 403 0218 67800000 		jr	ra
 404              		.cfi_endproc
 405              	.LFE10:
 407              		.align	2
 408              		.globl	_Z17putEmptyToPartialP12kmem_cache_s
 410              	_Z17putEmptyToPartialP12kmem_cache_s:
 411              	.LFB11:
 124:src/slabAllocator.cpp **** 
 125:src/slabAllocator.cpp **** void putEmptyToPartial(kmem_cache_t* cachep)
 126:src/slabAllocator.cpp **** {
 412              		.loc 1 126 1 is_stmt 1
 413              		.cfi_startproc
 414              	.LVL28:
 415 021c 130101FF 		addi	sp,sp,-16
 416              		.cfi_def_cfa_offset 16
 417 0220 23348100 		sd	s0,8(sp)
 418              		.cfi_offset 8, -8
 419 0224 13040101 		addi	s0,sp,16
 420              		.cfi_def_cfa 8, 0
 127:src/slabAllocator.cpp ****     slab_t* slab = cachep->slabs_empty;
 421              		.loc 1 127 5
 422              		.loc 1 127 13 is_stmt 0
 423 0228 83370521 		ld	a5,528(a0)
 424              	.LVL29:
 128:src/slabAllocator.cpp ****     cachep->slabs_empty = cachep->slabs_empty->next;
 425              		.loc 1 128 5 is_stmt 1
 426              		.loc 1 128 48 is_stmt 0
 427 022c 03B78700 		ld	a4,8(a5)
 428              		.loc 1 128 25
 429 0230 2338E520 		sd	a4,528(a0)
 129:src/slabAllocator.cpp ****     if(cachep->slabs_empty != nullptr)
 430              		.loc 1 129 5 is_stmt 1
 431 0234 63040700 		beqz	a4,.L27
 130:src/slabAllocator.cpp ****         cachep->slabs_empty = nullptr;
 432              		.loc 1 130 9
 433              		.loc 1 130 29 is_stmt 0
 434 0238 23380520 		sd	zero,528(a0)
 435              	.L27:
 131:src/slabAllocator.cpp ****     slab->next = cachep->slabs_partial;
 436              		.loc 1 131 5 is_stmt 1
 437              		.loc 1 131 26 is_stmt 0
 438 023c 03370522 		ld	a4,544(a0)
 439              		.loc 1 131 16
 440 0240 23B4E700 		sd	a4,8(a5)
 132:src/slabAllocator.cpp ****     if(cachep->slabs_partial != nullptr)
GAS LISTING /tmp/ccuvp5ur.s 			page 11


 441              		.loc 1 132 5 is_stmt 1
 442              		.loc 1 132 16 is_stmt 0
 443 0244 03370522 		ld	a4,544(a0)
 444              		.loc 1 132 5
 445 0248 63040700 		beqz	a4,.L28
 133:src/slabAllocator.cpp ****         cachep->slabs_partial->prev = slab;
 446              		.loc 1 133 9 is_stmt 1
 447              		.loc 1 133 37 is_stmt 0
 448 024c 2330F700 		sd	a5,0(a4)
 449              	.L28:
 134:src/slabAllocator.cpp ****     cachep->slabs_partial = slab;
 450              		.loc 1 134 5 is_stmt 1
 451              		.loc 1 134 27 is_stmt 0
 452 0250 2330F522 		sd	a5,544(a0)
 135:src/slabAllocator.cpp ****     slab->prev = nullptr;
 453              		.loc 1 135 5 is_stmt 1
 454              		.loc 1 135 16 is_stmt 0
 455 0254 23B00700 		sd	zero,0(a5)
 136:src/slabAllocator.cpp **** }
 456              		.loc 1 136 1
 457 0258 03348100 		ld	s0,8(sp)
 458              		.cfi_restore 8
 459              		.cfi_def_cfa 2, 16
 460 025c 13010101 		addi	sp,sp,16
 461              		.cfi_def_cfa_offset 0
 462 0260 67800000 		jr	ra
 463              		.cfi_endproc
 464              	.LFE11:
 466              		.align	2
 467              		.globl	_Z12allocateSlabP12kmem_cache_s
 469              	_Z12allocateSlabP12kmem_cache_s:
 470              	.LFB12:
 137:src/slabAllocator.cpp **** 
 138:src/slabAllocator.cpp **** void allocateSlab(kmem_cache_t* cachep)
 139:src/slabAllocator.cpp **** {
 471              		.loc 1 139 1 is_stmt 1
 472              		.cfi_startproc
 473              	.LVL30:
 474 0264 130101FE 		addi	sp,sp,-32
 475              		.cfi_def_cfa_offset 32
 476 0268 233C1100 		sd	ra,24(sp)
 477 026c 23388100 		sd	s0,16(sp)
 478 0270 23349100 		sd	s1,8(sp)
 479              		.cfi_offset 1, -8
 480              		.cfi_offset 8, -16
 481              		.cfi_offset 9, -24
 482 0274 13040102 		addi	s0,sp,32
 483              		.cfi_def_cfa 8, 0
 484 0278 93040500 		mv	s1,a0
 140:src/slabAllocator.cpp ****     slab_t* newSlab = (slab_t*)buddy_alloc(slabAllocator->buddy,cachep->slab_size*BLOCK_SIZE);
 485              		.loc 1 140 5
 486              		.loc 1 140 73 is_stmt 0
 487 027c 83358522 		ld	a1,552(a0)
 488              		.loc 1 140 43
 489 0280 9395C500 		slli	a1,a1,12
 490 0284 97070000 		ld	a5,.LANCHOR0
 490      83B70700 
GAS LISTING /tmp/ccuvp5ur.s 			page 12


 491 028c 03B50700 		ld	a0,0(a5)
 492              	.LVL31:
 493 0290 97000000 		call	_Z11buddy_allocP14buddyAllocatorm@plt
 493      E7800000 
 494              	.LVL32:
 141:src/slabAllocator.cpp ****     newSlab->next = cachep->slabs_empty;
 495              		.loc 1 141 5 is_stmt 1
 496              		.loc 1 141 29 is_stmt 0
 497 0298 83B70421 		ld	a5,528(s1)
 498              		.loc 1 141 19
 499 029c 2334F500 		sd	a5,8(a0)
 142:src/slabAllocator.cpp ****     if(cachep->slabs_empty != nullptr)
 500              		.loc 1 142 5 is_stmt 1
 501 02a0 63840700 		beqz	a5,.L31
 143:src/slabAllocator.cpp ****         cachep->slabs_empty->prev = newSlab;
 502              		.loc 1 143 9
 503              		.loc 1 143 35 is_stmt 0
 504 02a4 23B0A700 		sd	a0,0(a5)
 505              	.L31:
 144:src/slabAllocator.cpp ****     cachep->slabs_empty = newSlab;
 506              		.loc 1 144 5 is_stmt 1
 507              		.loc 1 144 25 is_stmt 0
 508 02a8 23B8A420 		sd	a0,528(s1)
 145:src/slabAllocator.cpp ****     newSlab->prev = nullptr;
 509              		.loc 1 145 5 is_stmt 1
 510              		.loc 1 145 19 is_stmt 0
 511 02ac 23300500 		sd	zero,0(a0)
 146:src/slabAllocator.cpp ****     newSlab->numOfAllocatedObjects = 0;
 512              		.loc 1 146 5 is_stmt 1
 513              		.loc 1 146 36 is_stmt 0
 514 02b0 23300502 		sd	zero,32(a0)
 147:src/slabAllocator.cpp ****     newSlab->owner = cachep;
 515              		.loc 1 147 5 is_stmt 1
 516              		.loc 1 147 20 is_stmt 0
 517 02b4 23389500 		sd	s1,16(a0)
 148:src/slabAllocator.cpp ****     newSlab->startAddress = (void*)newSlab;
 518              		.loc 1 148 5 is_stmt 1
 519              		.loc 1 148 27 is_stmt 0
 520 02b8 2334A502 		sd	a0,40(a0)
 149:src/slabAllocator.cpp ****     size_t sizeInBytes = cachep->slab_size*BLOCK_SIZE;
 521              		.loc 1 149 5 is_stmt 1
 522              		.loc 1 149 34 is_stmt 0
 523 02bc 83B68422 		ld	a3,552(s1)
 524              		.loc 1 149 12
 525 02c0 9396C600 		slli	a3,a3,12
 526              	.LVL33:
 150:src/slabAllocator.cpp ****     newSlab->numOfObjects = (sizeInBytes - sizeof(slab_t)) / cachep->obj_size; // TODO can this par
 527              		.loc 1 150 5 is_stmt 1
 528              		.loc 1 150 42 is_stmt 0
 529 02c4 938606FB 		addi	a3,a3,-80
 530              	.LVL34:
 531              		.loc 1 150 70
 532 02c8 83B70423 		ld	a5,560(s1)
 533              		.loc 1 150 60
 534 02cc B3D6F602 		divu	a3,a3,a5
 535              	.LVL35:
 536              		.loc 1 150 27
GAS LISTING /tmp/ccuvp5ur.s 			page 13


 537 02d0 233CD500 		sd	a3,24(a0)
 538              	.LVL36:
 151:src/slabAllocator.cpp ****     for(size_t i = 0; i < newSlab->numOfObjects / 8;i++)
 539              		.loc 1 151 5 is_stmt 1
 540              	.LBB6:
 541              		.loc 1 151 16 is_stmt 0
 542 02d4 93070000 		li	a5,0
 543              	.LVL37:
 544              	.L33:
 545              		.loc 1 151 25 is_stmt 1 discriminator 3
 546              		.loc 1 151 49 is_stmt 0 discriminator 3
 547 02d8 13D73600 		srli	a4,a3,3
 548              		.loc 1 151 25 discriminator 3
 549 02dc 63FAE700 		bleu	a4,a5,.L30
 152:src/slabAllocator.cpp ****         newSlab->allocated[i] = 0;
 550              		.loc 1 152 9 is_stmt 1 discriminator 2
 551              		.loc 1 152 31 is_stmt 0 discriminator 2
 552 02e0 3307F500 		add	a4,a0,a5
 553 02e4 23080702 		sb	zero,48(a4)
 151:src/slabAllocator.cpp ****     for(size_t i = 0; i < newSlab->numOfObjects / 8;i++)
 554              		.loc 1 151 5 is_stmt 1 discriminator 2
 555 02e8 93871700 		addi	a5,a5,1
 556              	.LVL38:
 557 02ec 6FF0DFFE 		j	.L33
 558              	.L30:
 559              	.LBE6:
 153:src/slabAllocator.cpp **** }
 560              		.loc 1 153 1 is_stmt 0
 561 02f0 83308101 		ld	ra,24(sp)
 562              		.cfi_restore 1
 563 02f4 03340101 		ld	s0,16(sp)
 564              		.cfi_restore 8
 565              		.cfi_def_cfa 2, 32
 566 02f8 83348100 		ld	s1,8(sp)
 567              		.cfi_restore 9
 568              	.LVL39:
 569 02fc 13010102 		addi	sp,sp,32
 570              		.cfi_def_cfa_offset 0
 571 0300 67800000 		jr	ra
 572              		.cfi_endproc
 573              	.LFE12:
 575              		.align	2
 576              		.globl	_Z18getOptimalSlabSizem
 578              	_Z18getOptimalSlabSizem:
 579              	.LFB13:
 154:src/slabAllocator.cpp **** 
 155:src/slabAllocator.cpp **** size_t getOptimalSlabSize(size_t obj_size)
 156:src/slabAllocator.cpp **** {
 580              		.loc 1 156 1 is_stmt 1
 581              		.cfi_startproc
 582              	.LVL40:
 583 0304 130101FF 		addi	sp,sp,-16
 584              		.cfi_def_cfa_offset 16
 585 0308 23348100 		sd	s0,8(sp)
 586              		.cfi_offset 8, -8
 587 030c 13040101 		addi	s0,sp,16
 588              		.cfi_def_cfa 8, 0
GAS LISTING /tmp/ccuvp5ur.s 			page 14


 157:src/slabAllocator.cpp ****     size_t bestSize = BLOCK_SIZE;
 589              		.loc 1 157 5
 590              	.LVL41:
 591              		.loc 1 157 12 is_stmt 0
 592 0310 B7170000 		li	a5,4096
 593              	.LVL42:
 594              	.L37:
 158:src/slabAllocator.cpp ****     while(bestSize < obj_size + sizeof(slab_t))
 595              		.loc 1 158 5 is_stmt 1
 596              		.loc 1 158 20
 597              		.loc 1 158 31 is_stmt 0
 598 0314 13070505 		addi	a4,a0,80
 599              		.loc 1 158 20
 600 0318 63F6E700 		bleu	a4,a5,.L36
 159:src/slabAllocator.cpp ****         bestSize<<=1;
 601              		.loc 1 159 9 is_stmt 1
 602              		.loc 1 159 17 is_stmt 0
 603 031c 93971700 		slli	a5,a5,1
 604              	.LVL43:
 158:src/slabAllocator.cpp ****     while(bestSize < obj_size + sizeof(slab_t))
 605              		.loc 1 158 5
 606 0320 6FF05FFF 		j	.L37
 607              	.L36:
 160:src/slabAllocator.cpp ****     size_t optimalWaste = (bestSize - sizeof(slab_t)) % obj_size;
 608              		.loc 1 160 5 is_stmt 1
 609              		.loc 1 160 37 is_stmt 0
 610 0324 938507FB 		addi	a1,a5,-80
 611              		.loc 1 160 12
 612 0328 B3F5A502 		remu	a1,a1,a0
 613              	.LVL44:
 161:src/slabAllocator.cpp **** 
 162:src/slabAllocator.cpp ****     for(int i = 1;i<=4;i++) //change constants
 614              		.loc 1 162 5 is_stmt 1
 615              	.LBB7:
 616              		.loc 1 162 13 is_stmt 0
 617 032c 13071000 		li	a4,1
 618 0330 6F008000 		j	.L40
 619              	.LVL45:
 620              	.L39:
 621              		.loc 1 162 5 is_stmt 1 discriminator 2
 622 0334 1B071700 		addiw	a4,a4,1
 623              	.LVL46:
 624              	.L40:
 625              		.loc 1 162 20 discriminator 1
 626 0338 93064000 		li	a3,4
 627 033c 63C0E602 		bgt	a4,a3,.L38
 628              	.LBB8:
 163:src/slabAllocator.cpp ****     {
 164:src/slabAllocator.cpp ****         size_t newSize = bestSize << i;
 629              		.loc 1 164 9
 630              		.loc 1 164 16 is_stmt 0
 631 0340 3396E700 		sll	a2,a5,a4
 632              	.LVL47:
 165:src/slabAllocator.cpp ****         size_t newWaste = (newSize - sizeof(slab_t)) % obj_size;
 633              		.loc 1 165 9 is_stmt 1
 634              		.loc 1 165 36 is_stmt 0
 635 0344 930606FB 		addi	a3,a2,-80
GAS LISTING /tmp/ccuvp5ur.s 			page 15


 636              		.loc 1 165 16
 637 0348 B3F6A602 		remu	a3,a3,a0
 638              	.LVL48:
 166:src/slabAllocator.cpp ****         if(newWaste < optimalWaste)
 639              		.loc 1 166 9 is_stmt 1
 640 034c E3F4B6FE 		bleu	a1,a3,.L39
 167:src/slabAllocator.cpp ****         {
 168:src/slabAllocator.cpp ****             optimalWaste = newWaste;
 641              		.loc 1 168 26 is_stmt 0
 642 0350 93850600 		mv	a1,a3
 643              	.LVL49:
 169:src/slabAllocator.cpp ****             bestSize = newSize;
 644              		.loc 1 169 22
 645 0354 93070600 		mv	a5,a2
 646              	.LVL50:
 647 0358 6FF0DFFD 		j	.L39
 648              	.LVL51:
 649              	.L38:
 650              	.LBE8:
 651              	.LBE7:
 170:src/slabAllocator.cpp ****         }
 171:src/slabAllocator.cpp ****     }
 172:src/slabAllocator.cpp **** 
 173:src/slabAllocator.cpp ****     return bestSize / BLOCK_SIZE;
 652              		.loc 1 173 5 is_stmt 1
 174:src/slabAllocator.cpp **** }
 653              		.loc 1 174 1 is_stmt 0
 654 035c 13D5C700 		srli	a0,a5,12
 655              	.LVL52:
 656 0360 03348100 		ld	s0,8(sp)
 657              		.cfi_restore 8
 658              		.cfi_def_cfa 2, 16
 659 0364 13010101 		addi	sp,sp,16
 660              		.cfi_def_cfa_offset 0
 661 0368 67800000 		jr	ra
 662              		.cfi_endproc
 663              	.LFE13:
 665              		.align	2
 666              		.globl	_Z8findSlabP12kmem_cache_sPKv
 668              	_Z8findSlabP12kmem_cache_sPKv:
 669              	.LFB14:
 175:src/slabAllocator.cpp **** 
 176:src/slabAllocator.cpp **** //finds the slab where objp is
 177:src/slabAllocator.cpp **** slab_t* findSlab(kmem_cache_t* cachep, const void* objp)
 178:src/slabAllocator.cpp **** {
 670              		.loc 1 178 1 is_stmt 1
 671              		.cfi_startproc
 672              	.LVL53:
 673 036c 130101FF 		addi	sp,sp,-16
 674              		.cfi_def_cfa_offset 16
 675 0370 23348100 		sd	s0,8(sp)
 676              		.cfi_offset 8, -8
 677 0374 13040101 		addi	s0,sp,16
 678              		.cfi_def_cfa 8, 0
 679 0378 93060500 		mv	a3,a0
 179:src/slabAllocator.cpp ****     slab_t* slab = cachep->slabs_full;
 680              		.loc 1 179 5
GAS LISTING /tmp/ccuvp5ur.s 			page 16


 681              		.loc 1 179 13 is_stmt 0
 682 037c 03358521 		ld	a0,536(a0)
 683              	.LVL54:
 684 0380 6F008000 		j	.L47
 685              	.LVL55:
 686              	.L45:
 687              	.LBB9:
 180:src/slabAllocator.cpp ****     while(slab != nullptr)
 181:src/slabAllocator.cpp ****     {
 182:src/slabAllocator.cpp ****         size_t endAddr = (size_t)slab + sizeof(slab_t) + slab->numOfObjects*slab->owner->obj_size;
 183:src/slabAllocator.cpp ****         if((size_t)objp > (size_t)slab && (size_t)objp < endAddr)
 184:src/slabAllocator.cpp ****             return slab;
 185:src/slabAllocator.cpp ****         slab = slab->next;
 688              		.loc 1 185 9 is_stmt 1
 689              		.loc 1 185 14 is_stmt 0
 690 0384 03358500 		ld	a0,8(a0)
 691              	.LVL56:
 692              	.L47:
 693              	.LBE9:
 180:src/slabAllocator.cpp ****     while(slab != nullptr)
 694              		.loc 1 180 5 is_stmt 1
 180:src/slabAllocator.cpp ****     while(slab != nullptr)
 695              		.loc 1 180 16
 696 0388 63080502 		beqz	a0,.L44
 697              	.LBB10:
 182:src/slabAllocator.cpp ****         if((size_t)objp > (size_t)slab && (size_t)objp < endAddr)
 698              		.loc 1 182 9
 182:src/slabAllocator.cpp ****         if((size_t)objp > (size_t)slab && (size_t)objp < endAddr)
 699              		.loc 1 182 64 is_stmt 0
 700 038c 83378501 		ld	a5,24(a0)
 182:src/slabAllocator.cpp ****         if((size_t)objp > (size_t)slab && (size_t)objp < endAddr)
 701              		.loc 1 182 83
 702 0390 03370501 		ld	a4,16(a0)
 182:src/slabAllocator.cpp ****         if((size_t)objp > (size_t)slab && (size_t)objp < endAddr)
 703              		.loc 1 182 90
 704 0394 03370723 		ld	a4,560(a4)
 182:src/slabAllocator.cpp ****         if((size_t)objp > (size_t)slab && (size_t)objp < endAddr)
 705              		.loc 1 182 76
 706 0398 B387E702 		mul	a5,a5,a4
 182:src/slabAllocator.cpp ****         if((size_t)objp > (size_t)slab && (size_t)objp < endAddr)
 707              		.loc 1 182 56
 708 039c B387A700 		add	a5,a5,a0
 182:src/slabAllocator.cpp ****         if((size_t)objp > (size_t)slab && (size_t)objp < endAddr)
 709              		.loc 1 182 16
 710 03a0 93870705 		addi	a5,a5,80
 711              	.LVL57:
 183:src/slabAllocator.cpp ****             return slab;
 712              		.loc 1 183 9 is_stmt 1
 713 03a4 E370B5FE 		bgeu	a0,a1,.L45
 183:src/slabAllocator.cpp ****             return slab;
 714              		.loc 1 183 40 is_stmt 0 discriminator 1
 715 03a8 E3FEF5FC 		bgeu	a1,a5,.L45
 716              	.LVL58:
 717              	.L43:
 718              	.LBE10:
 186:src/slabAllocator.cpp ****     }
 187:src/slabAllocator.cpp **** 
GAS LISTING /tmp/ccuvp5ur.s 			page 17


 188:src/slabAllocator.cpp ****     slab = cachep->slabs_partial;
 189:src/slabAllocator.cpp ****     while(slab != nullptr)
 190:src/slabAllocator.cpp ****     {
 191:src/slabAllocator.cpp ****         size_t endAddr = (size_t)slab + sizeof(slab_t) + slab->numOfObjects*slab->owner->obj_size;
 192:src/slabAllocator.cpp ****         if((size_t)objp > (size_t)slab && (size_t)objp < endAddr)
 193:src/slabAllocator.cpp ****             return slab;
 194:src/slabAllocator.cpp ****         slab = slab->next;
 195:src/slabAllocator.cpp ****     }
 196:src/slabAllocator.cpp **** 
 197:src/slabAllocator.cpp ****     return nullptr;
 198:src/slabAllocator.cpp **** }
 719              		.loc 1 198 1
 720 03ac 03348100 		ld	s0,8(sp)
 721              		.cfi_remember_state
 722              		.cfi_restore 8
 723              		.cfi_def_cfa 2, 16
 724 03b0 13010101 		addi	sp,sp,16
 725              		.cfi_def_cfa_offset 0
 726 03b4 67800000 		jr	ra
 727              	.L44:
 728              		.cfi_restore_state
 188:src/slabAllocator.cpp ****     while(slab != nullptr)
 729              		.loc 1 188 5 is_stmt 1
 188:src/slabAllocator.cpp ****     while(slab != nullptr)
 730              		.loc 1 188 10 is_stmt 0
 731 03b8 03B50622 		ld	a0,544(a3)
 732              	.LVL59:
 733 03bc 6F008000 		j	.L49
 734              	.LVL60:
 735              	.L48:
 736              	.LBB11:
 194:src/slabAllocator.cpp ****     }
 737              		.loc 1 194 9 is_stmt 1
 194:src/slabAllocator.cpp ****     }
 738              		.loc 1 194 14 is_stmt 0
 739 03c0 03358500 		ld	a0,8(a0)
 740              	.LVL61:
 741              	.L49:
 742              	.LBE11:
 189:src/slabAllocator.cpp ****     {
 743              		.loc 1 189 5 is_stmt 1
 189:src/slabAllocator.cpp ****     {
 744              		.loc 1 189 16
 745 03c4 E30405FE 		beqz	a0,.L43
 746              	.LBB12:
 191:src/slabAllocator.cpp ****         if((size_t)objp > (size_t)slab && (size_t)objp < endAddr)
 747              		.loc 1 191 9
 191:src/slabAllocator.cpp ****         if((size_t)objp > (size_t)slab && (size_t)objp < endAddr)
 748              		.loc 1 191 64 is_stmt 0
 749 03c8 83378501 		ld	a5,24(a0)
 191:src/slabAllocator.cpp ****         if((size_t)objp > (size_t)slab && (size_t)objp < endAddr)
 750              		.loc 1 191 83
 751 03cc 03370501 		ld	a4,16(a0)
 191:src/slabAllocator.cpp ****         if((size_t)objp > (size_t)slab && (size_t)objp < endAddr)
 752              		.loc 1 191 90
 753 03d0 03370723 		ld	a4,560(a4)
 191:src/slabAllocator.cpp ****         if((size_t)objp > (size_t)slab && (size_t)objp < endAddr)
GAS LISTING /tmp/ccuvp5ur.s 			page 18


 754              		.loc 1 191 76
 755 03d4 B387E702 		mul	a5,a5,a4
 191:src/slabAllocator.cpp ****         if((size_t)objp > (size_t)slab && (size_t)objp < endAddr)
 756              		.loc 1 191 56
 757 03d8 B387A700 		add	a5,a5,a0
 191:src/slabAllocator.cpp ****         if((size_t)objp > (size_t)slab && (size_t)objp < endAddr)
 758              		.loc 1 191 16
 759 03dc 93870705 		addi	a5,a5,80
 760              	.LVL62:
 192:src/slabAllocator.cpp ****             return slab;
 761              		.loc 1 192 9 is_stmt 1
 762 03e0 E370B5FE 		bgeu	a0,a1,.L48
 192:src/slabAllocator.cpp ****             return slab;
 763              		.loc 1 192 40 is_stmt 0 discriminator 1
 764 03e4 E3FEF5FC 		bgeu	a1,a5,.L48
 765 03e8 6FF05FFC 		j	.L43
 766              	.LBE12:
 767              		.cfi_endproc
 768              	.LFE14:
 770              		.align	2
 771              		.globl	_Z19resetAllocatedIndexP6slab_si
 773              	_Z19resetAllocatedIndexP6slab_si:
 774              	.LFB15:
 199:src/slabAllocator.cpp **** 
 200:src/slabAllocator.cpp **** void resetAllocatedIndex(slab_t* slab, int index)
 201:src/slabAllocator.cpp **** {
 775              		.loc 1 201 1 is_stmt 1
 776              		.cfi_startproc
 777              	.LVL63:
 778 03ec 130101FF 		addi	sp,sp,-16
 779              		.cfi_def_cfa_offset 16
 780 03f0 23348100 		sd	s0,8(sp)
 781              		.cfi_offset 8, -8
 782 03f4 13040101 		addi	s0,sp,16
 783              		.cfi_def_cfa 8, 0
 202:src/slabAllocator.cpp ****     //TODO test it
 203:src/slabAllocator.cpp ****     slab->allocated[index / 8]=(uint8)slab->allocated[index/8] & ~(1 << (index%8));
 784              		.loc 1 203 5
 785              		.loc 1 203 60 is_stmt 0
 786 03f8 9BD7F541 		sraiw	a5,a1,31
 787 03fc 9BD7D701 		srliw	a5,a5,29
 788 0400 BB85B700 		addw	a1,a5,a1
 789              	.LVL64:
 790 0404 1BD73540 		sraiw	a4,a1,3
 791              		.loc 1 203 62
 792 0408 3305E500 		add	a0,a0,a4
 793              	.LVL65:
 794              		.loc 1 203 32
 795 040c 03070503 		lb	a4,48(a0)
 796              		.loc 1 203 79
 797 0410 93F57500 		andi	a1,a1,7
 798 0414 BB85F540 		subw	a1,a1,a5
 799              		.loc 1 203 70
 800 0418 93071000 		li	a5,1
 801 041c BB95B700 		sllw	a1,a5,a1
 802              		.loc 1 203 64
 803 0420 93C5F5FF 		not	a1,a1
GAS LISTING /tmp/ccuvp5ur.s 			page 19


 804 0424 B375B700 		and	a1,a4,a1
 805              		.loc 1 203 31
 806 0428 2308B502 		sb	a1,48(a0)
 204:src/slabAllocator.cpp **** }
 807              		.loc 1 204 1
 808 042c 03348100 		ld	s0,8(sp)
 809              		.cfi_restore 8
 810              		.cfi_def_cfa 2, 16
 811 0430 13010101 		addi	sp,sp,16
 812              		.cfi_def_cfa_offset 0
 813 0434 67800000 		jr	ra
 814              		.cfi_endproc
 815              	.LFE15:
 817              		.align	2
 818              		.globl	_Z14removeFullSlabP12kmem_cache_sP6slab_s
 820              	_Z14removeFullSlabP12kmem_cache_sP6slab_s:
 821              	.LFB16:
 205:src/slabAllocator.cpp **** 
 206:src/slabAllocator.cpp **** void removeFullSlab(kmem_cache_t * cachep, slab_t* slab)
 207:src/slabAllocator.cpp **** {
 822              		.loc 1 207 1 is_stmt 1
 823              		.cfi_startproc
 824              	.LVL66:
 825 0438 130101FF 		addi	sp,sp,-16
 826              		.cfi_def_cfa_offset 16
 827 043c 23348100 		sd	s0,8(sp)
 828              		.cfi_offset 8, -8
 829 0440 13040101 		addi	s0,sp,16
 830              		.cfi_def_cfa 8, 0
 208:src/slabAllocator.cpp ****     if(slab->prev)
 831              		.loc 1 208 5
 832              		.loc 1 208 14 is_stmt 0
 833 0444 83B70500 		ld	a5,0(a1)
 834              		.loc 1 208 5
 835 0448 63800704 		beqz	a5,.L54
 209:src/slabAllocator.cpp ****     {
 210:src/slabAllocator.cpp ****         slab->prev->next = slab->next;
 836              		.loc 1 210 9 is_stmt 1
 837              		.loc 1 210 34 is_stmt 0
 838 044c 03B78500 		ld	a4,8(a1)
 839              		.loc 1 210 26
 840 0450 23B4E700 		sd	a4,8(a5)
 211:src/slabAllocator.cpp ****         slab->next->prev = slab->prev;
 841              		.loc 1 211 9 is_stmt 1
 842              		.loc 1 211 15 is_stmt 0
 843 0454 83B78500 		ld	a5,8(a1)
 844              		.loc 1 211 34
 845 0458 03B70500 		ld	a4,0(a1)
 846              		.loc 1 211 26
 847 045c 23B0E700 		sd	a4,0(a5)
 848              	.L55:
 212:src/slabAllocator.cpp ****     }
 213:src/slabAllocator.cpp ****     else
 214:src/slabAllocator.cpp ****     {
 215:src/slabAllocator.cpp ****         slab->next->prev = nullptr;
 216:src/slabAllocator.cpp ****         cachep->slabs_full = slab->next;
 217:src/slabAllocator.cpp ****     }
GAS LISTING /tmp/ccuvp5ur.s 			page 20


 218:src/slabAllocator.cpp ****     slab->next = cachep->slabs_partial;
 849              		.loc 1 218 5 is_stmt 1
 850              		.loc 1 218 26 is_stmt 0
 851 0460 83370522 		ld	a5,544(a0)
 852              		.loc 1 218 16
 853 0464 23B4F500 		sd	a5,8(a1)
 219:src/slabAllocator.cpp ****     slab->prev = nullptr;
 854              		.loc 1 219 5 is_stmt 1
 855              		.loc 1 219 16 is_stmt 0
 856 0468 23B00500 		sd	zero,0(a1)
 220:src/slabAllocator.cpp ****     if(cachep->slabs_partial)
 857              		.loc 1 220 5 is_stmt 1
 858              		.loc 1 220 16 is_stmt 0
 859 046c 83370522 		ld	a5,544(a0)
 860              		.loc 1 220 5
 861 0470 63840700 		beqz	a5,.L56
 221:src/slabAllocator.cpp ****         cachep->slabs_partial->prev = slab;
 862              		.loc 1 221 9 is_stmt 1
 863              		.loc 1 221 37 is_stmt 0
 864 0474 23B0B700 		sd	a1,0(a5)
 865              	.L56:
 222:src/slabAllocator.cpp ****     cachep->slabs_partial = slab;
 866              		.loc 1 222 5 is_stmt 1
 867              		.loc 1 222 27 is_stmt 0
 868 0478 2330B522 		sd	a1,544(a0)
 223:src/slabAllocator.cpp **** }
 869              		.loc 1 223 1
 870 047c 03348100 		ld	s0,8(sp)
 871              		.cfi_remember_state
 872              		.cfi_restore 8
 873              		.cfi_def_cfa 2, 16
 874 0480 13010101 		addi	sp,sp,16
 875              		.cfi_def_cfa_offset 0
 876 0484 67800000 		jr	ra
 877              	.L54:
 878              		.cfi_restore_state
 215:src/slabAllocator.cpp ****         cachep->slabs_full = slab->next;
 879              		.loc 1 215 9 is_stmt 1
 215:src/slabAllocator.cpp ****         cachep->slabs_full = slab->next;
 880              		.loc 1 215 15 is_stmt 0
 881 0488 83B78500 		ld	a5,8(a1)
 215:src/slabAllocator.cpp ****         cachep->slabs_full = slab->next;
 882              		.loc 1 215 26
 883 048c 23B00700 		sd	zero,0(a5)
 216:src/slabAllocator.cpp ****     }
 884              		.loc 1 216 9 is_stmt 1
 216:src/slabAllocator.cpp ****     }
 885              		.loc 1 216 36 is_stmt 0
 886 0490 83B78500 		ld	a5,8(a1)
 216:src/slabAllocator.cpp ****     }
 887              		.loc 1 216 28
 888 0494 233CF520 		sd	a5,536(a0)
 889 0498 6FF09FFC 		j	.L55
 890              		.cfi_endproc
 891              	.LFE16:
 893              		.align	2
 894              		.globl	_Z17removePartialSlabP12kmem_cache_sP6slab_s
GAS LISTING /tmp/ccuvp5ur.s 			page 21


 896              	_Z17removePartialSlabP12kmem_cache_sP6slab_s:
 897              	.LFB17:
 224:src/slabAllocator.cpp **** 
 225:src/slabAllocator.cpp **** void removePartialSlab(kmem_cache_t * cachep, slab_t* slab)
 226:src/slabAllocator.cpp **** {
 898              		.loc 1 226 1 is_stmt 1
 899              		.cfi_startproc
 900              	.LVL67:
 901 049c 130101FF 		addi	sp,sp,-16
 902              		.cfi_def_cfa_offset 16
 903 04a0 23348100 		sd	s0,8(sp)
 904              		.cfi_offset 8, -8
 905 04a4 13040101 		addi	s0,sp,16
 906              		.cfi_def_cfa 8, 0
 227:src/slabAllocator.cpp ****     if(slab->prev)
 907              		.loc 1 227 5
 908              		.loc 1 227 14 is_stmt 0
 909 04a8 83B70500 		ld	a5,0(a1)
 910              		.loc 1 227 5
 911 04ac 63800704 		beqz	a5,.L59
 228:src/slabAllocator.cpp ****     {
 229:src/slabAllocator.cpp ****         slab->prev->next = slab->next;
 912              		.loc 1 229 9 is_stmt 1
 913              		.loc 1 229 34 is_stmt 0
 914 04b0 03B78500 		ld	a4,8(a1)
 915              		.loc 1 229 26
 916 04b4 23B4E700 		sd	a4,8(a5)
 230:src/slabAllocator.cpp ****         slab->next->prev = slab->prev;
 917              		.loc 1 230 9 is_stmt 1
 918              		.loc 1 230 15 is_stmt 0
 919 04b8 83B78500 		ld	a5,8(a1)
 920              		.loc 1 230 34
 921 04bc 03B70500 		ld	a4,0(a1)
 922              		.loc 1 230 26
 923 04c0 23B0E700 		sd	a4,0(a5)
 924              	.L60:
 231:src/slabAllocator.cpp ****     }
 232:src/slabAllocator.cpp ****     else
 233:src/slabAllocator.cpp ****     {
 234:src/slabAllocator.cpp ****         slab->next->prev = nullptr;
 235:src/slabAllocator.cpp ****         cachep->slabs_partial = slab->next;
 236:src/slabAllocator.cpp ****     }
 237:src/slabAllocator.cpp ****     slab->next = cachep->slabs_empty;
 925              		.loc 1 237 5 is_stmt 1
 926              		.loc 1 237 26 is_stmt 0
 927 04c4 83370521 		ld	a5,528(a0)
 928              		.loc 1 237 16
 929 04c8 23B4F500 		sd	a5,8(a1)
 238:src/slabAllocator.cpp ****     slab->prev = nullptr;
 930              		.loc 1 238 5 is_stmt 1
 931              		.loc 1 238 16 is_stmt 0
 932 04cc 23B00500 		sd	zero,0(a1)
 239:src/slabAllocator.cpp ****     if(cachep->slabs_empty)
 933              		.loc 1 239 5 is_stmt 1
 934              		.loc 1 239 16 is_stmt 0
 935 04d0 83370521 		ld	a5,528(a0)
 936              		.loc 1 239 5
GAS LISTING /tmp/ccuvp5ur.s 			page 22


 937 04d4 63840700 		beqz	a5,.L61
 240:src/slabAllocator.cpp ****         cachep->slabs_empty->prev = slab;
 938              		.loc 1 240 9 is_stmt 1
 939              		.loc 1 240 35 is_stmt 0
 940 04d8 23B0B700 		sd	a1,0(a5)
 941              	.L61:
 241:src/slabAllocator.cpp ****     cachep->slabs_empty = slab;
 942              		.loc 1 241 5 is_stmt 1
 943              		.loc 1 241 25 is_stmt 0
 944 04dc 2338B520 		sd	a1,528(a0)
 242:src/slabAllocator.cpp **** }
 945              		.loc 1 242 1
 946 04e0 03348100 		ld	s0,8(sp)
 947              		.cfi_remember_state
 948              		.cfi_restore 8
 949              		.cfi_def_cfa 2, 16
 950 04e4 13010101 		addi	sp,sp,16
 951              		.cfi_def_cfa_offset 0
 952 04e8 67800000 		jr	ra
 953              	.L59:
 954              		.cfi_restore_state
 234:src/slabAllocator.cpp ****         cachep->slabs_partial = slab->next;
 955              		.loc 1 234 9 is_stmt 1
 234:src/slabAllocator.cpp ****         cachep->slabs_partial = slab->next;
 956              		.loc 1 234 15 is_stmt 0
 957 04ec 83B78500 		ld	a5,8(a1)
 234:src/slabAllocator.cpp ****         cachep->slabs_partial = slab->next;
 958              		.loc 1 234 26
 959 04f0 23B00700 		sd	zero,0(a5)
 235:src/slabAllocator.cpp ****     }
 960              		.loc 1 235 9 is_stmt 1
 235:src/slabAllocator.cpp ****     }
 961              		.loc 1 235 39 is_stmt 0
 962 04f4 83B78500 		ld	a5,8(a1)
 235:src/slabAllocator.cpp ****     }
 963              		.loc 1 235 31
 964 04f8 2330F522 		sd	a5,544(a0)
 965 04fc 6FF09FFC 		j	.L60
 966              		.cfi_endproc
 967              	.LFE17:
 969              		.section	.rodata.str1.8
 970              		.align	3
 971              	.LC1:
 972 0010 536C6162 		.string	"Slab address "
 972      20616464 
 972      72657373 
 972      2000
 973 001e 0000     		.align	3
 974              	.LC2:
 975 0020 0A00     		.string	"\n"
 976 0022 00000000 		.align	3
 976      0000
 977              	.LC3:
 978 0028 4E756D62 		.string	"Number of allocated objects "
 978      6572206F 
 978      6620616C 
 978      6C6F6361 
GAS LISTING /tmp/ccuvp5ur.s 			page 23


 978      74656420 
 979 0045 000000   		.align	3
 980              	.LC4:
 981 0048 4E756D62 		.string	"Number of objects "
 981      6572206F 
 981      66206F62 
 981      6A656374 
 981      732000
 982              		.text
 983              		.align	2
 984              		.globl	_Z13printSlabInfoP6slab_s
 986              	_Z13printSlabInfoP6slab_s:
 987              	.LFB18:
 243:src/slabAllocator.cpp **** 
 244:src/slabAllocator.cpp **** void printSlabInfo(slab_t* slab)
 245:src/slabAllocator.cpp **** {
 988              		.loc 1 245 1 is_stmt 1
 989              		.cfi_startproc
 990              	.LVL68:
 991 0500 130101FE 		addi	sp,sp,-32
 992              		.cfi_def_cfa_offset 32
 993 0504 233C1100 		sd	ra,24(sp)
 994 0508 23388100 		sd	s0,16(sp)
 995 050c 23349100 		sd	s1,8(sp)
 996              		.cfi_offset 1, -8
 997              		.cfi_offset 8, -16
 998              		.cfi_offset 9, -24
 999 0510 13040102 		addi	s0,sp,32
 1000              		.cfi_def_cfa 8, 0
 1001 0514 93040500 		mv	s1,a0
 246:src/slabAllocator.cpp ****     KConsole::trapPrintString("Slab address ");
 1002              		.loc 1 246 5
 1003              		.loc 1 246 30 is_stmt 0
 1004 0518 17050000 		lla	a0,.LC1
 1004      13050500 
 1005              	.LVL69:
 1006 0520 97000000 		call	_ZN8KConsole15trapPrintStringEPKc@plt
 1006      E7800000 
 1007              	.LVL70:
 247:src/slabAllocator.cpp ****     KConsole::trapPrintInt((size_t)slab);KConsole::trapPrintString("\n");
 1008              		.loc 1 247 5 is_stmt 1
 1009              		.loc 1 247 27 is_stmt 0
 1010 0528 13060000 		li	a2,0
 1011 052c 9305A000 		li	a1,10
 1012 0530 13850400 		mv	a0,s1
 1013 0534 97000000 		call	_ZN8KConsole12trapPrintIntEmii@plt
 1013      E7800000 
 1014              	.LVL71:
 1015              		.loc 1 247 42 is_stmt 1
 1016              		.loc 1 247 67 is_stmt 0
 1017 053c 17050000 		lla	a0,.LC2
 1017      13050500 
 1018 0544 97000000 		call	_ZN8KConsole15trapPrintStringEPKc@plt
 1018      E7800000 
 1019              	.LVL72:
 248:src/slabAllocator.cpp ****     KConsole::trapPrintString("Number of allocated objects ");
 1020              		.loc 1 248 5 is_stmt 1
GAS LISTING /tmp/ccuvp5ur.s 			page 24


 1021              		.loc 1 248 30 is_stmt 0
 1022 054c 17050000 		lla	a0,.LC3
 1022      13050500 
 1023 0554 97000000 		call	_ZN8KConsole15trapPrintStringEPKc@plt
 1023      E7800000 
 1024              	.LVL73:
 249:src/slabAllocator.cpp ****     KConsole::trapPrintInt(slab->numOfAllocatedObjects);KConsole::trapPrintString("\n");
 1025              		.loc 1 249 5 is_stmt 1
 1026              		.loc 1 249 27 is_stmt 0
 1027 055c 13060000 		li	a2,0
 1028 0560 9305A000 		li	a1,10
 1029 0564 03B50402 		ld	a0,32(s1)
 1030 0568 97000000 		call	_ZN8KConsole12trapPrintIntEmii@plt
 1030      E7800000 
 1031              	.LVL74:
 1032              		.loc 1 249 57 is_stmt 1
 1033              		.loc 1 249 82 is_stmt 0
 1034 0570 17050000 		lla	a0,.LC2
 1034      13050500 
 1035 0578 97000000 		call	_ZN8KConsole15trapPrintStringEPKc@plt
 1035      E7800000 
 1036              	.LVL75:
 250:src/slabAllocator.cpp ****     KConsole::trapPrintString("Number of objects ");
 1037              		.loc 1 250 5 is_stmt 1
 1038              		.loc 1 250 30 is_stmt 0
 1039 0580 17050000 		lla	a0,.LC4
 1039      13050500 
 1040 0588 97000000 		call	_ZN8KConsole15trapPrintStringEPKc@plt
 1040      E7800000 
 1041              	.LVL76:
 251:src/slabAllocator.cpp ****     KConsole::trapPrintInt(slab->numOfObjects);KConsole::trapPrintString("\n");
 1042              		.loc 1 251 5 is_stmt 1
 1043              		.loc 1 251 27 is_stmt 0
 1044 0590 13060000 		li	a2,0
 1045 0594 9305A000 		li	a1,10
 1046 0598 03B58401 		ld	a0,24(s1)
 1047 059c 97000000 		call	_ZN8KConsole12trapPrintIntEmii@plt
 1047      E7800000 
 1048              	.LVL77:
 1049              		.loc 1 251 48 is_stmt 1
 1050              		.loc 1 251 73 is_stmt 0
 1051 05a4 17050000 		lla	a0,.LC2
 1051      13050500 
 1052 05ac 97000000 		call	_ZN8KConsole15trapPrintStringEPKc@plt
 1052      E7800000 
 1053              	.LVL78:
 252:src/slabAllocator.cpp **** }
 1054              		.loc 1 252 1
 1055 05b4 83308101 		ld	ra,24(sp)
 1056              		.cfi_restore 1
 1057 05b8 03340101 		ld	s0,16(sp)
 1058              		.cfi_restore 8
 1059              		.cfi_def_cfa 2, 32
 1060 05bc 83348100 		ld	s1,8(sp)
 1061              		.cfi_restore 9
 1062              	.LVL79:
 1063 05c0 13010102 		addi	sp,sp,32
GAS LISTING /tmp/ccuvp5ur.s 			page 25


 1064              		.cfi_def_cfa_offset 0
 1065 05c4 67800000 		jr	ra
 1066              		.cfi_endproc
 1067              	.LFE18:
 1069              		.align	2
 1070              		.globl	_Z16free_slab_objectP6slab_sPKv
 1072              	_Z16free_slab_objectP6slab_sPKv:
 1073              	.LFB19:
 253:src/slabAllocator.cpp **** 
 254:src/slabAllocator.cpp **** void free_slab_object(slab_t* slab, const void* objp)
 255:src/slabAllocator.cpp **** {
 1074              		.loc 1 255 1 is_stmt 1
 1075              		.cfi_startproc
 1076              	.LVL80:
 1077 05c8 93860500 		mv	a3,a1
 256:src/slabAllocator.cpp ****     int indexOfObject = ((size_t)objp - sizeof(slab_t) - (size_t)slab) / slab->owner->obj_size;
 1078              		.loc 1 256 5
 1079              		.loc 1 256 56 is_stmt 0
 1080 05cc 3387A540 		sub	a4,a1,a0
 1081 05d0 130707FB 		addi	a4,a4,-80
 1082              		.loc 1 256 80
 1083 05d4 83370501 		ld	a5,16(a0)
 1084              		.loc 1 256 87
 1085 05d8 83B70723 		ld	a5,560(a5)
 1086              		.loc 1 256 72
 1087 05dc 3357F702 		divu	a4,a4,a5
 1088              		.loc 1 256 9
 1089 05e0 9B050700 		sext.w	a1,a4
 1090              	.LVL81:
 257:src/slabAllocator.cpp ****     if((size_t)objp != (size_t)slab + sizeof(slab_t) + indexOfObject*slab->owner->obj_size) //addre
 1091              		.loc 1 257 5 is_stmt 1
 1092              		.loc 1 257 69 is_stmt 0
 1093 05e4 B387B702 		mul	a5,a5,a1
 1094              		.loc 1 257 54
 1095 05e8 B307F500 		add	a5,a0,a5
 1096 05ec 93870705 		addi	a5,a5,80
 1097              		.loc 1 257 5
 1098 05f0 6384F600 		beq	a3,a5,.L73
 1099 05f4 67800000 		ret
 1100              	.L73:
 255:src/slabAllocator.cpp ****     int indexOfObject = ((size_t)objp - sizeof(slab_t) - (size_t)slab) / slab->owner->obj_size;
 1101              		.loc 1 255 1
 1102 05f8 130101FE 		addi	sp,sp,-32
 1103              		.cfi_def_cfa_offset 32
 1104 05fc 233C1100 		sd	ra,24(sp)
 1105 0600 23388100 		sd	s0,16(sp)
 1106 0604 23349100 		sd	s1,8(sp)
 1107              		.cfi_offset 1, -8
 1108              		.cfi_offset 8, -16
 1109              		.cfi_offset 9, -24
 1110 0608 13040102 		addi	s0,sp,32
 1111              		.cfi_def_cfa 8, 0
 1112 060c 93040500 		mv	s1,a0
 258:src/slabAllocator.cpp ****         return;
 259:src/slabAllocator.cpp **** 
 260:src/slabAllocator.cpp ****     resetAllocatedIndex(slab, indexOfObject);
 1113              		.loc 1 260 5 is_stmt 1
GAS LISTING /tmp/ccuvp5ur.s 			page 26


 1114              		.loc 1 260 24 is_stmt 0
 1115 0610 97000000 		call	_Z19resetAllocatedIndexP6slab_si
 1115      E7800000 
 1116              	.LVL82:
 261:src/slabAllocator.cpp ****     if(slab->numOfObjects == slab->numOfAllocatedObjects)
 1117              		.loc 1 261 5 is_stmt 1
 1118              		.loc 1 261 14 is_stmt 0
 1119 0618 03B78401 		ld	a4,24(s1)
 1120              		.loc 1 261 36
 1121 061c 83B70402 		ld	a5,32(s1)
 1122              		.loc 1 261 5
 1123 0620 6306F702 		beq	a4,a5,.L74
 262:src/slabAllocator.cpp ****         removeFullSlab(slab->owner, slab);
 263:src/slabAllocator.cpp ****     else if(slab->numOfAllocatedObjects == 1)
 1124              		.loc 1 263 10 is_stmt 1
 1125 0624 13071000 		li	a4,1
 1126 0628 638CE702 		beq	a5,a4,.L75
 1127              	.L68:
 264:src/slabAllocator.cpp ****         removePartialSlab(slab->owner, slab);
 265:src/slabAllocator.cpp ****     slab->numOfAllocatedObjects--;
 1128              		.loc 1 265 5
 1129              		.loc 1 265 11 is_stmt 0
 1130 062c 83B70402 		ld	a5,32(s1)
 1131              		.loc 1 265 32
 1132 0630 9387F7FF 		addi	a5,a5,-1
 1133 0634 23B0F402 		sd	a5,32(s1)
 266:src/slabAllocator.cpp **** }
 1134              		.loc 1 266 1
 1135 0638 83308101 		ld	ra,24(sp)
 1136              		.cfi_remember_state
 1137              		.cfi_restore 1
 1138 063c 03340101 		ld	s0,16(sp)
 1139              		.cfi_restore 8
 1140              		.cfi_def_cfa 2, 32
 1141 0640 83348100 		ld	s1,8(sp)
 1142              		.cfi_restore 9
 1143              	.LVL83:
 1144 0644 13010102 		addi	sp,sp,32
 1145              		.cfi_def_cfa_offset 0
 1146 0648 67800000 		jr	ra
 1147              	.LVL84:
 1148              	.L74:
 1149              		.cfi_restore_state
 262:src/slabAllocator.cpp ****         removeFullSlab(slab->owner, slab);
 1150              		.loc 1 262 9 is_stmt 1
 262:src/slabAllocator.cpp ****         removeFullSlab(slab->owner, slab);
 1151              		.loc 1 262 23 is_stmt 0
 1152 064c 93850400 		mv	a1,s1
 1153 0650 03B50401 		ld	a0,16(s1)
 1154 0654 97000000 		call	_Z14removeFullSlabP12kmem_cache_sP6slab_s
 1154      E7800000 
 1155              	.LVL85:
 1156 065c 6FF01FFD 		j	.L68
 1157              	.L75:
 264:src/slabAllocator.cpp ****         removePartialSlab(slab->owner, slab);
 1158              		.loc 1 264 9 is_stmt 1
 264:src/slabAllocator.cpp ****         removePartialSlab(slab->owner, slab);
GAS LISTING /tmp/ccuvp5ur.s 			page 27


 1159              		.loc 1 264 26 is_stmt 0
 1160 0660 93850400 		mv	a1,s1
 1161 0664 03B50401 		ld	a0,16(s1)
 1162 0668 97000000 		call	_Z17removePartialSlabP12kmem_cache_sP6slab_s
 1162      E7800000 
 1163              	.LVL86:
 1164 0670 6FF0DFFB 		j	.L68
 1165              		.cfi_endproc
 1166              	.LFE19:
 1168              		.align	2
 1169              		.globl	_Z9kmem_initPvi
 1171              	_Z9kmem_initPvi:
 1172              	.LFB20:
 267:src/slabAllocator.cpp **** 
 268:src/slabAllocator.cpp **** 
 269:src/slabAllocator.cpp **** //slab allocator public interface------------------------------------------------------------------
 270:src/slabAllocator.cpp **** void kmem_init(void *space, int block_num)
 271:src/slabAllocator.cpp **** {
 1173              		.loc 1 271 1 is_stmt 1
 1174              		.cfi_startproc
 1175              	.LVL87:
 1176 0674 130101FF 		addi	sp,sp,-16
 1177              		.cfi_def_cfa_offset 16
 1178 0678 23341100 		sd	ra,8(sp)
 1179 067c 23308100 		sd	s0,0(sp)
 1180              		.cfi_offset 1, -8
 1181              		.cfi_offset 8, -16
 1182 0680 13040101 		addi	s0,sp,16
 1183              		.cfi_def_cfa 8, 0
 272:src/slabAllocator.cpp ****     buddyAllocator* buddy = buddy_init(space, block_num);
 1184              		.loc 1 272 5
 1185              		.loc 1 272 39 is_stmt 0
 1186 0684 97000000 		call	_Z10buddy_initPvm@plt
 1186      E7800000 
 1187              	.LVL88:
 273:src/slabAllocator.cpp ****     slabAllocator = slab_allocator_init(buddy);
 1188              		.loc 1 273 5 is_stmt 1
 1189              		.loc 1 273 40 is_stmt 0
 1190 068c 97000000 		call	_Z19slab_allocator_initP14buddyAllocator
 1190      E7800000 
 1191              	.LVL89:
 1192              		.loc 1 273 19
 1193 0694 97070000 		sd	a0,.LANCHOR0,a5
 1193      23B0A700 
 274:src/slabAllocator.cpp **** }
 1194              		.loc 1 274 1
 1195 069c 83308100 		ld	ra,8(sp)
 1196              		.cfi_restore 1
 1197 06a0 03340100 		ld	s0,0(sp)
 1198              		.cfi_restore 8
 1199              		.cfi_def_cfa 2, 16
 1200 06a4 13010101 		addi	sp,sp,16
 1201              		.cfi_def_cfa_offset 0
 1202 06a8 67800000 		jr	ra
 1203              		.cfi_endproc
 1204              	.LFE20:
 1206              		.align	2
GAS LISTING /tmp/ccuvp5ur.s 			page 28


 1207              		.globl	_Z16kmem_cache_allocP12kmem_cache_s
 1209              	_Z16kmem_cache_allocP12kmem_cache_s:
 1210              	.LFB22:
 275:src/slabAllocator.cpp **** 
 276:src/slabAllocator.cpp **** kmem_cache_t *kmem_cache_create(const char *name, size_t size,
 277:src/slabAllocator.cpp ****                                 void (*ctor)(void *),
 278:src/slabAllocator.cpp ****                                 void (*dtor)(void *))
 279:src/slabAllocator.cpp **** {
 280:src/slabAllocator.cpp ****     kmem_cache_t* newCache = (kmem_cache_t*)kmem_cache_alloc(&slabAllocator->cacheOfCaches);
 281:src/slabAllocator.cpp ****     newCache->slabs_empty = nullptr;
 282:src/slabAllocator.cpp ****     newCache->slabs_partial = nullptr;
 283:src/slabAllocator.cpp ****     newCache->slabs_full = nullptr;
 284:src/slabAllocator.cpp ****     newCache->next = newCache->prev = nullptr;
 285:src/slabAllocator.cpp ****     newCache->dtor = dtor;
 286:src/slabAllocator.cpp ****     newCache->ctor = ctor;
 287:src/slabAllocator.cpp ****     strcpy(name, newCache->cacheName);
 288:src/slabAllocator.cpp ****     newCache->obj_size = size;
 289:src/slabAllocator.cpp ****     newCache->slab_size = getOptimalSlabSize(size);
 290:src/slabAllocator.cpp ****     return nullptr;
 291:src/slabAllocator.cpp **** }
 292:src/slabAllocator.cpp **** 
 293:src/slabAllocator.cpp **** void *kmem_cache_alloc(kmem_cache_t *cachep)
 294:src/slabAllocator.cpp **** {
 1211              		.loc 1 294 1 is_stmt 1
 1212              		.cfi_startproc
 1213              	.LVL90:
 1214 06ac 130101FE 		addi	sp,sp,-32
 1215              		.cfi_def_cfa_offset 32
 1216 06b0 233C1100 		sd	ra,24(sp)
 1217 06b4 23388100 		sd	s0,16(sp)
 1218 06b8 23349100 		sd	s1,8(sp)
 1219 06bc 23302101 		sd	s2,0(sp)
 1220              		.cfi_offset 1, -8
 1221              		.cfi_offset 8, -16
 1222              		.cfi_offset 9, -24
 1223              		.cfi_offset 18, -32
 1224 06c0 13040102 		addi	s0,sp,32
 1225              		.cfi_def_cfa 8, 0
 1226 06c4 93040500 		mv	s1,a0
 295:src/slabAllocator.cpp ****     if(cachep->slabs_partial != nullptr)
 1227              		.loc 1 295 5
 1228              	.LBB13:
 1229              		.loc 1 295 16 is_stmt 0
 1230 06c8 03350522 		ld	a0,544(a0)
 1231              	.LVL91:
 1232              		.loc 1 295 5
 1233 06cc 631C0502 		bnez	a0,.L86
 1234              	.LBE13:
 296:src/slabAllocator.cpp ****     {
 297:src/slabAllocator.cpp ****         void* allocatedAddr = allocateObject(cachep->slabs_partial);
 298:src/slabAllocator.cpp ****         if(full(cachep->slabs_partial))
 299:src/slabAllocator.cpp ****             putPartialToFull(cachep);
 300:src/slabAllocator.cpp ****         return allocatedAddr;
 301:src/slabAllocator.cpp ****     }
 302:src/slabAllocator.cpp ****     else if(cachep->slabs_empty != nullptr)
 1235              		.loc 1 302 10 is_stmt 1
 1236              	.LBB20:
GAS LISTING /tmp/ccuvp5ur.s 			page 29


 1237              	.LBB14:
 1238              		.loc 1 302 21 is_stmt 0
 1239 06d0 03B50421 		ld	a0,528(s1)
 1240              		.loc 1 302 10
 1241 06d4 630C0506 		beqz	a0,.L82
 1242              	.LBB15:
 303:src/slabAllocator.cpp ****     {
 304:src/slabAllocator.cpp ****         void* allocatedAddr = allocateObject(cachep->slabs_empty);
 1243              		.loc 1 304 9 is_stmt 1
 1244              		.loc 1 304 45 is_stmt 0
 1245 06d8 97000000 		call	_Z14allocateObjectP6slab_s
 1245      E7800000 
 1246              	.LVL92:
 1247 06e0 13090500 		mv	s2,a0
 1248              	.LVL93:
 305:src/slabAllocator.cpp ****         if(!empty(cachep->slabs_empty))
 1249              		.loc 1 305 9 is_stmt 1
 1250              		.loc 1 305 18 is_stmt 0
 1251 06e4 03B50421 		ld	a0,528(s1)
 1252              	.LVL94:
 1253 06e8 97000000 		call	_Z5emptyP6slab_s
 1253      E7800000 
 1254              	.LVL95:
 1255              		.loc 1 305 9
 1256 06f0 63180502 		bnez	a0,.L78
 306:src/slabAllocator.cpp ****             putEmptyToPartial(cachep);
 1257              		.loc 1 306 13 is_stmt 1
 1258              		.loc 1 306 30 is_stmt 0
 1259 06f4 13850400 		mv	a0,s1
 1260 06f8 97000000 		call	_Z17putEmptyToPartialP12kmem_cache_s
 1260      E7800000 
 1261              	.LVL96:
 307:src/slabAllocator.cpp ****         return allocatedAddr;
 1262              		.loc 1 307 9 is_stmt 1
 1263              		.loc 1 307 16 is_stmt 0
 1264 0700 6F000002 		j	.L78
 1265              	.LVL97:
 1266              	.L86:
 1267              	.LBE15:
 1268              	.LBE14:
 1269              	.LBB17:
 297:src/slabAllocator.cpp ****         if(full(cachep->slabs_partial))
 1270              		.loc 1 297 9 is_stmt 1
 297:src/slabAllocator.cpp ****         if(full(cachep->slabs_partial))
 1271              		.loc 1 297 45 is_stmt 0
 1272 0704 97000000 		call	_Z14allocateObjectP6slab_s
 1272      E7800000 
 1273              	.LVL98:
 1274 070c 13090500 		mv	s2,a0
 1275              	.LVL99:
 298:src/slabAllocator.cpp ****             putPartialToFull(cachep);
 1276              		.loc 1 298 9 is_stmt 1
 298:src/slabAllocator.cpp ****             putPartialToFull(cachep);
 1277              		.loc 1 298 16 is_stmt 0
 1278 0710 03B50422 		ld	a0,544(s1)
 1279              	.LVL100:
 1280 0714 97000000 		call	_Z4fullP6slab_s
GAS LISTING /tmp/ccuvp5ur.s 			page 30


 1280      E7800000 
 1281              	.LVL101:
 298:src/slabAllocator.cpp ****             putPartialToFull(cachep);
 1282              		.loc 1 298 9
 1283 071c 63100502 		bnez	a0,.L87
 1284              	.LVL102:
 1285              	.L78:
 1286              	.LBE17:
 1287              	.LBE20:
 308:src/slabAllocator.cpp ****     }
 309:src/slabAllocator.cpp ****     else
 310:src/slabAllocator.cpp ****     {
 311:src/slabAllocator.cpp ****         allocateSlab(cachep);
 312:src/slabAllocator.cpp ****         if(cachep->slabs_empty == nullptr)
 313:src/slabAllocator.cpp ****             return nullptr;
 314:src/slabAllocator.cpp ****         void* allocatedAddr = allocateObject(cachep->slabs_empty);
 315:src/slabAllocator.cpp ****         if(!empty(cachep->slabs_empty))
 316:src/slabAllocator.cpp ****             putEmptyToPartial(cachep);
 317:src/slabAllocator.cpp ****         return allocatedAddr;
 318:src/slabAllocator.cpp ****     }
 319:src/slabAllocator.cpp ****     return nullptr;
 320:src/slabAllocator.cpp **** }
 1288              		.loc 1 320 1
 1289 0720 13050900 		mv	a0,s2
 1290 0724 83308101 		ld	ra,24(sp)
 1291              		.cfi_remember_state
 1292              		.cfi_restore 1
 1293 0728 03340101 		ld	s0,16(sp)
 1294              		.cfi_restore 8
 1295              		.cfi_def_cfa 2, 32
 1296 072c 83348100 		ld	s1,8(sp)
 1297              		.cfi_restore 9
 1298              	.LVL103:
 1299 0730 03390100 		ld	s2,0(sp)
 1300              		.cfi_restore 18
 1301 0734 13010102 		addi	sp,sp,32
 1302              		.cfi_def_cfa_offset 0
 1303 0738 67800000 		jr	ra
 1304              	.LVL104:
 1305              	.L87:
 1306              		.cfi_restore_state
 1307              	.LBB21:
 1308              	.LBB18:
 299:src/slabAllocator.cpp ****         return allocatedAddr;
 1309              		.loc 1 299 13 is_stmt 1
 299:src/slabAllocator.cpp ****         return allocatedAddr;
 1310              		.loc 1 299 29 is_stmt 0
 1311 073c 13850400 		mv	a0,s1
 1312 0740 97000000 		call	_Z16putPartialToFullP12kmem_cache_s
 1312      E7800000 
 1313              	.LVL105:
 300:src/slabAllocator.cpp ****     }
 1314              		.loc 1 300 9 is_stmt 1
 300:src/slabAllocator.cpp ****     }
 1315              		.loc 1 300 16 is_stmt 0
 1316 0748 6FF09FFD 		j	.L78
 1317              	.LVL106:
GAS LISTING /tmp/ccuvp5ur.s 			page 31


 1318              	.L82:
 1319              	.LBE18:
 1320              	.LBB19:
 1321              	.LBB16:
 311:src/slabAllocator.cpp ****         if(cachep->slabs_empty == nullptr)
 1322              		.loc 1 311 9 is_stmt 1
 311:src/slabAllocator.cpp ****         if(cachep->slabs_empty == nullptr)
 1323              		.loc 1 311 21 is_stmt 0
 1324 074c 13850400 		mv	a0,s1
 1325 0750 97000000 		call	_Z12allocateSlabP12kmem_cache_s
 1325      E7800000 
 1326              	.LVL107:
 312:src/slabAllocator.cpp ****             return nullptr;
 1327              		.loc 1 312 9 is_stmt 1
 312:src/slabAllocator.cpp ****             return nullptr;
 1328              		.loc 1 312 20 is_stmt 0
 1329 0758 03B90421 		ld	s2,528(s1)
 312:src/slabAllocator.cpp ****             return nullptr;
 1330              		.loc 1 312 9
 1331 075c E30209FC 		beqz	s2,.L78
 314:src/slabAllocator.cpp ****         if(!empty(cachep->slabs_empty))
 1332              		.loc 1 314 9 is_stmt 1
 314:src/slabAllocator.cpp ****         if(!empty(cachep->slabs_empty))
 1333              		.loc 1 314 45 is_stmt 0
 1334 0760 13050900 		mv	a0,s2
 1335 0764 97000000 		call	_Z14allocateObjectP6slab_s
 1335      E7800000 
 1336              	.LVL108:
 1337 076c 13090500 		mv	s2,a0
 1338              	.LVL109:
 315:src/slabAllocator.cpp ****             putEmptyToPartial(cachep);
 1339              		.loc 1 315 9 is_stmt 1
 315:src/slabAllocator.cpp ****             putEmptyToPartial(cachep);
 1340              		.loc 1 315 18 is_stmt 0
 1341 0770 03B50421 		ld	a0,528(s1)
 1342              	.LVL110:
 1343 0774 97000000 		call	_Z5emptyP6slab_s
 1343      E7800000 
 1344              	.LVL111:
 315:src/slabAllocator.cpp ****             putEmptyToPartial(cachep);
 1345              		.loc 1 315 9
 1346 077c E31205FA 		bnez	a0,.L78
 316:src/slabAllocator.cpp ****         return allocatedAddr;
 1347              		.loc 1 316 13 is_stmt 1
 316:src/slabAllocator.cpp ****         return allocatedAddr;
 1348              		.loc 1 316 30 is_stmt 0
 1349 0780 13850400 		mv	a0,s1
 1350 0784 97000000 		call	_Z17putEmptyToPartialP12kmem_cache_s
 1350      E7800000 
 1351              	.LVL112:
 317:src/slabAllocator.cpp ****     }
 1352              		.loc 1 317 9 is_stmt 1
 317:src/slabAllocator.cpp ****     }
 1353              		.loc 1 317 16 is_stmt 0
 1354 078c 6FF05FF9 		j	.L78
 1355              	.LBE16:
 1356              	.LBE19:
GAS LISTING /tmp/ccuvp5ur.s 			page 32


 1357              	.LBE21:
 1358              		.cfi_endproc
 1359              	.LFE22:
 1361              		.align	2
 1362              		.globl	_Z17kmem_cache_createPKcmPFvPvES3_
 1364              	_Z17kmem_cache_createPKcmPFvPvES3_:
 1365              	.LFB21:
 279:src/slabAllocator.cpp ****     kmem_cache_t* newCache = (kmem_cache_t*)kmem_cache_alloc(&slabAllocator->cacheOfCaches);
 1366              		.loc 1 279 1 is_stmt 1
 1367              		.cfi_startproc
 1368              	.LVL113:
 1369 0790 130101FC 		addi	sp,sp,-64
 1370              		.cfi_def_cfa_offset 64
 1371 0794 233C1102 		sd	ra,56(sp)
 1372 0798 23388102 		sd	s0,48(sp)
 1373 079c 23349102 		sd	s1,40(sp)
 1374 07a0 23302103 		sd	s2,32(sp)
 1375 07a4 233C3101 		sd	s3,24(sp)
 1376 07a8 23384101 		sd	s4,16(sp)
 1377 07ac 23345101 		sd	s5,8(sp)
 1378              		.cfi_offset 1, -8
 1379              		.cfi_offset 8, -16
 1380              		.cfi_offset 9, -24
 1381              		.cfi_offset 18, -32
 1382              		.cfi_offset 19, -40
 1383              		.cfi_offset 20, -48
 1384              		.cfi_offset 21, -56
 1385 07b0 13040104 		addi	s0,sp,64
 1386              		.cfi_def_cfa 8, 0
 1387 07b4 93090500 		mv	s3,a0
 1388 07b8 13890500 		mv	s2,a1
 1389 07bc 130A0600 		mv	s4,a2
 1390 07c0 938A0600 		mv	s5,a3
 280:src/slabAllocator.cpp ****     newCache->slabs_empty = nullptr;
 1391              		.loc 1 280 5
 280:src/slabAllocator.cpp ****     newCache->slabs_empty = nullptr;
 1392              		.loc 1 280 61 is_stmt 0
 1393 07c4 17050000 		ld	a0,.LANCHOR0
 1393      03350500 
 1394              	.LVL114:
 1395 07cc 13058507 		addi	a0,a0,120
 1396 07d0 97000000 		call	_Z16kmem_cache_allocP12kmem_cache_s
 1396      E7800000 
 1397              	.LVL115:
 1398 07d8 93040500 		mv	s1,a0
 1399              	.LVL116:
 281:src/slabAllocator.cpp ****     newCache->slabs_partial = nullptr;
 1400              		.loc 1 281 5 is_stmt 1
 281:src/slabAllocator.cpp ****     newCache->slabs_partial = nullptr;
 1401              		.loc 1 281 27 is_stmt 0
 1402 07dc 23380520 		sd	zero,528(a0)
 282:src/slabAllocator.cpp ****     newCache->slabs_full = nullptr;
 1403              		.loc 1 282 5 is_stmt 1
 282:src/slabAllocator.cpp ****     newCache->slabs_full = nullptr;
 1404              		.loc 1 282 29 is_stmt 0
 1405 07e0 23300522 		sd	zero,544(a0)
 283:src/slabAllocator.cpp ****     newCache->next = newCache->prev = nullptr;
GAS LISTING /tmp/ccuvp5ur.s 			page 33


 1406              		.loc 1 283 5 is_stmt 1
 283:src/slabAllocator.cpp ****     newCache->next = newCache->prev = nullptr;
 1407              		.loc 1 283 26 is_stmt 0
 1408 07e4 233C0520 		sd	zero,536(a0)
 284:src/slabAllocator.cpp ****     newCache->dtor = dtor;
 1409              		.loc 1 284 5 is_stmt 1
 284:src/slabAllocator.cpp ****     newCache->dtor = dtor;
 1410              		.loc 1 284 37 is_stmt 0
 1411 07e8 23340520 		sd	zero,520(a0)
 284:src/slabAllocator.cpp ****     newCache->dtor = dtor;
 1412              		.loc 1 284 20
 1413 07ec 23300520 		sd	zero,512(a0)
 285:src/slabAllocator.cpp ****     newCache->ctor = ctor;
 1414              		.loc 1 285 5 is_stmt 1
 285:src/slabAllocator.cpp ****     newCache->ctor = ctor;
 1415              		.loc 1 285 20 is_stmt 0
 1416 07f0 23305525 		sd	s5,576(a0)
 286:src/slabAllocator.cpp ****     strcpy(name, newCache->cacheName);
 1417              		.loc 1 286 5 is_stmt 1
 286:src/slabAllocator.cpp ****     strcpy(name, newCache->cacheName);
 1418              		.loc 1 286 20 is_stmt 0
 1419 07f4 233C4523 		sd	s4,568(a0)
 287:src/slabAllocator.cpp ****     newCache->obj_size = size;
 1420              		.loc 1 287 5 is_stmt 1
 287:src/slabAllocator.cpp ****     newCache->obj_size = size;
 1421              		.loc 1 287 11 is_stmt 0
 1422 07f8 93050500 		mv	a1,a0
 1423 07fc 13850900 		mv	a0,s3
 1424 0800 97000000 		call	_Z6strcpyPKcPc
 1424      E7800000 
 1425              	.LVL117:
 288:src/slabAllocator.cpp ****     newCache->slab_size = getOptimalSlabSize(size);
 1426              		.loc 1 288 5 is_stmt 1
 288:src/slabAllocator.cpp ****     newCache->slab_size = getOptimalSlabSize(size);
 1427              		.loc 1 288 24 is_stmt 0
 1428 0808 23B82423 		sd	s2,560(s1)
 289:src/slabAllocator.cpp ****     return nullptr;
 1429              		.loc 1 289 5 is_stmt 1
 289:src/slabAllocator.cpp ****     return nullptr;
 1430              		.loc 1 289 45 is_stmt 0
 1431 080c 13050900 		mv	a0,s2
 1432 0810 97000000 		call	_Z18getOptimalSlabSizem
 1432      E7800000 
 1433              	.LVL118:
 289:src/slabAllocator.cpp ****     return nullptr;
 1434              		.loc 1 289 25
 1435 0818 23B4A422 		sd	a0,552(s1)
 290:src/slabAllocator.cpp **** }
 1436              		.loc 1 290 5 is_stmt 1
 291:src/slabAllocator.cpp **** 
 1437              		.loc 1 291 1 is_stmt 0
 1438 081c 13050000 		li	a0,0
 1439 0820 83308103 		ld	ra,56(sp)
 1440              		.cfi_restore 1
 1441 0824 03340103 		ld	s0,48(sp)
 1442              		.cfi_restore 8
 1443              		.cfi_def_cfa 2, 64
GAS LISTING /tmp/ccuvp5ur.s 			page 34


 1444 0828 83348102 		ld	s1,40(sp)
 1445              		.cfi_restore 9
 1446              	.LVL119:
 1447 082c 03390102 		ld	s2,32(sp)
 1448              		.cfi_restore 18
 1449              	.LVL120:
 1450 0830 83398101 		ld	s3,24(sp)
 1451              		.cfi_restore 19
 1452              	.LVL121:
 1453 0834 033A0101 		ld	s4,16(sp)
 1454              		.cfi_restore 20
 1455              	.LVL122:
 1456 0838 833A8100 		ld	s5,8(sp)
 1457              		.cfi_restore 21
 1458              	.LVL123:
 1459 083c 13010104 		addi	sp,sp,64
 1460              		.cfi_def_cfa_offset 0
 1461 0840 67800000 		jr	ra
 1462              		.cfi_endproc
 1463              	.LFE21:
 1465              		.align	2
 1466              		.globl	_Z15kmem_cache_freeP12kmem_cache_sPv
 1468              	_Z15kmem_cache_freeP12kmem_cache_sPv:
 1469              	.LFB23:
 321:src/slabAllocator.cpp **** 
 322:src/slabAllocator.cpp **** void kmem_cache_free(kmem_cache_t *cachep, void *objp)
 323:src/slabAllocator.cpp **** {
 1470              		.loc 1 323 1 is_stmt 1
 1471              		.cfi_startproc
 1472              	.LVL124:
 1473 0844 130101FE 		addi	sp,sp,-32
 1474              		.cfi_def_cfa_offset 32
 1475 0848 233C1100 		sd	ra,24(sp)
 1476 084c 23388100 		sd	s0,16(sp)
 1477 0850 23349100 		sd	s1,8(sp)
 1478              		.cfi_offset 1, -8
 1479              		.cfi_offset 8, -16
 1480              		.cfi_offset 9, -24
 1481 0854 13040102 		addi	s0,sp,32
 1482              		.cfi_def_cfa 8, 0
 1483 0858 93840500 		mv	s1,a1
 324:src/slabAllocator.cpp ****     slab_t* slab = findSlab(cachep, objp);
 1484              		.loc 1 324 5
 1485              		.loc 1 324 28 is_stmt 0
 1486 085c 97000000 		call	_Z8findSlabP12kmem_cache_sPKv
 1486      E7800000 
 1487              	.LVL125:
 325:src/slabAllocator.cpp ****     if(slab == nullptr) return;
 1488              		.loc 1 325 5 is_stmt 1
 1489 0864 63080500 		beqz	a0,.L90
 326:src/slabAllocator.cpp ****     free_slab_object(slab, objp);
 1490              		.loc 1 326 5
 1491              		.loc 1 326 21 is_stmt 0
 1492 0868 93850400 		mv	a1,s1
 1493 086c 97000000 		call	_Z16free_slab_objectP6slab_sPKv
 1493      E7800000 
 1494              	.LVL126:
GAS LISTING /tmp/ccuvp5ur.s 			page 35


 1495              	.L90:
 327:src/slabAllocator.cpp **** }
 1496              		.loc 1 327 1
 1497 0874 83308101 		ld	ra,24(sp)
 1498              		.cfi_restore 1
 1499 0878 03340101 		ld	s0,16(sp)
 1500              		.cfi_restore 8
 1501              		.cfi_def_cfa 2, 32
 1502 087c 83348100 		ld	s1,8(sp)
 1503              		.cfi_restore 9
 1504              	.LVL127:
 1505 0880 13010102 		addi	sp,sp,32
 1506              		.cfi_def_cfa_offset 0
 1507 0884 67800000 		jr	ra
 1508              		.cfi_endproc
 1509              	.LFE23:
 1511              		.section	.rodata.str1.8
 1512 005b 00000000 		.align	3
 1512      00
 1513              	.LC5:
 1514 0060 4B6D656D 		.string	"Kmem Cache Info-------------------\n"
 1514      20436163 
 1514      68652049 
 1514      6E666F2D 
 1514      2D2D2D2D 
 1515 0084 00000000 		.align	3
 1516              	.LC6:
 1517 0088 43616368 		.string	"Cache Name "
 1517      65204E61 
 1517      6D652000 
 1518 0094 00000000 		.align	3
 1519              	.LC7:
 1520 0098 43616368 		.string	"Cache slab size in blocks "
 1520      6520736C 
 1520      61622073 
 1520      697A6520 
 1520      696E2062 
 1521 00b3 00000000 		.align	3
 1521      00
 1522              	.LC8:
 1523 00b8 43616368 		.string	"Cache obj size in bytes "
 1523      65206F62 
 1523      6A207369 
 1523      7A652069 
 1523      6E206279 
 1524 00d1 00000000 		.align	3
 1524      000000
 1525              	.LC9:
 1526 00d8 536C6162 		.string	"Slabs info----\n"
 1526      7320696E 
 1526      666F2D2D 
 1526      2D2D0A00 
 1527              		.align	3
 1528              	.LC10:
 1529 00e8 46756C6C 		.string	"Full slabs\n"
 1529      20736C61 
 1529      62730A00 
GAS LISTING /tmp/ccuvp5ur.s 			page 36


 1530 00f4 00000000 		.align	3
 1531              	.LC11:
 1532 00f8 50617274 		.string	"Partial slabs\n"
 1532      69616C20 
 1532      736C6162 
 1532      730A00
 1533 0107 00       		.align	3
 1534              	.LC12:
 1535 0108 456D7074 		.string	"Empty slabs\n"
 1535      7920736C 
 1535      6162730A 
 1535      00
 1536              		.text
 1537              		.align	2
 1538              		.globl	_Z15kmem_cache_infoP12kmem_cache_s
 1540              	_Z15kmem_cache_infoP12kmem_cache_s:
 1541              	.LFB24:
 328:src/slabAllocator.cpp **** 
 329:src/slabAllocator.cpp **** //TODO
 330:src/slabAllocator.cpp **** //what needs to be printed
 331:src/slabAllocator.cpp **** void kmem_cache_info(kmem_cache_t *cachep)
 332:src/slabAllocator.cpp **** {
 1542              		.loc 1 332 1 is_stmt 1
 1543              		.cfi_startproc
 1544              	.LVL128:
 1545 0888 130101FE 		addi	sp,sp,-32
 1546              		.cfi_def_cfa_offset 32
 1547 088c 233C1100 		sd	ra,24(sp)
 1548 0890 23388100 		sd	s0,16(sp)
 1549 0894 23349100 		sd	s1,8(sp)
 1550 0898 23302101 		sd	s2,0(sp)
 1551              		.cfi_offset 1, -8
 1552              		.cfi_offset 8, -16
 1553              		.cfi_offset 9, -24
 1554              		.cfi_offset 18, -32
 1555 089c 13040102 		addi	s0,sp,32
 1556              		.cfi_def_cfa 8, 0
 1557 08a0 13090500 		mv	s2,a0
 333:src/slabAllocator.cpp ****     KConsole::trapPrintString("Kmem Cache Info-------------------\n");
 1558              		.loc 1 333 5
 1559              		.loc 1 333 30 is_stmt 0
 1560 08a4 17050000 		lla	a0,.LC5
 1560      13050500 
 1561              	.LVL129:
 1562 08ac 97000000 		call	_ZN8KConsole15trapPrintStringEPKc@plt
 1562      E7800000 
 1563              	.LVL130:
 334:src/slabAllocator.cpp ****     KConsole::trapPrintString("Cache Name ");
 1564              		.loc 1 334 5 is_stmt 1
 1565              		.loc 1 334 30 is_stmt 0
 1566 08b4 17050000 		lla	a0,.LC6
 1566      13050500 
 1567 08bc 97000000 		call	_ZN8KConsole15trapPrintStringEPKc@plt
 1567      E7800000 
 1568              	.LVL131:
 335:src/slabAllocator.cpp ****     KConsole::trapPrintString(cachep->cacheName); KConsole::trapPrintString("\n");
 1569              		.loc 1 335 5 is_stmt 1
GAS LISTING /tmp/ccuvp5ur.s 			page 37


 1570              		.loc 1 335 30 is_stmt 0
 1571 08c4 13050900 		mv	a0,s2
 1572 08c8 97000000 		call	_ZN8KConsole15trapPrintStringEPKc@plt
 1572      E7800000 
 1573              	.LVL132:
 1574              		.loc 1 335 51 is_stmt 1
 1575              		.loc 1 335 76 is_stmt 0
 1576 08d0 17050000 		lla	a0,.LC2
 1576      13050500 
 1577 08d8 97000000 		call	_ZN8KConsole15trapPrintStringEPKc@plt
 1577      E7800000 
 1578              	.LVL133:
 336:src/slabAllocator.cpp ****     KConsole::trapPrintString("Cache slab size in blocks ");
 1579              		.loc 1 336 5 is_stmt 1
 1580              		.loc 1 336 30 is_stmt 0
 1581 08e0 17050000 		lla	a0,.LC7
 1581      13050500 
 1582 08e8 97000000 		call	_ZN8KConsole15trapPrintStringEPKc@plt
 1582      E7800000 
 1583              	.LVL134:
 337:src/slabAllocator.cpp ****     KConsole::trapPrintInt(cachep->slab_size); KConsole::trapPrintString("\n");
 1584              		.loc 1 337 5 is_stmt 1
 1585              		.loc 1 337 27 is_stmt 0
 1586 08f0 13060000 		li	a2,0
 1587 08f4 9305A000 		li	a1,10
 1588 08f8 03358922 		ld	a0,552(s2)
 1589 08fc 97000000 		call	_ZN8KConsole12trapPrintIntEmii@plt
 1589      E7800000 
 1590              	.LVL135:
 1591              		.loc 1 337 48 is_stmt 1
 1592              		.loc 1 337 73 is_stmt 0
 1593 0904 17050000 		lla	a0,.LC2
 1593      13050500 
 1594 090c 97000000 		call	_ZN8KConsole15trapPrintStringEPKc@plt
 1594      E7800000 
 1595              	.LVL136:
 338:src/slabAllocator.cpp ****     KConsole::trapPrintString("Cache obj size in bytes ");
 1596              		.loc 1 338 5 is_stmt 1
 1597              		.loc 1 338 30 is_stmt 0
 1598 0914 17050000 		lla	a0,.LC8
 1598      13050500 
 1599 091c 97000000 		call	_ZN8KConsole15trapPrintStringEPKc@plt
 1599      E7800000 
 1600              	.LVL137:
 339:src/slabAllocator.cpp ****     KConsole::trapPrintInt(cachep->obj_size); KConsole::trapPrintString("\n");
 1601              		.loc 1 339 5 is_stmt 1
 1602              		.loc 1 339 27 is_stmt 0
 1603 0924 13060000 		li	a2,0
 1604 0928 9305A000 		li	a1,10
 1605 092c 03350923 		ld	a0,560(s2)
 1606 0930 97000000 		call	_ZN8KConsole12trapPrintIntEmii@plt
 1606      E7800000 
 1607              	.LVL138:
 1608              		.loc 1 339 47 is_stmt 1
 1609              		.loc 1 339 72 is_stmt 0
 1610 0938 17050000 		lla	a0,.LC2
 1610      13050500 
GAS LISTING /tmp/ccuvp5ur.s 			page 38


 1611 0940 97000000 		call	_ZN8KConsole15trapPrintStringEPKc@plt
 1611      E7800000 
 1612              	.LVL139:
 340:src/slabAllocator.cpp ****     KConsole::trapPrintString("Slabs info----\n");
 1613              		.loc 1 340 5 is_stmt 1
 1614              		.loc 1 340 30 is_stmt 0
 1615 0948 17050000 		lla	a0,.LC9
 1615      13050500 
 1616 0950 97000000 		call	_ZN8KConsole15trapPrintStringEPKc@plt
 1616      E7800000 
 1617              	.LVL140:
 341:src/slabAllocator.cpp **** 
 342:src/slabAllocator.cpp ****     KConsole::trapPrintString("Full slabs\n");
 1618              		.loc 1 342 5 is_stmt 1
 1619              		.loc 1 342 30 is_stmt 0
 1620 0958 17050000 		lla	a0,.LC10
 1620      13050500 
 1621 0960 97000000 		call	_ZN8KConsole15trapPrintStringEPKc@plt
 1621      E7800000 
 1622              	.LVL141:
 343:src/slabAllocator.cpp ****     slab_t* slab = cachep->slabs_full;
 1623              		.loc 1 343 5 is_stmt 1
 1624              		.loc 1 343 13 is_stmt 0
 1625 0968 83348921 		ld	s1,536(s2)
 1626              	.LVL142:
 1627              	.L95:
 344:src/slabAllocator.cpp ****     while(slab != nullptr)
 1628              		.loc 1 344 5 is_stmt 1
 1629              		.loc 1 344 16
 1630 096c 638C0400 		beqz	s1,.L94
 345:src/slabAllocator.cpp ****     {
 346:src/slabAllocator.cpp ****         printSlabInfo(slab);
 1631              		.loc 1 346 9
 1632              		.loc 1 346 22 is_stmt 0
 1633 0970 13850400 		mv	a0,s1
 1634 0974 97000000 		call	_Z13printSlabInfoP6slab_s
 1634      E7800000 
 1635              	.LVL143:
 347:src/slabAllocator.cpp ****         slab = slab->next;
 1636              		.loc 1 347 9 is_stmt 1
 1637              		.loc 1 347 14 is_stmt 0
 1638 097c 83B48400 		ld	s1,8(s1)
 1639              	.LVL144:
 344:src/slabAllocator.cpp ****     while(slab != nullptr)
 1640              		.loc 1 344 5
 1641 0980 6FF0DFFE 		j	.L95
 1642              	.L94:
 348:src/slabAllocator.cpp ****     }
 349:src/slabAllocator.cpp **** 
 350:src/slabAllocator.cpp ****     KConsole::trapPrintString("Partial slabs\n");
 1643              		.loc 1 350 5 is_stmt 1
 1644              		.loc 1 350 30 is_stmt 0
 1645 0984 17050000 		lla	a0,.LC11
 1645      13050500 
 1646 098c 97000000 		call	_ZN8KConsole15trapPrintStringEPKc@plt
 1646      E7800000 
 1647              	.LVL145:
GAS LISTING /tmp/ccuvp5ur.s 			page 39


 351:src/slabAllocator.cpp ****     slab = cachep->slabs_partial;
 1648              		.loc 1 351 5 is_stmt 1
 1649              		.loc 1 351 10 is_stmt 0
 1650 0994 83340922 		ld	s1,544(s2)
 1651              	.LVL146:
 1652              	.L97:
 352:src/slabAllocator.cpp ****     while(slab != nullptr)
 1653              		.loc 1 352 5 is_stmt 1
 1654              		.loc 1 352 16
 1655 0998 638C0400 		beqz	s1,.L96
 353:src/slabAllocator.cpp ****     {
 354:src/slabAllocator.cpp ****         printSlabInfo(slab);
 1656              		.loc 1 354 9
 1657              		.loc 1 354 22 is_stmt 0
 1658 099c 13850400 		mv	a0,s1
 1659 09a0 97000000 		call	_Z13printSlabInfoP6slab_s
 1659      E7800000 
 1660              	.LVL147:
 355:src/slabAllocator.cpp ****         slab = slab->next;
 1661              		.loc 1 355 9 is_stmt 1
 1662              		.loc 1 355 14 is_stmt 0
 1663 09a8 83B48400 		ld	s1,8(s1)
 1664              	.LVL148:
 352:src/slabAllocator.cpp ****     while(slab != nullptr)
 1665              		.loc 1 352 5
 1666 09ac 6FF0DFFE 		j	.L97
 1667              	.L96:
 356:src/slabAllocator.cpp ****     }
 357:src/slabAllocator.cpp **** 
 358:src/slabAllocator.cpp ****     KConsole::trapPrintString("Empty slabs\n");
 1668              		.loc 1 358 5 is_stmt 1
 1669              		.loc 1 358 30 is_stmt 0
 1670 09b0 17050000 		lla	a0,.LC12
 1670      13050500 
 1671 09b8 97000000 		call	_ZN8KConsole15trapPrintStringEPKc@plt
 1671      E7800000 
 1672              	.LVL149:
 359:src/slabAllocator.cpp ****     slab = cachep->slabs_empty;
 1673              		.loc 1 359 5 is_stmt 1
 1674              		.loc 1 359 10 is_stmt 0
 1675 09c0 83340921 		ld	s1,528(s2)
 1676              	.LVL150:
 1677              	.L99:
 360:src/slabAllocator.cpp ****     while(slab != nullptr)
 1678              		.loc 1 360 5 is_stmt 1
 1679              		.loc 1 360 16
 1680 09c4 638C0400 		beqz	s1,.L93
 361:src/slabAllocator.cpp ****     {
 362:src/slabAllocator.cpp ****         printSlabInfo(slab);
 1681              		.loc 1 362 9
 1682              		.loc 1 362 22 is_stmt 0
 1683 09c8 13850400 		mv	a0,s1
 1684 09cc 97000000 		call	_Z13printSlabInfoP6slab_s
 1684      E7800000 
 1685              	.LVL151:
 363:src/slabAllocator.cpp ****         slab = slab->next;
 1686              		.loc 1 363 9 is_stmt 1
GAS LISTING /tmp/ccuvp5ur.s 			page 40


 1687              		.loc 1 363 14 is_stmt 0
 1688 09d4 83B48400 		ld	s1,8(s1)
 1689              	.LVL152:
 360:src/slabAllocator.cpp ****     while(slab != nullptr)
 1690              		.loc 1 360 5
 1691 09d8 6FF0DFFE 		j	.L99
 1692              	.L93:
 364:src/slabAllocator.cpp ****     }
 365:src/slabAllocator.cpp **** }
 1693              		.loc 1 365 1
 1694 09dc 83308101 		ld	ra,24(sp)
 1695              		.cfi_restore 1
 1696 09e0 03340101 		ld	s0,16(sp)
 1697              		.cfi_restore 8
 1698              		.cfi_def_cfa 2, 32
 1699 09e4 83348100 		ld	s1,8(sp)
 1700              		.cfi_restore 9
 1701              	.LVL153:
 1702 09e8 03390100 		ld	s2,0(sp)
 1703              		.cfi_restore 18
 1704              	.LVL154:
 1705 09ec 13010102 		addi	sp,sp,32
 1706              		.cfi_def_cfa_offset 0
 1707 09f0 67800000 		jr	ra
 1708              		.cfi_endproc
 1709              	.LFE24:
 1711              		.align	2
 1712              		.globl	_Z7kmallocm
 1714              	_Z7kmallocm:
 1715              	.LFB25:
 366:src/slabAllocator.cpp **** 
 367:src/slabAllocator.cpp **** void *kmalloc(size_t size)
 368:src/slabAllocator.cpp **** {
 1716              		.loc 1 368 1 is_stmt 1
 1717              		.cfi_startproc
 1718              	.LVL155:
 1719 09f4 130101FE 		addi	sp,sp,-32
 1720              		.cfi_def_cfa_offset 32
 1721 09f8 233C1100 		sd	ra,24(sp)
 1722 09fc 23388100 		sd	s0,16(sp)
 1723 0a00 23349100 		sd	s1,8(sp)
 1724 0a04 23302101 		sd	s2,0(sp)
 1725              		.cfi_offset 1, -8
 1726              		.cfi_offset 8, -16
 1727              		.cfi_offset 9, -24
 1728              		.cfi_offset 18, -32
 1729 0a08 13040102 		addi	s0,sp,32
 1730              		.cfi_def_cfa 8, 0
 369:src/slabAllocator.cpp ****     size_t level = getDeg2Ceil(size);
 1731              		.loc 1 369 5
 1732              		.loc 1 369 31 is_stmt 0
 1733 0a0c 97000000 		call	_Z11getDeg2Ceilm@plt
 1733      E7800000 
 1734              	.LVL156:
 370:src/slabAllocator.cpp ****     size_t index = level - CACHE_BUFFER_SMALL;
 1735              		.loc 1 370 5 is_stmt 1
 1736              		.loc 1 370 12 is_stmt 0
GAS LISTING /tmp/ccuvp5ur.s 			page 41


 1737 0a14 9304B5FF 		addi	s1,a0,-5
 1738              	.LVL157:
 371:src/slabAllocator.cpp ****     if(slabAllocator->cachesBuffers[index] == nullptr)
 1739              		.loc 1 371 5 is_stmt 1
 1740              		.loc 1 371 42 is_stmt 0
 1741 0a18 17090000 		ld	s2,.LANCHOR0
 1741      03390900 
 1742 0a20 1305D5FF 		addi	a0,a0,-3
 1743              	.LVL158:
 1744 0a24 13153500 		slli	a0,a0,3
 1745              	.LVL159:
 1746 0a28 3305A900 		add	a0,s2,a0
 1747 0a2c 83370500 		ld	a5,0(a0)
 1748              		.loc 1 371 5
 1749 0a30 638E0702 		beqz	a5,.L104
 1750              	.L102:
 372:src/slabAllocator.cpp ****         slabAllocator->cachesBuffers[index] = (kmem_cache_t*)kmem_cache_alloc(&slabAllocator->cache
 373:src/slabAllocator.cpp **** 
 374:src/slabAllocator.cpp ****     return kmem_cache_alloc(slabAllocator->cachesBuffers[index]);
 1751              		.loc 1 374 5 is_stmt 1
 1752              		.loc 1 374 28 is_stmt 0
 1753 0a34 93842400 		addi	s1,s1,2
 1754              	.LVL160:
 1755 0a38 93943400 		slli	s1,s1,3
 1756              	.LVL161:
 1757 0a3c 97070000 		ld	a5,.LANCHOR0
 1757      83B70700 
 1758 0a44 B3849700 		add	s1,a5,s1
 1759 0a48 03B50400 		ld	a0,0(s1)
 1760 0a4c 97000000 		call	_Z16kmem_cache_allocP12kmem_cache_s
 1760      E7800000 
 1761              	.LVL162:
 375:src/slabAllocator.cpp **** }
 1762              		.loc 1 375 1
 1763 0a54 83308101 		ld	ra,24(sp)
 1764              		.cfi_remember_state
 1765              		.cfi_restore 1
 1766 0a58 03340101 		ld	s0,16(sp)
 1767              		.cfi_restore 8
 1768              		.cfi_def_cfa 2, 32
 1769 0a5c 83348100 		ld	s1,8(sp)
 1770              		.cfi_restore 9
 1771 0a60 03390100 		ld	s2,0(sp)
 1772              		.cfi_restore 18
 1773 0a64 13010102 		addi	sp,sp,32
 1774              		.cfi_def_cfa_offset 0
 1775 0a68 67800000 		jr	ra
 1776              	.LVL163:
 1777              	.L104:
 1778              		.cfi_restore_state
 372:src/slabAllocator.cpp ****         slabAllocator->cachesBuffers[index] = (kmem_cache_t*)kmem_cache_alloc(&slabAllocator->cache
 1779              		.loc 1 372 9 is_stmt 1
 372:src/slabAllocator.cpp ****         slabAllocator->cachesBuffers[index] = (kmem_cache_t*)kmem_cache_alloc(&slabAllocator->cache
 1780              		.loc 1 372 78 is_stmt 0
 1781 0a6c 13058907 		addi	a0,s2,120
 1782 0a70 97000000 		call	_Z16kmem_cache_allocP12kmem_cache_s
 1782      E7800000 
GAS LISTING /tmp/ccuvp5ur.s 			page 42


 1783              	.LVL164:
 372:src/slabAllocator.cpp ****         slabAllocator->cachesBuffers[index] = (kmem_cache_t*)kmem_cache_alloc(&slabAllocator->cache
 1784              		.loc 1 372 45
 1785 0a78 93872400 		addi	a5,s1,2
 1786 0a7c 93973700 		slli	a5,a5,3
 1787 0a80 3309F900 		add	s2,s2,a5
 1788 0a84 2330A900 		sd	a0,0(s2)
 1789 0a88 6FF0DFFA 		j	.L102
 1790              		.cfi_endproc
 1791              	.LFE25:
 1793              		.align	2
 1794              		.globl	_Z5kfreePKv
 1796              	_Z5kfreePKv:
 1797              	.LFB26:
 376:src/slabAllocator.cpp **** 
 377:src/slabAllocator.cpp **** void kfree(const void *objp)
 378:src/slabAllocator.cpp **** {
 1798              		.loc 1 378 1 is_stmt 1
 1799              		.cfi_startproc
 1800              	.LVL165:
 1801 0a8c 130101FE 		addi	sp,sp,-32
 1802              		.cfi_def_cfa_offset 32
 1803 0a90 233C1100 		sd	ra,24(sp)
 1804 0a94 23388100 		sd	s0,16(sp)
 1805 0a98 23349100 		sd	s1,8(sp)
 1806 0a9c 23302101 		sd	s2,0(sp)
 1807              		.cfi_offset 1, -8
 1808              		.cfi_offset 8, -16
 1809              		.cfi_offset 9, -24
 1810              		.cfi_offset 18, -32
 1811 0aa0 13040102 		addi	s0,sp,32
 1812              		.cfi_def_cfa 8, 0
 1813 0aa4 13090500 		mv	s2,a0
 379:src/slabAllocator.cpp ****     slab_t* slab = nullptr;
 1814              		.loc 1 379 5
 1815              	.LVL166:
 380:src/slabAllocator.cpp ****     for(size_t i = 0;i < CACHE_BUFFER_SIZE;i++)
 1816              		.loc 1 380 5
 1817              	.LBB22:
 1818              		.loc 1 380 16 is_stmt 0
 1819 0aa8 93040000 		li	s1,0
 1820              	.LBE22:
 379:src/slabAllocator.cpp ****     slab_t* slab = nullptr;
 1821              		.loc 1 379 13
 1822 0aac 13050000 		li	a0,0
 1823              	.LVL167:
 1824              	.L107:
 1825              	.LBB23:
 1826              		.loc 1 380 24 is_stmt 1 discriminator 1
 1827 0ab0 9307C000 		li	a5,12
 1828 0ab4 63EA9702 		bgtu	s1,a5,.L106
 381:src/slabAllocator.cpp ****     {
 382:src/slabAllocator.cpp ****         slab = findSlab(slabAllocator->cachesBuffers[i], objp);
 1829              		.loc 1 382 9
 1830              		.loc 1 382 24 is_stmt 0
 1831 0ab8 93872400 		addi	a5,s1,2
 1832 0abc 13973700 		slli	a4,a5,3
GAS LISTING /tmp/ccuvp5ur.s 			page 43


 1833 0ac0 97070000 		ld	a5,.LANCHOR0
 1833      83B70700 
 1834 0ac8 B387E700 		add	a5,a5,a4
 1835 0acc 93050900 		mv	a1,s2
 1836 0ad0 03B50700 		ld	a0,0(a5)
 1837              	.LVL168:
 1838 0ad4 97000000 		call	_Z8findSlabP12kmem_cache_sPKv
 1838      E7800000 
 1839              	.LVL169:
 383:src/slabAllocator.cpp ****         if(slab != nullptr) break;
 1840              		.loc 1 383 9 is_stmt 1
 1841 0adc 63160500 		bnez	a0,.L106
 380:src/slabAllocator.cpp ****     for(size_t i = 0;i < CACHE_BUFFER_SIZE;i++)
 1842              		.loc 1 380 5 discriminator 2
 1843 0ae0 93841400 		addi	s1,s1,1
 1844              	.LVL170:
 1845 0ae4 6FF0DFFC 		j	.L107
 1846              	.L106:
 1847              	.LBE23:
 384:src/slabAllocator.cpp ****     }
 385:src/slabAllocator.cpp ****     if(slab != nullptr)
 1848              		.loc 1 385 5
 1849 0ae8 63080500 		beqz	a0,.L105
 386:src/slabAllocator.cpp ****     {
 387:src/slabAllocator.cpp ****         free_slab_object(slab, objp);
 1850              		.loc 1 387 9
 1851              		.loc 1 387 25 is_stmt 0
 1852 0aec 93050900 		mv	a1,s2
 1853 0af0 97000000 		call	_Z16free_slab_objectP6slab_sPKv
 1853      E7800000 
 1854              	.LVL171:
 1855              	.L105:
 388:src/slabAllocator.cpp ****     }
 389:src/slabAllocator.cpp **** }
 1856              		.loc 1 389 1
 1857 0af8 83308101 		ld	ra,24(sp)
 1858              		.cfi_restore 1
 1859 0afc 03340101 		ld	s0,16(sp)
 1860              		.cfi_restore 8
 1861              		.cfi_def_cfa 2, 32
 1862 0b00 83348100 		ld	s1,8(sp)
 1863              		.cfi_restore 9
 1864              	.LVL172:
 1865 0b04 03390100 		ld	s2,0(sp)
 1866              		.cfi_restore 18
 1867              	.LVL173:
 1868 0b08 13010102 		addi	sp,sp,32
 1869              		.cfi_def_cfa_offset 0
 1870 0b0c 67800000 		jr	ra
 1871              		.cfi_endproc
 1872              	.LFE26:
 1874              		.align	2
 1875              		.globl	_Z17destroy_slab_listP6slab_s
 1877              	_Z17destroy_slab_listP6slab_s:
 1878              	.LFB27:
 390:src/slabAllocator.cpp **** 
 391:src/slabAllocator.cpp **** void destroy_slab_list(slab_t* slab)
GAS LISTING /tmp/ccuvp5ur.s 			page 44


 392:src/slabAllocator.cpp **** {
 1879              		.loc 1 392 1 is_stmt 1
 1880              		.cfi_startproc
 1881              	.LVL174:
 1882 0b10 130101FE 		addi	sp,sp,-32
 1883              		.cfi_def_cfa_offset 32
 1884 0b14 233C1100 		sd	ra,24(sp)
 1885 0b18 23388100 		sd	s0,16(sp)
 1886 0b1c 23349100 		sd	s1,8(sp)
 1887 0b20 23302101 		sd	s2,0(sp)
 1888              		.cfi_offset 1, -8
 1889              		.cfi_offset 8, -16
 1890              		.cfi_offset 9, -24
 1891              		.cfi_offset 18, -32
 1892 0b24 13040102 		addi	s0,sp,32
 1893              		.cfi_def_cfa 8, 0
 1894 0b28 93050500 		mv	a1,a0
 393:src/slabAllocator.cpp ****     size_t sz = sizeof(slab_t) + slab->numOfObjects*slab->owner->obj_size;
 1895              		.loc 1 393 5
 1896              		.loc 1 393 40 is_stmt 0
 1897 0b2c 03398501 		ld	s2,24(a0)
 1898              		.loc 1 393 59
 1899 0b30 83370501 		ld	a5,16(a0)
 1900              		.loc 1 393 66
 1901 0b34 83B70723 		ld	a5,560(a5)
 1902              		.loc 1 393 52
 1903 0b38 3309F902 		mul	s2,s2,a5
 1904              		.loc 1 393 12
 1905 0b3c 13090905 		addi	s2,s2,80
 1906              	.LVL175:
 1907              	.L112:
 394:src/slabAllocator.cpp ****     while(slab != nullptr)
 1908              		.loc 1 394 5 is_stmt 1
 1909              		.loc 1 394 16
 1910 0b40 63840502 		beqz	a1,.L110
 1911              	.LBB24:
 395:src/slabAllocator.cpp ****     {
 396:src/slabAllocator.cpp ****         slab_t* nextSlab = slab->next;
 1912              		.loc 1 396 9
 1913              		.loc 1 396 17 is_stmt 0
 1914 0b44 83B48500 		ld	s1,8(a1)
 1915              	.LVL176:
 397:src/slabAllocator.cpp ****         buddy_free(slabAllocator->buddy, slab, sz);
 1916              		.loc 1 397 9 is_stmt 1
 1917              		.loc 1 397 19 is_stmt 0
 1918 0b48 13060900 		mv	a2,s2
 1919 0b4c 97070000 		ld	a5,.LANCHOR0
 1919      83B70700 
 1920 0b54 03B50700 		ld	a0,0(a5)
 1921 0b58 97000000 		call	_Z10buddy_freeP14buddyAllocatorPvm@plt
 1921      E7800000 
 1922              	.LVL177:
 398:src/slabAllocator.cpp ****         slab = nextSlab;
 1923              		.loc 1 398 9 is_stmt 1
 1924              		.loc 1 398 14 is_stmt 0
 1925 0b60 93850400 		mv	a1,s1
 1926              	.LBE24:
GAS LISTING /tmp/ccuvp5ur.s 			page 45


 394:src/slabAllocator.cpp ****     {
 1927              		.loc 1 394 5
 1928 0b64 6FF0DFFD 		j	.L112
 1929              	.LVL178:
 1930              	.L110:
 399:src/slabAllocator.cpp ****     }
 400:src/slabAllocator.cpp **** }
 1931              		.loc 1 400 1
 1932 0b68 83308101 		ld	ra,24(sp)
 1933              		.cfi_restore 1
 1934 0b6c 03340101 		ld	s0,16(sp)
 1935              		.cfi_restore 8
 1936              		.cfi_def_cfa 2, 32
 1937 0b70 83348100 		ld	s1,8(sp)
 1938              		.cfi_restore 9
 1939 0b74 03390100 		ld	s2,0(sp)
 1940              		.cfi_restore 18
 1941              	.LVL179:
 1942 0b78 13010102 		addi	sp,sp,32
 1943              		.cfi_def_cfa_offset 0
 1944 0b7c 67800000 		jr	ra
 1945              		.cfi_endproc
 1946              	.LFE27:
 1948              		.align	2
 1949              		.globl	_Z18kmem_cache_destroyP12kmem_cache_s
 1951              	_Z18kmem_cache_destroyP12kmem_cache_s:
 1952              	.LFB28:
 401:src/slabAllocator.cpp **** 
 402:src/slabAllocator.cpp **** void kmem_cache_destroy(kmem_cache_t *cachep)
 403:src/slabAllocator.cpp **** {
 1953              		.loc 1 403 1 is_stmt 1
 1954              		.cfi_startproc
 1955              	.LVL180:
 1956 0b80 130101FE 		addi	sp,sp,-32
 1957              		.cfi_def_cfa_offset 32
 1958 0b84 233C1100 		sd	ra,24(sp)
 1959 0b88 23388100 		sd	s0,16(sp)
 1960 0b8c 23349100 		sd	s1,8(sp)
 1961              		.cfi_offset 1, -8
 1962              		.cfi_offset 8, -16
 1963              		.cfi_offset 9, -24
 1964 0b90 13040102 		addi	s0,sp,32
 1965              		.cfi_def_cfa 8, 0
 1966 0b94 93040500 		mv	s1,a0
 404:src/slabAllocator.cpp ****     destroy_slab_list(cachep->slabs_empty);
 1967              		.loc 1 404 5
 1968              		.loc 1 404 22 is_stmt 0
 1969 0b98 03350521 		ld	a0,528(a0)
 1970              	.LVL181:
 1971 0b9c 97000000 		call	_Z17destroy_slab_listP6slab_s
 1971      E7800000 
 1972              	.LVL182:
 405:src/slabAllocator.cpp ****     destroy_slab_list(cachep->slabs_partial);
 1973              		.loc 1 405 5 is_stmt 1
 1974              		.loc 1 405 22 is_stmt 0
 1975 0ba4 03B50422 		ld	a0,544(s1)
 1976 0ba8 97000000 		call	_Z17destroy_slab_listP6slab_s
GAS LISTING /tmp/ccuvp5ur.s 			page 46


 1976      E7800000 
 1977              	.LVL183:
 406:src/slabAllocator.cpp ****     destroy_slab_list(cachep->slabs_full);
 1978              		.loc 1 406 5 is_stmt 1
 1979              		.loc 1 406 22 is_stmt 0
 1980 0bb0 03B58421 		ld	a0,536(s1)
 1981 0bb4 97000000 		call	_Z17destroy_slab_listP6slab_s
 1981      E7800000 
 1982              	.LVL184:
 407:src/slabAllocator.cpp ****     kmem_cache_free(&slabAllocator->cacheOfCaches,cachep);
 1983              		.loc 1 407 5 is_stmt 1
 1984              		.loc 1 407 20 is_stmt 0
 1985 0bbc 93850400 		mv	a1,s1
 1986 0bc0 17050000 		ld	a0,.LANCHOR0
 1986      03350500 
 1987 0bc8 13058507 		addi	a0,a0,120
 1988 0bcc 97000000 		call	_Z15kmem_cache_freeP12kmem_cache_sPv
 1988      E7800000 
 1989              	.LVL185:
 408:src/slabAllocator.cpp **** }...
 1990              		.loc 1 408 1
 1991 0bd4 83308101 		ld	ra,24(sp)
 1992              		.cfi_restore 1
 1993 0bd8 03340101 		ld	s0,16(sp)
 1994              		.cfi_restore 8
 1995              		.cfi_def_cfa 2, 32
 1996 0bdc 83348100 		ld	s1,8(sp)
 1997              		.cfi_restore 9
 1998              	.LVL186:
 1999 0be0 13010102 		addi	sp,sp,32
 2000              		.cfi_def_cfa_offset 0
 2001 0be4 67800000 		jr	ra
 2002              		.cfi_endproc
 2003              	.LFE28:
 2005              		.bss
 2006              		.align	3
 2007              		.set	.LANCHOR0,. + 0
 2010              	_ZL13slabAllocator:
 2011 0000 00000000 		.zero	8
 2011      00000000 
 2012              		.text
 2013              	.Letext0:
 2014              		.file 2 "src/../h/../lib/hw.h"
 2015              		.file 3 "src/../h/slabAllocator.hpp"
 2016              		.file 4 "src/../h/buddyAllocator.hpp"
 2017              		.file 5 "src/../h/PCB.hpp"
 2018              		.file 6 "src/../h/KSemaphore.hpp"
 2019              		.file 7 "src/../h/KConsole.hpp"
GAS LISTING /tmp/ccuvp5ur.s 			page 47

