GAS LISTING /tmp/ccDSSFbw.s 			page 1


   1              		.file	"slabAllocator.cpp"
   2              		.option pic
   3              		.option norelax
   4              		.text
   5              	.Ltext0:
   6              		.align	2
   7              		.globl	_Z6strcpyPKcPc
   9              	_Z6strcpyPKcPc:
  10              	.LFB5:
  11              		.file 1 "src/slabAllocator.cpp"
   1:src/slabAllocator.cpp **** #include "../h/slabAllocator.hpp"
   2:src/slabAllocator.cpp **** #include "../h/buddyAllocator.hpp"
   3:src/slabAllocator.cpp **** #include "../h/KConsole.hpp"
   4:src/slabAllocator.cpp **** 
   5:src/slabAllocator.cpp **** //TODO
   6:src/slabAllocator.cpp **** //check values of the constants
   7:src/slabAllocator.cpp **** #define SLAB_ALLOCATED_LOOKUP 32
   8:src/slabAllocator.cpp **** #define CACHE_NAME_SIZE 64
   9:src/slabAllocator.cpp **** #define CACHE_BUFFER_SMALL 5
  10:src/slabAllocator.cpp **** #define CACHE_BUFFER_BIG 17
  11:src/slabAllocator.cpp **** #define CACHE_BUFFER_SIZE CACHE_BUFFER_BIG - CACHE_BUFFER_SMALL + 1
  12:src/slabAllocator.cpp **** #define CACHE_OF_CACHES_SLAB_SIZE 2
  13:src/slabAllocator.cpp **** #define NO_ERROR 0
  14:src/slabAllocator.cpp **** #define EXPAND_ERROR 0b1
  15:src/slabAllocator.cpp **** #define DESTROY_ERROR 0b10
  16:src/slabAllocator.cpp **** #define FREE_ERROR 0b100
  17:src/slabAllocator.cpp **** 
  18:src/slabAllocator.cpp **** //TODO
  19:src/slabAllocator.cpp **** //do i need to clear the errors
  20:src/slabAllocator.cpp **** 
  21:src/slabAllocator.cpp **** typedef struct slab_s
  22:src/slabAllocator.cpp **** {
  23:src/slabAllocator.cpp ****     slab_s* prev;
  24:src/slabAllocator.cpp ****     slab_s* next;
  25:src/slabAllocator.cpp ****     kmem_cache_t* owner;
  26:src/slabAllocator.cpp ****     size_t numOfObjects;
  27:src/slabAllocator.cpp ****     size_t numOfAllocatedObjects;
  28:src/slabAllocator.cpp ****     unsigned char allocated[SLAB_ALLOCATED_LOOKUP];
  29:src/slabAllocator.cpp **** }slab_t;
  30:src/slabAllocator.cpp **** 
  31:src/slabAllocator.cpp **** typedef struct kmem_cache_s
  32:src/slabAllocator.cpp **** {
  33:src/slabAllocator.cpp ****     char cacheName[CACHE_NAME_SIZE];
  34:src/slabAllocator.cpp ****     slab_t* slabs_empty;
  35:src/slabAllocator.cpp ****     slab_t* slabs_full;
  36:src/slabAllocator.cpp ****     slab_t* slabs_partial;
  37:src/slabAllocator.cpp ****     size_t slab_size;
  38:src/slabAllocator.cpp ****     size_t obj_size;
  39:src/slabAllocator.cpp ****     void (*ctor)(void*);
  40:src/slabAllocator.cpp ****     void (*dtor)(void*);
  41:src/slabAllocator.cpp ****     int errors;
  42:src/slabAllocator.cpp **** }kmem_cache_t;
  43:src/slabAllocator.cpp **** 
  44:src/slabAllocator.cpp **** typedef struct slab_allocator_s
  45:src/slabAllocator.cpp **** {
  46:src/slabAllocator.cpp ****     buddyAllocator* buddy;
  47:src/slabAllocator.cpp ****     kmem_cache_t* cachesBuffers[CACHE_BUFFER_SIZE];
GAS LISTING /tmp/ccDSSFbw.s 			page 2


  48:src/slabAllocator.cpp ****     kmem_cache_t cacheOfCaches;
  49:src/slabAllocator.cpp **** }slab_allocator_t;
  50:src/slabAllocator.cpp **** 
  51:src/slabAllocator.cpp **** //singleton slab allocator
  52:src/slabAllocator.cpp **** static slab_allocator_t* slabAllocator = nullptr;
  53:src/slabAllocator.cpp **** 
  54:src/slabAllocator.cpp **** //helping functions
  55:src/slabAllocator.cpp **** void strcpy(const char* src, char* dst)
  56:src/slabAllocator.cpp **** {
  12              		.loc 1 56 1
  13              		.cfi_startproc
  14              	.LVL0:
  15 0000 130101FF 		addi	sp,sp,-16
  16              		.cfi_def_cfa_offset 16
  17 0004 23348100 		sd	s0,8(sp)
  18              		.cfi_offset 8, -8
  19 0008 13040101 		addi	s0,sp,16
  20              		.cfi_def_cfa 8, 0
  21              	.L3:
  57:src/slabAllocator.cpp ****     while(*src != '\0')
  22              		.loc 1 57 5
  23              		.loc 1 57 16
  24              		.loc 1 57 11 is_stmt 0
  25 000c 83470500 		lbu	a5,0(a0)
  26              		.loc 1 57 16
  27 0010 638A0700 		beqz	a5,.L2
  58:src/slabAllocator.cpp ****     {
  59:src/slabAllocator.cpp ****         *dst = *src;
  28              		.loc 1 59 9 is_stmt 1
  29              		.loc 1 59 14 is_stmt 0
  30 0014 2380F500 		sb	a5,0(a1)
  60:src/slabAllocator.cpp ****         src++; dst++;
  31              		.loc 1 60 9 is_stmt 1
  32              		.loc 1 60 12 is_stmt 0
  33 0018 13051500 		addi	a0,a0,1
  34              	.LVL1:
  35              		.loc 1 60 16 is_stmt 1
  36              		.loc 1 60 19 is_stmt 0
  37 001c 93851500 		addi	a1,a1,1
  38              	.LVL2:
  57:src/slabAllocator.cpp ****     while(*src != '\0')
  39              		.loc 1 57 5
  40 0020 6FF0DFFE 		j	.L3
  41              	.L2:
  61:src/slabAllocator.cpp ****     }
  62:src/slabAllocator.cpp ****     *dst = *src;
  42              		.loc 1 62 5 is_stmt 1
  43              		.loc 1 62 10 is_stmt 0
  44 0024 2380F500 		sb	a5,0(a1)
  63:src/slabAllocator.cpp **** }
  45              		.loc 1 63 1
  46 0028 03348100 		ld	s0,8(sp)
  47              		.cfi_restore 8
  48              		.cfi_def_cfa 2, 16
  49 002c 13010101 		addi	sp,sp,16
  50              		.cfi_def_cfa_offset 0
  51 0030 67800000 		jr	ra
GAS LISTING /tmp/ccDSSFbw.s 			page 3


  52              		.cfi_endproc
  53              	.LFE5:
  55              		.align	2
  56              		.globl	_Z17destroy_slab_listPP6slab_s
  58              	_Z17destroy_slab_listPP6slab_s:
  59              	.LFB6:
  64:src/slabAllocator.cpp **** 
  65:src/slabAllocator.cpp **** int destroy_slab_list(slab_t** slab)
  66:src/slabAllocator.cpp **** {
  60              		.loc 1 66 1 is_stmt 1
  61              		.cfi_startproc
  62              	.LVL3:
  63 0034 130101FD 		addi	sp,sp,-48
  64              		.cfi_def_cfa_offset 48
  65 0038 23341102 		sd	ra,40(sp)
  66 003c 23308102 		sd	s0,32(sp)
  67 0040 233C9100 		sd	s1,24(sp)
  68 0044 23382101 		sd	s2,16(sp)
  69 0048 23343101 		sd	s3,8(sp)
  70 004c 23304101 		sd	s4,0(sp)
  71              		.cfi_offset 1, -8
  72              		.cfi_offset 8, -16
  73              		.cfi_offset 9, -24
  74              		.cfi_offset 18, -32
  75              		.cfi_offset 19, -40
  76              		.cfi_offset 20, -48
  77 0050 13040103 		addi	s0,sp,48
  78              		.cfi_def_cfa 8, 0
  67:src/slabAllocator.cpp ****     if(slab == nullptr) return 0;
  79              		.loc 1 67 5
  80 0054 63040504 		beqz	a0,.L8
  81 0058 93040500 		mv	s1,a0
  68:src/slabAllocator.cpp ****     size_t sz = (*slab)->owner->slab_size;
  82              		.loc 1 68 5
  83              		.loc 1 68 18 is_stmt 0
  84 005c 83370500 		ld	a5,0(a0)
  85              		.loc 1 68 26
  86 0060 83B70701 		ld	a5,16(a5)
  87              		.loc 1 68 12
  88 0064 83B98705 		ld	s3,88(a5)
  89              	.LVL4:
  69:src/slabAllocator.cpp ****     int totalBlocks = 0;
  90              		.loc 1 69 5 is_stmt 1
  91              		.loc 1 69 9 is_stmt 0
  92 0068 13090000 		li	s2,0
  93              	.LVL5:
  94              	.L7:
  70:src/slabAllocator.cpp ****     while(*slab != nullptr)
  95              		.loc 1 70 5 is_stmt 1
  96              		.loc 1 70 17
  97              		.loc 1 70 11 is_stmt 0
  98 006c 83B50400 		ld	a1,0(s1)
  99              		.loc 1 70 17
 100 0070 63880502 		beqz	a1,.L6
 101              	.LBB2:
  71:src/slabAllocator.cpp ****     {
  72:src/slabAllocator.cpp ****         slab_t* nextSlab = (*slab)->next;
GAS LISTING /tmp/ccDSSFbw.s 			page 4


 102              		.loc 1 72 9 is_stmt 1
 103              		.loc 1 72 17 is_stmt 0
 104 0074 03BA8500 		ld	s4,8(a1)
 105              	.LVL6:
  73:src/slabAllocator.cpp ****         buddy_free(slabAllocator->buddy, *slab, sz);
 106              		.loc 1 73 9 is_stmt 1
 107              		.loc 1 73 19 is_stmt 0
 108 0078 13860900 		mv	a2,s3
 109 007c 97070000 		ld	a5,.LANCHOR0
 109      83B70700 
 110 0084 03B50700 		ld	a0,0(a5)
 111 0088 97000000 		call	_Z10buddy_freeP14buddyAllocatorPvm@plt
 111      E7800000 
 112              	.LVL7:
  74:src/slabAllocator.cpp ****         *slab = nextSlab;
 113              		.loc 1 74 9 is_stmt 1
 114              		.loc 1 74 15 is_stmt 0
 115 0090 23B04401 		sd	s4,0(s1)
  75:src/slabAllocator.cpp ****         totalBlocks+=sz;
 116              		.loc 1 75 9 is_stmt 1
 117              		.loc 1 75 20 is_stmt 0
 118 0094 3B892901 		addw	s2,s3,s2
 119              	.LVL8:
 120              	.LBE2:
  70:src/slabAllocator.cpp ****     {
 121              		.loc 1 70 5
 122 0098 6FF05FFD 		j	.L7
 123              	.LVL9:
 124              	.L8:
  67:src/slabAllocator.cpp ****     size_t sz = (*slab)->owner->slab_size;
 125              		.loc 1 67 32
 126 009c 13090000 		li	s2,0
 127              	.LVL10:
 128              	.L6:
  76:src/slabAllocator.cpp ****     }
  77:src/slabAllocator.cpp ****     return totalBlocks;
  78:src/slabAllocator.cpp **** }
 129              		.loc 1 78 1
 130 00a0 13050900 		mv	a0,s2
 131 00a4 83308102 		ld	ra,40(sp)
 132              		.cfi_restore 1
 133 00a8 03340102 		ld	s0,32(sp)
 134              		.cfi_restore 8
 135              		.cfi_def_cfa 2, 48
 136 00ac 83348101 		ld	s1,24(sp)
 137              		.cfi_restore 9
 138 00b0 03390101 		ld	s2,16(sp)
 139              		.cfi_restore 18
 140 00b4 83398100 		ld	s3,8(sp)
 141              		.cfi_restore 19
 142 00b8 033A0100 		ld	s4,0(sp)
 143              		.cfi_restore 20
 144 00bc 13010103 		addi	sp,sp,48
 145              		.cfi_def_cfa_offset 0
 146 00c0 67800000 		jr	ra
 147              		.cfi_endproc
 148              	.LFE6:
GAS LISTING /tmp/ccDSSFbw.s 			page 5


 150              		.align	2
 151              		.globl	_Z10init_cacheP12kmem_cache_sPKcmmPFvPvES5_
 153              	_Z10init_cacheP12kmem_cache_sPKcmmPFvPvES5_:
 154              	.LFB7:
  79:src/slabAllocator.cpp **** 
  80:src/slabAllocator.cpp **** void init_cache(kmem_cache_t* cachep, const char* cache_name, size_t slab_size, size_t obj_size, vo
  81:src/slabAllocator.cpp **** {
 155              		.loc 1 81 1 is_stmt 1
 156              		.cfi_startproc
 157              	.LVL11:
 158 00c4 130101FC 		addi	sp,sp,-64
 159              		.cfi_def_cfa_offset 64
 160 00c8 233C1102 		sd	ra,56(sp)
 161 00cc 23388102 		sd	s0,48(sp)
 162 00d0 23349102 		sd	s1,40(sp)
 163 00d4 23302103 		sd	s2,32(sp)
 164 00d8 233C3101 		sd	s3,24(sp)
 165 00dc 23384101 		sd	s4,16(sp)
 166 00e0 23345101 		sd	s5,8(sp)
 167              		.cfi_offset 1, -8
 168              		.cfi_offset 8, -16
 169              		.cfi_offset 9, -24
 170              		.cfi_offset 18, -32
 171              		.cfi_offset 19, -40
 172              		.cfi_offset 20, -48
 173              		.cfi_offset 21, -56
 174 00e4 13040104 		addi	s0,sp,64
 175              		.cfi_def_cfa 8, 0
 176 00e8 93040500 		mv	s1,a0
 177 00ec 13850500 		mv	a0,a1
 178              	.LVL12:
 179 00f0 930A0600 		mv	s5,a2
 180 00f4 138A0600 		mv	s4,a3
 181 00f8 93090700 		mv	s3,a4
 182 00fc 13890700 		mv	s2,a5
  82:src/slabAllocator.cpp ****     strcpy(cache_name, cachep->cacheName);
 183              		.loc 1 82 5
 184              		.loc 1 82 11 is_stmt 0
 185 0100 93850400 		mv	a1,s1
 186              	.LVL13:
 187 0104 97000000 		call	_Z6strcpyPKcPc
 187      E7800000 
 188              	.LVL14:
  83:src/slabAllocator.cpp ****     cachep->slab_size = slab_size;
 189              		.loc 1 83 5 is_stmt 1
 190              		.loc 1 83 23 is_stmt 0
 191 010c 23BC5405 		sd	s5,88(s1)
  84:src/slabAllocator.cpp ****     cachep->obj_size = obj_size;
 192              		.loc 1 84 5 is_stmt 1
 193              		.loc 1 84 22 is_stmt 0
 194 0110 23B04407 		sd	s4,96(s1)
  85:src/slabAllocator.cpp ****     cachep->ctor = ctor;
 195              		.loc 1 85 5 is_stmt 1
 196              		.loc 1 85 18 is_stmt 0
 197 0114 23B43407 		sd	s3,104(s1)
  86:src/slabAllocator.cpp ****     cachep->dtor = dtor;
 198              		.loc 1 86 5 is_stmt 1
GAS LISTING /tmp/ccDSSFbw.s 			page 6


 199              		.loc 1 86 18 is_stmt 0
 200 0118 23B82407 		sd	s2,112(s1)
  87:src/slabAllocator.cpp **** 
  88:src/slabAllocator.cpp ****     cachep->slabs_empty = cachep->slabs_partial = cachep->slabs_full = nullptr;
 201              		.loc 1 88 5 is_stmt 1
 202              		.loc 1 88 70 is_stmt 0
 203 011c 23B40404 		sd	zero,72(s1)
 204              		.loc 1 88 49
 205 0120 23B80404 		sd	zero,80(s1)
 206              		.loc 1 88 25
 207 0124 23B00404 		sd	zero,64(s1)
  89:src/slabAllocator.cpp ****     cachep->errors = NO_ERROR;
 208              		.loc 1 89 5 is_stmt 1
 209              		.loc 1 89 20 is_stmt 0
 210 0128 23AC0406 		sw	zero,120(s1)
  90:src/slabAllocator.cpp **** }
 211              		.loc 1 90 1
 212 012c 83308103 		ld	ra,56(sp)
 213              		.cfi_restore 1
 214 0130 03340103 		ld	s0,48(sp)
 215              		.cfi_restore 8
 216              		.cfi_def_cfa 2, 64
 217 0134 83348102 		ld	s1,40(sp)
 218              		.cfi_restore 9
 219              	.LVL15:
 220 0138 03390102 		ld	s2,32(sp)
 221              		.cfi_restore 18
 222              	.LVL16:
 223 013c 83398101 		ld	s3,24(sp)
 224              		.cfi_restore 19
 225              	.LVL17:
 226 0140 033A0101 		ld	s4,16(sp)
 227              		.cfi_restore 20
 228              	.LVL18:
 229 0144 833A8100 		ld	s5,8(sp)
 230              		.cfi_restore 21
 231              	.LVL19:
 232 0148 13010104 		addi	sp,sp,64
 233              		.cfi_def_cfa_offset 0
 234 014c 67800000 		jr	ra
 235              		.cfi_endproc
 236              	.LFE7:
 238              		.section	.rodata.str1.8,"aMS",@progbits,1
 239              		.align	3
 240              	.LC0:
 241 0000 43616368 		.string	"Cache of caches"
 241      65206F66 
 241      20636163 
 241      68657300 
 242              		.text
 243              		.align	2
 244              		.globl	_Z19slab_allocator_initP14buddyAllocator
 246              	_Z19slab_allocator_initP14buddyAllocator:
 247              	.LFB8:
  91:src/slabAllocator.cpp **** 
  92:src/slabAllocator.cpp **** slab_allocator_t* slab_allocator_init(buddyAllocator *buddy)
  93:src/slabAllocator.cpp **** {
GAS LISTING /tmp/ccDSSFbw.s 			page 7


 248              		.loc 1 93 1 is_stmt 1
 249              		.cfi_startproc
 250              	.LVL20:
 251 0150 130101FE 		addi	sp,sp,-32
 252              		.cfi_def_cfa_offset 32
 253 0154 233C1100 		sd	ra,24(sp)
 254 0158 23388100 		sd	s0,16(sp)
 255 015c 23349100 		sd	s1,8(sp)
 256              		.cfi_offset 1, -8
 257              		.cfi_offset 8, -16
 258              		.cfi_offset 9, -24
 259 0160 13040102 		addi	s0,sp,32
 260              		.cfi_def_cfa 8, 0
  94:src/slabAllocator.cpp ****     slab_allocator_t* slabAllocatorLocal = (slab_allocator_t*)(buddy + 1);
 261              		.loc 1 94 5
 262              		.loc 1 94 23 is_stmt 0
 263 0164 9304050E 		addi	s1,a0,224
 264              	.LVL21:
  95:src/slabAllocator.cpp **** 
  96:src/slabAllocator.cpp ****     slabAllocatorLocal->buddy = buddy;
 265              		.loc 1 96 5 is_stmt 1
 266              		.loc 1 96 31 is_stmt 0
 267 0168 2330A50E 		sd	a0,224(a0)
  97:src/slabAllocator.cpp ****     for(size_t i = 0; i < CACHE_BUFFER_SIZE;i++)
 268              		.loc 1 97 5 is_stmt 1
 269              	.LVL22:
 270              	.LBB3:
 271              		.loc 1 97 16 is_stmt 0
 272 016c 93070000 		li	a5,0
 273 0170 6F004001 		j	.L14
 274              	.LVL23:
 275              	.L16:
  98:src/slabAllocator.cpp ****         slabAllocatorLocal->cachesBuffers[i] = nullptr;
 276              		.loc 1 98 9 is_stmt 1 discriminator 2
 277              		.loc 1 98 46 is_stmt 0 discriminator 2
 278 0174 13973700 		slli	a4,a5,3
 279 0178 3307E500 		add	a4,a0,a4
 280 017c 2334070E 		sd	zero,232(a4)
  97:src/slabAllocator.cpp ****     for(size_t i = 0; i < CACHE_BUFFER_SIZE;i++)
 281              		.loc 1 97 5 is_stmt 1 discriminator 2
 282 0180 93871700 		addi	a5,a5,1
 283              	.LVL24:
 284              	.L14:
  97:src/slabAllocator.cpp ****     for(size_t i = 0; i < CACHE_BUFFER_SIZE;i++)
 285              		.loc 1 97 25 discriminator 3
 286 0184 1307C000 		li	a4,12
 287 0188 E376F7FE 		bleu	a5,a4,.L16
 288              	.LBE3:
  99:src/slabAllocator.cpp **** 
 100:src/slabAllocator.cpp ****     init_cache(&slabAllocatorLocal->cacheOfCaches, "Cache of caches", CACHE_OF_CACHES_SLAB_SIZE, si
 289              		.loc 1 100 5
 290              		.loc 1 100 15 is_stmt 0
 291 018c 93070000 		li	a5,0
 292              	.LVL25:
 293 0190 13070000 		li	a4,0
 294 0194 93060008 		li	a3,128
 295 0198 13062000 		li	a2,2
GAS LISTING /tmp/ccDSSFbw.s 			page 8


 296 019c 97050000 		lla	a1,.LC0
 296      93850500 
 297 01a4 13050515 		addi	a0,a0,336
 298              	.LVL26:
 299 01a8 97000000 		call	_Z10init_cacheP12kmem_cache_sPKcmmPFvPvES5_
 299      E7800000 
 300              	.LVL27:
 101:src/slabAllocator.cpp **** 
 102:src/slabAllocator.cpp ****     return slabAllocatorLocal;
 301              		.loc 1 102 5 is_stmt 1
 103:src/slabAllocator.cpp **** }
 302              		.loc 1 103 1 is_stmt 0
 303 01b0 13850400 		mv	a0,s1
 304 01b4 83308101 		ld	ra,24(sp)
 305              		.cfi_restore 1
 306 01b8 03340101 		ld	s0,16(sp)
 307              		.cfi_restore 8
 308              		.cfi_def_cfa 2, 32
 309 01bc 83348100 		ld	s1,8(sp)
 310              		.cfi_restore 9
 311              	.LVL28:
 312 01c0 13010102 		addi	sp,sp,32
 313              		.cfi_def_cfa_offset 0
 314 01c4 67800000 		jr	ra
 315              		.cfi_endproc
 316              	.LFE8:
 318              		.align	2
 319              		.globl	_Z13checkSetIndexP6slab_si
 321              	_Z13checkSetIndexP6slab_si:
 322              	.LFB9:
 104:src/slabAllocator.cpp **** 
 105:src/slabAllocator.cpp **** bool checkSetIndex(slab_t* slab, int index)
 106:src/slabAllocator.cpp **** {
 323              		.loc 1 106 1 is_stmt 1
 324              		.cfi_startproc
 325              	.LVL29:
 326 01c8 130101FF 		addi	sp,sp,-16
 327              		.cfi_def_cfa_offset 16
 328 01cc 23348100 		sd	s0,8(sp)
 329              		.cfi_offset 8, -8
 330 01d0 13040101 		addi	s0,sp,16
 331              		.cfi_def_cfa 8, 0
 107:src/slabAllocator.cpp ****     return (uint8)slab->allocated[index / 8] & (1 << (index%8));
 332              		.loc 1 107 5
 333              		.loc 1 107 41 is_stmt 0
 334 01d4 9BD7F541 		sraiw	a5,a1,31
 335 01d8 9BD7D701 		srliw	a5,a5,29
 336 01dc BB85B700 		addw	a1,a5,a1
 337              	.LVL30:
 338 01e0 1BD73540 		sraiw	a4,a1,3
 339              		.loc 1 107 44
 340 01e4 3305E500 		add	a0,a0,a4
 341              	.LVL31:
 342              		.loc 1 107 12
 343 01e8 03458502 		lbu	a0,40(a0)
 344              		.loc 1 107 60
 345 01ec 93F57500 		andi	a1,a1,7
GAS LISTING /tmp/ccDSSFbw.s 			page 9


 346 01f0 BB85F540 		subw	a1,a1,a5
 347              		.loc 1 107 63
 348 01f4 3B55B540 		sraw	a0,a0,a1
 108:src/slabAllocator.cpp **** }
 349              		.loc 1 108 1
 350 01f8 13751500 		andi	a0,a0,1
 351 01fc 03348100 		ld	s0,8(sp)
 352              		.cfi_restore 8
 353              		.cfi_def_cfa 2, 16
 354 0200 13010101 		addi	sp,sp,16
 355              		.cfi_def_cfa_offset 0
 356 0204 67800000 		jr	ra
 357              		.cfi_endproc
 358              	.LFE9:
 360              		.align	2
 361              		.globl	_Z17setAllocatedIndexP6slab_si
 363              	_Z17setAllocatedIndexP6slab_si:
 364              	.LFB10:
 109:src/slabAllocator.cpp **** 
 110:src/slabAllocator.cpp **** void setAllocatedIndex(slab_t* slab, int index)
 111:src/slabAllocator.cpp **** {
 365              		.loc 1 111 1 is_stmt 1
 366              		.cfi_startproc
 367              	.LVL32:
 368 0208 130101FF 		addi	sp,sp,-16
 369              		.cfi_def_cfa_offset 16
 370 020c 23348100 		sd	s0,8(sp)
 371              		.cfi_offset 8, -8
 372 0210 13040101 		addi	s0,sp,16
 373              		.cfi_def_cfa 8, 0
 112:src/slabAllocator.cpp ****     slab->allocated[index / 8]=(uint8)slab->allocated[index/8] | (1 << (index%8));
 374              		.loc 1 112 5
 375              		.loc 1 112 60 is_stmt 0
 376 0214 9BD7F541 		sraiw	a5,a1,31
 377 0218 9BD7D701 		srliw	a5,a5,29
 378 021c BB85B700 		addw	a1,a5,a1
 379              	.LVL33:
 380 0220 1BD73540 		sraiw	a4,a1,3
 381              		.loc 1 112 62
 382 0224 3305E500 		add	a0,a0,a4
 383              	.LVL34:
 384              		.loc 1 112 32
 385 0228 03078502 		lb	a4,40(a0)
 386              		.loc 1 112 78
 387 022c 93F57500 		andi	a1,a1,7
 388 0230 BB85F540 		subw	a1,a1,a5
 389              		.loc 1 112 69
 390 0234 93071000 		li	a5,1
 391 0238 BB95B700 		sllw	a1,a5,a1
 392              		.loc 1 112 64
 393 023c B365B700 		or	a1,a4,a1
 394              		.loc 1 112 31
 395 0240 2304B502 		sb	a1,40(a0)
 113:src/slabAllocator.cpp **** }
 396              		.loc 1 113 1
 397 0244 03348100 		ld	s0,8(sp)
 398              		.cfi_restore 8
GAS LISTING /tmp/ccDSSFbw.s 			page 10


 399              		.cfi_def_cfa 2, 16
 400 0248 13010101 		addi	sp,sp,16
 401              		.cfi_def_cfa_offset 0
 402 024c 67800000 		jr	ra
 403              		.cfi_endproc
 404              	.LFE10:
 406              		.align	2
 407              		.globl	_Z14allocateObjectP6slab_s
 409              	_Z14allocateObjectP6slab_s:
 410              	.LFB11:
 114:src/slabAllocator.cpp **** 
 115:src/slabAllocator.cpp **** void* allocateObject(slab_t* slab)
 116:src/slabAllocator.cpp **** {
 411              		.loc 1 116 1 is_stmt 1
 412              		.cfi_startproc
 413              	.LVL35:
 414 0250 130101FD 		addi	sp,sp,-48
 415              		.cfi_def_cfa_offset 48
 416 0254 23341102 		sd	ra,40(sp)
 417 0258 23308102 		sd	s0,32(sp)
 418 025c 233C9100 		sd	s1,24(sp)
 419 0260 23382101 		sd	s2,16(sp)
 420 0264 23343101 		sd	s3,8(sp)
 421              		.cfi_offset 1, -8
 422              		.cfi_offset 8, -16
 423              		.cfi_offset 9, -24
 424              		.cfi_offset 18, -32
 425              		.cfi_offset 19, -40
 426 0268 13040103 		addi	s0,sp,48
 427              		.cfi_def_cfa 8, 0
 428 026c 13090500 		mv	s2,a0
 117:src/slabAllocator.cpp ****     if(slab == nullptr)
 429              		.loc 1 117 5
 430 0270 63080508 		beqz	a0,.L26
 431              	.LBB4:
 118:src/slabAllocator.cpp ****         return nullptr;
 119:src/slabAllocator.cpp ****     int index = -1;
 120:src/slabAllocator.cpp ****     void* addr = nullptr;
 121:src/slabAllocator.cpp ****     for(size_t i = 0;i < slab->numOfObjects;i++)
 432              		.loc 1 121 16 is_stmt 0
 433 0274 93040000 		li	s1,0
 434              	.LVL36:
 435              	.L25:
 436              		.loc 1 121 24 is_stmt 1 discriminator 1
 437              		.loc 1 121 32 is_stmt 0 discriminator 1
 438 0278 83378901 		ld	a5,24(s2)
 439              		.loc 1 121 24 discriminator 1
 440 027c 63FEF402 		bleu	a5,s1,.L27
 122:src/slabAllocator.cpp ****     {
 123:src/slabAllocator.cpp ****         if(!checkSetIndex(slab, i))
 441              		.loc 1 123 9 is_stmt 1
 442              		.loc 1 123 26 is_stmt 0
 443 0280 9B890400 		sext.w	s3,s1
 444 0284 93850900 		mv	a1,s3
 445 0288 13050900 		mv	a0,s2
 446 028c 97000000 		call	_Z13checkSetIndexP6slab_si
 446      E7800000 
GAS LISTING /tmp/ccDSSFbw.s 			page 11


 447              	.LVL37:
 448              		.loc 1 123 9
 449 0294 63060500 		beqz	a0,.L29
 121:src/slabAllocator.cpp ****     {
 450              		.loc 1 121 5 is_stmt 1 discriminator 2
 451 0298 93841400 		addi	s1,s1,1
 452              	.LVL38:
 453 029c 6FF0DFFD 		j	.L25
 454              	.L29:
 124:src/slabAllocator.cpp ****         {
 125:src/slabAllocator.cpp ****             addr = (void*)((size_t)slab + sizeof(slab_t)+ i*slab->owner->obj_size);
 455              		.loc 1 125 13
 456              		.loc 1 125 67 is_stmt 0
 457 02a0 83370901 		ld	a5,16(s2)
 458              		.loc 1 125 74
 459 02a4 83B70706 		ld	a5,96(a5)
 460              		.loc 1 125 60
 461 02a8 B3849702 		mul	s1,a5,s1
 462              	.LVL39:
 463              		.loc 1 125 57
 464 02ac B3049900 		add	s1,s2,s1
 465 02b0 93848404 		addi	s1,s1,72
 466              	.LVL40:
 126:src/slabAllocator.cpp ****             index = i;
 467              		.loc 1 126 13 is_stmt 1
 127:src/slabAllocator.cpp ****             break;
 468              		.loc 1 127 13
 469 02b4 6F00C000 		j	.L23
 470              	.LVL41:
 471              	.L27:
 472              	.LBE4:
 120:src/slabAllocator.cpp ****     for(size_t i = 0;i < slab->numOfObjects;i++)
 473              		.loc 1 120 11 is_stmt 0
 474 02b8 93040000 		li	s1,0
 475              	.LVL42:
 119:src/slabAllocator.cpp ****     void* addr = nullptr;
 476              		.loc 1 119 9
 477 02bc 9309F0FF 		li	s3,-1
 478              	.L23:
 479              	.LVL43:
 128:src/slabAllocator.cpp ****         }
 129:src/slabAllocator.cpp ****     }
 130:src/slabAllocator.cpp ****     if(addr == nullptr)
 480              		.loc 1 130 5 is_stmt 1
 481 02c0 63800402 		beqz	s1,.L21
 131:src/slabAllocator.cpp ****         return nullptr;
 132:src/slabAllocator.cpp **** 
 133:src/slabAllocator.cpp ****     //KConsole::trapPrintStringInt("Allocated index ",index);
 134:src/slabAllocator.cpp **** 
 135:src/slabAllocator.cpp ****     setAllocatedIndex(slab, index);
 482              		.loc 1 135 5
 483              		.loc 1 135 22 is_stmt 0
 484 02c4 93850900 		mv	a1,s3
 485 02c8 13050900 		mv	a0,s2
 486 02cc 97000000 		call	_Z17setAllocatedIndexP6slab_si
 486      E7800000 
 487              	.LVL44:
GAS LISTING /tmp/ccDSSFbw.s 			page 12


 136:src/slabAllocator.cpp ****     slab->numOfAllocatedObjects++;
 488              		.loc 1 136 5 is_stmt 1
 489              		.loc 1 136 11 is_stmt 0
 490 02d4 83370902 		ld	a5,32(s2)
 491              		.loc 1 136 32
 492 02d8 93871700 		addi	a5,a5,1
 493 02dc 2330F902 		sd	a5,32(s2)
 137:src/slabAllocator.cpp **** 
 138:src/slabAllocator.cpp ****     return addr;
 494              		.loc 1 138 5 is_stmt 1
 495              	.LVL45:
 496              	.L21:
 139:src/slabAllocator.cpp **** }
 497              		.loc 1 139 1 is_stmt 0
 498 02e0 13850400 		mv	a0,s1
 499 02e4 83308102 		ld	ra,40(sp)
 500              		.cfi_remember_state
 501              		.cfi_restore 1
 502 02e8 03340102 		ld	s0,32(sp)
 503              		.cfi_restore 8
 504              		.cfi_def_cfa 2, 48
 505 02ec 83348101 		ld	s1,24(sp)
 506              		.cfi_restore 9
 507 02f0 03390101 		ld	s2,16(sp)
 508              		.cfi_restore 18
 509              	.LVL46:
 510 02f4 83398100 		ld	s3,8(sp)
 511              		.cfi_restore 19
 512 02f8 13010103 		addi	sp,sp,48
 513              		.cfi_def_cfa_offset 0
 514 02fc 67800000 		jr	ra
 515              	.LVL47:
 516              	.L26:
 517              		.cfi_restore_state
 118:src/slabAllocator.cpp ****     int index = -1;
 518              		.loc 1 118 16
 519 0300 93040500 		mv	s1,a0
 520 0304 6FF0DFFD 		j	.L21
 521              		.cfi_endproc
 522              	.LFE11:
 524              		.align	2
 525              		.globl	_Z4fullP6slab_s
 527              	_Z4fullP6slab_s:
 528              	.LFB12:
 140:src/slabAllocator.cpp **** 
 141:src/slabAllocator.cpp **** bool full(slab_t* slab)
 142:src/slabAllocator.cpp **** {
 529              		.loc 1 142 1 is_stmt 1
 530              		.cfi_startproc
 531              	.LVL48:
 532 0308 130101FF 		addi	sp,sp,-16
 533              		.cfi_def_cfa_offset 16
 534 030c 23348100 		sd	s0,8(sp)
 535              		.cfi_offset 8, -8
 536 0310 13040101 		addi	s0,sp,16
 537              		.cfi_def_cfa 8, 0
 143:src/slabAllocator.cpp ****     return slab->numOfAllocatedObjects == slab->numOfObjects;
GAS LISTING /tmp/ccDSSFbw.s 			page 13


 538              		.loc 1 143 5
 539              		.loc 1 143 18 is_stmt 0
 540 0314 83370502 		ld	a5,32(a0)
 541              		.loc 1 143 49
 542 0318 03358501 		ld	a0,24(a0)
 543              	.LVL49:
 544 031c 3305F540 		sub	a0,a0,a5
 144:src/slabAllocator.cpp **** }
 545              		.loc 1 144 1
 546 0320 13351500 		seqz	a0,a0
 547 0324 03348100 		ld	s0,8(sp)
 548              		.cfi_restore 8
 549              		.cfi_def_cfa 2, 16
 550 0328 13010101 		addi	sp,sp,16
 551              		.cfi_def_cfa_offset 0
 552 032c 67800000 		jr	ra
 553              		.cfi_endproc
 554              	.LFE12:
 556              		.align	2
 557              		.globl	_Z5emptyP6slab_s
 559              	_Z5emptyP6slab_s:
 560              	.LFB13:
 145:src/slabAllocator.cpp **** 
 146:src/slabAllocator.cpp **** bool empty(slab_t* slab)
 147:src/slabAllocator.cpp **** {
 561              		.loc 1 147 1 is_stmt 1
 562              		.cfi_startproc
 563              	.LVL50:
 564 0330 130101FF 		addi	sp,sp,-16
 565              		.cfi_def_cfa_offset 16
 566 0334 23348100 		sd	s0,8(sp)
 567              		.cfi_offset 8, -8
 568 0338 13040101 		addi	s0,sp,16
 569              		.cfi_def_cfa 8, 0
 148:src/slabAllocator.cpp ****     return slab->numOfAllocatedObjects == 0;
 570              		.loc 1 148 5
 571              		.loc 1 148 18 is_stmt 0
 572 033c 03350502 		ld	a0,32(a0)
 573              	.LVL51:
 149:src/slabAllocator.cpp **** }
 574              		.loc 1 149 1
 575 0340 13351500 		seqz	a0,a0
 576 0344 03348100 		ld	s0,8(sp)
 577              		.cfi_restore 8
 578              		.cfi_def_cfa 2, 16
 579 0348 13010101 		addi	sp,sp,16
 580              		.cfi_def_cfa_offset 0
 581 034c 67800000 		jr	ra
 582              		.cfi_endproc
 583              	.LFE13:
 585              		.align	2
 586              		.globl	_Z18insertIntoSlabListP6slab_sPS0_
 588              	_Z18insertIntoSlabListP6slab_sPS0_:
 589              	.LFB14:
 150:src/slabAllocator.cpp **** 
 151:src/slabAllocator.cpp **** void insertIntoSlabList(slab_t* slab, slab_t** slab_head)
 152:src/slabAllocator.cpp **** {
GAS LISTING /tmp/ccDSSFbw.s 			page 14


 590              		.loc 1 152 1 is_stmt 1
 591              		.cfi_startproc
 592              	.LVL52:
 593 0350 130101FF 		addi	sp,sp,-16
 594              		.cfi_def_cfa_offset 16
 595 0354 23348100 		sd	s0,8(sp)
 596              		.cfi_offset 8, -8
 597 0358 13040101 		addi	s0,sp,16
 598              		.cfi_def_cfa 8, 0
 153:src/slabAllocator.cpp ****     if(slab == nullptr)
 599              		.loc 1 153 5
 600 035c 630E0500 		beqz	a0,.L34
 154:src/slabAllocator.cpp ****         return;
 155:src/slabAllocator.cpp ****     slab->prev = nullptr;
 601              		.loc 1 155 5
 602              		.loc 1 155 16 is_stmt 0
 603 0360 23300500 		sd	zero,0(a0)
 156:src/slabAllocator.cpp ****     slab->next = *slab_head;
 604              		.loc 1 156 5 is_stmt 1
 605              		.loc 1 156 18 is_stmt 0
 606 0364 83B70500 		ld	a5,0(a1)
 607              		.loc 1 156 16
 608 0368 2334F500 		sd	a5,8(a0)
 157:src/slabAllocator.cpp ****     if(*slab_head != nullptr)
 609              		.loc 1 157 5 is_stmt 1
 610 036c 63840700 		beqz	a5,.L36
 158:src/slabAllocator.cpp ****         (*slab_head)->prev = slab;
 611              		.loc 1 158 9
 612              		.loc 1 158 28 is_stmt 0
 613 0370 23B0A700 		sd	a0,0(a5)
 614              	.L36:
 159:src/slabAllocator.cpp ****     *slab_head = slab;
 615              		.loc 1 159 5 is_stmt 1
 616              		.loc 1 159 16 is_stmt 0
 617 0374 23B0A500 		sd	a0,0(a1)
 618              	.L34:
 160:src/slabAllocator.cpp **** }
 619              		.loc 1 160 1
 620 0378 03348100 		ld	s0,8(sp)
 621              		.cfi_restore 8
 622              		.cfi_def_cfa 2, 16
 623 037c 13010101 		addi	sp,sp,16
 624              		.cfi_def_cfa_offset 0
 625 0380 67800000 		jr	ra
 626              		.cfi_endproc
 627              	.LFE14:
 629              		.align	2
 630              		.globl	_Z18removeFromSlabListP6slab_sPS0_
 632              	_Z18removeFromSlabListP6slab_sPS0_:
 633              	.LFB15:
 161:src/slabAllocator.cpp **** 
 162:src/slabAllocator.cpp **** void removeFromSlabList(slab_t* slab, slab_t** slab_head)
 163:src/slabAllocator.cpp **** {
 634              		.loc 1 163 1 is_stmt 1
 635              		.cfi_startproc
 636              	.LVL53:
 637 0384 130101FF 		addi	sp,sp,-16
GAS LISTING /tmp/ccDSSFbw.s 			page 15


 638              		.cfi_def_cfa_offset 16
 639 0388 23348100 		sd	s0,8(sp)
 640              		.cfi_offset 8, -8
 641 038c 13040101 		addi	s0,sp,16
 642              		.cfi_def_cfa 8, 0
 164:src/slabAllocator.cpp ****     if(slab->prev == nullptr) //same as slab == *slab_head
 643              		.loc 1 164 5
 644              		.loc 1 164 14 is_stmt 0
 645 0390 83370500 		ld	a5,0(a0)
 646              		.loc 1 164 5
 647 0394 63860702 		beqz	a5,.L44
 165:src/slabAllocator.cpp ****     {
 166:src/slabAllocator.cpp ****         if(slab->next) slab->next->prev = nullptr;
 167:src/slabAllocator.cpp ****         (*slab_head) = slab->next;
 168:src/slabAllocator.cpp ****         slab->next = slab->prev = nullptr;
 169:src/slabAllocator.cpp ****     }
 170:src/slabAllocator.cpp ****     else
 171:src/slabAllocator.cpp ****     {
 172:src/slabAllocator.cpp ****         slab->prev->next = slab->next;
 648              		.loc 1 172 9 is_stmt 1
 649              		.loc 1 172 34 is_stmt 0
 650 0398 03378500 		ld	a4,8(a0)
 651              		.loc 1 172 26
 652 039c 23B4E700 		sd	a4,8(a5)
 173:src/slabAllocator.cpp ****         if(slab->next) slab->next->prev = slab->prev;
 653              		.loc 1 173 9 is_stmt 1
 654 03a0 63060700 		beqz	a4,.L42
 655              		.loc 1 173 24 discriminator 1
 656              		.loc 1 173 49 is_stmt 0 discriminator 1
 657 03a4 83370500 		ld	a5,0(a0)
 658              		.loc 1 173 41 discriminator 1
 659 03a8 2330F700 		sd	a5,0(a4)
 660              	.L42:
 174:src/slabAllocator.cpp ****         slab->next = slab->prev = nullptr;
 661              		.loc 1 174 9 is_stmt 1
 662              		.loc 1 174 33 is_stmt 0
 663 03ac 23300500 		sd	zero,0(a0)
 664              		.loc 1 174 20
 665 03b0 23340500 		sd	zero,8(a0)
 666              	.L38:
 175:src/slabAllocator.cpp ****     }
 176:src/slabAllocator.cpp **** }
 667              		.loc 1 176 1
 668 03b4 03348100 		ld	s0,8(sp)
 669              		.cfi_remember_state
 670              		.cfi_restore 8
 671              		.cfi_def_cfa 2, 16
 672 03b8 13010101 		addi	sp,sp,16
 673              		.cfi_def_cfa_offset 0
 674 03bc 67800000 		jr	ra
 675              	.L44:
 676              		.cfi_restore_state
 166:src/slabAllocator.cpp ****         (*slab_head) = slab->next;
 677              		.loc 1 166 9 is_stmt 1
 166:src/slabAllocator.cpp ****         (*slab_head) = slab->next;
 678              		.loc 1 166 18 is_stmt 0
 679 03c0 83378500 		ld	a5,8(a0)
GAS LISTING /tmp/ccDSSFbw.s 			page 16


 166:src/slabAllocator.cpp ****         (*slab_head) = slab->next;
 680              		.loc 1 166 9
 681 03c4 63840700 		beqz	a5,.L40
 166:src/slabAllocator.cpp ****         (*slab_head) = slab->next;
 682              		.loc 1 166 24 is_stmt 1 discriminator 1
 166:src/slabAllocator.cpp ****         (*slab_head) = slab->next;
 683              		.loc 1 166 41 is_stmt 0 discriminator 1
 684 03c8 23B00700 		sd	zero,0(a5)
 685              	.L40:
 167:src/slabAllocator.cpp ****         slab->next = slab->prev = nullptr;
 686              		.loc 1 167 9 is_stmt 1
 167:src/slabAllocator.cpp ****         slab->next = slab->prev = nullptr;
 687              		.loc 1 167 30 is_stmt 0
 688 03cc 83378500 		ld	a5,8(a0)
 167:src/slabAllocator.cpp ****         slab->next = slab->prev = nullptr;
 689              		.loc 1 167 22
 690 03d0 23B0F500 		sd	a5,0(a1)
 168:src/slabAllocator.cpp ****     }
 691              		.loc 1 168 9 is_stmt 1
 168:src/slabAllocator.cpp ****     }
 692              		.loc 1 168 33 is_stmt 0
 693 03d4 23300500 		sd	zero,0(a0)
 168:src/slabAllocator.cpp ****     }
 694              		.loc 1 168 20
 695 03d8 23340500 		sd	zero,8(a0)
 696 03dc 6FF09FFD 		j	.L38
 697              		.cfi_endproc
 698              	.LFE15:
 700              		.align	2
 701              		.globl	_Z16putPartialToFullP12kmem_cache_s
 703              	_Z16putPartialToFullP12kmem_cache_s:
 704              	.LFB16:
 177:src/slabAllocator.cpp **** 
 178:src/slabAllocator.cpp **** void putPartialToFull(kmem_cache_t* cachep)
 179:src/slabAllocator.cpp **** {
 705              		.loc 1 179 1 is_stmt 1
 706              		.cfi_startproc
 707              	.LVL54:
 708 03e0 130101FE 		addi	sp,sp,-32
 709              		.cfi_def_cfa_offset 32
 710 03e4 233C1100 		sd	ra,24(sp)
 711 03e8 23388100 		sd	s0,16(sp)
 712 03ec 23349100 		sd	s1,8(sp)
 713 03f0 23302101 		sd	s2,0(sp)
 714              		.cfi_offset 1, -8
 715              		.cfi_offset 8, -16
 716              		.cfi_offset 9, -24
 717              		.cfi_offset 18, -32
 718 03f4 13040102 		addi	s0,sp,32
 719              		.cfi_def_cfa 8, 0
 720 03f8 93040500 		mv	s1,a0
 180:src/slabAllocator.cpp ****     slab_t* slab = cachep->slabs_partial;
 721              		.loc 1 180 5
 722              		.loc 1 180 13 is_stmt 0
 723 03fc 03390505 		ld	s2,80(a0)
 724              	.LVL55:
 181:src/slabAllocator.cpp ****     removeFromSlabList(slab, &cachep->slabs_partial);
GAS LISTING /tmp/ccDSSFbw.s 			page 17


 725              		.loc 1 181 5 is_stmt 1
 726              		.loc 1 181 23 is_stmt 0
 727 0400 93050505 		addi	a1,a0,80
 728 0404 13050900 		mv	a0,s2
 729              	.LVL56:
 730 0408 97000000 		call	_Z18removeFromSlabListP6slab_sPS0_
 730      E7800000 
 731              	.LVL57:
 182:src/slabAllocator.cpp ****     insertIntoSlabList(slab, &cachep->slabs_full);
 732              		.loc 1 182 5 is_stmt 1
 733              		.loc 1 182 23 is_stmt 0
 734 0410 93858404 		addi	a1,s1,72
 735 0414 13050900 		mv	a0,s2
 736 0418 97000000 		call	_Z18insertIntoSlabListP6slab_sPS0_
 736      E7800000 
 737              	.LVL58:
 183:src/slabAllocator.cpp **** }
 738              		.loc 1 183 1
 739 0420 83308101 		ld	ra,24(sp)
 740              		.cfi_restore 1
 741 0424 03340101 		ld	s0,16(sp)
 742              		.cfi_restore 8
 743              		.cfi_def_cfa 2, 32
 744 0428 83348100 		ld	s1,8(sp)
 745              		.cfi_restore 9
 746              	.LVL59:
 747 042c 03390100 		ld	s2,0(sp)
 748              		.cfi_restore 18
 749              	.LVL60:
 750 0430 13010102 		addi	sp,sp,32
 751              		.cfi_def_cfa_offset 0
 752 0434 67800000 		jr	ra
 753              		.cfi_endproc
 754              	.LFE16:
 756              		.align	2
 757              		.globl	_Z17putEmptyToPartialP12kmem_cache_s
 759              	_Z17putEmptyToPartialP12kmem_cache_s:
 760              	.LFB17:
 184:src/slabAllocator.cpp **** 
 185:src/slabAllocator.cpp **** void putEmptyToPartial(kmem_cache_t* cachep)
 186:src/slabAllocator.cpp **** {
 761              		.loc 1 186 1 is_stmt 1
 762              		.cfi_startproc
 763              	.LVL61:
 764 0438 130101FE 		addi	sp,sp,-32
 765              		.cfi_def_cfa_offset 32
 766 043c 233C1100 		sd	ra,24(sp)
 767 0440 23388100 		sd	s0,16(sp)
 768 0444 23349100 		sd	s1,8(sp)
 769 0448 23302101 		sd	s2,0(sp)
 770              		.cfi_offset 1, -8
 771              		.cfi_offset 8, -16
 772              		.cfi_offset 9, -24
 773              		.cfi_offset 18, -32
 774 044c 13040102 		addi	s0,sp,32
 775              		.cfi_def_cfa 8, 0
 776 0450 93040500 		mv	s1,a0
GAS LISTING /tmp/ccDSSFbw.s 			page 18


 187:src/slabAllocator.cpp ****     slab_t* slab = cachep->slabs_empty;
 777              		.loc 1 187 5
 778              		.loc 1 187 13 is_stmt 0
 779 0454 03390504 		ld	s2,64(a0)
 780              	.LVL62:
 188:src/slabAllocator.cpp ****     removeFromSlabList(slab, &cachep->slabs_empty);
 781              		.loc 1 188 5 is_stmt 1
 782              		.loc 1 188 23 is_stmt 0
 783 0458 93050504 		addi	a1,a0,64
 784 045c 13050900 		mv	a0,s2
 785              	.LVL63:
 786 0460 97000000 		call	_Z18removeFromSlabListP6slab_sPS0_
 786      E7800000 
 787              	.LVL64:
 189:src/slabAllocator.cpp ****     insertIntoSlabList(slab, &cachep->slabs_partial);
 788              		.loc 1 189 5 is_stmt 1
 789              		.loc 1 189 23 is_stmt 0
 790 0468 93850405 		addi	a1,s1,80
 791 046c 13050900 		mv	a0,s2
 792 0470 97000000 		call	_Z18insertIntoSlabListP6slab_sPS0_
 792      E7800000 
 793              	.LVL65:
 190:src/slabAllocator.cpp **** }
 794              		.loc 1 190 1
 795 0478 83308101 		ld	ra,24(sp)
 796              		.cfi_restore 1
 797 047c 03340101 		ld	s0,16(sp)
 798              		.cfi_restore 8
 799              		.cfi_def_cfa 2, 32
 800 0480 83348100 		ld	s1,8(sp)
 801              		.cfi_restore 9
 802              	.LVL66:
 803 0484 03390100 		ld	s2,0(sp)
 804              		.cfi_restore 18
 805              	.LVL67:
 806 0488 13010102 		addi	sp,sp,32
 807              		.cfi_def_cfa_offset 0
 808 048c 67800000 		jr	ra
 809              		.cfi_endproc
 810              	.LFE17:
 812              		.align	2
 813              		.globl	_Z14removeFullSlabP12kmem_cache_sP6slab_s
 815              	_Z14removeFullSlabP12kmem_cache_sP6slab_s:
 816              	.LFB18:
 191:src/slabAllocator.cpp **** 
 192:src/slabAllocator.cpp **** void removeFullSlab(kmem_cache_t* cachep, slab_t* slab)
 193:src/slabAllocator.cpp **** {
 817              		.loc 1 193 1 is_stmt 1
 818              		.cfi_startproc
 819              	.LVL68:
 820 0490 130101FE 		addi	sp,sp,-32
 821              		.cfi_def_cfa_offset 32
 822 0494 233C1100 		sd	ra,24(sp)
 823 0498 23388100 		sd	s0,16(sp)
 824 049c 23349100 		sd	s1,8(sp)
 825 04a0 23302101 		sd	s2,0(sp)
 826              		.cfi_offset 1, -8
GAS LISTING /tmp/ccDSSFbw.s 			page 19


 827              		.cfi_offset 8, -16
 828              		.cfi_offset 9, -24
 829              		.cfi_offset 18, -32
 830 04a4 13040102 		addi	s0,sp,32
 831              		.cfi_def_cfa 8, 0
 832 04a8 13090500 		mv	s2,a0
 833 04ac 93840500 		mv	s1,a1
 194:src/slabAllocator.cpp ****     removeFromSlabList(slab, &cachep->slabs_full);
 834              		.loc 1 194 5
 835              		.loc 1 194 23 is_stmt 0
 836 04b0 93058504 		addi	a1,a0,72
 837              	.LVL69:
 838 04b4 13850400 		mv	a0,s1
 839              	.LVL70:
 840 04b8 97000000 		call	_Z18removeFromSlabListP6slab_sPS0_
 840      E7800000 
 841              	.LVL71:
 195:src/slabAllocator.cpp ****     insertIntoSlabList(slab, &cachep->slabs_partial);
 842              		.loc 1 195 5 is_stmt 1
 843              		.loc 1 195 23 is_stmt 0
 844 04c0 93050905 		addi	a1,s2,80
 845 04c4 13850400 		mv	a0,s1
 846 04c8 97000000 		call	_Z18insertIntoSlabListP6slab_sPS0_
 846      E7800000 
 847              	.LVL72:
 196:src/slabAllocator.cpp **** }
 848              		.loc 1 196 1
 849 04d0 83308101 		ld	ra,24(sp)
 850              		.cfi_restore 1
 851 04d4 03340101 		ld	s0,16(sp)
 852              		.cfi_restore 8
 853              		.cfi_def_cfa 2, 32
 854 04d8 83348100 		ld	s1,8(sp)
 855              		.cfi_restore 9
 856              	.LVL73:
 857 04dc 03390100 		ld	s2,0(sp)
 858              		.cfi_restore 18
 859              	.LVL74:
 860 04e0 13010102 		addi	sp,sp,32
 861              		.cfi_def_cfa_offset 0
 862 04e4 67800000 		jr	ra
 863              		.cfi_endproc
 864              	.LFE18:
 866              		.align	2
 867              		.globl	_Z17removePartialSlabP12kmem_cache_sP6slab_s
 869              	_Z17removePartialSlabP12kmem_cache_sP6slab_s:
 870              	.LFB19:
 197:src/slabAllocator.cpp **** 
 198:src/slabAllocator.cpp **** void removePartialSlab(kmem_cache_t * cachep, slab_t* slab)
 199:src/slabAllocator.cpp **** {
 871              		.loc 1 199 1 is_stmt 1
 872              		.cfi_startproc
 873              	.LVL75:
 874 04e8 130101FE 		addi	sp,sp,-32
 875              		.cfi_def_cfa_offset 32
 876 04ec 233C1100 		sd	ra,24(sp)
 877 04f0 23388100 		sd	s0,16(sp)
GAS LISTING /tmp/ccDSSFbw.s 			page 20


 878 04f4 23349100 		sd	s1,8(sp)
 879 04f8 23302101 		sd	s2,0(sp)
 880              		.cfi_offset 1, -8
 881              		.cfi_offset 8, -16
 882              		.cfi_offset 9, -24
 883              		.cfi_offset 18, -32
 884 04fc 13040102 		addi	s0,sp,32
 885              		.cfi_def_cfa 8, 0
 886 0500 13090500 		mv	s2,a0
 887 0504 93840500 		mv	s1,a1
 200:src/slabAllocator.cpp ****     removeFromSlabList(slab, &cachep->slabs_partial);
 888              		.loc 1 200 5
 889              		.loc 1 200 23 is_stmt 0
 890 0508 93050505 		addi	a1,a0,80
 891              	.LVL76:
 892 050c 13850400 		mv	a0,s1
 893              	.LVL77:
 894 0510 97000000 		call	_Z18removeFromSlabListP6slab_sPS0_
 894      E7800000 
 895              	.LVL78:
 201:src/slabAllocator.cpp ****     insertIntoSlabList(slab, &cachep->slabs_empty);
 896              		.loc 1 201 5 is_stmt 1
 897              		.loc 1 201 23 is_stmt 0
 898 0518 93050904 		addi	a1,s2,64
 899 051c 13850400 		mv	a0,s1
 900 0520 97000000 		call	_Z18insertIntoSlabListP6slab_sPS0_
 900      E7800000 
 901              	.LVL79:
 202:src/slabAllocator.cpp **** }
 902              		.loc 1 202 1
 903 0528 83308101 		ld	ra,24(sp)
 904              		.cfi_restore 1
 905 052c 03340101 		ld	s0,16(sp)
 906              		.cfi_restore 8
 907              		.cfi_def_cfa 2, 32
 908 0530 83348100 		ld	s1,8(sp)
 909              		.cfi_restore 9
 910              	.LVL80:
 911 0534 03390100 		ld	s2,0(sp)
 912              		.cfi_restore 18
 913              	.LVL81:
 914 0538 13010102 		addi	sp,sp,32
 915              		.cfi_def_cfa_offset 0
 916 053c 67800000 		jr	ra
 917              		.cfi_endproc
 918              	.LFE19:
 920              		.align	2
 921              		.globl	_Z12allocateSlabP12kmem_cache_s
 923              	_Z12allocateSlabP12kmem_cache_s:
 924              	.LFB20:
 203:src/slabAllocator.cpp **** 
 204:src/slabAllocator.cpp **** void allocateSlab(kmem_cache_t* cachep)
 205:src/slabAllocator.cpp **** {
 925              		.loc 1 205 1 is_stmt 1
 926              		.cfi_startproc
 927              	.LVL82:
 928 0540 130101FD 		addi	sp,sp,-48
GAS LISTING /tmp/ccDSSFbw.s 			page 21


 929              		.cfi_def_cfa_offset 48
 930 0544 23341102 		sd	ra,40(sp)
 931 0548 23308102 		sd	s0,32(sp)
 932 054c 233C9100 		sd	s1,24(sp)
 933 0550 23382101 		sd	s2,16(sp)
 934 0554 23343101 		sd	s3,8(sp)
 935              		.cfi_offset 1, -8
 936              		.cfi_offset 8, -16
 937              		.cfi_offset 9, -24
 938              		.cfi_offset 18, -32
 939              		.cfi_offset 19, -40
 940 0558 13040103 		addi	s0,sp,48
 941              		.cfi_def_cfa 8, 0
 942 055c 93090500 		mv	s3,a0
 206:src/slabAllocator.cpp ****     slab_t* newSlab = (slab_t*)buddy_alloc(slabAllocator->buddy,cachep->slab_size);
 943              		.loc 1 206 5
 944              		.loc 1 206 43 is_stmt 0
 945 0560 83358505 		ld	a1,88(a0)
 946 0564 97070000 		ld	a5,.LANCHOR0
 946      83B70700 
 947 056c 03B50700 		ld	a0,0(a5)
 948              	.LVL83:
 949 0570 97000000 		call	_Z11buddy_allocP14buddyAllocatorm@plt
 949      E7800000 
 950              	.LVL84:
 207:src/slabAllocator.cpp ****     if(newSlab == nullptr)
 951              		.loc 1 207 5 is_stmt 1
 952 0578 630C0508 		beqz	a0,.L53
 953 057c 93040500 		mv	s1,a0
 208:src/slabAllocator.cpp ****         return;
 209:src/slabAllocator.cpp ****     newSlab->next = cachep->slabs_empty;
 954              		.loc 1 209 5
 955              		.loc 1 209 29 is_stmt 0
 956 0580 83B70904 		ld	a5,64(s3)
 957              		.loc 1 209 19
 958 0584 2334F500 		sd	a5,8(a0)
 210:src/slabAllocator.cpp ****     if(cachep->slabs_empty != nullptr)
 959              		.loc 1 210 5 is_stmt 1
 960 0588 63840700 		beqz	a5,.L55
 211:src/slabAllocator.cpp ****         cachep->slabs_empty->prev = newSlab;
 961              		.loc 1 211 9
 962              		.loc 1 211 35 is_stmt 0
 963 058c 23B0A700 		sd	a0,0(a5)
 964              	.LVL85:
 965              	.L55:
 212:src/slabAllocator.cpp ****     cachep->slabs_empty = newSlab;
 966              		.loc 1 212 5 is_stmt 1
 967              		.loc 1 212 25 is_stmt 0
 968 0590 23B09904 		sd	s1,64(s3)
 213:src/slabAllocator.cpp ****     newSlab->prev = nullptr;
 969              		.loc 1 213 5 is_stmt 1
 970              		.loc 1 213 19 is_stmt 0
 971 0594 23B00400 		sd	zero,0(s1)
 214:src/slabAllocator.cpp **** 
 215:src/slabAllocator.cpp ****     newSlab->numOfAllocatedObjects = 0;
 972              		.loc 1 215 5 is_stmt 1
 973              		.loc 1 215 36 is_stmt 0
GAS LISTING /tmp/ccDSSFbw.s 			page 22


 974 0598 23B00402 		sd	zero,32(s1)
 216:src/slabAllocator.cpp ****     newSlab->owner = cachep;
 975              		.loc 1 216 5 is_stmt 1
 976              		.loc 1 216 20 is_stmt 0
 977 059c 23B83401 		sd	s3,16(s1)
 217:src/slabAllocator.cpp ****     size_t sizeInBytes = cachep->slab_size*BLOCK_SIZE;
 978              		.loc 1 217 5 is_stmt 1
 979              		.loc 1 217 34 is_stmt 0
 980 05a0 83B68905 		ld	a3,88(s3)
 981              		.loc 1 217 12
 982 05a4 9396C600 		slli	a3,a3,12
 983              	.LVL86:
 218:src/slabAllocator.cpp ****     newSlab->numOfObjects = (sizeInBytes - sizeof(slab_t)) / cachep->obj_size; // TODO can this par
 984              		.loc 1 218 5 is_stmt 1
 985              		.loc 1 218 42 is_stmt 0
 986 05a8 938686FB 		addi	a3,a3,-72
 987              	.LVL87:
 988              		.loc 1 218 70
 989 05ac 83B70906 		ld	a5,96(s3)
 990              		.loc 1 218 60
 991 05b0 B3D6F602 		divu	a3,a3,a5
 992              	.LVL88:
 993              		.loc 1 218 27
 994 05b4 23BCD400 		sd	a3,24(s1)
 995              	.LVL89:
 219:src/slabAllocator.cpp ****     for(size_t i = 0; i < (newSlab->numOfObjects + 7) / 8;i++)
 996              		.loc 1 219 5 is_stmt 1
 997              	.LBB5:
 998              		.loc 1 219 16 is_stmt 0
 999 05b8 13070000 		li	a4,0
 1000              	.LVL90:
 1001              	.L57:
 1002              		.loc 1 219 25 is_stmt 1 discriminator 3
 1003              		.loc 1 219 50 is_stmt 0 discriminator 3
 1004 05bc 93877600 		addi	a5,a3,7
 1005              		.loc 1 219 55 discriminator 3
 1006 05c0 93D73700 		srli	a5,a5,3
 1007              		.loc 1 219 25 discriminator 3
 1008 05c4 637AF700 		bleu	a5,a4,.L56
 220:src/slabAllocator.cpp ****         newSlab->allocated[i] = 0;
 1009              		.loc 1 220 9 is_stmt 1 discriminator 2
 1010              		.loc 1 220 31 is_stmt 0 discriminator 2
 1011 05c8 B387E400 		add	a5,s1,a4
 1012 05cc 23840702 		sb	zero,40(a5)
 219:src/slabAllocator.cpp ****     for(size_t i = 0; i < (newSlab->numOfObjects + 7) / 8;i++)
 1013              		.loc 1 219 5 is_stmt 1 discriminator 2
 1014 05d0 13071700 		addi	a4,a4,1
 1015              	.LVL91:
 1016 05d4 6FF09FFE 		j	.L57
 1017              	.L56:
 1018              	.LBE5:
 221:src/slabAllocator.cpp **** 
 222:src/slabAllocator.cpp ****     //TODO test
 223:src/slabAllocator.cpp ****     if(cachep->ctor != nullptr)
 1019              		.loc 1 223 5
 1020              	.LBB6:
 1021              		.loc 1 223 16 is_stmt 0
GAS LISTING /tmp/ccDSSFbw.s 			page 23


 1022 05d8 83B78906 		ld	a5,104(s3)
 1023              		.loc 1 223 5
 1024 05dc 638A0702 		beqz	a5,.L53
 1025              	.LBB7:
 224:src/slabAllocator.cpp ****     {
 225:src/slabAllocator.cpp ****         for(size_t i = 0;i < newSlab->numOfObjects;i++)
 1026              		.loc 1 225 20
 1027 05e0 13090000 		li	s2,0
 1028              	.LVL92:
 1029              	.L58:
 1030              		.loc 1 225 28 is_stmt 1 discriminator 3
 1031              		.loc 1 225 39 is_stmt 0 discriminator 3
 1032 05e4 83B78401 		ld	a5,24(s1)
 1033              		.loc 1 225 28 discriminator 3
 1034 05e8 6374F902 		bleu	a5,s2,.L53
 226:src/slabAllocator.cpp ****             cachep->ctor((void*)((size_t)newSlab + sizeof(slab_t) + i*newSlab->owner->obj_size));
 1035              		.loc 1 226 13 is_stmt 1 discriminator 2
 1036              		.loc 1 226 21 is_stmt 0 discriminator 2
 1037 05ec 83B78906 		ld	a5,104(s3)
 1038              		.loc 1 226 80 discriminator 2
 1039 05f0 03B70401 		ld	a4,16(s1)
 1040              		.loc 1 226 87 discriminator 2
 1041 05f4 03350706 		ld	a0,96(a4)
 1042              		.loc 1 226 70 discriminator 2
 1043 05f8 33052503 		mul	a0,a0,s2
 1044              		.loc 1 226 67 discriminator 2
 1045 05fc 3385A400 		add	a0,s1,a0
 1046              		.loc 1 226 25 discriminator 2
 1047 0600 13058504 		addi	a0,a0,72
 1048 0604 E7800700 		jalr	a5
 1049              	.LVL93:
 225:src/slabAllocator.cpp ****             cachep->ctor((void*)((size_t)newSlab + sizeof(slab_t) + i*newSlab->owner->obj_size));
 1050              		.loc 1 225 9 is_stmt 1 discriminator 2
 1051 0608 13091900 		addi	s2,s2,1
 1052              	.LVL94:
 1053 060c 6FF09FFD 		j	.L58
 1054              	.LVL95:
 1055              	.L53:
 1056              	.LBE7:
 1057              	.LBE6:
 227:src/slabAllocator.cpp ****     }
 228:src/slabAllocator.cpp **** }
 1058              		.loc 1 228 1 is_stmt 0
 1059 0610 83308102 		ld	ra,40(sp)
 1060              		.cfi_restore 1
 1061 0614 03340102 		ld	s0,32(sp)
 1062              		.cfi_restore 8
 1063              		.cfi_def_cfa 2, 48
 1064 0618 83348101 		ld	s1,24(sp)
 1065              		.cfi_restore 9
 1066 061c 03390101 		ld	s2,16(sp)
 1067              		.cfi_restore 18
 1068 0620 83398100 		ld	s3,8(sp)
 1069              		.cfi_restore 19
 1070              	.LVL96:
 1071 0624 13010103 		addi	sp,sp,48
 1072              		.cfi_def_cfa_offset 0
GAS LISTING /tmp/ccDSSFbw.s 			page 24


 1073 0628 67800000 		jr	ra
 1074              		.cfi_endproc
 1075              	.LFE20:
 1077              		.align	2
 1078              		.globl	_Z18getOptimalSlabSizem
 1080              	_Z18getOptimalSlabSizem:
 1081              	.LFB21:
 229:src/slabAllocator.cpp **** 
 230:src/slabAllocator.cpp **** size_t getOptimalSlabSize(size_t obj_size)
 231:src/slabAllocator.cpp **** {
 1082              		.loc 1 231 1 is_stmt 1
 1083              		.cfi_startproc
 1084              	.LVL97:
 1085 062c 130101FF 		addi	sp,sp,-16
 1086              		.cfi_def_cfa_offset 16
 1087 0630 23348100 		sd	s0,8(sp)
 1088              		.cfi_offset 8, -8
 1089 0634 13040101 		addi	s0,sp,16
 1090              		.cfi_def_cfa 8, 0
 232:src/slabAllocator.cpp ****     size_t bestSize = BLOCK_SIZE;
 1091              		.loc 1 232 5
 1092              	.LVL98:
 1093              		.loc 1 232 12 is_stmt 0
 1094 0638 B7170000 		li	a5,4096
 1095              	.LVL99:
 1096              	.L62:
 233:src/slabAllocator.cpp ****     while(bestSize < obj_size + sizeof(slab_t))
 1097              		.loc 1 233 5 is_stmt 1
 1098              		.loc 1 233 20
 1099              		.loc 1 233 31 is_stmt 0
 1100 063c 13078504 		addi	a4,a0,72
 1101              		.loc 1 233 20
 1102 0640 63F6E700 		bleu	a4,a5,.L61
 234:src/slabAllocator.cpp ****         bestSize<<=1;
 1103              		.loc 1 234 9 is_stmt 1
 1104              		.loc 1 234 17 is_stmt 0
 1105 0644 93971700 		slli	a5,a5,1
 1106              	.LVL100:
 233:src/slabAllocator.cpp ****     while(bestSize < obj_size + sizeof(slab_t))
 1107              		.loc 1 233 5
 1108 0648 6FF05FFF 		j	.L62
 1109              	.L61:
 235:src/slabAllocator.cpp ****     size_t optimalWaste = (bestSize - sizeof(slab_t)) % obj_size;
 1110              		.loc 1 235 5 is_stmt 1
 1111              		.loc 1 235 37 is_stmt 0
 1112 064c 938587FB 		addi	a1,a5,-72
 1113              		.loc 1 235 12
 1114 0650 B3F5A502 		remu	a1,a1,a0
 1115              	.LVL101:
 236:src/slabAllocator.cpp **** 
 237:src/slabAllocator.cpp ****     static size_t lowerConst = 1;
 1116              		.loc 1 237 5 is_stmt 1
 238:src/slabAllocator.cpp ****     static size_t highConst = 4;
 1117              		.loc 1 238 5
 239:src/slabAllocator.cpp ****     for(size_t i = lowerConst;i<=highConst;i++) //TODO change constants
 1118              		.loc 1 239 5
 1119              	.LBB8:
GAS LISTING /tmp/ccDSSFbw.s 			page 25


 1120              		.loc 1 239 16 is_stmt 0
 1121 0654 93061000 		li	a3,1
 1122 0658 6F008000 		j	.L65
 1123              	.LVL102:
 1124              	.L64:
 1125              		.loc 1 239 5 is_stmt 1 discriminator 2
 1126 065c 93861600 		addi	a3,a3,1
 1127              	.LVL103:
 1128              	.L65:
 1129              		.loc 1 239 32 discriminator 1
 1130 0660 13074000 		li	a4,4
 1131 0664 6360D702 		bgtu	a3,a4,.L63
 1132              	.LBB9:
 240:src/slabAllocator.cpp ****     {
 241:src/slabAllocator.cpp ****         size_t newSize = bestSize << i;
 1133              		.loc 1 241 9
 1134              		.loc 1 241 16 is_stmt 0
 1135 0668 3396D700 		sll	a2,a5,a3
 1136              	.LVL104:
 242:src/slabAllocator.cpp ****         size_t newWaste = (newSize - sizeof(slab_t)) % obj_size;
 1137              		.loc 1 242 9 is_stmt 1
 1138              		.loc 1 242 36 is_stmt 0
 1139 066c 130786FB 		addi	a4,a2,-72
 1140              		.loc 1 242 16
 1141 0670 3377A702 		remu	a4,a4,a0
 1142              	.LVL105:
 243:src/slabAllocator.cpp ****         if(newWaste < optimalWaste)
 1143              		.loc 1 243 9 is_stmt 1
 1144 0674 E374B7FE 		bleu	a1,a4,.L64
 244:src/slabAllocator.cpp ****         {
 245:src/slabAllocator.cpp ****             optimalWaste = newWaste;
 1145              		.loc 1 245 26 is_stmt 0
 1146 0678 93050700 		mv	a1,a4
 1147              	.LVL106:
 246:src/slabAllocator.cpp ****             bestSize = newSize;
 1148              		.loc 1 246 22
 1149 067c 93070600 		mv	a5,a2
 1150              	.LVL107:
 1151 0680 6FF0DFFD 		j	.L64
 1152              	.LVL108:
 1153              	.L63:
 1154              	.LBE9:
 1155              	.LBE8:
 247:src/slabAllocator.cpp ****         }
 248:src/slabAllocator.cpp ****     }
 249:src/slabAllocator.cpp **** 
 250:src/slabAllocator.cpp ****     return bestSize / BLOCK_SIZE;
 1156              		.loc 1 250 5 is_stmt 1
 251:src/slabAllocator.cpp **** }
 1157              		.loc 1 251 1 is_stmt 0
 1158 0684 13D5C700 		srli	a0,a5,12
 1159              	.LVL109:
 1160 0688 03348100 		ld	s0,8(sp)
 1161              		.cfi_restore 8
 1162              		.cfi_def_cfa 2, 16
 1163 068c 13010101 		addi	sp,sp,16
 1164              		.cfi_def_cfa_offset 0
GAS LISTING /tmp/ccDSSFbw.s 			page 26


 1165 0690 67800000 		jr	ra
 1166              		.cfi_endproc
 1167              	.LFE21:
 1169              		.align	2
 1170              		.globl	_Z8findSlabP12kmem_cache_sPKv
 1172              	_Z8findSlabP12kmem_cache_sPKv:
 1173              	.LFB22:
 252:src/slabAllocator.cpp **** /*slab_t* findObject(slab_t** slab)
 253:src/slabAllocator.cpp **** {
 254:src/slabAllocator.cpp ****     slab_t* curr = *slab;
 255:src/slabAllocator.cpp ****     while(curr != nullptr)
 256:src/slabAllocator.cpp ****     {
 257:src/slabAllocator.cpp **** 
 258:src/slabAllocator.cpp ****     }
 259:src/slabAllocator.cpp **** 
 260:src/slabAllocator.cpp ****     return nullptr;
 261:src/slabAllocator.cpp **** }*/
 262:src/slabAllocator.cpp **** 
 263:src/slabAllocator.cpp **** //finds the slab where objp is
 264:src/slabAllocator.cpp **** slab_t* findSlab(kmem_cache_t* cachep, const void* objp)
 265:src/slabAllocator.cpp **** {
 1174              		.loc 1 265 1 is_stmt 1
 1175              		.cfi_startproc
 1176              	.LVL110:
 1177 0694 130101FF 		addi	sp,sp,-16
 1178              		.cfi_def_cfa_offset 16
 1179 0698 23348100 		sd	s0,8(sp)
 1180              		.cfi_offset 8, -8
 1181 069c 13040101 		addi	s0,sp,16
 1182              		.cfi_def_cfa 8, 0
 1183 06a0 93060500 		mv	a3,a0
 266:src/slabAllocator.cpp ****     if(cachep == nullptr || objp == nullptr)
 1184              		.loc 1 266 5
 1185 06a4 630C0502 		beqz	a0,.L68
 1186              		.loc 1 266 26 is_stmt 0 discriminator 1
 1187 06a8 638A0506 		beqz	a1,.L76
 267:src/slabAllocator.cpp ****         return nullptr;
 268:src/slabAllocator.cpp ****     slab_t* slab = cachep->slabs_full;
 1188              		.loc 1 268 5 is_stmt 1
 1189              		.loc 1 268 13 is_stmt 0
 1190 06ac 03358504 		ld	a0,72(a0)
 1191              	.LVL111:
 1192 06b0 6F008000 		j	.L72
 1193              	.LVL112:
 1194              	.L71:
 1195              	.LBB10:
 269:src/slabAllocator.cpp ****     while(slab != nullptr)
 270:src/slabAllocator.cpp ****     {
 271:src/slabAllocator.cpp ****         size_t endAddr = (size_t)slab + sizeof(slab_t) + slab->numOfObjects*slab->owner->obj_size;
 272:src/slabAllocator.cpp ****         if((size_t)objp > (size_t)slab && (size_t)objp < endAddr)
 273:src/slabAllocator.cpp ****             return slab;
 274:src/slabAllocator.cpp ****         slab = slab->next;
 1196              		.loc 1 274 9 is_stmt 1
 1197              		.loc 1 274 14 is_stmt 0
 1198 06b4 03358500 		ld	a0,8(a0)
 1199              	.LVL113:
 1200              	.L72:
GAS LISTING /tmp/ccDSSFbw.s 			page 27


 1201              	.LBE10:
 269:src/slabAllocator.cpp ****     while(slab != nullptr)
 1202              		.loc 1 269 5 is_stmt 1
 269:src/slabAllocator.cpp ****     while(slab != nullptr)
 1203              		.loc 1 269 16
 1204 06b8 63080502 		beqz	a0,.L70
 1205              	.LBB11:
 271:src/slabAllocator.cpp ****         if((size_t)objp > (size_t)slab && (size_t)objp < endAddr)
 1206              		.loc 1 271 9
 271:src/slabAllocator.cpp ****         if((size_t)objp > (size_t)slab && (size_t)objp < endAddr)
 1207              		.loc 1 271 64 is_stmt 0
 1208 06bc 83378501 		ld	a5,24(a0)
 271:src/slabAllocator.cpp ****         if((size_t)objp > (size_t)slab && (size_t)objp < endAddr)
 1209              		.loc 1 271 83
 1210 06c0 03370501 		ld	a4,16(a0)
 271:src/slabAllocator.cpp ****         if((size_t)objp > (size_t)slab && (size_t)objp < endAddr)
 1211              		.loc 1 271 90
 1212 06c4 03370706 		ld	a4,96(a4)
 271:src/slabAllocator.cpp ****         if((size_t)objp > (size_t)slab && (size_t)objp < endAddr)
 1213              		.loc 1 271 76
 1214 06c8 B387E702 		mul	a5,a5,a4
 271:src/slabAllocator.cpp ****         if((size_t)objp > (size_t)slab && (size_t)objp < endAddr)
 1215              		.loc 1 271 56
 1216 06cc B387A700 		add	a5,a5,a0
 271:src/slabAllocator.cpp ****         if((size_t)objp > (size_t)slab && (size_t)objp < endAddr)
 1217              		.loc 1 271 16
 1218 06d0 93878704 		addi	a5,a5,72
 1219              	.LVL114:
 272:src/slabAllocator.cpp ****             return slab;
 1220              		.loc 1 272 9 is_stmt 1
 1221 06d4 E370B5FE 		bgeu	a0,a1,.L71
 272:src/slabAllocator.cpp ****             return slab;
 1222              		.loc 1 272 40 is_stmt 0 discriminator 1
 1223 06d8 E3FEF5FC 		bgeu	a1,a5,.L71
 1224              	.LVL115:
 1225              	.L68:
 1226              	.LBE11:
 275:src/slabAllocator.cpp ****     }
 276:src/slabAllocator.cpp **** 
 277:src/slabAllocator.cpp ****     slab = cachep->slabs_partial;
 278:src/slabAllocator.cpp ****     while(slab != nullptr)
 279:src/slabAllocator.cpp ****     {
 280:src/slabAllocator.cpp ****         size_t endAddr = (size_t)slab + sizeof(slab_t) + slab->numOfObjects*slab->owner->obj_size;
 281:src/slabAllocator.cpp ****         if((size_t)objp > (size_t)slab && (size_t)objp < endAddr)
 282:src/slabAllocator.cpp ****             return slab;
 283:src/slabAllocator.cpp ****         slab = slab->next;
 284:src/slabAllocator.cpp ****     }
 285:src/slabAllocator.cpp **** 
 286:src/slabAllocator.cpp ****     return nullptr;
 287:src/slabAllocator.cpp **** }
 1227              		.loc 1 287 1
 1228 06dc 03348100 		ld	s0,8(sp)
 1229              		.cfi_remember_state
 1230              		.cfi_restore 8
 1231              		.cfi_def_cfa 2, 16
 1232 06e0 13010101 		addi	sp,sp,16
 1233              		.cfi_def_cfa_offset 0
GAS LISTING /tmp/ccDSSFbw.s 			page 28


 1234 06e4 67800000 		jr	ra
 1235              	.LVL116:
 1236              	.L70:
 1237              		.cfi_restore_state
 277:src/slabAllocator.cpp ****     while(slab != nullptr)
 1238              		.loc 1 277 5 is_stmt 1
 277:src/slabAllocator.cpp ****     while(slab != nullptr)
 1239              		.loc 1 277 10 is_stmt 0
 1240 06e8 03B50605 		ld	a0,80(a3)
 1241              	.LVL117:
 1242 06ec 6F008000 		j	.L74
 1243              	.LVL118:
 1244              	.L73:
 1245              	.LBB12:
 283:src/slabAllocator.cpp ****     }
 1246              		.loc 1 283 9 is_stmt 1
 283:src/slabAllocator.cpp ****     }
 1247              		.loc 1 283 14 is_stmt 0
 1248 06f0 03358500 		ld	a0,8(a0)
 1249              	.LVL119:
 1250              	.L74:
 1251              	.LBE12:
 278:src/slabAllocator.cpp ****     {
 1252              		.loc 1 278 5 is_stmt 1
 278:src/slabAllocator.cpp ****     {
 1253              		.loc 1 278 16
 1254 06f4 E30405FE 		beqz	a0,.L68
 1255              	.LBB13:
 280:src/slabAllocator.cpp ****         if((size_t)objp > (size_t)slab && (size_t)objp < endAddr)
 1256              		.loc 1 280 9
 280:src/slabAllocator.cpp ****         if((size_t)objp > (size_t)slab && (size_t)objp < endAddr)
 1257              		.loc 1 280 64 is_stmt 0
 1258 06f8 83378501 		ld	a5,24(a0)
 280:src/slabAllocator.cpp ****         if((size_t)objp > (size_t)slab && (size_t)objp < endAddr)
 1259              		.loc 1 280 83
 1260 06fc 03370501 		ld	a4,16(a0)
 280:src/slabAllocator.cpp ****         if((size_t)objp > (size_t)slab && (size_t)objp < endAddr)
 1261              		.loc 1 280 90
 1262 0700 03370706 		ld	a4,96(a4)
 280:src/slabAllocator.cpp ****         if((size_t)objp > (size_t)slab && (size_t)objp < endAddr)
 1263              		.loc 1 280 76
 1264 0704 B387E702 		mul	a5,a5,a4
 280:src/slabAllocator.cpp ****         if((size_t)objp > (size_t)slab && (size_t)objp < endAddr)
 1265              		.loc 1 280 56
 1266 0708 B387A700 		add	a5,a5,a0
 280:src/slabAllocator.cpp ****         if((size_t)objp > (size_t)slab && (size_t)objp < endAddr)
 1267              		.loc 1 280 16
 1268 070c 93878704 		addi	a5,a5,72
 1269              	.LVL120:
 281:src/slabAllocator.cpp ****             return slab;
 1270              		.loc 1 281 9 is_stmt 1
 1271 0710 E370B5FE 		bgeu	a0,a1,.L73
 281:src/slabAllocator.cpp ****             return slab;
 1272              		.loc 1 281 40 is_stmt 0 discriminator 1
 1273 0714 E3FEF5FC 		bgeu	a1,a5,.L73
 1274 0718 6FF05FFC 		j	.L68
 1275              	.LVL121:
GAS LISTING /tmp/ccDSSFbw.s 			page 29


 1276              	.L76:
 1277              	.LBE13:
 267:src/slabAllocator.cpp ****     slab_t* slab = cachep->slabs_full;
 1278              		.loc 1 267 16
 1279 071c 13850500 		mv	a0,a1
 1280              	.LVL122:
 1281 0720 6FF0DFFB 		j	.L68
 1282              		.cfi_endproc
 1283              	.LFE22:
 1285              		.align	2
 1286              		.globl	_Z19resetAllocatedIndexP6slab_si
 1288              	_Z19resetAllocatedIndexP6slab_si:
 1289              	.LFB23:
 288:src/slabAllocator.cpp **** 
 289:src/slabAllocator.cpp **** void resetAllocatedIndex(slab_t* slab, int index)
 290:src/slabAllocator.cpp **** {
 1290              		.loc 1 290 1 is_stmt 1
 1291              		.cfi_startproc
 1292              	.LVL123:
 1293 0724 130101FF 		addi	sp,sp,-16
 1294              		.cfi_def_cfa_offset 16
 1295 0728 23348100 		sd	s0,8(sp)
 1296              		.cfi_offset 8, -8
 1297 072c 13040101 		addi	s0,sp,16
 1298              		.cfi_def_cfa 8, 0
 291:src/slabAllocator.cpp ****     slab->allocated[index / 8]=(uint8)slab->allocated[index/8] & ~(1 << (index%8));
 1299              		.loc 1 291 5
 1300              		.loc 1 291 60 is_stmt 0
 1301 0730 9BD7F541 		sraiw	a5,a1,31
 1302 0734 9BD7D701 		srliw	a5,a5,29
 1303 0738 BB85B700 		addw	a1,a5,a1
 1304              	.LVL124:
 1305 073c 1BD73540 		sraiw	a4,a1,3
 1306              		.loc 1 291 62
 1307 0740 3305E500 		add	a0,a0,a4
 1308              	.LVL125:
 1309              		.loc 1 291 32
 1310 0744 03078502 		lb	a4,40(a0)
 1311              		.loc 1 291 79
 1312 0748 93F57500 		andi	a1,a1,7
 1313 074c BB85F540 		subw	a1,a1,a5
 1314              		.loc 1 291 70
 1315 0750 93071000 		li	a5,1
 1316 0754 BB95B700 		sllw	a1,a5,a1
 1317              		.loc 1 291 64
 1318 0758 93C5F5FF 		not	a1,a1
 1319 075c B375B700 		and	a1,a4,a1
 1320              		.loc 1 291 31
 1321 0760 2304B502 		sb	a1,40(a0)
 292:src/slabAllocator.cpp **** }
 1322              		.loc 1 292 1
 1323 0764 03348100 		ld	s0,8(sp)
 1324              		.cfi_restore 8
 1325              		.cfi_def_cfa 2, 16
 1326 0768 13010101 		addi	sp,sp,16
 1327              		.cfi_def_cfa_offset 0
 1328 076c 67800000 		jr	ra
GAS LISTING /tmp/ccDSSFbw.s 			page 30


 1329              		.cfi_endproc
 1330              	.LFE23:
 1332              		.section	.rodata.str1.8
 1333              		.align	3
 1334              	.LC1:
 1335 0010 4F6E6520 		.string	"One slab info---------\n"
 1335      736C6162 
 1335      20696E66 
 1335      6F2D2D2D 
 1335      2D2D2D2D 
 1336              		.align	3
 1337              	.LC2:
 1338 0028 536C6162 		.string	"Slab address "
 1338      20616464 
 1338      72657373 
 1338      2000
 1339 0036 0000     		.align	3
 1340              	.LC3:
 1341 0038 4E756D62 		.string	"Number of allocated objects "
 1341      6572206F 
 1341      6620616C 
 1341      6C6F6361 
 1341      74656420 
 1342 0055 000000   		.align	3
 1343              	.LC4:
 1344 0058 4E756D62 		.string	"Number of objects "
 1344      6572206F 
 1344      66206F62 
 1344      6A656374 
 1344      732000
 1345 006b 00000000 		.align	3
 1345      00
 1346              	.LC5:
 1347 0070 0A00     		.string	"\n"
 1348              		.text
 1349              		.align	2
 1350              		.globl	_Z13printSlabInfoP6slab_s
 1352              	_Z13printSlabInfoP6slab_s:
 1353              	.LFB24:
 293:src/slabAllocator.cpp **** 
 294:src/slabAllocator.cpp **** void printSlabInfo(slab_t* slab)
 295:src/slabAllocator.cpp **** {
 1354              		.loc 1 295 1 is_stmt 1
 1355              		.cfi_startproc
 1356              	.LVL126:
 1357 0770 130101FE 		addi	sp,sp,-32
 1358              		.cfi_def_cfa_offset 32
 1359 0774 233C1100 		sd	ra,24(sp)
 1360 0778 23388100 		sd	s0,16(sp)
 1361 077c 23349100 		sd	s1,8(sp)
 1362 0780 23302101 		sd	s2,0(sp)
 1363              		.cfi_offset 1, -8
 1364              		.cfi_offset 8, -16
 1365              		.cfi_offset 9, -24
 1366              		.cfi_offset 18, -32
 1367 0784 13040102 		addi	s0,sp,32
 1368              		.cfi_def_cfa 8, 0
GAS LISTING /tmp/ccDSSFbw.s 			page 31


 1369 0788 13090500 		mv	s2,a0
 296:src/slabAllocator.cpp ****     KConsole::trapPrintString("One slab info---------\n");
 1370              		.loc 1 296 5
 1371              		.loc 1 296 30 is_stmt 0
 1372 078c 17050000 		lla	a0,.LC1
 1372      13050500 
 1373              	.LVL127:
 1374 0794 97000000 		call	_ZN8KConsole15trapPrintStringEPKc@plt
 1374      E7800000 
 1375              	.LVL128:
 297:src/slabAllocator.cpp ****     KConsole::trapPrintStringInt("Slab address ",(size_t)slab,16);
 1376              		.loc 1 297 5 is_stmt 1
 1377              		.loc 1 297 33 is_stmt 0
 1378 079c 13060001 		li	a2,16
 1379 07a0 93050900 		mv	a1,s2
 1380 07a4 17050000 		lla	a0,.LC2
 1380      13050500 
 1381 07ac 97000000 		call	_ZN8KConsole18trapPrintStringIntEPKcmi@plt
 1381      E7800000 
 1382              	.LVL129:
 298:src/slabAllocator.cpp ****     KConsole::trapPrintStringInt("Number of allocated objects ",slab->numOfAllocatedObjects);
 1383              		.loc 1 298 5 is_stmt 1
 1384              		.loc 1 298 33 is_stmt 0
 1385 07b4 1306A000 		li	a2,10
 1386 07b8 83350902 		ld	a1,32(s2)
 1387 07bc 17050000 		lla	a0,.LC3
 1387      13050500 
 1388 07c4 97000000 		call	_ZN8KConsole18trapPrintStringIntEPKcmi@plt
 1388      E7800000 
 1389              	.LVL130:
 299:src/slabAllocator.cpp ****     KConsole::trapPrintStringInt("Number of objects ", slab->numOfObjects);
 1390              		.loc 1 299 5 is_stmt 1
 1391              		.loc 1 299 33 is_stmt 0
 1392 07cc 1306A000 		li	a2,10
 1393 07d0 83358901 		ld	a1,24(s2)
 1394 07d4 17050000 		lla	a0,.LC4
 1394      13050500 
 1395 07dc 97000000 		call	_ZN8KConsole18trapPrintStringIntEPKcmi@plt
 1395      E7800000 
 1396              	.LVL131:
 300:src/slabAllocator.cpp ****     for(size_t i = 0;i < (slab->numOfObjects + 7) / 8;i++)
 1397              		.loc 1 300 5 is_stmt 1
 1398              	.LBB14:
 1399              		.loc 1 300 16 is_stmt 0
 1400 07e4 93040000 		li	s1,0
 1401              	.LVL132:
 1402              	.L82:
 1403              		.loc 1 300 24 is_stmt 1 discriminator 3
 1404              		.loc 1 300 33 is_stmt 0 discriminator 3
 1405 07e8 83378901 		ld	a5,24(s2)
 1406              		.loc 1 300 46 discriminator 3
 1407 07ec 93877700 		addi	a5,a5,7
 1408              		.loc 1 300 51 discriminator 3
 1409 07f0 93D73700 		srli	a5,a5,3
 1410              		.loc 1 300 24 discriminator 3
 1411 07f4 63FAF402 		bleu	a5,s1,.L80
 301:src/slabAllocator.cpp ****     {
GAS LISTING /tmp/ccDSSFbw.s 			page 32


 302:src/slabAllocator.cpp ****         KConsole::trapPrintInt((size_t)slab->allocated[i], 16);
 1412              		.loc 1 302 9 is_stmt 1 discriminator 2
 1413              		.loc 1 302 57 is_stmt 0 discriminator 2
 1414 07f8 B3079900 		add	a5,s2,s1
 1415              		.loc 1 302 31 discriminator 2
 1416 07fc 13060000 		li	a2,0
 1417 0800 93050001 		li	a1,16
 1418 0804 03C58702 		lbu	a0,40(a5)
 1419 0808 97000000 		call	_ZN8KConsole12trapPrintIntEmii@plt
 1419      E7800000 
 1420              	.LVL133:
 303:src/slabAllocator.cpp ****         KConsole::trapPrintString("\n");
 1421              		.loc 1 303 9 is_stmt 1 discriminator 2
 1422              		.loc 1 303 34 is_stmt 0 discriminator 2
 1423 0810 17050000 		lla	a0,.LC5
 1423      13050500 
 1424 0818 97000000 		call	_ZN8KConsole15trapPrintStringEPKc@plt
 1424      E7800000 
 1425              	.LVL134:
 300:src/slabAllocator.cpp ****     for(size_t i = 0;i < (slab->numOfObjects + 7) / 8;i++)
 1426              		.loc 1 300 5 is_stmt 1 discriminator 2
 1427 0820 93841400 		addi	s1,s1,1
 1428              	.LVL135:
 1429 0824 6FF05FFC 		j	.L82
 1430              	.L80:
 1431              	.LBE14:
 304:src/slabAllocator.cpp ****     }
 305:src/slabAllocator.cpp **** }
 1432              		.loc 1 305 1 is_stmt 0
 1433 0828 83308101 		ld	ra,24(sp)
 1434              		.cfi_restore 1
 1435 082c 03340101 		ld	s0,16(sp)
 1436              		.cfi_restore 8
 1437              		.cfi_def_cfa 2, 32
 1438 0830 83348100 		ld	s1,8(sp)
 1439              		.cfi_restore 9
 1440              	.LVL136:
 1441 0834 03390100 		ld	s2,0(sp)
 1442              		.cfi_restore 18
 1443              	.LVL137:
 1444 0838 13010102 		addi	sp,sp,32
 1445              		.cfi_def_cfa_offset 0
 1446 083c 67800000 		jr	ra
 1447              		.cfi_endproc
 1448              	.LFE24:
 1450              		.align	2
 1451              		.globl	_Z16free_slab_objectP6slab_sPKv
 1453              	_Z16free_slab_objectP6slab_sPKv:
 1454              	.LFB25:
 306:src/slabAllocator.cpp **** 
 307:src/slabAllocator.cpp **** void free_slab_object(slab_t* slab, const void* objp)
 308:src/slabAllocator.cpp **** {
 1455              		.loc 1 308 1 is_stmt 1
 1456              		.cfi_startproc
 1457              	.LVL138:
 309:src/slabAllocator.cpp ****     if(slab == nullptr || objp == nullptr)
 1458              		.loc 1 309 5
GAS LISTING /tmp/ccDSSFbw.s 			page 33


 1459 0840 63020510 		beqz	a0,.L89
 308:src/slabAllocator.cpp ****     if(slab == nullptr || objp == nullptr)
 1460              		.loc 1 308 1 is_stmt 0 discriminator 1
 1461 0844 130101FE 		addi	sp,sp,-32
 1462              		.cfi_def_cfa_offset 32
 1463 0848 233C1100 		sd	ra,24(sp)
 1464 084c 23388100 		sd	s0,16(sp)
 1465 0850 23349100 		sd	s1,8(sp)
 1466 0854 23302101 		sd	s2,0(sp)
 1467              		.cfi_offset 1, -8
 1468              		.cfi_offset 8, -16
 1469              		.cfi_offset 9, -24
 1470              		.cfi_offset 18, -32
 1471 0858 13040102 		addi	s0,sp,32
 1472              		.cfi_def_cfa 8, 0
 1473 085c 93040500 		mv	s1,a0
 1474              		.loc 1 309 24 discriminator 1
 1475 0860 638E0502 		beqz	a1,.L84
 310:src/slabAllocator.cpp ****         return;
 311:src/slabAllocator.cpp ****     int indexOfObject = ((size_t)objp - sizeof(slab_t) - (size_t)slab) / slab->owner->obj_size;
 1476              		.loc 1 311 5 is_stmt 1
 1477              		.loc 1 311 56 is_stmt 0
 1478 0864 3389A540 		sub	s2,a1,a0
 1479 0868 130989FB 		addi	s2,s2,-72
 1480              		.loc 1 311 80
 1481 086c 83370501 		ld	a5,16(a0)
 1482              		.loc 1 311 87
 1483 0870 83B70706 		ld	a5,96(a5)
 1484              		.loc 1 311 72
 1485 0874 3359F902 		divu	s2,s2,a5
 1486              		.loc 1 311 9
 1487 0878 1B090900 		sext.w	s2,s2
 1488              	.LVL139:
 312:src/slabAllocator.cpp ****     if((size_t)objp != (size_t)slab + sizeof(slab_t) + indexOfObject*slab->owner->obj_size) //addre
 1489              		.loc 1 312 5 is_stmt 1
 1490              		.loc 1 312 69 is_stmt 0
 1491 087c B3872703 		mul	a5,a5,s2
 1492              		.loc 1 312 54
 1493 0880 B307F500 		add	a5,a0,a5
 1494 0884 93878704 		addi	a5,a5,72
 1495              		.loc 1 312 5
 1496 0888 639AF500 		bne	a1,a5,.L84
 313:src/slabAllocator.cpp ****         return;
 314:src/slabAllocator.cpp **** 
 315:src/slabAllocator.cpp ****     if(!checkSetIndex(slab, indexOfObject))
 1497              		.loc 1 315 5 is_stmt 1
 1498              		.loc 1 315 22 is_stmt 0
 1499 088c 93050900 		mv	a1,s2
 1500              	.LVL140:
 1501 0890 97000000 		call	_Z13checkSetIndexP6slab_si
 1501      E7800000 
 1502              	.LVL141:
 1503              		.loc 1 315 5
 1504 0898 631E0500 		bnez	a0,.L92
 1505              	.LVL142:
 1506              	.L84:
 316:src/slabAllocator.cpp ****         return;
GAS LISTING /tmp/ccDSSFbw.s 			page 34


 317:src/slabAllocator.cpp **** 
 318:src/slabAllocator.cpp ****     resetAllocatedIndex(slab, indexOfObject);
 319:src/slabAllocator.cpp ****     if(slab->numOfObjects == slab->numOfAllocatedObjects)
 320:src/slabAllocator.cpp ****     {
 321:src/slabAllocator.cpp ****         removeFullSlab(slab->owner, slab);
 322:src/slabAllocator.cpp ****         slab->numOfAllocatedObjects--;
 323:src/slabAllocator.cpp ****         if(empty(slab))
 324:src/slabAllocator.cpp ****             removePartialSlab(slab->owner, slab);
 325:src/slabAllocator.cpp ****     }
 326:src/slabAllocator.cpp ****     else if(slab->numOfAllocatedObjects == 1)
 327:src/slabAllocator.cpp ****     {
 328:src/slabAllocator.cpp ****         removePartialSlab(slab->owner, slab);
 329:src/slabAllocator.cpp ****         slab->numOfAllocatedObjects--;
 330:src/slabAllocator.cpp ****     }
 331:src/slabAllocator.cpp ****     else
 332:src/slabAllocator.cpp ****         slab->numOfAllocatedObjects--;
 333:src/slabAllocator.cpp **** }
 1507              		.loc 1 333 1
 1508 089c 83308101 		ld	ra,24(sp)
 1509              		.cfi_remember_state
 1510              		.cfi_restore 1
 1511 08a0 03340101 		ld	s0,16(sp)
 1512              		.cfi_restore 8
 1513              		.cfi_def_cfa 2, 32
 1514 08a4 83348100 		ld	s1,8(sp)
 1515              		.cfi_restore 9
 1516              	.LVL143:
 1517 08a8 03390100 		ld	s2,0(sp)
 1518              		.cfi_restore 18
 1519 08ac 13010102 		addi	sp,sp,32
 1520              		.cfi_def_cfa_offset 0
 1521 08b0 67800000 		jr	ra
 1522              	.LVL144:
 1523              	.L92:
 1524              		.cfi_restore_state
 318:src/slabAllocator.cpp ****     if(slab->numOfObjects == slab->numOfAllocatedObjects)
 1525              		.loc 1 318 5 is_stmt 1
 318:src/slabAllocator.cpp ****     if(slab->numOfObjects == slab->numOfAllocatedObjects)
 1526              		.loc 1 318 24 is_stmt 0
 1527 08b4 93050900 		mv	a1,s2
 1528 08b8 13850400 		mv	a0,s1
 1529 08bc 97000000 		call	_Z19resetAllocatedIndexP6slab_si
 1529      E7800000 
 1530              	.LVL145:
 319:src/slabAllocator.cpp ****     {
 1531              		.loc 1 319 5 is_stmt 1
 319:src/slabAllocator.cpp ****     {
 1532              		.loc 1 319 14 is_stmt 0
 1533 08c4 03B78401 		ld	a4,24(s1)
 319:src/slabAllocator.cpp ****     {
 1534              		.loc 1 319 36
 1535 08c8 83B70402 		ld	a5,32(s1)
 319:src/slabAllocator.cpp ****     {
 1536              		.loc 1 319 5
 1537 08cc 630CF700 		beq	a4,a5,.L93
 326:src/slabAllocator.cpp ****     {
 1538              		.loc 1 326 10 is_stmt 1
GAS LISTING /tmp/ccDSSFbw.s 			page 35


 1539 08d0 13071000 		li	a4,1
 1540 08d4 6388E704 		beq	a5,a4,.L94
 332:src/slabAllocator.cpp **** }
 1541              		.loc 1 332 9
 332:src/slabAllocator.cpp **** }
 1542              		.loc 1 332 36 is_stmt 0
 1543 08d8 9387F7FF 		addi	a5,a5,-1
 1544 08dc 23B0F402 		sd	a5,32(s1)
 1545 08e0 6FF0DFFB 		j	.L84
 1546              	.L93:
 321:src/slabAllocator.cpp ****         slab->numOfAllocatedObjects--;
 1547              		.loc 1 321 9 is_stmt 1
 321:src/slabAllocator.cpp ****         slab->numOfAllocatedObjects--;
 1548              		.loc 1 321 23 is_stmt 0
 1549 08e4 93850400 		mv	a1,s1
 1550 08e8 03B50401 		ld	a0,16(s1)
 1551 08ec 97000000 		call	_Z14removeFullSlabP12kmem_cache_sP6slab_s
 1551      E7800000 
 1552              	.LVL146:
 322:src/slabAllocator.cpp ****         if(empty(slab))
 1553              		.loc 1 322 9 is_stmt 1
 322:src/slabAllocator.cpp ****         if(empty(slab))
 1554              		.loc 1 322 15 is_stmt 0
 1555 08f4 83B70402 		ld	a5,32(s1)
 322:src/slabAllocator.cpp ****         if(empty(slab))
 1556              		.loc 1 322 36
 1557 08f8 9387F7FF 		addi	a5,a5,-1
 1558 08fc 23B0F402 		sd	a5,32(s1)
 323:src/slabAllocator.cpp ****             removePartialSlab(slab->owner, slab);
 1559              		.loc 1 323 9 is_stmt 1
 323:src/slabAllocator.cpp ****             removePartialSlab(slab->owner, slab);
 1560              		.loc 1 323 17 is_stmt 0
 1561 0900 13850400 		mv	a0,s1
 1562 0904 97000000 		call	_Z5emptyP6slab_s
 1562      E7800000 
 1563              	.LVL147:
 323:src/slabAllocator.cpp ****             removePartialSlab(slab->owner, slab);
 1564              		.loc 1 323 9
 1565 090c E30805F8 		beqz	a0,.L84
 324:src/slabAllocator.cpp ****     }
 1566              		.loc 1 324 13 is_stmt 1
 324:src/slabAllocator.cpp ****     }
 1567              		.loc 1 324 30 is_stmt 0
 1568 0910 93850400 		mv	a1,s1
 1569 0914 03B50401 		ld	a0,16(s1)
 1570 0918 97000000 		call	_Z17removePartialSlabP12kmem_cache_sP6slab_s
 1570      E7800000 
 1571              	.LVL148:
 1572 0920 6FF0DFF7 		j	.L84
 1573              	.L94:
 328:src/slabAllocator.cpp ****         slab->numOfAllocatedObjects--;
 1574              		.loc 1 328 9 is_stmt 1
 328:src/slabAllocator.cpp ****         slab->numOfAllocatedObjects--;
 1575              		.loc 1 328 26 is_stmt 0
 1576 0924 93850400 		mv	a1,s1
 1577 0928 03B50401 		ld	a0,16(s1)
 1578 092c 97000000 		call	_Z17removePartialSlabP12kmem_cache_sP6slab_s
GAS LISTING /tmp/ccDSSFbw.s 			page 36


 1578      E7800000 
 1579              	.LVL149:
 329:src/slabAllocator.cpp ****     }
 1580              		.loc 1 329 9 is_stmt 1
 329:src/slabAllocator.cpp ****     }
 1581              		.loc 1 329 15 is_stmt 0
 1582 0934 83B70402 		ld	a5,32(s1)
 329:src/slabAllocator.cpp ****     }
 1583              		.loc 1 329 36
 1584 0938 9387F7FF 		addi	a5,a5,-1
 1585 093c 23B0F402 		sd	a5,32(s1)
 1586 0940 6FF0DFF5 		j	.L84
 1587              	.LVL150:
 1588              	.L89:
 1589              		.cfi_def_cfa_register 2
 1590              		.cfi_restore 1
 1591              		.cfi_restore 8
 1592              		.cfi_restore 9
 1593              		.cfi_restore 18
 1594 0944 67800000 		ret
 1595              		.cfi_endproc
 1596              	.LFE25:
 1598              		.align	2
 1599              		.globl	_Z9kmem_initPvi
 1601              	_Z9kmem_initPvi:
 1602              	.LFB27:
 334:src/slabAllocator.cpp **** 
 335:src/slabAllocator.cpp **** void printSlabAllocatorInfo()
 336:src/slabAllocator.cpp **** {
 337:src/slabAllocator.cpp ****     KConsole::trapPrintString("Slab allocator info-------------------------------------------------
 338:src/slabAllocator.cpp ****     KConsole::trapPrintStringInt("Slab allocator buddy address ", (size_t)slabAllocator->buddy,16);
 339:src/slabAllocator.cpp ****     KConsole::trapPrintStringInt("Slab allocator address ", (size_t)slabAllocator, 16);
 340:src/slabAllocator.cpp ****     KConsole::trapPrintString("Cache of caches info\n");
 341:src/slabAllocator.cpp ****     kmem_cache_info(&slabAllocator->cacheOfCaches);
 342:src/slabAllocator.cpp ****     KConsole::trapPrintString("Caches for buffers\n");
 343:src/slabAllocator.cpp ****     for(size_t i = 0;i < CACHE_BUFFER_SIZE;i++)
 344:src/slabAllocator.cpp ****     {
 345:src/slabAllocator.cpp ****         if(slabAllocator->cachesBuffers[i] != nullptr)
 346:src/slabAllocator.cpp ****         {
 347:src/slabAllocator.cpp ****             kmem_cache_info(slabAllocator->cachesBuffers[i]);
 348:src/slabAllocator.cpp ****         }
 349:src/slabAllocator.cpp ****     }
 350:src/slabAllocator.cpp **** }
 351:src/slabAllocator.cpp **** 
 352:src/slabAllocator.cpp **** //slab allocator public interface------------------------------------------------------------------
 353:src/slabAllocator.cpp **** void kmem_init(void *space, int block_num)
 354:src/slabAllocator.cpp **** {
 1603              		.loc 1 354 1 is_stmt 1
 1604              		.cfi_startproc
 1605              	.LVL151:
 1606 0948 130101FF 		addi	sp,sp,-16
 1607              		.cfi_def_cfa_offset 16
 1608 094c 23341100 		sd	ra,8(sp)
 1609 0950 23308100 		sd	s0,0(sp)
 1610              		.cfi_offset 1, -8
 1611              		.cfi_offset 8, -16
 1612 0954 13040101 		addi	s0,sp,16
GAS LISTING /tmp/ccDSSFbw.s 			page 37


 1613              		.cfi_def_cfa 8, 0
 355:src/slabAllocator.cpp ****     buddyAllocator* buddy = buddy_init(space, block_num);
 1614              		.loc 1 355 5
 1615              		.loc 1 355 39 is_stmt 0
 1616 0958 97000000 		call	_Z10buddy_initPvm@plt
 1616      E7800000 
 1617              	.LVL152:
 356:src/slabAllocator.cpp ****     slabAllocator = slab_allocator_init(buddy);
 1618              		.loc 1 356 5 is_stmt 1
 1619              		.loc 1 356 40 is_stmt 0
 1620 0960 97000000 		call	_Z19slab_allocator_initP14buddyAllocator
 1620      E7800000 
 1621              	.LVL153:
 1622              		.loc 1 356 19
 1623 0968 97070000 		sd	a0,.LANCHOR0,a5
 1623      23B0A700 
 357:src/slabAllocator.cpp ****     //printSlabAllocatorInfo();
 358:src/slabAllocator.cpp **** }
 1624              		.loc 1 358 1
 1625 0970 83308100 		ld	ra,8(sp)
 1626              		.cfi_restore 1
 1627 0974 03340100 		ld	s0,0(sp)
 1628              		.cfi_restore 8
 1629              		.cfi_def_cfa 2, 16
 1630 0978 13010101 		addi	sp,sp,16
 1631              		.cfi_def_cfa_offset 0
 1632 097c 67800000 		jr	ra
 1633              		.cfi_endproc
 1634              	.LFE27:
 1636              		.align	2
 1637              		.globl	_Z16kmem_cache_allocP12kmem_cache_s
 1639              	_Z16kmem_cache_allocP12kmem_cache_s:
 1640              	.LFB29:
 359:src/slabAllocator.cpp **** 
 360:src/slabAllocator.cpp **** //TODO
 361:src/slabAllocator.cpp **** //protect everything from nullptrs
 362:src/slabAllocator.cpp **** //potentially add functions to set parameters of cache
 363:src/slabAllocator.cpp **** kmem_cache_t *kmem_cache_create(const char *name, size_t size,
 364:src/slabAllocator.cpp ****                                 void (*ctor)(void *),
 365:src/slabAllocator.cpp ****                                 void (*dtor)(void *))
 366:src/slabAllocator.cpp **** {
 367:src/slabAllocator.cpp ****     kmem_cache_t* newCache = (kmem_cache_t*)kmem_cache_alloc(&slabAllocator->cacheOfCaches);
 368:src/slabAllocator.cpp ****     if(newCache == nullptr)
 369:src/slabAllocator.cpp ****         return nullptr;
 370:src/slabAllocator.cpp ****     init_cache(newCache, name, getOptimalSlabSize(size), size, ctor,dtor);
 371:src/slabAllocator.cpp ****     return newCache;
 372:src/slabAllocator.cpp **** }
 373:src/slabAllocator.cpp **** 
 374:src/slabAllocator.cpp **** void *kmem_cache_alloc(kmem_cache_t *cachep)
 375:src/slabAllocator.cpp **** {
 1641              		.loc 1 375 1 is_stmt 1
 1642              		.cfi_startproc
 1643              	.LVL154:
 1644 0980 130101FE 		addi	sp,sp,-32
 1645              		.cfi_def_cfa_offset 32
 1646 0984 233C1100 		sd	ra,24(sp)
 1647 0988 23388100 		sd	s0,16(sp)
GAS LISTING /tmp/ccDSSFbw.s 			page 38


 1648 098c 23349100 		sd	s1,8(sp)
 1649 0990 23302101 		sd	s2,0(sp)
 1650              		.cfi_offset 1, -8
 1651              		.cfi_offset 8, -16
 1652              		.cfi_offset 9, -24
 1653              		.cfi_offset 18, -32
 1654 0994 13040102 		addi	s0,sp,32
 1655              		.cfi_def_cfa 8, 0
 1656 0998 93040500 		mv	s1,a0
 376:src/slabAllocator.cpp ****     if(cachep == nullptr)
 1657              		.loc 1 376 5
 1658 099c 630A0510 		beqz	a0,.L105
 377:src/slabAllocator.cpp ****         return nullptr;
 378:src/slabAllocator.cpp **** 
 379:src/slabAllocator.cpp ****     if(cachep->slabs_partial != nullptr)
 1659              		.loc 1 379 5
 1660              	.LBB15:
 1661              		.loc 1 379 16 is_stmt 0
 1662 09a0 03350505 		ld	a0,80(a0)
 1663              	.LVL155:
 1664              		.loc 1 379 5
 1665 09a4 631A0504 		bnez	a0,.L107
 1666              	.LBE15:
 380:src/slabAllocator.cpp ****     {
 381:src/slabAllocator.cpp ****         void* allocatedAddr = allocateObject(cachep->slabs_partial);
 382:src/slabAllocator.cpp ****         if(full(cachep->slabs_partial))
 383:src/slabAllocator.cpp ****             putPartialToFull(cachep);
 384:src/slabAllocator.cpp ****         return allocatedAddr;
 385:src/slabAllocator.cpp ****     }
 386:src/slabAllocator.cpp ****     else if(cachep->slabs_empty != nullptr)
 1667              		.loc 1 386 10 is_stmt 1
 1668              	.LBB22:
 1669              	.LBB16:
 1670              		.loc 1 386 21 is_stmt 0
 1671 09a8 03B50404 		ld	a0,64(s1)
 1672              		.loc 1 386 10
 1673 09ac 630A0508 		beqz	a0,.L101
 1674              	.LBB17:
 387:src/slabAllocator.cpp ****     {
 388:src/slabAllocator.cpp ****         void* allocatedAddr = allocateObject(cachep->slabs_empty);
 1675              		.loc 1 388 9 is_stmt 1
 1676              		.loc 1 388 45 is_stmt 0
 1677 09b0 97000000 		call	_Z14allocateObjectP6slab_s
 1677      E7800000 
 1678              	.LVL156:
 1679 09b8 13090500 		mv	s2,a0
 1680              	.LVL157:
 389:src/slabAllocator.cpp ****         if(!empty(cachep->slabs_empty))
 1681              		.loc 1 389 9 is_stmt 1
 1682              		.loc 1 389 18 is_stmt 0
 1683 09bc 03B50404 		ld	a0,64(s1)
 1684              	.LVL158:
 1685 09c0 97000000 		call	_Z5emptyP6slab_s
 1685      E7800000 
 1686              	.LVL159:
 1687              		.loc 1 389 9
 1688 09c8 63160504 		bnez	a0,.L97
GAS LISTING /tmp/ccDSSFbw.s 			page 39


 390:src/slabAllocator.cpp ****         {
 391:src/slabAllocator.cpp ****             putEmptyToPartial(cachep);
 1689              		.loc 1 391 13 is_stmt 1
 1690              		.loc 1 391 30 is_stmt 0
 1691 09cc 13850400 		mv	a0,s1
 1692 09d0 97000000 		call	_Z17putEmptyToPartialP12kmem_cache_s
 1692      E7800000 
 1693              	.LVL160:
 392:src/slabAllocator.cpp ****             if(full(cachep->slabs_partial))
 1694              		.loc 1 392 13 is_stmt 1
 1695              		.loc 1 392 20 is_stmt 0
 1696 09d8 03B50405 		ld	a0,80(s1)
 1697 09dc 97000000 		call	_Z4fullP6slab_s
 1697      E7800000 
 1698              	.LVL161:
 1699              		.loc 1 392 13
 1700 09e4 63080502 		beqz	a0,.L97
 393:src/slabAllocator.cpp ****                 putPartialToFull(cachep);
 1701              		.loc 1 393 17 is_stmt 1
 1702              		.loc 1 393 33 is_stmt 0
 1703 09e8 13850400 		mv	a0,s1
 1704 09ec 97000000 		call	_Z16putPartialToFullP12kmem_cache_s
 1704      E7800000 
 1705              	.LVL162:
 394:src/slabAllocator.cpp ****         }
 395:src/slabAllocator.cpp ****         return allocatedAddr;
 1706              		.loc 1 395 9 is_stmt 1
 1707              		.loc 1 395 16 is_stmt 0
 1708 09f4 6F000002 		j	.L97
 1709              	.LVL163:
 1710              	.L107:
 1711              	.LBE17:
 1712              	.LBE16:
 1713              	.LBB19:
 381:src/slabAllocator.cpp ****         if(full(cachep->slabs_partial))
 1714              		.loc 1 381 9 is_stmt 1
 381:src/slabAllocator.cpp ****         if(full(cachep->slabs_partial))
 1715              		.loc 1 381 45 is_stmt 0
 1716 09f8 97000000 		call	_Z14allocateObjectP6slab_s
 1716      E7800000 
 1717              	.LVL164:
 1718 0a00 13090500 		mv	s2,a0
 1719              	.LVL165:
 382:src/slabAllocator.cpp ****             putPartialToFull(cachep);
 1720              		.loc 1 382 9 is_stmt 1
 382:src/slabAllocator.cpp ****             putPartialToFull(cachep);
 1721              		.loc 1 382 16 is_stmt 0
 1722 0a04 03B50405 		ld	a0,80(s1)
 1723              	.LVL166:
 1724 0a08 97000000 		call	_Z4fullP6slab_s
 1724      E7800000 
 1725              	.LVL167:
 382:src/slabAllocator.cpp ****             putPartialToFull(cachep);
 1726              		.loc 1 382 9
 1727 0a10 63100502 		bnez	a0,.L108
 1728              	.LVL168:
 1729              	.L97:
GAS LISTING /tmp/ccDSSFbw.s 			page 40


 1730              	.LBE19:
 1731              	.LBE22:
 396:src/slabAllocator.cpp ****     }
 397:src/slabAllocator.cpp ****     else
 398:src/slabAllocator.cpp ****     {
 399:src/slabAllocator.cpp ****         allocateSlab(cachep);
 400:src/slabAllocator.cpp ****         if(cachep->slabs_empty == nullptr)
 401:src/slabAllocator.cpp ****         {
 402:src/slabAllocator.cpp ****             cachep->errors|=EXPAND_ERROR;
 403:src/slabAllocator.cpp ****             return nullptr;
 404:src/slabAllocator.cpp ****         }
 405:src/slabAllocator.cpp ****         void* allocatedAddr = allocateObject(cachep->slabs_empty);
 406:src/slabAllocator.cpp ****         if(!empty(cachep->slabs_empty))
 407:src/slabAllocator.cpp ****         {
 408:src/slabAllocator.cpp ****             putEmptyToPartial(cachep);
 409:src/slabAllocator.cpp ****             if(full(cachep->slabs_partial))
 410:src/slabAllocator.cpp ****                 putPartialToFull(cachep);
 411:src/slabAllocator.cpp ****         }
 412:src/slabAllocator.cpp ****         return allocatedAddr;
 413:src/slabAllocator.cpp ****     }
 414:src/slabAllocator.cpp ****     return nullptr;
 415:src/slabAllocator.cpp **** }
 1732              		.loc 1 415 1
 1733 0a14 13050900 		mv	a0,s2
 1734 0a18 83308101 		ld	ra,24(sp)
 1735              		.cfi_remember_state
 1736              		.cfi_restore 1
 1737 0a1c 03340101 		ld	s0,16(sp)
 1738              		.cfi_restore 8
 1739              		.cfi_def_cfa 2, 32
 1740 0a20 83348100 		ld	s1,8(sp)
 1741              		.cfi_restore 9
 1742              	.LVL169:
 1743 0a24 03390100 		ld	s2,0(sp)
 1744              		.cfi_restore 18
 1745 0a28 13010102 		addi	sp,sp,32
 1746              		.cfi_def_cfa_offset 0
 1747 0a2c 67800000 		jr	ra
 1748              	.LVL170:
 1749              	.L108:
 1750              		.cfi_restore_state
 1751              	.LBB23:
 1752              	.LBB20:
 383:src/slabAllocator.cpp ****         return allocatedAddr;
 1753              		.loc 1 383 13 is_stmt 1
 383:src/slabAllocator.cpp ****         return allocatedAddr;
 1754              		.loc 1 383 29 is_stmt 0
 1755 0a30 13850400 		mv	a0,s1
 1756 0a34 97000000 		call	_Z16putPartialToFullP12kmem_cache_s
 1756      E7800000 
 1757              	.LVL171:
 384:src/slabAllocator.cpp ****     }
 1758              		.loc 1 384 9 is_stmt 1
 384:src/slabAllocator.cpp ****     }
 1759              		.loc 1 384 16 is_stmt 0
 1760 0a3c 6FF09FFD 		j	.L97
 1761              	.LVL172:
GAS LISTING /tmp/ccDSSFbw.s 			page 41


 1762              	.L101:
 1763              	.LBE20:
 1764              	.LBB21:
 1765              	.LBB18:
 399:src/slabAllocator.cpp ****         if(cachep->slabs_empty == nullptr)
 1766              		.loc 1 399 9 is_stmt 1
 399:src/slabAllocator.cpp ****         if(cachep->slabs_empty == nullptr)
 1767              		.loc 1 399 21 is_stmt 0
 1768 0a40 13850400 		mv	a0,s1
 1769 0a44 97000000 		call	_Z12allocateSlabP12kmem_cache_s
 1769      E7800000 
 1770              	.LVL173:
 400:src/slabAllocator.cpp ****         {
 1771              		.loc 1 400 9 is_stmt 1
 400:src/slabAllocator.cpp ****         {
 1772              		.loc 1 400 20 is_stmt 0
 1773 0a4c 03B90404 		ld	s2,64(s1)
 400:src/slabAllocator.cpp ****         {
 1774              		.loc 1 400 9
 1775 0a50 63080904 		beqz	s2,.L109
 405:src/slabAllocator.cpp ****         if(!empty(cachep->slabs_empty))
 1776              		.loc 1 405 9 is_stmt 1
 405:src/slabAllocator.cpp ****         if(!empty(cachep->slabs_empty))
 1777              		.loc 1 405 45 is_stmt 0
 1778 0a54 13050900 		mv	a0,s2
 1779 0a58 97000000 		call	_Z14allocateObjectP6slab_s
 1779      E7800000 
 1780              	.LVL174:
 1781 0a60 13090500 		mv	s2,a0
 1782              	.LVL175:
 406:src/slabAllocator.cpp ****         {
 1783              		.loc 1 406 9 is_stmt 1
 406:src/slabAllocator.cpp ****         {
 1784              		.loc 1 406 18 is_stmt 0
 1785 0a64 03B50404 		ld	a0,64(s1)
 1786              	.LVL176:
 1787 0a68 97000000 		call	_Z5emptyP6slab_s
 1787      E7800000 
 1788              	.LVL177:
 406:src/slabAllocator.cpp ****         {
 1789              		.loc 1 406 9
 1790 0a70 E31205FA 		bnez	a0,.L97
 408:src/slabAllocator.cpp ****             if(full(cachep->slabs_partial))
 1791              		.loc 1 408 13 is_stmt 1
 408:src/slabAllocator.cpp ****             if(full(cachep->slabs_partial))
 1792              		.loc 1 408 30 is_stmt 0
 1793 0a74 13850400 		mv	a0,s1
 1794 0a78 97000000 		call	_Z17putEmptyToPartialP12kmem_cache_s
 1794      E7800000 
 1795              	.LVL178:
 409:src/slabAllocator.cpp ****                 putPartialToFull(cachep);
 1796              		.loc 1 409 13 is_stmt 1
 409:src/slabAllocator.cpp ****                 putPartialToFull(cachep);
 1797              		.loc 1 409 20 is_stmt 0
 1798 0a80 03B50405 		ld	a0,80(s1)
 1799 0a84 97000000 		call	_Z4fullP6slab_s
 1799      E7800000 
GAS LISTING /tmp/ccDSSFbw.s 			page 42


 1800              	.LVL179:
 409:src/slabAllocator.cpp ****                 putPartialToFull(cachep);
 1801              		.loc 1 409 13
 1802 0a8c E30405F8 		beqz	a0,.L97
 410:src/slabAllocator.cpp ****         }
 1803              		.loc 1 410 17 is_stmt 1
 410:src/slabAllocator.cpp ****         }
 1804              		.loc 1 410 33 is_stmt 0
 1805 0a90 13850400 		mv	a0,s1
 1806 0a94 97000000 		call	_Z16putPartialToFullP12kmem_cache_s
 1806      E7800000 
 1807              	.LVL180:
 412:src/slabAllocator.cpp ****     }
 1808              		.loc 1 412 9 is_stmt 1
 412:src/slabAllocator.cpp ****     }
 1809              		.loc 1 412 16 is_stmt 0
 1810 0a9c 6FF09FF7 		j	.L97
 1811              	.LVL181:
 1812              	.L109:
 402:src/slabAllocator.cpp ****             return nullptr;
 1813              		.loc 1 402 13 is_stmt 1
 402:src/slabAllocator.cpp ****             return nullptr;
 1814              		.loc 1 402 27 is_stmt 0
 1815 0aa0 83A78407 		lw	a5,120(s1)
 1816 0aa4 93E71700 		ori	a5,a5,1
 1817 0aa8 23ACF406 		sw	a5,120(s1)
 403:src/slabAllocator.cpp ****         }
 1818              		.loc 1 403 13 is_stmt 1
 403:src/slabAllocator.cpp ****         }
 1819              		.loc 1 403 20 is_stmt 0
 1820 0aac 6FF09FF6 		j	.L97
 1821              	.L105:
 1822              	.LBE18:
 1823              	.LBE21:
 1824              	.LBE23:
 377:src/slabAllocator.cpp **** 
 1825              		.loc 1 377 16
 1826 0ab0 13090500 		mv	s2,a0
 1827 0ab4 6FF01FF6 		j	.L97
 1828              		.cfi_endproc
 1829              	.LFE29:
 1831              		.align	2
 1832              		.globl	_Z17kmem_cache_createPKcmPFvPvES3_
 1834              	_Z17kmem_cache_createPKcmPFvPvES3_:
 1835              	.LFB28:
 366:src/slabAllocator.cpp ****     kmem_cache_t* newCache = (kmem_cache_t*)kmem_cache_alloc(&slabAllocator->cacheOfCaches);
 1836              		.loc 1 366 1 is_stmt 1
 1837              		.cfi_startproc
 1838              	.LVL182:
 1839 0ab8 130101FC 		addi	sp,sp,-64
 1840              		.cfi_def_cfa_offset 64
 1841 0abc 233C1102 		sd	ra,56(sp)
 1842 0ac0 23388102 		sd	s0,48(sp)
 1843 0ac4 23349102 		sd	s1,40(sp)
 1844 0ac8 23302103 		sd	s2,32(sp)
 1845 0acc 233C3101 		sd	s3,24(sp)
 1846 0ad0 23384101 		sd	s4,16(sp)
GAS LISTING /tmp/ccDSSFbw.s 			page 43


 1847 0ad4 23345101 		sd	s5,8(sp)
 1848              		.cfi_offset 1, -8
 1849              		.cfi_offset 8, -16
 1850              		.cfi_offset 9, -24
 1851              		.cfi_offset 18, -32
 1852              		.cfi_offset 19, -40
 1853              		.cfi_offset 20, -48
 1854              		.cfi_offset 21, -56
 1855 0ad8 13040104 		addi	s0,sp,64
 1856              		.cfi_def_cfa 8, 0
 1857 0adc 93090500 		mv	s3,a0
 1858 0ae0 13890500 		mv	s2,a1
 1859 0ae4 130A0600 		mv	s4,a2
 1860 0ae8 938A0600 		mv	s5,a3
 367:src/slabAllocator.cpp ****     if(newCache == nullptr)
 1861              		.loc 1 367 5
 367:src/slabAllocator.cpp ****     if(newCache == nullptr)
 1862              		.loc 1 367 61 is_stmt 0
 1863 0aec 17050000 		ld	a0,.LANCHOR0
 1863      03350500 
 1864              	.LVL183:
 1865 0af4 13050507 		addi	a0,a0,112
 1866 0af8 97000000 		call	_Z16kmem_cache_allocP12kmem_cache_s
 1866      E7800000 
 1867              	.LVL184:
 1868 0b00 93040500 		mv	s1,a0
 1869              	.LVL185:
 368:src/slabAllocator.cpp ****         return nullptr;
 1870              		.loc 1 368 5 is_stmt 1
 1871 0b04 63080502 		beqz	a0,.L110
 370:src/slabAllocator.cpp ****     return newCache;
 1872              		.loc 1 370 5
 370:src/slabAllocator.cpp ****     return newCache;
 1873              		.loc 1 370 15 is_stmt 0
 1874 0b08 13050900 		mv	a0,s2
 1875 0b0c 97000000 		call	_Z18getOptimalSlabSizem
 1875      E7800000 
 1876              	.LVL186:
 1877 0b14 13060500 		mv	a2,a0
 1878 0b18 93870A00 		mv	a5,s5
 1879 0b1c 13070A00 		mv	a4,s4
 1880 0b20 93060900 		mv	a3,s2
 1881 0b24 93850900 		mv	a1,s3
 1882 0b28 13850400 		mv	a0,s1
 1883 0b2c 97000000 		call	_Z10init_cacheP12kmem_cache_sPKcmmPFvPvES5_
 1883      E7800000 
 1884              	.LVL187:
 371:src/slabAllocator.cpp **** }
 1885              		.loc 1 371 5 is_stmt 1
 1886              	.L110:
 372:src/slabAllocator.cpp **** 
 1887              		.loc 1 372 1 is_stmt 0
 1888 0b34 13850400 		mv	a0,s1
 1889 0b38 83308103 		ld	ra,56(sp)
 1890              		.cfi_restore 1
 1891 0b3c 03340103 		ld	s0,48(sp)
 1892              		.cfi_restore 8
GAS LISTING /tmp/ccDSSFbw.s 			page 44


 1893              		.cfi_def_cfa 2, 64
 1894 0b40 83348102 		ld	s1,40(sp)
 1895              		.cfi_restore 9
 1896              	.LVL188:
 1897 0b44 03390102 		ld	s2,32(sp)
 1898              		.cfi_restore 18
 1899              	.LVL189:
 1900 0b48 83398101 		ld	s3,24(sp)
 1901              		.cfi_restore 19
 1902              	.LVL190:
 1903 0b4c 033A0101 		ld	s4,16(sp)
 1904              		.cfi_restore 20
 1905              	.LVL191:
 1906 0b50 833A8100 		ld	s5,8(sp)
 1907              		.cfi_restore 21
 1908              	.LVL192:
 1909 0b54 13010104 		addi	sp,sp,64
 1910              		.cfi_def_cfa_offset 0
 1911 0b58 67800000 		jr	ra
 1912              		.cfi_endproc
 1913              	.LFE28:
 1915              		.align	2
 1916              		.globl	_Z15kmem_cache_freeP12kmem_cache_sPv
 1918              	_Z15kmem_cache_freeP12kmem_cache_sPv:
 1919              	.LFB30:
 416:src/slabAllocator.cpp **** 
 417:src/slabAllocator.cpp **** void kmem_cache_free(kmem_cache_t *cachep, void *objp)
 418:src/slabAllocator.cpp **** {
 1920              		.loc 1 418 1 is_stmt 1
 1921              		.cfi_startproc
 1922              	.LVL193:
 419:src/slabAllocator.cpp ****     if(cachep == nullptr || objp == nullptr)
 1923              		.loc 1 419 5
 1924 0b5c 63040508 		beqz	a0,.L118
 418:src/slabAllocator.cpp ****     if(cachep == nullptr || objp == nullptr)
 1925              		.loc 1 418 1 is_stmt 0 discriminator 1
 1926 0b60 130101FD 		addi	sp,sp,-48
 1927              		.cfi_def_cfa_offset 48
 1928 0b64 23341102 		sd	ra,40(sp)
 1929 0b68 23308102 		sd	s0,32(sp)
 1930 0b6c 233C9100 		sd	s1,24(sp)
 1931 0b70 23382101 		sd	s2,16(sp)
 1932 0b74 23343101 		sd	s3,8(sp)
 1933              		.cfi_offset 1, -8
 1934              		.cfi_offset 8, -16
 1935              		.cfi_offset 9, -24
 1936              		.cfi_offset 18, -32
 1937              		.cfi_offset 19, -40
 1938 0b78 13040103 		addi	s0,sp,48
 1939              		.cfi_def_cfa 8, 0
 1940 0b7c 13090500 		mv	s2,a0
 1941 0b80 93840500 		mv	s1,a1
 1942              		.loc 1 419 26 discriminator 1
 1943 0b84 63820504 		beqz	a1,.L113
 420:src/slabAllocator.cpp ****         return;
 421:src/slabAllocator.cpp ****     slab_t* slab = findSlab(cachep, objp);
 1944              		.loc 1 421 5 is_stmt 1
GAS LISTING /tmp/ccDSSFbw.s 			page 45


 1945              		.loc 1 421 28 is_stmt 0
 1946 0b88 97000000 		call	_Z8findSlabP12kmem_cache_sPKv
 1946      E7800000 
 1947              	.LVL194:
 1948 0b90 93090500 		mv	s3,a0
 1949              	.LVL195:
 422:src/slabAllocator.cpp ****     if(slab == nullptr) return;
 1950              		.loc 1 422 5 is_stmt 1
 1951 0b94 630A0502 		beqz	a0,.L113
 423:src/slabAllocator.cpp **** 
 424:src/slabAllocator.cpp ****     //TODO
 425:src/slabAllocator.cpp ****     //test it
 426:src/slabAllocator.cpp ****     if(cachep->dtor != nullptr)
 1952              		.loc 1 426 5
 1953              		.loc 1 426 16 is_stmt 0
 1954 0b98 83370907 		ld	a5,112(s2)
 1955              		.loc 1 426 5
 1956 0b9c 63860700 		beqz	a5,.L115
 427:src/slabAllocator.cpp ****         cachep->dtor(objp);
 1957              		.loc 1 427 9 is_stmt 1
 1958              		.loc 1 427 21 is_stmt 0
 1959 0ba0 13850400 		mv	a0,s1
 1960              	.LVL196:
 1961 0ba4 E7800700 		jalr	a5
 1962              	.LVL197:
 1963              	.L115:
 428:src/slabAllocator.cpp ****     if(cachep->ctor != nullptr)
 1964              		.loc 1 428 5 is_stmt 1
 1965              		.loc 1 428 16 is_stmt 0
 1966 0ba8 83378906 		ld	a5,104(s2)
 1967              		.loc 1 428 5
 1968 0bac 63860700 		beqz	a5,.L116
 429:src/slabAllocator.cpp ****         cachep->ctor(objp);
 1969              		.loc 1 429 9 is_stmt 1
 1970              		.loc 1 429 21 is_stmt 0
 1971 0bb0 13850400 		mv	a0,s1
 1972 0bb4 E7800700 		jalr	a5
 1973              	.LVL198:
 1974              	.L116:
 430:src/slabAllocator.cpp **** 
 431:src/slabAllocator.cpp ****     free_slab_object(slab, objp);
 1975              		.loc 1 431 5 is_stmt 1
 1976              		.loc 1 431 21 is_stmt 0
 1977 0bb8 93850400 		mv	a1,s1
 1978 0bbc 13850900 		mv	a0,s3
 1979 0bc0 97000000 		call	_Z16free_slab_objectP6slab_sPKv
 1979      E7800000 
 1980              	.LVL199:
 1981              	.L113:
 432:src/slabAllocator.cpp **** }
 1982              		.loc 1 432 1
 1983 0bc8 83308102 		ld	ra,40(sp)
 1984              		.cfi_restore 1
 1985 0bcc 03340102 		ld	s0,32(sp)
 1986              		.cfi_restore 8
 1987              		.cfi_def_cfa 2, 48
 1988 0bd0 83348101 		ld	s1,24(sp)
GAS LISTING /tmp/ccDSSFbw.s 			page 46


 1989              		.cfi_restore 9
 1990              	.LVL200:
 1991 0bd4 03390101 		ld	s2,16(sp)
 1992              		.cfi_restore 18
 1993              	.LVL201:
 1994 0bd8 83398100 		ld	s3,8(sp)
 1995              		.cfi_restore 19
 1996 0bdc 13010103 		addi	sp,sp,48
 1997              		.cfi_def_cfa_offset 0
 1998 0be0 67800000 		jr	ra
 1999              	.LVL202:
 2000              	.L118:
 2001 0be4 67800000 		ret
 2002              		.cfi_endproc
 2003              	.LFE30:
 2005              		.section	.rodata.str1.8
 2006 0072 00000000 		.align	3
 2006      0000
 2007              	.LC6:
 2008 0078 4B6D656D 		.string	"Kmem Cache Info-------------------------------------\n"
 2008      20436163 
 2008      68652049 
 2008      6E666F2D 
 2008      2D2D2D2D 
 2009 00ae 0000     		.align	3
 2010              	.LC7:
 2011 00b0 43616368 		.string	"Cache Name "
 2011      65204E61 
 2011      6D652000 
 2012 00bc 00000000 		.align	3
 2013              	.LC8:
 2014 00c0 43616368 		.string	"Cache slab size in blocks "
 2014      6520736C 
 2014      61622073 
 2014      697A6520 
 2014      696E2062 
 2015 00db 00000000 		.align	3
 2015      00
 2016              	.LC9:
 2017 00e0 43616368 		.string	"Cache obj size in bytes "
 2017      65206F62 
 2017      6A207369 
 2017      7A652069 
 2017      6E206279 
 2018 00f9 00000000 		.align	3
 2018      000000
 2019              	.LC10:
 2020 0100 536C6162 		.string	"Slabs info-------------------\n"
 2020      7320696E 
 2020      666F2D2D 
 2020      2D2D2D2D 
 2020      2D2D2D2D 
 2021 011f 00       		.align	3
 2022              	.LC11:
 2023 0120 46756C6C 		.string	"Full slabs\n"
 2023      20736C61 
 2023      62730A00 
GAS LISTING /tmp/ccDSSFbw.s 			page 47


 2024 012c 00000000 		.align	3
 2025              	.LC12:
 2026 0130 50617274 		.string	"Partial slabs\n"
 2026      69616C20 
 2026      736C6162 
 2026      730A00
 2027 013f 00       		.align	3
 2028              	.LC13:
 2029 0140 456D7074 		.string	"Empty slabs\n"
 2029      7920736C 
 2029      6162730A 
 2029      00
 2030              		.text
 2031              		.align	2
 2032              		.globl	_Z15kmem_cache_infoP12kmem_cache_s
 2034              	_Z15kmem_cache_infoP12kmem_cache_s:
 2035              	.LFB31:
 433:src/slabAllocator.cpp **** 
 434:src/slabAllocator.cpp **** //TODO what needs to be printed
 435:src/slabAllocator.cpp **** void kmem_cache_info(kmem_cache_t *cachep)
 436:src/slabAllocator.cpp **** {
 2036              		.loc 1 436 1 is_stmt 1
 2037              		.cfi_startproc
 2038              	.LVL203:
 437:src/slabAllocator.cpp ****     if(cachep == nullptr)
 2039              		.loc 1 437 5
 2040 0be8 630C0512 		beqz	a0,.L129
 436:src/slabAllocator.cpp ****     if(cachep == nullptr)
 2041              		.loc 1 436 1 is_stmt 0
 2042 0bec 130101FE 		addi	sp,sp,-32
 2043              		.cfi_def_cfa_offset 32
 2044 0bf0 233C1100 		sd	ra,24(sp)
 2045 0bf4 23388100 		sd	s0,16(sp)
 2046 0bf8 23349100 		sd	s1,8(sp)
 2047 0bfc 23302101 		sd	s2,0(sp)
 2048              		.cfi_offset 1, -8
 2049              		.cfi_offset 8, -16
 2050              		.cfi_offset 9, -24
 2051              		.cfi_offset 18, -32
 2052 0c00 13040102 		addi	s0,sp,32
 2053              		.cfi_def_cfa 8, 0
 2054 0c04 13090500 		mv	s2,a0
 438:src/slabAllocator.cpp ****         return;
 439:src/slabAllocator.cpp ****     KConsole::trapPrintString("Kmem Cache Info-------------------------------------\n");
 2055              		.loc 1 439 5 is_stmt 1
 2056              		.loc 1 439 30 is_stmt 0
 2057 0c08 17050000 		lla	a0,.LC6
 2057      13050500 
 2058              	.LVL204:
 2059 0c10 97000000 		call	_ZN8KConsole15trapPrintStringEPKc@plt
 2059      E7800000 
 2060              	.LVL205:
 440:src/slabAllocator.cpp ****     KConsole::trapPrintString("Cache Name ");
 2061              		.loc 1 440 5 is_stmt 1
 2062              		.loc 1 440 30 is_stmt 0
 2063 0c18 17050000 		lla	a0,.LC7
 2063      13050500 
GAS LISTING /tmp/ccDSSFbw.s 			page 48


 2064 0c20 97000000 		call	_ZN8KConsole15trapPrintStringEPKc@plt
 2064      E7800000 
 2065              	.LVL206:
 441:src/slabAllocator.cpp ****     KConsole::trapPrintString(cachep->cacheName); KConsole::trapPrintString("\n");
 2066              		.loc 1 441 5 is_stmt 1
 2067              		.loc 1 441 30 is_stmt 0
 2068 0c28 13050900 		mv	a0,s2
 2069 0c2c 97000000 		call	_ZN8KConsole15trapPrintStringEPKc@plt
 2069      E7800000 
 2070              	.LVL207:
 2071              		.loc 1 441 51 is_stmt 1
 2072              		.loc 1 441 76 is_stmt 0
 2073 0c34 17050000 		lla	a0,.LC5
 2073      13050500 
 2074 0c3c 97000000 		call	_ZN8KConsole15trapPrintStringEPKc@plt
 2074      E7800000 
 2075              	.LVL208:
 442:src/slabAllocator.cpp ****     KConsole::trapPrintStringInt("Cache slab size in blocks ", cachep->slab_size);
 2076              		.loc 1 442 5 is_stmt 1
 2077              		.loc 1 442 33 is_stmt 0
 2078 0c44 1306A000 		li	a2,10
 2079 0c48 83358905 		ld	a1,88(s2)
 2080 0c4c 17050000 		lla	a0,.LC8
 2080      13050500 
 2081 0c54 97000000 		call	_ZN8KConsole18trapPrintStringIntEPKcmi@plt
 2081      E7800000 
 2082              	.LVL209:
 443:src/slabAllocator.cpp ****     KConsole::trapPrintStringInt("Cache obj size in bytes ", cachep->obj_size);
 2083              		.loc 1 443 5 is_stmt 1
 2084              		.loc 1 443 33 is_stmt 0
 2085 0c5c 1306A000 		li	a2,10
 2086 0c60 83350906 		ld	a1,96(s2)
 2087 0c64 17050000 		lla	a0,.LC9
 2087      13050500 
 2088 0c6c 97000000 		call	_ZN8KConsole18trapPrintStringIntEPKcmi@plt
 2088      E7800000 
 2089              	.LVL210:
 444:src/slabAllocator.cpp ****     
 445:src/slabAllocator.cpp ****     KConsole::trapPrintString("Slabs info-------------------\n");
 2090              		.loc 1 445 5 is_stmt 1
 2091              		.loc 1 445 30 is_stmt 0
 2092 0c74 17050000 		lla	a0,.LC10
 2092      13050500 
 2093 0c7c 97000000 		call	_ZN8KConsole15trapPrintStringEPKc@plt
 2093      E7800000 
 2094              	.LVL211:
 446:src/slabAllocator.cpp **** 
 447:src/slabAllocator.cpp ****     KConsole::trapPrintString("Full slabs\n");
 2095              		.loc 1 447 5 is_stmt 1
 2096              		.loc 1 447 30 is_stmt 0
 2097 0c84 17050000 		lla	a0,.LC11
 2097      13050500 
 2098 0c8c 97000000 		call	_ZN8KConsole15trapPrintStringEPKc@plt
 2098      E7800000 
 2099              	.LVL212:
 448:src/slabAllocator.cpp ****     slab_t* slab = cachep->slabs_full;
 2100              		.loc 1 448 5 is_stmt 1
GAS LISTING /tmp/ccDSSFbw.s 			page 49


 2101              		.loc 1 448 13 is_stmt 0
 2102 0c94 83348904 		ld	s1,72(s2)
 2103              	.LVL213:
 2104              	.L124:
 449:src/slabAllocator.cpp ****     while(slab != nullptr)
 2105              		.loc 1 449 5 is_stmt 1
 2106              		.loc 1 449 16
 2107 0c98 638C0400 		beqz	s1,.L123
 450:src/slabAllocator.cpp ****     {
 451:src/slabAllocator.cpp ****         printSlabInfo(slab);
 2108              		.loc 1 451 9
 2109              		.loc 1 451 22 is_stmt 0
 2110 0c9c 13850400 		mv	a0,s1
 2111 0ca0 97000000 		call	_Z13printSlabInfoP6slab_s
 2111      E7800000 
 2112              	.LVL214:
 452:src/slabAllocator.cpp ****         slab = slab->next;
 2113              		.loc 1 452 9 is_stmt 1
 2114              		.loc 1 452 14 is_stmt 0
 2115 0ca8 83B48400 		ld	s1,8(s1)
 2116              	.LVL215:
 449:src/slabAllocator.cpp ****     while(slab != nullptr)
 2117              		.loc 1 449 5
 2118 0cac 6FF0DFFE 		j	.L124
 2119              	.L123:
 453:src/slabAllocator.cpp ****     }
 454:src/slabAllocator.cpp **** 
 455:src/slabAllocator.cpp ****     KConsole::trapPrintString("Partial slabs\n");
 2120              		.loc 1 455 5 is_stmt 1
 2121              		.loc 1 455 30 is_stmt 0
 2122 0cb0 17050000 		lla	a0,.LC12
 2122      13050500 
 2123 0cb8 97000000 		call	_ZN8KConsole15trapPrintStringEPKc@plt
 2123      E7800000 
 2124              	.LVL216:
 456:src/slabAllocator.cpp ****     slab = cachep->slabs_partial;
 2125              		.loc 1 456 5 is_stmt 1
 2126              		.loc 1 456 10 is_stmt 0
 2127 0cc0 83340905 		ld	s1,80(s2)
 2128              	.LVL217:
 2129              	.L126:
 457:src/slabAllocator.cpp ****     while(slab != nullptr)
 2130              		.loc 1 457 5 is_stmt 1
 2131              		.loc 1 457 16
 2132 0cc4 638C0400 		beqz	s1,.L125
 458:src/slabAllocator.cpp ****     {
 459:src/slabAllocator.cpp ****         printSlabInfo(slab);
 2133              		.loc 1 459 9
 2134              		.loc 1 459 22 is_stmt 0
 2135 0cc8 13850400 		mv	a0,s1
 2136 0ccc 97000000 		call	_Z13printSlabInfoP6slab_s
 2136      E7800000 
 2137              	.LVL218:
 460:src/slabAllocator.cpp ****         slab = slab->next;
 2138              		.loc 1 460 9 is_stmt 1
 2139              		.loc 1 460 14 is_stmt 0
 2140 0cd4 83B48400 		ld	s1,8(s1)
GAS LISTING /tmp/ccDSSFbw.s 			page 50


 2141              	.LVL219:
 457:src/slabAllocator.cpp ****     while(slab != nullptr)
 2142              		.loc 1 457 5
 2143 0cd8 6FF0DFFE 		j	.L126
 2144              	.L125:
 461:src/slabAllocator.cpp ****     }
 462:src/slabAllocator.cpp **** 
 463:src/slabAllocator.cpp ****     KConsole::trapPrintString("Empty slabs\n");
 2145              		.loc 1 463 5 is_stmt 1
 2146              		.loc 1 463 30 is_stmt 0
 2147 0cdc 17050000 		lla	a0,.LC13
 2147      13050500 
 2148 0ce4 97000000 		call	_ZN8KConsole15trapPrintStringEPKc@plt
 2148      E7800000 
 2149              	.LVL220:
 464:src/slabAllocator.cpp ****     slab = cachep->slabs_empty;
 2150              		.loc 1 464 5 is_stmt 1
 2151              		.loc 1 464 10 is_stmt 0
 2152 0cec 83340904 		ld	s1,64(s2)
 2153              	.LVL221:
 2154              	.L127:
 465:src/slabAllocator.cpp ****     while(slab != nullptr)
 2155              		.loc 1 465 5 is_stmt 1
 2156              		.loc 1 465 16
 2157 0cf0 638C0400 		beqz	s1,.L121
 466:src/slabAllocator.cpp ****     {
 467:src/slabAllocator.cpp ****         printSlabInfo(slab);
 2158              		.loc 1 467 9
 2159              		.loc 1 467 22 is_stmt 0
 2160 0cf4 13850400 		mv	a0,s1
 2161 0cf8 97000000 		call	_Z13printSlabInfoP6slab_s
 2161      E7800000 
 2162              	.LVL222:
 468:src/slabAllocator.cpp ****         slab = slab->next;
 2163              		.loc 1 468 9 is_stmt 1
 2164              		.loc 1 468 14 is_stmt 0
 2165 0d00 83B48400 		ld	s1,8(s1)
 2166              	.LVL223:
 465:src/slabAllocator.cpp ****     while(slab != nullptr)
 2167              		.loc 1 465 5
 2168 0d04 6FF0DFFE 		j	.L127
 2169              	.L121:
 469:src/slabAllocator.cpp ****     }
 470:src/slabAllocator.cpp **** }
 2170              		.loc 1 470 1
 2171 0d08 83308101 		ld	ra,24(sp)
 2172              		.cfi_restore 1
 2173 0d0c 03340101 		ld	s0,16(sp)
 2174              		.cfi_restore 8
 2175              		.cfi_def_cfa 2, 32
 2176 0d10 83348100 		ld	s1,8(sp)
 2177              		.cfi_restore 9
 2178              	.LVL224:
 2179 0d14 03390100 		ld	s2,0(sp)
 2180              		.cfi_restore 18
 2181              	.LVL225:
 2182 0d18 13010102 		addi	sp,sp,32
GAS LISTING /tmp/ccDSSFbw.s 			page 51


 2183              		.cfi_def_cfa_offset 0
 2184 0d1c 67800000 		jr	ra
 2185              	.LVL226:
 2186              	.L129:
 2187 0d20 67800000 		ret
 2188              		.cfi_endproc
 2189              	.LFE31:
 2191              		.section	.rodata.str1.8
 2192 014d 000000   		.align	3
 2193              	.LC14:
 2194 0150 536C6162 		.string	"Slab allocator info----------------------------------------------------------\n"
 2194      20616C6C 
 2194      6F636174 
 2194      6F722069 
 2194      6E666F2D 
 2195 019f 00       		.align	3
 2196              	.LC15:
 2197 01a0 536C6162 		.string	"Slab allocator buddy address "
 2197      20616C6C 
 2197      6F636174 
 2197      6F722062 
 2197      75646479 
 2198 01be 0000     		.align	3
 2199              	.LC16:
 2200 01c0 536C6162 		.string	"Slab allocator address "
 2200      20616C6C 
 2200      6F636174 
 2200      6F722061 
 2200      64647265 
 2201              		.align	3
 2202              	.LC17:
 2203 01d8 43616368 		.string	"Cache of caches info\n"
 2203      65206F66 
 2203      20636163 
 2203      68657320 
 2203      696E666F 
 2204 01ee 0000     		.align	3
 2205              	.LC18:
 2206 01f0 43616368 		.string	"Caches for buffers\n"
 2206      65732066 
 2206      6F722062 
 2206      75666665 
 2206      72730A00 
 2207              		.text
 2208              		.align	2
 2209              		.globl	_Z22printSlabAllocatorInfov
 2211              	_Z22printSlabAllocatorInfov:
 2212              	.LFB26:
 336:src/slabAllocator.cpp ****     KConsole::trapPrintString("Slab allocator info-------------------------------------------------
 2213              		.loc 1 336 1 is_stmt 1
 2214              		.cfi_startproc
 2215 0d24 130101FE 		addi	sp,sp,-32
 2216              		.cfi_def_cfa_offset 32
 2217 0d28 233C1100 		sd	ra,24(sp)
 2218 0d2c 23388100 		sd	s0,16(sp)
 2219 0d30 23349100 		sd	s1,8(sp)
 2220              		.cfi_offset 1, -8
GAS LISTING /tmp/ccDSSFbw.s 			page 52


 2221              		.cfi_offset 8, -16
 2222              		.cfi_offset 9, -24
 2223 0d34 13040102 		addi	s0,sp,32
 2224              		.cfi_def_cfa 8, 0
 337:src/slabAllocator.cpp ****     KConsole::trapPrintStringInt("Slab allocator buddy address ", (size_t)slabAllocator->buddy,16);
 2225              		.loc 1 337 5
 337:src/slabAllocator.cpp ****     KConsole::trapPrintStringInt("Slab allocator buddy address ", (size_t)slabAllocator->buddy,16);
 2226              		.loc 1 337 30 is_stmt 0
 2227 0d38 17050000 		lla	a0,.LC14
 2227      13050500 
 2228 0d40 97000000 		call	_ZN8KConsole15trapPrintStringEPKc@plt
 2228      E7800000 
 2229              	.LVL227:
 338:src/slabAllocator.cpp ****     KConsole::trapPrintStringInt("Slab allocator address ", (size_t)slabAllocator, 16);
 2230              		.loc 1 338 5 is_stmt 1
 338:src/slabAllocator.cpp ****     KConsole::trapPrintStringInt("Slab allocator address ", (size_t)slabAllocator, 16);
 2231              		.loc 1 338 90 is_stmt 0
 2232 0d48 97040000 		lla	s1,.LANCHOR0
 2232      93840400 
 2233 0d50 83B70400 		ld	a5,0(s1)
 338:src/slabAllocator.cpp ****     KConsole::trapPrintStringInt("Slab allocator address ", (size_t)slabAllocator, 16);
 2234              		.loc 1 338 33
 2235 0d54 13060001 		li	a2,16
 2236 0d58 83B50700 		ld	a1,0(a5)
 2237 0d5c 17050000 		lla	a0,.LC15
 2237      13050500 
 2238 0d64 97000000 		call	_ZN8KConsole18trapPrintStringIntEPKcmi@plt
 2238      E7800000 
 2239              	.LVL228:
 339:src/slabAllocator.cpp ****     KConsole::trapPrintString("Cache of caches info\n");
 2240              		.loc 1 339 5 is_stmt 1
 339:src/slabAllocator.cpp ****     KConsole::trapPrintString("Cache of caches info\n");
 2241              		.loc 1 339 33 is_stmt 0
 2242 0d6c 13060001 		li	a2,16
 2243 0d70 83B50400 		ld	a1,0(s1)
 2244 0d74 17050000 		lla	a0,.LC16
 2244      13050500 
 2245 0d7c 97000000 		call	_ZN8KConsole18trapPrintStringIntEPKcmi@plt
 2245      E7800000 
 2246              	.LVL229:
 340:src/slabAllocator.cpp ****     kmem_cache_info(&slabAllocator->cacheOfCaches);
 2247              		.loc 1 340 5 is_stmt 1
 340:src/slabAllocator.cpp ****     kmem_cache_info(&slabAllocator->cacheOfCaches);
 2248              		.loc 1 340 30 is_stmt 0
 2249 0d84 17050000 		lla	a0,.LC17
 2249      13050500 
 2250 0d8c 97000000 		call	_ZN8KConsole15trapPrintStringEPKc@plt
 2250      E7800000 
 2251              	.LVL230:
 341:src/slabAllocator.cpp ****     KConsole::trapPrintString("Caches for buffers\n");
 2252              		.loc 1 341 5 is_stmt 1
 341:src/slabAllocator.cpp ****     KConsole::trapPrintString("Caches for buffers\n");
 2253              		.loc 1 341 37 is_stmt 0
 2254 0d94 03B50400 		ld	a0,0(s1)
 341:src/slabAllocator.cpp ****     KConsole::trapPrintString("Caches for buffers\n");
 2255              		.loc 1 341 20
 2256 0d98 13050507 		addi	a0,a0,112
GAS LISTING /tmp/ccDSSFbw.s 			page 53


 2257 0d9c 97000000 		call	_Z15kmem_cache_infoP12kmem_cache_s
 2257      E7800000 
 2258              	.LVL231:
 342:src/slabAllocator.cpp ****     for(size_t i = 0;i < CACHE_BUFFER_SIZE;i++)
 2259              		.loc 1 342 5 is_stmt 1
 342:src/slabAllocator.cpp ****     for(size_t i = 0;i < CACHE_BUFFER_SIZE;i++)
 2260              		.loc 1 342 30 is_stmt 0
 2261 0da4 17050000 		lla	a0,.LC18
 2261      13050500 
 2262 0dac 97000000 		call	_ZN8KConsole15trapPrintStringEPKc@plt
 2262      E7800000 
 2263              	.LVL232:
 343:src/slabAllocator.cpp ****     {
 2264              		.loc 1 343 5 is_stmt 1
 2265              	.LBB24:
 343:src/slabAllocator.cpp ****     {
 2266              		.loc 1 343 16 is_stmt 0
 2267 0db4 93040000 		li	s1,0
 2268 0db8 6F000001 		j	.L135
 2269              	.LVL233:
 2270              	.L137:
 347:src/slabAllocator.cpp ****         }
 2271              		.loc 1 347 13 is_stmt 1
 347:src/slabAllocator.cpp ****         }
 2272              		.loc 1 347 28 is_stmt 0
 2273 0dbc 97000000 		call	_Z15kmem_cache_infoP12kmem_cache_s
 2273      E7800000 
 2274              	.LVL234:
 2275              	.L134:
 343:src/slabAllocator.cpp ****     {
 2276              		.loc 1 343 5 is_stmt 1 discriminator 2
 2277 0dc4 93841400 		addi	s1,s1,1
 2278              	.LVL235:
 2279              	.L135:
 343:src/slabAllocator.cpp ****     {
 2280              		.loc 1 343 24 discriminator 1
 2281 0dc8 9307C000 		li	a5,12
 2282 0dcc 63E09702 		bgtu	s1,a5,.L132
 345:src/slabAllocator.cpp ****         {
 2283              		.loc 1 345 9
 345:src/slabAllocator.cpp ****         {
 2284              		.loc 1 345 42 is_stmt 0
 2285 0dd0 93973400 		slli	a5,s1,3
 2286 0dd4 17070000 		ld	a4,.LANCHOR0
 2286      03370700 
 2287 0ddc B307F700 		add	a5,a4,a5
 2288 0de0 03B58700 		ld	a0,8(a5)
 345:src/slabAllocator.cpp ****         {
 2289              		.loc 1 345 9
 2290 0de4 E31C05FC 		bnez	a0,.L137
 2291 0de8 6FF0DFFD 		j	.L134
 2292              	.L132:
 2293              	.LBE24:
 350:src/slabAllocator.cpp **** 
 2294              		.loc 1 350 1
 2295 0dec 83308101 		ld	ra,24(sp)
 2296              		.cfi_restore 1
GAS LISTING /tmp/ccDSSFbw.s 			page 54


 2297 0df0 03340101 		ld	s0,16(sp)
 2298              		.cfi_restore 8
 2299              		.cfi_def_cfa 2, 32
 2300 0df4 83348100 		ld	s1,8(sp)
 2301              		.cfi_restore 9
 2302              	.LVL236:
 2303 0df8 13010102 		addi	sp,sp,32
 2304              		.cfi_def_cfa_offset 0
 2305 0dfc 67800000 		jr	ra
 2306              		.cfi_endproc
 2307              	.LFE26:
 2309              		.section	.rodata.str1.8
 2310 0204 00000000 		.align	3
 2311              	.LC19:
 2312 0208 43616368 		.string	"Cache for small buffers"
 2312      6520666F 
 2312      7220736D 
 2312      616C6C20 
 2312      62756666 
 2313              		.text
 2314              		.align	2
 2315              		.globl	_Z7kmallocm
 2317              	_Z7kmallocm:
 2318              	.LFB32:
 471:src/slabAllocator.cpp **** 
 472:src/slabAllocator.cpp **** void *kmalloc(size_t size)
 473:src/slabAllocator.cpp **** {
 2319              		.loc 1 473 1 is_stmt 1
 2320              		.cfi_startproc
 2321              	.LVL237:
 2322 0e00 130101FD 		addi	sp,sp,-48
 2323              		.cfi_def_cfa_offset 48
 2324 0e04 23341102 		sd	ra,40(sp)
 2325 0e08 23308102 		sd	s0,32(sp)
 2326 0e0c 233C9100 		sd	s1,24(sp)
 2327 0e10 23382101 		sd	s2,16(sp)
 2328 0e14 23343101 		sd	s3,8(sp)
 2329              		.cfi_offset 1, -8
 2330              		.cfi_offset 8, -16
 2331              		.cfi_offset 9, -24
 2332              		.cfi_offset 18, -32
 2333              		.cfi_offset 19, -40
 2334 0e18 13040103 		addi	s0,sp,48
 2335              		.cfi_def_cfa 8, 0
 2336 0e1c 93090500 		mv	s3,a0
 474:src/slabAllocator.cpp ****     size_t level = getDeg2Ceil(size);
 2337              		.loc 1 474 5
 2338              		.loc 1 474 31 is_stmt 0
 2339 0e20 97000000 		call	_Z11getDeg2Ceilm@plt
 2339      E7800000 
 2340              	.LVL238:
 475:src/slabAllocator.cpp ****     if(level < CACHE_BUFFER_SMALL)
 2341              		.loc 1 475 5 is_stmt 1
 2342 0e28 93074000 		li	a5,4
 2343 0e2c 63FAA700 		bleu	a0,a5,.L142
 476:src/slabAllocator.cpp ****         level = CACHE_BUFFER_SMALL;
 477:src/slabAllocator.cpp ****     if(level > CACHE_BUFFER_BIG)
GAS LISTING /tmp/ccDSSFbw.s 			page 55


 2344              		.loc 1 477 5
 2345 0e30 93071001 		li	a5,17
 2346 0e34 63F8A700 		bleu	a0,a5,.L139
 478:src/slabAllocator.cpp ****         return nullptr;
 2347              		.loc 1 478 16 is_stmt 0
 2348 0e38 13090000 		li	s2,0
 2349 0e3c 6F004004 		j	.L138
 2350              	.L142:
 476:src/slabAllocator.cpp ****         level = CACHE_BUFFER_SMALL;
 2351              		.loc 1 476 15
 2352 0e40 13055000 		li	a0,5
 2353              	.LVL239:
 2354              	.L139:
 479:src/slabAllocator.cpp ****     size_t index = level - CACHE_BUFFER_SMALL;
 2355              		.loc 1 479 5 is_stmt 1
 2356              		.loc 1 479 12 is_stmt 0
 2357 0e44 9304B5FF 		addi	s1,a0,-5
 2358              	.LVL240:
 480:src/slabAllocator.cpp ****     if(slabAllocator->cachesBuffers[index] == nullptr)
 2359              		.loc 1 480 5 is_stmt 1
 2360              		.loc 1 480 42 is_stmt 0
 2361 0e48 17090000 		ld	s2,.LANCHOR0
 2361      03390900 
 2362 0e50 93973400 		slli	a5,s1,3
 2363 0e54 B307F900 		add	a5,s2,a5
 2364 0e58 83B78700 		ld	a5,8(a5)
 2365              		.loc 1 480 5
 2366 0e5c 63820704 		beqz	a5,.L145
 2367              	.L141:
 481:src/slabAllocator.cpp ****     {
 482:src/slabAllocator.cpp ****         slabAllocator->cachesBuffers[index] = (kmem_cache_t*)kmem_cache_alloc(&slabAllocator->cache
 483:src/slabAllocator.cpp ****         if(slabAllocator->cachesBuffers[index] == nullptr)
 484:src/slabAllocator.cpp ****             return nullptr;
 485:src/slabAllocator.cpp ****         init_cache(slabAllocator->cachesBuffers[index], "Cache for small buffers", getOptimalSlabSi
 486:src/slabAllocator.cpp ****     }
 487:src/slabAllocator.cpp **** 
 488:src/slabAllocator.cpp ****     return kmem_cache_alloc(slabAllocator->cachesBuffers[index]);
 2368              		.loc 1 488 5 is_stmt 1
 2369              		.loc 1 488 28 is_stmt 0
 2370 0e60 13953400 		slli	a0,s1,3
 2371 0e64 97040000 		ld	s1,.LANCHOR0
 2371      83B40400 
 2372              	.LVL241:
 2373 0e6c 3385A400 		add	a0,s1,a0
 2374 0e70 03358500 		ld	a0,8(a0)
 2375 0e74 97000000 		call	_Z16kmem_cache_allocP12kmem_cache_s
 2375      E7800000 
 2376              	.LVL242:
 2377 0e7c 13090500 		mv	s2,a0
 2378              	.L138:
 489:src/slabAllocator.cpp **** }
 2379              		.loc 1 489 1
 2380 0e80 13050900 		mv	a0,s2
 2381 0e84 83308102 		ld	ra,40(sp)
 2382              		.cfi_remember_state
 2383              		.cfi_restore 1
 2384 0e88 03340102 		ld	s0,32(sp)
GAS LISTING /tmp/ccDSSFbw.s 			page 56


 2385              		.cfi_restore 8
 2386              		.cfi_def_cfa 2, 48
 2387 0e8c 83348101 		ld	s1,24(sp)
 2388              		.cfi_restore 9
 2389 0e90 03390101 		ld	s2,16(sp)
 2390              		.cfi_restore 18
 2391 0e94 83398100 		ld	s3,8(sp)
 2392              		.cfi_restore 19
 2393              	.LVL243:
 2394 0e98 13010103 		addi	sp,sp,48
 2395              		.cfi_def_cfa_offset 0
 2396 0e9c 67800000 		jr	ra
 2397              	.LVL244:
 2398              	.L145:
 2399              		.cfi_restore_state
 482:src/slabAllocator.cpp ****         if(slabAllocator->cachesBuffers[index] == nullptr)
 2400              		.loc 1 482 9 is_stmt 1
 482:src/slabAllocator.cpp ****         if(slabAllocator->cachesBuffers[index] == nullptr)
 2401              		.loc 1 482 78 is_stmt 0
 2402 0ea0 13050907 		addi	a0,s2,112
 2403 0ea4 97000000 		call	_Z16kmem_cache_allocP12kmem_cache_s
 2403      E7800000 
 2404              	.LVL245:
 482:src/slabAllocator.cpp ****         if(slabAllocator->cachesBuffers[index] == nullptr)
 2405              		.loc 1 482 45
 2406 0eac 13973400 		slli	a4,s1,3
 2407 0eb0 3309E900 		add	s2,s2,a4
 2408 0eb4 2334A900 		sd	a0,8(s2)
 483:src/slabAllocator.cpp ****             return nullptr;
 2409              		.loc 1 483 9 is_stmt 1
 483:src/slabAllocator.cpp ****             return nullptr;
 2410              		.loc 1 483 46 is_stmt 0
 2411 0eb8 97070000 		ld	a5,.LANCHOR0
 2411      83B70700 
 2412 0ec0 B387E700 		add	a5,a5,a4
 2413 0ec4 03B98700 		ld	s2,8(a5)
 483:src/slabAllocator.cpp ****             return nullptr;
 2414              		.loc 1 483 9
 2415 0ec8 E30C09FA 		beqz	s2,.L138
 485:src/slabAllocator.cpp ****     }
 2416              		.loc 1 485 9 is_stmt 1
 485:src/slabAllocator.cpp ****     }
 2417              		.loc 1 485 19 is_stmt 0
 2418 0ecc 13850900 		mv	a0,s3
 2419 0ed0 97000000 		call	_Z18getOptimalSlabSizem
 2419      E7800000 
 2420              	.LVL246:
 2421 0ed8 13060500 		mv	a2,a0
 2422 0edc 93070000 		li	a5,0
 2423 0ee0 13070000 		li	a4,0
 2424 0ee4 93860900 		mv	a3,s3
 2425 0ee8 97050000 		lla	a1,.LC19
 2425      93850500 
 2426 0ef0 13050900 		mv	a0,s2
 2427 0ef4 97000000 		call	_Z10init_cacheP12kmem_cache_sPKcmmPFvPvES5_
 2427      E7800000 
 2428              	.LVL247:
GAS LISTING /tmp/ccDSSFbw.s 			page 57


 2429 0efc 6FF05FF6 		j	.L141
 2430              		.cfi_endproc
 2431              	.LFE32:
 2433              		.align	2
 2434              		.globl	_Z5kfreePKv
 2436              	_Z5kfreePKv:
 2437              	.LFB33:
 490:src/slabAllocator.cpp **** 
 491:src/slabAllocator.cpp **** void kfree(const void *objp)
 492:src/slabAllocator.cpp **** {
 2438              		.loc 1 492 1 is_stmt 1
 2439              		.cfi_startproc
 2440              	.LVL248:
 493:src/slabAllocator.cpp ****     if(objp == nullptr)
 2441              		.loc 1 493 5
 2442 0f00 63020508 		beqz	a0,.L151
 492:src/slabAllocator.cpp ****     if(objp == nullptr)
 2443              		.loc 1 492 1 is_stmt 0
 2444 0f04 130101FE 		addi	sp,sp,-32
 2445              		.cfi_def_cfa_offset 32
 2446 0f08 233C1100 		sd	ra,24(sp)
 2447 0f0c 23388100 		sd	s0,16(sp)
 2448 0f10 23349100 		sd	s1,8(sp)
 2449 0f14 23302101 		sd	s2,0(sp)
 2450              		.cfi_offset 1, -8
 2451              		.cfi_offset 8, -16
 2452              		.cfi_offset 9, -24
 2453              		.cfi_offset 18, -32
 2454 0f18 13040102 		addi	s0,sp,32
 2455              		.cfi_def_cfa 8, 0
 2456 0f1c 13090500 		mv	s2,a0
 2457              	.LBB25:
 494:src/slabAllocator.cpp ****         return;
 495:src/slabAllocator.cpp ****     slab_t* slab = nullptr;
 496:src/slabAllocator.cpp ****     for(size_t i = 0;i < CACHE_BUFFER_SIZE;i++)
 2458              		.loc 1 496 16
 2459 0f20 93040000 		li	s1,0
 2460              	.LBE25:
 495:src/slabAllocator.cpp ****     for(size_t i = 0;i < CACHE_BUFFER_SIZE;i++)
 2461              		.loc 1 495 13
 2462 0f24 13050000 		li	a0,0
 2463              	.LVL249:
 2464              	.L149:
 2465              	.LBB26:
 2466              		.loc 1 496 24 is_stmt 1 discriminator 1
 2467 0f28 9307C000 		li	a5,12
 2468 0f2c 63E89702 		bgtu	s1,a5,.L148
 497:src/slabAllocator.cpp ****     {
 498:src/slabAllocator.cpp ****         slab = findSlab(slabAllocator->cachesBuffers[i], objp);
 2469              		.loc 1 498 9
 2470              		.loc 1 498 24 is_stmt 0
 2471 0f30 93973400 		slli	a5,s1,3
 2472 0f34 17070000 		ld	a4,.LANCHOR0
 2472      03370700 
 2473 0f3c B307F700 		add	a5,a4,a5
 2474 0f40 93050900 		mv	a1,s2
 2475 0f44 03B58700 		ld	a0,8(a5)
GAS LISTING /tmp/ccDSSFbw.s 			page 58


 2476              	.LVL250:
 2477 0f48 97000000 		call	_Z8findSlabP12kmem_cache_sPKv
 2477      E7800000 
 2478              	.LVL251:
 499:src/slabAllocator.cpp ****         if(slab != nullptr) break;
 2479              		.loc 1 499 9 is_stmt 1
 2480 0f50 63160500 		bnez	a0,.L148
 496:src/slabAllocator.cpp ****     {
 2481              		.loc 1 496 5 discriminator 2
 2482 0f54 93841400 		addi	s1,s1,1
 2483              	.LVL252:
 2484 0f58 6FF01FFD 		j	.L149
 2485              	.L148:
 2486              	.LBE26:
 500:src/slabAllocator.cpp ****     }
 501:src/slabAllocator.cpp ****     if(slab != nullptr)
 2487              		.loc 1 501 5
 2488 0f5c 63080500 		beqz	a0,.L146
 502:src/slabAllocator.cpp ****     {
 503:src/slabAllocator.cpp ****         free_slab_object(slab, objp);
 2489              		.loc 1 503 9
 2490              		.loc 1 503 25 is_stmt 0
 2491 0f60 93050900 		mv	a1,s2
 2492 0f64 97000000 		call	_Z16free_slab_objectP6slab_sPKv
 2492      E7800000 
 2493              	.LVL253:
 2494              	.L146:
 504:src/slabAllocator.cpp ****     }
 505:src/slabAllocator.cpp **** }
 2495              		.loc 1 505 1
 2496 0f6c 83308101 		ld	ra,24(sp)
 2497              		.cfi_restore 1
 2498 0f70 03340101 		ld	s0,16(sp)
 2499              		.cfi_restore 8
 2500              		.cfi_def_cfa 2, 32
 2501 0f74 83348100 		ld	s1,8(sp)
 2502              		.cfi_restore 9
 2503              	.LVL254:
 2504 0f78 03390100 		ld	s2,0(sp)
 2505              		.cfi_restore 18
 2506              	.LVL255:
 2507 0f7c 13010102 		addi	sp,sp,32
 2508              		.cfi_def_cfa_offset 0
 2509 0f80 67800000 		jr	ra
 2510              	.LVL256:
 2511              	.L151:
 2512 0f84 67800000 		ret
 2513              		.cfi_endproc
 2514              	.LFE33:
 2516              		.align	2
 2517              		.globl	_Z18kmem_cache_destroyP12kmem_cache_s
 2519              	_Z18kmem_cache_destroyP12kmem_cache_s:
 2520              	.LFB34:
 506:src/slabAllocator.cpp **** 
 507:src/slabAllocator.cpp **** void kmem_cache_destroy(kmem_cache_t *cachep)
 508:src/slabAllocator.cpp **** {
 2521              		.loc 1 508 1 is_stmt 1
GAS LISTING /tmp/ccDSSFbw.s 			page 59


 2522              		.cfi_startproc
 2523              	.LVL257:
 2524 0f88 130101FE 		addi	sp,sp,-32
 2525              		.cfi_def_cfa_offset 32
 2526 0f8c 233C1100 		sd	ra,24(sp)
 2527 0f90 23388100 		sd	s0,16(sp)
 2528 0f94 23349100 		sd	s1,8(sp)
 2529              		.cfi_offset 1, -8
 2530              		.cfi_offset 8, -16
 2531              		.cfi_offset 9, -24
 2532 0f98 13040102 		addi	s0,sp,32
 2533              		.cfi_def_cfa 8, 0
 2534 0f9c 93040500 		mv	s1,a0
 509:src/slabAllocator.cpp ****     if(cachep->slabs_partial != nullptr || cachep->slabs_full != nullptr)
 2535              		.loc 1 509 5
 2536              		.loc 1 509 16 is_stmt 0
 2537 0fa0 83370505 		ld	a5,80(a0)
 2538              		.loc 1 509 5
 2539 0fa4 63820702 		beqz	a5,.L159
 2540              	.L155:
 510:src/slabAllocator.cpp ****     {
 511:src/slabAllocator.cpp ****         cachep->errors|=DESTROY_ERROR;
 2541              		.loc 1 511 9 is_stmt 1
 2542              		.loc 1 511 23 is_stmt 0
 2543 0fa8 83A78407 		lw	a5,120(s1)
 2544 0fac 93E72700 		ori	a5,a5,2
 2545 0fb0 23ACF406 		sw	a5,120(s1)
 512:src/slabAllocator.cpp ****         return;
 2546              		.loc 1 512 9 is_stmt 1
 2547              	.LVL258:
 2548              	.L154:
 513:src/slabAllocator.cpp ****     }
 514:src/slabAllocator.cpp ****     destroy_slab_list(&cachep->slabs_empty);
 515:src/slabAllocator.cpp ****     destroy_slab_list(&cachep->slabs_partial);
 516:src/slabAllocator.cpp ****     destroy_slab_list(&cachep->slabs_full);
 517:src/slabAllocator.cpp ****     kmem_cache_free(&slabAllocator->cacheOfCaches,cachep);
 518:src/slabAllocator.cpp **** }
 2549              		.loc 1 518 1 is_stmt 0
 2550 0fb4 83308101 		ld	ra,24(sp)
 2551              		.cfi_remember_state
 2552              		.cfi_restore 1
 2553 0fb8 03340101 		ld	s0,16(sp)
 2554              		.cfi_restore 8
 2555              		.cfi_def_cfa 2, 32
 2556 0fbc 83348100 		ld	s1,8(sp)
 2557              		.cfi_restore 9
 2558              	.LVL259:
 2559 0fc0 13010102 		addi	sp,sp,32
 2560              		.cfi_def_cfa_offset 0
 2561 0fc4 67800000 		jr	ra
 2562              	.LVL260:
 2563              	.L159:
 2564              		.cfi_restore_state
 509:src/slabAllocator.cpp ****     {
 2565              		.loc 1 509 52 discriminator 1
 2566 0fc8 83378504 		ld	a5,72(a0)
 509:src/slabAllocator.cpp ****     {
GAS LISTING /tmp/ccDSSFbw.s 			page 60


 2567              		.loc 1 509 41 discriminator 1
 2568 0fcc E39E07FC 		bnez	a5,.L155
 514:src/slabAllocator.cpp ****     destroy_slab_list(&cachep->slabs_partial);
 2569              		.loc 1 514 5 is_stmt 1
 514:src/slabAllocator.cpp ****     destroy_slab_list(&cachep->slabs_partial);
 2570              		.loc 1 514 22 is_stmt 0
 2571 0fd0 13050504 		addi	a0,a0,64
 2572 0fd4 97000000 		call	_Z17destroy_slab_listPP6slab_s
 2572      E7800000 
 2573              	.LVL261:
 515:src/slabAllocator.cpp ****     destroy_slab_list(&cachep->slabs_full);
 2574              		.loc 1 515 5 is_stmt 1
 515:src/slabAllocator.cpp ****     destroy_slab_list(&cachep->slabs_full);
 2575              		.loc 1 515 22 is_stmt 0
 2576 0fdc 13850405 		addi	a0,s1,80
 2577 0fe0 97000000 		call	_Z17destroy_slab_listPP6slab_s
 2577      E7800000 
 2578              	.LVL262:
 516:src/slabAllocator.cpp ****     kmem_cache_free(&slabAllocator->cacheOfCaches,cachep);
 2579              		.loc 1 516 5 is_stmt 1
 516:src/slabAllocator.cpp ****     kmem_cache_free(&slabAllocator->cacheOfCaches,cachep);
 2580              		.loc 1 516 22 is_stmt 0
 2581 0fe8 13858404 		addi	a0,s1,72
 2582 0fec 97000000 		call	_Z17destroy_slab_listPP6slab_s
 2582      E7800000 
 2583              	.LVL263:
 517:src/slabAllocator.cpp **** }
 2584              		.loc 1 517 5 is_stmt 1
 517:src/slabAllocator.cpp **** }
 2585              		.loc 1 517 20 is_stmt 0
 2586 0ff4 93850400 		mv	a1,s1
 2587 0ff8 17050000 		ld	a0,.LANCHOR0
 2587      03350500 
 2588 1000 13050507 		addi	a0,a0,112
 2589 1004 97000000 		call	_Z15kmem_cache_freeP12kmem_cache_sPv
 2589      E7800000 
 2590              	.LVL264:
 2591 100c 6FF09FFA 		j	.L154
 2592              		.cfi_endproc
 2593              	.LFE34:
 2595              		.align	2
 2596              		.globl	_Z17kmem_cache_shrinkP12kmem_cache_s
 2598              	_Z17kmem_cache_shrinkP12kmem_cache_s:
 2599              	.LFB35:
 519:src/slabAllocator.cpp **** 
 520:src/slabAllocator.cpp **** int kmem_cache_shrink(kmem_cache_t *cachep)
 521:src/slabAllocator.cpp **** {
 2600              		.loc 1 521 1 is_stmt 1
 2601              		.cfi_startproc
 2602              	.LVL265:
 522:src/slabAllocator.cpp ****     if(cachep == nullptr)
 2603              		.loc 1 522 5
 2604 1010 63080502 		beqz	a0,.L162
 521:src/slabAllocator.cpp ****     if(cachep == nullptr)
 2605              		.loc 1 521 1 is_stmt 0
 2606 1014 130101FF 		addi	sp,sp,-16
 2607              		.cfi_def_cfa_offset 16
GAS LISTING /tmp/ccDSSFbw.s 			page 61


 2608 1018 23341100 		sd	ra,8(sp)
 2609 101c 23308100 		sd	s0,0(sp)
 2610              		.cfi_offset 1, -8
 2611              		.cfi_offset 8, -16
 2612 1020 13040101 		addi	s0,sp,16
 2613              		.cfi_def_cfa 8, 0
 523:src/slabAllocator.cpp ****         return 0;
 524:src/slabAllocator.cpp ****     int totalBlocks = destroy_slab_list(&cachep->slabs_empty);
 2614              		.loc 1 524 5 is_stmt 1
 2615              		.loc 1 524 40 is_stmt 0
 2616 1024 13050504 		addi	a0,a0,64
 2617              	.LVL266:
 2618 1028 97000000 		call	_Z17destroy_slab_listPP6slab_s
 2618      E7800000 
 2619              	.LVL267:
 525:src/slabAllocator.cpp ****     return totalBlocks;
 2620              		.loc 1 525 5 is_stmt 1
 526:src/slabAllocator.cpp **** }
 2621              		.loc 1 526 1 is_stmt 0
 2622 1030 83308100 		ld	ra,8(sp)
 2623              		.cfi_restore 1
 2624 1034 03340100 		ld	s0,0(sp)
 2625              		.cfi_restore 8
 2626              		.cfi_def_cfa 2, 16
 2627 1038 13010101 		addi	sp,sp,16
 2628              		.cfi_def_cfa_offset 0
 2629 103c 67800000 		jr	ra
 2630              	.LVL268:
 2631              	.L162:
 523:src/slabAllocator.cpp ****         return 0;
 2632              		.loc 1 523 16
 2633 1040 13050000 		li	a0,0
 2634              	.LVL269:
 2635              		.loc 1 526 1
 2636 1044 67800000 		ret
 2637              		.cfi_endproc
 2638              	.LFE35:
 2640              		.section	.rodata.str1.8
 2641              		.align	3
 2642              	.LC20:
 2643 0220 45585041 		.string	"EXPAND ERROR\n"
 2643      4E442045 
 2643      52524F52 
 2643      0A00
 2644 022e 0000     		.align	3
 2645              	.LC21:
 2646 0230 44455354 		.string	"DESTROY ERROR"
 2646      524F5920 
 2646      4552524F 
 2646      5200
 2647              		.text
 2648              		.align	2
 2649              		.globl	_Z16kmem_cache_errorP12kmem_cache_s
 2651              	_Z16kmem_cache_errorP12kmem_cache_s:
 2652              	.LFB36:
 527:src/slabAllocator.cpp **** 
 528:src/slabAllocator.cpp **** int kmem_cache_error(kmem_cache_t *cachep)
GAS LISTING /tmp/ccDSSFbw.s 			page 62


 529:src/slabAllocator.cpp **** {
 2653              		.loc 1 529 1 is_stmt 1
 2654              		.cfi_startproc
 2655              	.LVL270:
 530:src/slabAllocator.cpp ****     if(cachep == nullptr)
 2656              		.loc 1 530 5
 2657 1048 630A0506 		beqz	a0,.L171
 529:src/slabAllocator.cpp ****     if(cachep == nullptr)
 2658              		.loc 1 529 1 is_stmt 0
 2659 104c 130101FE 		addi	sp,sp,-32
 2660              		.cfi_def_cfa_offset 32
 2661 1050 233C1100 		sd	ra,24(sp)
 2662 1054 23388100 		sd	s0,16(sp)
 2663 1058 23349100 		sd	s1,8(sp)
 2664              		.cfi_offset 1, -8
 2665              		.cfi_offset 8, -16
 2666              		.cfi_offset 9, -24
 2667 105c 13040102 		addi	s0,sp,32
 2668              		.cfi_def_cfa 8, 0
 2669 1060 93040500 		mv	s1,a0
 531:src/slabAllocator.cpp ****         return 0;
 532:src/slabAllocator.cpp **** 
 533:src/slabAllocator.cpp ****     if(cachep->errors & EXPAND_ERROR)
 2670              		.loc 1 533 5 is_stmt 1
 2671              		.loc 1 533 16 is_stmt 0
 2672 1064 83278507 		lw	a5,120(a0)
 2673              		.loc 1 533 23
 2674 1068 93F71700 		andi	a5,a5,1
 2675              		.loc 1 533 5
 2676 106c 63940702 		bnez	a5,.L176
 2677              	.LVL271:
 2678              	.L169:
 534:src/slabAllocator.cpp ****         KConsole::trapPrintString("EXPAND ERROR\n");
 535:src/slabAllocator.cpp ****     if(cachep->errors & DESTROY_ERROR)
 2679              		.loc 1 535 5 is_stmt 1
 2680              		.loc 1 535 16 is_stmt 0
 2681 1070 83A78407 		lw	a5,120(s1)
 2682              		.loc 1 535 23
 2683 1074 93F72700 		andi	a5,a5,2
 2684              		.loc 1 535 5
 2685 1078 63980702 		bnez	a5,.L177
 2686              	.L170:
 536:src/slabAllocator.cpp ****         KConsole::trapPrintString("DESTROY ERROR");
 537:src/slabAllocator.cpp **** 
 538:src/slabAllocator.cpp ****     return cachep->errors;
 2687              		.loc 1 538 5 is_stmt 1
 2688              		.loc 1 538 20 is_stmt 0
 2689 107c 03A58407 		lw	a0,120(s1)
 539:src/slabAllocator.cpp **** }
 2690              		.loc 1 539 1
 2691 1080 83308101 		ld	ra,24(sp)
 2692              		.cfi_remember_state
 2693              		.cfi_restore 1
 2694 1084 03340101 		ld	s0,16(sp)
 2695              		.cfi_restore 8
 2696              		.cfi_def_cfa 2, 32
 2697 1088 83348100 		ld	s1,8(sp)
GAS LISTING /tmp/ccDSSFbw.s 			page 63


 2698              		.cfi_restore 9
 2699              	.LVL272:
 2700 108c 13010102 		addi	sp,sp,32
 2701              		.cfi_def_cfa_offset 0
 2702 1090 67800000 		jr	ra
 2703              	.LVL273:
 2704              	.L176:
 2705              		.cfi_restore_state
 534:src/slabAllocator.cpp ****         KConsole::trapPrintString("EXPAND ERROR\n");
 2706              		.loc 1 534 9 is_stmt 1
 534:src/slabAllocator.cpp ****         KConsole::trapPrintString("EXPAND ERROR\n");
 2707              		.loc 1 534 34 is_stmt 0
 2708 1094 17050000 		lla	a0,.LC20
 2708      13050500 
 2709 109c 97000000 		call	_ZN8KConsole15trapPrintStringEPKc@plt
 2709      E7800000 
 2710              	.LVL274:
 2711 10a4 6FF0DFFC 		j	.L169
 2712              	.L177:
 536:src/slabAllocator.cpp ****         KConsole::trapPrintString("DESTROY ERROR");
 2713              		.loc 1 536 9 is_stmt 1
 536:src/slabAllocator.cpp ****         KConsole::trapPrintString("DESTROY ERROR");
 2714              		.loc 1 536 34 is_stmt 0
 2715 10a8 17050000 		lla	a0,.LC21
 2715      13050500 
 2716 10b0 97000000 		call	_ZN8KConsole15trapPrintStringEPKc@plt
 2716      E7800000 
 2717              	.LVL275:
 2718 10b8 6FF05FFC 		j	.L170
 2719              	.LVL276:
 2720              	.L171:
 2721              		.cfi_def_cfa_register 2
 2722              		.cfi_restore 1
 2723              		.cfi_restore 8
 2724              		.cfi_restore 9
 531:src/slabAllocator.cpp **** 
 2725              		.loc 1 531 16
 2726 10bc 13050000 		li	a0,0
 2727              	.LVL277:
 2728              		.loc 1 539 1
 2729 10c0 67800000 		ret
 2730              		.cfi_endproc
 2731              	.LFE36:
 2733              		.bss
 2734              		.align	3
 2735              		.set	.LANCHOR0,. + 0
 2738              	_ZL13slabAllocator:
 2739 0000 00000000 		.zero	8
 2739      00000000 
 2740              		.text
 2741              	.Letext0:
 2742              		.file 2 "src/../h/../lib/hw.h"
 2743              		.file 3 "src/../h/slabAllocator.hpp"
 2744              		.file 4 "src/../h/buddyAllocator.hpp"
 2745              		.file 5 "src/../h/PCB.hpp"
 2746              		.file 6 "src/../h/KSemaphore.hpp"
 2747              		.file 7 "src/../h/KConsole.hpp"
GAS LISTING /tmp/ccDSSFbw.s 			page 64


GAS LISTING /tmp/ccDSSFbw.s 			page 65


DEFINED SYMBOLS
                            *ABS*:0000000000000000 slabAllocator.cpp
     /tmp/ccDSSFbw.s:9      .text:0000000000000000 _Z6strcpyPKcPc
     /tmp/ccDSSFbw.s:13     .text:0000000000000000 .L0 
     /tmp/ccDSSFbw.s:15     .text:0000000000000000 .L0 
     /tmp/ccDSSFbw.s:16     .text:0000000000000004 .L0 
     /tmp/ccDSSFbw.s:18     .text:0000000000000008 .L0 
     /tmp/ccDSSFbw.s:20     .text:000000000000000c .L0 
     /tmp/ccDSSFbw.s:23     .text:000000000000000c .L0 
     /tmp/ccDSSFbw.s:24     .text:000000000000000c .L0 
     /tmp/ccDSSFbw.s:25     .text:000000000000000c .L0 
     /tmp/ccDSSFbw.s:27     .text:0000000000000010 .L0 
     /tmp/ccDSSFbw.s:29     .text:0000000000000014 .L0 
     /tmp/ccDSSFbw.s:30     .text:0000000000000014 .L0 
     /tmp/ccDSSFbw.s:32     .text:0000000000000018 .L0 
     /tmp/ccDSSFbw.s:33     .text:0000000000000018 .L0 
     /tmp/ccDSSFbw.s:36     .text:000000000000001c .L0 
     /tmp/ccDSSFbw.s:37     .text:000000000000001c .L0 
     /tmp/ccDSSFbw.s:40     .text:0000000000000020 .L0 
     /tmp/ccDSSFbw.s:43     .text:0000000000000024 .L0 
     /tmp/ccDSSFbw.s:44     .text:0000000000000024 .L0 
     /tmp/ccDSSFbw.s:46     .text:0000000000000028 .L0 
     /tmp/ccDSSFbw.s:47     .text:000000000000002c .L0 
     /tmp/ccDSSFbw.s:48     .text:000000000000002c .L0 
     /tmp/ccDSSFbw.s:50     .text:0000000000000030 .L0 
     /tmp/ccDSSFbw.s:52     .text:0000000000000034 .L0 
     /tmp/ccDSSFbw.s:58     .text:0000000000000034 _Z17destroy_slab_listPP6slab_s
     /tmp/ccDSSFbw.s:61     .text:0000000000000034 .L0 
     /tmp/ccDSSFbw.s:63     .text:0000000000000034 .L0 
     /tmp/ccDSSFbw.s:64     .text:0000000000000038 .L0 
     /tmp/ccDSSFbw.s:71     .text:0000000000000050 .L0 
     /tmp/ccDSSFbw.s:72     .text:0000000000000050 .L0 
     /tmp/ccDSSFbw.s:73     .text:0000000000000050 .L0 
     /tmp/ccDSSFbw.s:74     .text:0000000000000050 .L0 
     /tmp/ccDSSFbw.s:75     .text:0000000000000050 .L0 
     /tmp/ccDSSFbw.s:76     .text:0000000000000050 .L0 
     /tmp/ccDSSFbw.s:78     .text:0000000000000054 .L0 
     /tmp/ccDSSFbw.s:80     .text:0000000000000054 .L0 
     /tmp/ccDSSFbw.s:83     .text:000000000000005c .L0 
     /tmp/ccDSSFbw.s:84     .text:000000000000005c .L0 
     /tmp/ccDSSFbw.s:86     .text:0000000000000060 .L0 
     /tmp/ccDSSFbw.s:88     .text:0000000000000064 .L0 
     /tmp/ccDSSFbw.s:91     .text:0000000000000068 .L0 
     /tmp/ccDSSFbw.s:92     .text:0000000000000068 .L0 
     /tmp/ccDSSFbw.s:96     .text:000000000000006c .L0 
     /tmp/ccDSSFbw.s:97     .text:000000000000006c .L0 
     /tmp/ccDSSFbw.s:98     .text:000000000000006c .L0 
     /tmp/ccDSSFbw.s:100    .text:0000000000000070 .L0 
     /tmp/ccDSSFbw.s:103    .text:0000000000000074 .L0 
     /tmp/ccDSSFbw.s:104    .text:0000000000000074 .L0 
     /tmp/ccDSSFbw.s:107    .text:0000000000000078 .L0 
     /tmp/ccDSSFbw.s:108    .text:0000000000000078 .L0 
     /tmp/ccDSSFbw.s:114    .text:0000000000000090 .L0 
     /tmp/ccDSSFbw.s:115    .text:0000000000000090 .L0 
     /tmp/ccDSSFbw.s:117    .text:0000000000000094 .L0 
     /tmp/ccDSSFbw.s:118    .text:0000000000000094 .L0 
     /tmp/ccDSSFbw.s:122    .text:0000000000000098 .L0 
GAS LISTING /tmp/ccDSSFbw.s 			page 66


     /tmp/ccDSSFbw.s:126    .text:000000000000009c .L0 
     /tmp/ccDSSFbw.s:130    .text:00000000000000a0 .L0 
     /tmp/ccDSSFbw.s:132    .text:00000000000000a8 .L0 
     /tmp/ccDSSFbw.s:134    .text:00000000000000ac .L0 
     /tmp/ccDSSFbw.s:135    .text:00000000000000ac .L0 
     /tmp/ccDSSFbw.s:137    .text:00000000000000b0 .L0 
     /tmp/ccDSSFbw.s:139    .text:00000000000000b4 .L0 
     /tmp/ccDSSFbw.s:141    .text:00000000000000b8 .L0 
     /tmp/ccDSSFbw.s:143    .text:00000000000000bc .L0 
     /tmp/ccDSSFbw.s:145    .text:00000000000000c0 .L0 
     /tmp/ccDSSFbw.s:147    .text:00000000000000c4 .L0 
     /tmp/ccDSSFbw.s:153    .text:00000000000000c4 _Z10init_cacheP12kmem_cache_sPKcmmPFvPvES5_
     /tmp/ccDSSFbw.s:156    .text:00000000000000c4 .L0 
     /tmp/ccDSSFbw.s:158    .text:00000000000000c4 .L0 
     /tmp/ccDSSFbw.s:159    .text:00000000000000c8 .L0 
     /tmp/ccDSSFbw.s:167    .text:00000000000000e4 .L0 
     /tmp/ccDSSFbw.s:168    .text:00000000000000e4 .L0 
     /tmp/ccDSSFbw.s:169    .text:00000000000000e4 .L0 
     /tmp/ccDSSFbw.s:170    .text:00000000000000e4 .L0 
     /tmp/ccDSSFbw.s:171    .text:00000000000000e4 .L0 
     /tmp/ccDSSFbw.s:172    .text:00000000000000e4 .L0 
     /tmp/ccDSSFbw.s:173    .text:00000000000000e4 .L0 
     /tmp/ccDSSFbw.s:175    .text:00000000000000e8 .L0 
     /tmp/ccDSSFbw.s:184    .text:0000000000000100 .L0 
     /tmp/ccDSSFbw.s:185    .text:0000000000000100 .L0 
     /tmp/ccDSSFbw.s:190    .text:000000000000010c .L0 
     /tmp/ccDSSFbw.s:191    .text:000000000000010c .L0 
     /tmp/ccDSSFbw.s:193    .text:0000000000000110 .L0 
     /tmp/ccDSSFbw.s:194    .text:0000000000000110 .L0 
     /tmp/ccDSSFbw.s:196    .text:0000000000000114 .L0 
     /tmp/ccDSSFbw.s:197    .text:0000000000000114 .L0 
     /tmp/ccDSSFbw.s:199    .text:0000000000000118 .L0 
     /tmp/ccDSSFbw.s:200    .text:0000000000000118 .L0 
     /tmp/ccDSSFbw.s:202    .text:000000000000011c .L0 
     /tmp/ccDSSFbw.s:203    .text:000000000000011c .L0 
     /tmp/ccDSSFbw.s:205    .text:0000000000000120 .L0 
     /tmp/ccDSSFbw.s:207    .text:0000000000000124 .L0 
     /tmp/ccDSSFbw.s:209    .text:0000000000000128 .L0 
     /tmp/ccDSSFbw.s:210    .text:0000000000000128 .L0 
     /tmp/ccDSSFbw.s:212    .text:000000000000012c .L0 
     /tmp/ccDSSFbw.s:213    .text:0000000000000130 .L0 
     /tmp/ccDSSFbw.s:215    .text:0000000000000134 .L0 
     /tmp/ccDSSFbw.s:216    .text:0000000000000134 .L0 
     /tmp/ccDSSFbw.s:218    .text:0000000000000138 .L0 
     /tmp/ccDSSFbw.s:221    .text:000000000000013c .L0 
     /tmp/ccDSSFbw.s:224    .text:0000000000000140 .L0 
     /tmp/ccDSSFbw.s:227    .text:0000000000000144 .L0 
     /tmp/ccDSSFbw.s:230    .text:0000000000000148 .L0 
     /tmp/ccDSSFbw.s:233    .text:000000000000014c .L0 
     /tmp/ccDSSFbw.s:235    .text:0000000000000150 .L0 
     /tmp/ccDSSFbw.s:246    .text:0000000000000150 _Z19slab_allocator_initP14buddyAllocator
     /tmp/ccDSSFbw.s:249    .text:0000000000000150 .L0 
     /tmp/ccDSSFbw.s:251    .text:0000000000000150 .L0 
     /tmp/ccDSSFbw.s:252    .text:0000000000000154 .L0 
     /tmp/ccDSSFbw.s:256    .text:0000000000000160 .L0 
     /tmp/ccDSSFbw.s:257    .text:0000000000000160 .L0 
     /tmp/ccDSSFbw.s:258    .text:0000000000000160 .L0 
GAS LISTING /tmp/ccDSSFbw.s 			page 67


     /tmp/ccDSSFbw.s:260    .text:0000000000000164 .L0 
     /tmp/ccDSSFbw.s:262    .text:0000000000000164 .L0 
     /tmp/ccDSSFbw.s:263    .text:0000000000000164 .L0 
     /tmp/ccDSSFbw.s:266    .text:0000000000000168 .L0 
     /tmp/ccDSSFbw.s:267    .text:0000000000000168 .L0 
     /tmp/ccDSSFbw.s:271    .text:000000000000016c .L0 
     /tmp/ccDSSFbw.s:272    .text:000000000000016c .L0 
     /tmp/ccDSSFbw.s:277    .text:0000000000000174 .L0 
     /tmp/ccDSSFbw.s:278    .text:0000000000000174 .L0 
     /tmp/ccDSSFbw.s:282    .text:0000000000000180 .L0 
     /tmp/ccDSSFbw.s:286    .text:0000000000000184 .L0 
     /tmp/ccDSSFbw.s:290    .text:000000000000018c .L0 
     /tmp/ccDSSFbw.s:291    .text:000000000000018c .L0 
     /tmp/ccDSSFbw.s:302    .text:00000000000001b0 .L0 
     /tmp/ccDSSFbw.s:303    .text:00000000000001b0 .L0 
     /tmp/ccDSSFbw.s:305    .text:00000000000001b8 .L0 
     /tmp/ccDSSFbw.s:307    .text:00000000000001bc .L0 
     /tmp/ccDSSFbw.s:308    .text:00000000000001bc .L0 
     /tmp/ccDSSFbw.s:310    .text:00000000000001c0 .L0 
     /tmp/ccDSSFbw.s:313    .text:00000000000001c4 .L0 
     /tmp/ccDSSFbw.s:315    .text:00000000000001c8 .L0 
     /tmp/ccDSSFbw.s:321    .text:00000000000001c8 _Z13checkSetIndexP6slab_si
     /tmp/ccDSSFbw.s:324    .text:00000000000001c8 .L0 
     /tmp/ccDSSFbw.s:326    .text:00000000000001c8 .L0 
     /tmp/ccDSSFbw.s:327    .text:00000000000001cc .L0 
     /tmp/ccDSSFbw.s:329    .text:00000000000001d0 .L0 
     /tmp/ccDSSFbw.s:331    .text:00000000000001d4 .L0 
     /tmp/ccDSSFbw.s:333    .text:00000000000001d4 .L0 
     /tmp/ccDSSFbw.s:334    .text:00000000000001d4 .L0 
     /tmp/ccDSSFbw.s:340    .text:00000000000001e4 .L0 
     /tmp/ccDSSFbw.s:343    .text:00000000000001e8 .L0 
     /tmp/ccDSSFbw.s:345    .text:00000000000001ec .L0 
     /tmp/ccDSSFbw.s:348    .text:00000000000001f4 .L0 
     /tmp/ccDSSFbw.s:350    .text:00000000000001f8 .L0 
     /tmp/ccDSSFbw.s:352    .text:0000000000000200 .L0 
     /tmp/ccDSSFbw.s:353    .text:0000000000000200 .L0 
     /tmp/ccDSSFbw.s:355    .text:0000000000000204 .L0 
     /tmp/ccDSSFbw.s:357    .text:0000000000000208 .L0 
     /tmp/ccDSSFbw.s:363    .text:0000000000000208 _Z17setAllocatedIndexP6slab_si
     /tmp/ccDSSFbw.s:366    .text:0000000000000208 .L0 
     /tmp/ccDSSFbw.s:368    .text:0000000000000208 .L0 
     /tmp/ccDSSFbw.s:369    .text:000000000000020c .L0 
     /tmp/ccDSSFbw.s:371    .text:0000000000000210 .L0 
     /tmp/ccDSSFbw.s:373    .text:0000000000000214 .L0 
     /tmp/ccDSSFbw.s:375    .text:0000000000000214 .L0 
     /tmp/ccDSSFbw.s:376    .text:0000000000000214 .L0 
     /tmp/ccDSSFbw.s:382    .text:0000000000000224 .L0 
     /tmp/ccDSSFbw.s:385    .text:0000000000000228 .L0 
     /tmp/ccDSSFbw.s:387    .text:000000000000022c .L0 
     /tmp/ccDSSFbw.s:390    .text:0000000000000234 .L0 
     /tmp/ccDSSFbw.s:393    .text:000000000000023c .L0 
     /tmp/ccDSSFbw.s:395    .text:0000000000000240 .L0 
     /tmp/ccDSSFbw.s:397    .text:0000000000000244 .L0 
     /tmp/ccDSSFbw.s:398    .text:0000000000000248 .L0 
     /tmp/ccDSSFbw.s:399    .text:0000000000000248 .L0 
     /tmp/ccDSSFbw.s:401    .text:000000000000024c .L0 
     /tmp/ccDSSFbw.s:403    .text:0000000000000250 .L0 
GAS LISTING /tmp/ccDSSFbw.s 			page 68


     /tmp/ccDSSFbw.s:409    .text:0000000000000250 _Z14allocateObjectP6slab_s
     /tmp/ccDSSFbw.s:412    .text:0000000000000250 .L0 
     /tmp/ccDSSFbw.s:414    .text:0000000000000250 .L0 
     /tmp/ccDSSFbw.s:415    .text:0000000000000254 .L0 
     /tmp/ccDSSFbw.s:421    .text:0000000000000268 .L0 
     /tmp/ccDSSFbw.s:422    .text:0000000000000268 .L0 
     /tmp/ccDSSFbw.s:423    .text:0000000000000268 .L0 
     /tmp/ccDSSFbw.s:424    .text:0000000000000268 .L0 
     /tmp/ccDSSFbw.s:425    .text:0000000000000268 .L0 
     /tmp/ccDSSFbw.s:427    .text:000000000000026c .L0 
     /tmp/ccDSSFbw.s:430    .text:0000000000000270 .L0 
     /tmp/ccDSSFbw.s:433    .text:0000000000000274 .L0 
     /tmp/ccDSSFbw.s:437    .text:0000000000000278 .L0 
     /tmp/ccDSSFbw.s:438    .text:0000000000000278 .L0 
     /tmp/ccDSSFbw.s:440    .text:000000000000027c .L0 
     /tmp/ccDSSFbw.s:442    .text:0000000000000280 .L0 
     /tmp/ccDSSFbw.s:443    .text:0000000000000280 .L0 
     /tmp/ccDSSFbw.s:449    .text:0000000000000294 .L0 
     /tmp/ccDSSFbw.s:451    .text:0000000000000298 .L0 
     /tmp/ccDSSFbw.s:456    .text:00000000000002a0 .L0 
     /tmp/ccDSSFbw.s:457    .text:00000000000002a0 .L0 
     /tmp/ccDSSFbw.s:459    .text:00000000000002a4 .L0 
     /tmp/ccDSSFbw.s:461    .text:00000000000002a8 .L0 
     /tmp/ccDSSFbw.s:464    .text:00000000000002ac .L0 
     /tmp/ccDSSFbw.s:468    .text:00000000000002b4 .L0 
     /tmp/ccDSSFbw.s:469    .text:00000000000002b4 .L0 
     /tmp/ccDSSFbw.s:474    .text:00000000000002b8 .L0 
     /tmp/ccDSSFbw.s:477    .text:00000000000002bc .L0 
     /tmp/ccDSSFbw.s:481    .text:00000000000002c0 .L0 
     /tmp/ccDSSFbw.s:483    .text:00000000000002c4 .L0 
     /tmp/ccDSSFbw.s:484    .text:00000000000002c4 .L0 
     /tmp/ccDSSFbw.s:489    .text:00000000000002d4 .L0 
     /tmp/ccDSSFbw.s:490    .text:00000000000002d4 .L0 
     /tmp/ccDSSFbw.s:492    .text:00000000000002d8 .L0 
     /tmp/ccDSSFbw.s:497    .text:00000000000002e0 .L0 
     /tmp/ccDSSFbw.s:498    .text:00000000000002e0 .L0 
     /tmp/ccDSSFbw.s:500    .text:00000000000002e8 .L0 
     /tmp/ccDSSFbw.s:501    .text:00000000000002e8 .L0 
     /tmp/ccDSSFbw.s:503    .text:00000000000002ec .L0 
     /tmp/ccDSSFbw.s:504    .text:00000000000002ec .L0 
     /tmp/ccDSSFbw.s:506    .text:00000000000002f0 .L0 
     /tmp/ccDSSFbw.s:508    .text:00000000000002f4 .L0 
     /tmp/ccDSSFbw.s:511    .text:00000000000002f8 .L0 
     /tmp/ccDSSFbw.s:513    .text:00000000000002fc .L0 
     /tmp/ccDSSFbw.s:517    .text:0000000000000300 .L0 
     /tmp/ccDSSFbw.s:519    .text:0000000000000300 .L0 
     /tmp/ccDSSFbw.s:521    .text:0000000000000308 .L0 
     /tmp/ccDSSFbw.s:527    .text:0000000000000308 _Z4fullP6slab_s
     /tmp/ccDSSFbw.s:530    .text:0000000000000308 .L0 
     /tmp/ccDSSFbw.s:532    .text:0000000000000308 .L0 
     /tmp/ccDSSFbw.s:533    .text:000000000000030c .L0 
     /tmp/ccDSSFbw.s:535    .text:0000000000000310 .L0 
     /tmp/ccDSSFbw.s:537    .text:0000000000000314 .L0 
     /tmp/ccDSSFbw.s:539    .text:0000000000000314 .L0 
     /tmp/ccDSSFbw.s:540    .text:0000000000000314 .L0 
     /tmp/ccDSSFbw.s:542    .text:0000000000000318 .L0 
     /tmp/ccDSSFbw.s:546    .text:0000000000000320 .L0 
GAS LISTING /tmp/ccDSSFbw.s 			page 69


     /tmp/ccDSSFbw.s:548    .text:0000000000000328 .L0 
     /tmp/ccDSSFbw.s:549    .text:0000000000000328 .L0 
     /tmp/ccDSSFbw.s:551    .text:000000000000032c .L0 
     /tmp/ccDSSFbw.s:553    .text:0000000000000330 .L0 
     /tmp/ccDSSFbw.s:559    .text:0000000000000330 _Z5emptyP6slab_s
     /tmp/ccDSSFbw.s:562    .text:0000000000000330 .L0 
     /tmp/ccDSSFbw.s:564    .text:0000000000000330 .L0 
     /tmp/ccDSSFbw.s:565    .text:0000000000000334 .L0 
     /tmp/ccDSSFbw.s:567    .text:0000000000000338 .L0 
     /tmp/ccDSSFbw.s:569    .text:000000000000033c .L0 
     /tmp/ccDSSFbw.s:571    .text:000000000000033c .L0 
     /tmp/ccDSSFbw.s:572    .text:000000000000033c .L0 
     /tmp/ccDSSFbw.s:575    .text:0000000000000340 .L0 
     /tmp/ccDSSFbw.s:577    .text:0000000000000348 .L0 
     /tmp/ccDSSFbw.s:578    .text:0000000000000348 .L0 
     /tmp/ccDSSFbw.s:580    .text:000000000000034c .L0 
     /tmp/ccDSSFbw.s:582    .text:0000000000000350 .L0 
     /tmp/ccDSSFbw.s:588    .text:0000000000000350 _Z18insertIntoSlabListP6slab_sPS0_
     /tmp/ccDSSFbw.s:591    .text:0000000000000350 .L0 
     /tmp/ccDSSFbw.s:593    .text:0000000000000350 .L0 
     /tmp/ccDSSFbw.s:594    .text:0000000000000354 .L0 
     /tmp/ccDSSFbw.s:596    .text:0000000000000358 .L0 
     /tmp/ccDSSFbw.s:598    .text:000000000000035c .L0 
     /tmp/ccDSSFbw.s:600    .text:000000000000035c .L0 
     /tmp/ccDSSFbw.s:602    .text:0000000000000360 .L0 
     /tmp/ccDSSFbw.s:603    .text:0000000000000360 .L0 
     /tmp/ccDSSFbw.s:605    .text:0000000000000364 .L0 
     /tmp/ccDSSFbw.s:606    .text:0000000000000364 .L0 
     /tmp/ccDSSFbw.s:608    .text:0000000000000368 .L0 
     /tmp/ccDSSFbw.s:610    .text:000000000000036c .L0 
     /tmp/ccDSSFbw.s:612    .text:0000000000000370 .L0 
     /tmp/ccDSSFbw.s:613    .text:0000000000000370 .L0 
     /tmp/ccDSSFbw.s:616    .text:0000000000000374 .L0 
     /tmp/ccDSSFbw.s:617    .text:0000000000000374 .L0 
     /tmp/ccDSSFbw.s:620    .text:0000000000000378 .L0 
     /tmp/ccDSSFbw.s:621    .text:000000000000037c .L0 
     /tmp/ccDSSFbw.s:622    .text:000000000000037c .L0 
     /tmp/ccDSSFbw.s:624    .text:0000000000000380 .L0 
     /tmp/ccDSSFbw.s:626    .text:0000000000000384 .L0 
     /tmp/ccDSSFbw.s:632    .text:0000000000000384 _Z18removeFromSlabListP6slab_sPS0_
     /tmp/ccDSSFbw.s:635    .text:0000000000000384 .L0 
     /tmp/ccDSSFbw.s:637    .text:0000000000000384 .L0 
     /tmp/ccDSSFbw.s:638    .text:0000000000000388 .L0 
     /tmp/ccDSSFbw.s:640    .text:000000000000038c .L0 
     /tmp/ccDSSFbw.s:642    .text:0000000000000390 .L0 
     /tmp/ccDSSFbw.s:644    .text:0000000000000390 .L0 
     /tmp/ccDSSFbw.s:645    .text:0000000000000390 .L0 
     /tmp/ccDSSFbw.s:647    .text:0000000000000394 .L0 
     /tmp/ccDSSFbw.s:649    .text:0000000000000398 .L0 
     /tmp/ccDSSFbw.s:650    .text:0000000000000398 .L0 
     /tmp/ccDSSFbw.s:652    .text:000000000000039c .L0 
     /tmp/ccDSSFbw.s:654    .text:00000000000003a0 .L0 
     /tmp/ccDSSFbw.s:656    .text:00000000000003a4 .L0 
     /tmp/ccDSSFbw.s:657    .text:00000000000003a4 .L0 
     /tmp/ccDSSFbw.s:659    .text:00000000000003a8 .L0 
     /tmp/ccDSSFbw.s:662    .text:00000000000003ac .L0 
     /tmp/ccDSSFbw.s:663    .text:00000000000003ac .L0 
GAS LISTING /tmp/ccDSSFbw.s 			page 70


     /tmp/ccDSSFbw.s:665    .text:00000000000003b0 .L0 
     /tmp/ccDSSFbw.s:668    .text:00000000000003b4 .L0 
     /tmp/ccDSSFbw.s:669    .text:00000000000003b8 .L0 
     /tmp/ccDSSFbw.s:670    .text:00000000000003b8 .L0 
     /tmp/ccDSSFbw.s:671    .text:00000000000003b8 .L0 
     /tmp/ccDSSFbw.s:673    .text:00000000000003bc .L0 
     /tmp/ccDSSFbw.s:676    .text:00000000000003c0 .L0 
     /tmp/ccDSSFbw.s:678    .text:00000000000003c0 .L0 
     /tmp/ccDSSFbw.s:679    .text:00000000000003c0 .L0 
     /tmp/ccDSSFbw.s:681    .text:00000000000003c4 .L0 
     /tmp/ccDSSFbw.s:683    .text:00000000000003c8 .L0 
     /tmp/ccDSSFbw.s:684    .text:00000000000003c8 .L0 
     /tmp/ccDSSFbw.s:687    .text:00000000000003cc .L0 
     /tmp/ccDSSFbw.s:688    .text:00000000000003cc .L0 
     /tmp/ccDSSFbw.s:690    .text:00000000000003d0 .L0 
     /tmp/ccDSSFbw.s:692    .text:00000000000003d4 .L0 
     /tmp/ccDSSFbw.s:693    .text:00000000000003d4 .L0 
     /tmp/ccDSSFbw.s:695    .text:00000000000003d8 .L0 
     /tmp/ccDSSFbw.s:697    .text:00000000000003e0 .L0 
     /tmp/ccDSSFbw.s:703    .text:00000000000003e0 _Z16putPartialToFullP12kmem_cache_s
     /tmp/ccDSSFbw.s:706    .text:00000000000003e0 .L0 
     /tmp/ccDSSFbw.s:708    .text:00000000000003e0 .L0 
     /tmp/ccDSSFbw.s:709    .text:00000000000003e4 .L0 
     /tmp/ccDSSFbw.s:714    .text:00000000000003f4 .L0 
     /tmp/ccDSSFbw.s:715    .text:00000000000003f4 .L0 
     /tmp/ccDSSFbw.s:716    .text:00000000000003f4 .L0 
     /tmp/ccDSSFbw.s:717    .text:00000000000003f4 .L0 
     /tmp/ccDSSFbw.s:719    .text:00000000000003f8 .L0 
     /tmp/ccDSSFbw.s:722    .text:00000000000003fc .L0 
     /tmp/ccDSSFbw.s:723    .text:00000000000003fc .L0 
     /tmp/ccDSSFbw.s:726    .text:0000000000000400 .L0 
     /tmp/ccDSSFbw.s:727    .text:0000000000000400 .L0 
     /tmp/ccDSSFbw.s:733    .text:0000000000000410 .L0 
     /tmp/ccDSSFbw.s:734    .text:0000000000000410 .L0 
     /tmp/ccDSSFbw.s:739    .text:0000000000000420 .L0 
     /tmp/ccDSSFbw.s:740    .text:0000000000000424 .L0 
     /tmp/ccDSSFbw.s:742    .text:0000000000000428 .L0 
     /tmp/ccDSSFbw.s:743    .text:0000000000000428 .L0 
     /tmp/ccDSSFbw.s:745    .text:000000000000042c .L0 
     /tmp/ccDSSFbw.s:748    .text:0000000000000430 .L0 
     /tmp/ccDSSFbw.s:751    .text:0000000000000434 .L0 
     /tmp/ccDSSFbw.s:753    .text:0000000000000438 .L0 
     /tmp/ccDSSFbw.s:759    .text:0000000000000438 _Z17putEmptyToPartialP12kmem_cache_s
     /tmp/ccDSSFbw.s:762    .text:0000000000000438 .L0 
     /tmp/ccDSSFbw.s:764    .text:0000000000000438 .L0 
     /tmp/ccDSSFbw.s:765    .text:000000000000043c .L0 
     /tmp/ccDSSFbw.s:770    .text:000000000000044c .L0 
     /tmp/ccDSSFbw.s:771    .text:000000000000044c .L0 
     /tmp/ccDSSFbw.s:772    .text:000000000000044c .L0 
     /tmp/ccDSSFbw.s:773    .text:000000000000044c .L0 
     /tmp/ccDSSFbw.s:775    .text:0000000000000450 .L0 
     /tmp/ccDSSFbw.s:778    .text:0000000000000454 .L0 
     /tmp/ccDSSFbw.s:779    .text:0000000000000454 .L0 
     /tmp/ccDSSFbw.s:782    .text:0000000000000458 .L0 
     /tmp/ccDSSFbw.s:783    .text:0000000000000458 .L0 
     /tmp/ccDSSFbw.s:789    .text:0000000000000468 .L0 
     /tmp/ccDSSFbw.s:790    .text:0000000000000468 .L0 
GAS LISTING /tmp/ccDSSFbw.s 			page 71


     /tmp/ccDSSFbw.s:795    .text:0000000000000478 .L0 
     /tmp/ccDSSFbw.s:796    .text:000000000000047c .L0 
     /tmp/ccDSSFbw.s:798    .text:0000000000000480 .L0 
     /tmp/ccDSSFbw.s:799    .text:0000000000000480 .L0 
     /tmp/ccDSSFbw.s:801    .text:0000000000000484 .L0 
     /tmp/ccDSSFbw.s:804    .text:0000000000000488 .L0 
     /tmp/ccDSSFbw.s:807    .text:000000000000048c .L0 
     /tmp/ccDSSFbw.s:809    .text:0000000000000490 .L0 
     /tmp/ccDSSFbw.s:815    .text:0000000000000490 _Z14removeFullSlabP12kmem_cache_sP6slab_s
     /tmp/ccDSSFbw.s:818    .text:0000000000000490 .L0 
     /tmp/ccDSSFbw.s:820    .text:0000000000000490 .L0 
     /tmp/ccDSSFbw.s:821    .text:0000000000000494 .L0 
     /tmp/ccDSSFbw.s:826    .text:00000000000004a4 .L0 
     /tmp/ccDSSFbw.s:827    .text:00000000000004a4 .L0 
     /tmp/ccDSSFbw.s:828    .text:00000000000004a4 .L0 
     /tmp/ccDSSFbw.s:829    .text:00000000000004a4 .L0 
     /tmp/ccDSSFbw.s:831    .text:00000000000004a8 .L0 
     /tmp/ccDSSFbw.s:835    .text:00000000000004b0 .L0 
     /tmp/ccDSSFbw.s:836    .text:00000000000004b0 .L0 
     /tmp/ccDSSFbw.s:843    .text:00000000000004c0 .L0 
     /tmp/ccDSSFbw.s:844    .text:00000000000004c0 .L0 
     /tmp/ccDSSFbw.s:849    .text:00000000000004d0 .L0 
     /tmp/ccDSSFbw.s:850    .text:00000000000004d4 .L0 
     /tmp/ccDSSFbw.s:852    .text:00000000000004d8 .L0 
     /tmp/ccDSSFbw.s:853    .text:00000000000004d8 .L0 
     /tmp/ccDSSFbw.s:855    .text:00000000000004dc .L0 
     /tmp/ccDSSFbw.s:858    .text:00000000000004e0 .L0 
     /tmp/ccDSSFbw.s:861    .text:00000000000004e4 .L0 
     /tmp/ccDSSFbw.s:863    .text:00000000000004e8 .L0 
     /tmp/ccDSSFbw.s:869    .text:00000000000004e8 _Z17removePartialSlabP12kmem_cache_sP6slab_s
     /tmp/ccDSSFbw.s:872    .text:00000000000004e8 .L0 
     /tmp/ccDSSFbw.s:874    .text:00000000000004e8 .L0 
     /tmp/ccDSSFbw.s:875    .text:00000000000004ec .L0 
     /tmp/ccDSSFbw.s:880    .text:00000000000004fc .L0 
     /tmp/ccDSSFbw.s:881    .text:00000000000004fc .L0 
     /tmp/ccDSSFbw.s:882    .text:00000000000004fc .L0 
     /tmp/ccDSSFbw.s:883    .text:00000000000004fc .L0 
     /tmp/ccDSSFbw.s:885    .text:0000000000000500 .L0 
     /tmp/ccDSSFbw.s:889    .text:0000000000000508 .L0 
     /tmp/ccDSSFbw.s:890    .text:0000000000000508 .L0 
     /tmp/ccDSSFbw.s:897    .text:0000000000000518 .L0 
     /tmp/ccDSSFbw.s:898    .text:0000000000000518 .L0 
     /tmp/ccDSSFbw.s:903    .text:0000000000000528 .L0 
     /tmp/ccDSSFbw.s:904    .text:000000000000052c .L0 
     /tmp/ccDSSFbw.s:906    .text:0000000000000530 .L0 
     /tmp/ccDSSFbw.s:907    .text:0000000000000530 .L0 
     /tmp/ccDSSFbw.s:909    .text:0000000000000534 .L0 
     /tmp/ccDSSFbw.s:912    .text:0000000000000538 .L0 
     /tmp/ccDSSFbw.s:915    .text:000000000000053c .L0 
     /tmp/ccDSSFbw.s:917    .text:0000000000000540 .L0 
     /tmp/ccDSSFbw.s:923    .text:0000000000000540 _Z12allocateSlabP12kmem_cache_s
     /tmp/ccDSSFbw.s:926    .text:0000000000000540 .L0 
     /tmp/ccDSSFbw.s:928    .text:0000000000000540 .L0 
     /tmp/ccDSSFbw.s:929    .text:0000000000000544 .L0 
     /tmp/ccDSSFbw.s:935    .text:0000000000000558 .L0 
     /tmp/ccDSSFbw.s:936    .text:0000000000000558 .L0 
     /tmp/ccDSSFbw.s:937    .text:0000000000000558 .L0 
GAS LISTING /tmp/ccDSSFbw.s 			page 72


     /tmp/ccDSSFbw.s:938    .text:0000000000000558 .L0 
     /tmp/ccDSSFbw.s:939    .text:0000000000000558 .L0 
     /tmp/ccDSSFbw.s:941    .text:000000000000055c .L0 
     /tmp/ccDSSFbw.s:944    .text:0000000000000560 .L0 
     /tmp/ccDSSFbw.s:945    .text:0000000000000560 .L0 
     /tmp/ccDSSFbw.s:952    .text:0000000000000578 .L0 
     /tmp/ccDSSFbw.s:955    .text:0000000000000580 .L0 
     /tmp/ccDSSFbw.s:956    .text:0000000000000580 .L0 
     /tmp/ccDSSFbw.s:958    .text:0000000000000584 .L0 
     /tmp/ccDSSFbw.s:960    .text:0000000000000588 .L0 
     /tmp/ccDSSFbw.s:962    .text:000000000000058c .L0 
     /tmp/ccDSSFbw.s:963    .text:000000000000058c .L0 
     /tmp/ccDSSFbw.s:967    .text:0000000000000590 .L0 
     /tmp/ccDSSFbw.s:968    .text:0000000000000590 .L0 
     /tmp/ccDSSFbw.s:970    .text:0000000000000594 .L0 
     /tmp/ccDSSFbw.s:971    .text:0000000000000594 .L0 
     /tmp/ccDSSFbw.s:973    .text:0000000000000598 .L0 
     /tmp/ccDSSFbw.s:974    .text:0000000000000598 .L0 
     /tmp/ccDSSFbw.s:976    .text:000000000000059c .L0 
     /tmp/ccDSSFbw.s:977    .text:000000000000059c .L0 
     /tmp/ccDSSFbw.s:979    .text:00000000000005a0 .L0 
     /tmp/ccDSSFbw.s:980    .text:00000000000005a0 .L0 
     /tmp/ccDSSFbw.s:982    .text:00000000000005a4 .L0 
     /tmp/ccDSSFbw.s:985    .text:00000000000005a8 .L0 
     /tmp/ccDSSFbw.s:986    .text:00000000000005a8 .L0 
     /tmp/ccDSSFbw.s:989    .text:00000000000005ac .L0 
     /tmp/ccDSSFbw.s:991    .text:00000000000005b0 .L0 
     /tmp/ccDSSFbw.s:994    .text:00000000000005b4 .L0 
     /tmp/ccDSSFbw.s:998    .text:00000000000005b8 .L0 
     /tmp/ccDSSFbw.s:999    .text:00000000000005b8 .L0 
     /tmp/ccDSSFbw.s:1003   .text:00000000000005bc .L0 
     /tmp/ccDSSFbw.s:1004   .text:00000000000005bc .L0 
     /tmp/ccDSSFbw.s:1006   .text:00000000000005c0 .L0 
     /tmp/ccDSSFbw.s:1008   .text:00000000000005c4 .L0 
     /tmp/ccDSSFbw.s:1010   .text:00000000000005c8 .L0 
     /tmp/ccDSSFbw.s:1011   .text:00000000000005c8 .L0 
     /tmp/ccDSSFbw.s:1014   .text:00000000000005d0 .L0 
     /tmp/ccDSSFbw.s:1021   .text:00000000000005d8 .L0 
     /tmp/ccDSSFbw.s:1022   .text:00000000000005d8 .L0 
     /tmp/ccDSSFbw.s:1024   .text:00000000000005dc .L0 
     /tmp/ccDSSFbw.s:1027   .text:00000000000005e0 .L0 
     /tmp/ccDSSFbw.s:1031   .text:00000000000005e4 .L0 
     /tmp/ccDSSFbw.s:1032   .text:00000000000005e4 .L0 
     /tmp/ccDSSFbw.s:1034   .text:00000000000005e8 .L0 
     /tmp/ccDSSFbw.s:1036   .text:00000000000005ec .L0 
     /tmp/ccDSSFbw.s:1037   .text:00000000000005ec .L0 
     /tmp/ccDSSFbw.s:1039   .text:00000000000005f0 .L0 
     /tmp/ccDSSFbw.s:1041   .text:00000000000005f4 .L0 
     /tmp/ccDSSFbw.s:1043   .text:00000000000005f8 .L0 
     /tmp/ccDSSFbw.s:1045   .text:00000000000005fc .L0 
     /tmp/ccDSSFbw.s:1047   .text:0000000000000600 .L0 
     /tmp/ccDSSFbw.s:1051   .text:0000000000000608 .L0 
     /tmp/ccDSSFbw.s:1059   .text:0000000000000610 .L0 
     /tmp/ccDSSFbw.s:1060   .text:0000000000000614 .L0 
     /tmp/ccDSSFbw.s:1062   .text:0000000000000618 .L0 
     /tmp/ccDSSFbw.s:1063   .text:0000000000000618 .L0 
     /tmp/ccDSSFbw.s:1065   .text:000000000000061c .L0 
GAS LISTING /tmp/ccDSSFbw.s 			page 73


     /tmp/ccDSSFbw.s:1067   .text:0000000000000620 .L0 
     /tmp/ccDSSFbw.s:1069   .text:0000000000000624 .L0 
     /tmp/ccDSSFbw.s:1072   .text:0000000000000628 .L0 
     /tmp/ccDSSFbw.s:1074   .text:000000000000062c .L0 
     /tmp/ccDSSFbw.s:1080   .text:000000000000062c _Z18getOptimalSlabSizem
     /tmp/ccDSSFbw.s:1083   .text:000000000000062c .L0 
     /tmp/ccDSSFbw.s:1085   .text:000000000000062c .L0 
     /tmp/ccDSSFbw.s:1086   .text:0000000000000630 .L0 
     /tmp/ccDSSFbw.s:1088   .text:0000000000000634 .L0 
     /tmp/ccDSSFbw.s:1090   .text:0000000000000638 .L0 
     /tmp/ccDSSFbw.s:1093   .text:0000000000000638 .L0 
     /tmp/ccDSSFbw.s:1094   .text:0000000000000638 .L0 
     /tmp/ccDSSFbw.s:1098   .text:000000000000063c .L0 
     /tmp/ccDSSFbw.s:1099   .text:000000000000063c .L0 
     /tmp/ccDSSFbw.s:1100   .text:000000000000063c .L0 
     /tmp/ccDSSFbw.s:1102   .text:0000000000000640 .L0 
     /tmp/ccDSSFbw.s:1104   .text:0000000000000644 .L0 
     /tmp/ccDSSFbw.s:1105   .text:0000000000000644 .L0 
     /tmp/ccDSSFbw.s:1108   .text:0000000000000648 .L0 
     /tmp/ccDSSFbw.s:1111   .text:000000000000064c .L0 
     /tmp/ccDSSFbw.s:1112   .text:000000000000064c .L0 
     /tmp/ccDSSFbw.s:1114   .text:0000000000000650 .L0 
     /tmp/ccDSSFbw.s:1117   .text:0000000000000654 .L0 
     /tmp/ccDSSFbw.s:1118   .text:0000000000000654 .L0 
     /tmp/ccDSSFbw.s:1120   .text:0000000000000654 .L0 
     /tmp/ccDSSFbw.s:1121   .text:0000000000000654 .L0 
     /tmp/ccDSSFbw.s:1126   .text:000000000000065c .L0 
     /tmp/ccDSSFbw.s:1130   .text:0000000000000660 .L0 
     /tmp/ccDSSFbw.s:1134   .text:0000000000000668 .L0 
     /tmp/ccDSSFbw.s:1135   .text:0000000000000668 .L0 
     /tmp/ccDSSFbw.s:1138   .text:000000000000066c .L0 
     /tmp/ccDSSFbw.s:1139   .text:000000000000066c .L0 
     /tmp/ccDSSFbw.s:1141   .text:0000000000000670 .L0 
     /tmp/ccDSSFbw.s:1144   .text:0000000000000674 .L0 
     /tmp/ccDSSFbw.s:1146   .text:0000000000000678 .L0 
     /tmp/ccDSSFbw.s:1149   .text:000000000000067c .L0 
     /tmp/ccDSSFbw.s:1157   .text:0000000000000684 .L0 
     /tmp/ccDSSFbw.s:1158   .text:0000000000000684 .L0 
     /tmp/ccDSSFbw.s:1161   .text:000000000000068c .L0 
     /tmp/ccDSSFbw.s:1162   .text:000000000000068c .L0 
     /tmp/ccDSSFbw.s:1164   .text:0000000000000690 .L0 
     /tmp/ccDSSFbw.s:1166   .text:0000000000000694 .L0 
     /tmp/ccDSSFbw.s:1172   .text:0000000000000694 _Z8findSlabP12kmem_cache_sPKv
     /tmp/ccDSSFbw.s:1175   .text:0000000000000694 .L0 
     /tmp/ccDSSFbw.s:1177   .text:0000000000000694 .L0 
     /tmp/ccDSSFbw.s:1178   .text:0000000000000698 .L0 
     /tmp/ccDSSFbw.s:1180   .text:000000000000069c .L0 
     /tmp/ccDSSFbw.s:1182   .text:00000000000006a0 .L0 
     /tmp/ccDSSFbw.s:1185   .text:00000000000006a4 .L0 
     /tmp/ccDSSFbw.s:1187   .text:00000000000006a8 .L0 
     /tmp/ccDSSFbw.s:1189   .text:00000000000006ac .L0 
     /tmp/ccDSSFbw.s:1190   .text:00000000000006ac .L0 
     /tmp/ccDSSFbw.s:1197   .text:00000000000006b4 .L0 
     /tmp/ccDSSFbw.s:1198   .text:00000000000006b4 .L0 
     /tmp/ccDSSFbw.s:1203   .text:00000000000006b8 .L0 
     /tmp/ccDSSFbw.s:1204   .text:00000000000006b8 .L0 
     /tmp/ccDSSFbw.s:1207   .text:00000000000006bc .L0 
GAS LISTING /tmp/ccDSSFbw.s 			page 74


     /tmp/ccDSSFbw.s:1208   .text:00000000000006bc .L0 
     /tmp/ccDSSFbw.s:1210   .text:00000000000006c0 .L0 
     /tmp/ccDSSFbw.s:1212   .text:00000000000006c4 .L0 
     /tmp/ccDSSFbw.s:1214   .text:00000000000006c8 .L0 
     /tmp/ccDSSFbw.s:1216   .text:00000000000006cc .L0 
     /tmp/ccDSSFbw.s:1218   .text:00000000000006d0 .L0 
     /tmp/ccDSSFbw.s:1221   .text:00000000000006d4 .L0 
     /tmp/ccDSSFbw.s:1223   .text:00000000000006d8 .L0 
     /tmp/ccDSSFbw.s:1228   .text:00000000000006dc .L0 
     /tmp/ccDSSFbw.s:1229   .text:00000000000006e0 .L0 
     /tmp/ccDSSFbw.s:1230   .text:00000000000006e0 .L0 
     /tmp/ccDSSFbw.s:1231   .text:00000000000006e0 .L0 
     /tmp/ccDSSFbw.s:1233   .text:00000000000006e4 .L0 
     /tmp/ccDSSFbw.s:1237   .text:00000000000006e8 .L0 
     /tmp/ccDSSFbw.s:1239   .text:00000000000006e8 .L0 
     /tmp/ccDSSFbw.s:1240   .text:00000000000006e8 .L0 
     /tmp/ccDSSFbw.s:1247   .text:00000000000006f0 .L0 
     /tmp/ccDSSFbw.s:1248   .text:00000000000006f0 .L0 
     /tmp/ccDSSFbw.s:1253   .text:00000000000006f4 .L0 
     /tmp/ccDSSFbw.s:1254   .text:00000000000006f4 .L0 
     /tmp/ccDSSFbw.s:1257   .text:00000000000006f8 .L0 
     /tmp/ccDSSFbw.s:1258   .text:00000000000006f8 .L0 
     /tmp/ccDSSFbw.s:1260   .text:00000000000006fc .L0 
     /tmp/ccDSSFbw.s:1262   .text:0000000000000700 .L0 
     /tmp/ccDSSFbw.s:1264   .text:0000000000000704 .L0 
     /tmp/ccDSSFbw.s:1266   .text:0000000000000708 .L0 
     /tmp/ccDSSFbw.s:1268   .text:000000000000070c .L0 
     /tmp/ccDSSFbw.s:1271   .text:0000000000000710 .L0 
     /tmp/ccDSSFbw.s:1273   .text:0000000000000714 .L0 
     /tmp/ccDSSFbw.s:1279   .text:000000000000071c .L0 
     /tmp/ccDSSFbw.s:1282   .text:0000000000000724 .L0 
     /tmp/ccDSSFbw.s:1288   .text:0000000000000724 _Z19resetAllocatedIndexP6slab_si
     /tmp/ccDSSFbw.s:1291   .text:0000000000000724 .L0 
     /tmp/ccDSSFbw.s:1293   .text:0000000000000724 .L0 
     /tmp/ccDSSFbw.s:1294   .text:0000000000000728 .L0 
     /tmp/ccDSSFbw.s:1296   .text:000000000000072c .L0 
     /tmp/ccDSSFbw.s:1298   .text:0000000000000730 .L0 
     /tmp/ccDSSFbw.s:1300   .text:0000000000000730 .L0 
     /tmp/ccDSSFbw.s:1301   .text:0000000000000730 .L0 
     /tmp/ccDSSFbw.s:1307   .text:0000000000000740 .L0 
     /tmp/ccDSSFbw.s:1310   .text:0000000000000744 .L0 
     /tmp/ccDSSFbw.s:1312   .text:0000000000000748 .L0 
     /tmp/ccDSSFbw.s:1315   .text:0000000000000750 .L0 
     /tmp/ccDSSFbw.s:1318   .text:0000000000000758 .L0 
     /tmp/ccDSSFbw.s:1321   .text:0000000000000760 .L0 
     /tmp/ccDSSFbw.s:1323   .text:0000000000000764 .L0 
     /tmp/ccDSSFbw.s:1324   .text:0000000000000768 .L0 
     /tmp/ccDSSFbw.s:1325   .text:0000000000000768 .L0 
     /tmp/ccDSSFbw.s:1327   .text:000000000000076c .L0 
     /tmp/ccDSSFbw.s:1329   .text:0000000000000770 .L0 
     /tmp/ccDSSFbw.s:1352   .text:0000000000000770 _Z13printSlabInfoP6slab_s
     /tmp/ccDSSFbw.s:1355   .text:0000000000000770 .L0 
     /tmp/ccDSSFbw.s:1357   .text:0000000000000770 .L0 
     /tmp/ccDSSFbw.s:1358   .text:0000000000000774 .L0 
     /tmp/ccDSSFbw.s:1363   .text:0000000000000784 .L0 
     /tmp/ccDSSFbw.s:1364   .text:0000000000000784 .L0 
     /tmp/ccDSSFbw.s:1365   .text:0000000000000784 .L0 
GAS LISTING /tmp/ccDSSFbw.s 			page 75


     /tmp/ccDSSFbw.s:1366   .text:0000000000000784 .L0 
     /tmp/ccDSSFbw.s:1368   .text:0000000000000788 .L0 
     /tmp/ccDSSFbw.s:1371   .text:000000000000078c .L0 
     /tmp/ccDSSFbw.s:1372   .text:000000000000078c .L0 
     /tmp/ccDSSFbw.s:1377   .text:000000000000079c .L0 
     /tmp/ccDSSFbw.s:1378   .text:000000000000079c .L0 
     /tmp/ccDSSFbw.s:1384   .text:00000000000007b4 .L0 
     /tmp/ccDSSFbw.s:1385   .text:00000000000007b4 .L0 
     /tmp/ccDSSFbw.s:1391   .text:00000000000007cc .L0 
     /tmp/ccDSSFbw.s:1392   .text:00000000000007cc .L0 
     /tmp/ccDSSFbw.s:1399   .text:00000000000007e4 .L0 
     /tmp/ccDSSFbw.s:1400   .text:00000000000007e4 .L0 
     /tmp/ccDSSFbw.s:1404   .text:00000000000007e8 .L0 
     /tmp/ccDSSFbw.s:1405   .text:00000000000007e8 .L0 
     /tmp/ccDSSFbw.s:1407   .text:00000000000007ec .L0 
     /tmp/ccDSSFbw.s:1409   .text:00000000000007f0 .L0 
     /tmp/ccDSSFbw.s:1411   .text:00000000000007f4 .L0 
     /tmp/ccDSSFbw.s:1413   .text:00000000000007f8 .L0 
     /tmp/ccDSSFbw.s:1414   .text:00000000000007f8 .L0 
     /tmp/ccDSSFbw.s:1416   .text:00000000000007fc .L0 
     /tmp/ccDSSFbw.s:1422   .text:0000000000000810 .L0 
     /tmp/ccDSSFbw.s:1423   .text:0000000000000810 .L0 
     /tmp/ccDSSFbw.s:1427   .text:0000000000000820 .L0 
     /tmp/ccDSSFbw.s:1433   .text:0000000000000828 .L0 
     /tmp/ccDSSFbw.s:1434   .text:000000000000082c .L0 
     /tmp/ccDSSFbw.s:1436   .text:0000000000000830 .L0 
     /tmp/ccDSSFbw.s:1437   .text:0000000000000830 .L0 
     /tmp/ccDSSFbw.s:1439   .text:0000000000000834 .L0 
     /tmp/ccDSSFbw.s:1442   .text:0000000000000838 .L0 
     /tmp/ccDSSFbw.s:1445   .text:000000000000083c .L0 
     /tmp/ccDSSFbw.s:1447   .text:0000000000000840 .L0 
     /tmp/ccDSSFbw.s:1453   .text:0000000000000840 _Z16free_slab_objectP6slab_sPKv
     /tmp/ccDSSFbw.s:1456   .text:0000000000000840 .L0 
     /tmp/ccDSSFbw.s:1458   .text:0000000000000840 .L0 
     /tmp/ccDSSFbw.s:1459   .text:0000000000000840 .L0 
     /tmp/ccDSSFbw.s:1461   .text:0000000000000844 .L0 
     /tmp/ccDSSFbw.s:1462   .text:0000000000000848 .L0 
     /tmp/ccDSSFbw.s:1467   .text:0000000000000858 .L0 
     /tmp/ccDSSFbw.s:1468   .text:0000000000000858 .L0 
     /tmp/ccDSSFbw.s:1469   .text:0000000000000858 .L0 
     /tmp/ccDSSFbw.s:1470   .text:0000000000000858 .L0 
     /tmp/ccDSSFbw.s:1472   .text:000000000000085c .L0 
     /tmp/ccDSSFbw.s:1475   .text:0000000000000860 .L0 
     /tmp/ccDSSFbw.s:1477   .text:0000000000000864 .L0 
     /tmp/ccDSSFbw.s:1478   .text:0000000000000864 .L0 
     /tmp/ccDSSFbw.s:1481   .text:000000000000086c .L0 
     /tmp/ccDSSFbw.s:1483   .text:0000000000000870 .L0 
     /tmp/ccDSSFbw.s:1485   .text:0000000000000874 .L0 
     /tmp/ccDSSFbw.s:1487   .text:0000000000000878 .L0 
     /tmp/ccDSSFbw.s:1490   .text:000000000000087c .L0 
     /tmp/ccDSSFbw.s:1491   .text:000000000000087c .L0 
     /tmp/ccDSSFbw.s:1493   .text:0000000000000880 .L0 
     /tmp/ccDSSFbw.s:1496   .text:0000000000000888 .L0 
     /tmp/ccDSSFbw.s:1498   .text:000000000000088c .L0 
     /tmp/ccDSSFbw.s:1499   .text:000000000000088c .L0 
     /tmp/ccDSSFbw.s:1504   .text:0000000000000898 .L0 
     /tmp/ccDSSFbw.s:1508   .text:000000000000089c .L0 
GAS LISTING /tmp/ccDSSFbw.s 			page 76


     /tmp/ccDSSFbw.s:1509   .text:00000000000008a0 .L0 
     /tmp/ccDSSFbw.s:1510   .text:00000000000008a0 .L0 
     /tmp/ccDSSFbw.s:1512   .text:00000000000008a4 .L0 
     /tmp/ccDSSFbw.s:1513   .text:00000000000008a4 .L0 
     /tmp/ccDSSFbw.s:1515   .text:00000000000008a8 .L0 
     /tmp/ccDSSFbw.s:1518   .text:00000000000008ac .L0 
     /tmp/ccDSSFbw.s:1520   .text:00000000000008b0 .L0 
     /tmp/ccDSSFbw.s:1524   .text:00000000000008b4 .L0 
     /tmp/ccDSSFbw.s:1526   .text:00000000000008b4 .L0 
     /tmp/ccDSSFbw.s:1527   .text:00000000000008b4 .L0 
     /tmp/ccDSSFbw.s:1532   .text:00000000000008c4 .L0 
     /tmp/ccDSSFbw.s:1533   .text:00000000000008c4 .L0 
     /tmp/ccDSSFbw.s:1535   .text:00000000000008c8 .L0 
     /tmp/ccDSSFbw.s:1537   .text:00000000000008cc .L0 
     /tmp/ccDSSFbw.s:1539   .text:00000000000008d0 .L0 
     /tmp/ccDSSFbw.s:1542   .text:00000000000008d8 .L0 
     /tmp/ccDSSFbw.s:1543   .text:00000000000008d8 .L0 
     /tmp/ccDSSFbw.s:1548   .text:00000000000008e4 .L0 
     /tmp/ccDSSFbw.s:1549   .text:00000000000008e4 .L0 
     /tmp/ccDSSFbw.s:1554   .text:00000000000008f4 .L0 
     /tmp/ccDSSFbw.s:1555   .text:00000000000008f4 .L0 
     /tmp/ccDSSFbw.s:1557   .text:00000000000008f8 .L0 
     /tmp/ccDSSFbw.s:1560   .text:0000000000000900 .L0 
     /tmp/ccDSSFbw.s:1561   .text:0000000000000900 .L0 
     /tmp/ccDSSFbw.s:1565   .text:000000000000090c .L0 
     /tmp/ccDSSFbw.s:1567   .text:0000000000000910 .L0 
     /tmp/ccDSSFbw.s:1568   .text:0000000000000910 .L0 
     /tmp/ccDSSFbw.s:1575   .text:0000000000000924 .L0 
     /tmp/ccDSSFbw.s:1576   .text:0000000000000924 .L0 
     /tmp/ccDSSFbw.s:1581   .text:0000000000000934 .L0 
     /tmp/ccDSSFbw.s:1582   .text:0000000000000934 .L0 
     /tmp/ccDSSFbw.s:1584   .text:0000000000000938 .L0 
     /tmp/ccDSSFbw.s:1589   .text:0000000000000944 .L0 
     /tmp/ccDSSFbw.s:1590   .text:0000000000000944 .L0 
     /tmp/ccDSSFbw.s:1591   .text:0000000000000944 .L0 
     /tmp/ccDSSFbw.s:1592   .text:0000000000000944 .L0 
     /tmp/ccDSSFbw.s:1593   .text:0000000000000944 .L0 
     /tmp/ccDSSFbw.s:1595   .text:0000000000000948 .L0 
     /tmp/ccDSSFbw.s:1601   .text:0000000000000948 _Z9kmem_initPvi
     /tmp/ccDSSFbw.s:1604   .text:0000000000000948 .L0 
     /tmp/ccDSSFbw.s:1606   .text:0000000000000948 .L0 
     /tmp/ccDSSFbw.s:1607   .text:000000000000094c .L0 
     /tmp/ccDSSFbw.s:1610   .text:0000000000000954 .L0 
     /tmp/ccDSSFbw.s:1611   .text:0000000000000954 .L0 
     /tmp/ccDSSFbw.s:1613   .text:0000000000000958 .L0 
     /tmp/ccDSSFbw.s:1615   .text:0000000000000958 .L0 
     /tmp/ccDSSFbw.s:1616   .text:0000000000000958 .L0 
     /tmp/ccDSSFbw.s:1619   .text:0000000000000960 .L0 
     /tmp/ccDSSFbw.s:1620   .text:0000000000000960 .L0 
     /tmp/ccDSSFbw.s:1623   .text:0000000000000968 .L0 
     /tmp/ccDSSFbw.s:1625   .text:0000000000000970 .L0 
     /tmp/ccDSSFbw.s:1626   .text:0000000000000974 .L0 
     /tmp/ccDSSFbw.s:1628   .text:0000000000000978 .L0 
     /tmp/ccDSSFbw.s:1629   .text:0000000000000978 .L0 
     /tmp/ccDSSFbw.s:1631   .text:000000000000097c .L0 
     /tmp/ccDSSFbw.s:1633   .text:0000000000000980 .L0 
     /tmp/ccDSSFbw.s:1639   .text:0000000000000980 _Z16kmem_cache_allocP12kmem_cache_s
GAS LISTING /tmp/ccDSSFbw.s 			page 77


     /tmp/ccDSSFbw.s:1642   .text:0000000000000980 .L0 
     /tmp/ccDSSFbw.s:1644   .text:0000000000000980 .L0 
     /tmp/ccDSSFbw.s:1645   .text:0000000000000984 .L0 
     /tmp/ccDSSFbw.s:1650   .text:0000000000000994 .L0 
     /tmp/ccDSSFbw.s:1651   .text:0000000000000994 .L0 
     /tmp/ccDSSFbw.s:1652   .text:0000000000000994 .L0 
     /tmp/ccDSSFbw.s:1653   .text:0000000000000994 .L0 
     /tmp/ccDSSFbw.s:1655   .text:0000000000000998 .L0 
     /tmp/ccDSSFbw.s:1658   .text:000000000000099c .L0 
     /tmp/ccDSSFbw.s:1661   .text:00000000000009a0 .L0 
     /tmp/ccDSSFbw.s:1662   .text:00000000000009a0 .L0 
     /tmp/ccDSSFbw.s:1665   .text:00000000000009a4 .L0 
     /tmp/ccDSSFbw.s:1670   .text:00000000000009a8 .L0 
     /tmp/ccDSSFbw.s:1671   .text:00000000000009a8 .L0 
     /tmp/ccDSSFbw.s:1673   .text:00000000000009ac .L0 
     /tmp/ccDSSFbw.s:1676   .text:00000000000009b0 .L0 
     /tmp/ccDSSFbw.s:1677   .text:00000000000009b0 .L0 
     /tmp/ccDSSFbw.s:1682   .text:00000000000009bc .L0 
     /tmp/ccDSSFbw.s:1683   .text:00000000000009bc .L0 
     /tmp/ccDSSFbw.s:1688   .text:00000000000009c8 .L0 
     /tmp/ccDSSFbw.s:1690   .text:00000000000009cc .L0 
     /tmp/ccDSSFbw.s:1691   .text:00000000000009cc .L0 
     /tmp/ccDSSFbw.s:1695   .text:00000000000009d8 .L0 
     /tmp/ccDSSFbw.s:1696   .text:00000000000009d8 .L0 
     /tmp/ccDSSFbw.s:1700   .text:00000000000009e4 .L0 
     /tmp/ccDSSFbw.s:1702   .text:00000000000009e8 .L0 
     /tmp/ccDSSFbw.s:1703   .text:00000000000009e8 .L0 
     /tmp/ccDSSFbw.s:1707   .text:00000000000009f4 .L0 
     /tmp/ccDSSFbw.s:1708   .text:00000000000009f4 .L0 
     /tmp/ccDSSFbw.s:1715   .text:00000000000009f8 .L0 
     /tmp/ccDSSFbw.s:1716   .text:00000000000009f8 .L0 
     /tmp/ccDSSFbw.s:1721   .text:0000000000000a04 .L0 
     /tmp/ccDSSFbw.s:1722   .text:0000000000000a04 .L0 
     /tmp/ccDSSFbw.s:1727   .text:0000000000000a10 .L0 
     /tmp/ccDSSFbw.s:1733   .text:0000000000000a14 .L0 
     /tmp/ccDSSFbw.s:1735   .text:0000000000000a1c .L0 
     /tmp/ccDSSFbw.s:1736   .text:0000000000000a1c .L0 
     /tmp/ccDSSFbw.s:1738   .text:0000000000000a20 .L0 
     /tmp/ccDSSFbw.s:1739   .text:0000000000000a20 .L0 
     /tmp/ccDSSFbw.s:1741   .text:0000000000000a24 .L0 
     /tmp/ccDSSFbw.s:1744   .text:0000000000000a28 .L0 
     /tmp/ccDSSFbw.s:1746   .text:0000000000000a2c .L0 
     /tmp/ccDSSFbw.s:1750   .text:0000000000000a30 .L0 
     /tmp/ccDSSFbw.s:1754   .text:0000000000000a30 .L0 
     /tmp/ccDSSFbw.s:1755   .text:0000000000000a30 .L0 
     /tmp/ccDSSFbw.s:1759   .text:0000000000000a3c .L0 
     /tmp/ccDSSFbw.s:1760   .text:0000000000000a3c .L0 
     /tmp/ccDSSFbw.s:1767   .text:0000000000000a40 .L0 
     /tmp/ccDSSFbw.s:1768   .text:0000000000000a40 .L0 
     /tmp/ccDSSFbw.s:1772   .text:0000000000000a4c .L0 
     /tmp/ccDSSFbw.s:1773   .text:0000000000000a4c .L0 
     /tmp/ccDSSFbw.s:1775   .text:0000000000000a50 .L0 
     /tmp/ccDSSFbw.s:1777   .text:0000000000000a54 .L0 
     /tmp/ccDSSFbw.s:1778   .text:0000000000000a54 .L0 
     /tmp/ccDSSFbw.s:1784   .text:0000000000000a64 .L0 
     /tmp/ccDSSFbw.s:1785   .text:0000000000000a64 .L0 
     /tmp/ccDSSFbw.s:1790   .text:0000000000000a70 .L0 
GAS LISTING /tmp/ccDSSFbw.s 			page 78


     /tmp/ccDSSFbw.s:1792   .text:0000000000000a74 .L0 
     /tmp/ccDSSFbw.s:1793   .text:0000000000000a74 .L0 
     /tmp/ccDSSFbw.s:1797   .text:0000000000000a80 .L0 
     /tmp/ccDSSFbw.s:1798   .text:0000000000000a80 .L0 
     /tmp/ccDSSFbw.s:1802   .text:0000000000000a8c .L0 
     /tmp/ccDSSFbw.s:1804   .text:0000000000000a90 .L0 
     /tmp/ccDSSFbw.s:1805   .text:0000000000000a90 .L0 
     /tmp/ccDSSFbw.s:1809   .text:0000000000000a9c .L0 
     /tmp/ccDSSFbw.s:1810   .text:0000000000000a9c .L0 
     /tmp/ccDSSFbw.s:1814   .text:0000000000000aa0 .L0 
     /tmp/ccDSSFbw.s:1815   .text:0000000000000aa0 .L0 
     /tmp/ccDSSFbw.s:1819   .text:0000000000000aac .L0 
     /tmp/ccDSSFbw.s:1820   .text:0000000000000aac .L0 
     /tmp/ccDSSFbw.s:1826   .text:0000000000000ab0 .L0 
     /tmp/ccDSSFbw.s:1828   .text:0000000000000ab8 .L0 
     /tmp/ccDSSFbw.s:1834   .text:0000000000000ab8 _Z17kmem_cache_createPKcmPFvPvES3_
     /tmp/ccDSSFbw.s:1837   .text:0000000000000ab8 .L0 
     /tmp/ccDSSFbw.s:1839   .text:0000000000000ab8 .L0 
     /tmp/ccDSSFbw.s:1840   .text:0000000000000abc .L0 
     /tmp/ccDSSFbw.s:1848   .text:0000000000000ad8 .L0 
     /tmp/ccDSSFbw.s:1849   .text:0000000000000ad8 .L0 
     /tmp/ccDSSFbw.s:1850   .text:0000000000000ad8 .L0 
     /tmp/ccDSSFbw.s:1851   .text:0000000000000ad8 .L0 
     /tmp/ccDSSFbw.s:1852   .text:0000000000000ad8 .L0 
     /tmp/ccDSSFbw.s:1853   .text:0000000000000ad8 .L0 
     /tmp/ccDSSFbw.s:1854   .text:0000000000000ad8 .L0 
     /tmp/ccDSSFbw.s:1856   .text:0000000000000adc .L0 
     /tmp/ccDSSFbw.s:1862   .text:0000000000000aec .L0 
     /tmp/ccDSSFbw.s:1863   .text:0000000000000aec .L0 
     /tmp/ccDSSFbw.s:1871   .text:0000000000000b04 .L0 
     /tmp/ccDSSFbw.s:1873   .text:0000000000000b08 .L0 
     /tmp/ccDSSFbw.s:1874   .text:0000000000000b08 .L0 
     /tmp/ccDSSFbw.s:1887   .text:0000000000000b34 .L0 
     /tmp/ccDSSFbw.s:1888   .text:0000000000000b34 .L0 
     /tmp/ccDSSFbw.s:1890   .text:0000000000000b3c .L0 
     /tmp/ccDSSFbw.s:1892   .text:0000000000000b40 .L0 
     /tmp/ccDSSFbw.s:1893   .text:0000000000000b40 .L0 
     /tmp/ccDSSFbw.s:1895   .text:0000000000000b44 .L0 
     /tmp/ccDSSFbw.s:1898   .text:0000000000000b48 .L0 
     /tmp/ccDSSFbw.s:1901   .text:0000000000000b4c .L0 
     /tmp/ccDSSFbw.s:1904   .text:0000000000000b50 .L0 
     /tmp/ccDSSFbw.s:1907   .text:0000000000000b54 .L0 
     /tmp/ccDSSFbw.s:1910   .text:0000000000000b58 .L0 
     /tmp/ccDSSFbw.s:1912   .text:0000000000000b5c .L0 
     /tmp/ccDSSFbw.s:1918   .text:0000000000000b5c _Z15kmem_cache_freeP12kmem_cache_sPv
     /tmp/ccDSSFbw.s:1921   .text:0000000000000b5c .L0 
     /tmp/ccDSSFbw.s:1923   .text:0000000000000b5c .L0 
     /tmp/ccDSSFbw.s:1924   .text:0000000000000b5c .L0 
     /tmp/ccDSSFbw.s:1926   .text:0000000000000b60 .L0 
     /tmp/ccDSSFbw.s:1927   .text:0000000000000b64 .L0 
     /tmp/ccDSSFbw.s:1933   .text:0000000000000b78 .L0 
     /tmp/ccDSSFbw.s:1934   .text:0000000000000b78 .L0 
     /tmp/ccDSSFbw.s:1935   .text:0000000000000b78 .L0 
     /tmp/ccDSSFbw.s:1936   .text:0000000000000b78 .L0 
     /tmp/ccDSSFbw.s:1937   .text:0000000000000b78 .L0 
     /tmp/ccDSSFbw.s:1939   .text:0000000000000b7c .L0 
     /tmp/ccDSSFbw.s:1943   .text:0000000000000b84 .L0 
GAS LISTING /tmp/ccDSSFbw.s 			page 79


     /tmp/ccDSSFbw.s:1945   .text:0000000000000b88 .L0 
     /tmp/ccDSSFbw.s:1946   .text:0000000000000b88 .L0 
     /tmp/ccDSSFbw.s:1951   .text:0000000000000b94 .L0 
     /tmp/ccDSSFbw.s:1953   .text:0000000000000b98 .L0 
     /tmp/ccDSSFbw.s:1954   .text:0000000000000b98 .L0 
     /tmp/ccDSSFbw.s:1956   .text:0000000000000b9c .L0 
     /tmp/ccDSSFbw.s:1958   .text:0000000000000ba0 .L0 
     /tmp/ccDSSFbw.s:1959   .text:0000000000000ba0 .L0 
     /tmp/ccDSSFbw.s:1965   .text:0000000000000ba8 .L0 
     /tmp/ccDSSFbw.s:1966   .text:0000000000000ba8 .L0 
     /tmp/ccDSSFbw.s:1968   .text:0000000000000bac .L0 
     /tmp/ccDSSFbw.s:1970   .text:0000000000000bb0 .L0 
     /tmp/ccDSSFbw.s:1971   .text:0000000000000bb0 .L0 
     /tmp/ccDSSFbw.s:1976   .text:0000000000000bb8 .L0 
     /tmp/ccDSSFbw.s:1977   .text:0000000000000bb8 .L0 
     /tmp/ccDSSFbw.s:1983   .text:0000000000000bc8 .L0 
     /tmp/ccDSSFbw.s:1984   .text:0000000000000bcc .L0 
     /tmp/ccDSSFbw.s:1986   .text:0000000000000bd0 .L0 
     /tmp/ccDSSFbw.s:1987   .text:0000000000000bd0 .L0 
     /tmp/ccDSSFbw.s:1989   .text:0000000000000bd4 .L0 
     /tmp/ccDSSFbw.s:1992   .text:0000000000000bd8 .L0 
     /tmp/ccDSSFbw.s:1995   .text:0000000000000bdc .L0 
     /tmp/ccDSSFbw.s:1997   .text:0000000000000be0 .L0 
     /tmp/ccDSSFbw.s:2002   .text:0000000000000be8 .L0 
     /tmp/ccDSSFbw.s:2034   .text:0000000000000be8 _Z15kmem_cache_infoP12kmem_cache_s
     /tmp/ccDSSFbw.s:2037   .text:0000000000000be8 .L0 
     /tmp/ccDSSFbw.s:2039   .text:0000000000000be8 .L0 
     /tmp/ccDSSFbw.s:2040   .text:0000000000000be8 .L0 
     /tmp/ccDSSFbw.s:2042   .text:0000000000000bec .L0 
     /tmp/ccDSSFbw.s:2043   .text:0000000000000bf0 .L0 
     /tmp/ccDSSFbw.s:2048   .text:0000000000000c00 .L0 
     /tmp/ccDSSFbw.s:2049   .text:0000000000000c00 .L0 
     /tmp/ccDSSFbw.s:2050   .text:0000000000000c00 .L0 
     /tmp/ccDSSFbw.s:2051   .text:0000000000000c00 .L0 
     /tmp/ccDSSFbw.s:2053   .text:0000000000000c04 .L0 
     /tmp/ccDSSFbw.s:2056   .text:0000000000000c08 .L0 
     /tmp/ccDSSFbw.s:2057   .text:0000000000000c08 .L0 
     /tmp/ccDSSFbw.s:2062   .text:0000000000000c18 .L0 
     /tmp/ccDSSFbw.s:2063   .text:0000000000000c18 .L0 
     /tmp/ccDSSFbw.s:2067   .text:0000000000000c28 .L0 
     /tmp/ccDSSFbw.s:2068   .text:0000000000000c28 .L0 
     /tmp/ccDSSFbw.s:2072   .text:0000000000000c34 .L0 
     /tmp/ccDSSFbw.s:2073   .text:0000000000000c34 .L0 
     /tmp/ccDSSFbw.s:2077   .text:0000000000000c44 .L0 
     /tmp/ccDSSFbw.s:2078   .text:0000000000000c44 .L0 
     /tmp/ccDSSFbw.s:2084   .text:0000000000000c5c .L0 
     /tmp/ccDSSFbw.s:2085   .text:0000000000000c5c .L0 
     /tmp/ccDSSFbw.s:2091   .text:0000000000000c74 .L0 
     /tmp/ccDSSFbw.s:2092   .text:0000000000000c74 .L0 
     /tmp/ccDSSFbw.s:2096   .text:0000000000000c84 .L0 
     /tmp/ccDSSFbw.s:2097   .text:0000000000000c84 .L0 
     /tmp/ccDSSFbw.s:2101   .text:0000000000000c94 .L0 
     /tmp/ccDSSFbw.s:2102   .text:0000000000000c94 .L0 
     /tmp/ccDSSFbw.s:2106   .text:0000000000000c98 .L0 
     /tmp/ccDSSFbw.s:2107   .text:0000000000000c98 .L0 
     /tmp/ccDSSFbw.s:2109   .text:0000000000000c9c .L0 
     /tmp/ccDSSFbw.s:2110   .text:0000000000000c9c .L0 
GAS LISTING /tmp/ccDSSFbw.s 			page 80


     /tmp/ccDSSFbw.s:2114   .text:0000000000000ca8 .L0 
     /tmp/ccDSSFbw.s:2115   .text:0000000000000ca8 .L0 
     /tmp/ccDSSFbw.s:2118   .text:0000000000000cac .L0 
     /tmp/ccDSSFbw.s:2121   .text:0000000000000cb0 .L0 
     /tmp/ccDSSFbw.s:2122   .text:0000000000000cb0 .L0 
     /tmp/ccDSSFbw.s:2126   .text:0000000000000cc0 .L0 
     /tmp/ccDSSFbw.s:2127   .text:0000000000000cc0 .L0 
     /tmp/ccDSSFbw.s:2131   .text:0000000000000cc4 .L0 
     /tmp/ccDSSFbw.s:2132   .text:0000000000000cc4 .L0 
     /tmp/ccDSSFbw.s:2134   .text:0000000000000cc8 .L0 
     /tmp/ccDSSFbw.s:2135   .text:0000000000000cc8 .L0 
     /tmp/ccDSSFbw.s:2139   .text:0000000000000cd4 .L0 
     /tmp/ccDSSFbw.s:2140   .text:0000000000000cd4 .L0 
     /tmp/ccDSSFbw.s:2143   .text:0000000000000cd8 .L0 
     /tmp/ccDSSFbw.s:2146   .text:0000000000000cdc .L0 
     /tmp/ccDSSFbw.s:2147   .text:0000000000000cdc .L0 
     /tmp/ccDSSFbw.s:2151   .text:0000000000000cec .L0 
     /tmp/ccDSSFbw.s:2152   .text:0000000000000cec .L0 
     /tmp/ccDSSFbw.s:2156   .text:0000000000000cf0 .L0 
     /tmp/ccDSSFbw.s:2157   .text:0000000000000cf0 .L0 
     /tmp/ccDSSFbw.s:2159   .text:0000000000000cf4 .L0 
     /tmp/ccDSSFbw.s:2160   .text:0000000000000cf4 .L0 
     /tmp/ccDSSFbw.s:2164   .text:0000000000000d00 .L0 
     /tmp/ccDSSFbw.s:2165   .text:0000000000000d00 .L0 
     /tmp/ccDSSFbw.s:2168   .text:0000000000000d04 .L0 
     /tmp/ccDSSFbw.s:2171   .text:0000000000000d08 .L0 
     /tmp/ccDSSFbw.s:2172   .text:0000000000000d0c .L0 
     /tmp/ccDSSFbw.s:2174   .text:0000000000000d10 .L0 
     /tmp/ccDSSFbw.s:2175   .text:0000000000000d10 .L0 
     /tmp/ccDSSFbw.s:2177   .text:0000000000000d14 .L0 
     /tmp/ccDSSFbw.s:2180   .text:0000000000000d18 .L0 
     /tmp/ccDSSFbw.s:2183   .text:0000000000000d1c .L0 
     /tmp/ccDSSFbw.s:2188   .text:0000000000000d24 .L0 
     /tmp/ccDSSFbw.s:2211   .text:0000000000000d24 _Z22printSlabAllocatorInfov
     /tmp/ccDSSFbw.s:2214   .text:0000000000000d24 .L0 
     /tmp/ccDSSFbw.s:2215   .text:0000000000000d24 .L0 
     /tmp/ccDSSFbw.s:2216   .text:0000000000000d28 .L0 
     /tmp/ccDSSFbw.s:2220   .text:0000000000000d34 .L0 
     /tmp/ccDSSFbw.s:2221   .text:0000000000000d34 .L0 
     /tmp/ccDSSFbw.s:2222   .text:0000000000000d34 .L0 
     /tmp/ccDSSFbw.s:2224   .text:0000000000000d38 .L0 
     /tmp/ccDSSFbw.s:2226   .text:0000000000000d38 .L0 
     /tmp/ccDSSFbw.s:2227   .text:0000000000000d38 .L0 
     /tmp/ccDSSFbw.s:2231   .text:0000000000000d48 .L0 
     /tmp/ccDSSFbw.s:2232   .text:0000000000000d48 .L0 
     /tmp/ccDSSFbw.s:2235   .text:0000000000000d54 .L0 
     /tmp/ccDSSFbw.s:2241   .text:0000000000000d6c .L0 
     /tmp/ccDSSFbw.s:2242   .text:0000000000000d6c .L0 
     /tmp/ccDSSFbw.s:2248   .text:0000000000000d84 .L0 
     /tmp/ccDSSFbw.s:2249   .text:0000000000000d84 .L0 
     /tmp/ccDSSFbw.s:2253   .text:0000000000000d94 .L0 
     /tmp/ccDSSFbw.s:2254   .text:0000000000000d94 .L0 
     /tmp/ccDSSFbw.s:2256   .text:0000000000000d98 .L0 
     /tmp/ccDSSFbw.s:2260   .text:0000000000000da4 .L0 
     /tmp/ccDSSFbw.s:2261   .text:0000000000000da4 .L0 
     /tmp/ccDSSFbw.s:2266   .text:0000000000000db4 .L0 
     /tmp/ccDSSFbw.s:2267   .text:0000000000000db4 .L0 
GAS LISTING /tmp/ccDSSFbw.s 			page 81


     /tmp/ccDSSFbw.s:2272   .text:0000000000000dbc .L0 
     /tmp/ccDSSFbw.s:2273   .text:0000000000000dbc .L0 
     /tmp/ccDSSFbw.s:2277   .text:0000000000000dc4 .L0 
     /tmp/ccDSSFbw.s:2281   .text:0000000000000dc8 .L0 
     /tmp/ccDSSFbw.s:2284   .text:0000000000000dd0 .L0 
     /tmp/ccDSSFbw.s:2285   .text:0000000000000dd0 .L0 
     /tmp/ccDSSFbw.s:2290   .text:0000000000000de4 .L0 
     /tmp/ccDSSFbw.s:2295   .text:0000000000000dec .L0 
     /tmp/ccDSSFbw.s:2296   .text:0000000000000df0 .L0 
     /tmp/ccDSSFbw.s:2298   .text:0000000000000df4 .L0 
     /tmp/ccDSSFbw.s:2299   .text:0000000000000df4 .L0 
     /tmp/ccDSSFbw.s:2301   .text:0000000000000df8 .L0 
     /tmp/ccDSSFbw.s:2304   .text:0000000000000dfc .L0 
     /tmp/ccDSSFbw.s:2306   .text:0000000000000e00 .L0 
     /tmp/ccDSSFbw.s:2317   .text:0000000000000e00 _Z7kmallocm
     /tmp/ccDSSFbw.s:2320   .text:0000000000000e00 .L0 
     /tmp/ccDSSFbw.s:2322   .text:0000000000000e00 .L0 
     /tmp/ccDSSFbw.s:2323   .text:0000000000000e04 .L0 
     /tmp/ccDSSFbw.s:2329   .text:0000000000000e18 .L0 
     /tmp/ccDSSFbw.s:2330   .text:0000000000000e18 .L0 
     /tmp/ccDSSFbw.s:2331   .text:0000000000000e18 .L0 
     /tmp/ccDSSFbw.s:2332   .text:0000000000000e18 .L0 
     /tmp/ccDSSFbw.s:2333   .text:0000000000000e18 .L0 
     /tmp/ccDSSFbw.s:2335   .text:0000000000000e1c .L0 
     /tmp/ccDSSFbw.s:2338   .text:0000000000000e20 .L0 
     /tmp/ccDSSFbw.s:2339   .text:0000000000000e20 .L0 
     /tmp/ccDSSFbw.s:2342   .text:0000000000000e28 .L0 
     /tmp/ccDSSFbw.s:2345   .text:0000000000000e30 .L0 
     /tmp/ccDSSFbw.s:2348   .text:0000000000000e38 .L0 
     /tmp/ccDSSFbw.s:2352   .text:0000000000000e40 .L0 
     /tmp/ccDSSFbw.s:2356   .text:0000000000000e44 .L0 
     /tmp/ccDSSFbw.s:2357   .text:0000000000000e44 .L0 
     /tmp/ccDSSFbw.s:2360   .text:0000000000000e48 .L0 
     /tmp/ccDSSFbw.s:2361   .text:0000000000000e48 .L0 
     /tmp/ccDSSFbw.s:2366   .text:0000000000000e5c .L0 
     /tmp/ccDSSFbw.s:2369   .text:0000000000000e60 .L0 
     /tmp/ccDSSFbw.s:2370   .text:0000000000000e60 .L0 
     /tmp/ccDSSFbw.s:2380   .text:0000000000000e80 .L0 
     /tmp/ccDSSFbw.s:2382   .text:0000000000000e88 .L0 
     /tmp/ccDSSFbw.s:2383   .text:0000000000000e88 .L0 
     /tmp/ccDSSFbw.s:2385   .text:0000000000000e8c .L0 
     /tmp/ccDSSFbw.s:2386   .text:0000000000000e8c .L0 
     /tmp/ccDSSFbw.s:2388   .text:0000000000000e90 .L0 
     /tmp/ccDSSFbw.s:2390   .text:0000000000000e94 .L0 
     /tmp/ccDSSFbw.s:2392   .text:0000000000000e98 .L0 
     /tmp/ccDSSFbw.s:2395   .text:0000000000000e9c .L0 
     /tmp/ccDSSFbw.s:2399   .text:0000000000000ea0 .L0 
     /tmp/ccDSSFbw.s:2401   .text:0000000000000ea0 .L0 
     /tmp/ccDSSFbw.s:2402   .text:0000000000000ea0 .L0 
     /tmp/ccDSSFbw.s:2406   .text:0000000000000eac .L0 
     /tmp/ccDSSFbw.s:2410   .text:0000000000000eb8 .L0 
     /tmp/ccDSSFbw.s:2411   .text:0000000000000eb8 .L0 
     /tmp/ccDSSFbw.s:2415   .text:0000000000000ec8 .L0 
     /tmp/ccDSSFbw.s:2417   .text:0000000000000ecc .L0 
     /tmp/ccDSSFbw.s:2418   .text:0000000000000ecc .L0 
     /tmp/ccDSSFbw.s:2430   .text:0000000000000f00 .L0 
     /tmp/ccDSSFbw.s:2436   .text:0000000000000f00 _Z5kfreePKv
GAS LISTING /tmp/ccDSSFbw.s 			page 82


     /tmp/ccDSSFbw.s:2439   .text:0000000000000f00 .L0 
     /tmp/ccDSSFbw.s:2441   .text:0000000000000f00 .L0 
     /tmp/ccDSSFbw.s:2442   .text:0000000000000f00 .L0 
     /tmp/ccDSSFbw.s:2444   .text:0000000000000f04 .L0 
     /tmp/ccDSSFbw.s:2445   .text:0000000000000f08 .L0 
     /tmp/ccDSSFbw.s:2450   .text:0000000000000f18 .L0 
     /tmp/ccDSSFbw.s:2451   .text:0000000000000f18 .L0 
     /tmp/ccDSSFbw.s:2452   .text:0000000000000f18 .L0 
     /tmp/ccDSSFbw.s:2453   .text:0000000000000f18 .L0 
     /tmp/ccDSSFbw.s:2455   .text:0000000000000f1c .L0 
     /tmp/ccDSSFbw.s:2459   .text:0000000000000f20 .L0 
     /tmp/ccDSSFbw.s:2462   .text:0000000000000f24 .L0 
     /tmp/ccDSSFbw.s:2467   .text:0000000000000f28 .L0 
     /tmp/ccDSSFbw.s:2470   .text:0000000000000f30 .L0 
     /tmp/ccDSSFbw.s:2471   .text:0000000000000f30 .L0 
     /tmp/ccDSSFbw.s:2480   .text:0000000000000f50 .L0 
     /tmp/ccDSSFbw.s:2482   .text:0000000000000f54 .L0 
     /tmp/ccDSSFbw.s:2488   .text:0000000000000f5c .L0 
     /tmp/ccDSSFbw.s:2490   .text:0000000000000f60 .L0 
     /tmp/ccDSSFbw.s:2491   .text:0000000000000f60 .L0 
     /tmp/ccDSSFbw.s:2496   .text:0000000000000f6c .L0 
     /tmp/ccDSSFbw.s:2497   .text:0000000000000f70 .L0 
     /tmp/ccDSSFbw.s:2499   .text:0000000000000f74 .L0 
     /tmp/ccDSSFbw.s:2500   .text:0000000000000f74 .L0 
     /tmp/ccDSSFbw.s:2502   .text:0000000000000f78 .L0 
     /tmp/ccDSSFbw.s:2505   .text:0000000000000f7c .L0 
     /tmp/ccDSSFbw.s:2508   .text:0000000000000f80 .L0 
     /tmp/ccDSSFbw.s:2513   .text:0000000000000f88 .L0 
     /tmp/ccDSSFbw.s:2519   .text:0000000000000f88 _Z18kmem_cache_destroyP12kmem_cache_s
     /tmp/ccDSSFbw.s:2522   .text:0000000000000f88 .L0 
     /tmp/ccDSSFbw.s:2524   .text:0000000000000f88 .L0 
     /tmp/ccDSSFbw.s:2525   .text:0000000000000f8c .L0 
     /tmp/ccDSSFbw.s:2529   .text:0000000000000f98 .L0 
     /tmp/ccDSSFbw.s:2530   .text:0000000000000f98 .L0 
     /tmp/ccDSSFbw.s:2531   .text:0000000000000f98 .L0 
     /tmp/ccDSSFbw.s:2533   .text:0000000000000f9c .L0 
     /tmp/ccDSSFbw.s:2536   .text:0000000000000fa0 .L0 
     /tmp/ccDSSFbw.s:2537   .text:0000000000000fa0 .L0 
     /tmp/ccDSSFbw.s:2539   .text:0000000000000fa4 .L0 
     /tmp/ccDSSFbw.s:2542   .text:0000000000000fa8 .L0 
     /tmp/ccDSSFbw.s:2543   .text:0000000000000fa8 .L0 
     /tmp/ccDSSFbw.s:2549   .text:0000000000000fb4 .L0 
     /tmp/ccDSSFbw.s:2550   .text:0000000000000fb4 .L0 
     /tmp/ccDSSFbw.s:2551   .text:0000000000000fb8 .L0 
     /tmp/ccDSSFbw.s:2552   .text:0000000000000fb8 .L0 
     /tmp/ccDSSFbw.s:2554   .text:0000000000000fbc .L0 
     /tmp/ccDSSFbw.s:2555   .text:0000000000000fbc .L0 
     /tmp/ccDSSFbw.s:2557   .text:0000000000000fc0 .L0 
     /tmp/ccDSSFbw.s:2560   .text:0000000000000fc4 .L0 
     /tmp/ccDSSFbw.s:2564   .text:0000000000000fc8 .L0 
     /tmp/ccDSSFbw.s:2566   .text:0000000000000fc8 .L0 
     /tmp/ccDSSFbw.s:2568   .text:0000000000000fcc .L0 
     /tmp/ccDSSFbw.s:2570   .text:0000000000000fd0 .L0 
     /tmp/ccDSSFbw.s:2571   .text:0000000000000fd0 .L0 
     /tmp/ccDSSFbw.s:2575   .text:0000000000000fdc .L0 
     /tmp/ccDSSFbw.s:2576   .text:0000000000000fdc .L0 
     /tmp/ccDSSFbw.s:2580   .text:0000000000000fe8 .L0 
GAS LISTING /tmp/ccDSSFbw.s 			page 83


     /tmp/ccDSSFbw.s:2581   .text:0000000000000fe8 .L0 
     /tmp/ccDSSFbw.s:2585   .text:0000000000000ff4 .L0 
     /tmp/ccDSSFbw.s:2586   .text:0000000000000ff4 .L0 
     /tmp/ccDSSFbw.s:2592   .text:0000000000001010 .L0 
     /tmp/ccDSSFbw.s:2598   .text:0000000000001010 _Z17kmem_cache_shrinkP12kmem_cache_s
     /tmp/ccDSSFbw.s:2601   .text:0000000000001010 .L0 
     /tmp/ccDSSFbw.s:2603   .text:0000000000001010 .L0 
     /tmp/ccDSSFbw.s:2604   .text:0000000000001010 .L0 
     /tmp/ccDSSFbw.s:2606   .text:0000000000001014 .L0 
     /tmp/ccDSSFbw.s:2607   .text:0000000000001018 .L0 
     /tmp/ccDSSFbw.s:2610   .text:0000000000001020 .L0 
     /tmp/ccDSSFbw.s:2611   .text:0000000000001020 .L0 
     /tmp/ccDSSFbw.s:2613   .text:0000000000001024 .L0 
     /tmp/ccDSSFbw.s:2615   .text:0000000000001024 .L0 
     /tmp/ccDSSFbw.s:2616   .text:0000000000001024 .L0 
     /tmp/ccDSSFbw.s:2621   .text:0000000000001030 .L0 
     /tmp/ccDSSFbw.s:2622   .text:0000000000001030 .L0 
     /tmp/ccDSSFbw.s:2623   .text:0000000000001034 .L0 
     /tmp/ccDSSFbw.s:2625   .text:0000000000001038 .L0 
     /tmp/ccDSSFbw.s:2626   .text:0000000000001038 .L0 
     /tmp/ccDSSFbw.s:2628   .text:000000000000103c .L0 
     /tmp/ccDSSFbw.s:2633   .text:0000000000001040 .L0 
     /tmp/ccDSSFbw.s:2636   .text:0000000000001044 .L0 
     /tmp/ccDSSFbw.s:2637   .text:0000000000001048 .L0 
     /tmp/ccDSSFbw.s:2651   .text:0000000000001048 _Z16kmem_cache_errorP12kmem_cache_s
     /tmp/ccDSSFbw.s:2654   .text:0000000000001048 .L0 
     /tmp/ccDSSFbw.s:2656   .text:0000000000001048 .L0 
     /tmp/ccDSSFbw.s:2657   .text:0000000000001048 .L0 
     /tmp/ccDSSFbw.s:2659   .text:000000000000104c .L0 
     /tmp/ccDSSFbw.s:2660   .text:0000000000001050 .L0 
     /tmp/ccDSSFbw.s:2664   .text:000000000000105c .L0 
     /tmp/ccDSSFbw.s:2665   .text:000000000000105c .L0 
     /tmp/ccDSSFbw.s:2666   .text:000000000000105c .L0 
     /tmp/ccDSSFbw.s:2668   .text:0000000000001060 .L0 
     /tmp/ccDSSFbw.s:2671   .text:0000000000001064 .L0 
     /tmp/ccDSSFbw.s:2672   .text:0000000000001064 .L0 
     /tmp/ccDSSFbw.s:2674   .text:0000000000001068 .L0 
     /tmp/ccDSSFbw.s:2676   .text:000000000000106c .L0 
     /tmp/ccDSSFbw.s:2680   .text:0000000000001070 .L0 
     /tmp/ccDSSFbw.s:2681   .text:0000000000001070 .L0 
     /tmp/ccDSSFbw.s:2683   .text:0000000000001074 .L0 
     /tmp/ccDSSFbw.s:2685   .text:0000000000001078 .L0 
     /tmp/ccDSSFbw.s:2688   .text:000000000000107c .L0 
     /tmp/ccDSSFbw.s:2689   .text:000000000000107c .L0 
     /tmp/ccDSSFbw.s:2691   .text:0000000000001080 .L0 
     /tmp/ccDSSFbw.s:2692   .text:0000000000001084 .L0 
     /tmp/ccDSSFbw.s:2693   .text:0000000000001084 .L0 
     /tmp/ccDSSFbw.s:2695   .text:0000000000001088 .L0 
     /tmp/ccDSSFbw.s:2696   .text:0000000000001088 .L0 
     /tmp/ccDSSFbw.s:2698   .text:000000000000108c .L0 
     /tmp/ccDSSFbw.s:2701   .text:0000000000001090 .L0 
     /tmp/ccDSSFbw.s:2705   .text:0000000000001094 .L0 
     /tmp/ccDSSFbw.s:2707   .text:0000000000001094 .L0 
     /tmp/ccDSSFbw.s:2708   .text:0000000000001094 .L0 
     /tmp/ccDSSFbw.s:2714   .text:00000000000010a8 .L0 
     /tmp/ccDSSFbw.s:2715   .text:00000000000010a8 .L0 
     /tmp/ccDSSFbw.s:2721   .text:00000000000010bc .L0 
GAS LISTING /tmp/ccDSSFbw.s 			page 84


     /tmp/ccDSSFbw.s:2722   .text:00000000000010bc .L0 
     /tmp/ccDSSFbw.s:2723   .text:00000000000010bc .L0 
     /tmp/ccDSSFbw.s:2724   .text:00000000000010bc .L0 
     /tmp/ccDSSFbw.s:2726   .text:00000000000010bc .L0 
     /tmp/ccDSSFbw.s:2729   .text:00000000000010c0 .L0 
     /tmp/ccDSSFbw.s:2730   .text:00000000000010c4 .L0 
     /tmp/ccDSSFbw.s:2735   .bss:0000000000000000 .LANCHOR0
     /tmp/ccDSSFbw.s:2738   .bss:0000000000000000 _ZL13slabAllocator
     /tmp/ccDSSFbw.s:2748   .text:00000000000010c4 .L0 
     /tmp/ccDSSFbw.s:109    .text:000000000000007c .L0 
     /tmp/ccDSSFbw.s:240    .rodata.str1.8:0000000000000000 .LC0
     /tmp/ccDSSFbw.s:296    .text:000000000000019c .L0 
     /tmp/ccDSSFbw.s:946    .text:0000000000000564 .L0 
     /tmp/ccDSSFbw.s:1334   .rodata.str1.8:0000000000000010 .LC1
     /tmp/ccDSSFbw.s:1372   .text:000000000000078c .L0 
     /tmp/ccDSSFbw.s:1337   .rodata.str1.8:0000000000000028 .LC2
     /tmp/ccDSSFbw.s:1380   .text:00000000000007a4 .L0 
     /tmp/ccDSSFbw.s:1340   .rodata.str1.8:0000000000000038 .LC3
     /tmp/ccDSSFbw.s:1387   .text:00000000000007bc .L0 
     /tmp/ccDSSFbw.s:1343   .rodata.str1.8:0000000000000058 .LC4
     /tmp/ccDSSFbw.s:1394   .text:00000000000007d4 .L0 
     /tmp/ccDSSFbw.s:1346   .rodata.str1.8:0000000000000070 .LC5
     /tmp/ccDSSFbw.s:1423   .text:0000000000000810 .L0 
     /tmp/ccDSSFbw.s:1623   .text:0000000000000968 .L0 
     /tmp/ccDSSFbw.s:1863   .text:0000000000000aec .L0 
     /tmp/ccDSSFbw.s:2007   .rodata.str1.8:0000000000000078 .LC6
     /tmp/ccDSSFbw.s:2057   .text:0000000000000c08 .L0 
     /tmp/ccDSSFbw.s:2010   .rodata.str1.8:00000000000000b0 .LC7
     /tmp/ccDSSFbw.s:2063   .text:0000000000000c18 .L0 
     /tmp/ccDSSFbw.s:2073   .text:0000000000000c34 .L0 
     /tmp/ccDSSFbw.s:2013   .rodata.str1.8:00000000000000c0 .LC8
     /tmp/ccDSSFbw.s:2080   .text:0000000000000c4c .L0 
     /tmp/ccDSSFbw.s:2016   .rodata.str1.8:00000000000000e0 .LC9
     /tmp/ccDSSFbw.s:2087   .text:0000000000000c64 .L0 
     /tmp/ccDSSFbw.s:2019   .rodata.str1.8:0000000000000100 .LC10
     /tmp/ccDSSFbw.s:2092   .text:0000000000000c74 .L0 
     /tmp/ccDSSFbw.s:2022   .rodata.str1.8:0000000000000120 .LC11
     /tmp/ccDSSFbw.s:2097   .text:0000000000000c84 .L0 
     /tmp/ccDSSFbw.s:2025   .rodata.str1.8:0000000000000130 .LC12
     /tmp/ccDSSFbw.s:2122   .text:0000000000000cb0 .L0 
     /tmp/ccDSSFbw.s:2028   .rodata.str1.8:0000000000000140 .LC13
     /tmp/ccDSSFbw.s:2147   .text:0000000000000cdc .L0 
     /tmp/ccDSSFbw.s:2193   .rodata.str1.8:0000000000000150 .LC14
     /tmp/ccDSSFbw.s:2227   .text:0000000000000d38 .L0 
     /tmp/ccDSSFbw.s:2232   .text:0000000000000d48 .L0 
     /tmp/ccDSSFbw.s:2196   .rodata.str1.8:00000000000001a0 .LC15
     /tmp/ccDSSFbw.s:2237   .text:0000000000000d5c .L0 
     /tmp/ccDSSFbw.s:2199   .rodata.str1.8:00000000000001c0 .LC16
     /tmp/ccDSSFbw.s:2244   .text:0000000000000d74 .L0 
     /tmp/ccDSSFbw.s:2202   .rodata.str1.8:00000000000001d8 .LC17
     /tmp/ccDSSFbw.s:2249   .text:0000000000000d84 .L0 
     /tmp/ccDSSFbw.s:2205   .rodata.str1.8:00000000000001f0 .LC18
     /tmp/ccDSSFbw.s:2261   .text:0000000000000da4 .L0 
     /tmp/ccDSSFbw.s:2286   .text:0000000000000dd4 .L0 
     /tmp/ccDSSFbw.s:2361   .text:0000000000000e48 .L0 
     /tmp/ccDSSFbw.s:2371   .text:0000000000000e64 .L0 
     /tmp/ccDSSFbw.s:2411   .text:0000000000000eb8 .L0 
GAS LISTING /tmp/ccDSSFbw.s 			page 85


     /tmp/ccDSSFbw.s:2311   .rodata.str1.8:0000000000000208 .LC19
     /tmp/ccDSSFbw.s:2425   .text:0000000000000ee8 .L0 
     /tmp/ccDSSFbw.s:2472   .text:0000000000000f34 .L0 
     /tmp/ccDSSFbw.s:2587   .text:0000000000000ff8 .L0 
     /tmp/ccDSSFbw.s:2642   .rodata.str1.8:0000000000000220 .LC20
     /tmp/ccDSSFbw.s:2708   .text:0000000000001094 .L0 
     /tmp/ccDSSFbw.s:2645   .rodata.str1.8:0000000000000230 .LC21
     /tmp/ccDSSFbw.s:2715   .text:00000000000010a8 .L0 
     /tmp/ccDSSFbw.s:41     .text:0000000000000024 .L2
     /tmp/ccDSSFbw.s:21     .text:000000000000000c .L3
     /tmp/ccDSSFbw.s:124    .text:000000000000009c .L8
     /tmp/ccDSSFbw.s:128    .text:00000000000000a0 .L6
     /tmp/ccDSSFbw.s:94     .text:000000000000006c .L7
     /tmp/ccDSSFbw.s:284    .text:0000000000000184 .L14
     /tmp/ccDSSFbw.s:275    .text:0000000000000174 .L16
     /tmp/ccDSSFbw.s:516    .text:0000000000000300 .L26
     /tmp/ccDSSFbw.s:471    .text:00000000000002b8 .L27
     /tmp/ccDSSFbw.s:454    .text:00000000000002a0 .L29
     /tmp/ccDSSFbw.s:435    .text:0000000000000278 .L25
     /tmp/ccDSSFbw.s:478    .text:00000000000002c0 .L23
     /tmp/ccDSSFbw.s:496    .text:00000000000002e0 .L21
     /tmp/ccDSSFbw.s:618    .text:0000000000000378 .L34
     /tmp/ccDSSFbw.s:614    .text:0000000000000374 .L36
     /tmp/ccDSSFbw.s:675    .text:00000000000003c0 .L44
     /tmp/ccDSSFbw.s:660    .text:00000000000003ac .L42
     /tmp/ccDSSFbw.s:685    .text:00000000000003cc .L40
     /tmp/ccDSSFbw.s:666    .text:00000000000003b4 .L38
     /tmp/ccDSSFbw.s:1055   .text:0000000000000610 .L53
     /tmp/ccDSSFbw.s:965    .text:0000000000000590 .L55
     /tmp/ccDSSFbw.s:1017   .text:00000000000005d8 .L56
     /tmp/ccDSSFbw.s:1001   .text:00000000000005bc .L57
     /tmp/ccDSSFbw.s:1029   .text:00000000000005e4 .L58
     /tmp/ccDSSFbw.s:1109   .text:000000000000064c .L61
     /tmp/ccDSSFbw.s:1096   .text:000000000000063c .L62
     /tmp/ccDSSFbw.s:1128   .text:0000000000000660 .L65
     /tmp/ccDSSFbw.s:1153   .text:0000000000000684 .L63
     /tmp/ccDSSFbw.s:1124   .text:000000000000065c .L64
     /tmp/ccDSSFbw.s:1225   .text:00000000000006dc .L68
     /tmp/ccDSSFbw.s:1276   .text:000000000000071c .L76
     /tmp/ccDSSFbw.s:1200   .text:00000000000006b8 .L72
     /tmp/ccDSSFbw.s:1236   .text:00000000000006e8 .L70
     /tmp/ccDSSFbw.s:1194   .text:00000000000006b4 .L71
     /tmp/ccDSSFbw.s:1250   .text:00000000000006f4 .L74
     /tmp/ccDSSFbw.s:1244   .text:00000000000006f0 .L73
     /tmp/ccDSSFbw.s:1430   .text:0000000000000828 .L80
     /tmp/ccDSSFbw.s:1402   .text:00000000000007e8 .L82
     /tmp/ccDSSFbw.s:1588   .text:0000000000000944 .L89
     /tmp/ccDSSFbw.s:1506   .text:000000000000089c .L84
     /tmp/ccDSSFbw.s:1523   .text:00000000000008b4 .L92
     /tmp/ccDSSFbw.s:1546   .text:00000000000008e4 .L93
     /tmp/ccDSSFbw.s:1573   .text:0000000000000924 .L94
     /tmp/ccDSSFbw.s:1821   .text:0000000000000ab0 .L105
     /tmp/ccDSSFbw.s:1710   .text:00000000000009f8 .L107
     /tmp/ccDSSFbw.s:1762   .text:0000000000000a40 .L101
     /tmp/ccDSSFbw.s:1729   .text:0000000000000a14 .L97
     /tmp/ccDSSFbw.s:1749   .text:0000000000000a30 .L108
     /tmp/ccDSSFbw.s:1812   .text:0000000000000aa0 .L109
GAS LISTING /tmp/ccDSSFbw.s 			page 86


     /tmp/ccDSSFbw.s:1886   .text:0000000000000b34 .L110
     /tmp/ccDSSFbw.s:2000   .text:0000000000000be4 .L118
     /tmp/ccDSSFbw.s:1981   .text:0000000000000bc8 .L113
     /tmp/ccDSSFbw.s:1963   .text:0000000000000ba8 .L115
     /tmp/ccDSSFbw.s:1974   .text:0000000000000bb8 .L116
     /tmp/ccDSSFbw.s:2186   .text:0000000000000d20 .L129
     /tmp/ccDSSFbw.s:2119   .text:0000000000000cb0 .L123
     /tmp/ccDSSFbw.s:2104   .text:0000000000000c98 .L124
     /tmp/ccDSSFbw.s:2144   .text:0000000000000cdc .L125
     /tmp/ccDSSFbw.s:2129   .text:0000000000000cc4 .L126
     /tmp/ccDSSFbw.s:2169   .text:0000000000000d08 .L121
     /tmp/ccDSSFbw.s:2154   .text:0000000000000cf0 .L127
     /tmp/ccDSSFbw.s:2279   .text:0000000000000dc8 .L135
     /tmp/ccDSSFbw.s:2292   .text:0000000000000dec .L132
     /tmp/ccDSSFbw.s:2270   .text:0000000000000dbc .L137
     /tmp/ccDSSFbw.s:2275   .text:0000000000000dc4 .L134
     /tmp/ccDSSFbw.s:2350   .text:0000000000000e40 .L142
     /tmp/ccDSSFbw.s:2354   .text:0000000000000e44 .L139
     /tmp/ccDSSFbw.s:2378   .text:0000000000000e80 .L138
     /tmp/ccDSSFbw.s:2398   .text:0000000000000ea0 .L145
     /tmp/ccDSSFbw.s:2367   .text:0000000000000e60 .L141
     /tmp/ccDSSFbw.s:2511   .text:0000000000000f84 .L151
     /tmp/ccDSSFbw.s:2485   .text:0000000000000f5c .L148
     /tmp/ccDSSFbw.s:2464   .text:0000000000000f28 .L149
     /tmp/ccDSSFbw.s:2494   .text:0000000000000f6c .L146
     /tmp/ccDSSFbw.s:2563   .text:0000000000000fc8 .L159
     /tmp/ccDSSFbw.s:2540   .text:0000000000000fa8 .L155
     /tmp/ccDSSFbw.s:2548   .text:0000000000000fb4 .L154
     /tmp/ccDSSFbw.s:2631   .text:0000000000001040 .L162
     /tmp/ccDSSFbw.s:2720   .text:00000000000010bc .L171
     /tmp/ccDSSFbw.s:2704   .text:0000000000001094 .L176
     /tmp/ccDSSFbw.s:2712   .text:00000000000010a8 .L177
     /tmp/ccDSSFbw.s:2678   .text:0000000000001070 .L169
     /tmp/ccDSSFbw.s:2686   .text:000000000000107c .L170
     /tmp/ccDSSFbw.s:6262   .debug_abbrev:0000000000000000 .Ldebug_abbrev0
     /tmp/ccDSSFbw.s:9026   .debug_str:0000000000000fa5 .LASF309
     /tmp/ccDSSFbw.s:8822   .debug_str:000000000000088c .LASF310
     /tmp/ccDSSFbw.s:8698   .debug_str:000000000000048f .LASF311
     /tmp/ccDSSFbw.s:5      .text:0000000000000000 .Ltext0
     /tmp/ccDSSFbw.s:2741   .text:00000000000010c4 .Letext0
     /tmp/ccDSSFbw.s:8554   .debug_line:0000000000000000 .Ldebug_line0
     /tmp/ccDSSFbw.s:8774   .debug_str:0000000000000706 .LASF0
     /tmp/ccDSSFbw.s:8804   .debug_str:000000000000080e .LASF1
     /tmp/ccDSSFbw.s:8960   .debug_str:0000000000000d62 .LASF2
     /tmp/ccDSSFbw.s:8704   .debug_str:00000000000004bd .LASF3
     /tmp/ccDSSFbw.s:8976   .debug_str:0000000000000de1 .LASF4
     /tmp/ccDSSFbw.s:8786   .debug_str:0000000000000755 .LASF5
     /tmp/ccDSSFbw.s:8576   .debug_str:00000000000000be .LASF6
     /tmp/ccDSSFbw.s:8910   .debug_str:0000000000000ba0 .LASF7
     /tmp/ccDSSFbw.s:8796   .debug_str:00000000000007bf .LASF8
     /tmp/ccDSSFbw.s:8734   .debug_str:0000000000000597 .LASF9
     /tmp/ccDSSFbw.s:8744   .debug_str:00000000000005e4 .LASF10
     /tmp/ccDSSFbw.s:8636   .debug_str:00000000000002fd .LASF11
     /tmp/ccDSSFbw.s:8612   .debug_str:0000000000000201 .LASF12
     /tmp/ccDSSFbw.s:8720   .debug_str:0000000000000524 .LASF13
     /tmp/ccDSSFbw.s:8654   .debug_str:0000000000000359 .LASF14
     /tmp/ccDSSFbw.s:8634   .debug_str:00000000000002ed .LASF15
GAS LISTING /tmp/ccDSSFbw.s 			page 87


     /tmp/ccDSSFbw.s:9030   .debug_str:000000000000108b .LASF16
     /tmp/ccDSSFbw.s:8692   .debug_str:000000000000045f .LASF17
     /tmp/ccDSSFbw.s:9016   .debug_str:0000000000000f36 .LASF18
     /tmp/ccDSSFbw.s:8716   .debug_str:0000000000000506 .LASF19
     /tmp/ccDSSFbw.s:8714   .debug_str:00000000000004f9 .LASF30
     /tmp/ccDSSFbw.s:8736   .debug_str:00000000000005a7 .LASF20
     /tmp/ccDSSFbw.s:8712   .debug_str:00000000000004ed .LASF21
     /tmp/ccDSSFbw.s:8860   .debug_str:00000000000009dc .LASF22
     /tmp/ccDSSFbw.s:8738   .debug_str:00000000000005b1 .LASF23
     /tmp/ccDSSFbw.s:9008   .debug_str:0000000000000f01 .LASF24
     /tmp/ccDSSFbw.s:9124   .debug_str:00000000000013ae .LASF25
     /tmp/ccDSSFbw.s:8838   .debug_str:0000000000000911 .LASF26
     /tmp/ccDSSFbw.s:8772   .debug_str:0000000000000701 .LASF27
     /tmp/ccDSSFbw.s:8782   .debug_str:000000000000073c .LASF28
     /tmp/ccDSSFbw.s:9046   .debug_str:00000000000010d6 .LASF29
     /tmp/ccDSSFbw.s:8914   .debug_str:0000000000000bbb .LASF31
     /tmp/ccDSSFbw.s:8638   .debug_str:000000000000030c .LASF32
     /tmp/ccDSSFbw.s:8944   .debug_str:0000000000000cd6 .LASF33
     /tmp/ccDSSFbw.s:9040   .debug_str:00000000000010bf .LASF34
     /tmp/ccDSSFbw.s:8818   .debug_str:000000000000086b .LASF35
     /tmp/ccDSSFbw.s:8834   .debug_str:00000000000008f8 .LASF36
     /tmp/ccDSSFbw.s:8844   .debug_str:000000000000092a .LASF37
     /tmp/ccDSSFbw.s:9056   .debug_str:0000000000001104 .LASF38
     /tmp/ccDSSFbw.s:9100   .debug_str:00000000000012c7 .LASF39
     /tmp/ccDSSFbw.s:8808   .debug_str:000000000000082c .LASF40
     /tmp/ccDSSFbw.s:8708   .debug_str:00000000000004d1 .LASF41
     /tmp/ccDSSFbw.s:9050   .debug_str:00000000000010e6 .LASF312
     /tmp/ccDSSFbw.s:9042   .debug_str:00000000000010c5 .LASF42
     /tmp/ccDSSFbw.s:8998   .debug_str:0000000000000e9c .LASF43
     /tmp/ccDSSFbw.s:8646   .debug_str:000000000000032f .LASF44
     /tmp/ccDSSFbw.s:8614   .debug_str:0000000000000214 .LASF45
     /tmp/ccDSSFbw.s:8912   .debug_str:0000000000000bb3 .LASF46
     /tmp/ccDSSFbw.s:8644   .debug_str:0000000000000326 .LASF47
     /tmp/ccDSSFbw.s:9038   .debug_str:00000000000010b7 .LASF48
     /tmp/ccDSSFbw.s:8762   .debug_str:0000000000000694 .LASF49
     /tmp/ccDSSFbw.s:8578   .debug_str:00000000000000c5 .LASF55
     /tmp/ccDSSFbw.s:9088   .debug_str:0000000000001243 .LASF313
     /tmp/ccDSSFbw.s:8894   .debug_str:0000000000000b38 .LASF50
     /tmp/ccDSSFbw.s:8802   .debug_str:0000000000000809 .LASF51
     /tmp/ccDSSFbw.s:9164   .debug_str:00000000000014d6 .LASF53
     /tmp/ccDSSFbw.s:9156   .debug_str:00000000000014a4 .LASF52
     /tmp/ccDSSFbw.s:9066   .debug_str:000000000000116c .LASF54
     /tmp/ccDSSFbw.s:8678   .debug_str:000000000000041a .LASF78
     /tmp/ccDSSFbw.s:8590   .debug_str:000000000000013e .LASF80
     /tmp/ccDSSFbw.s:9054   .debug_str:00000000000010fc .LASF56
     /tmp/ccDSSFbw.s:8986   .debug_str:0000000000000e3b .LASF57
     /tmp/ccDSSFbw.s:8812   .debug_str:0000000000000841 .LASF60
     /tmp/ccDSSFbw.s:8826   .debug_str:00000000000008a7 .LASF62
     /tmp/ccDSSFbw.s:9172   .debug_str:000000000000153f .LASF58
     /tmp/ccDSSFbw.s:8700   .debug_str:00000000000004a4 .LASF59
     /tmp/ccDSSFbw.s:8568   .debug_str:000000000000007d .LASF104
     /tmp/ccDSSFbw.s:8666   .debug_str:00000000000003d1 .LASF106
     /tmp/ccDSSFbw.s:8990   .debug_str:0000000000000e58 .LASF61
     /tmp/ccDSSFbw.s:8864   .debug_str:00000000000009ed .LASF63
     /tmp/ccDSSFbw.s:8970   .debug_str:0000000000000da7 .LASF64
     /tmp/ccDSSFbw.s:9024   .debug_str:0000000000000f89 .LASF65
     /tmp/ccDSSFbw.s:8866   .debug_str:0000000000000a00 .LASF66
GAS LISTING /tmp/ccDSSFbw.s 			page 88


     /tmp/ccDSSFbw.s:8562   .debug_str:000000000000003f .LASF67
     /tmp/ccDSSFbw.s:9146   .debug_str:0000000000001460 .LASF68
     /tmp/ccDSSFbw.s:8908   .debug_str:0000000000000b86 .LASF69
     /tmp/ccDSSFbw.s:9014   .debug_str:0000000000000f28 .LASF70
     /tmp/ccDSSFbw.s:8926   .debug_str:0000000000000c15 .LASF71
     /tmp/ccDSSFbw.s:8672   .debug_str:00000000000003f8 .LASF72
     /tmp/ccDSSFbw.s:8724   .debug_str:0000000000000549 .LASF73
     /tmp/ccDSSFbw.s:8952   .debug_str:0000000000000d29 .LASF74
     /tmp/ccDSSFbw.s:9148   .debug_str:000000000000146f .LASF75
     /tmp/ccDSSFbw.s:9150   .debug_str:000000000000147e .LASF76
     /tmp/ccDSSFbw.s:8788   .debug_str:0000000000000767 .LASF77
     /tmp/ccDSSFbw.s:9010   .debug_str:0000000000000f0b .LASF79
     /tmp/ccDSSFbw.s:9162   .debug_str:00000000000014c0 .LASF81
     /tmp/ccDSSFbw.s:8748   .debug_str:0000000000000603 .LASF82
     /tmp/ccDSSFbw.s:8722   .debug_str:0000000000000533 .LASF83
     /tmp/ccDSSFbw.s:8982   .debug_str:0000000000000e18 .LASF84
     /tmp/ccDSSFbw.s:8776   .debug_str:0000000000000713 .LASF85
     /tmp/ccDSSFbw.s:8874   .debug_str:0000000000000a3a .LASF86
     /tmp/ccDSSFbw.s:8660   .debug_str:00000000000003a9 .LASF87
     /tmp/ccDSSFbw.s:8934   .debug_str:0000000000000c67 .LASF88
     /tmp/ccDSSFbw.s:9182   .debug_str:00000000000015a1 .LASF89
     /tmp/ccDSSFbw.s:8880   .debug_str:0000000000000a83 .LASF90
     /tmp/ccDSSFbw.s:8968   .debug_str:0000000000000d94 .LASF91
     /tmp/ccDSSFbw.s:8992   .debug_str:0000000000000e61 .LASF92
     /tmp/ccDSSFbw.s:9110   .debug_str:0000000000001309 .LASF93
     /tmp/ccDSSFbw.s:8852   .debug_str:000000000000098b .LASF94
     /tmp/ccDSSFbw.s:9092   .debug_str:0000000000001285 .LASF95
     /tmp/ccDSSFbw.s:9022   .debug_str:0000000000000f69 .LASF96
     /tmp/ccDSSFbw.s:8902   .debug_str:0000000000000b5a .LASF97
     /tmp/ccDSSFbw.s:8884   .debug_str:0000000000000ad0 .LASF98
     /tmp/ccDSSFbw.s:8686   .debug_str:000000000000043d .LASF99
     /tmp/ccDSSFbw.s:8778   .debug_str:0000000000000727 .LASF100
     /tmp/ccDSSFbw.s:8856   .debug_str:00000000000009c8 .LASF101
     /tmp/ccDSSFbw.s:9070   .debug_str:0000000000001187 .LASF102
     /tmp/ccDSSFbw.s:8728   .debug_str:000000000000055f .LASF103
     /tmp/ccDSSFbw.s:9154   .debug_str:0000000000001496 .LASF105
     /tmp/ccDSSFbw.s:8600   .debug_str:00000000000001a0 .LASF107
     /tmp/ccDSSFbw.s:8710   .debug_str:00000000000004d8 .LASF108
     /tmp/ccDSSFbw.s:8628   .debug_str:00000000000002ae .LASF109
     /tmp/ccDSSFbw.s:9144   .debug_str:0000000000001459 .LASF110
     /tmp/ccDSSFbw.s:8624   .debug_str:0000000000000278 .LASF111
     /tmp/ccDSSFbw.s:8566   .debug_str:0000000000000078 .LASF112
     /tmp/ccDSSFbw.s:9106   .debug_str:00000000000012f8 .LASF113
     /tmp/ccDSSFbw.s:8832   .debug_str:00000000000008f0 .LASF114
     /tmp/ccDSSFbw.s:8684   .debug_str:0000000000000437 .LASF115
     /tmp/ccDSSFbw.s:9086   .debug_str:000000000000123b .LASF116
     /tmp/ccDSSFbw.s:8746   .debug_str:00000000000005f2 .LASF117
     /tmp/ccDSSFbw.s:8840   .debug_str:0000000000000916 .LASF118
     /tmp/ccDSSFbw.s:8940   .debug_str:0000000000000ca6 .LASF119
     /tmp/ccDSSFbw.s:8740   .debug_str:00000000000005bf .LASF120
     /tmp/ccDSSFbw.s:8964   .debug_str:0000000000000d7c .LASF121
     /tmp/ccDSSFbw.s:8938   .debug_str:0000000000000c92 .LASF122
     /tmp/ccDSSFbw.s:8680   .debug_str:0000000000000423 .LASF123
     /tmp/ccDSSFbw.s:9006   .debug_str:0000000000000eea .LASF124
     /tmp/ccDSSFbw.s:9034   .debug_str:00000000000010aa .LASF125
     /tmp/ccDSSFbw.s:8870   .debug_str:0000000000000a18 .LASF126
     /tmp/ccDSSFbw.s:8558   .debug_str:000000000000000f .LASF127
GAS LISTING /tmp/ccDSSFbw.s 			page 89


     /tmp/ccDSSFbw.s:8966   .debug_str:0000000000000d88 .LASF128
     /tmp/ccDSSFbw.s:8846   .debug_str:0000000000000936 .LASF129
     /tmp/ccDSSFbw.s:8958   .debug_str:0000000000000d4d .LASF130
     /tmp/ccDSSFbw.s:8640   .debug_str:0000000000000311 .LASF131
     /tmp/ccDSSFbw.s:8648   .debug_str:0000000000000339 .LASF132
     /tmp/ccDSSFbw.s:8868   .debug_str:0000000000000a0f .LASF133
     /tmp/ccDSSFbw.s:8974   .debug_str:0000000000000dd6 .LASF134
     /tmp/ccDSSFbw.s:8556   .debug_str:0000000000000000 .LASF135
     /tmp/ccDSSFbw.s:8756   .debug_str:0000000000000651 .LASF136
     /tmp/ccDSSFbw.s:9084   .debug_str:000000000000122c .LASF137
     /tmp/ccDSSFbw.s:9028   .debug_str:0000000000001069 .LASF138
     /tmp/ccDSSFbw.s:8994   .debug_str:0000000000000e7f .LASF139
     /tmp/ccDSSFbw.s:8658   .debug_str:0000000000000385 .LASF140
     /tmp/ccDSSFbw.s:8892   .debug_str:0000000000000b28 .LASF141
     /tmp/ccDSSFbw.s:8930   .debug_str:0000000000000c33 .LASF142
     /tmp/ccDSSFbw.s:8890   .debug_str:0000000000000b22 .LASF143
     /tmp/ccDSSFbw.s:9176   .debug_str:0000000000001572 .LASF144
     /tmp/ccDSSFbw.s:8570   .debug_str:000000000000008d .LASF145
     /tmp/ccDSSFbw.s:8830   .debug_str:00000000000008d6 .LASF146
     /tmp/ccDSSFbw.s:9170   .debug_str:000000000000152f .LASF147
     /tmp/ccDSSFbw.s:8978   .debug_str:0000000000000de8 .LASF148
     /tmp/ccDSSFbw.s:9032   .debug_str:0000000000001097 .LASF149
     /tmp/ccDSSFbw.s:8972   .debug_str:0000000000000db0 .LASF150
     /tmp/ccDSSFbw.s:9178   .debug_str:000000000000158a .LASF151
     /tmp/ccDSSFbw.s:8800   .debug_str:00000000000007e5 .LASF152
     /tmp/ccDSSFbw.s:8872   .debug_str:0000000000000a31 .LASF153
     /tmp/ccDSSFbw.s:8610   .debug_str:00000000000001f1 .LASF154
     /tmp/ccDSSFbw.s:9076   .debug_str:00000000000011b2 .LASF155
     /tmp/ccDSSFbw.s:8980   .debug_str:0000000000000e0b .LASF156
     /tmp/ccDSSFbw.s:8564   .debug_str:0000000000000059 .LASF157
     /tmp/ccDSSFbw.s:8598   .debug_str:000000000000018d .LASF158
     /tmp/ccDSSFbw.s:8886   .debug_str:0000000000000aef .LASF159
     /tmp/ccDSSFbw.s:8904   .debug_str:0000000000000b6e .LASF160
     /tmp/ccDSSFbw.s:8760   .debug_str:0000000000000680 .LASF161
     /tmp/ccDSSFbw.s:8896   .debug_str:0000000000000b3d .LASF162
     /tmp/ccDSSFbw.s:8806   .debug_str:0000000000000821 .LASF163
     /tmp/ccDSSFbw.s:8924   .debug_str:0000000000000c0b .LASF164
     /tmp/ccDSSFbw.s:9112   .debug_str:000000000000131c .LASF165
     /tmp/ccDSSFbw.s:9048   .debug_str:00000000000010db .LASF166
     /tmp/ccDSSFbw.s:9108   .debug_str:00000000000012fd .LASF167
     /tmp/ccDSSFbw.s:9122   .debug_str:00000000000013a1 .LASF168
     /tmp/ccDSSFbw.s:8858   .debug_str:00000000000009d0 .LASF169
     /tmp/ccDSSFbw.s:8922   .debug_str:0000000000000bff .LASF170
     /tmp/ccDSSFbw.s:9012   .debug_str:0000000000000f16 .LASF173
     /tmp/ccDSSFbw.s:9000   .debug_str:0000000000000ea4 .LASF175
     /tmp/ccDSSFbw.s:9098   .debug_str:00000000000012b5 .LASF171
     /tmp/ccDSSFbw.s:9142   .debug_str:0000000000001437 .LASF172
     /tmp/ccDSSFbw.s:9096   .debug_str:00000000000012a3 .LASF174
     /tmp/ccDSSFbw.s:8582   .debug_str:00000000000000f0 .LASF176
     /tmp/ccDSSFbw.s:8798   .debug_str:00000000000007d2 .LASF177
     /tmp/ccDSSFbw.s:8622   .debug_str:0000000000000255 .LASF178
     /tmp/ccDSSFbw.s:8690   .debug_str:000000000000044c .LASF179
     /tmp/ccDSSFbw.s:8616   .debug_str:000000000000021d .LASF180
     /tmp/ccDSSFbw.s:8592   .debug_str:0000000000000151 .LASF181
     /tmp/ccDSSFbw.s:9120   .debug_str:0000000000001392 .LASF182
     /tmp/ccDSSFbw.s:8854   .debug_str:00000000000009a9 .LASF183
     /tmp/ccDSSFbw.s:9140   .debug_str:000000000000141e .LASF184
GAS LISTING /tmp/ccDSSFbw.s 			page 90


     /tmp/ccDSSFbw.s:8790   .debug_str:0000000000000774 .LASF185
     /tmp/ccDSSFbw.s:8816   .debug_str:0000000000000853 .LASF186
     /tmp/ccDSSFbw.s:9166   .debug_str:00000000000014e2 .LASF187
     /tmp/ccDSSFbw.s:8718   .debug_str:0000000000000513 .LASF188
     /tmp/ccDSSFbw.s:9132   .debug_str:00000000000013e6 .LASF189
     /tmp/ccDSSFbw.s:8730   .debug_str:000000000000056b .LASF190
     /tmp/ccDSSFbw.s:9152   .debug_str:0000000000001489 .LASF191
     /tmp/ccDSSFbw.s:8752   .debug_str:000000000000062f .LASF192
     /tmp/ccDSSFbw.s:8584   .debug_str:0000000000000112 .LASF193
     /tmp/ccDSSFbw.s:8820   .debug_str:0000000000000870 .LASF194
     /tmp/ccDSSFbw.s:8888   .debug_str:0000000000000b16 .LASF195
     /tmp/ccDSSFbw.s:8594   .debug_str:000000000000016c .LASF196
     /tmp/ccDSSFbw.s:9062   .debug_str:0000000000001153 .LASF197
     /tmp/ccDSSFbw.s:8596   .debug_str:0000000000000188 .LASF198
     /tmp/ccDSSFbw.s:9036   .debug_str:00000000000010b1 .LASF199
     /tmp/ccDSSFbw.s:8956   .debug_str:0000000000000d40 .LASF200
     /tmp/ccDSSFbw.s:8572   .debug_str:0000000000000095 .LASF201
     /tmp/ccDSSFbw.s:8878   .debug_str:0000000000000a79 .LASF202
     /tmp/ccDSSFbw.s:8694   .debug_str:0000000000000475 .LASF203
     /tmp/ccDSSFbw.s:8792   .debug_str:000000000000079d .LASF204
     /tmp/ccDSSFbw.s:8862   .debug_str:00000000000009e7 .LASF205
     /tmp/ccDSSFbw.s:8936   .debug_str:0000000000000c84 .LASF206
     /tmp/ccDSSFbw.s:8920   .debug_str:0000000000000bf1 .LASF207
     /tmp/ccDSSFbw.s:8794   .debug_str:00000000000007ae .LASF208
     /tmp/ccDSSFbw.s:9134   .debug_str:00000000000013f8 .LASF209
     /tmp/ccDSSFbw.s:9158   .debug_str:00000000000014aa .LASF210
     /tmp/ccDSSFbw.s:9168   .debug_str:000000000000150b .LASF212
     /tmp/ccDSSFbw.s:2652   .text:0000000000001048 .LFB36
     /tmp/ccDSSFbw.s:2731   .text:00000000000010c4 .LFE36
     /tmp/ccDSSFbw.s:8764   .debug_str:000000000000069a .LASF214
     /tmp/ccDSSFbw.s:7264   .debug_loc:0000000000000000 .LLST82
     /tmp/ccDSSFbw.s:2710   .text:00000000000010a4 .LVL274
     /tmp/ccDSSFbw.s:2717   .text:00000000000010b8 .LVL275
     /tmp/ccDSSFbw.s:9004   .debug_str:0000000000000ed8 .LASF211
     /tmp/ccDSSFbw.s:9116   .debug_str:000000000000134a .LASF213
     /tmp/ccDSSFbw.s:2599   .text:0000000000001010 .LFB35
     /tmp/ccDSSFbw.s:2638   .text:0000000000001048 .LFE35
     /tmp/ccDSSFbw.s:7297   .debug_loc:0000000000000088 .LLST80
     /tmp/ccDSSFbw.s:8988   .debug_str:0000000000000e4c .LASF215
     /tmp/ccDSSFbw.s:7328   .debug_loc:00000000000000ff .LLST81
     /tmp/ccDSSFbw.s:2619   .text:0000000000001030 .LVL267
     /tmp/ccDSSFbw.s:8696   .debug_str:000000000000047c .LASF216
     /tmp/ccDSSFbw.s:9174   .debug_str:000000000000154c .LASF218
     /tmp/ccDSSFbw.s:2520   .text:0000000000000f88 .LFB34
     /tmp/ccDSSFbw.s:2593   .text:0000000000001010 .LFE34
     /tmp/ccDSSFbw.s:7335   .debug_loc:0000000000000122 .LLST79
     /tmp/ccDSSFbw.s:2573   .text:0000000000000fdc .LVL261
     /tmp/ccDSSFbw.s:2578   .text:0000000000000fe8 .LVL262
     /tmp/ccDSSFbw.s:2583   .text:0000000000000ff4 .LVL263
     /tmp/ccDSSFbw.s:2590   .text:000000000000100c .LVL264
     /tmp/ccDSSFbw.s:8726   .debug_str:0000000000000559 .LASF217
     /tmp/ccDSSFbw.s:8810   .debug_str:0000000000000835 .LASF219
     /tmp/ccDSSFbw.s:2437   .text:0000000000000f00 .LFB33
     /tmp/ccDSSFbw.s:2514   .text:0000000000000f88 .LFE33
     /tmp/ccDSSFbw.s:8824   .debug_str:00000000000008a2 .LASF220
     /tmp/ccDSSFbw.s:7357   .debug_loc:0000000000000181 .LLST76
     /tmp/ccDSSFbw.s:8906   .debug_str:0000000000000b81 .LASF221
GAS LISTING /tmp/ccDSSFbw.s 			page 91


     /tmp/ccDSSFbw.s:7379   .debug_loc:00000000000001e0 .LLST77
     /tmp/ccDSSFbw.s:8528   .debug_ranges:0000000000000000 .Ldebug_ranges0
     /tmp/ccDSSFbw.s:7390   .debug_loc:0000000000000216 .LLST78
     /tmp/ccDSSFbw.s:2478   .text:0000000000000f50 .LVL251
     /tmp/ccDSSFbw.s:2493   .text:0000000000000f6c .LVL253
     /tmp/ccDSSFbw.s:9136   .debug_str:0000000000001406 .LASF222
     /tmp/ccDSSFbw.s:8962   .debug_str:0000000000000d70 .LASF223
     /tmp/ccDSSFbw.s:2318   .text:0000000000000e00 .LFB32
     /tmp/ccDSSFbw.s:2431   .text:0000000000000f00 .LFE32
     /tmp/ccDSSFbw.s:8664   .debug_str:00000000000003cc .LASF224
     /tmp/ccDSSFbw.s:7397   .debug_loc:0000000000000239 .LLST73
     /tmp/ccDSSFbw.s:8688   .debug_str:0000000000000446 .LASF225
     /tmp/ccDSSFbw.s:7419   .debug_loc:0000000000000298 .LLST74
     /tmp/ccDSSFbw.s:8608   .debug_str:00000000000001eb .LASF226
     /tmp/ccDSSFbw.s:7426   .debug_loc:00000000000002bb .LLST75
     /tmp/ccDSSFbw.s:2340   .text:0000000000000e28 .LVL238
     /tmp/ccDSSFbw.s:2376   .text:0000000000000e7c .LVL242
     /tmp/ccDSSFbw.s:2404   .text:0000000000000eac .LVL245
     /tmp/ccDSSFbw.s:2420   .text:0000000000000ed8 .LVL246
     /tmp/ccDSSFbw.s:2428   .text:0000000000000efc .LVL247
     /tmp/ccDSSFbw.s:9052   .debug_str:00000000000010ec .LASF227
     /tmp/ccDSSFbw.s:8946   .debug_str:0000000000000ce1 .LASF228
     /tmp/ccDSSFbw.s:2035   .text:0000000000000be8 .LFB31
     /tmp/ccDSSFbw.s:2189   .text:0000000000000d24 .LFE31
     /tmp/ccDSSFbw.s:7437   .debug_loc:00000000000002f1 .LLST70
     /tmp/ccDSSFbw.s:7459   .debug_loc:0000000000000350 .LLST71
     /tmp/ccDSSFbw.s:2060   .text:0000000000000c18 .LVL205
     /tmp/ccDSSFbw.s:2065   .text:0000000000000c28 .LVL206
     /tmp/ccDSSFbw.s:2070   .text:0000000000000c34 .LVL207
     /tmp/ccDSSFbw.s:2075   .text:0000000000000c44 .LVL208
     /tmp/ccDSSFbw.s:2082   .text:0000000000000c5c .LVL209
     /tmp/ccDSSFbw.s:2089   .text:0000000000000c74 .LVL210
     /tmp/ccDSSFbw.s:2094   .text:0000000000000c84 .LVL211
     /tmp/ccDSSFbw.s:2099   .text:0000000000000c94 .LVL212
     /tmp/ccDSSFbw.s:2112   .text:0000000000000ca8 .LVL214
     /tmp/ccDSSFbw.s:2124   .text:0000000000000cc0 .LVL216
     /tmp/ccDSSFbw.s:2137   .text:0000000000000cd4 .LVL218
     /tmp/ccDSSFbw.s:2149   .text:0000000000000cec .LVL220
     /tmp/ccDSSFbw.s:2162   .text:0000000000000d00 .LVL222
     /tmp/ccDSSFbw.s:8620   .debug_str:0000000000000245 .LASF229
     /tmp/ccDSSFbw.s:8942   .debug_str:0000000000000cb1 .LASF230
     /tmp/ccDSSFbw.s:1919   .text:0000000000000b5c .LFB30
     /tmp/ccDSSFbw.s:2003   .text:0000000000000be8 .LFE30
     /tmp/ccDSSFbw.s:7466   .debug_loc:0000000000000373 .LLST67
     /tmp/ccDSSFbw.s:7488   .debug_loc:00000000000003d2 .LLST68
     /tmp/ccDSSFbw.s:7510   .debug_loc:0000000000000431 .LLST69
     /tmp/ccDSSFbw.s:1947   .text:0000000000000b90 .LVL194
     /tmp/ccDSSFbw.s:1962   .text:0000000000000ba8 .LVL197
     /tmp/ccDSSFbw.s:1973   .text:0000000000000bb8 .LVL198
     /tmp/ccDSSFbw.s:1980   .text:0000000000000bc8 .LVL199
     /tmp/ccDSSFbw.s:8662   .debug_str:00000000000003bb .LASF231
     /tmp/ccDSSFbw.s:8768   .debug_str:00000000000006ca .LASF232
     /tmp/ccDSSFbw.s:1640   .text:0000000000000980 .LFB29
     /tmp/ccDSSFbw.s:1829   .text:0000000000000ab8 .LFE29
     /tmp/ccDSSFbw.s:7521   .debug_loc:0000000000000467 .LLST58
     /tmp/ccDSSFbw.s:8706   .debug_str:00000000000004c3 .LASF233
     /tmp/ccDSSFbw.s:7543   .debug_loc:00000000000004c6 .LLST61
GAS LISTING /tmp/ccDSSFbw.s 			page 92


     /tmp/ccDSSFbw.s:1717   .text:0000000000000a00 .LVL164
     /tmp/ccDSSFbw.s:1725   .text:0000000000000a10 .LVL167
     /tmp/ccDSSFbw.s:1757   .text:0000000000000a3c .LVL171
     /tmp/ccDSSFbw.s:1674   .text:00000000000009b0 .LBB17
     /tmp/ccDSSFbw.s:1711   .text:00000000000009f8 .LBE17
     /tmp/ccDSSFbw.s:7558   .debug_loc:000000000000050f .LLST59
     /tmp/ccDSSFbw.s:1678   .text:00000000000009b8 .LVL156
     /tmp/ccDSSFbw.s:1686   .text:00000000000009c8 .LVL159
     /tmp/ccDSSFbw.s:1693   .text:00000000000009d8 .LVL160
     /tmp/ccDSSFbw.s:1698   .text:00000000000009e4 .LVL161
     /tmp/ccDSSFbw.s:1705   .text:00000000000009f4 .LVL162
     /tmp/ccDSSFbw.s:1765   .text:0000000000000a40 .LBB18
     /tmp/ccDSSFbw.s:1822   .text:0000000000000ab0 .LBE18
     /tmp/ccDSSFbw.s:7569   .debug_loc:0000000000000545 .LLST60
     /tmp/ccDSSFbw.s:1770   .text:0000000000000a4c .LVL173
     /tmp/ccDSSFbw.s:1780   .text:0000000000000a60 .LVL174
     /tmp/ccDSSFbw.s:1788   .text:0000000000000a70 .LVL177
     /tmp/ccDSSFbw.s:1795   .text:0000000000000a80 .LVL178
     /tmp/ccDSSFbw.s:1800   .text:0000000000000a8c .LVL179
     /tmp/ccDSSFbw.s:1807   .text:0000000000000a9c .LVL180
     /tmp/ccDSSFbw.s:8950   .debug_str:0000000000000d17 .LASF234
     /tmp/ccDSSFbw.s:9114   .debug_str:0000000000001327 .LASF235
     /tmp/ccDSSFbw.s:1835   .text:0000000000000ab8 .LFB28
     /tmp/ccDSSFbw.s:1913   .text:0000000000000b5c .LFE28
     /tmp/ccDSSFbw.s:8814   .debug_str:000000000000084e .LASF236
     /tmp/ccDSSFbw.s:7580   .debug_loc:000000000000057b .LLST62
     /tmp/ccDSSFbw.s:7598   .debug_loc:00000000000005c7 .LLST63
     /tmp/ccDSSFbw.s:7616   .debug_loc:0000000000000613 .LLST64
     /tmp/ccDSSFbw.s:7634   .debug_loc:000000000000065f .LLST65
     /tmp/ccDSSFbw.s:9018   .debug_str:0000000000000f4c .LASF237
     /tmp/ccDSSFbw.s:7652   .debug_loc:00000000000006ab .LLST66
     /tmp/ccDSSFbw.s:1867   .text:0000000000000b00 .LVL184
     /tmp/ccDSSFbw.s:1876   .text:0000000000000b14 .LVL186
     /tmp/ccDSSFbw.s:1884   .text:0000000000000b34 .LVL187
     /tmp/ccDSSFbw.s:8954   .debug_str:0000000000000d36 .LASF238
     /tmp/ccDSSFbw.s:9138   .debug_str:000000000000140e .LASF239
     /tmp/ccDSSFbw.s:1602   .text:0000000000000948 .LFB27
     /tmp/ccDSSFbw.s:1634   .text:0000000000000980 .LFE27
     /tmp/ccDSSFbw.s:8606   .debug_str:00000000000001e5 .LASF240
     /tmp/ccDSSFbw.s:7663   .debug_loc:00000000000006e1 .LLST55
     /tmp/ccDSSFbw.s:9180   .debug_str:0000000000001597 .LASF241
     /tmp/ccDSSFbw.s:7677   .debug_loc:000000000000071a .LLST56
     /tmp/ccDSSFbw.s:7691   .debug_loc:0000000000000753 .LLST57
     /tmp/ccDSSFbw.s:1617   .text:0000000000000960 .LVL152
     /tmp/ccDSSFbw.s:1621   .text:0000000000000968 .LVL153
     /tmp/ccDSSFbw.s:8828   .debug_str:00000000000008bf .LASF242
     /tmp/ccDSSFbw.s:8656   .debug_str:0000000000000369 .LASF243
     /tmp/ccDSSFbw.s:2212   .text:0000000000000d24 .LFB26
     /tmp/ccDSSFbw.s:2307   .text:0000000000000e00 .LFE26
     /tmp/ccDSSFbw.s:2265   .text:0000000000000db4 .LBB24
     /tmp/ccDSSFbw.s:2293   .text:0000000000000dec .LBE24
     /tmp/ccDSSFbw.s:7698   .debug_loc:0000000000000776 .LLST72
     /tmp/ccDSSFbw.s:2274   .text:0000000000000dc4 .LVL234
     /tmp/ccDSSFbw.s:2229   .text:0000000000000d48 .LVL227
     /tmp/ccDSSFbw.s:2239   .text:0000000000000d6c .LVL228
     /tmp/ccDSSFbw.s:2246   .text:0000000000000d84 .LVL229
     /tmp/ccDSSFbw.s:2251   .text:0000000000000d94 .LVL230
GAS LISTING /tmp/ccDSSFbw.s 			page 93


     /tmp/ccDSSFbw.s:2258   .text:0000000000000da4 .LVL231
     /tmp/ccDSSFbw.s:2263   .text:0000000000000db4 .LVL232
     /tmp/ccDSSFbw.s:8754   .debug_str:0000000000000640 .LASF244
     /tmp/ccDSSFbw.s:8876   .debug_str:0000000000000a59 .LASF245
     /tmp/ccDSSFbw.s:1454   .text:0000000000000840 .LFB25
     /tmp/ccDSSFbw.s:1596   .text:0000000000000948 .LFE25
     /tmp/ccDSSFbw.s:7710   .debug_loc:00000000000007ad .LLST52
     /tmp/ccDSSFbw.s:7736   .debug_loc:000000000000081f .LLST53
     /tmp/ccDSSFbw.s:9126   .debug_str:00000000000013b7 .LASF246
     /tmp/ccDSSFbw.s:7754   .debug_loc:000000000000086b .LLST54
     /tmp/ccDSSFbw.s:1502   .text:0000000000000898 .LVL141
     /tmp/ccDSSFbw.s:1530   .text:00000000000008c4 .LVL145
     /tmp/ccDSSFbw.s:1552   .text:00000000000008f4 .LVL146
     /tmp/ccDSSFbw.s:1563   .text:000000000000090c .LVL147
     /tmp/ccDSSFbw.s:1571   .text:0000000000000920 .LVL148
     /tmp/ccDSSFbw.s:1579   .text:0000000000000934 .LVL149
     /tmp/ccDSSFbw.s:8588   .debug_str:0000000000000130 .LASF247
     /tmp/ccDSSFbw.s:9102   .debug_str:00000000000012d7 .LASF248
     /tmp/ccDSSFbw.s:1353   .text:0000000000000770 .LFB24
     /tmp/ccDSSFbw.s:1448   .text:0000000000000840 .LFE24
     /tmp/ccDSSFbw.s:7765   .debug_loc:00000000000008a1 .LLST50
     /tmp/ccDSSFbw.s:1398   .text:00000000000007e4 .LBB14
     /tmp/ccDSSFbw.s:1431   .text:0000000000000828 .LBE14
     /tmp/ccDSSFbw.s:7783   .debug_loc:00000000000008ed .LLST51
     /tmp/ccDSSFbw.s:1420   .text:0000000000000810 .LVL133
     /tmp/ccDSSFbw.s:1425   .text:0000000000000820 .LVL134
     /tmp/ccDSSFbw.s:1375   .text:000000000000079c .LVL128
     /tmp/ccDSSFbw.s:1382   .text:00000000000007b4 .LVL129
     /tmp/ccDSSFbw.s:1389   .text:00000000000007cc .LVL130
     /tmp/ccDSSFbw.s:1396   .text:00000000000007e4 .LVL131
     /tmp/ccDSSFbw.s:9020   .debug_str:0000000000000f55 .LASF249
     /tmp/ccDSSFbw.s:8750   .debug_str:000000000000060e .LASF250
     /tmp/ccDSSFbw.s:1289   .text:0000000000000724 .LFB23
     /tmp/ccDSSFbw.s:1330   .text:0000000000000770 .LFE23
     /tmp/ccDSSFbw.s:7795   .debug_loc:0000000000000924 .LLST48
     /tmp/ccDSSFbw.s:7809   .debug_loc:000000000000095d .LLST49
     /tmp/ccDSSFbw.s:9128   .debug_str:00000000000013c5 .LASF251
     /tmp/ccDSSFbw.s:9082   .debug_str:000000000000120e .LASF252
     /tmp/ccDSSFbw.s:1173   .text:0000000000000694 .LFB22
     /tmp/ccDSSFbw.s:1283   .text:0000000000000724 .LFE22
     /tmp/ccDSSFbw.s:7823   .debug_loc:0000000000000996 .LLST44
     /tmp/ccDSSFbw.s:7842   .debug_loc:00000000000009f2 .LLST45
     /tmp/ccDSSFbw.s:8630   .debug_str:00000000000002da .LASF253
     /tmp/ccDSSFbw.s:7853   .debug_loc:0000000000000a28 .LLST46
     /tmp/ccDSSFbw.s:7864   .debug_loc:0000000000000a5e .LLST47
     /tmp/ccDSSFbw.s:8948   .debug_str:0000000000000d04 .LASF254
     /tmp/ccDSSFbw.s:9130   .debug_str:00000000000013ce .LASF279
     /tmp/ccDSSFbw.s:1081   .text:000000000000062c .LFB21
     /tmp/ccDSSFbw.s:1167   .text:0000000000000694 .LFE21
     /tmp/ccDSSFbw.s:7875   .debug_loc:0000000000000a94 .LLST38
     /tmp/ccDSSFbw.s:8674   .debug_str:0000000000000408 .LASF255
     /tmp/ccDSSFbw.s:7889   .debug_loc:0000000000000acd .LLST39
     /tmp/ccDSSFbw.s:8702   .debug_str:00000000000004b0 .LASF256
     /tmp/ccDSSFbw.s:7906   .debug_loc:0000000000000b19 .LLST40
     /tmp/ccDSSFbw.s:9068   .debug_str:000000000000117c .LASF257
     /tmp/ccDSSFbw.s:8836   .debug_str:0000000000000907 .LASF258
     /tmp/ccDSSFbw.s:1119   .text:0000000000000654 .LBB8
GAS LISTING /tmp/ccDSSFbw.s 			page 94


     /tmp/ccDSSFbw.s:1155   .text:0000000000000684 .LBE8
     /tmp/ccDSSFbw.s:7917   .debug_loc:0000000000000b4f .LLST41
     /tmp/ccDSSFbw.s:1132   .text:0000000000000668 .LBB9
     /tmp/ccDSSFbw.s:1154   .text:0000000000000684 .LBE9
     /tmp/ccDSSFbw.s:8916   .debug_str:0000000000000bc6 .LASF259
     /tmp/ccDSSFbw.s:7929   .debug_loc:0000000000000b86 .LLST42
     /tmp/ccDSSFbw.s:8676   .debug_str:0000000000000411 .LASF260
     /tmp/ccDSSFbw.s:7940   .debug_loc:0000000000000bbc .LLST43
     /tmp/ccDSSFbw.s:8758   .debug_str:0000000000000673 .LASF261
     /tmp/ccDSSFbw.s:8580   .debug_str:00000000000000d0 .LASF265
     /tmp/ccDSSFbw.s:924    .text:0000000000000540 .LFB20
     /tmp/ccDSSFbw.s:1075   .text:000000000000062c .LFE20
     /tmp/ccDSSFbw.s:7951   .debug_loc:0000000000000bf2 .LLST33
     /tmp/ccDSSFbw.s:8898   .debug_str:0000000000000b47 .LASF262
     /tmp/ccDSSFbw.s:7969   .debug_loc:0000000000000c3e .LLST34
     /tmp/ccDSSFbw.s:8642   .debug_str:000000000000031a .LASF263
     /tmp/ccDSSFbw.s:7980   .debug_loc:0000000000000c74 .LLST35
     /tmp/ccDSSFbw.s:997    .text:00000000000005b8 .LBB5
     /tmp/ccDSSFbw.s:1018   .text:00000000000005d8 .LBE5
     /tmp/ccDSSFbw.s:8005   .debug_loc:0000000000000cc8 .LLST36
     /tmp/ccDSSFbw.s:1025   .text:00000000000005e0 .LBB7
     /tmp/ccDSSFbw.s:1056   .text:0000000000000610 .LBE7
     /tmp/ccDSSFbw.s:8017   .debug_loc:0000000000000cff .LLST37
     /tmp/ccDSSFbw.s:950    .text:0000000000000578 .LVL84
     /tmp/ccDSSFbw.s:8928   .debug_str:0000000000000c21 .LASF264
     /tmp/ccDSSFbw.s:8850   .debug_str:000000000000095e .LASF266
     /tmp/ccDSSFbw.s:870    .text:00000000000004e8 .LFB19
     /tmp/ccDSSFbw.s:918    .text:0000000000000540 .LFE19
     /tmp/ccDSSFbw.s:8024   .debug_loc:0000000000000d22 .LLST31
     /tmp/ccDSSFbw.s:8042   .debug_loc:0000000000000d6e .LLST32
     /tmp/ccDSSFbw.s:895    .text:0000000000000518 .LVL78
     /tmp/ccDSSFbw.s:901    .text:0000000000000528 .LVL79
     /tmp/ccDSSFbw.s:8682   .debug_str:0000000000000428 .LASF267
     /tmp/ccDSSFbw.s:9090   .debug_str:000000000000125b .LASF268
     /tmp/ccDSSFbw.s:816    .text:0000000000000490 .LFB18
     /tmp/ccDSSFbw.s:864    .text:00000000000004e8 .LFE18
     /tmp/ccDSSFbw.s:8060   .debug_loc:0000000000000dba .LLST29
     /tmp/ccDSSFbw.s:8078   .debug_loc:0000000000000e06 .LLST30
     /tmp/ccDSSFbw.s:841    .text:00000000000004c0 .LVL71
     /tmp/ccDSSFbw.s:847    .text:00000000000004d0 .LVL72
     /tmp/ccDSSFbw.s:8784   .debug_str:0000000000000743 .LASF269
     /tmp/ccDSSFbw.s:8626   .debug_str:0000000000000289 .LASF270
     /tmp/ccDSSFbw.s:760    .text:0000000000000438 .LFB17
     /tmp/ccDSSFbw.s:810    .text:0000000000000490 .LFE17
     /tmp/ccDSSFbw.s:8096   .debug_loc:0000000000000e52 .LLST27
     /tmp/ccDSSFbw.s:8114   .debug_loc:0000000000000e9e .LLST28
     /tmp/ccDSSFbw.s:787    .text:0000000000000468 .LVL64
     /tmp/ccDSSFbw.s:793    .text:0000000000000478 .LVL65
     /tmp/ccDSSFbw.s:8604   .debug_str:00000000000001d4 .LASF271
     /tmp/ccDSSFbw.s:8560   .debug_str:000000000000001b .LASF272
     /tmp/ccDSSFbw.s:704    .text:00000000000003e0 .LFB16
     /tmp/ccDSSFbw.s:754    .text:0000000000000438 .LFE16
     /tmp/ccDSSFbw.s:8121   .debug_loc:0000000000000ec1 .LLST25
     /tmp/ccDSSFbw.s:8139   .debug_loc:0000000000000f0d .LLST26
     /tmp/ccDSSFbw.s:731    .text:0000000000000410 .LVL57
     /tmp/ccDSSFbw.s:737    .text:0000000000000420 .LVL58
     /tmp/ccDSSFbw.s:8574   .debug_str:00000000000000ab .LASF273
GAS LISTING /tmp/ccDSSFbw.s 			page 95


     /tmp/ccDSSFbw.s:9118   .debug_str:000000000000136f .LASF274
     /tmp/ccDSSFbw.s:633    .text:0000000000000384 .LFB15
     /tmp/ccDSSFbw.s:698    .text:00000000000003e0 .LFE15
     /tmp/ccDSSFbw.s:8780   .debug_str:0000000000000732 .LASF275
     /tmp/ccDSSFbw.s:8770   .debug_str:00000000000006ee .LASF276
     /tmp/ccDSSFbw.s:9060   .debug_str:0000000000001130 .LASF277
     /tmp/ccDSSFbw.s:589    .text:0000000000000350 .LFB14
     /tmp/ccDSSFbw.s:627    .text:0000000000000384 .LFE14
     /tmp/ccDSSFbw.s:8650   .debug_str:0000000000000343 .LASF278
     /tmp/ccDSSFbw.s:8742   .debug_str:00000000000005d3 .LASF280
     /tmp/ccDSSFbw.s:560    .text:0000000000000330 .LFB13
     /tmp/ccDSSFbw.s:583    .text:0000000000000350 .LFE13
     /tmp/ccDSSFbw.s:8146   .debug_loc:0000000000000f30 .LLST24
     /tmp/ccDSSFbw.s:9160   .debug_str:00000000000014bb .LASF281
     /tmp/ccDSSFbw.s:8652   .debug_str:0000000000000349 .LASF282
     /tmp/ccDSSFbw.s:528    .text:0000000000000308 .LFB12
     /tmp/ccDSSFbw.s:554    .text:0000000000000330 .LFE12
     /tmp/ccDSSFbw.s:8160   .debug_loc:0000000000000f69 .LLST23
     /tmp/ccDSSFbw.s:8842   .debug_str:000000000000091b .LASF283
     /tmp/ccDSSFbw.s:9078   .debug_str:00000000000011d4 .LASF284
     /tmp/ccDSSFbw.s:410    .text:0000000000000250 .LFB11
     /tmp/ccDSSFbw.s:522    .text:0000000000000308 .LFE11
     /tmp/ccDSSFbw.s:8174   .debug_loc:0000000000000fa2 .LLST19
     /tmp/ccDSSFbw.s:8196   .debug_loc:0000000000001001 .LLST20
     /tmp/ccDSSFbw.s:8618   .debug_str:0000000000000240 .LASF285
     /tmp/ccDSSFbw.s:8207   .debug_loc:0000000000001037 .LLST21
     /tmp/ccDSSFbw.s:431    .text:0000000000000274 .LBB4
     /tmp/ccDSSFbw.s:472    .text:00000000000002b8 .LBE4
     /tmp/ccDSSFbw.s:8218   .debug_loc:000000000000106d .LLST22
     /tmp/ccDSSFbw.s:447    .text:0000000000000294 .LVL37
     /tmp/ccDSSFbw.s:487    .text:00000000000002d4 .LVL44
     /tmp/ccDSSFbw.s:9002   .debug_str:0000000000000ec6 .LASF286
     /tmp/ccDSSFbw.s:9080   .debug_str:00000000000011ef .LASF287
     /tmp/ccDSSFbw.s:364    .text:0000000000000208 .LFB10
     /tmp/ccDSSFbw.s:404    .text:0000000000000250 .LFE10
     /tmp/ccDSSFbw.s:8229   .debug_loc:00000000000010a3 .LLST17
     /tmp/ccDSSFbw.s:8243   .debug_loc:00000000000010dc .LLST18
     /tmp/ccDSSFbw.s:9074   .debug_str:00000000000011a4 .LASF288
     /tmp/ccDSSFbw.s:8984   .debug_str:0000000000000e20 .LASF289
     /tmp/ccDSSFbw.s:322    .text:00000000000001c8 .LFB9
     /tmp/ccDSSFbw.s:358    .text:0000000000000208 .LFE9
     /tmp/ccDSSFbw.s:8257   .debug_loc:0000000000001115 .LLST15
     /tmp/ccDSSFbw.s:8271   .debug_loc:000000000000114e .LLST16
     /tmp/ccDSSFbw.s:8848   .debug_str:000000000000094a .LASF290
     /tmp/ccDSSFbw.s:8766   .debug_str:00000000000006a1 .LASF291
     /tmp/ccDSSFbw.s:247    .text:0000000000000150 .LFB8
     /tmp/ccDSSFbw.s:316    .text:00000000000001c8 .LFE8
     /tmp/ccDSSFbw.s:8285   .debug_loc:0000000000001187 .LLST12
     /tmp/ccDSSFbw.s:9072   .debug_str:0000000000001191 .LASF292
     /tmp/ccDSSFbw.s:8310   .debug_loc:00000000000011ec .LLST13
     /tmp/ccDSSFbw.s:270    .text:000000000000016c .LBB3
     /tmp/ccDSSFbw.s:288    .text:000000000000018c .LBE3
     /tmp/ccDSSFbw.s:8321   .debug_loc:0000000000001222 .LLST14
     /tmp/ccDSSFbw.s:300    .text:00000000000001b0 .LVL27
     /tmp/ccDSSFbw.s:9044   .debug_str:00000000000010cb .LASF293
     /tmp/ccDSSFbw.s:8882   .debug_str:0000000000000aa4 .LASF294
     /tmp/ccDSSFbw.s:154    .text:00000000000000c4 .LFB7
GAS LISTING /tmp/ccDSSFbw.s 			page 96


     /tmp/ccDSSFbw.s:236    .text:0000000000000150 .LFE7
     /tmp/ccDSSFbw.s:8333   .debug_loc:0000000000001259 .LLST6
     /tmp/ccDSSFbw.s:8900   .debug_str:0000000000000b4f .LASF295
     /tmp/ccDSSFbw.s:8351   .debug_loc:00000000000012a5 .LLST7
     /tmp/ccDSSFbw.s:8369   .debug_loc:00000000000012f1 .LLST8
     /tmp/ccDSSFbw.s:8388   .debug_loc:000000000000133e .LLST9
     /tmp/ccDSSFbw.s:8407   .debug_loc:000000000000138b .LLST10
     /tmp/ccDSSFbw.s:8426   .debug_loc:00000000000013d8 .LLST11
     /tmp/ccDSSFbw.s:188    .text:000000000000010c .LVL14
     /tmp/ccDSSFbw.s:9064   .debug_str:000000000000115a .LASF296
     /tmp/ccDSSFbw.s:8732   .debug_str:0000000000000578 .LASF297
     /tmp/ccDSSFbw.s:59     .text:0000000000000034 .LFB6
     /tmp/ccDSSFbw.s:148    .text:00000000000000c4 .LFE6
     /tmp/ccDSSFbw.s:8445   .debug_loc:0000000000001425 .LLST2
     /tmp/ccDSSFbw.s:8467   .debug_loc:0000000000001484 .LLST3
     /tmp/ccDSSFbw.s:8474   .debug_loc:00000000000014a7 .LLST4
     /tmp/ccDSSFbw.s:101    .text:0000000000000074 .LBB2
     /tmp/ccDSSFbw.s:120    .text:0000000000000098 .LBE2
     /tmp/ccDSSFbw.s:9094   .debug_str:000000000000129a .LASF298
     /tmp/ccDSSFbw.s:8486   .debug_loc:00000000000014de .LLST5
     /tmp/ccDSSFbw.s:112    .text:0000000000000090 .LVL7
     /tmp/ccDSSFbw.s:9104   .debug_str:00000000000012f1 .LASF299
     /tmp/ccDSSFbw.s:8670   .debug_str:00000000000003e9 .LASF300
     /tmp/ccDSSFbw.s:10     .text:0000000000000000 .LFB5
     /tmp/ccDSSFbw.s:53     .text:0000000000000034 .LFE5
     /tmp/ccDSSFbw.s:8493   .debug_loc:0000000000001501 .LLST0
     /tmp/ccDSSFbw.s:8504   .debug_loc:0000000000001537 .LLST1
     /tmp/ccDSSFbw.s:8932   .debug_str:0000000000000c56 .LASF301
     /tmp/ccDSSFbw.s:8602   .debug_str:00000000000001c8 .LASF303
     /tmp/ccDSSFbw.s:8586   .debug_str:000000000000011e .LASF302
     /tmp/ccDSSFbw.s:8632   .debug_str:00000000000002e2 .LASF304
     /tmp/ccDSSFbw.s:9058   .debug_str:000000000000110e .LASF305
     /tmp/ccDSSFbw.s:8996   .debug_str:0000000000000e90 .LASF306
     /tmp/ccDSSFbw.s:8918   .debug_str:0000000000000bce .LASF307
     /tmp/ccDSSFbw.s:8668   .debug_str:00000000000003de .LASF308
     /tmp/ccDSSFbw.s:2655   .text:0000000000001048 .LVL270
     /tmp/ccDSSFbw.s:2677   .text:0000000000001070 .LVL271
     /tmp/ccDSSFbw.s:2699   .text:000000000000108c .LVL272
     /tmp/ccDSSFbw.s:2703   .text:0000000000001094 .LVL273
     /tmp/ccDSSFbw.s:2719   .text:00000000000010bc .LVL276
     /tmp/ccDSSFbw.s:2727   .text:00000000000010c0 .LVL277
     /tmp/ccDSSFbw.s:2602   .text:0000000000001010 .LVL265
     /tmp/ccDSSFbw.s:2617   .text:0000000000001028 .LVL266
     /tmp/ccDSSFbw.s:2630   .text:0000000000001040 .LVL268
     /tmp/ccDSSFbw.s:2634   .text:0000000000001044 .LVL269
     /tmp/ccDSSFbw.s:2523   .text:0000000000000f88 .LVL257
     /tmp/ccDSSFbw.s:2547   .text:0000000000000fb4 .LVL258
     /tmp/ccDSSFbw.s:2558   .text:0000000000000fc0 .LVL259
     /tmp/ccDSSFbw.s:2562   .text:0000000000000fc8 .LVL260
     /tmp/ccDSSFbw.s:2440   .text:0000000000000f00 .LVL248
     /tmp/ccDSSFbw.s:2463   .text:0000000000000f28 .LVL249
     /tmp/ccDSSFbw.s:2506   .text:0000000000000f7c .LVL255
     /tmp/ccDSSFbw.s:2510   .text:0000000000000f84 .LVL256
     /tmp/ccDSSFbw.s:2476   .text:0000000000000f48 .LVL250
     /tmp/ccDSSFbw.s:2503   .text:0000000000000f78 .LVL254
     /tmp/ccDSSFbw.s:2321   .text:0000000000000e00 .LVL237
     /tmp/ccDSSFbw.s:2393   .text:0000000000000e98 .LVL243
GAS LISTING /tmp/ccDSSFbw.s 			page 97


     /tmp/ccDSSFbw.s:2397   .text:0000000000000ea0 .LVL244
     /tmp/ccDSSFbw.s:2353   .text:0000000000000e44 .LVL239
     /tmp/ccDSSFbw.s:2358   .text:0000000000000e48 .LVL240
     /tmp/ccDSSFbw.s:2372   .text:0000000000000e6c .LVL241
     /tmp/ccDSSFbw.s:2038   .text:0000000000000be8 .LVL203
     /tmp/ccDSSFbw.s:2058   .text:0000000000000c10 .LVL204
     /tmp/ccDSSFbw.s:2181   .text:0000000000000d18 .LVL225
     /tmp/ccDSSFbw.s:2185   .text:0000000000000d20 .LVL226
     /tmp/ccDSSFbw.s:2103   .text:0000000000000c98 .LVL213
     /tmp/ccDSSFbw.s:2178   .text:0000000000000d14 .LVL224
     /tmp/ccDSSFbw.s:1922   .text:0000000000000b5c .LVL193
     /tmp/ccDSSFbw.s:1993   .text:0000000000000bd8 .LVL201
     /tmp/ccDSSFbw.s:1999   .text:0000000000000be4 .LVL202
     /tmp/ccDSSFbw.s:1990   .text:0000000000000bd4 .LVL200
     /tmp/ccDSSFbw.s:1949   .text:0000000000000b94 .LVL195
     /tmp/ccDSSFbw.s:1960   .text:0000000000000ba4 .LVL196
     /tmp/ccDSSFbw.s:1643   .text:0000000000000980 .LVL154
     /tmp/ccDSSFbw.s:1663   .text:00000000000009a4 .LVL155
     /tmp/ccDSSFbw.s:1742   .text:0000000000000a24 .LVL169
     /tmp/ccDSSFbw.s:1748   .text:0000000000000a30 .LVL170
     /tmp/ccDSSFbw.s:1719   .text:0000000000000a04 .LVL165
     /tmp/ccDSSFbw.s:1723   .text:0000000000000a08 .LVL166
     /tmp/ccDSSFbw.s:1728   .text:0000000000000a14 .LVL168
     /tmp/ccDSSFbw.s:1761   .text:0000000000000a40 .LVL172
     /tmp/ccDSSFbw.s:1680   .text:00000000000009bc .LVL157
     /tmp/ccDSSFbw.s:1684   .text:00000000000009c0 .LVL158
     /tmp/ccDSSFbw.s:1709   .text:00000000000009f8 .LVL163
     /tmp/ccDSSFbw.s:1782   .text:0000000000000a64 .LVL175
     /tmp/ccDSSFbw.s:1786   .text:0000000000000a68 .LVL176
     /tmp/ccDSSFbw.s:1811   .text:0000000000000aa0 .LVL181
     /tmp/ccDSSFbw.s:1838   .text:0000000000000ab8 .LVL182
     /tmp/ccDSSFbw.s:1864   .text:0000000000000af4 .LVL183
     /tmp/ccDSSFbw.s:1902   .text:0000000000000b4c .LVL190
     /tmp/ccDSSFbw.s:1899   .text:0000000000000b48 .LVL189
     /tmp/ccDSSFbw.s:1905   .text:0000000000000b50 .LVL191
     /tmp/ccDSSFbw.s:1908   .text:0000000000000b54 .LVL192
     /tmp/ccDSSFbw.s:1869   .text:0000000000000b04 .LVL185
     /tmp/ccDSSFbw.s:1896   .text:0000000000000b44 .LVL188
     /tmp/ccDSSFbw.s:1605   .text:0000000000000948 .LVL151
     /tmp/ccDSSFbw.s:2269   .text:0000000000000dbc .LVL233
     /tmp/ccDSSFbw.s:2302   .text:0000000000000df8 .LVL236
     /tmp/ccDSSFbw.s:1457   .text:0000000000000840 .LVL138
     /tmp/ccDSSFbw.s:1516   .text:00000000000008a8 .LVL143
     /tmp/ccDSSFbw.s:1522   .text:00000000000008b4 .LVL144
     /tmp/ccDSSFbw.s:1587   .text:0000000000000944 .LVL150
     /tmp/ccDSSFbw.s:1500   .text:0000000000000890 .LVL140
     /tmp/ccDSSFbw.s:1488   .text:000000000000087c .LVL139
     /tmp/ccDSSFbw.s:1505   .text:000000000000089c .LVL142
     /tmp/ccDSSFbw.s:1356   .text:0000000000000770 .LVL126
     /tmp/ccDSSFbw.s:1373   .text:0000000000000794 .LVL127
     /tmp/ccDSSFbw.s:1443   .text:0000000000000838 .LVL137
     /tmp/ccDSSFbw.s:1401   .text:00000000000007e8 .LVL132
     /tmp/ccDSSFbw.s:1440   .text:0000000000000834 .LVL136
     /tmp/ccDSSFbw.s:1292   .text:0000000000000724 .LVL123
     /tmp/ccDSSFbw.s:1308   .text:0000000000000744 .LVL125
     /tmp/ccDSSFbw.s:1304   .text:000000000000073c .LVL124
     /tmp/ccDSSFbw.s:1176   .text:0000000000000694 .LVL110
GAS LISTING /tmp/ccDSSFbw.s 			page 98


     /tmp/ccDSSFbw.s:1191   .text:00000000000006b0 .LVL111
     /tmp/ccDSSFbw.s:1275   .text:000000000000071c .LVL121
     /tmp/ccDSSFbw.s:1280   .text:0000000000000720 .LVL122
     /tmp/ccDSSFbw.s:1224   .text:00000000000006dc .LVL115
     /tmp/ccDSSFbw.s:1235   .text:00000000000006e8 .LVL116
     /tmp/ccDSSFbw.s:1193   .text:00000000000006b4 .LVL112
     /tmp/ccDSSFbw.s:1199   .text:00000000000006b8 .LVL113
     /tmp/ccDSSFbw.s:1219   .text:00000000000006d4 .LVL114
     /tmp/ccDSSFbw.s:1243   .text:00000000000006f0 .LVL118
     /tmp/ccDSSFbw.s:1249   .text:00000000000006f4 .LVL119
     /tmp/ccDSSFbw.s:1269   .text:0000000000000710 .LVL120
     /tmp/ccDSSFbw.s:1084   .text:000000000000062c .LVL97
     /tmp/ccDSSFbw.s:1159   .text:0000000000000688 .LVL109
     /tmp/ccDSSFbw.s:1092   .text:0000000000000638 .LVL98
     /tmp/ccDSSFbw.s:1095   .text:000000000000063c .LVL99
     /tmp/ccDSSFbw.s:1150   .text:0000000000000680 .LVL107
     /tmp/ccDSSFbw.s:1152   .text:0000000000000684 .LVL108
     /tmp/ccDSSFbw.s:1115   .text:0000000000000654 .LVL101
     /tmp/ccDSSFbw.s:1147   .text:000000000000067c .LVL106
     /tmp/ccDSSFbw.s:1123   .text:000000000000065c .LVL102
     /tmp/ccDSSFbw.s:1127   .text:0000000000000660 .LVL103
     /tmp/ccDSSFbw.s:1136   .text:000000000000066c .LVL104
     /tmp/ccDSSFbw.s:1142   .text:0000000000000674 .LVL105
     /tmp/ccDSSFbw.s:927    .text:0000000000000540 .LVL82
     /tmp/ccDSSFbw.s:948    .text:0000000000000570 .LVL83
     /tmp/ccDSSFbw.s:1070   .text:0000000000000624 .LVL96
     /tmp/ccDSSFbw.s:964    .text:0000000000000590 .LVL85
     /tmp/ccDSSFbw.s:1054   .text:0000000000000610 .LVL95
     /tmp/ccDSSFbw.s:983    .text:00000000000005a8 .LVL86
     /tmp/ccDSSFbw.s:987    .text:00000000000005ac .LVL87
     /tmp/ccDSSFbw.s:992    .text:00000000000005b4 .LVL88
     /tmp/ccDSSFbw.s:995    .text:00000000000005b8 .LVL89
     /tmp/ccDSSFbw.s:1000   .text:00000000000005bc .LVL90
     /tmp/ccDSSFbw.s:1028   .text:00000000000005e4 .LVL92
     /tmp/ccDSSFbw.s:873    .text:00000000000004e8 .LVL75
     /tmp/ccDSSFbw.s:893    .text:0000000000000510 .LVL77
     /tmp/ccDSSFbw.s:913    .text:0000000000000538 .LVL81
     /tmp/ccDSSFbw.s:891    .text:000000000000050c .LVL76
     /tmp/ccDSSFbw.s:910    .text:0000000000000534 .LVL80
     /tmp/ccDSSFbw.s:819    .text:0000000000000490 .LVL68
     /tmp/ccDSSFbw.s:839    .text:00000000000004b8 .LVL70
     /tmp/ccDSSFbw.s:859    .text:00000000000004e0 .LVL74
     /tmp/ccDSSFbw.s:837    .text:00000000000004b4 .LVL69
     /tmp/ccDSSFbw.s:856    .text:00000000000004dc .LVL73
     /tmp/ccDSSFbw.s:763    .text:0000000000000438 .LVL61
     /tmp/ccDSSFbw.s:785    .text:0000000000000460 .LVL63
     /tmp/ccDSSFbw.s:802    .text:0000000000000484 .LVL66
     /tmp/ccDSSFbw.s:780    .text:0000000000000458 .LVL62
     /tmp/ccDSSFbw.s:805    .text:0000000000000488 .LVL67
     /tmp/ccDSSFbw.s:707    .text:00000000000003e0 .LVL54
     /tmp/ccDSSFbw.s:729    .text:0000000000000408 .LVL56
     /tmp/ccDSSFbw.s:746    .text:000000000000042c .LVL59
     /tmp/ccDSSFbw.s:724    .text:0000000000000400 .LVL55
     /tmp/ccDSSFbw.s:749    .text:0000000000000430 .LVL60
     /tmp/ccDSSFbw.s:563    .text:0000000000000330 .LVL50
     /tmp/ccDSSFbw.s:573    .text:0000000000000340 .LVL51
     /tmp/ccDSSFbw.s:531    .text:0000000000000308 .LVL48
GAS LISTING /tmp/ccDSSFbw.s 			page 99


     /tmp/ccDSSFbw.s:543    .text:000000000000031c .LVL49
     /tmp/ccDSSFbw.s:413    .text:0000000000000250 .LVL35
     /tmp/ccDSSFbw.s:434    .text:0000000000000278 .LVL36
     /tmp/ccDSSFbw.s:509    .text:00000000000002f4 .LVL46
     /tmp/ccDSSFbw.s:515    .text:0000000000000300 .LVL47
     /tmp/ccDSSFbw.s:466    .text:00000000000002b4 .LVL40
     /tmp/ccDSSFbw.s:470    .text:00000000000002b8 .LVL41
     /tmp/ccDSSFbw.s:479    .text:00000000000002c0 .LVL43
     /tmp/ccDSSFbw.s:495    .text:00000000000002e0 .LVL45
     /tmp/ccDSSFbw.s:462    .text:00000000000002ac .LVL39
     /tmp/ccDSSFbw.s:475    .text:00000000000002bc .LVL42
     /tmp/ccDSSFbw.s:367    .text:0000000000000208 .LVL32
     /tmp/ccDSSFbw.s:383    .text:0000000000000228 .LVL34
     /tmp/ccDSSFbw.s:379    .text:0000000000000220 .LVL33
     /tmp/ccDSSFbw.s:325    .text:00000000000001c8 .LVL29
     /tmp/ccDSSFbw.s:341    .text:00000000000001e8 .LVL31
     /tmp/ccDSSFbw.s:337    .text:00000000000001e0 .LVL30
     /tmp/ccDSSFbw.s:250    .text:0000000000000150 .LVL20
     /tmp/ccDSSFbw.s:298    .text:00000000000001a8 .LVL26
     /tmp/ccDSSFbw.s:311    .text:00000000000001c0 .LVL28
     /tmp/ccDSSFbw.s:264    .text:0000000000000168 .LVL21
     /tmp/ccDSSFbw.s:269    .text:000000000000016c .LVL22
     /tmp/ccDSSFbw.s:274    .text:0000000000000174 .LVL23
     /tmp/ccDSSFbw.s:292    .text:0000000000000190 .LVL25
     /tmp/ccDSSFbw.s:157    .text:00000000000000c4 .LVL11
     /tmp/ccDSSFbw.s:178    .text:00000000000000f0 .LVL12
     /tmp/ccDSSFbw.s:219    .text:0000000000000138 .LVL15
     /tmp/ccDSSFbw.s:186    .text:0000000000000104 .LVL13
     /tmp/ccDSSFbw.s:231    .text:0000000000000148 .LVL19
     /tmp/ccDSSFbw.s:228    .text:0000000000000144 .LVL18
     /tmp/ccDSSFbw.s:225    .text:0000000000000140 .LVL17
     /tmp/ccDSSFbw.s:222    .text:000000000000013c .LVL16
     /tmp/ccDSSFbw.s:62     .text:0000000000000034 .LVL3
     /tmp/ccDSSFbw.s:93     .text:000000000000006c .LVL5
     /tmp/ccDSSFbw.s:123    .text:000000000000009c .LVL9
     /tmp/ccDSSFbw.s:127    .text:00000000000000a0 .LVL10
     /tmp/ccDSSFbw.s:89     .text:0000000000000068 .LVL4
     /tmp/ccDSSFbw.s:119    .text:0000000000000098 .LVL8
     /tmp/ccDSSFbw.s:105    .text:0000000000000078 .LVL6
     /tmp/ccDSSFbw.s:14     .text:0000000000000000 .LVL0
     /tmp/ccDSSFbw.s:34     .text:000000000000001c .LVL1
     /tmp/ccDSSFbw.s:38     .text:0000000000000020 .LVL2
     /tmp/ccDSSFbw.s:2749   .debug_info:0000000000000000 .Ldebug_info0
     /tmp/ccDSSFbw.s:1195   .text:00000000000006b4 .LBB10
     /tmp/ccDSSFbw.s:1201   .text:00000000000006b8 .LBE10
     /tmp/ccDSSFbw.s:1205   .text:00000000000006bc .LBB11
     /tmp/ccDSSFbw.s:1226   .text:00000000000006dc .LBE11
     /tmp/ccDSSFbw.s:1245   .text:00000000000006f0 .LBB12
     /tmp/ccDSSFbw.s:1251   .text:00000000000006f4 .LBE12
     /tmp/ccDSSFbw.s:1255   .text:00000000000006f8 .LBB13
     /tmp/ccDSSFbw.s:1277   .text:000000000000071c .LBE13
     /tmp/ccDSSFbw.s:1713   .text:00000000000009f8 .LBB19
     /tmp/ccDSSFbw.s:1730   .text:0000000000000a14 .LBE19
     /tmp/ccDSSFbw.s:1752   .text:0000000000000a30 .LBB20
     /tmp/ccDSSFbw.s:1763   .text:0000000000000a40 .LBE20
     /tmp/ccDSSFbw.s:2457   .text:0000000000000f20 .LBB25
     /tmp/ccDSSFbw.s:2460   .text:0000000000000f24 .LBE25
GAS LISTING /tmp/ccDSSFbw.s 			page 100


     /tmp/ccDSSFbw.s:2465   .text:0000000000000f28 .LBB26
     /tmp/ccDSSFbw.s:2486   .text:0000000000000f5c .LBE26

UNDEFINED SYMBOLS
_Z10buddy_freeP14buddyAllocatorPvm
_Z11buddy_allocP14buddyAllocatorm
_ZN8KConsole15trapPrintStringEPKc
_ZN8KConsole18trapPrintStringIntEPKcmi
_ZN8KConsole12trapPrintIntEmii
_Z10buddy_initPvm
_Z11getDeg2Ceilm
