GAS LISTING /tmp/ccBk5kNX.s 			page 1


   1              		.file	"syscall_cpp.cpp"
   2              		.option pic
   3              		.option norelax
   4              		.text
   5              	.Ltext0:
   6              		.section	.text._ZN6Thread3runEv,"axG",@progbits,_ZN6Thread3runEv,comdat
   7              		.align	2
   8              		.weak	_ZN6Thread3runEv
  10              	_ZN6Thread3runEv:
  11              	.LFB0:
  12              		.file 1 "src/../h/syscall_cpp.hpp"
   1:src/../h/syscall_cpp.hpp **** //
   2:src/../h/syscall_cpp.hpp **** // Created by os on 4/8/22.
   3:src/../h/syscall_cpp.hpp **** //
   4:src/../h/syscall_cpp.hpp **** 
   5:src/../h/syscall_cpp.hpp **** #ifndef PROJECT_BASE_V1_0_SYSCALL_CPP_HPP
   6:src/../h/syscall_cpp.hpp **** #define PROJECT_BASE_V1_0_SYSCALL_CPP_HPP
   7:src/../h/syscall_cpp.hpp **** 
   8:src/../h/syscall_cpp.hpp **** #include "syscall_c.hpp"
   9:src/../h/syscall_cpp.hpp **** 
  10:src/../h/syscall_cpp.hpp **** void * operator new(size_t size);
  11:src/../h/syscall_cpp.hpp **** 
  12:src/../h/syscall_cpp.hpp **** void operator delete(void * p);
  13:src/../h/syscall_cpp.hpp **** 
  14:src/../h/syscall_cpp.hpp **** class Thread
  15:src/../h/syscall_cpp.hpp **** {
  16:src/../h/syscall_cpp.hpp **** public:
  17:src/../h/syscall_cpp.hpp ****     Thread(void (*body)(void*), void* args);
  18:src/../h/syscall_cpp.hpp **** 
  19:src/../h/syscall_cpp.hpp ****     virtual ~Thread();
  20:src/../h/syscall_cpp.hpp **** 
  21:src/../h/syscall_cpp.hpp ****     int start();
  22:src/../h/syscall_cpp.hpp **** 
  23:src/../h/syscall_cpp.hpp ****     static void dispatch();
  24:src/../h/syscall_cpp.hpp **** 
  25:src/../h/syscall_cpp.hpp ****     static void sleep(time_t);
  26:src/../h/syscall_cpp.hpp **** 
  27:src/../h/syscall_cpp.hpp **** protected:
  28:src/../h/syscall_cpp.hpp ****     Thread();
  29:src/../h/syscall_cpp.hpp **** 
  30:src/../h/syscall_cpp.hpp ****     virtual void run() {}
  13              		.loc 1 30 18
  14              		.cfi_startproc
  15              	.LVL0:
  16 0000 130101FF 		addi	sp,sp,-16
  17              		.cfi_def_cfa_offset 16
  18 0004 23348100 		sd	s0,8(sp)
  19              		.cfi_offset 8, -8
  20 0008 13040101 		addi	s0,sp,16
  21              		.cfi_def_cfa 8, 0
  22              		.loc 1 30 25 is_stmt 0
  23 000c 03348100 		ld	s0,8(sp)
  24              		.cfi_restore 8
  25              		.cfi_def_cfa 2, 16
  26 0010 13010101 		addi	sp,sp,16
  27              		.cfi_def_cfa_offset 0
  28 0014 67800000 		jr	ra
GAS LISTING /tmp/ccBk5kNX.s 			page 2


  29              		.cfi_endproc
  30              	.LFE0:
  32              		.section	.text._ZN14PeriodicThread18periodicActivationEv,"axG",@progbits,_ZN14PeriodicThread18peri
  33              		.align	2
  34              		.weak	_ZN14PeriodicThread18periodicActivationEv
  36              	_ZN14PeriodicThread18periodicActivationEv:
  37              	.LFB1:
  31:src/../h/syscall_cpp.hpp **** private:
  32:src/../h/syscall_cpp.hpp ****     thread_t myHandle;
  33:src/../h/syscall_cpp.hpp ****     static void runner(void* t);
  34:src/../h/syscall_cpp.hpp **** };
  35:src/../h/syscall_cpp.hpp **** 
  36:src/../h/syscall_cpp.hpp **** class Semaphore
  37:src/../h/syscall_cpp.hpp **** {
  38:src/../h/syscall_cpp.hpp **** public:
  39:src/../h/syscall_cpp.hpp ****     Semaphore(unsigned init = 1);
  40:src/../h/syscall_cpp.hpp **** 
  41:src/../h/syscall_cpp.hpp ****     virtual ~Semaphore();
  42:src/../h/syscall_cpp.hpp **** 
  43:src/../h/syscall_cpp.hpp ****     int wait();
  44:src/../h/syscall_cpp.hpp ****     int signal();
  45:src/../h/syscall_cpp.hpp **** 
  46:src/../h/syscall_cpp.hpp **** private:
  47:src/../h/syscall_cpp.hpp ****     sem_t myHandle;
  48:src/../h/syscall_cpp.hpp **** };
  49:src/../h/syscall_cpp.hpp **** 
  50:src/../h/syscall_cpp.hpp **** class Console
  51:src/../h/syscall_cpp.hpp **** {
  52:src/../h/syscall_cpp.hpp **** public:
  53:src/../h/syscall_cpp.hpp ****     static char getc();
  54:src/../h/syscall_cpp.hpp ****     static void putc(char);
  55:src/../h/syscall_cpp.hpp **** };
  56:src/../h/syscall_cpp.hpp **** 
  57:src/../h/syscall_cpp.hpp **** class PeriodicThread : public Thread
  58:src/../h/syscall_cpp.hpp **** {
  59:src/../h/syscall_cpp.hpp **** protected:
  60:src/../h/syscall_cpp.hpp ****     PeriodicThread(time_t period);
  61:src/../h/syscall_cpp.hpp ****     virtual void periodicActivation() {};
  38              		.loc 1 61 18 is_stmt 1
  39              		.cfi_startproc
  40              	.LVL1:
  41 0000 130101FF 		addi	sp,sp,-16
  42              		.cfi_def_cfa_offset 16
  43 0004 23348100 		sd	s0,8(sp)
  44              		.cfi_offset 8, -8
  45 0008 13040101 		addi	s0,sp,16
  46              		.cfi_def_cfa 8, 0
  47              		.loc 1 61 40 is_stmt 0
  48 000c 03348100 		ld	s0,8(sp)
  49              		.cfi_restore 8
  50              		.cfi_def_cfa 2, 16
  51 0010 13010101 		addi	sp,sp,16
  52              		.cfi_def_cfa_offset 0
  53 0014 67800000 		jr	ra
  54              		.cfi_endproc
  55              	.LFE1:
  57              		.text
GAS LISTING /tmp/ccBk5kNX.s 			page 3


  58              		.align	2
  59              		.globl	_ZN6Thread6runnerEPv
  61              	_ZN6Thread6runnerEPv:
  62              	.LFB16:
  63              		.file 2 "src/syscall_cpp.cpp"
   1:src/syscall_cpp.cpp **** //
   2:src/syscall_cpp.cpp **** // Created by os on 4/8/22.
   3:src/syscall_cpp.cpp **** //
   4:src/syscall_cpp.cpp **** 
   5:src/syscall_cpp.cpp **** #include "../h/syscall_cpp.hpp"
   6:src/syscall_cpp.cpp **** 
   7:src/syscall_cpp.cpp **** struct ArgsPeriodic
   8:src/syscall_cpp.cpp **** {
   9:src/syscall_cpp.cpp ****     void* pt;
  10:src/syscall_cpp.cpp ****     uint64 time;
  11:src/syscall_cpp.cpp ****     ArgsPeriodic(void *p, uint64 t) : pt(p), time(t){}
  12:src/syscall_cpp.cpp **** };
  13:src/syscall_cpp.cpp **** 
  14:src/syscall_cpp.cpp **** //general
  15:src/syscall_cpp.cpp **** void * operator new(size_t size)
  16:src/syscall_cpp.cpp **** {
  17:src/syscall_cpp.cpp ****     return mem_alloc(size);
  18:src/syscall_cpp.cpp **** }
  19:src/syscall_cpp.cpp **** 
  20:src/syscall_cpp.cpp **** void operator delete(void * p)
  21:src/syscall_cpp.cpp **** {
  22:src/syscall_cpp.cpp ****     mem_free(p);
  23:src/syscall_cpp.cpp **** }
  24:src/syscall_cpp.cpp **** 
  25:src/syscall_cpp.cpp **** //Thread
  26:src/syscall_cpp.cpp **** int Thread::start()
  27:src/syscall_cpp.cpp **** {
  28:src/syscall_cpp.cpp ****     if(myHandle != nullptr)
  29:src/syscall_cpp.cpp ****     {
  30:src/syscall_cpp.cpp ****         return thread_start(myHandle);
  31:src/syscall_cpp.cpp ****     }
  32:src/syscall_cpp.cpp ****     else
  33:src/syscall_cpp.cpp ****     {
  34:src/syscall_cpp.cpp ****         return -1;
  35:src/syscall_cpp.cpp ****     }
  36:src/syscall_cpp.cpp **** 
  37:src/syscall_cpp.cpp **** }
  38:src/syscall_cpp.cpp **** 
  39:src/syscall_cpp.cpp **** void Thread::dispatch() {
  40:src/syscall_cpp.cpp ****     thread_dispatch();
  41:src/syscall_cpp.cpp **** }
  42:src/syscall_cpp.cpp **** 
  43:src/syscall_cpp.cpp **** void Thread::sleep(time_t time)
  44:src/syscall_cpp.cpp **** {
  45:src/syscall_cpp.cpp ****     time_sleep(time);
  46:src/syscall_cpp.cpp **** }
  47:src/syscall_cpp.cpp **** 
  48:src/syscall_cpp.cpp **** Thread::Thread(void (*body)(void *), void *args)
  49:src/syscall_cpp.cpp **** {
  50:src/syscall_cpp.cpp ****     myHandle = nullptr;
  51:src/syscall_cpp.cpp ****     thread_make_pcb(&myHandle, body, args);
  52:src/syscall_cpp.cpp **** }
GAS LISTING /tmp/ccBk5kNX.s 			page 4


  53:src/syscall_cpp.cpp **** 
  54:src/syscall_cpp.cpp **** Thread::Thread()
  55:src/syscall_cpp.cpp **** {
  56:src/syscall_cpp.cpp ****     myHandle = 0;
  57:src/syscall_cpp.cpp ****     thread_make_pcb(&myHandle, &Thread::runner, (void*)this);
  58:src/syscall_cpp.cpp **** }
  59:src/syscall_cpp.cpp **** 
  60:src/syscall_cpp.cpp **** void Thread::runner(void *t)
  61:src/syscall_cpp.cpp **** {
  64              		.loc 2 61 1 is_stmt 1
  65              		.cfi_startproc
  66              	.LVL2:
  67 0000 130101FF 		addi	sp,sp,-16
  68              		.cfi_def_cfa_offset 16
  69 0004 23341100 		sd	ra,8(sp)
  70 0008 23308100 		sd	s0,0(sp)
  71              		.cfi_offset 1, -8
  72              		.cfi_offset 8, -16
  73 000c 13040101 		addi	s0,sp,16
  74              		.cfi_def_cfa 8, 0
  62:src/syscall_cpp.cpp ****     Thread* thr = (Thread*)t;
  75              		.loc 2 62 5
  76              	.LVL3:
  63:src/syscall_cpp.cpp ****     thr->run();
  77              		.loc 2 63 5
  78              		.loc 2 63 14 is_stmt 0
  79 0010 83370500 		ld	a5,0(a0)
  80 0014 83B70701 		ld	a5,16(a5)
  81              		.loc 2 63 13
  82 0018 E7800700 		jalr	a5
  83              	.LVL4:
  64:src/syscall_cpp.cpp **** }
  84              		.loc 2 64 1
  85 001c 83308100 		ld	ra,8(sp)
  86              		.cfi_restore 1
  87 0020 03340100 		ld	s0,0(sp)
  88              		.cfi_restore 8
  89              		.cfi_def_cfa 2, 16
  90 0024 13010101 		addi	sp,sp,16
  91              		.cfi_def_cfa_offset 0
  92 0028 67800000 		jr	ra
  93              		.cfi_endproc
  94              	.LFE16:
  96              		.align	2
  97              		.globl	_ZN6ThreadD2Ev
  99              	_ZN6ThreadD2Ev:
 100              	.LFB18:
  65:src/syscall_cpp.cpp **** 
  66:src/syscall_cpp.cpp **** Thread::~Thread()
 101              		.loc 2 66 1 is_stmt 1
 102              		.cfi_startproc
 103              		.cfi_personality 0x9b,DW.ref.__gxx_personality_v0
 104              		.cfi_lsda 0x1b,.LLSDA18
 105              	.LVL5:
 106              	.LBB9:
 107              		.loc 2 66 17 is_stmt 0
 108 002c 97070000 		lla	a5,_ZTV6Thread+16
GAS LISTING /tmp/ccBk5kNX.s 			page 5


 108      93870700 
 109 0034 2330F500 		sd	a5,0(a0)
  67:src/syscall_cpp.cpp **** {
  68:src/syscall_cpp.cpp ****     delete myHandle;
 110              		.loc 2 68 5 is_stmt 1
 111              		.loc 2 68 12 is_stmt 0
 112 0038 03358500 		ld	a0,8(a0)
 113              	.LVL6:
 114              		.loc 2 68 20
 115 003c 63060502 		beqz	a0,.L10
 116              	.LBE9:
  66:src/syscall_cpp.cpp **** {
 117              		.loc 2 66 1 discriminator 1
 118 0040 130101FF 		addi	sp,sp,-16
 119              		.cfi_def_cfa_offset 16
 120 0044 23341100 		sd	ra,8(sp)
 121 0048 23308100 		sd	s0,0(sp)
 122              		.cfi_offset 1, -8
 123              		.cfi_offset 8, -16
 124 004c 13040101 		addi	s0,sp,16
 125              		.cfi_def_cfa 8, 0
 126              	.LBB10:
 127              		.loc 2 68 12 discriminator 1
 128 0050 97000000 		call	_ZN7_threaddlEPv@plt
 128      E7800000 
 129              	.LVL7:
 130              	.LBE10:
  69:src/syscall_cpp.cpp **** }
 131              		.loc 2 69 1 discriminator 1
 132 0058 83308100 		ld	ra,8(sp)
 133              		.cfi_restore 1
 134 005c 03340100 		ld	s0,0(sp)
 135              		.cfi_restore 8
 136              		.cfi_def_cfa 2, 16
 137 0060 13010101 		addi	sp,sp,16
 138              		.cfi_def_cfa_offset 0
 139 0064 67800000 		jr	ra
 140              	.L10:
 141 0068 67800000 		ret
 142              		.cfi_endproc
 143              	.LFE18:
 144              		.globl	__gxx_personality_v0
 145              		.section	.gcc_except_table,"a",@progbits
 146              	.LLSDA18:
 147 0000 FF       		.byte	0xff
 148 0001 FF       		.byte	0xff
 149 0002 03       		.byte	0x3
 150 0003 00       		.byte	0
 151              		.text
 153              		.globl	_ZN6ThreadD1Ev
 154              		.set	_ZN6ThreadD1Ev,_ZN6ThreadD2Ev
 155              		.section	.text._ZN14PeriodicThreadD2Ev,"axG",@progbits,_ZN14PeriodicThreadD5Ev,comdat
 156              		.align	2
 157              		.weak	_ZN14PeriodicThreadD2Ev
 159              	_ZN14PeriodicThreadD2Ev:
 160              	.LFB37:
  57:src/../h/syscall_cpp.hpp **** {
GAS LISTING /tmp/ccBk5kNX.s 			page 6


 161              		.loc 1 57 7 is_stmt 1
 162              		.cfi_startproc
 163              	.LVL8:
 164 0000 130101FF 		addi	sp,sp,-16
 165              		.cfi_def_cfa_offset 16
 166 0004 23341100 		sd	ra,8(sp)
 167 0008 23308100 		sd	s0,0(sp)
 168              		.cfi_offset 1, -8
 169              		.cfi_offset 8, -16
 170 000c 13040101 		addi	s0,sp,16
 171              		.cfi_def_cfa 8, 0
 172              	.LBB11:
  57:src/../h/syscall_cpp.hpp **** {
 173              		.loc 1 57 7 is_stmt 0
 174 0010 97070000 		lla	a5,_ZTV14PeriodicThread+16
 174      93870700 
 175 0018 2330F500 		sd	a5,0(a0)
 176 001c 97000000 		call	_ZN6ThreadD2Ev
 176      E7800000 
 177              	.LVL9:
 178              	.LBE11:
 179 0024 83308100 		ld	ra,8(sp)
 180              		.cfi_restore 1
 181 0028 03340100 		ld	s0,0(sp)
 182              		.cfi_restore 8
 183              		.cfi_def_cfa 2, 16
 184 002c 13010101 		addi	sp,sp,16
 185              		.cfi_def_cfa_offset 0
 186 0030 67800000 		jr	ra
 187              		.cfi_endproc
 188              	.LFE37:
 190              		.weak	_ZN14PeriodicThreadD1Ev
 191              		.set	_ZN14PeriodicThreadD1Ev,_ZN14PeriodicThreadD2Ev
 192              		.text
 193              		.align	2
 194              		.globl	_ZN9SemaphoreD2Ev
 196              	_ZN9SemaphoreD2Ev:
 197              	.LFB27:
  70:src/syscall_cpp.cpp **** 
  71:src/syscall_cpp.cpp **** //Semaphore
  72:src/syscall_cpp.cpp **** 
  73:src/syscall_cpp.cpp **** int Semaphore::wait()
  74:src/syscall_cpp.cpp **** {
  75:src/syscall_cpp.cpp ****     if(myHandle == nullptr)
  76:src/syscall_cpp.cpp ****         return -1;
  77:src/syscall_cpp.cpp ****     return sem_wait(myHandle);
  78:src/syscall_cpp.cpp **** }
  79:src/syscall_cpp.cpp **** 
  80:src/syscall_cpp.cpp **** Semaphore::Semaphore(unsigned int init)
  81:src/syscall_cpp.cpp **** {
  82:src/syscall_cpp.cpp ****     int retval = sem_open(&myHandle, init);
  83:src/syscall_cpp.cpp ****     if(retval != 0)
  84:src/syscall_cpp.cpp ****     {
  85:src/syscall_cpp.cpp ****         myHandle = nullptr;
  86:src/syscall_cpp.cpp ****     }
  87:src/syscall_cpp.cpp **** }
  88:src/syscall_cpp.cpp **** 
GAS LISTING /tmp/ccBk5kNX.s 			page 7


  89:src/syscall_cpp.cpp **** int Semaphore::signal()
  90:src/syscall_cpp.cpp **** {
  91:src/syscall_cpp.cpp ****     if(myHandle == nullptr)
  92:src/syscall_cpp.cpp ****         return -1;
  93:src/syscall_cpp.cpp ****     return sem_signal(myHandle);
  94:src/syscall_cpp.cpp **** }
  95:src/syscall_cpp.cpp **** 
  96:src/syscall_cpp.cpp **** Semaphore::~Semaphore() {
 198              		.loc 2 96 1 is_stmt 1
 199              		.cfi_startproc
 200              		.cfi_personality 0x9b,DW.ref.__gxx_personality_v0
 201              		.cfi_lsda 0x1b,.LLSDA27
 202              	.LVL10:
 203              	.LBB12:
 204              		.loc 2 96 23 is_stmt 0
 205 006c 97070000 		lla	a5,_ZTV9Semaphore+16
 205      93870700 
 206 0074 2330F500 		sd	a5,0(a0)
  97:src/syscall_cpp.cpp ****     delete myHandle;
 207              		.loc 2 97 5 is_stmt 1
 208              		.loc 2 97 12 is_stmt 0
 209 0078 03358500 		ld	a0,8(a0)
 210              	.LVL11:
 211              		.loc 2 97 20
 212 007c 63060502 		beqz	a0,.L18
 213              	.LBE12:
  96:src/syscall_cpp.cpp ****     delete myHandle;
 214              		.loc 2 96 1 discriminator 1
 215 0080 130101FF 		addi	sp,sp,-16
 216              		.cfi_def_cfa_offset 16
 217 0084 23341100 		sd	ra,8(sp)
 218 0088 23308100 		sd	s0,0(sp)
 219              		.cfi_offset 1, -8
 220              		.cfi_offset 8, -16
 221 008c 13040101 		addi	s0,sp,16
 222              		.cfi_def_cfa 8, 0
 223              	.LBB13:
 224              		.loc 2 97 12 discriminator 1
 225 0090 97000000 		call	_ZN4_semdlEPv@plt
 225      E7800000 
 226              	.LVL12:
 227              	.LBE13:
  98:src/syscall_cpp.cpp **** }
 228              		.loc 2 98 1 discriminator 1
 229 0098 83308100 		ld	ra,8(sp)
 230              		.cfi_restore 1
 231 009c 03340100 		ld	s0,0(sp)
 232              		.cfi_restore 8
 233              		.cfi_def_cfa 2, 16
 234 00a0 13010101 		addi	sp,sp,16
 235              		.cfi_def_cfa_offset 0
 236 00a4 67800000 		jr	ra
 237              	.L18:
 238 00a8 67800000 		ret
 239              		.cfi_endproc
 240              	.LFE27:
 241              		.section	.gcc_except_table
GAS LISTING /tmp/ccBk5kNX.s 			page 8


 242              	.LLSDA27:
 243 0004 FF       		.byte	0xff
 244 0005 FF       		.byte	0xff
 245 0006 03       		.byte	0x3
 246 0007 00       		.byte	0
 247              		.text
 249              		.globl	_ZN9SemaphoreD1Ev
 250              		.set	_ZN9SemaphoreD1Ev,_ZN9SemaphoreD2Ev
 251              		.align	2
 252              		.globl	_Znwm
 254              	_Znwm:
 255              	.LFB5:
  16:src/syscall_cpp.cpp ****     return mem_alloc(size);
 256              		.loc 2 16 1 is_stmt 1
 257              		.cfi_startproc
 258              	.LVL13:
 259 00ac 130101FF 		addi	sp,sp,-16
 260              		.cfi_def_cfa_offset 16
 261 00b0 23341100 		sd	ra,8(sp)
 262 00b4 23308100 		sd	s0,0(sp)
 263              		.cfi_offset 1, -8
 264              		.cfi_offset 8, -16
 265 00b8 13040101 		addi	s0,sp,16
 266              		.cfi_def_cfa 8, 0
  17:src/syscall_cpp.cpp **** }
 267              		.loc 2 17 5
  17:src/syscall_cpp.cpp **** }
 268              		.loc 2 17 21 is_stmt 0
 269 00bc 97000000 		call	_Z9mem_allocm@plt
 269      E7800000 
 270              	.LVL14:
  18:src/syscall_cpp.cpp **** 
 271              		.loc 2 18 1
 272 00c4 83308100 		ld	ra,8(sp)
 273              		.cfi_restore 1
 274 00c8 03340100 		ld	s0,0(sp)
 275              		.cfi_restore 8
 276              		.cfi_def_cfa 2, 16
 277 00cc 13010101 		addi	sp,sp,16
 278              		.cfi_def_cfa_offset 0
 279 00d0 67800000 		jr	ra
 280              		.cfi_endproc
 281              	.LFE5:
 283              		.align	2
 284              		.globl	_ZdlPv
 286              	_ZdlPv:
 287              	.LFB6:
  21:src/syscall_cpp.cpp ****     mem_free(p);
 288              		.loc 2 21 1 is_stmt 1
 289              		.cfi_startproc
 290              	.LVL15:
 291 00d4 130101FF 		addi	sp,sp,-16
 292              		.cfi_def_cfa_offset 16
 293 00d8 23341100 		sd	ra,8(sp)
 294 00dc 23308100 		sd	s0,0(sp)
 295              		.cfi_offset 1, -8
 296              		.cfi_offset 8, -16
GAS LISTING /tmp/ccBk5kNX.s 			page 9


 297 00e0 13040101 		addi	s0,sp,16
 298              		.cfi_def_cfa 8, 0
  22:src/syscall_cpp.cpp **** }
 299              		.loc 2 22 5
  22:src/syscall_cpp.cpp **** }
 300              		.loc 2 22 13 is_stmt 0
 301 00e4 97000000 		call	_Z8mem_freePv@plt
 301      E7800000 
 302              	.LVL16:
  23:src/syscall_cpp.cpp **** 
 303              		.loc 2 23 1
 304 00ec 83308100 		ld	ra,8(sp)
 305              		.cfi_restore 1
 306 00f0 03340100 		ld	s0,0(sp)
 307              		.cfi_restore 8
 308              		.cfi_def_cfa 2, 16
 309 00f4 13010101 		addi	sp,sp,16
 310              		.cfi_def_cfa_offset 0
 311 00f8 67800000 		jr	ra
 312              		.cfi_endproc
 313              	.LFE6:
 315              		.align	2
 316              		.globl	_ZN6ThreadD0Ev
 318              	_ZN6ThreadD0Ev:
 319              	.LFB20:
  66:src/syscall_cpp.cpp **** {
 320              		.loc 2 66 1 is_stmt 1
 321              		.cfi_startproc
 322              	.LVL17:
 323 00fc 130101FE 		addi	sp,sp,-32
 324              		.cfi_def_cfa_offset 32
 325 0100 233C1100 		sd	ra,24(sp)
 326 0104 23388100 		sd	s0,16(sp)
 327 0108 23349100 		sd	s1,8(sp)
 328              		.cfi_offset 1, -8
 329              		.cfi_offset 8, -16
 330              		.cfi_offset 9, -24
 331 010c 13040102 		addi	s0,sp,32
 332              		.cfi_def_cfa 8, 0
 333 0110 93040500 		mv	s1,a0
  69:src/syscall_cpp.cpp **** 
 334              		.loc 2 69 1 is_stmt 0
 335 0114 97000000 		call	_ZN6ThreadD1Ev
 335      E7800000 
 336              	.LVL18:
 337 011c 13850400 		mv	a0,s1
 338 0120 97000000 		call	_ZdlPv
 338      E7800000 
 339              	.LVL19:
 340 0128 83308101 		ld	ra,24(sp)
 341              		.cfi_restore 1
 342 012c 03340101 		ld	s0,16(sp)
 343              		.cfi_restore 8
 344              		.cfi_def_cfa 2, 32
 345 0130 83348100 		ld	s1,8(sp)
 346              		.cfi_restore 9
 347              	.LVL20:
GAS LISTING /tmp/ccBk5kNX.s 			page 10


 348 0134 13010102 		addi	sp,sp,32
 349              		.cfi_def_cfa_offset 0
 350 0138 67800000 		jr	ra
 351              		.cfi_endproc
 352              	.LFE20:
 354              		.align	2
 355              		.globl	_ZN9SemaphoreD0Ev
 357              	_ZN9SemaphoreD0Ev:
 358              	.LFB29:
  96:src/syscall_cpp.cpp ****     delete myHandle;
 359              		.loc 2 96 1 is_stmt 1
 360              		.cfi_startproc
 361              	.LVL21:
 362 013c 130101FE 		addi	sp,sp,-32
 363              		.cfi_def_cfa_offset 32
 364 0140 233C1100 		sd	ra,24(sp)
 365 0144 23388100 		sd	s0,16(sp)
 366 0148 23349100 		sd	s1,8(sp)
 367              		.cfi_offset 1, -8
 368              		.cfi_offset 8, -16
 369              		.cfi_offset 9, -24
 370 014c 13040102 		addi	s0,sp,32
 371              		.cfi_def_cfa 8, 0
 372 0150 93040500 		mv	s1,a0
 373              		.loc 2 98 1 is_stmt 0
 374 0154 97000000 		call	_ZN9SemaphoreD1Ev
 374      E7800000 
 375              	.LVL22:
 376 015c 13850400 		mv	a0,s1
 377 0160 97000000 		call	_ZdlPv
 377      E7800000 
 378              	.LVL23:
 379 0168 83308101 		ld	ra,24(sp)
 380              		.cfi_restore 1
 381 016c 03340101 		ld	s0,16(sp)
 382              		.cfi_restore 8
 383              		.cfi_def_cfa 2, 32
 384 0170 83348100 		ld	s1,8(sp)
 385              		.cfi_restore 9
 386              	.LVL24:
 387 0174 13010102 		addi	sp,sp,32
 388              		.cfi_def_cfa_offset 0
 389 0178 67800000 		jr	ra
 390              		.cfi_endproc
 391              	.LFE29:
 393              		.section	.text._ZN14PeriodicThreadD0Ev,"axG",@progbits,_ZN14PeriodicThreadD5Ev,comdat
 394              		.align	2
 395              		.weak	_ZN14PeriodicThreadD0Ev
 397              	_ZN14PeriodicThreadD0Ev:
 398              	.LFB39:
  57:src/../h/syscall_cpp.hpp **** {
 399              		.loc 1 57 7 is_stmt 1
 400              		.cfi_startproc
 401              	.LVL25:
 402 0000 130101FE 		addi	sp,sp,-32
 403              		.cfi_def_cfa_offset 32
 404 0004 233C1100 		sd	ra,24(sp)
GAS LISTING /tmp/ccBk5kNX.s 			page 11


 405 0008 23388100 		sd	s0,16(sp)
 406 000c 23349100 		sd	s1,8(sp)
 407              		.cfi_offset 1, -8
 408              		.cfi_offset 8, -16
 409              		.cfi_offset 9, -24
 410 0010 13040102 		addi	s0,sp,32
 411              		.cfi_def_cfa 8, 0
 412 0014 93040500 		mv	s1,a0
 413              	.LVL26:
 414              	.LBB14:
 415              	.LBB15:
  57:src/../h/syscall_cpp.hpp **** {
 416              		.loc 1 57 7 is_stmt 0
 417 0018 97070000 		lla	a5,_ZTV14PeriodicThread+16
 417      93870700 
 418 0020 2330F500 		sd	a5,0(a0)
 419 0024 97000000 		call	_ZN6ThreadD2Ev
 419      E7800000 
 420              	.LVL27:
 421              	.LBE15:
 422              	.LBE14:
 423 002c 13850400 		mv	a0,s1
 424 0030 97000000 		call	_ZdlPv
 424      E7800000 
 425              	.LVL28:
 426 0038 83308101 		ld	ra,24(sp)
 427              		.cfi_restore 1
 428 003c 03340101 		ld	s0,16(sp)
 429              		.cfi_restore 8
 430              		.cfi_def_cfa 2, 32
 431 0040 83348100 		ld	s1,8(sp)
 432              		.cfi_restore 9
 433              	.LVL29:
 434 0044 13010102 		addi	sp,sp,32
 435              		.cfi_def_cfa_offset 0
 436 0048 67800000 		jr	ra
 437              		.cfi_endproc
 438              	.LFE39:
 440              		.text
 441              		.align	2
 442              		.globl	_ZN6Thread5startEv
 444              	_ZN6Thread5startEv:
 445              	.LFB7:
  27:src/syscall_cpp.cpp ****     if(myHandle != nullptr)
 446              		.loc 2 27 1 is_stmt 1
 447              		.cfi_startproc
 448              	.LVL30:
  28:src/syscall_cpp.cpp ****     {
 449              		.loc 2 28 5
  28:src/syscall_cpp.cpp ****     {
 450              		.loc 2 28 8 is_stmt 0
 451 017c 03358500 		ld	a0,8(a0)
 452              	.LVL31:
  28:src/syscall_cpp.cpp ****     {
 453              		.loc 2 28 5
 454 0180 63060502 		beqz	a0,.L33
  27:src/syscall_cpp.cpp ****     if(myHandle != nullptr)
GAS LISTING /tmp/ccBk5kNX.s 			page 12


 455              		.loc 2 27 1
 456 0184 130101FF 		addi	sp,sp,-16
 457              		.cfi_def_cfa_offset 16
 458 0188 23341100 		sd	ra,8(sp)
 459 018c 23308100 		sd	s0,0(sp)
 460              		.cfi_offset 1, -8
 461              		.cfi_offset 8, -16
 462 0190 13040101 		addi	s0,sp,16
 463              		.cfi_def_cfa 8, 0
  30:src/syscall_cpp.cpp ****     }
 464              		.loc 2 30 9 is_stmt 1
  30:src/syscall_cpp.cpp ****     }
 465              		.loc 2 30 28 is_stmt 0
 466 0194 97000000 		call	_Z12thread_startPv@plt
 466      E7800000 
 467              	.LVL32:
  37:src/syscall_cpp.cpp **** 
 468              		.loc 2 37 1
 469 019c 83308100 		ld	ra,8(sp)
 470              		.cfi_restore 1
 471 01a0 03340100 		ld	s0,0(sp)
 472              		.cfi_restore 8
 473              		.cfi_def_cfa 2, 16
 474 01a4 13010101 		addi	sp,sp,16
 475              		.cfi_def_cfa_offset 0
 476 01a8 67800000 		jr	ra
 477              	.L33:
  34:src/syscall_cpp.cpp ****     }
 478              		.loc 2 34 17
 479 01ac 1305F0FF 		li	a0,-1
  37:src/syscall_cpp.cpp **** 
 480              		.loc 2 37 1
 481 01b0 67800000 		ret
 482              		.cfi_endproc
 483              	.LFE7:
 485              		.align	2
 486              		.globl	_ZN6Thread8dispatchEv
 488              	_ZN6Thread8dispatchEv:
 489              	.LFB8:
  39:src/syscall_cpp.cpp ****     thread_dispatch();
 490              		.loc 2 39 25 is_stmt 1
 491              		.cfi_startproc
 492 01b4 130101FF 		addi	sp,sp,-16
 493              		.cfi_def_cfa_offset 16
 494 01b8 23341100 		sd	ra,8(sp)
 495 01bc 23308100 		sd	s0,0(sp)
 496              		.cfi_offset 1, -8
 497              		.cfi_offset 8, -16
 498 01c0 13040101 		addi	s0,sp,16
 499              		.cfi_def_cfa 8, 0
  40:src/syscall_cpp.cpp **** }
 500              		.loc 2 40 5
  40:src/syscall_cpp.cpp **** }
 501              		.loc 2 40 20 is_stmt 0
 502 01c4 97000000 		call	_Z15thread_dispatchv@plt
 502      E7800000 
 503              	.LVL33:
GAS LISTING /tmp/ccBk5kNX.s 			page 13


  41:src/syscall_cpp.cpp **** 
 504              		.loc 2 41 1
 505 01cc 83308100 		ld	ra,8(sp)
 506              		.cfi_restore 1
 507 01d0 03340100 		ld	s0,0(sp)
 508              		.cfi_restore 8
 509              		.cfi_def_cfa 2, 16
 510 01d4 13010101 		addi	sp,sp,16
 511              		.cfi_def_cfa_offset 0
 512 01d8 67800000 		jr	ra
 513              		.cfi_endproc
 514              	.LFE8:
 516              		.align	2
 517              		.globl	_ZN6Thread5sleepEm
 519              	_ZN6Thread5sleepEm:
 520              	.LFB9:
  44:src/syscall_cpp.cpp ****     time_sleep(time);
 521              		.loc 2 44 1 is_stmt 1
 522              		.cfi_startproc
 523              	.LVL34:
 524 01dc 130101FF 		addi	sp,sp,-16
 525              		.cfi_def_cfa_offset 16
 526 01e0 23341100 		sd	ra,8(sp)
 527 01e4 23308100 		sd	s0,0(sp)
 528              		.cfi_offset 1, -8
 529              		.cfi_offset 8, -16
 530 01e8 13040101 		addi	s0,sp,16
 531              		.cfi_def_cfa 8, 0
  45:src/syscall_cpp.cpp **** }
 532              		.loc 2 45 5
  45:src/syscall_cpp.cpp **** }
 533              		.loc 2 45 15 is_stmt 0
 534 01ec 97000000 		call	_Z10time_sleepm@plt
 534      E7800000 
 535              	.LVL35:
  46:src/syscall_cpp.cpp **** 
 536              		.loc 2 46 1
 537 01f4 83308100 		ld	ra,8(sp)
 538              		.cfi_restore 1
 539 01f8 03340100 		ld	s0,0(sp)
 540              		.cfi_restore 8
 541              		.cfi_def_cfa 2, 16
 542 01fc 13010101 		addi	sp,sp,16
 543              		.cfi_def_cfa_offset 0
 544 0200 67800000 		jr	ra
 545              		.cfi_endproc
 546              	.LFE9:
 548              		.align	2
 549              		.globl	_ZN14PeriodicThread6runnerEPv
 551              	_ZN14PeriodicThread6runnerEPv:
 552              	.LFB35:
  99:src/syscall_cpp.cpp **** 
 100:src/syscall_cpp.cpp **** //Console
 101:src/syscall_cpp.cpp **** 
 102:src/syscall_cpp.cpp **** char Console::getc()
 103:src/syscall_cpp.cpp **** {
 104:src/syscall_cpp.cpp ****     return ::getc();
GAS LISTING /tmp/ccBk5kNX.s 			page 14


 105:src/syscall_cpp.cpp **** }
 106:src/syscall_cpp.cpp **** 
 107:src/syscall_cpp.cpp **** void Console::putc(char c)
 108:src/syscall_cpp.cpp **** {
 109:src/syscall_cpp.cpp ****     return ::putc(c);
 110:src/syscall_cpp.cpp **** }
 111:src/syscall_cpp.cpp **** 
 112:src/syscall_cpp.cpp **** //PeriodicThread
 113:src/syscall_cpp.cpp **** 
 114:src/syscall_cpp.cpp **** PeriodicThread::PeriodicThread(time_t period) : Thread(&PeriodicThread::runner, new ArgsPeriodic((v
 115:src/syscall_cpp.cpp **** {
 116:src/syscall_cpp.cpp **** 
 117:src/syscall_cpp.cpp **** }
 118:src/syscall_cpp.cpp **** 
 119:src/syscall_cpp.cpp **** void PeriodicThread::runner(void* arg)
 120:src/syscall_cpp.cpp **** {
 553              		.loc 2 120 1 is_stmt 1
 554              		.cfi_startproc
 555              	.LVL36:
 556 0204 130101FE 		addi	sp,sp,-32
 557              		.cfi_def_cfa_offset 32
 558 0208 233C1100 		sd	ra,24(sp)
 559 020c 23388100 		sd	s0,16(sp)
 560 0210 23349100 		sd	s1,8(sp)
 561 0214 23302101 		sd	s2,0(sp)
 562              		.cfi_offset 1, -8
 563              		.cfi_offset 8, -16
 564              		.cfi_offset 9, -24
 565              		.cfi_offset 18, -32
 566 0218 13040102 		addi	s0,sp,32
 567              		.cfi_def_cfa 8, 0
 121:src/syscall_cpp.cpp ****     PeriodicThread *pThread =(PeriodicThread*) ((ArgsPeriodic*)arg)->pt;
 568              		.loc 2 121 5
 569              		.loc 2 121 21 is_stmt 0
 570 021c 83340500 		ld	s1,0(a0)
 571              	.LVL37:
 122:src/syscall_cpp.cpp ****     uint64 time = ((ArgsPeriodic*)arg)->time;
 572              		.loc 2 122 5 is_stmt 1
 573              		.loc 2 122 12 is_stmt 0
 574 0220 03398500 		ld	s2,8(a0)
 575              	.LVL38:
 576              	.L43:
 123:src/syscall_cpp.cpp **** 
 124:src/syscall_cpp.cpp ****     while(true)
 577              		.loc 2 124 5 is_stmt 1 discriminator 1
 125:src/syscall_cpp.cpp ****     {
 126:src/syscall_cpp.cpp ****         pThread->periodicActivation();
 578              		.loc 2 126 9 discriminator 1
 579              		.loc 2 126 37 is_stmt 0 discriminator 1
 580 0224 83B70400 		ld	a5,0(s1)
 581 0228 83B78701 		ld	a5,24(a5)
 582              		.loc 2 126 36 discriminator 1
 583 022c 13850400 		mv	a0,s1
 584 0230 E7800700 		jalr	a5
 585              	.LVL39:
 127:src/syscall_cpp.cpp ****         Thread::sleep(time);
 586              		.loc 2 127 9 is_stmt 1 discriminator 1
GAS LISTING /tmp/ccBk5kNX.s 			page 15


 587              		.loc 2 127 22 is_stmt 0 discriminator 1
 588 0234 13050900 		mv	a0,s2
 589 0238 97000000 		call	_ZN6Thread5sleepEm
 589      E7800000 
 590              	.LVL40:
 124:src/syscall_cpp.cpp ****     {
 591              		.loc 2 124 5 is_stmt 1 discriminator 1
 592 0240 6FF05FFE 		j	.L43
 593              		.cfi_endproc
 594              	.LFE35:
 596              		.align	2
 597              		.globl	_ZN6ThreadC2EPFvPvES0_
 599              	_ZN6ThreadC2EPFvPvES0_:
 600              	.LFB11:
  48:src/syscall_cpp.cpp **** {
 601              		.loc 2 48 1
 602              		.cfi_startproc
 603              	.LVL41:
 604 0244 130101FF 		addi	sp,sp,-16
 605              		.cfi_def_cfa_offset 16
 606 0248 23341100 		sd	ra,8(sp)
 607 024c 23308100 		sd	s0,0(sp)
 608              		.cfi_offset 1, -8
 609              		.cfi_offset 8, -16
 610 0250 13040101 		addi	s0,sp,16
 611              		.cfi_def_cfa 8, 0
 612              	.LBB16:
  48:src/syscall_cpp.cpp **** {
 613              		.loc 2 48 48 is_stmt 0
 614 0254 97070000 		lla	a5,_ZTV6Thread+16
 614      93870700 
 615 025c 2330F500 		sd	a5,0(a0)
  50:src/syscall_cpp.cpp ****     thread_make_pcb(&myHandle, body, args);
 616              		.loc 2 50 5 is_stmt 1
  50:src/syscall_cpp.cpp ****     thread_make_pcb(&myHandle, body, args);
 617              		.loc 2 50 14 is_stmt 0
 618 0260 23340500 		sd	zero,8(a0)
  51:src/syscall_cpp.cpp **** }
 619              		.loc 2 51 5 is_stmt 1
  51:src/syscall_cpp.cpp **** }
 620              		.loc 2 51 20 is_stmt 0
 621 0264 13058500 		addi	a0,a0,8
 622              	.LVL42:
 623 0268 97000000 		call	_Z15thread_make_pcbPP7_threadPFvPvES2_@plt
 623      E7800000 
 624              	.LVL43:
 625              	.LBE16:
  52:src/syscall_cpp.cpp **** 
 626              		.loc 2 52 1
 627 0270 83308100 		ld	ra,8(sp)
 628              		.cfi_restore 1
 629 0274 03340100 		ld	s0,0(sp)
 630              		.cfi_restore 8
 631              		.cfi_def_cfa 2, 16
 632 0278 13010101 		addi	sp,sp,16
 633              		.cfi_def_cfa_offset 0
 634 027c 67800000 		jr	ra
GAS LISTING /tmp/ccBk5kNX.s 			page 16


 635              		.cfi_endproc
 636              	.LFE11:
 638              		.globl	_ZN6ThreadC1EPFvPvES0_
 639              		.set	_ZN6ThreadC1EPFvPvES0_,_ZN6ThreadC2EPFvPvES0_
 640              		.align	2
 641              		.globl	_ZN6ThreadC2Ev
 643              	_ZN6ThreadC2Ev:
 644              	.LFB14:
  54:src/syscall_cpp.cpp **** {
 645              		.loc 2 54 1 is_stmt 1
 646              		.cfi_startproc
 647              	.LVL44:
 648 0280 130101FF 		addi	sp,sp,-16
 649              		.cfi_def_cfa_offset 16
 650 0284 23341100 		sd	ra,8(sp)
 651 0288 23308100 		sd	s0,0(sp)
 652              		.cfi_offset 1, -8
 653              		.cfi_offset 8, -16
 654 028c 13040101 		addi	s0,sp,16
 655              		.cfi_def_cfa 8, 0
 656              	.LBB17:
  54:src/syscall_cpp.cpp **** {
 657              		.loc 2 54 16 is_stmt 0
 658 0290 97070000 		lla	a5,_ZTV6Thread+16
 658      93870700 
 659 0298 2330F500 		sd	a5,0(a0)
  56:src/syscall_cpp.cpp ****     thread_make_pcb(&myHandle, &Thread::runner, (void*)this);
 660              		.loc 2 56 5 is_stmt 1
  56:src/syscall_cpp.cpp ****     thread_make_pcb(&myHandle, &Thread::runner, (void*)this);
 661              		.loc 2 56 14 is_stmt 0
 662 029c 23340500 		sd	zero,8(a0)
  57:src/syscall_cpp.cpp **** }
 663              		.loc 2 57 5 is_stmt 1
  57:src/syscall_cpp.cpp **** }
 664              		.loc 2 57 20 is_stmt 0
 665 02a0 13060500 		mv	a2,a0
 666 02a4 97050000 		lla	a1,_ZN6Thread6runnerEPv
 666      93850500 
 667 02ac 13058500 		addi	a0,a0,8
 668              	.LVL45:
 669 02b0 97000000 		call	_Z15thread_make_pcbPP7_threadPFvPvES2_@plt
 669      E7800000 
 670              	.LVL46:
 671              	.LBE17:
  58:src/syscall_cpp.cpp **** 
 672              		.loc 2 58 1
 673 02b8 83308100 		ld	ra,8(sp)
 674              		.cfi_restore 1
 675 02bc 03340100 		ld	s0,0(sp)
 676              		.cfi_restore 8
 677              		.cfi_def_cfa 2, 16
 678 02c0 13010101 		addi	sp,sp,16
 679              		.cfi_def_cfa_offset 0
 680 02c4 67800000 		jr	ra
 681              		.cfi_endproc
 682              	.LFE14:
 684              		.globl	_ZN6ThreadC1Ev
GAS LISTING /tmp/ccBk5kNX.s 			page 17


 685              		.set	_ZN6ThreadC1Ev,_ZN6ThreadC2Ev
 686              		.align	2
 687              		.globl	_ZN9Semaphore4waitEv
 689              	_ZN9Semaphore4waitEv:
 690              	.LFB21:
  74:src/syscall_cpp.cpp ****     if(myHandle == nullptr)
 691              		.loc 2 74 1 is_stmt 1
 692              		.cfi_startproc
 693              	.LVL47:
  75:src/syscall_cpp.cpp ****         return -1;
 694              		.loc 2 75 5
  75:src/syscall_cpp.cpp ****         return -1;
 695              		.loc 2 75 8 is_stmt 0
 696 02c8 03358500 		ld	a0,8(a0)
 697              	.LVL48:
  75:src/syscall_cpp.cpp ****         return -1;
 698              		.loc 2 75 5
 699 02cc 63060502 		beqz	a0,.L51
  74:src/syscall_cpp.cpp ****     if(myHandle == nullptr)
 700              		.loc 2 74 1
 701 02d0 130101FF 		addi	sp,sp,-16
 702              		.cfi_def_cfa_offset 16
 703 02d4 23341100 		sd	ra,8(sp)
 704 02d8 23308100 		sd	s0,0(sp)
 705              		.cfi_offset 1, -8
 706              		.cfi_offset 8, -16
 707 02dc 13040101 		addi	s0,sp,16
 708              		.cfi_def_cfa 8, 0
  77:src/syscall_cpp.cpp **** }
 709              		.loc 2 77 5 is_stmt 1
  77:src/syscall_cpp.cpp **** }
 710              		.loc 2 77 20 is_stmt 0
 711 02e0 97000000 		call	_Z8sem_waitP4_sem@plt
 711      E7800000 
 712              	.LVL49:
  78:src/syscall_cpp.cpp **** 
 713              		.loc 2 78 1
 714 02e8 83308100 		ld	ra,8(sp)
 715              		.cfi_restore 1
 716 02ec 03340100 		ld	s0,0(sp)
 717              		.cfi_restore 8
 718              		.cfi_def_cfa 2, 16
 719 02f0 13010101 		addi	sp,sp,16
 720              		.cfi_def_cfa_offset 0
 721 02f4 67800000 		jr	ra
 722              	.L51:
  76:src/syscall_cpp.cpp ****     return sem_wait(myHandle);
 723              		.loc 2 76 17
 724 02f8 1305F0FF 		li	a0,-1
  78:src/syscall_cpp.cpp **** 
 725              		.loc 2 78 1
 726 02fc 67800000 		ret
 727              		.cfi_endproc
 728              	.LFE21:
 730              		.align	2
 731              		.globl	_ZN9SemaphoreC2Ej
 733              	_ZN9SemaphoreC2Ej:
GAS LISTING /tmp/ccBk5kNX.s 			page 18


 734              	.LFB23:
  80:src/syscall_cpp.cpp **** {
 735              		.loc 2 80 1 is_stmt 1
 736              		.cfi_startproc
 737              	.LVL50:
 738 0300 130101FE 		addi	sp,sp,-32
 739              		.cfi_def_cfa_offset 32
 740 0304 233C1100 		sd	ra,24(sp)
 741 0308 23388100 		sd	s0,16(sp)
 742 030c 23349100 		sd	s1,8(sp)
 743              		.cfi_offset 1, -8
 744              		.cfi_offset 8, -16
 745              		.cfi_offset 9, -24
 746 0310 13040102 		addi	s0,sp,32
 747              		.cfi_def_cfa 8, 0
 748 0314 93040500 		mv	s1,a0
 749              	.LBB18:
  80:src/syscall_cpp.cpp **** {
 750              		.loc 2 80 39 is_stmt 0
 751 0318 97070000 		lla	a5,_ZTV9Semaphore+16
 751      93870700 
 752 0320 2330F500 		sd	a5,0(a0)
 753              	.LBB19:
  82:src/syscall_cpp.cpp ****     if(retval != 0)
 754              		.loc 2 82 5 is_stmt 1
  82:src/syscall_cpp.cpp ****     if(retval != 0)
 755              		.loc 2 82 26 is_stmt 0
 756 0324 13058500 		addi	a0,a0,8
 757              	.LVL51:
 758 0328 97000000 		call	_Z8sem_openPP4_semj@plt
 758      E7800000 
 759              	.LVL52:
  83:src/syscall_cpp.cpp ****     {
 760              		.loc 2 83 5 is_stmt 1
 761 0330 63040500 		beqz	a0,.L56
  85:src/syscall_cpp.cpp ****     }
 762              		.loc 2 85 9
  85:src/syscall_cpp.cpp ****     }
 763              		.loc 2 85 18 is_stmt 0
 764 0334 23B40400 		sd	zero,8(s1)
 765              	.L56:
 766              	.LBE19:
 767              	.LBE18:
  87:src/syscall_cpp.cpp **** 
 768              		.loc 2 87 1
 769 0338 83308101 		ld	ra,24(sp)
 770              		.cfi_restore 1
 771 033c 03340101 		ld	s0,16(sp)
 772              		.cfi_restore 8
 773              		.cfi_def_cfa 2, 32
 774 0340 83348100 		ld	s1,8(sp)
 775              		.cfi_restore 9
 776              	.LVL53:
 777 0344 13010102 		addi	sp,sp,32
 778              		.cfi_def_cfa_offset 0
 779 0348 67800000 		jr	ra
 780              		.cfi_endproc
GAS LISTING /tmp/ccBk5kNX.s 			page 19


 781              	.LFE23:
 783              		.globl	_ZN9SemaphoreC1Ej
 784              		.set	_ZN9SemaphoreC1Ej,_ZN9SemaphoreC2Ej
 785              		.align	2
 786              		.globl	_ZN9Semaphore6signalEv
 788              	_ZN9Semaphore6signalEv:
 789              	.LFB25:
  90:src/syscall_cpp.cpp ****     if(myHandle == nullptr)
 790              		.loc 2 90 1 is_stmt 1
 791              		.cfi_startproc
 792              	.LVL54:
  91:src/syscall_cpp.cpp ****         return -1;
 793              		.loc 2 91 5
  91:src/syscall_cpp.cpp ****         return -1;
 794              		.loc 2 91 8 is_stmt 0
 795 034c 03358500 		ld	a0,8(a0)
 796              	.LVL55:
  91:src/syscall_cpp.cpp ****         return -1;
 797              		.loc 2 91 5
 798 0350 63060502 		beqz	a0,.L61
  90:src/syscall_cpp.cpp ****     if(myHandle == nullptr)
 799              		.loc 2 90 1
 800 0354 130101FF 		addi	sp,sp,-16
 801              		.cfi_def_cfa_offset 16
 802 0358 23341100 		sd	ra,8(sp)
 803 035c 23308100 		sd	s0,0(sp)
 804              		.cfi_offset 1, -8
 805              		.cfi_offset 8, -16
 806 0360 13040101 		addi	s0,sp,16
 807              		.cfi_def_cfa 8, 0
  93:src/syscall_cpp.cpp **** }
 808              		.loc 2 93 5 is_stmt 1
  93:src/syscall_cpp.cpp **** }
 809              		.loc 2 93 22 is_stmt 0
 810 0364 97000000 		call	_Z10sem_signalP4_sem@plt
 810      E7800000 
 811              	.LVL56:
  94:src/syscall_cpp.cpp **** 
 812              		.loc 2 94 1
 813 036c 83308100 		ld	ra,8(sp)
 814              		.cfi_restore 1
 815 0370 03340100 		ld	s0,0(sp)
 816              		.cfi_restore 8
 817              		.cfi_def_cfa 2, 16
 818 0374 13010101 		addi	sp,sp,16
 819              		.cfi_def_cfa_offset 0
 820 0378 67800000 		jr	ra
 821              	.L61:
  92:src/syscall_cpp.cpp ****     return sem_signal(myHandle);
 822              		.loc 2 92 17
 823 037c 1305F0FF 		li	a0,-1
  94:src/syscall_cpp.cpp **** 
 824              		.loc 2 94 1
 825 0380 67800000 		ret
 826              		.cfi_endproc
 827              	.LFE25:
 829              		.align	2
GAS LISTING /tmp/ccBk5kNX.s 			page 20


 830              		.globl	_ZN7Console4getcEv
 832              	_ZN7Console4getcEv:
 833              	.LFB30:
 103:src/syscall_cpp.cpp ****     return ::getc();
 834              		.loc 2 103 1 is_stmt 1
 835              		.cfi_startproc
 836 0384 130101FF 		addi	sp,sp,-16
 837              		.cfi_def_cfa_offset 16
 838 0388 23341100 		sd	ra,8(sp)
 839 038c 23308100 		sd	s0,0(sp)
 840              		.cfi_offset 1, -8
 841              		.cfi_offset 8, -16
 842 0390 13040101 		addi	s0,sp,16
 843              		.cfi_def_cfa 8, 0
 104:src/syscall_cpp.cpp **** }
 844              		.loc 2 104 5
 104:src/syscall_cpp.cpp **** }
 845              		.loc 2 104 18 is_stmt 0
 846 0394 97000000 		call	_Z4getcv@plt
 846      E7800000 
 847              	.LVL57:
 105:src/syscall_cpp.cpp **** 
 848              		.loc 2 105 1
 849 039c 83308100 		ld	ra,8(sp)
 850              		.cfi_restore 1
 851 03a0 03340100 		ld	s0,0(sp)
 852              		.cfi_restore 8
 853              		.cfi_def_cfa 2, 16
 854 03a4 13010101 		addi	sp,sp,16
 855              		.cfi_def_cfa_offset 0
 856 03a8 67800000 		jr	ra
 857              		.cfi_endproc
 858              	.LFE30:
 860              		.align	2
 861              		.globl	_ZN7Console4putcEc
 863              	_ZN7Console4putcEc:
 864              	.LFB31:
 108:src/syscall_cpp.cpp ****     return ::putc(c);
 865              		.loc 2 108 1 is_stmt 1
 866              		.cfi_startproc
 867              	.LVL58:
 868 03ac 130101FF 		addi	sp,sp,-16
 869              		.cfi_def_cfa_offset 16
 870 03b0 23341100 		sd	ra,8(sp)
 871 03b4 23308100 		sd	s0,0(sp)
 872              		.cfi_offset 1, -8
 873              		.cfi_offset 8, -16
 874 03b8 13040101 		addi	s0,sp,16
 875              		.cfi_def_cfa 8, 0
 109:src/syscall_cpp.cpp **** }
 876              		.loc 2 109 5
 109:src/syscall_cpp.cpp **** }
 877              		.loc 2 109 18 is_stmt 0
 878 03bc 97000000 		call	_Z4putcc@plt
 878      E7800000 
 879              	.LVL59:
 110:src/syscall_cpp.cpp **** 
GAS LISTING /tmp/ccBk5kNX.s 			page 21


 880              		.loc 2 110 1
 881 03c4 83308100 		ld	ra,8(sp)
 882              		.cfi_restore 1
 883 03c8 03340100 		ld	s0,0(sp)
 884              		.cfi_restore 8
 885              		.cfi_def_cfa 2, 16
 886 03cc 13010101 		addi	sp,sp,16
 887              		.cfi_def_cfa_offset 0
 888 03d0 67800000 		jr	ra
 889              		.cfi_endproc
 890              	.LFE31:
 892              		.align	2
 893              		.globl	_ZN14PeriodicThreadC2Em
 895              	_ZN14PeriodicThreadC2Em:
 896              	.LFB33:
 114:src/syscall_cpp.cpp **** {
 897              		.loc 2 114 1 is_stmt 1
 898              		.cfi_startproc
 899              	.LVL60:
 900 03d4 130101FE 		addi	sp,sp,-32
 901              		.cfi_def_cfa_offset 32
 902 03d8 233C1100 		sd	ra,24(sp)
 903 03dc 23388100 		sd	s0,16(sp)
 904 03e0 23349100 		sd	s1,8(sp)
 905 03e4 23302101 		sd	s2,0(sp)
 906              		.cfi_offset 1, -8
 907              		.cfi_offset 8, -16
 908              		.cfi_offset 9, -24
 909              		.cfi_offset 18, -32
 910 03e8 13040102 		addi	s0,sp,32
 911              		.cfi_def_cfa 8, 0
 912 03ec 93040500 		mv	s1,a0
 913 03f0 13890500 		mv	s2,a1
 914              	.LBB20:
 114:src/syscall_cpp.cpp **** {
 915              		.loc 2 114 117 is_stmt 0
 916 03f4 13050001 		li	a0,16
 917              	.LVL61:
 918 03f8 97000000 		call	_Znwm
 918      E7800000 
 919              	.LVL62:
 920 0400 13060500 		mv	a2,a0
 921              	.LVL63:
 922              	.LBB21:
 923              	.LBB22:
  11:src/syscall_cpp.cpp **** };
 924              		.loc 2 11 52
 925 0404 23309500 		sd	s1,0(a0)
 926 0408 23342501 		sd	s2,8(a0)
 927              	.LVL64:
 928              	.LBE22:
 929              	.LBE21:
 114:src/syscall_cpp.cpp **** {
 930              		.loc 2 114 118
 931 040c 97050000 		lla	a1,_ZN14PeriodicThread6runnerEPv
 931      93850500 
 932 0414 13850400 		mv	a0,s1
GAS LISTING /tmp/ccBk5kNX.s 			page 22


 933 0418 97000000 		call	_ZN6ThreadC2EPFvPvES0_
 933      E7800000 
 934              	.LVL65:
 935 0420 97070000 		lla	a5,_ZTV14PeriodicThread+16
 935      93870700 
 936 0428 23B0F400 		sd	a5,0(s1)
 937              	.LBE20:
 117:src/syscall_cpp.cpp **** 
 938              		.loc 2 117 1
 939 042c 83308101 		ld	ra,24(sp)
 940              		.cfi_restore 1
 941 0430 03340101 		ld	s0,16(sp)
 942              		.cfi_restore 8
 943              		.cfi_def_cfa 2, 32
 944 0434 83348100 		ld	s1,8(sp)
 945              		.cfi_restore 9
 946              	.LVL66:
 947 0438 03390100 		ld	s2,0(sp)
 948              		.cfi_restore 18
 949              	.LVL67:
 950 043c 13010102 		addi	sp,sp,32
 951              		.cfi_def_cfa_offset 0
 952 0440 67800000 		jr	ra
 953              		.cfi_endproc
 954              	.LFE33:
 956              		.globl	_ZN14PeriodicThreadC1Em
 957              		.set	_ZN14PeriodicThreadC1Em,_ZN14PeriodicThreadC2Em
 958              		.weak	_ZTV14PeriodicThread
 959              		.section	.data.rel.ro.local._ZTV14PeriodicThread,"awG",@progbits,_ZTV14PeriodicThread,comdat
 960              		.align	3
 963              	_ZTV14PeriodicThread:
 964 0000 00000000 		.dword	0
 964      00000000 
 965 0008 00000000 		.dword	0
 965      00000000 
 966 0010 00000000 		.dword	_ZN14PeriodicThreadD1Ev
 966      00000000 
 967 0018 00000000 		.dword	_ZN14PeriodicThreadD0Ev
 967      00000000 
 968 0020 00000000 		.dword	_ZN6Thread3runEv
 968      00000000 
 969 0028 00000000 		.dword	_ZN14PeriodicThread18periodicActivationEv
 969      00000000 
 970              		.weak	_ZTV6Thread
 971              		.section	.data.rel.ro.local._ZTV6Thread,"awG",@progbits,_ZTV6Thread,comdat
 972              		.align	3
 975              	_ZTV6Thread:
 976 0000 00000000 		.dword	0
 976      00000000 
 977 0008 00000000 		.dword	0
 977      00000000 
 978 0010 00000000 		.dword	_ZN6ThreadD1Ev
 978      00000000 
 979 0018 00000000 		.dword	_ZN6ThreadD0Ev
 979      00000000 
 980 0020 00000000 		.dword	_ZN6Thread3runEv
 980      00000000 
GAS LISTING /tmp/ccBk5kNX.s 			page 23


 981              		.weak	_ZTV9Semaphore
 982              		.section	.data.rel.ro.local._ZTV9Semaphore,"awG",@progbits,_ZTV9Semaphore,comdat
 983              		.align	3
 986              	_ZTV9Semaphore:
 987 0000 00000000 		.dword	0
 987      00000000 
 988 0008 00000000 		.dword	0
 988      00000000 
 989 0010 00000000 		.dword	_ZN9SemaphoreD1Ev
 989      00000000 
 990 0018 00000000 		.dword	_ZN9SemaphoreD0Ev
 990      00000000 
 991              		.text
 992              	.Letext0:
 993              		.file 3 "src/../h/../lib/hw.h"
 994              		.file 4 "src/../h/_thread.hpp"
 995              		.file 5 "src/../h/_sem.hpp"
 996              		.file 6 "src/../h/syscall_c.hpp"
 4294              		.align	3
 4297              	DW.ref.__gxx_personality_v0:
 4298 0000 00000000 		.dword	__gxx_personality_v0
 4298      00000000 
 4299              		.ident	"GCC: (Ubuntu 9.4.0-1ubuntu1~20.04) 9.4.0"
 4300              		.section	.note.GNU-stack,"",@progbits
GAS LISTING /tmp/ccBk5kNX.s 			page 24

