GAS LISTING /tmp/ccAfwIJb.s 			page 1


   1              		.file	"buddyAllocator.cpp"
   2              		.option pic
   3              		.option norelax
   4              		.text
   5              	.Ltext0:
   6              		.align	2
   7              		.globl	_Z12getBlockAddrm
   9              	_Z12getBlockAddrm:
  10              	.LFB9:
  11              		.file 1 "src/kernel/buddyAllocator.cpp"
   1:src/kernel/buddyAllocator.cpp **** #include "../../h/buddyAllocator.hpp"
   2:src/kernel/buddyAllocator.cpp **** #include "../../h/KConsole.hpp"
   3:src/kernel/buddyAllocator.cpp **** 
   4:src/kernel/buddyAllocator.cpp **** #define BLOCK_SIZE 4096
   5:src/kernel/buddyAllocator.cpp **** 
   6:src/kernel/buddyAllocator.cpp **** static buddyAllocator* buddy = nullptr;
   7:src/kernel/buddyAllocator.cpp **** 
   8:src/kernel/buddyAllocator.cpp **** buddyAllocator* buddy_init(void* addr, size_t numOfBlocks)
   9:src/kernel/buddyAllocator.cpp **** {
  10:src/kernel/buddyAllocator.cpp ****     //KConsole::trapPrintString("Buddy initialization\n");
  11:src/kernel/buddyAllocator.cpp ****     size_t blockAddr = getBlockAddr((size_t)addr); //alling the address
  12:src/kernel/buddyAllocator.cpp ****     size_t buddyAddr = (size_t)addr;
  13:src/kernel/buddyAllocator.cpp ****     //KConsole::trapPrintInt(blockAddr,16); KConsole::trapPrintString("\n");
  14:src/kernel/buddyAllocator.cpp ****     //KConsole::trapPrintInt(buddyAddr,16); KConsole::trapPrintString("\n");
  15:src/kernel/buddyAllocator.cpp ****     if((size_t)addr != blockAddr) // if start address not aligned
  16:src/kernel/buddyAllocator.cpp ****     {
  17:src/kernel/buddyAllocator.cpp ****         buddyAddr = getNextBlockAddr(blockAddr);
  18:src/kernel/buddyAllocator.cpp ****         numOfBlocks--; //have to discard one block
  19:src/kernel/buddyAllocator.cpp ****     }
  20:src/kernel/buddyAllocator.cpp ****     //KConsole::trapPrintStringInt("Buddy metadata address: ", buddyAddr,16);
  21:src/kernel/buddyAllocator.cpp ****     numOfBlocks--; // take one block for buddy metadata
  22:src/kernel/buddyAllocator.cpp ****     buddy = (buddyAllocator*)buddyAddr;
  23:src/kernel/buddyAllocator.cpp ****     buddy->startAddr = (void*)getNextBlockAddr(buddyAddr);
  24:src/kernel/buddyAllocator.cpp ****     buddy->numOfBlocks = numOfBlocks;
  25:src/kernel/buddyAllocator.cpp ****     buddy->numOfFreeBlocks = numOfBlocks;
  26:src/kernel/buddyAllocator.cpp ****     buddy->maxLevel = getDeg2Floor(numOfBlocks);
  27:src/kernel/buddyAllocator.cpp **** 
  28:src/kernel/buddyAllocator.cpp ****     for(size_t i = 0; i <= buddy->maxLevel;i++)
  29:src/kernel/buddyAllocator.cpp ****         buddy->bucket[i].first = buddy->bucket[i].last = nullptr;
  30:src/kernel/buddyAllocator.cpp **** 
  31:src/kernel/buddyAllocator.cpp ****     //TODO
  32:src/kernel/buddyAllocator.cpp ****     //maybe do it differently, like putting in chunks of power of 2
  33:src/kernel/buddyAllocator.cpp ****     for(size_t i = 0;i < numOfBlocks;i++)
  34:src/kernel/buddyAllocator.cpp ****         addBlocks((block*)buddy->startAddr + i, 0);
  35:src/kernel/buddyAllocator.cpp **** 
  36:src/kernel/buddyAllocator.cpp ****     return buddy;
  37:src/kernel/buddyAllocator.cpp **** }
  38:src/kernel/buddyAllocator.cpp **** 
  39:src/kernel/buddyAllocator.cpp **** void* buddy_alloc(size_t numOfBlocks)
  40:src/kernel/buddyAllocator.cpp **** {
  41:src/kernel/buddyAllocator.cpp ****     //KConsole::trapPrintStringInt("Buddy allocation: ", numOfBlocks);
  42:src/kernel/buddyAllocator.cpp ****     size_t level = getDeg2Ceil(numOfBlocks);
  43:src/kernel/buddyAllocator.cpp ****     //KConsole::trapPrintStringInt("Level: ", level);
  44:src/kernel/buddyAllocator.cpp ****     for(size_t i = level; i <= buddy->maxLevel;i++)
  45:src/kernel/buddyAllocator.cpp ****     {
  46:src/kernel/buddyAllocator.cpp ****         if(buddy->bucket[i].first != nullptr)
  47:src/kernel/buddyAllocator.cpp ****         {
GAS LISTING /tmp/ccAfwIJb.s 			page 2


  48:src/kernel/buddyAllocator.cpp ****             buddyBlock* ret = buddy->bucket[i].first;
  49:src/kernel/buddyAllocator.cpp ****             //KConsole::trapPrintStringInt("Found the block:", (size_t)ret,16);
  50:src/kernel/buddyAllocator.cpp ****             buddy->bucket[i].first = ret->next;
  51:src/kernel/buddyAllocator.cpp ****             if(buddy->bucket[i].first == nullptr)
  52:src/kernel/buddyAllocator.cpp ****                 buddy->bucket[i].last = nullptr;
  53:src/kernel/buddyAllocator.cpp ****             split((void*)ret, level, i, true);
  54:src/kernel/buddyAllocator.cpp ****             buddy->numOfFreeBlocks-= (1 << level);
  55:src/kernel/buddyAllocator.cpp ****             return ret;
  56:src/kernel/buddyAllocator.cpp ****         }
  57:src/kernel/buddyAllocator.cpp ****     }
  58:src/kernel/buddyAllocator.cpp **** 
  59:src/kernel/buddyAllocator.cpp ****     return nullptr;
  60:src/kernel/buddyAllocator.cpp **** }
  61:src/kernel/buddyAllocator.cpp **** 
  62:src/kernel/buddyAllocator.cpp **** //split chunks into smaller chunks, until it is necessary
  63:src/kernel/buddyAllocator.cpp **** void split(void* addr, size_t finalLevel, size_t currLevel, bool splitMore)
  64:src/kernel/buddyAllocator.cpp **** {
  65:src/kernel/buddyAllocator.cpp ****     if(!splitMore)
  66:src/kernel/buddyAllocator.cpp ****     {
  67:src/kernel/buddyAllocator.cpp ****         addBlockToLevel(addr, currLevel);
  68:src/kernel/buddyAllocator.cpp ****     }
  69:src/kernel/buddyAllocator.cpp ****     else
  70:src/kernel/buddyAllocator.cpp ****     {
  71:src/kernel/buddyAllocator.cpp ****         if(currLevel == finalLevel)
  72:src/kernel/buddyAllocator.cpp ****             return;
  73:src/kernel/buddyAllocator.cpp ****         size_t buddyBlock = getBuddyBlockAddr(addr, currLevel - 1); // currLevel - 1 for next step
  74:src/kernel/buddyAllocator.cpp ****         split((void*)buddyBlock, finalLevel, currLevel - 1, false); // continue splitting
  75:src/kernel/buddyAllocator.cpp ****         split(addr, finalLevel, currLevel - 1, true); // continue splitting
  76:src/kernel/buddyAllocator.cpp ****     }
  77:src/kernel/buddyAllocator.cpp **** }
  78:src/kernel/buddyAllocator.cpp **** 
  79:src/kernel/buddyAllocator.cpp **** //TODO
  80:src/kernel/buddyAllocator.cpp **** //maybe check if address is aligned to start of block
  81:src/kernel/buddyAllocator.cpp **** void buddy_free(void* addr, size_t numOfBlocks)
  82:src/kernel/buddyAllocator.cpp **** {
  83:src/kernel/buddyAllocator.cpp ****     size_t level = getDeg2Ceil(numOfBlocks);
  84:src/kernel/buddyAllocator.cpp ****     addBlocks(addr, level); //adds free blocks
  85:src/kernel/buddyAllocator.cpp ****     buddy->numOfFreeBlocks += (1 << level);
  86:src/kernel/buddyAllocator.cpp **** }
  87:src/kernel/buddyAllocator.cpp **** 
  88:src/kernel/buddyAllocator.cpp **** size_t getBlockAddr(size_t addr)
  89:src/kernel/buddyAllocator.cpp **** {
  12              		.loc 1 89 1
  13              		.cfi_startproc
  14              	.LVL0:
  15 0000 130101FF 		addi	sp,sp,-16
  16              		.cfi_def_cfa_offset 16
  17 0004 23348100 		sd	s0,8(sp)
  18              		.cfi_offset 8, -8
  19 0008 13040101 		addi	s0,sp,16
  20              		.cfi_def_cfa 8, 0
  90:src/kernel/buddyAllocator.cpp ****     size_t mask = ((size_t)-1) << BLOCK_SIZE_POWER_2;
  21              		.loc 1 90 5
  22              	.LVL1:
  91:src/kernel/buddyAllocator.cpp ****     return addr & mask;
  23              		.loc 1 91 5
  92:src/kernel/buddyAllocator.cpp **** }
GAS LISTING /tmp/ccAfwIJb.s 			page 3


  24              		.loc 1 92 1 is_stmt 0
  25 000c B7F7FFFF 		li	a5,-4096
  26 0010 3375F500 		and	a0,a0,a5
  27              	.LVL2:
  28 0014 03348100 		ld	s0,8(sp)
  29              		.cfi_restore 8
  30              		.cfi_def_cfa 2, 16
  31 0018 13010101 		addi	sp,sp,16
  32              		.cfi_def_cfa_offset 0
  33 001c 67800000 		jr	ra
  34              		.cfi_endproc
  35              	.LFE9:
  37              		.align	2
  38              		.globl	_Z16getNextBlockAddrm
  40              	_Z16getNextBlockAddrm:
  41              	.LFB10:
  93:src/kernel/buddyAllocator.cpp **** size_t getNextBlockAddr(size_t addr)
  94:src/kernel/buddyAllocator.cpp **** {
  42              		.loc 1 94 1 is_stmt 1
  43              		.cfi_startproc
  44              	.LVL3:
  45 0020 130101FF 		addi	sp,sp,-16
  46              		.cfi_def_cfa_offset 16
  47 0024 23341100 		sd	ra,8(sp)
  48 0028 23308100 		sd	s0,0(sp)
  49              		.cfi_offset 1, -8
  50              		.cfi_offset 8, -16
  51 002c 13040101 		addi	s0,sp,16
  52              		.cfi_def_cfa 8, 0
  95:src/kernel/buddyAllocator.cpp ****     size_t currBlock = getBlockAddr(addr);
  53              		.loc 1 95 5
  54              		.loc 1 95 36 is_stmt 0
  55 0030 97000000 		call	_Z12getBlockAddrm
  55      E7800000 
  56              	.LVL4:
  96:src/kernel/buddyAllocator.cpp ****     return currBlock + BLOCK_SIZE;
  57              		.loc 1 96 5 is_stmt 1
  97:src/kernel/buddyAllocator.cpp **** }
  58              		.loc 1 97 1 is_stmt 0
  59 0038 B7170000 		li	a5,4096
  60 003c 3305F500 		add	a0,a0,a5
  61              	.LVL5:
  62 0040 83308100 		ld	ra,8(sp)
  63              		.cfi_restore 1
  64 0044 03340100 		ld	s0,0(sp)
  65              		.cfi_restore 8
  66              		.cfi_def_cfa 2, 16
  67 0048 13010101 		addi	sp,sp,16
  68              		.cfi_def_cfa_offset 0
  69 004c 67800000 		jr	ra
  70              		.cfi_endproc
  71              	.LFE10:
  73              		.align	2
  74              		.globl	_Z12getDeg2Floorm
  76              	_Z12getDeg2Floorm:
  77              	.LFB11:
  98:src/kernel/buddyAllocator.cpp **** 
GAS LISTING /tmp/ccAfwIJb.s 			page 4


  99:src/kernel/buddyAllocator.cpp **** size_t getDeg2Floor(size_t num)
 100:src/kernel/buddyAllocator.cpp **** {
  78              		.loc 1 100 1 is_stmt 1
  79              		.cfi_startproc
  80              	.LVL6:
  81 0050 130101FF 		addi	sp,sp,-16
  82              		.cfi_def_cfa_offset 16
  83 0054 23348100 		sd	s0,8(sp)
  84              		.cfi_offset 8, -8
  85 0058 13040101 		addi	s0,sp,16
  86              		.cfi_def_cfa 8, 0
 101:src/kernel/buddyAllocator.cpp ****     size_t x = 1;
  87              		.loc 1 101 5
  88              	.LVL7:
 102:src/kernel/buddyAllocator.cpp ****     size_t deg = 0;
  89              		.loc 1 102 5
  90              		.loc 1 102 12 is_stmt 0
  91 005c 13070000 		li	a4,0
 101:src/kernel/buddyAllocator.cpp ****     size_t x = 1;
  92              		.loc 1 101 12
  93 0060 93071000 		li	a5,1
  94              	.LVL8:
  95              	.L7:
 103:src/kernel/buddyAllocator.cpp ****     while(x <= num)
  96              		.loc 1 103 5 is_stmt 1
  97              		.loc 1 103 13
  98 0064 6368F500 		bgtu	a5,a0,.L6
 104:src/kernel/buddyAllocator.cpp ****     {
 105:src/kernel/buddyAllocator.cpp ****         deg++;
  99              		.loc 1 105 9
 100              		.loc 1 105 12 is_stmt 0
 101 0068 13071700 		addi	a4,a4,1
 102              	.LVL9:
 106:src/kernel/buddyAllocator.cpp ****         x<<=1;
 103              		.loc 1 106 9 is_stmt 1
 104              		.loc 1 106 10 is_stmt 0
 105 006c 93971700 		slli	a5,a5,1
 106              	.LVL10:
 103:src/kernel/buddyAllocator.cpp ****     while(x <= num)
 107              		.loc 1 103 5
 108 0070 6FF05FFF 		j	.L7
 109              	.L6:
 107:src/kernel/buddyAllocator.cpp ****     }
 108:src/kernel/buddyAllocator.cpp ****     return deg - 1;
 110              		.loc 1 108 5 is_stmt 1
 109:src/kernel/buddyAllocator.cpp **** }
 111              		.loc 1 109 1 is_stmt 0
 112 0074 1305F7FF 		addi	a0,a4,-1
 113              	.LVL11:
 114 0078 03348100 		ld	s0,8(sp)
 115              		.cfi_restore 8
 116              		.cfi_def_cfa 2, 16
 117 007c 13010101 		addi	sp,sp,16
 118              		.cfi_def_cfa_offset 0
 119 0080 67800000 		jr	ra
 120              		.cfi_endproc
 121              	.LFE11:
GAS LISTING /tmp/ccAfwIJb.s 			page 5


 123              		.align	2
 124              		.globl	_Z11getDeg2Ceilm
 126              	_Z11getDeg2Ceilm:
 127              	.LFB12:
 110:src/kernel/buddyAllocator.cpp **** 
 111:src/kernel/buddyAllocator.cpp **** size_t getDeg2Ceil(size_t num)
 112:src/kernel/buddyAllocator.cpp **** {
 128              		.loc 1 112 1 is_stmt 1
 129              		.cfi_startproc
 130              	.LVL12:
 131 0084 130101FF 		addi	sp,sp,-16
 132              		.cfi_def_cfa_offset 16
 133 0088 23348100 		sd	s0,8(sp)
 134              		.cfi_offset 8, -8
 135 008c 13040101 		addi	s0,sp,16
 136              		.cfi_def_cfa 8, 0
 137 0090 13070500 		mv	a4,a0
 113:src/kernel/buddyAllocator.cpp ****     size_t x = 1;
 138              		.loc 1 113 5
 139              	.LVL13:
 114:src/kernel/buddyAllocator.cpp ****     size_t deg = 0;
 140              		.loc 1 114 5
 141              		.loc 1 114 12 is_stmt 0
 142 0094 13050000 		li	a0,0
 143              	.LVL14:
 113:src/kernel/buddyAllocator.cpp ****     size_t x = 1;
 144              		.loc 1 113 12
 145 0098 93071000 		li	a5,1
 146              	.LVL15:
 147              	.L11:
 115:src/kernel/buddyAllocator.cpp ****     while(x < num)
 148              		.loc 1 115 5 is_stmt 1
 149              		.loc 1 115 13
 150 009c 63F8E700 		bgeu	a5,a4,.L9
 116:src/kernel/buddyAllocator.cpp ****     {
 117:src/kernel/buddyAllocator.cpp ****         deg++;
 151              		.loc 1 117 9
 152              		.loc 1 117 12 is_stmt 0
 153 00a0 13051500 		addi	a0,a0,1
 154              	.LVL16:
 118:src/kernel/buddyAllocator.cpp ****         x<<=1;
 155              		.loc 1 118 9 is_stmt 1
 156              		.loc 1 118 10 is_stmt 0
 157 00a4 93971700 		slli	a5,a5,1
 158              	.LVL17:
 115:src/kernel/buddyAllocator.cpp ****     while(x < num)
 159              		.loc 1 115 5
 160 00a8 6FF05FFF 		j	.L11
 161              	.L9:
 119:src/kernel/buddyAllocator.cpp ****     }
 120:src/kernel/buddyAllocator.cpp ****     return deg;
 121:src/kernel/buddyAllocator.cpp **** }
 162              		.loc 1 121 1
 163 00ac 03348100 		ld	s0,8(sp)
 164              		.cfi_restore 8
 165              		.cfi_def_cfa 2, 16
 166 00b0 13010101 		addi	sp,sp,16
GAS LISTING /tmp/ccAfwIJb.s 			page 6


 167              		.cfi_def_cfa_offset 0
 168 00b4 67800000 		jr	ra
 169              		.cfi_endproc
 170              	.LFE12:
 172              		.align	2
 173              		.globl	_Z15addBlockToLevelPvm
 175              	_Z15addBlockToLevelPvm:
 176              	.LFB14:
 122:src/kernel/buddyAllocator.cpp **** 
 123:src/kernel/buddyAllocator.cpp **** //function to add free blocks to the buddy
 124:src/kernel/buddyAllocator.cpp **** void addBlocks(void* addr, size_t level)
 125:src/kernel/buddyAllocator.cpp **** {
 126:src/kernel/buddyAllocator.cpp ****     if(level == buddy->maxLevel)
 127:src/kernel/buddyAllocator.cpp ****     {
 128:src/kernel/buddyAllocator.cpp ****         addBlockToLevel(addr, level);
 129:src/kernel/buddyAllocator.cpp ****         return;
 130:src/kernel/buddyAllocator.cpp ****     }
 131:src/kernel/buddyAllocator.cpp ****     size_t buddyBlockAddr = getBuddyBlockAddr(addr,level);
 132:src/kernel/buddyAllocator.cpp ****     //KConsole::trapPrintString("Buddy block addr ");
 133:src/kernel/buddyAllocator.cpp ****     //KConsole::trapPrintInt(buddyBlockAddr, 16); KConsole::trapPrintString("\n");
 134:src/kernel/buddyAllocator.cpp ****     buddyBlock* curr = buddy->bucket[level].first;
 135:src/kernel/buddyAllocator.cpp ****     buddyBlock* prev = nullptr;
 136:src/kernel/buddyAllocator.cpp ****     while(curr != nullptr)
 137:src/kernel/buddyAllocator.cpp ****     {
 138:src/kernel/buddyAllocator.cpp ****         if((size_t)curr == buddyBlockAddr)
 139:src/kernel/buddyAllocator.cpp ****         {
 140:src/kernel/buddyAllocator.cpp ****             if(prev != nullptr)
 141:src/kernel/buddyAllocator.cpp ****             {
 142:src/kernel/buddyAllocator.cpp ****                 prev->next = curr->next;
 143:src/kernel/buddyAllocator.cpp ****                 if(curr == buddy->bucket[level].last)
 144:src/kernel/buddyAllocator.cpp ****                     buddy->bucket[level].last = prev;
 145:src/kernel/buddyAllocator.cpp ****             }
 146:src/kernel/buddyAllocator.cpp ****             else
 147:src/kernel/buddyAllocator.cpp ****             {
 148:src/kernel/buddyAllocator.cpp ****                 if(curr->next == nullptr)
 149:src/kernel/buddyAllocator.cpp ****                     buddy->bucket[level].first = buddy->bucket[level].last = nullptr;
 150:src/kernel/buddyAllocator.cpp ****                 else
 151:src/kernel/buddyAllocator.cpp ****                     buddy->bucket[level].first = curr->next;
 152:src/kernel/buddyAllocator.cpp ****             }
 153:src/kernel/buddyAllocator.cpp ****             if((size_t)addr < buddyBlockAddr) addBlocks(addr, level + 1); //merge two chunks
 154:src/kernel/buddyAllocator.cpp ****             else addBlocks((void*)buddyBlockAddr, level + 1); //merge two chunks
 155:src/kernel/buddyAllocator.cpp ****             return;
 156:src/kernel/buddyAllocator.cpp ****         }
 157:src/kernel/buddyAllocator.cpp **** 
 158:src/kernel/buddyAllocator.cpp ****         prev = curr;
 159:src/kernel/buddyAllocator.cpp ****         curr = curr->next;
 160:src/kernel/buddyAllocator.cpp ****     }
 161:src/kernel/buddyAllocator.cpp **** 
 162:src/kernel/buddyAllocator.cpp ****     addBlockToLevel(addr, level);
 163:src/kernel/buddyAllocator.cpp **** }
 164:src/kernel/buddyAllocator.cpp **** 
 165:src/kernel/buddyAllocator.cpp **** //adds free block to level
 166:src/kernel/buddyAllocator.cpp **** void addBlockToLevel(void* addr, size_t level)
 167:src/kernel/buddyAllocator.cpp **** {
 177              		.loc 1 167 1 is_stmt 1
 178              		.cfi_startproc
 179              	.LVL18:
GAS LISTING /tmp/ccAfwIJb.s 			page 7


 180 00b8 130101FF 		addi	sp,sp,-16
 181              		.cfi_def_cfa_offset 16
 182 00bc 23348100 		sd	s0,8(sp)
 183              		.cfi_offset 8, -8
 184 00c0 13040101 		addi	s0,sp,16
 185              		.cfi_def_cfa 8, 0
 168:src/kernel/buddyAllocator.cpp ****     buddyBlock* newBlock = (buddyBlock*)addr;
 186              		.loc 1 168 5
 187              	.LVL19:
 169:src/kernel/buddyAllocator.cpp ****     newBlock->next = nullptr;
 188              		.loc 1 169 5
 189              		.loc 1 169 20 is_stmt 0
 190 00c4 23300500 		sd	zero,0(a0)
 170:src/kernel/buddyAllocator.cpp ****     if(buddy->bucket[level].first == nullptr)
 191              		.loc 1 170 5 is_stmt 1
 192              		.loc 1 170 29 is_stmt 0
 193 00c8 17070000 		ld	a4,.LANCHOR0
 193      03370700 
 194 00d0 93872500 		addi	a5,a1,2
 195 00d4 93974700 		slli	a5,a5,4
 196 00d8 B307F700 		add	a5,a4,a5
 197 00dc 83B70700 		ld	a5,0(a5)
 198              		.loc 1 170 5
 199 00e0 63840702 		beqz	a5,.L17
 171:src/kernel/buddyAllocator.cpp ****     {
 172:src/kernel/buddyAllocator.cpp ****         buddy->bucket[level].first = buddy->bucket[level].last = newBlock;
 173:src/kernel/buddyAllocator.cpp ****     }
 174:src/kernel/buddyAllocator.cpp ****     else
 175:src/kernel/buddyAllocator.cpp ****     {
 176:src/kernel/buddyAllocator.cpp ****         buddy->bucket[level].last->next = newBlock;
 200              		.loc 1 176 9 is_stmt 1
 201              		.loc 1 176 30 is_stmt 0
 202 00e4 93852500 		addi	a1,a1,2
 203              	.LVL20:
 204 00e8 93954500 		slli	a1,a1,4
 205              	.LVL21:
 206 00ec B305B700 		add	a1,a4,a1
 207 00f0 83B78500 		ld	a5,8(a1)
 208              		.loc 1 176 41
 209 00f4 23B0A700 		sd	a0,0(a5)
 177:src/kernel/buddyAllocator.cpp ****         buddy->bucket[level].last = newBlock;
 210              		.loc 1 177 9 is_stmt 1
 211              		.loc 1 177 35 is_stmt 0
 212 00f8 23B4A500 		sd	a0,8(a1)
 213              	.L13:
 178:src/kernel/buddyAllocator.cpp ****     }
 179:src/kernel/buddyAllocator.cpp **** }
 214              		.loc 1 179 1
 215 00fc 03348100 		ld	s0,8(sp)
 216              		.cfi_remember_state
 217              		.cfi_restore 8
 218              		.cfi_def_cfa 2, 16
 219 0100 13010101 		addi	sp,sp,16
 220              		.cfi_def_cfa_offset 0
 221 0104 67800000 		jr	ra
 222              	.LVL22:
 223              	.L17:
GAS LISTING /tmp/ccAfwIJb.s 			page 8


 224              		.cfi_restore_state
 172:src/kernel/buddyAllocator.cpp ****     }
 225              		.loc 1 172 9 is_stmt 1
 172:src/kernel/buddyAllocator.cpp ****     }
 226              		.loc 1 172 64 is_stmt 0
 227 0108 93852500 		addi	a1,a1,2
 228              	.LVL23:
 229 010c 93974500 		slli	a5,a1,4
 230 0110 B307F700 		add	a5,a4,a5
 231 0114 23B4A700 		sd	a0,8(a5)
 172:src/kernel/buddyAllocator.cpp ****     }
 232              		.loc 1 172 36
 233 0118 23B0A700 		sd	a0,0(a5)
 234 011c 6FF01FFE 		j	.L13
 235              		.cfi_endproc
 236              	.LFE14:
 238              		.align	2
 239              		.globl	_Z17getBuddyBlockAddrPvm
 241              	_Z17getBuddyBlockAddrPvm:
 242              	.LFB15:
 180:src/kernel/buddyAllocator.cpp **** 
 181:src/kernel/buddyAllocator.cpp **** size_t getBuddyBlockAddr(void* addr, size_t level)
 182:src/kernel/buddyAllocator.cpp **** {
 243              		.loc 1 182 1 is_stmt 1
 244              		.cfi_startproc
 245              	.LVL24:
 246 0120 130101FF 		addi	sp,sp,-16
 247              		.cfi_def_cfa_offset 16
 248 0124 23348100 		sd	s0,8(sp)
 249              		.cfi_offset 8, -8
 250 0128 13040101 		addi	s0,sp,16
 251              		.cfi_def_cfa 8, 0
 183:src/kernel/buddyAllocator.cpp ****     size_t diff = BLOCK_SIZE << level;
 252              		.loc 1 183 5
 253              		.loc 1 183 30 is_stmt 0
 254 012c B7170000 		li	a5,4096
 255 0130 BB95B700 		sllw	a1,a5,a1
 256              	.LVL25:
 184:src/kernel/buddyAllocator.cpp ****     size_t off = (size_t)addr - (size_t)buddy->startAddr;
 257              		.loc 1 184 5 is_stmt 1
 258              		.loc 1 184 48 is_stmt 0
 259 0134 97070000 		ld	a5,.LANCHOR0
 259      83B70700 
 260 013c 83B78700 		ld	a5,8(a5)
 261              		.loc 1 184 12
 262 0140 B307F540 		sub	a5,a0,a5
 263              	.LVL26:
 185:src/kernel/buddyAllocator.cpp ****     if(diff & off)
 264              		.loc 1 185 5 is_stmt 1
 265              		.loc 1 185 13 is_stmt 0
 266 0144 B3F7F500 		and	a5,a1,a5
 267              	.LVL27:
 268              		.loc 1 185 5
 269 0148 638A0700 		beqz	a5,.L19
 186:src/kernel/buddyAllocator.cpp ****         return (size_t)addr - diff;
 270              		.loc 1 186 9 is_stmt 1
 271              		.loc 1 186 31 is_stmt 0
GAS LISTING /tmp/ccAfwIJb.s 			page 9


 272 014c 3305B540 		sub	a0,a0,a1
 273              	.LVL28:
 274              	.L18:
 187:src/kernel/buddyAllocator.cpp ****     else
 188:src/kernel/buddyAllocator.cpp ****         return (size_t)addr + diff;
 189:src/kernel/buddyAllocator.cpp **** }
 275              		.loc 1 189 1
 276 0150 03348100 		ld	s0,8(sp)
 277              		.cfi_remember_state
 278              		.cfi_restore 8
 279              		.cfi_def_cfa 2, 16
 280 0154 13010101 		addi	sp,sp,16
 281              		.cfi_def_cfa_offset 0
 282 0158 67800000 		jr	ra
 283              	.LVL29:
 284              	.L19:
 285              		.cfi_restore_state
 188:src/kernel/buddyAllocator.cpp **** }
 286              		.loc 1 188 9 is_stmt 1
 188:src/kernel/buddyAllocator.cpp **** }
 287              		.loc 1 188 31 is_stmt 0
 288 015c 3305B500 		add	a0,a0,a1
 289              	.LVL30:
 290 0160 6FF01FFF 		j	.L18
 291              		.cfi_endproc
 292              	.LFE15:
 294              		.align	2
 295              		.globl	_Z5splitPvmmb
 297              	_Z5splitPvmmb:
 298              	.LFB7:
  64:src/kernel/buddyAllocator.cpp ****     if(!splitMore)
 299              		.loc 1 64 1 is_stmt 1
 300              		.cfi_startproc
 301              	.LVL31:
 302 0164 130101FD 		addi	sp,sp,-48
 303              		.cfi_def_cfa_offset 48
 304 0168 23341102 		sd	ra,40(sp)
 305 016c 23308102 		sd	s0,32(sp)
 306 0170 233C9100 		sd	s1,24(sp)
 307 0174 23382101 		sd	s2,16(sp)
 308 0178 23343101 		sd	s3,8(sp)
 309              		.cfi_offset 1, -8
 310              		.cfi_offset 8, -16
 311              		.cfi_offset 9, -24
 312              		.cfi_offset 18, -32
 313              		.cfi_offset 19, -40
 314 017c 13040103 		addi	s0,sp,48
 315              		.cfi_def_cfa 8, 0
 316 0180 93090500 		mv	s3,a0
  65:src/kernel/buddyAllocator.cpp ****     {
 317              		.loc 1 65 5
 318              	.LBB2:
 319 0184 63820606 		beqz	a3,.L26
 320 0188 13890500 		mv	s2,a1
 321              	.LBB3:
  71:src/kernel/buddyAllocator.cpp ****             return;
 322              		.loc 1 71 9
GAS LISTING /tmp/ccAfwIJb.s 			page 10


 323 018c 6300B604 		beq	a2,a1,.L22
  73:src/kernel/buddyAllocator.cpp ****         split((void*)buddyBlock, finalLevel, currLevel - 1, false); // continue splitting
 324              		.loc 1 73 9
  73:src/kernel/buddyAllocator.cpp ****         split((void*)buddyBlock, finalLevel, currLevel - 1, false); // continue splitting
 325              		.loc 1 73 46 is_stmt 0
 326 0190 9304F6FF 		addi	s1,a2,-1
 327 0194 93850400 		mv	a1,s1
 328              	.LVL32:
 329 0198 97000000 		call	_Z17getBuddyBlockAddrPvm
 329      E7800000 
 330              	.LVL33:
  74:src/kernel/buddyAllocator.cpp ****         split(addr, finalLevel, currLevel - 1, true); // continue splitting
 331              		.loc 1 74 9 is_stmt 1
  74:src/kernel/buddyAllocator.cpp ****         split(addr, finalLevel, currLevel - 1, true); // continue splitting
 332              		.loc 1 74 14 is_stmt 0
 333 01a0 93060000 		li	a3,0
 334 01a4 13860400 		mv	a2,s1
 335 01a8 93050900 		mv	a1,s2
 336 01ac 97000000 		call	_Z5splitPvmmb
 336      E7800000 
 337              	.LVL34:
  75:src/kernel/buddyAllocator.cpp ****     }
 338              		.loc 1 75 9 is_stmt 1
  75:src/kernel/buddyAllocator.cpp ****     }
 339              		.loc 1 75 14 is_stmt 0
 340 01b4 93061000 		li	a3,1
 341 01b8 13860400 		mv	a2,s1
 342 01bc 93050900 		mv	a1,s2
 343 01c0 13850900 		mv	a0,s3
 344 01c4 97000000 		call	_Z5splitPvmmb
 344      E7800000 
 345              	.LVL35:
 346              	.L22:
 347              	.LBE3:
 348              	.LBE2:
  77:src/kernel/buddyAllocator.cpp **** 
 349              		.loc 1 77 1
 350 01cc 83308102 		ld	ra,40(sp)
 351              		.cfi_remember_state
 352              		.cfi_restore 1
 353 01d0 03340102 		ld	s0,32(sp)
 354              		.cfi_restore 8
 355              		.cfi_def_cfa 2, 48
 356 01d4 83348101 		ld	s1,24(sp)
 357              		.cfi_restore 9
 358 01d8 03390101 		ld	s2,16(sp)
 359              		.cfi_restore 18
 360 01dc 83398100 		ld	s3,8(sp)
 361              		.cfi_restore 19
 362              	.LVL36:
 363 01e0 13010103 		addi	sp,sp,48
 364              		.cfi_def_cfa_offset 0
 365 01e4 67800000 		jr	ra
 366              	.LVL37:
 367              	.L26:
 368              		.cfi_restore_state
 369              	.LBB4:
GAS LISTING /tmp/ccAfwIJb.s 			page 11


  67:src/kernel/buddyAllocator.cpp ****     }
 370              		.loc 1 67 9 is_stmt 1
  67:src/kernel/buddyAllocator.cpp ****     }
 371              		.loc 1 67 24 is_stmt 0
 372 01e8 93050600 		mv	a1,a2
 373              	.LVL38:
 374 01ec 97000000 		call	_Z15addBlockToLevelPvm
 374      E7800000 
 375              	.LVL39:
 376 01f4 6FF09FFD 		j	.L22
 377              	.LBE4:
 378              		.cfi_endproc
 379              	.LFE7:
 381              		.align	2
 382              		.globl	_Z11buddy_allocm
 384              	_Z11buddy_allocm:
 385              	.LFB6:
  40:src/kernel/buddyAllocator.cpp ****     //KConsole::trapPrintStringInt("Buddy allocation: ", numOfBlocks);
 386              		.loc 1 40 1 is_stmt 1
 387              		.cfi_startproc
 388              	.LVL40:
 389 01f8 130101FE 		addi	sp,sp,-32
 390              		.cfi_def_cfa_offset 32
 391 01fc 233C1100 		sd	ra,24(sp)
 392 0200 23388100 		sd	s0,16(sp)
 393 0204 23349100 		sd	s1,8(sp)
 394 0208 23302101 		sd	s2,0(sp)
 395              		.cfi_offset 1, -8
 396              		.cfi_offset 8, -16
 397              		.cfi_offset 9, -24
 398              		.cfi_offset 18, -32
 399 020c 13040102 		addi	s0,sp,32
 400              		.cfi_def_cfa 8, 0
  42:src/kernel/buddyAllocator.cpp ****     //KConsole::trapPrintStringInt("Level: ", level);
 401              		.loc 1 42 5
  42:src/kernel/buddyAllocator.cpp ****     //KConsole::trapPrintStringInt("Level: ", level);
 402              		.loc 1 42 31 is_stmt 0
 403 0210 97000000 		call	_Z11getDeg2Ceilm
 403      E7800000 
 404              	.LVL41:
 405 0218 13090500 		mv	s2,a0
 406              	.LVL42:
  44:src/kernel/buddyAllocator.cpp ****     {
 407              		.loc 1 44 5 is_stmt 1
 408              	.LBB5:
  44:src/kernel/buddyAllocator.cpp ****     {
 409              		.loc 1 44 16 is_stmt 0
 410 021c 13060500 		mv	a2,a0
 411              	.LVL43:
 412              	.L31:
  44:src/kernel/buddyAllocator.cpp ****     {
 413              		.loc 1 44 29 is_stmt 1 discriminator 1
  44:src/kernel/buddyAllocator.cpp ****     {
 414              		.loc 1 44 39 is_stmt 0 discriminator 1
 415 0220 17070000 		ld	a4,.LANCHOR0
 415      03370700 
 416 0228 83378701 		ld	a5,24(a4)
GAS LISTING /tmp/ccAfwIJb.s 			page 12


  44:src/kernel/buddyAllocator.cpp ****     {
 417              		.loc 1 44 29 discriminator 1
 418 022c 63E0C708 		bltu	a5,a2,.L32
 419              	.LBE5:
  46:src/kernel/buddyAllocator.cpp ****         {
 420              		.loc 1 46 9 is_stmt 1
 421              	.LBB9:
 422              	.LBB6:
  46:src/kernel/buddyAllocator.cpp ****         {
 423              		.loc 1 46 29 is_stmt 0
 424 0230 93072600 		addi	a5,a2,2
 425 0234 93974700 		slli	a5,a5,4
 426 0238 B307F700 		add	a5,a4,a5
 427 023c 83B40700 		ld	s1,0(a5)
  46:src/kernel/buddyAllocator.cpp ****         {
 428              		.loc 1 46 9
 429 0240 63960400 		bnez	s1,.L34
 430              	.LBE6:
  44:src/kernel/buddyAllocator.cpp ****     {
 431              		.loc 1 44 5 is_stmt 1 discriminator 2
 432 0244 13061600 		addi	a2,a2,1
 433              	.LVL44:
 434 0248 6FF09FFD 		j	.L31
 435              	.L34:
 436              	.LBB8:
 437              	.LBB7:
  48:src/kernel/buddyAllocator.cpp ****             //KConsole::trapPrintStringInt("Found the block:", (size_t)ret,16);
 438              		.loc 1 48 13
 439              	.LVL45:
  50:src/kernel/buddyAllocator.cpp ****             if(buddy->bucket[i].first == nullptr)
 440              		.loc 1 50 13
  50:src/kernel/buddyAllocator.cpp ****             if(buddy->bucket[i].first == nullptr)
 441              		.loc 1 50 43 is_stmt 0
 442 024c 83B60400 		ld	a3,0(s1)
  50:src/kernel/buddyAllocator.cpp ****             if(buddy->bucket[i].first == nullptr)
 443              		.loc 1 50 36
 444 0250 93072600 		addi	a5,a2,2
 445 0254 93974700 		slli	a5,a5,4
 446 0258 B307F700 		add	a5,a4,a5
 447 025c 23B0D700 		sd	a3,0(a5)
  51:src/kernel/buddyAllocator.cpp ****                 buddy->bucket[i].last = nullptr;
 448              		.loc 1 51 13 is_stmt 1
 449 0260 638C0602 		beqz	a3,.L35
 450              	.L30:
  53:src/kernel/buddyAllocator.cpp ****             buddy->numOfFreeBlocks-= (1 << level);
 451              		.loc 1 53 13
  53:src/kernel/buddyAllocator.cpp ****             buddy->numOfFreeBlocks-= (1 << level);
 452              		.loc 1 53 18 is_stmt 0
 453 0264 93061000 		li	a3,1
 454 0268 93050900 		mv	a1,s2
 455 026c 13850400 		mv	a0,s1
 456              	.LVL46:
 457 0270 97000000 		call	_Z5splitPvmmb
 457      E7800000 
 458              	.LVL47:
  54:src/kernel/buddyAllocator.cpp ****             return ret;
 459              		.loc 1 54 13 is_stmt 1
GAS LISTING /tmp/ccAfwIJb.s 			page 13


  54:src/kernel/buddyAllocator.cpp ****             return ret;
 460              		.loc 1 54 35 is_stmt 0
 461 0278 97070000 		ld	a5,.LANCHOR0
 461      83B70700 
  54:src/kernel/buddyAllocator.cpp ****             return ret;
 462              		.loc 1 54 41
 463 0280 13051000 		li	a0,1
 464 0284 3B152501 		sllw	a0,a0,s2
  54:src/kernel/buddyAllocator.cpp ****             return ret;
 465              		.loc 1 54 35
 466 0288 03B90701 		ld	s2,16(a5)
 467              	.LVL48:
 468 028c 3309A940 		sub	s2,s2,a0
 469 0290 23B82701 		sd	s2,16(a5)
  55:src/kernel/buddyAllocator.cpp ****         }
 470              		.loc 1 55 13 is_stmt 1
  55:src/kernel/buddyAllocator.cpp ****         }
 471              		.loc 1 55 20 is_stmt 0
 472 0294 6F00C001 		j	.L27
 473              	.LVL49:
 474              	.L35:
  52:src/kernel/buddyAllocator.cpp ****             split((void*)ret, level, i, true);
 475              		.loc 1 52 17 is_stmt 1
  52:src/kernel/buddyAllocator.cpp ****             split((void*)ret, level, i, true);
 476              		.loc 1 52 39 is_stmt 0
 477 0298 93072600 		addi	a5,a2,2
 478 029c 93974700 		slli	a5,a5,4
 479 02a0 3307F700 		add	a4,a4,a5
 480 02a4 23340700 		sd	zero,8(a4)
 481 02a8 6FF0DFFB 		j	.L30
 482              	.LVL50:
 483              	.L32:
 484              	.LBE7:
 485              	.LBE8:
 486              	.LBE9:
  59:src/kernel/buddyAllocator.cpp **** }
 487              		.loc 1 59 12
 488 02ac 93040000 		li	s1,0
 489              	.LVL51:
 490              	.L27:
  60:src/kernel/buddyAllocator.cpp **** 
 491              		.loc 1 60 1
 492 02b0 13850400 		mv	a0,s1
 493 02b4 83308101 		ld	ra,24(sp)
 494              		.cfi_restore 1
 495 02b8 03340101 		ld	s0,16(sp)
 496              		.cfi_restore 8
 497              		.cfi_def_cfa 2, 32
 498 02bc 83348100 		ld	s1,8(sp)
 499              		.cfi_restore 9
 500 02c0 03390100 		ld	s2,0(sp)
 501              		.cfi_restore 18
 502 02c4 13010102 		addi	sp,sp,32
 503              		.cfi_def_cfa_offset 0
 504 02c8 67800000 		jr	ra
 505              		.cfi_endproc
 506              	.LFE6:
GAS LISTING /tmp/ccAfwIJb.s 			page 14


 508              		.align	2
 509              		.globl	_Z9addBlocksPvm
 511              	_Z9addBlocksPvm:
 512              	.LFB13:
 125:src/kernel/buddyAllocator.cpp ****     if(level == buddy->maxLevel)
 513              		.loc 1 125 1 is_stmt 1
 514              		.cfi_startproc
 515              	.LVL52:
 516 02cc 130101FD 		addi	sp,sp,-48
 517              		.cfi_def_cfa_offset 48
 518 02d0 23341102 		sd	ra,40(sp)
 519 02d4 23308102 		sd	s0,32(sp)
 520 02d8 233C9100 		sd	s1,24(sp)
 521 02dc 23382101 		sd	s2,16(sp)
 522 02e0 23343101 		sd	s3,8(sp)
 523              		.cfi_offset 1, -8
 524              		.cfi_offset 8, -16
 525              		.cfi_offset 9, -24
 526              		.cfi_offset 18, -32
 527              		.cfi_offset 19, -40
 528 02e4 13040103 		addi	s0,sp,48
 529              		.cfi_def_cfa 8, 0
 530 02e8 13090500 		mv	s2,a0
 531 02ec 93840500 		mv	s1,a1
 126:src/kernel/buddyAllocator.cpp ****     {
 532              		.loc 1 126 5
 126:src/kernel/buddyAllocator.cpp ****     {
 533              		.loc 1 126 24 is_stmt 0
 534 02f0 97090000 		ld	s3,.LANCHOR0
 534      83B90900 
 535 02f8 83B78901 		ld	a5,24(s3)
 126:src/kernel/buddyAllocator.cpp ****     {
 536              		.loc 1 126 5
 537 02fc 638AB702 		beq	a5,a1,.L48
 131:src/kernel/buddyAllocator.cpp ****     //KConsole::trapPrintString("Buddy block addr ");
 538              		.loc 1 131 5 is_stmt 1
 131:src/kernel/buddyAllocator.cpp ****     //KConsole::trapPrintString("Buddy block addr ");
 539              		.loc 1 131 46 is_stmt 0
 540 0300 97000000 		call	_Z17getBuddyBlockAddrPvm
 540      E7800000 
 541              	.LVL53:
 134:src/kernel/buddyAllocator.cpp ****     buddyBlock* prev = nullptr;
 542              		.loc 1 134 5 is_stmt 1
 134:src/kernel/buddyAllocator.cpp ****     buddyBlock* prev = nullptr;
 543              		.loc 1 134 17 is_stmt 0
 544 0308 93872400 		addi	a5,s1,2
 545 030c 93974700 		slli	a5,a5,4
 546 0310 B387F900 		add	a5,s3,a5
 547 0314 83B70700 		ld	a5,0(a5)
 548              	.LVL54:
 135:src/kernel/buddyAllocator.cpp ****     while(curr != nullptr)
 549              		.loc 1 135 5 is_stmt 1
 135:src/kernel/buddyAllocator.cpp ****     while(curr != nullptr)
 550              		.loc 1 135 17 is_stmt 0
 551 0318 13070000 		li	a4,0
 552              	.LVL55:
 553              	.L46:
GAS LISTING /tmp/ccAfwIJb.s 			page 15


 136:src/kernel/buddyAllocator.cpp ****     {
 554              		.loc 1 136 5 is_stmt 1
 136:src/kernel/buddyAllocator.cpp ****     {
 555              		.loc 1 136 16
 556 031c 6388070A 		beqz	a5,.L39
 138:src/kernel/buddyAllocator.cpp ****         {
 557              		.loc 1 138 9
 558 0320 638EA700 		beq	a5,a0,.L49
 158:src/kernel/buddyAllocator.cpp ****         curr = curr->next;
 559              		.loc 1 158 9
 560              	.LVL56:
 159:src/kernel/buddyAllocator.cpp ****     }
 561              		.loc 1 159 9
 158:src/kernel/buddyAllocator.cpp ****         curr = curr->next;
 562              		.loc 1 158 14 is_stmt 0
 563 0324 13870700 		mv	a4,a5
 159:src/kernel/buddyAllocator.cpp ****     }
 564              		.loc 1 159 14
 565 0328 83B70700 		ld	a5,0(a5)
 566              	.LVL57:
 136:src/kernel/buddyAllocator.cpp ****     {
 567              		.loc 1 136 5
 568 032c 6FF01FFF 		j	.L46
 569              	.LVL58:
 570              	.L48:
 128:src/kernel/buddyAllocator.cpp ****         return;
 571              		.loc 1 128 9 is_stmt 1
 128:src/kernel/buddyAllocator.cpp ****         return;
 572              		.loc 1 128 24 is_stmt 0
 573 0330 97000000 		call	_Z15addBlockToLevelPvm
 573      E7800000 
 574              	.LVL59:
 129:src/kernel/buddyAllocator.cpp ****     }
 575              		.loc 1 129 9 is_stmt 1
 576 0338 6F00400A 		j	.L36
 577              	.LVL60:
 578              	.L49:
 140:src/kernel/buddyAllocator.cpp ****             {
 579              		.loc 1 140 13
 580 033c 63060704 		beqz	a4,.L41
 142:src/kernel/buddyAllocator.cpp ****                 if(curr == buddy->bucket[level].last)
 581              		.loc 1 142 17
 142:src/kernel/buddyAllocator.cpp ****                 if(curr == buddy->bucket[level].last)
 582              		.loc 1 142 36 is_stmt 0
 583 0340 83B60700 		ld	a3,0(a5)
 142:src/kernel/buddyAllocator.cpp ****                 if(curr == buddy->bucket[level].last)
 584              		.loc 1 142 28
 585 0344 2330D700 		sd	a3,0(a4)
 143:src/kernel/buddyAllocator.cpp ****                     buddy->bucket[level].last = prev;
 586              		.loc 1 143 17 is_stmt 1
 143:src/kernel/buddyAllocator.cpp ****                     buddy->bucket[level].last = prev;
 587              		.loc 1 143 49 is_stmt 0
 588 0348 93862400 		addi	a3,s1,2
 589 034c 93964600 		slli	a3,a3,4
 590 0350 B386D900 		add	a3,s3,a3
 591 0354 83B68600 		ld	a3,8(a3)
 143:src/kernel/buddyAllocator.cpp ****                     buddy->bucket[level].last = prev;
GAS LISTING /tmp/ccAfwIJb.s 			page 16


 592              		.loc 1 143 17
 593 0358 638EF600 		beq	a3,a5,.L50
 594              	.LVL61:
 595              	.L42:
 153:src/kernel/buddyAllocator.cpp ****             else addBlocks((void*)buddyBlockAddr, level + 1); //merge two chunks
 596              		.loc 1 153 13 is_stmt 1
 597 035c 6370A906 		bgeu	s2,a0,.L44
 153:src/kernel/buddyAllocator.cpp ****             else addBlocks((void*)buddyBlockAddr, level + 1); //merge two chunks
 598              		.loc 1 153 47 discriminator 1
 153:src/kernel/buddyAllocator.cpp ****             else addBlocks((void*)buddyBlockAddr, level + 1); //merge two chunks
 599              		.loc 1 153 56 is_stmt 0 discriminator 1
 600 0360 93851400 		addi	a1,s1,1
 601 0364 13050900 		mv	a0,s2
 602              	.LVL62:
 603 0368 97000000 		call	_Z9addBlocksPvm
 603      E7800000 
 604              	.LVL63:
 605 0370 6F00C006 		j	.L36
 606              	.LVL64:
 607              	.L50:
 144:src/kernel/buddyAllocator.cpp ****             }
 608              		.loc 1 144 21 is_stmt 1
 144:src/kernel/buddyAllocator.cpp ****             }
 609              		.loc 1 144 47 is_stmt 0
 610 0374 93872400 		addi	a5,s1,2
 611              	.LVL65:
 612 0378 93974700 		slli	a5,a5,4
 613 037c B389F900 		add	s3,s3,a5
 614 0380 23B4E900 		sd	a4,8(s3)
 615 0384 6FF09FFD 		j	.L42
 616              	.LVL66:
 617              	.L41:
 148:src/kernel/buddyAllocator.cpp ****                     buddy->bucket[level].first = buddy->bucket[level].last = nullptr;
 618              		.loc 1 148 17 is_stmt 1
 148:src/kernel/buddyAllocator.cpp ****                     buddy->bucket[level].first = buddy->bucket[level].last = nullptr;
 619              		.loc 1 148 26 is_stmt 0
 620 0388 83B70700 		ld	a5,0(a5)
 621              	.LVL67:
 148:src/kernel/buddyAllocator.cpp ****                     buddy->bucket[level].first = buddy->bucket[level].last = nullptr;
 622              		.loc 1 148 17
 623 038c 638C0700 		beqz	a5,.L51
 151:src/kernel/buddyAllocator.cpp ****             }
 624              		.loc 1 151 21 is_stmt 1
 151:src/kernel/buddyAllocator.cpp ****             }
 625              		.loc 1 151 48 is_stmt 0
 626 0390 13872400 		addi	a4,s1,2
 627              	.LVL68:
 628 0394 13174700 		slli	a4,a4,4
 629 0398 B389E900 		add	s3,s3,a4
 630 039c 23B0F900 		sd	a5,0(s3)
 631 03a0 6FF0DFFB 		j	.L42
 632              	.LVL69:
 633              	.L51:
 149:src/kernel/buddyAllocator.cpp ****                 else
 634              		.loc 1 149 21 is_stmt 1
 149:src/kernel/buddyAllocator.cpp ****                 else
 635              		.loc 1 149 76 is_stmt 0
GAS LISTING /tmp/ccAfwIJb.s 			page 17


 636 03a4 93872400 		addi	a5,s1,2
 637 03a8 93974700 		slli	a5,a5,4
 638 03ac B389F900 		add	s3,s3,a5
 639 03b0 23B40900 		sd	zero,8(s3)
 149:src/kernel/buddyAllocator.cpp ****                 else
 640              		.loc 1 149 48
 641 03b4 23B00900 		sd	zero,0(s3)
 642 03b8 6FF05FFA 		j	.L42
 643              	.LVL70:
 644              	.L44:
 154:src/kernel/buddyAllocator.cpp ****             return;
 645              		.loc 1 154 18 is_stmt 1
 154:src/kernel/buddyAllocator.cpp ****             return;
 646              		.loc 1 154 27 is_stmt 0
 647 03bc 93851400 		addi	a1,s1,1
 648 03c0 97000000 		call	_Z9addBlocksPvm
 648      E7800000 
 649              	.LVL71:
 155:src/kernel/buddyAllocator.cpp ****         }
 650              		.loc 1 155 13 is_stmt 1
 651 03c8 6F004001 		j	.L36
 652              	.LVL72:
 653              	.L39:
 162:src/kernel/buddyAllocator.cpp **** }
 654              		.loc 1 162 5
 162:src/kernel/buddyAllocator.cpp **** }
 655              		.loc 1 162 20 is_stmt 0
 656 03cc 93850400 		mv	a1,s1
 657 03d0 13050900 		mv	a0,s2
 658              	.LVL73:
 659 03d4 97000000 		call	_Z15addBlockToLevelPvm
 659      E7800000 
 660              	.LVL74:
 661              	.L36:
 163:src/kernel/buddyAllocator.cpp **** 
 662              		.loc 1 163 1
 663 03dc 83308102 		ld	ra,40(sp)
 664              		.cfi_restore 1
 665 03e0 03340102 		ld	s0,32(sp)
 666              		.cfi_restore 8
 667              		.cfi_def_cfa 2, 48
 668 03e4 83348101 		ld	s1,24(sp)
 669              		.cfi_restore 9
 670              	.LVL75:
 671 03e8 03390101 		ld	s2,16(sp)
 672              		.cfi_restore 18
 673              	.LVL76:
 674 03ec 83398100 		ld	s3,8(sp)
 675              		.cfi_restore 19
 676 03f0 13010103 		addi	sp,sp,48
 677              		.cfi_def_cfa_offset 0
 678 03f4 67800000 		jr	ra
 679              		.cfi_endproc
 680              	.LFE13:
 682              		.align	2
 683              		.globl	_Z10buddy_initPvm
 685              	_Z10buddy_initPvm:
GAS LISTING /tmp/ccAfwIJb.s 			page 18


 686              	.LFB5:
   9:src/kernel/buddyAllocator.cpp ****     //KConsole::trapPrintString("Buddy initialization\n");
 687              		.loc 1 9 1 is_stmt 1
 688              		.cfi_startproc
 689              	.LVL77:
 690 03f8 130101FD 		addi	sp,sp,-48
 691              		.cfi_def_cfa_offset 48
 692 03fc 23341102 		sd	ra,40(sp)
 693 0400 23308102 		sd	s0,32(sp)
 694 0404 233C9100 		sd	s1,24(sp)
 695 0408 23382101 		sd	s2,16(sp)
 696 040c 23343101 		sd	s3,8(sp)
 697              		.cfi_offset 1, -8
 698              		.cfi_offset 8, -16
 699              		.cfi_offset 9, -24
 700              		.cfi_offset 18, -32
 701              		.cfi_offset 19, -40
 702 0410 13040103 		addi	s0,sp,48
 703              		.cfi_def_cfa 8, 0
 704 0414 13890500 		mv	s2,a1
  11:src/kernel/buddyAllocator.cpp ****     size_t buddyAddr = (size_t)addr;
 705              		.loc 1 11 5
  11:src/kernel/buddyAllocator.cpp ****     size_t buddyAddr = (size_t)addr;
 706              		.loc 1 11 36 is_stmt 0
 707 0418 93090500 		mv	s3,a0
 708 041c 97000000 		call	_Z12getBlockAddrm
 708      E7800000 
 709              	.LVL78:
  12:src/kernel/buddyAllocator.cpp ****     //KConsole::trapPrintInt(blockAddr,16); KConsole::trapPrintString("\n");
 710              		.loc 1 12 5 is_stmt 1
  15:src/kernel/buddyAllocator.cpp ****     {
 711              		.loc 1 15 5
 712 0424 638AA900 		beq	s3,a0,.L53
  17:src/kernel/buddyAllocator.cpp ****         numOfBlocks--; //have to discard one block
 713              		.loc 1 17 9
  17:src/kernel/buddyAllocator.cpp ****         numOfBlocks--; //have to discard one block
 714              		.loc 1 17 37 is_stmt 0
 715 0428 97000000 		call	_Z16getNextBlockAddrm
 715      E7800000 
 716              	.LVL79:
 717 0430 93090500 		mv	s3,a0
 718              	.LVL80:
  18:src/kernel/buddyAllocator.cpp ****     }
 719              		.loc 1 18 9 is_stmt 1
  18:src/kernel/buddyAllocator.cpp ****     }
 720              		.loc 1 18 20 is_stmt 0
 721 0434 1309F9FF 		addi	s2,s2,-1
 722              	.LVL81:
 723              	.L53:
  21:src/kernel/buddyAllocator.cpp ****     buddy = (buddyAllocator*)buddyAddr;
 724              		.loc 1 21 5 is_stmt 1
  21:src/kernel/buddyAllocator.cpp ****     buddy = (buddyAllocator*)buddyAddr;
 725              		.loc 1 21 16 is_stmt 0
 726 0438 1309F9FF 		addi	s2,s2,-1
 727              	.LVL82:
  22:src/kernel/buddyAllocator.cpp ****     buddy->startAddr = (void*)getNextBlockAddr(buddyAddr);
 728              		.loc 1 22 5 is_stmt 1
GAS LISTING /tmp/ccAfwIJb.s 			page 19


  22:src/kernel/buddyAllocator.cpp ****     buddy->startAddr = (void*)getNextBlockAddr(buddyAddr);
 729              		.loc 1 22 11 is_stmt 0
 730 043c 93840900 		mv	s1,s3
 731 0440 97070000 		sd	s3,.LANCHOR0,a5
 731      23B03701 
  23:src/kernel/buddyAllocator.cpp ****     buddy->numOfBlocks = numOfBlocks;
 732              		.loc 1 23 5 is_stmt 1
  23:src/kernel/buddyAllocator.cpp ****     buddy->numOfBlocks = numOfBlocks;
 733              		.loc 1 23 47 is_stmt 0
 734 0448 13850900 		mv	a0,s3
 735 044c 97000000 		call	_Z16getNextBlockAddrm
 735      E7800000 
 736              	.LVL83:
  23:src/kernel/buddyAllocator.cpp ****     buddy->numOfBlocks = numOfBlocks;
 737              		.loc 1 23 22
 738 0454 23B4A900 		sd	a0,8(s3)
  24:src/kernel/buddyAllocator.cpp ****     buddy->numOfFreeBlocks = numOfBlocks;
 739              		.loc 1 24 5 is_stmt 1
  24:src/kernel/buddyAllocator.cpp ****     buddy->numOfFreeBlocks = numOfBlocks;
 740              		.loc 1 24 24 is_stmt 0
 741 0458 23B02901 		sd	s2,0(s3)
  25:src/kernel/buddyAllocator.cpp ****     buddy->maxLevel = getDeg2Floor(numOfBlocks);
 742              		.loc 1 25 5 is_stmt 1
  25:src/kernel/buddyAllocator.cpp ****     buddy->maxLevel = getDeg2Floor(numOfBlocks);
 743              		.loc 1 25 28 is_stmt 0
 744 045c 23B82901 		sd	s2,16(s3)
  26:src/kernel/buddyAllocator.cpp **** 
 745              		.loc 1 26 5 is_stmt 1
  26:src/kernel/buddyAllocator.cpp **** 
 746              		.loc 1 26 35 is_stmt 0
 747 0460 13050900 		mv	a0,s2
 748 0464 97000000 		call	_Z12getDeg2Floorm
 748      E7800000 
 749              	.LVL84:
  26:src/kernel/buddyAllocator.cpp **** 
 750              		.loc 1 26 21
 751 046c 23BCA900 		sd	a0,24(s3)
  28:src/kernel/buddyAllocator.cpp ****         buddy->bucket[i].first = buddy->bucket[i].last = nullptr;
 752              		.loc 1 28 5 is_stmt 1
 753              	.LVL85:
 754              	.LBB10:
  28:src/kernel/buddyAllocator.cpp ****         buddy->bucket[i].first = buddy->bucket[i].last = nullptr;
 755              		.loc 1 28 16 is_stmt 0
 756 0470 13070000 		li	a4,0
 757              	.LVL86:
 758              	.L55:
  28:src/kernel/buddyAllocator.cpp ****         buddy->bucket[i].first = buddy->bucket[i].last = nullptr;
 759              		.loc 1 28 25 is_stmt 1 discriminator 3
  28:src/kernel/buddyAllocator.cpp ****         buddy->bucket[i].first = buddy->bucket[i].last = nullptr;
 760              		.loc 1 28 35 is_stmt 0 discriminator 3
 761 0474 83B78401 		ld	a5,24(s1)
  28:src/kernel/buddyAllocator.cpp ****         buddy->bucket[i].first = buddy->bucket[i].last = nullptr;
 762              		.loc 1 28 25 discriminator 3
 763 0478 63E0E702 		bltu	a5,a4,.L57
  29:src/kernel/buddyAllocator.cpp **** 
 764              		.loc 1 29 9 is_stmt 1 discriminator 2
  29:src/kernel/buddyAllocator.cpp **** 
GAS LISTING /tmp/ccAfwIJb.s 			page 20


 765              		.loc 1 29 56 is_stmt 0 discriminator 2
 766 047c 93072700 		addi	a5,a4,2
 767 0480 93974700 		slli	a5,a5,4
 768 0484 B387F400 		add	a5,s1,a5
 769 0488 23B40700 		sd	zero,8(a5)
  29:src/kernel/buddyAllocator.cpp **** 
 770              		.loc 1 29 32 discriminator 2
 771 048c 23B00700 		sd	zero,0(a5)
  28:src/kernel/buddyAllocator.cpp ****         buddy->bucket[i].first = buddy->bucket[i].last = nullptr;
 772              		.loc 1 28 5 is_stmt 1 discriminator 2
 773 0490 13071700 		addi	a4,a4,1
 774              	.LVL87:
 775 0494 6FF01FFE 		j	.L55
 776              	.L57:
 777              	.LBE10:
 778              	.LBB11:
  33:src/kernel/buddyAllocator.cpp ****         addBlocks((block*)buddy->startAddr + i, 0);
 779              		.loc 1 33 16 is_stmt 0
 780 0498 93040000 		li	s1,0
 781              	.LVL88:
 782              	.L54:
  33:src/kernel/buddyAllocator.cpp ****         addBlocks((block*)buddy->startAddr + i, 0);
 783              		.loc 1 33 24 is_stmt 1 discriminator 3
 784 049c 63F62403 		bgeu	s1,s2,.L56
  34:src/kernel/buddyAllocator.cpp **** 
 785              		.loc 1 34 9 discriminator 2
  34:src/kernel/buddyAllocator.cpp **** 
 786              		.loc 1 34 34 is_stmt 0 discriminator 2
 787 04a0 97070000 		ld	a5,.LANCHOR0
 787      83B70700 
 788 04a8 03B58700 		ld	a0,8(a5)
  34:src/kernel/buddyAllocator.cpp **** 
 789              		.loc 1 34 44 discriminator 2
 790 04ac 9397C400 		slli	a5,s1,12
  34:src/kernel/buddyAllocator.cpp **** 
 791              		.loc 1 34 18 discriminator 2
 792 04b0 93050000 		li	a1,0
 793 04b4 3305F500 		add	a0,a0,a5
 794 04b8 97000000 		call	_Z9addBlocksPvm
 794      E7800000 
 795              	.LVL89:
  33:src/kernel/buddyAllocator.cpp ****         addBlocks((block*)buddy->startAddr + i, 0);
 796              		.loc 1 33 5 is_stmt 1 discriminator 2
 797 04c0 93841400 		addi	s1,s1,1
 798              	.LVL90:
 799 04c4 6FF09FFD 		j	.L54
 800              	.L56:
 801              	.LBE11:
  36:src/kernel/buddyAllocator.cpp **** }
 802              		.loc 1 36 5
  37:src/kernel/buddyAllocator.cpp **** 
 803              		.loc 1 37 1 is_stmt 0
 804 04c8 17050000 		ld	a0,.LANCHOR0
 804      03350500 
 805 04d0 83308102 		ld	ra,40(sp)
 806              		.cfi_restore 1
 807 04d4 03340102 		ld	s0,32(sp)
GAS LISTING /tmp/ccAfwIJb.s 			page 21


 808              		.cfi_restore 8
 809              		.cfi_def_cfa 2, 48
 810 04d8 83348101 		ld	s1,24(sp)
 811              		.cfi_restore 9
 812              	.LVL91:
 813 04dc 03390101 		ld	s2,16(sp)
 814              		.cfi_restore 18
 815              	.LVL92:
 816 04e0 83398100 		ld	s3,8(sp)
 817              		.cfi_restore 19
 818              	.LVL93:
 819 04e4 13010103 		addi	sp,sp,48
 820              		.cfi_def_cfa_offset 0
 821 04e8 67800000 		jr	ra
 822              		.cfi_endproc
 823              	.LFE5:
 825              		.align	2
 826              		.globl	_Z10buddy_freePvm
 828              	_Z10buddy_freePvm:
 829              	.LFB8:
  82:src/kernel/buddyAllocator.cpp ****     size_t level = getDeg2Ceil(numOfBlocks);
 830              		.loc 1 82 1 is_stmt 1
 831              		.cfi_startproc
 832              	.LVL94:
 833 04ec 130101FE 		addi	sp,sp,-32
 834              		.cfi_def_cfa_offset 32
 835 04f0 233C1100 		sd	ra,24(sp)
 836 04f4 23388100 		sd	s0,16(sp)
 837 04f8 23349100 		sd	s1,8(sp)
 838 04fc 23302101 		sd	s2,0(sp)
 839              		.cfi_offset 1, -8
 840              		.cfi_offset 8, -16
 841              		.cfi_offset 9, -24
 842              		.cfi_offset 18, -32
 843 0500 13040102 		addi	s0,sp,32
 844              		.cfi_def_cfa 8, 0
 845 0504 13090500 		mv	s2,a0
  83:src/kernel/buddyAllocator.cpp ****     addBlocks(addr, level); //adds free blocks
 846              		.loc 1 83 5
  83:src/kernel/buddyAllocator.cpp ****     addBlocks(addr, level); //adds free blocks
 847              		.loc 1 83 31 is_stmt 0
 848 0508 13850500 		mv	a0,a1
 849              	.LVL95:
 850 050c 97000000 		call	_Z11getDeg2Ceilm
 850      E7800000 
 851              	.LVL96:
 852 0514 93040500 		mv	s1,a0
 853              	.LVL97:
  84:src/kernel/buddyAllocator.cpp ****     buddy->numOfFreeBlocks += (1 << level);
 854              		.loc 1 84 5 is_stmt 1
  84:src/kernel/buddyAllocator.cpp ****     buddy->numOfFreeBlocks += (1 << level);
 855              		.loc 1 84 14 is_stmt 0
 856 0518 93050500 		mv	a1,a0
 857 051c 13050900 		mv	a0,s2
 858 0520 97000000 		call	_Z9addBlocksPvm
 858      E7800000 
 859              	.LVL98:
GAS LISTING /tmp/ccAfwIJb.s 			page 22


  85:src/kernel/buddyAllocator.cpp **** }
 860              		.loc 1 85 5 is_stmt 1
  85:src/kernel/buddyAllocator.cpp **** }
 861              		.loc 1 85 28 is_stmt 0
 862 0528 97070000 		ld	a5,.LANCHOR0
 862      83B70700 
  85:src/kernel/buddyAllocator.cpp **** }
 863              		.loc 1 85 34
 864 0530 13051000 		li	a0,1
 865 0534 3B159500 		sllw	a0,a0,s1
  85:src/kernel/buddyAllocator.cpp **** }
 866              		.loc 1 85 28
 867 0538 83B40701 		ld	s1,16(a5)
 868              	.LVL99:
 869 053c B384A400 		add	s1,s1,a0
 870 0540 23B89700 		sd	s1,16(a5)
  86:src/kernel/buddyAllocator.cpp **** 
 871              		.loc 1 86 1
 872 0544 83308101 		ld	ra,24(sp)
 873              		.cfi_restore 1
 874 0548 03340101 		ld	s0,16(sp)
 875              		.cfi_restore 8
 876              		.cfi_def_cfa 2, 32
 877 054c 83348100 		ld	s1,8(sp)
 878              		.cfi_restore 9
 879 0550 03390100 		ld	s2,0(sp)
 880              		.cfi_restore 18
 881              	.LVL100:
 882 0554 13010102 		addi	sp,sp,32
 883              		.cfi_def_cfa_offset 0
 884 0558 67800000 		jr	ra
 885              		.cfi_endproc
 886              	.LFE8:
 888              		.section	.rodata.str1.8,"aMS",@progbits,1
 889              		.align	3
 890              	.LC0:
 891 0000 42756464 		.string	"Buddy info-------------------------------------------\n"
 891      7920696E 
 891      666F2D2D 
 891      2D2D2D2D 
 891      2D2D2D2D 
 892 0037 00       		.align	3
 893              	.LC1:
 894 0038 42756464 		.string	"Buddy starting address "
 894      79207374 
 894      61727469 
 894      6E672061 
 894      64647265 
 895              		.align	3
 896              	.LC2:
 897 0050 42756464 		.string	"Buddy number of blocks "
 897      79206E75 
 897      6D626572 
 897      206F6620 
 897      626C6F63 
 898              		.align	3
 899              	.LC3:
GAS LISTING /tmp/ccAfwIJb.s 			page 23


 900 0068 42756464 		.string	"Buddy number of free blocks "
 900      79206E75 
 900      6D626572 
 900      206F6620 
 900      66726565 
 901 0085 000000   		.align	3
 902              	.LC4:
 903 0088 4C657665 		.string	"Level "
 903      6C2000
 904 008f 00       		.align	3
 905              	.LC5:
 906 0090 46726565 		.string	"Free blocks on this level\n"
 906      20626C6F 
 906      636B7320 
 906      6F6E2074 
 906      68697320 
 907 00ab 00000000 		.align	3
 907      00
 908              	.LC6:
 909 00b0 0A00     		.string	"\n"
 910 00b2 00000000 		.align	3
 910      0000
 911              	.LC7:
 912 00b8 456E6420 		.string	"End of buddy info-------------------------------------------\n"
 912      6F662062 
 912      75646479 
 912      20696E66 
 912      6F2D2D2D 
 913              		.text
 914              		.align	2
 915              		.globl	_Z14printBuddyInfov
 917              	_Z14printBuddyInfov:
 918              	.LFB16:
 190:src/kernel/buddyAllocator.cpp **** 
 191:src/kernel/buddyAllocator.cpp **** void printBuddyInfo()
 192:src/kernel/buddyAllocator.cpp **** {
 919              		.loc 1 192 1 is_stmt 1
 920              		.cfi_startproc
 921 055c 130101FE 		addi	sp,sp,-32
 922              		.cfi_def_cfa_offset 32
 923 0560 233C1100 		sd	ra,24(sp)
 924 0564 23388100 		sd	s0,16(sp)
 925 0568 23349100 		sd	s1,8(sp)
 926 056c 23302101 		sd	s2,0(sp)
 927              		.cfi_offset 1, -8
 928              		.cfi_offset 8, -16
 929              		.cfi_offset 9, -24
 930              		.cfi_offset 18, -32
 931 0570 13040102 		addi	s0,sp,32
 932              		.cfi_def_cfa 8, 0
 193:src/kernel/buddyAllocator.cpp ****     KConsole::trapPrintString("Buddy info-------------------------------------------\n");
 933              		.loc 1 193 5
 934              		.loc 1 193 30 is_stmt 0
 935 0574 17050000 		lla	a0,.LC0
 935      13050500 
 936 057c 97000000 		call	_ZN8KConsole15trapPrintStringEPKc@plt
 936      E7800000 
GAS LISTING /tmp/ccAfwIJb.s 			page 24


 937              	.LVL101:
 194:src/kernel/buddyAllocator.cpp ****     KConsole::trapPrintStringInt("Buddy starting address ", (size_t)buddy->startAddr, 16);
 938              		.loc 1 194 5 is_stmt 1
 939              		.loc 1 194 76 is_stmt 0
 940 0584 97040000 		lla	s1,.LANCHOR0
 940      93840400 
 941 058c 83B70400 		ld	a5,0(s1)
 942              		.loc 1 194 33
 943 0590 13060001 		li	a2,16
 944 0594 83B58700 		ld	a1,8(a5)
 945 0598 17050000 		lla	a0,.LC1
 945      13050500 
 946 05a0 97000000 		call	_ZN8KConsole18trapPrintStringIntEPKcmi@plt
 946      E7800000 
 947              	.LVL102:
 195:src/kernel/buddyAllocator.cpp ****     KConsole::trapPrintStringInt("Buddy number of blocks ", buddy->numOfBlocks);
 948              		.loc 1 195 5 is_stmt 1
 949              		.loc 1 195 33 is_stmt 0
 950 05a8 83B70400 		ld	a5,0(s1)
 951 05ac 1306A000 		li	a2,10
 952 05b0 83B50700 		ld	a1,0(a5)
 953 05b4 17050000 		lla	a0,.LC2
 953      13050500 
 954 05bc 97000000 		call	_ZN8KConsole18trapPrintStringIntEPKcmi@plt
 954      E7800000 
 955              	.LVL103:
 196:src/kernel/buddyAllocator.cpp ****     KConsole::trapPrintStringInt("Buddy number of free blocks ", buddy->numOfFreeBlocks);
 956              		.loc 1 196 5 is_stmt 1
 957              		.loc 1 196 33 is_stmt 0
 958 05c4 83B70400 		ld	a5,0(s1)
 959 05c8 1306A000 		li	a2,10
 960 05cc 83B50701 		ld	a1,16(a5)
 961 05d0 17050000 		lla	a0,.LC3
 961      13050500 
 962 05d8 97000000 		call	_ZN8KConsole18trapPrintStringIntEPKcmi@plt
 962      E7800000 
 963              	.LVL104:
 197:src/kernel/buddyAllocator.cpp ****     for(int i = buddy->maxLevel;i>=0;i--)
 964              		.loc 1 197 5 is_stmt 1
 965              	.LBB12:
 966              		.loc 1 197 24 is_stmt 0
 967 05e0 83B70400 		ld	a5,0(s1)
 968              		.loc 1 197 13
 969 05e4 03A98701 		lw	s2,24(a5)
 970              	.LVL105:
 971 05e8 6F008000 		j	.L65
 972              	.LVL106:
 973              	.L63:
 974              		.loc 1 197 5 is_stmt 1 discriminator 2
 975 05ec 1B09F9FF 		addiw	s2,s2,-1
 976              	.LVL107:
 977              	.L65:
 978              		.loc 1 197 34 discriminator 1
 979 05f0 634A0906 		bltz	s2,.L62
 980              	.LBB13:
 198:src/kernel/buddyAllocator.cpp ****     {
 199:src/kernel/buddyAllocator.cpp ****         KConsole::trapPrintStringInt("Level ",i);
GAS LISTING /tmp/ccAfwIJb.s 			page 25


 981              		.loc 1 199 9
 982              		.loc 1 199 37 is_stmt 0
 983 05f4 1306A000 		li	a2,10
 984 05f8 93050900 		mv	a1,s2
 985 05fc 17050000 		lla	a0,.LC4
 985      13050500 
 986 0604 97000000 		call	_ZN8KConsole18trapPrintStringIntEPKcmi@plt
 986      E7800000 
 987              	.LVL108:
 200:src/kernel/buddyAllocator.cpp ****         KConsole::trapPrintString("Free blocks on this level\n");
 988              		.loc 1 200 9 is_stmt 1
 989              		.loc 1 200 34 is_stmt 0
 990 060c 17050000 		lla	a0,.LC5
 990      13050500 
 991 0614 97000000 		call	_ZN8KConsole15trapPrintStringEPKc@plt
 991      E7800000 
 992              	.LVL109:
 201:src/kernel/buddyAllocator.cpp ****         buddyBlock* curr = buddy->bucket[i].first;
 993              		.loc 1 201 9 is_stmt 1
 994              		.loc 1 201 21 is_stmt 0
 995 061c 93072900 		addi	a5,s2,2
 996 0620 13974700 		slli	a4,a5,4
 997 0624 97070000 		ld	a5,.LANCHOR0
 997      83B70700 
 998 062c B387E700 		add	a5,a5,a4
 999 0630 83B40700 		ld	s1,0(a5)
 1000              	.LVL110:
 1001              	.L64:
 202:src/kernel/buddyAllocator.cpp ****         while(curr != 0)
 1002              		.loc 1 202 9 is_stmt 1
 1003              		.loc 1 202 20
 1004 0634 E38C04FA 		beqz	s1,.L63
 203:src/kernel/buddyAllocator.cpp ****         {
 204:src/kernel/buddyAllocator.cpp ****             KConsole::trapPrintInt((size_t)curr, 16);
 1005              		.loc 1 204 13
 1006              		.loc 1 204 35 is_stmt 0
 1007 0638 13060000 		li	a2,0
 1008 063c 93050001 		li	a1,16
 1009 0640 13850400 		mv	a0,s1
 1010 0644 97000000 		call	_ZN8KConsole12trapPrintIntEmii@plt
 1010      E7800000 
 1011              	.LVL111:
 205:src/kernel/buddyAllocator.cpp ****             KConsole::trapPrintString("\n");
 1012              		.loc 1 205 13 is_stmt 1
 1013              		.loc 1 205 38 is_stmt 0
 1014 064c 17050000 		lla	a0,.LC6
 1014      13050500 
 1015 0654 97000000 		call	_ZN8KConsole15trapPrintStringEPKc@plt
 1015      E7800000 
 1016              	.LVL112:
 206:src/kernel/buddyAllocator.cpp ****             curr = curr->next;
 1017              		.loc 1 206 13 is_stmt 1
 1018              		.loc 1 206 18 is_stmt 0
 1019 065c 83B40400 		ld	s1,0(s1)
 1020              	.LVL113:
 202:src/kernel/buddyAllocator.cpp ****         {
 1021              		.loc 1 202 9
GAS LISTING /tmp/ccAfwIJb.s 			page 26


 1022 0660 6FF05FFD 		j	.L64
 1023              	.LVL114:
 1024              	.L62:
 1025              	.LBE13:
 1026              	.LBE12:
 207:src/kernel/buddyAllocator.cpp ****         }
 208:src/kernel/buddyAllocator.cpp ****     }
 209:src/kernel/buddyAllocator.cpp ****     KConsole::trapPrintString("End of buddy info-------------------------------------------\n");
 1027              		.loc 1 209 5 is_stmt 1
 1028              		.loc 1 209 30 is_stmt 0
 1029 0664 17050000 		lla	a0,.LC7
 1029      13050500 
 1030 066c 97000000 		call	_ZN8KConsole15trapPrintStringEPKc@plt
 1030      E7800000 
 1031              	.LVL115:
 210:src/kernel/buddyAllocator.cpp **** }
 1032              		.loc 1 210 1
 1033 0674 83308101 		ld	ra,24(sp)
 1034              		.cfi_restore 1
 1035 0678 03340101 		ld	s0,16(sp)
 1036              		.cfi_restore 8
 1037              		.cfi_def_cfa 2, 32
 1038 067c 83348100 		ld	s1,8(sp)
 1039              		.cfi_restore 9
 1040 0680 03390100 		ld	s2,0(sp)
 1041              		.cfi_restore 18
 1042              	.LVL116:
 1043 0684 13010102 		addi	sp,sp,32
 1044              		.cfi_def_cfa_offset 0
 1045 0688 67800000 		jr	ra
 1046              		.cfi_endproc
 1047              	.LFE16:
 1049              		.align	2
 1050              		.globl	_Z8getBuddyv
 1052              	_Z8getBuddyv:
 1053              	.LFB17:
 211:src/kernel/buddyAllocator.cpp **** 
 212:src/kernel/buddyAllocator.cpp **** void* getBuddy()
 213:src/kernel/buddyAllocator.cpp **** {
 1054              		.loc 1 213 1 is_stmt 1
 1055              		.cfi_startproc
 1056 068c 130101FF 		addi	sp,sp,-16
 1057              		.cfi_def_cfa_offset 16
 1058 0690 23348100 		sd	s0,8(sp)
 1059              		.cfi_offset 8, -8
 1060 0694 13040101 		addi	s0,sp,16
 1061              		.cfi_def_cfa 8, 0
 214:src/kernel/buddyAllocator.cpp ****     return (void*)buddy;
 1062              		.loc 1 214 5
 215:src/kernel/buddyAllocator.cpp **** }...
 1063              		.loc 1 215 1 is_stmt 0
 1064 0698 17050000 		ld	a0,.LANCHOR0
 1064      03350500 
 1065 06a0 03348100 		ld	s0,8(sp)
 1066              		.cfi_restore 8
 1067              		.cfi_def_cfa 2, 16
 1068 06a4 13010101 		addi	sp,sp,16
GAS LISTING /tmp/ccAfwIJb.s 			page 27


 1069              		.cfi_def_cfa_offset 0
 1070 06a8 67800000 		jr	ra
 1071              		.cfi_endproc
 1072              	.LFE17:
 1074              		.bss
 1075              		.align	3
 1076              		.set	.LANCHOR0,. + 0
 1079              	_ZL5buddy:
 1080 0000 00000000 		.zero	8
 1080      00000000 
 1081              		.text
 1082              	.Letext0:
 1083              		.file 2 "src/kernel/../../h/../lib/hw.h"
 1084              		.file 3 "src/kernel/../../h/buddyAllocator.hpp"
 1085              		.file 4 "src/kernel/../../h/PCB.hpp"
 1086              		.file 5 "src/kernel/../../h/KSemaphore.hpp"
 1087              		.file 6 "src/kernel/../../h/KConsole.hpp"
GAS LISTING /tmp/ccAfwIJb.s 			page 28


DEFINED SYMBOLS
                            *ABS*:0000000000000000 buddyAllocator.cpp
     /tmp/ccAfwIJb.s:9      .text:0000000000000000 _Z12getBlockAddrm
     /tmp/ccAfwIJb.s:13     .text:0000000000000000 .L0 
     /tmp/ccAfwIJb.s:15     .text:0000000000000000 .L0 
     /tmp/ccAfwIJb.s:16     .text:0000000000000004 .L0 
     /tmp/ccAfwIJb.s:18     .text:0000000000000008 .L0 
     /tmp/ccAfwIJb.s:20     .text:000000000000000c .L0 
     /tmp/ccAfwIJb.s:23     .text:000000000000000c .L0 
     /tmp/ccAfwIJb.s:24     .text:000000000000000c .L0 
     /tmp/ccAfwIJb.s:25     .text:000000000000000c .L0 
     /tmp/ccAfwIJb.s:29     .text:0000000000000018 .L0 
     /tmp/ccAfwIJb.s:30     .text:0000000000000018 .L0 
     /tmp/ccAfwIJb.s:32     .text:000000000000001c .L0 
     /tmp/ccAfwIJb.s:34     .text:0000000000000020 .L0 
     /tmp/ccAfwIJb.s:40     .text:0000000000000020 _Z16getNextBlockAddrm
     /tmp/ccAfwIJb.s:43     .text:0000000000000020 .L0 
     /tmp/ccAfwIJb.s:45     .text:0000000000000020 .L0 
     /tmp/ccAfwIJb.s:46     .text:0000000000000024 .L0 
     /tmp/ccAfwIJb.s:49     .text:000000000000002c .L0 
     /tmp/ccAfwIJb.s:50     .text:000000000000002c .L0 
     /tmp/ccAfwIJb.s:52     .text:0000000000000030 .L0 
     /tmp/ccAfwIJb.s:54     .text:0000000000000030 .L0 
     /tmp/ccAfwIJb.s:55     .text:0000000000000030 .L0 
     /tmp/ccAfwIJb.s:58     .text:0000000000000038 .L0 
     /tmp/ccAfwIJb.s:59     .text:0000000000000038 .L0 
     /tmp/ccAfwIJb.s:63     .text:0000000000000044 .L0 
     /tmp/ccAfwIJb.s:65     .text:0000000000000048 .L0 
     /tmp/ccAfwIJb.s:66     .text:0000000000000048 .L0 
     /tmp/ccAfwIJb.s:68     .text:000000000000004c .L0 
     /tmp/ccAfwIJb.s:70     .text:0000000000000050 .L0 
     /tmp/ccAfwIJb.s:76     .text:0000000000000050 _Z12getDeg2Floorm
     /tmp/ccAfwIJb.s:79     .text:0000000000000050 .L0 
     /tmp/ccAfwIJb.s:81     .text:0000000000000050 .L0 
     /tmp/ccAfwIJb.s:82     .text:0000000000000054 .L0 
     /tmp/ccAfwIJb.s:84     .text:0000000000000058 .L0 
     /tmp/ccAfwIJb.s:86     .text:000000000000005c .L0 
     /tmp/ccAfwIJb.s:89     .text:000000000000005c .L0 
     /tmp/ccAfwIJb.s:90     .text:000000000000005c .L0 
     /tmp/ccAfwIJb.s:91     .text:000000000000005c .L0 
     /tmp/ccAfwIJb.s:93     .text:0000000000000060 .L0 
     /tmp/ccAfwIJb.s:97     .text:0000000000000064 .L0 
     /tmp/ccAfwIJb.s:98     .text:0000000000000064 .L0 
     /tmp/ccAfwIJb.s:100    .text:0000000000000068 .L0 
     /tmp/ccAfwIJb.s:101    .text:0000000000000068 .L0 
     /tmp/ccAfwIJb.s:104    .text:000000000000006c .L0 
     /tmp/ccAfwIJb.s:105    .text:000000000000006c .L0 
     /tmp/ccAfwIJb.s:108    .text:0000000000000070 .L0 
     /tmp/ccAfwIJb.s:111    .text:0000000000000074 .L0 
     /tmp/ccAfwIJb.s:112    .text:0000000000000074 .L0 
     /tmp/ccAfwIJb.s:115    .text:000000000000007c .L0 
     /tmp/ccAfwIJb.s:116    .text:000000000000007c .L0 
     /tmp/ccAfwIJb.s:118    .text:0000000000000080 .L0 
     /tmp/ccAfwIJb.s:120    .text:0000000000000084 .L0 
     /tmp/ccAfwIJb.s:126    .text:0000000000000084 _Z11getDeg2Ceilm
     /tmp/ccAfwIJb.s:129    .text:0000000000000084 .L0 
     /tmp/ccAfwIJb.s:131    .text:0000000000000084 .L0 
GAS LISTING /tmp/ccAfwIJb.s 			page 29


     /tmp/ccAfwIJb.s:132    .text:0000000000000088 .L0 
     /tmp/ccAfwIJb.s:134    .text:000000000000008c .L0 
     /tmp/ccAfwIJb.s:136    .text:0000000000000090 .L0 
     /tmp/ccAfwIJb.s:140    .text:0000000000000094 .L0 
     /tmp/ccAfwIJb.s:141    .text:0000000000000094 .L0 
     /tmp/ccAfwIJb.s:142    .text:0000000000000094 .L0 
     /tmp/ccAfwIJb.s:145    .text:0000000000000098 .L0 
     /tmp/ccAfwIJb.s:149    .text:000000000000009c .L0 
     /tmp/ccAfwIJb.s:150    .text:000000000000009c .L0 
     /tmp/ccAfwIJb.s:152    .text:00000000000000a0 .L0 
     /tmp/ccAfwIJb.s:153    .text:00000000000000a0 .L0 
     /tmp/ccAfwIJb.s:156    .text:00000000000000a4 .L0 
     /tmp/ccAfwIJb.s:157    .text:00000000000000a4 .L0 
     /tmp/ccAfwIJb.s:160    .text:00000000000000a8 .L0 
     /tmp/ccAfwIJb.s:163    .text:00000000000000ac .L0 
     /tmp/ccAfwIJb.s:164    .text:00000000000000b0 .L0 
     /tmp/ccAfwIJb.s:165    .text:00000000000000b0 .L0 
     /tmp/ccAfwIJb.s:167    .text:00000000000000b4 .L0 
     /tmp/ccAfwIJb.s:169    .text:00000000000000b8 .L0 
     /tmp/ccAfwIJb.s:175    .text:00000000000000b8 _Z15addBlockToLevelPvm
     /tmp/ccAfwIJb.s:178    .text:00000000000000b8 .L0 
     /tmp/ccAfwIJb.s:180    .text:00000000000000b8 .L0 
     /tmp/ccAfwIJb.s:181    .text:00000000000000bc .L0 
     /tmp/ccAfwIJb.s:183    .text:00000000000000c0 .L0 
     /tmp/ccAfwIJb.s:185    .text:00000000000000c4 .L0 
     /tmp/ccAfwIJb.s:188    .text:00000000000000c4 .L0 
     /tmp/ccAfwIJb.s:189    .text:00000000000000c4 .L0 
     /tmp/ccAfwIJb.s:190    .text:00000000000000c4 .L0 
     /tmp/ccAfwIJb.s:192    .text:00000000000000c8 .L0 
     /tmp/ccAfwIJb.s:193    .text:00000000000000c8 .L0 
     /tmp/ccAfwIJb.s:199    .text:00000000000000e0 .L0 
     /tmp/ccAfwIJb.s:201    .text:00000000000000e4 .L0 
     /tmp/ccAfwIJb.s:202    .text:00000000000000e4 .L0 
     /tmp/ccAfwIJb.s:209    .text:00000000000000f4 .L0 
     /tmp/ccAfwIJb.s:211    .text:00000000000000f8 .L0 
     /tmp/ccAfwIJb.s:212    .text:00000000000000f8 .L0 
     /tmp/ccAfwIJb.s:215    .text:00000000000000fc .L0 
     /tmp/ccAfwIJb.s:216    .text:0000000000000100 .L0 
     /tmp/ccAfwIJb.s:217    .text:0000000000000100 .L0 
     /tmp/ccAfwIJb.s:218    .text:0000000000000100 .L0 
     /tmp/ccAfwIJb.s:220    .text:0000000000000104 .L0 
     /tmp/ccAfwIJb.s:224    .text:0000000000000108 .L0 
     /tmp/ccAfwIJb.s:226    .text:0000000000000108 .L0 
     /tmp/ccAfwIJb.s:227    .text:0000000000000108 .L0 
     /tmp/ccAfwIJb.s:233    .text:0000000000000118 .L0 
     /tmp/ccAfwIJb.s:235    .text:0000000000000120 .L0 
     /tmp/ccAfwIJb.s:241    .text:0000000000000120 _Z17getBuddyBlockAddrPvm
     /tmp/ccAfwIJb.s:244    .text:0000000000000120 .L0 
     /tmp/ccAfwIJb.s:246    .text:0000000000000120 .L0 
     /tmp/ccAfwIJb.s:247    .text:0000000000000124 .L0 
     /tmp/ccAfwIJb.s:249    .text:0000000000000128 .L0 
     /tmp/ccAfwIJb.s:251    .text:000000000000012c .L0 
     /tmp/ccAfwIJb.s:253    .text:000000000000012c .L0 
     /tmp/ccAfwIJb.s:254    .text:000000000000012c .L0 
     /tmp/ccAfwIJb.s:258    .text:0000000000000134 .L0 
     /tmp/ccAfwIJb.s:259    .text:0000000000000134 .L0 
     /tmp/ccAfwIJb.s:262    .text:0000000000000140 .L0 
GAS LISTING /tmp/ccAfwIJb.s 			page 30


     /tmp/ccAfwIJb.s:265    .text:0000000000000144 .L0 
     /tmp/ccAfwIJb.s:266    .text:0000000000000144 .L0 
     /tmp/ccAfwIJb.s:269    .text:0000000000000148 .L0 
     /tmp/ccAfwIJb.s:271    .text:000000000000014c .L0 
     /tmp/ccAfwIJb.s:272    .text:000000000000014c .L0 
     /tmp/ccAfwIJb.s:276    .text:0000000000000150 .L0 
     /tmp/ccAfwIJb.s:277    .text:0000000000000154 .L0 
     /tmp/ccAfwIJb.s:278    .text:0000000000000154 .L0 
     /tmp/ccAfwIJb.s:279    .text:0000000000000154 .L0 
     /tmp/ccAfwIJb.s:281    .text:0000000000000158 .L0 
     /tmp/ccAfwIJb.s:285    .text:000000000000015c .L0 
     /tmp/ccAfwIJb.s:287    .text:000000000000015c .L0 
     /tmp/ccAfwIJb.s:288    .text:000000000000015c .L0 
     /tmp/ccAfwIJb.s:291    .text:0000000000000164 .L0 
     /tmp/ccAfwIJb.s:297    .text:0000000000000164 _Z5splitPvmmb
     /tmp/ccAfwIJb.s:300    .text:0000000000000164 .L0 
     /tmp/ccAfwIJb.s:302    .text:0000000000000164 .L0 
     /tmp/ccAfwIJb.s:303    .text:0000000000000168 .L0 
     /tmp/ccAfwIJb.s:309    .text:000000000000017c .L0 
     /tmp/ccAfwIJb.s:310    .text:000000000000017c .L0 
     /tmp/ccAfwIJb.s:311    .text:000000000000017c .L0 
     /tmp/ccAfwIJb.s:312    .text:000000000000017c .L0 
     /tmp/ccAfwIJb.s:313    .text:000000000000017c .L0 
     /tmp/ccAfwIJb.s:315    .text:0000000000000180 .L0 
     /tmp/ccAfwIJb.s:319    .text:0000000000000184 .L0 
     /tmp/ccAfwIJb.s:323    .text:000000000000018c .L0 
     /tmp/ccAfwIJb.s:325    .text:0000000000000190 .L0 
     /tmp/ccAfwIJb.s:326    .text:0000000000000190 .L0 
     /tmp/ccAfwIJb.s:332    .text:00000000000001a0 .L0 
     /tmp/ccAfwIJb.s:333    .text:00000000000001a0 .L0 
     /tmp/ccAfwIJb.s:339    .text:00000000000001b4 .L0 
     /tmp/ccAfwIJb.s:340    .text:00000000000001b4 .L0 
     /tmp/ccAfwIJb.s:350    .text:00000000000001cc .L0 
     /tmp/ccAfwIJb.s:351    .text:00000000000001d0 .L0 
     /tmp/ccAfwIJb.s:352    .text:00000000000001d0 .L0 
     /tmp/ccAfwIJb.s:354    .text:00000000000001d4 .L0 
     /tmp/ccAfwIJb.s:355    .text:00000000000001d4 .L0 
     /tmp/ccAfwIJb.s:357    .text:00000000000001d8 .L0 
     /tmp/ccAfwIJb.s:359    .text:00000000000001dc .L0 
     /tmp/ccAfwIJb.s:361    .text:00000000000001e0 .L0 
     /tmp/ccAfwIJb.s:364    .text:00000000000001e4 .L0 
     /tmp/ccAfwIJb.s:368    .text:00000000000001e8 .L0 
     /tmp/ccAfwIJb.s:371    .text:00000000000001e8 .L0 
     /tmp/ccAfwIJb.s:372    .text:00000000000001e8 .L0 
     /tmp/ccAfwIJb.s:378    .text:00000000000001f8 .L0 
     /tmp/ccAfwIJb.s:384    .text:00000000000001f8 _Z11buddy_allocm
     /tmp/ccAfwIJb.s:387    .text:00000000000001f8 .L0 
     /tmp/ccAfwIJb.s:389    .text:00000000000001f8 .L0 
     /tmp/ccAfwIJb.s:390    .text:00000000000001fc .L0 
     /tmp/ccAfwIJb.s:395    .text:000000000000020c .L0 
     /tmp/ccAfwIJb.s:396    .text:000000000000020c .L0 
     /tmp/ccAfwIJb.s:397    .text:000000000000020c .L0 
     /tmp/ccAfwIJb.s:398    .text:000000000000020c .L0 
     /tmp/ccAfwIJb.s:400    .text:0000000000000210 .L0 
     /tmp/ccAfwIJb.s:402    .text:0000000000000210 .L0 
     /tmp/ccAfwIJb.s:403    .text:0000000000000210 .L0 
     /tmp/ccAfwIJb.s:409    .text:000000000000021c .L0 
GAS LISTING /tmp/ccAfwIJb.s 			page 31


     /tmp/ccAfwIJb.s:410    .text:000000000000021c .L0 
     /tmp/ccAfwIJb.s:414    .text:0000000000000220 .L0 
     /tmp/ccAfwIJb.s:415    .text:0000000000000220 .L0 
     /tmp/ccAfwIJb.s:418    .text:000000000000022c .L0 
     /tmp/ccAfwIJb.s:423    .text:0000000000000230 .L0 
     /tmp/ccAfwIJb.s:424    .text:0000000000000230 .L0 
     /tmp/ccAfwIJb.s:429    .text:0000000000000240 .L0 
     /tmp/ccAfwIJb.s:432    .text:0000000000000244 .L0 
     /tmp/ccAfwIJb.s:440    .text:000000000000024c .L0 
     /tmp/ccAfwIJb.s:441    .text:000000000000024c .L0 
     /tmp/ccAfwIJb.s:442    .text:000000000000024c .L0 
     /tmp/ccAfwIJb.s:444    .text:0000000000000250 .L0 
     /tmp/ccAfwIJb.s:449    .text:0000000000000260 .L0 
     /tmp/ccAfwIJb.s:452    .text:0000000000000264 .L0 
     /tmp/ccAfwIJb.s:453    .text:0000000000000264 .L0 
     /tmp/ccAfwIJb.s:460    .text:0000000000000278 .L0 
     /tmp/ccAfwIJb.s:461    .text:0000000000000278 .L0 
     /tmp/ccAfwIJb.s:463    .text:0000000000000280 .L0 
     /tmp/ccAfwIJb.s:466    .text:0000000000000288 .L0 
     /tmp/ccAfwIJb.s:471    .text:0000000000000294 .L0 
     /tmp/ccAfwIJb.s:472    .text:0000000000000294 .L0 
     /tmp/ccAfwIJb.s:476    .text:0000000000000298 .L0 
     /tmp/ccAfwIJb.s:477    .text:0000000000000298 .L0 
     /tmp/ccAfwIJb.s:488    .text:00000000000002ac .L0 
     /tmp/ccAfwIJb.s:492    .text:00000000000002b0 .L0 
     /tmp/ccAfwIJb.s:494    .text:00000000000002b8 .L0 
     /tmp/ccAfwIJb.s:496    .text:00000000000002bc .L0 
     /tmp/ccAfwIJb.s:497    .text:00000000000002bc .L0 
     /tmp/ccAfwIJb.s:499    .text:00000000000002c0 .L0 
     /tmp/ccAfwIJb.s:501    .text:00000000000002c4 .L0 
     /tmp/ccAfwIJb.s:503    .text:00000000000002c8 .L0 
     /tmp/ccAfwIJb.s:505    .text:00000000000002cc .L0 
     /tmp/ccAfwIJb.s:511    .text:00000000000002cc _Z9addBlocksPvm
     /tmp/ccAfwIJb.s:514    .text:00000000000002cc .L0 
     /tmp/ccAfwIJb.s:516    .text:00000000000002cc .L0 
     /tmp/ccAfwIJb.s:517    .text:00000000000002d0 .L0 
     /tmp/ccAfwIJb.s:523    .text:00000000000002e4 .L0 
     /tmp/ccAfwIJb.s:524    .text:00000000000002e4 .L0 
     /tmp/ccAfwIJb.s:525    .text:00000000000002e4 .L0 
     /tmp/ccAfwIJb.s:526    .text:00000000000002e4 .L0 
     /tmp/ccAfwIJb.s:527    .text:00000000000002e4 .L0 
     /tmp/ccAfwIJb.s:529    .text:00000000000002e8 .L0 
     /tmp/ccAfwIJb.s:533    .text:00000000000002f0 .L0 
     /tmp/ccAfwIJb.s:534    .text:00000000000002f0 .L0 
     /tmp/ccAfwIJb.s:537    .text:00000000000002fc .L0 
     /tmp/ccAfwIJb.s:539    .text:0000000000000300 .L0 
     /tmp/ccAfwIJb.s:540    .text:0000000000000300 .L0 
     /tmp/ccAfwIJb.s:543    .text:0000000000000308 .L0 
     /tmp/ccAfwIJb.s:544    .text:0000000000000308 .L0 
     /tmp/ccAfwIJb.s:550    .text:0000000000000318 .L0 
     /tmp/ccAfwIJb.s:551    .text:0000000000000318 .L0 
     /tmp/ccAfwIJb.s:555    .text:000000000000031c .L0 
     /tmp/ccAfwIJb.s:556    .text:000000000000031c .L0 
     /tmp/ccAfwIJb.s:558    .text:0000000000000320 .L0 
     /tmp/ccAfwIJb.s:561    .text:0000000000000324 .L0 
     /tmp/ccAfwIJb.s:562    .text:0000000000000324 .L0 
     /tmp/ccAfwIJb.s:563    .text:0000000000000324 .L0 
GAS LISTING /tmp/ccAfwIJb.s 			page 32


     /tmp/ccAfwIJb.s:565    .text:0000000000000328 .L0 
     /tmp/ccAfwIJb.s:568    .text:000000000000032c .L0 
     /tmp/ccAfwIJb.s:572    .text:0000000000000330 .L0 
     /tmp/ccAfwIJb.s:573    .text:0000000000000330 .L0 
     /tmp/ccAfwIJb.s:576    .text:0000000000000338 .L0 
     /tmp/ccAfwIJb.s:580    .text:000000000000033c .L0 
     /tmp/ccAfwIJb.s:582    .text:0000000000000340 .L0 
     /tmp/ccAfwIJb.s:583    .text:0000000000000340 .L0 
     /tmp/ccAfwIJb.s:585    .text:0000000000000344 .L0 
     /tmp/ccAfwIJb.s:587    .text:0000000000000348 .L0 
     /tmp/ccAfwIJb.s:588    .text:0000000000000348 .L0 
     /tmp/ccAfwIJb.s:593    .text:0000000000000358 .L0 
     /tmp/ccAfwIJb.s:597    .text:000000000000035c .L0 
     /tmp/ccAfwIJb.s:599    .text:0000000000000360 .L0 
     /tmp/ccAfwIJb.s:600    .text:0000000000000360 .L0 
     /tmp/ccAfwIJb.s:609    .text:0000000000000374 .L0 
     /tmp/ccAfwIJb.s:610    .text:0000000000000374 .L0 
     /tmp/ccAfwIJb.s:619    .text:0000000000000388 .L0 
     /tmp/ccAfwIJb.s:620    .text:0000000000000388 .L0 
     /tmp/ccAfwIJb.s:623    .text:000000000000038c .L0 
     /tmp/ccAfwIJb.s:625    .text:0000000000000390 .L0 
     /tmp/ccAfwIJb.s:626    .text:0000000000000390 .L0 
     /tmp/ccAfwIJb.s:635    .text:00000000000003a4 .L0 
     /tmp/ccAfwIJb.s:636    .text:00000000000003a4 .L0 
     /tmp/ccAfwIJb.s:641    .text:00000000000003b4 .L0 
     /tmp/ccAfwIJb.s:646    .text:00000000000003bc .L0 
     /tmp/ccAfwIJb.s:647    .text:00000000000003bc .L0 
     /tmp/ccAfwIJb.s:651    .text:00000000000003c8 .L0 
     /tmp/ccAfwIJb.s:655    .text:00000000000003cc .L0 
     /tmp/ccAfwIJb.s:656    .text:00000000000003cc .L0 
     /tmp/ccAfwIJb.s:663    .text:00000000000003dc .L0 
     /tmp/ccAfwIJb.s:664    .text:00000000000003e0 .L0 
     /tmp/ccAfwIJb.s:666    .text:00000000000003e4 .L0 
     /tmp/ccAfwIJb.s:667    .text:00000000000003e4 .L0 
     /tmp/ccAfwIJb.s:669    .text:00000000000003e8 .L0 
     /tmp/ccAfwIJb.s:672    .text:00000000000003ec .L0 
     /tmp/ccAfwIJb.s:675    .text:00000000000003f0 .L0 
     /tmp/ccAfwIJb.s:677    .text:00000000000003f4 .L0 
     /tmp/ccAfwIJb.s:679    .text:00000000000003f8 .L0 
     /tmp/ccAfwIJb.s:685    .text:00000000000003f8 _Z10buddy_initPvm
     /tmp/ccAfwIJb.s:688    .text:00000000000003f8 .L0 
     /tmp/ccAfwIJb.s:690    .text:00000000000003f8 .L0 
     /tmp/ccAfwIJb.s:691    .text:00000000000003fc .L0 
     /tmp/ccAfwIJb.s:697    .text:0000000000000410 .L0 
     /tmp/ccAfwIJb.s:698    .text:0000000000000410 .L0 
     /tmp/ccAfwIJb.s:699    .text:0000000000000410 .L0 
     /tmp/ccAfwIJb.s:700    .text:0000000000000410 .L0 
     /tmp/ccAfwIJb.s:701    .text:0000000000000410 .L0 
     /tmp/ccAfwIJb.s:703    .text:0000000000000414 .L0 
     /tmp/ccAfwIJb.s:706    .text:0000000000000418 .L0 
     /tmp/ccAfwIJb.s:707    .text:0000000000000418 .L0 
     /tmp/ccAfwIJb.s:711    .text:0000000000000424 .L0 
     /tmp/ccAfwIJb.s:712    .text:0000000000000424 .L0 
     /tmp/ccAfwIJb.s:714    .text:0000000000000428 .L0 
     /tmp/ccAfwIJb.s:715    .text:0000000000000428 .L0 
     /tmp/ccAfwIJb.s:720    .text:0000000000000434 .L0 
     /tmp/ccAfwIJb.s:721    .text:0000000000000434 .L0 
GAS LISTING /tmp/ccAfwIJb.s 			page 33


     /tmp/ccAfwIJb.s:725    .text:0000000000000438 .L0 
     /tmp/ccAfwIJb.s:726    .text:0000000000000438 .L0 
     /tmp/ccAfwIJb.s:729    .text:000000000000043c .L0 
     /tmp/ccAfwIJb.s:730    .text:000000000000043c .L0 
     /tmp/ccAfwIJb.s:733    .text:0000000000000448 .L0 
     /tmp/ccAfwIJb.s:734    .text:0000000000000448 .L0 
     /tmp/ccAfwIJb.s:738    .text:0000000000000454 .L0 
     /tmp/ccAfwIJb.s:740    .text:0000000000000458 .L0 
     /tmp/ccAfwIJb.s:741    .text:0000000000000458 .L0 
     /tmp/ccAfwIJb.s:743    .text:000000000000045c .L0 
     /tmp/ccAfwIJb.s:744    .text:000000000000045c .L0 
     /tmp/ccAfwIJb.s:746    .text:0000000000000460 .L0 
     /tmp/ccAfwIJb.s:747    .text:0000000000000460 .L0 
     /tmp/ccAfwIJb.s:751    .text:000000000000046c .L0 
     /tmp/ccAfwIJb.s:755    .text:0000000000000470 .L0 
     /tmp/ccAfwIJb.s:756    .text:0000000000000470 .L0 
     /tmp/ccAfwIJb.s:760    .text:0000000000000474 .L0 
     /tmp/ccAfwIJb.s:761    .text:0000000000000474 .L0 
     /tmp/ccAfwIJb.s:763    .text:0000000000000478 .L0 
     /tmp/ccAfwIJb.s:765    .text:000000000000047c .L0 
     /tmp/ccAfwIJb.s:766    .text:000000000000047c .L0 
     /tmp/ccAfwIJb.s:771    .text:000000000000048c .L0 
     /tmp/ccAfwIJb.s:773    .text:0000000000000490 .L0 
     /tmp/ccAfwIJb.s:780    .text:0000000000000498 .L0 
     /tmp/ccAfwIJb.s:784    .text:000000000000049c .L0 
     /tmp/ccAfwIJb.s:786    .text:00000000000004a0 .L0 
     /tmp/ccAfwIJb.s:787    .text:00000000000004a0 .L0 
     /tmp/ccAfwIJb.s:790    .text:00000000000004ac .L0 
     /tmp/ccAfwIJb.s:792    .text:00000000000004b0 .L0 
     /tmp/ccAfwIJb.s:797    .text:00000000000004c0 .L0 
     /tmp/ccAfwIJb.s:803    .text:00000000000004c8 .L0 
     /tmp/ccAfwIJb.s:804    .text:00000000000004c8 .L0 
     /tmp/ccAfwIJb.s:806    .text:00000000000004d4 .L0 
     /tmp/ccAfwIJb.s:808    .text:00000000000004d8 .L0 
     /tmp/ccAfwIJb.s:809    .text:00000000000004d8 .L0 
     /tmp/ccAfwIJb.s:811    .text:00000000000004dc .L0 
     /tmp/ccAfwIJb.s:814    .text:00000000000004e0 .L0 
     /tmp/ccAfwIJb.s:817    .text:00000000000004e4 .L0 
     /tmp/ccAfwIJb.s:820    .text:00000000000004e8 .L0 
     /tmp/ccAfwIJb.s:822    .text:00000000000004ec .L0 
     /tmp/ccAfwIJb.s:828    .text:00000000000004ec _Z10buddy_freePvm
     /tmp/ccAfwIJb.s:831    .text:00000000000004ec .L0 
     /tmp/ccAfwIJb.s:833    .text:00000000000004ec .L0 
     /tmp/ccAfwIJb.s:834    .text:00000000000004f0 .L0 
     /tmp/ccAfwIJb.s:839    .text:0000000000000500 .L0 
     /tmp/ccAfwIJb.s:840    .text:0000000000000500 .L0 
     /tmp/ccAfwIJb.s:841    .text:0000000000000500 .L0 
     /tmp/ccAfwIJb.s:842    .text:0000000000000500 .L0 
     /tmp/ccAfwIJb.s:844    .text:0000000000000504 .L0 
     /tmp/ccAfwIJb.s:847    .text:0000000000000508 .L0 
     /tmp/ccAfwIJb.s:848    .text:0000000000000508 .L0 
     /tmp/ccAfwIJb.s:855    .text:0000000000000518 .L0 
     /tmp/ccAfwIJb.s:856    .text:0000000000000518 .L0 
     /tmp/ccAfwIJb.s:861    .text:0000000000000528 .L0 
     /tmp/ccAfwIJb.s:862    .text:0000000000000528 .L0 
     /tmp/ccAfwIJb.s:864    .text:0000000000000530 .L0 
     /tmp/ccAfwIJb.s:867    .text:0000000000000538 .L0 
GAS LISTING /tmp/ccAfwIJb.s 			page 34


     /tmp/ccAfwIJb.s:872    .text:0000000000000544 .L0 
     /tmp/ccAfwIJb.s:873    .text:0000000000000548 .L0 
     /tmp/ccAfwIJb.s:875    .text:000000000000054c .L0 
     /tmp/ccAfwIJb.s:876    .text:000000000000054c .L0 
     /tmp/ccAfwIJb.s:878    .text:0000000000000550 .L0 
     /tmp/ccAfwIJb.s:880    .text:0000000000000554 .L0 
     /tmp/ccAfwIJb.s:883    .text:0000000000000558 .L0 
     /tmp/ccAfwIJb.s:885    .text:000000000000055c .L0 
     /tmp/ccAfwIJb.s:917    .text:000000000000055c _Z14printBuddyInfov
     /tmp/ccAfwIJb.s:920    .text:000000000000055c .L0 
     /tmp/ccAfwIJb.s:921    .text:000000000000055c .L0 
     /tmp/ccAfwIJb.s:922    .text:0000000000000560 .L0 
     /tmp/ccAfwIJb.s:927    .text:0000000000000570 .L0 
     /tmp/ccAfwIJb.s:928    .text:0000000000000570 .L0 
     /tmp/ccAfwIJb.s:929    .text:0000000000000570 .L0 
     /tmp/ccAfwIJb.s:930    .text:0000000000000570 .L0 
     /tmp/ccAfwIJb.s:932    .text:0000000000000574 .L0 
     /tmp/ccAfwIJb.s:934    .text:0000000000000574 .L0 
     /tmp/ccAfwIJb.s:935    .text:0000000000000574 .L0 
     /tmp/ccAfwIJb.s:939    .text:0000000000000584 .L0 
     /tmp/ccAfwIJb.s:940    .text:0000000000000584 .L0 
     /tmp/ccAfwIJb.s:943    .text:0000000000000590 .L0 
     /tmp/ccAfwIJb.s:949    .text:00000000000005a8 .L0 
     /tmp/ccAfwIJb.s:950    .text:00000000000005a8 .L0 
     /tmp/ccAfwIJb.s:957    .text:00000000000005c4 .L0 
     /tmp/ccAfwIJb.s:958    .text:00000000000005c4 .L0 
     /tmp/ccAfwIJb.s:966    .text:00000000000005e0 .L0 
     /tmp/ccAfwIJb.s:967    .text:00000000000005e0 .L0 
     /tmp/ccAfwIJb.s:969    .text:00000000000005e4 .L0 
     /tmp/ccAfwIJb.s:975    .text:00000000000005ec .L0 
     /tmp/ccAfwIJb.s:979    .text:00000000000005f0 .L0 
     /tmp/ccAfwIJb.s:982    .text:00000000000005f4 .L0 
     /tmp/ccAfwIJb.s:983    .text:00000000000005f4 .L0 
     /tmp/ccAfwIJb.s:989    .text:000000000000060c .L0 
     /tmp/ccAfwIJb.s:990    .text:000000000000060c .L0 
     /tmp/ccAfwIJb.s:994    .text:000000000000061c .L0 
     /tmp/ccAfwIJb.s:995    .text:000000000000061c .L0 
     /tmp/ccAfwIJb.s:1003   .text:0000000000000634 .L0 
     /tmp/ccAfwIJb.s:1004   .text:0000000000000634 .L0 
     /tmp/ccAfwIJb.s:1006   .text:0000000000000638 .L0 
     /tmp/ccAfwIJb.s:1007   .text:0000000000000638 .L0 
     /tmp/ccAfwIJb.s:1013   .text:000000000000064c .L0 
     /tmp/ccAfwIJb.s:1014   .text:000000000000064c .L0 
     /tmp/ccAfwIJb.s:1018   .text:000000000000065c .L0 
     /tmp/ccAfwIJb.s:1019   .text:000000000000065c .L0 
     /tmp/ccAfwIJb.s:1022   .text:0000000000000660 .L0 
     /tmp/ccAfwIJb.s:1028   .text:0000000000000664 .L0 
     /tmp/ccAfwIJb.s:1029   .text:0000000000000664 .L0 
     /tmp/ccAfwIJb.s:1033   .text:0000000000000674 .L0 
     /tmp/ccAfwIJb.s:1034   .text:0000000000000678 .L0 
     /tmp/ccAfwIJb.s:1036   .text:000000000000067c .L0 
     /tmp/ccAfwIJb.s:1037   .text:000000000000067c .L0 
     /tmp/ccAfwIJb.s:1039   .text:0000000000000680 .L0 
     /tmp/ccAfwIJb.s:1041   .text:0000000000000684 .L0 
     /tmp/ccAfwIJb.s:1044   .text:0000000000000688 .L0 
     /tmp/ccAfwIJb.s:1046   .text:000000000000068c .L0 
     /tmp/ccAfwIJb.s:1052   .text:000000000000068c _Z8getBuddyv
GAS LISTING /tmp/ccAfwIJb.s 			page 35


     /tmp/ccAfwIJb.s:1055   .text:000000000000068c .L0 
     /tmp/ccAfwIJb.s:1056   .text:000000000000068c .L0 
     /tmp/ccAfwIJb.s:1057   .text:0000000000000690 .L0 
     /tmp/ccAfwIJb.s:1059   .text:0000000000000694 .L0 
     /tmp/ccAfwIJb.s:1061   .text:0000000000000698 .L0 
     /tmp/ccAfwIJb.s:1063   .text:0000000000000698 .L0 
     /tmp/ccAfwIJb.s:1064   .text:0000000000000698 .L0 
     /tmp/ccAfwIJb.s:1066   .text:00000000000006a4 .L0 
     /tmp/ccAfwIJb.s:1067   .text:00000000000006a4 .L0 
     /tmp/ccAfwIJb.s:1069   .text:00000000000006a8 .L0 
     /tmp/ccAfwIJb.s:1071   .text:00000000000006ac .L0 
     /tmp/ccAfwIJb.s:1076   .bss:0000000000000000 .LANCHOR0
     /tmp/ccAfwIJb.s:1079   .bss:0000000000000000 _ZL5buddy
     /tmp/ccAfwIJb.s:1088   .text:00000000000006ac .L0 
     /tmp/ccAfwIJb.s:193    .text:00000000000000c8 .L0 
     /tmp/ccAfwIJb.s:259    .text:0000000000000134 .L0 
     /tmp/ccAfwIJb.s:415    .text:0000000000000220 .L0 
     /tmp/ccAfwIJb.s:461    .text:0000000000000278 .L0 
     /tmp/ccAfwIJb.s:534    .text:00000000000002f0 .L0 
     /tmp/ccAfwIJb.s:731    .text:0000000000000440 .L0 
     /tmp/ccAfwIJb.s:787    .text:00000000000004a0 .L0 
     /tmp/ccAfwIJb.s:804    .text:00000000000004c8 .L0 
     /tmp/ccAfwIJb.s:862    .text:0000000000000528 .L0 
     /tmp/ccAfwIJb.s:890    .rodata.str1.8:0000000000000000 .LC0
     /tmp/ccAfwIJb.s:935    .text:0000000000000574 .L0 
     /tmp/ccAfwIJb.s:940    .text:0000000000000584 .L0 
     /tmp/ccAfwIJb.s:893    .rodata.str1.8:0000000000000038 .LC1
     /tmp/ccAfwIJb.s:945    .text:0000000000000598 .L0 
     /tmp/ccAfwIJb.s:896    .rodata.str1.8:0000000000000050 .LC2
     /tmp/ccAfwIJb.s:953    .text:00000000000005b4 .L0 
     /tmp/ccAfwIJb.s:899    .rodata.str1.8:0000000000000068 .LC3
     /tmp/ccAfwIJb.s:961    .text:00000000000005d0 .L0 
     /tmp/ccAfwIJb.s:902    .rodata.str1.8:0000000000000088 .LC4
     /tmp/ccAfwIJb.s:985    .text:00000000000005fc .L0 
     /tmp/ccAfwIJb.s:905    .rodata.str1.8:0000000000000090 .LC5
     /tmp/ccAfwIJb.s:990    .text:000000000000060c .L0 
     /tmp/ccAfwIJb.s:997    .text:0000000000000624 .L0 
     /tmp/ccAfwIJb.s:908    .rodata.str1.8:00000000000000b0 .LC6
     /tmp/ccAfwIJb.s:1014   .text:000000000000064c .L0 
     /tmp/ccAfwIJb.s:911    .rodata.str1.8:00000000000000b8 .LC7
     /tmp/ccAfwIJb.s:1029   .text:0000000000000664 .L0 
     /tmp/ccAfwIJb.s:1064   .text:0000000000000698 .L0 
     /tmp/ccAfwIJb.s:109    .text:0000000000000074 .L6
     /tmp/ccAfwIJb.s:95     .text:0000000000000064 .L7
     /tmp/ccAfwIJb.s:161    .text:00000000000000ac .L9
     /tmp/ccAfwIJb.s:147    .text:000000000000009c .L11
     /tmp/ccAfwIJb.s:223    .text:0000000000000108 .L17
     /tmp/ccAfwIJb.s:213    .text:00000000000000fc .L13
     /tmp/ccAfwIJb.s:284    .text:000000000000015c .L19
     /tmp/ccAfwIJb.s:274    .text:0000000000000150 .L18
     /tmp/ccAfwIJb.s:367    .text:00000000000001e8 .L26
     /tmp/ccAfwIJb.s:346    .text:00000000000001cc .L22
     /tmp/ccAfwIJb.s:483    .text:00000000000002ac .L32
     /tmp/ccAfwIJb.s:435    .text:000000000000024c .L34
     /tmp/ccAfwIJb.s:412    .text:0000000000000220 .L31
     /tmp/ccAfwIJb.s:474    .text:0000000000000298 .L35
     /tmp/ccAfwIJb.s:490    .text:00000000000002b0 .L27
GAS LISTING /tmp/ccAfwIJb.s 			page 36


     /tmp/ccAfwIJb.s:450    .text:0000000000000264 .L30
     /tmp/ccAfwIJb.s:570    .text:0000000000000330 .L48
     /tmp/ccAfwIJb.s:653    .text:00000000000003cc .L39
     /tmp/ccAfwIJb.s:578    .text:000000000000033c .L49
     /tmp/ccAfwIJb.s:553    .text:000000000000031c .L46
     /tmp/ccAfwIJb.s:661    .text:00000000000003dc .L36
     /tmp/ccAfwIJb.s:617    .text:0000000000000388 .L41
     /tmp/ccAfwIJb.s:607    .text:0000000000000374 .L50
     /tmp/ccAfwIJb.s:644    .text:00000000000003bc .L44
     /tmp/ccAfwIJb.s:595    .text:000000000000035c .L42
     /tmp/ccAfwIJb.s:633    .text:00000000000003a4 .L51
     /tmp/ccAfwIJb.s:723    .text:0000000000000438 .L53
     /tmp/ccAfwIJb.s:776    .text:0000000000000498 .L57
     /tmp/ccAfwIJb.s:758    .text:0000000000000474 .L55
     /tmp/ccAfwIJb.s:800    .text:00000000000004c8 .L56
     /tmp/ccAfwIJb.s:782    .text:000000000000049c .L54
     /tmp/ccAfwIJb.s:977    .text:00000000000005f0 .L65
     /tmp/ccAfwIJb.s:1024   .text:0000000000000664 .L62
     /tmp/ccAfwIJb.s:973    .text:00000000000005ec .L63
     /tmp/ccAfwIJb.s:1001   .text:0000000000000634 .L64
     /tmp/ccAfwIJb.s:3166   .debug_abbrev:0000000000000000 .Ldebug_abbrev0
     /tmp/ccAfwIJb.s:4888   .debug_str:00000000000003fc .LASF225
     /tmp/ccAfwIJb.s:5008   .debug_str:00000000000008c5 .LASF226
     /tmp/ccAfwIJb.s:4886   .debug_str:00000000000003de .LASF227
     /tmp/ccAfwIJb.s:5      .text:0000000000000000 .Ltext0
     /tmp/ccAfwIJb.s:1082   .text:00000000000006ac .Letext0
     /tmp/ccAfwIJb.s:4762   .debug_line:0000000000000000 .Ldebug_line0
     /tmp/ccAfwIJb.s:4910   .debug_str:0000000000000565 .LASF0
     /tmp/ccAfwIJb.s:4936   .debug_str:0000000000000658 .LASF1
     /tmp/ccAfwIJb.s:5058   .debug_str:0000000000000a76 .LASF2
     /tmp/ccAfwIJb.s:5072   .debug_str:0000000000000ae9 .LASF4
     /tmp/ccAfwIJb.s:4922   .debug_str:00000000000005c1 .LASF3
     /tmp/ccAfwIJb.s:4780   .debug_str:000000000000007c .LASF5
     /tmp/ccAfwIJb.s:5022   .debug_str:0000000000000943 .LASF6
     /tmp/ccAfwIJb.s:4928   .debug_str:0000000000000609 .LASF7
     /tmp/ccAfwIJb.s:4884   .debug_str:00000000000003ce .LASF8
     /tmp/ccAfwIJb.s:4894   .debug_str:00000000000004e9 .LASF9
     /tmp/ccAfwIJb.s:4822   .debug_str:000000000000021f .LASF10
     /tmp/ccAfwIJb.s:5112   .debug_str:0000000000000c4f .LASF11
     /tmp/ccAfwIJb.s:4876   .debug_str:0000000000000396 .LASF12
     /tmp/ccAfwIJb.s:4836   .debug_str:000000000000026b .LASF13
     /tmp/ccAfwIJb.s:4820   .debug_str:000000000000020f .LASF14
     /tmp/ccAfwIJb.s:5116   .debug_str:0000000000000c84 .LASF15
     /tmp/ccAfwIJb.s:4864   .debug_str:0000000000000341 .LASF16
     /tmp/ccAfwIJb.s:5102   .debug_str:0000000000000be9 .LASF17
     /tmp/ccAfwIJb.s:4908   .debug_str:000000000000055f .LASF18
     /tmp/ccAfwIJb.s:5130   .debug_str:0000000000000cc7 .LASF19
     /tmp/ccAfwIJb.s:5026   .debug_str:000000000000095e .LASF20
     /tmp/ccAfwIJb.s:4824   .debug_str:000000000000022e .LASF22
     /tmp/ccAfwIJb.s:5050   .debug_str:0000000000000a38 .LASF21
     /tmp/ccAfwIJb.s:5126   .debug_str:0000000000000cbb .LASF23
     /tmp/ccAfwIJb.s:4948   .debug_str:00000000000006b2 .LASF24
     /tmp/ccAfwIJb.s:4962   .debug_str:0000000000000741 .LASF25
     /tmp/ccAfwIJb.s:4970   .debug_str:0000000000000773 .LASF26
     /tmp/ccAfwIJb.s:5138   .debug_str:0000000000000ce5 .LASF27
     /tmp/ccAfwIJb.s:5164   .debug_str:0000000000000db9 .LASF28
     /tmp/ccAfwIJb.s:4940   .debug_str:0000000000000676 .LASF29
GAS LISTING /tmp/ccAfwIJb.s 			page 37


     /tmp/ccAfwIJb.s:4870   .debug_str:0000000000000369 .LASF30
     /tmp/ccAfwIJb.s:5134   .debug_str:0000000000000cd7 .LASF228
     /tmp/ccAfwIJb.s:5128   .debug_str:0000000000000cc1 .LASF31
     /tmp/ccAfwIJb.s:5090   .debug_str:0000000000000b7d .LASF32
     /tmp/ccAfwIJb.s:4830   .debug_str:0000000000000245 .LASF33
     /tmp/ccAfwIJb.s:4806   .debug_str:0000000000000173 .LASF34
     /tmp/ccAfwIJb.s:5024   .debug_str:0000000000000956 .LASF35
     /tmp/ccAfwIJb.s:4828   .debug_str:000000000000023c .LASF36
     /tmp/ccAfwIJb.s:5124   .debug_str:0000000000000cb3 .LASF37
     /tmp/ccAfwIJb.s:4904   .debug_str:0000000000000549 .LASF38
     /tmp/ccAfwIJb.s:4782   .debug_str:0000000000000083 .LASF44
     /tmp/ccAfwIJb.s:5152   .debug_str:0000000000000d47 .LASF229
     /tmp/ccAfwIJb.s:5012   .debug_str:00000000000008f3 .LASF39
     /tmp/ccAfwIJb.s:4934   .debug_str:0000000000000653 .LASF40
     /tmp/ccAfwIJb.s:5210   .debug_str:0000000000000f05 .LASF42
     /tmp/ccAfwIJb.s:5206   .debug_str:0000000000000ee9 .LASF41
     /tmp/ccAfwIJb.s:5140   .debug_str:0000000000000cef .LASF43
     /tmp/ccAfwIJb.s:4852   .debug_str:000000000000030b .LASF67
     /tmp/ccAfwIJb.s:4788   .debug_str:00000000000000bc .LASF69
     /tmp/ccAfwIJb.s:5136   .debug_str:0000000000000cdd .LASF45
     /tmp/ccAfwIJb.s:5080   .debug_str:0000000000000b28 .LASF46
     /tmp/ccAfwIJb.s:4944   .debug_str:000000000000068d .LASF49
     /tmp/ccAfwIJb.s:4952   .debug_str:00000000000006d3 .LASF51
     /tmp/ccAfwIJb.s:5218   .debug_str:0000000000000f53 .LASF47
     /tmp/ccAfwIJb.s:4866   .debug_str:0000000000000357 .LASF48
     /tmp/ccAfwIJb.s:4774   .debug_str:0000000000000059 .LASF93
     /tmp/ccAfwIJb.s:4920   .debug_str:00000000000005b4 .LASF95
     /tmp/ccAfwIJb.s:5082   .debug_str:0000000000000b39 .LASF50
     /tmp/ccAfwIJb.s:4988   .debug_str:0000000000000802 .LASF52
     /tmp/ccAfwIJb.s:5066   .debug_str:0000000000000aaf .LASF53
     /tmp/ccAfwIJb.s:5110   .debug_str:0000000000000c33 .LASF54
     /tmp/ccAfwIJb.s:4990   .debug_str:0000000000000815 .LASF55
     /tmp/ccAfwIJb.s:4768   .debug_str:000000000000001b .LASF56
     /tmp/ccAfwIJb.s:5194   .debug_str:0000000000000e96 .LASF57
     /tmp/ccAfwIJb.s:5020   .debug_str:0000000000000929 .LASF58
     /tmp/ccAfwIJb.s:5100   .debug_str:0000000000000bdb .LASF59
     /tmp/ccAfwIJb.s:5034   .debug_str:0000000000000991 .LASF60
     /tmp/ccAfwIJb.s:4848   .debug_str:00000000000002f1 .LASF61
     /tmp/ccAfwIJb.s:4878   .debug_str:00000000000003a5 .LASF62
     /tmp/ccAfwIJb.s:5054   .debug_str:0000000000000a54 .LASF63
     /tmp/ccAfwIJb.s:5196   .debug_str:0000000000000ea5 .LASF64
     /tmp/ccAfwIJb.s:5198   .debug_str:0000000000000eb4 .LASF65
     /tmp/ccAfwIJb.s:4924   .debug_str:00000000000005d3 .LASF66
     /tmp/ccAfwIJb.s:5096   .debug_str:0000000000000bbe .LASF68
     /tmp/ccAfwIJb.s:5208   .debug_str:0000000000000eef .LASF70
     /tmp/ccAfwIJb.s:4896   .debug_str:00000000000004f7 .LASF71
     /tmp/ccAfwIJb.s:4842   .debug_str:00000000000002b1 .LASF72
     /tmp/ccAfwIJb.s:5078   .debug_str:0000000000000b20 .LASF73
     /tmp/ccAfwIJb.s:4912   .debug_str:0000000000000572 .LASF74
     /tmp/ccAfwIJb.s:5000   .debug_str:0000000000000859 .LASF75
     /tmp/ccAfwIJb.s:4840   .debug_str:000000000000029f .LASF76
     /tmp/ccAfwIJb.s:5042   .debug_str:00000000000009e3 .LASF77
     /tmp/ccAfwIJb.s:5226   .debug_str:0000000000000f8a .LASF78
     /tmp/ccAfwIJb.s:5004   .debug_str:0000000000000885 .LASF79
     /tmp/ccAfwIJb.s:5064   .debug_str:0000000000000a9c .LASF80
     /tmp/ccAfwIJb.s:5084   .debug_str:0000000000000b42 .LASF81
     /tmp/ccAfwIJb.s:5170   .debug_str:0000000000000dda .LASF82
GAS LISTING /tmp/ccAfwIJb.s 			page 38


     /tmp/ccAfwIJb.s:4974   .debug_str:0000000000000793 .LASF83
     /tmp/ccAfwIJb.s:5154   .debug_str:0000000000000d5f .LASF84
     /tmp/ccAfwIJb.s:5108   .debug_str:0000000000000c13 .LASF85
     /tmp/ccAfwIJb.s:5016   .debug_str:0000000000000902 .LASF86
     /tmp/ccAfwIJb.s:5006   .debug_str:00000000000008a6 .LASF87
     /tmp/ccAfwIJb.s:4858   .debug_str:000000000000031f .LASF88
     /tmp/ccAfwIJb.s:4916   .debug_str:0000000000000598 .LASF89
     /tmp/ccAfwIJb.s:4978   .debug_str:00000000000007d0 .LASF90
     /tmp/ccAfwIJb.s:5142   .debug_str:0000000000000cff .LASF91
     /tmp/ccAfwIJb.s:4880   .debug_str:00000000000003b5 .LASF92
     /tmp/ccAfwIJb.s:5204   .debug_str:0000000000000edb .LASF94
     /tmp/ccAfwIJb.s:4798   .debug_str:000000000000011e .LASF96
     /tmp/ccAfwIJb.s:4872   .debug_str:0000000000000370 .LASF97
     /tmp/ccAfwIJb.s:4816   .debug_str:00000000000001d8 .LASF98
     /tmp/ccAfwIJb.s:5192   .debug_str:0000000000000e8f .LASF99
     /tmp/ccAfwIJb.s:4814   .debug_str:00000000000001c7 .LASF100
     /tmp/ccAfwIJb.s:4772   .debug_str:0000000000000054 .LASF101
     /tmp/ccAfwIJb.s:5166   .debug_str:0000000000000dc9 .LASF102
     /tmp/ccAfwIJb.s:4958   .debug_str:000000000000072c .LASF103
     /tmp/ccAfwIJb.s:4856   .debug_str:0000000000000319 .LASF104
     /tmp/ccAfwIJb.s:5150   .debug_str:0000000000000d3f .LASF105
     /tmp/ccAfwIJb.s:4804   .debug_str:0000000000000162 .LASF106
     /tmp/ccAfwIJb.s:4968   .debug_str:000000000000076e .LASF107
     /tmp/ccAfwIJb.s:5048   .debug_str:0000000000000a2d .LASF108
     /tmp/ccAfwIJb.s:4892   .debug_str:00000000000004d5 .LASF109
     /tmp/ccAfwIJb.s:5060   .debug_str:0000000000000a84 .LASF110
     /tmp/ccAfwIJb.s:5046   .debug_str:0000000000000a19 .LASF111
     /tmp/ccAfwIJb.s:4854   .debug_str:0000000000000314 .LASF112
     /tmp/ccAfwIJb.s:5094   .debug_str:0000000000000ba7 .LASF113
     /tmp/ccAfwIJb.s:5120   .debug_str:0000000000000ca3 .LASF114
     /tmp/ccAfwIJb.s:4994   .debug_str:000000000000082d .LASF115
     /tmp/ccAfwIJb.s:4766   .debug_str:000000000000000f .LASF116
     /tmp/ccAfwIJb.s:5062   .debug_str:0000000000000a90 .LASF117
     /tmp/ccAfwIJb.s:4972   .debug_str:000000000000077f .LASF118
     /tmp/ccAfwIJb.s:5056   .debug_str:0000000000000a61 .LASF119
     /tmp/ccAfwIJb.s:4826   .debug_str:0000000000000233 .LASF120
     /tmp/ccAfwIJb.s:4832   .debug_str:000000000000024f .LASF121
     /tmp/ccAfwIJb.s:4992   .debug_str:0000000000000824 .LASF122
     /tmp/ccAfwIJb.s:5070   .debug_str:0000000000000ade .LASF123
     /tmp/ccAfwIJb.s:4764   .debug_str:0000000000000000 .LASF124
     /tmp/ccAfwIJb.s:4900   .debug_str:0000000000000513 .LASF125
     /tmp/ccAfwIJb.s:5148   .debug_str:0000000000000d30 .LASF126
     /tmp/ccAfwIJb.s:5114   .debug_str:0000000000000c62 .LASF127
     /tmp/ccAfwIJb.s:5086   .debug_str:0000000000000b60 .LASF128
     /tmp/ccAfwIJb.s:4838   .debug_str:000000000000027b .LASF129
     /tmp/ccAfwIJb.s:5010   .debug_str:00000000000008e3 .LASF130
     /tmp/ccAfwIJb.s:5038   .debug_str:00000000000009af .LASF131
     /tmp/ccAfwIJb.s:5220   .debug_str:0000000000000f60 .LASF132
     /tmp/ccAfwIJb.s:4776   .debug_str:0000000000000069 .LASF133
     /tmp/ccAfwIJb.s:4956   .debug_str:0000000000000712 .LASF134
     /tmp/ccAfwIJb.s:5216   .debug_str:0000000000000f43 .LASF135
     /tmp/ccAfwIJb.s:5074   .debug_str:0000000000000af0 .LASF136
     /tmp/ccAfwIJb.s:5118   .debug_str:0000000000000c90 .LASF137
     /tmp/ccAfwIJb.s:5068   .debug_str:0000000000000ab8 .LASF138
     /tmp/ccAfwIJb.s:5222   .debug_str:0000000000000f78 .LASF139
     /tmp/ccAfwIJb.s:4932   .debug_str:000000000000062f .LASF140
     /tmp/ccAfwIJb.s:4996   .debug_str:0000000000000846 .LASF141
GAS LISTING /tmp/ccAfwIJb.s 			page 39


     /tmp/ccAfwIJb.s:4802   .debug_str:0000000000000152 .LASF142
     /tmp/ccAfwIJb.s:5144   .debug_str:0000000000000d09 .LASF143
     /tmp/ccAfwIJb.s:5076   .debug_str:0000000000000b13 .LASF144
     /tmp/ccAfwIJb.s:4770   .debug_str:0000000000000035 .LASF145
     /tmp/ccAfwIJb.s:4796   .debug_str:000000000000010b .LASF146
     /tmp/ccAfwIJb.s:4954   .debug_str:00000000000006eb .LASF147
     /tmp/ccAfwIJb.s:5018   .debug_str:0000000000000916 .LASF148
     /tmp/ccAfwIJb.s:4902   .debug_str:0000000000000535 .LASF149
     /tmp/ccAfwIJb.s:5014   .debug_str:00000000000008f8 .LASF150
     /tmp/ccAfwIJb.s:4938   .debug_str:000000000000066b .LASF151
     /tmp/ccAfwIJb.s:5032   .debug_str:0000000000000987 .LASF152
     /tmp/ccAfwIJb.s:5172   .debug_str:0000000000000ded .LASF153
     /tmp/ccAfwIJb.s:5122   .debug_str:0000000000000caa .LASF154
     /tmp/ccAfwIJb.s:5132   .debug_str:0000000000000ccc .LASF155
     /tmp/ccAfwIJb.s:5168   .debug_str:0000000000000dce .LASF156
     /tmp/ccAfwIJb.s:5180   .debug_str:0000000000000e16 .LASF157
     /tmp/ccAfwIJb.s:4980   .debug_str:00000000000007d8 .LASF158
     /tmp/ccAfwIJb.s:5030   .debug_str:000000000000097b .LASF159
     /tmp/ccAfwIJb.s:5098   .debug_str:0000000000000bc9 .LASF162
     /tmp/ccAfwIJb.s:5092   .debug_str:0000000000000b85 .LASF164
     /tmp/ccAfwIJb.s:5162   .debug_str:0000000000000da7 .LASF160
     /tmp/ccAfwIJb.s:5190   .debug_str:0000000000000e6d .LASF161
     /tmp/ccAfwIJb.s:5160   .debug_str:0000000000000d95 .LASF163
     /tmp/ccAfwIJb.s:4784   .debug_str:000000000000008e .LASF165
     /tmp/ccAfwIJb.s:4930   .debug_str:000000000000061c .LASF166
     /tmp/ccAfwIJb.s:4812   .debug_str:00000000000001a4 .LASF167
     /tmp/ccAfwIJb.s:4862   .debug_str:000000000000032e .LASF168
     /tmp/ccAfwIJb.s:4808   .debug_str:000000000000017c .LASF169
     /tmp/ccAfwIJb.s:4790   .debug_str:00000000000000cf .LASF170
     /tmp/ccAfwIJb.s:5178   .debug_str:0000000000000e07 .LASF171
     /tmp/ccAfwIJb.s:4976   .debug_str:00000000000007b1 .LASF172
     /tmp/ccAfwIJb.s:5188   .debug_str:0000000000000e54 .LASF173
     /tmp/ccAfwIJb.s:4926   .debug_str:00000000000005e0 .LASF174
     /tmp/ccAfwIJb.s:4946   .debug_str:000000000000069a .LASF175
     /tmp/ccAfwIJb.s:5212   .debug_str:0000000000000f11 .LASF176
     /tmp/ccAfwIJb.s:4874   .debug_str:0000000000000385 .LASF177
     /tmp/ccAfwIJb.s:5186   .debug_str:0000000000000e42 .LASF178
     /tmp/ccAfwIJb.s:4882   .debug_str:00000000000003c1 .LASF179
     /tmp/ccAfwIJb.s:5200   .debug_str:0000000000000ebf .LASF180
     /tmp/ccAfwIJb.s:4898   .debug_str:0000000000000502 .LASF181
     /tmp/ccAfwIJb.s:4786   .debug_str:00000000000000b0 .LASF182
     /tmp/ccAfwIJb.s:4950   .debug_str:00000000000006b7 .LASF183
     /tmp/ccAfwIJb.s:4966   .debug_str:0000000000000762 .LASF184
     /tmp/ccAfwIJb.s:4792   .debug_str:00000000000000ea .LASF185
     /tmp/ccAfwIJb.s:4984   .debug_str:00000000000007f1 .LASF186
     /tmp/ccAfwIJb.s:4890   .debug_str:00000000000004cc .LASF230
     /tmp/ccAfwIJb.s:5002   .debug_str:0000000000000878 .LASF231
     /tmp/ccAfwIJb.s:1053   .text:000000000000068c .LFB17
     /tmp/ccAfwIJb.s:1072   .text:00000000000006ac .LFE17
     /tmp/ccAfwIJb.s:5202   .debug_str:0000000000000ecc .LASF191
     /tmp/ccAfwIJb.s:4844   .debug_str:00000000000002c7 .LASF193
     /tmp/ccAfwIJb.s:918    .text:000000000000055c .LFB16
     /tmp/ccAfwIJb.s:1047   .text:000000000000068c .LFE16
     /tmp/ccAfwIJb.s:965    .text:00000000000005e0 .LBB12
     /tmp/ccAfwIJb.s:1026   .text:0000000000000664 .LBE12
     /tmp/ccAfwIJb.s:4070   .debug_loc:0000000000000000 .LLST36
     /tmp/ccAfwIJb.s:980    .text:00000000000005f4 .LBB13
GAS LISTING /tmp/ccAfwIJb.s 			page 40


     /tmp/ccAfwIJb.s:1025   .text:0000000000000664 .LBE13
     /tmp/ccAfwIJb.s:5224   .debug_str:0000000000000f85 .LASF187
     /tmp/ccAfwIJb.s:4077   .debug_loc:0000000000000023 .LLST37
     /tmp/ccAfwIJb.s:987    .text:000000000000060c .LVL108
     /tmp/ccAfwIJb.s:992    .text:000000000000061c .LVL109
     /tmp/ccAfwIJb.s:1011   .text:000000000000064c .LVL111
     /tmp/ccAfwIJb.s:1016   .text:000000000000065c .LVL112
     /tmp/ccAfwIJb.s:937    .text:0000000000000584 .LVL101
     /tmp/ccAfwIJb.s:947    .text:00000000000005a8 .LVL102
     /tmp/ccAfwIJb.s:955    .text:00000000000005c4 .LVL103
     /tmp/ccAfwIJb.s:963    .text:00000000000005e0 .LVL104
     /tmp/ccAfwIJb.s:1031   .text:0000000000000674 .LVL115
     /tmp/ccAfwIJb.s:5036   .debug_str:000000000000099d .LASF200
     /tmp/ccAfwIJb.s:5044   .debug_str:0000000000000a00 .LASF202
     /tmp/ccAfwIJb.s:242    .text:0000000000000120 .LFB15
     /tmp/ccAfwIJb.s:292    .text:0000000000000164 .LFE15
     /tmp/ccAfwIJb.s:4810   .debug_str:000000000000019f .LASF188
     /tmp/ccAfwIJb.s:4088   .debug_loc:0000000000000059 .LLST10
     /tmp/ccAfwIJb.s:4860   .debug_str:0000000000000328 .LASF189
     /tmp/ccAfwIJb.s:4113   .debug_loc:00000000000000bb .LLST11
     /tmp/ccAfwIJb.s:5146   .debug_str:0000000000000d2b .LASF190
     /tmp/ccAfwIJb.s:4127   .debug_loc:00000000000000f4 .LLST12
     /tmp/ccAfwIJb.s:4906   .debug_str:000000000000054f .LASF192
     /tmp/ccAfwIJb.s:5158   .debug_str:0000000000000d7e .LASF194
     /tmp/ccAfwIJb.s:176    .text:00000000000000b8 .LFB14
     /tmp/ccAfwIJb.s:236    .text:0000000000000120 .LFE14
     /tmp/ccAfwIJb.s:4188   .debug_loc:00000000000001a5 .LLST9
     /tmp/ccAfwIJb.s:5214   .debug_str:0000000000000f3a .LASF195
     /tmp/ccAfwIJb.s:4998   .debug_str:000000000000084f .LASF196
     /tmp/ccAfwIJb.s:5184   .debug_str:0000000000000e32 .LASF197
     /tmp/ccAfwIJb.s:512    .text:00000000000002cc .LFB13
     /tmp/ccAfwIJb.s:680    .text:00000000000003f8 .LFE13
     /tmp/ccAfwIJb.s:4218   .debug_loc:000000000000021b .LLST22
     /tmp/ccAfwIJb.s:4244   .debug_loc:000000000000028d .LLST23
     /tmp/ccAfwIJb.s:5182   .debug_str:0000000000000e23 .LASF198
     /tmp/ccAfwIJb.s:4262   .debug_loc:00000000000002d9 .LLST24
     /tmp/ccAfwIJb.s:4281   .debug_loc:0000000000000335 .LLST25
     /tmp/ccAfwIJb.s:4794   .debug_str:0000000000000106 .LASF199
     /tmp/ccAfwIJb.s:4313   .debug_loc:00000000000003cb .LLST26
     /tmp/ccAfwIJb.s:541    .text:0000000000000308 .LVL53
     /tmp/ccAfwIJb.s:574    .text:0000000000000338 .LVL59
     /tmp/ccAfwIJb.s:604    .text:0000000000000370 .LVL63
     /tmp/ccAfwIJb.s:649    .text:00000000000003c8 .LVL71
     /tmp/ccAfwIJb.s:660    .text:00000000000003dc .LVL74
     /tmp/ccAfwIJb.s:4800   .debug_str:0000000000000146 .LASF201
     /tmp/ccAfwIJb.s:5040   .debug_str:00000000000009d2 .LASF203
     /tmp/ccAfwIJb.s:127    .text:0000000000000084 .LFB12
     /tmp/ccAfwIJb.s:170    .text:00000000000000b8 .LFE12
     /tmp/ccAfwIJb.s:4349   .debug_loc:0000000000000474 .LLST6
     /tmp/ccAfwIJb.s:4360   .debug_loc:00000000000004aa .LLST7
     /tmp/ccAfwIJb.s:4372   .debug_loc:00000000000004e1 .LLST8
     /tmp/ccAfwIJb.s:4960   .debug_str:0000000000000734 .LASF204
     /tmp/ccAfwIJb.s:5028   .debug_str:0000000000000969 .LASF205
     /tmp/ccAfwIJb.s:77     .text:0000000000000050 .LFB11
     /tmp/ccAfwIJb.s:121    .text:0000000000000084 .LFE11
     /tmp/ccAfwIJb.s:4384   .debug_loc:0000000000000518 .LLST3
     /tmp/ccAfwIJb.s:4398   .debug_loc:0000000000000551 .LLST4
GAS LISTING /tmp/ccAfwIJb.s 			page 41


     /tmp/ccAfwIJb.s:4410   .debug_loc:0000000000000588 .LLST5
     /tmp/ccAfwIJb.s:5052   .debug_str:0000000000000a43 .LASF206
     /tmp/ccAfwIJb.s:4846   .debug_str:00000000000002db .LASF207
     /tmp/ccAfwIJb.s:41     .text:0000000000000020 .LFB10
     /tmp/ccAfwIJb.s:71     .text:0000000000000050 .LFE10
     /tmp/ccAfwIJb.s:4422   .debug_loc:00000000000005bf .LLST1
     /tmp/ccAfwIJb.s:4850   .debug_str:0000000000000301 .LASF208
     /tmp/ccAfwIJb.s:4436   .debug_loc:00000000000005f8 .LLST2
     /tmp/ccAfwIJb.s:56     .text:0000000000000038 .LVL4
     /tmp/ccAfwIJb.s:4982   .debug_str:00000000000007e4 .LASF209
     /tmp/ccAfwIJb.s:4914   .debug_str:0000000000000586 .LASF210
     /tmp/ccAfwIJb.s:10     .text:0000000000000000 .LFB9
     /tmp/ccAfwIJb.s:35     .text:0000000000000020 .LFE9
     /tmp/ccAfwIJb.s:4449   .debug_loc:0000000000000631 .LLST0
     /tmp/ccAfwIJb.s:5176   .debug_str:0000000000000e02 .LASF211
     /tmp/ccAfwIJb.s:4778   .debug_str:0000000000000071 .LASF212
     /tmp/ccAfwIJb.s:4834   .debug_str:0000000000000259 .LASF213
     /tmp/ccAfwIJb.s:829    .text:00000000000004ec .LFB8
     /tmp/ccAfwIJb.s:886    .text:000000000000055c .LFE8
     /tmp/ccAfwIJb.s:4463   .debug_loc:000000000000066a .LLST33
     /tmp/ccAfwIJb.s:4481   .debug_loc:00000000000006b6 .LLST34
     /tmp/ccAfwIJb.s:4495   .debug_loc:00000000000006ef .LLST35
     /tmp/ccAfwIJb.s:851    .text:0000000000000514 .LVL96
     /tmp/ccAfwIJb.s:859    .text:0000000000000528 .LVL98
     /tmp/ccAfwIJb.s:4868   .debug_str:0000000000000363 .LASF214
     /tmp/ccAfwIJb.s:4942   .debug_str:000000000000067f .LASF215
     /tmp/ccAfwIJb.s:298    .text:0000000000000164 .LFB7
     /tmp/ccAfwIJb.s:379    .text:00000000000001f8 .LFE7
     /tmp/ccAfwIJb.s:4502   .debug_loc:0000000000000712 .LLST13
     /tmp/ccAfwIJb.s:4986   .debug_str:00000000000007f7 .LASF216
     /tmp/ccAfwIJb.s:4528   .debug_loc:0000000000000784 .LLST14
     /tmp/ccAfwIJb.s:5106   .debug_str:0000000000000c09 .LASF217
     /tmp/ccAfwIJb.s:4557   .debug_loc:00000000000007f9 .LLST15
     /tmp/ccAfwIJb.s:5156   .debug_str:0000000000000d74 .LASF218
     /tmp/ccAfwIJb.s:4588   .debug_loc:0000000000000870 .LLST16
     /tmp/ccAfwIJb.s:321    .text:000000000000018c .LBB3
     /tmp/ccAfwIJb.s:347    .text:00000000000001cc .LBE3
     /tmp/ccAfwIJb.s:4613   .debug_loc:00000000000008d2 .LLST17
     /tmp/ccAfwIJb.s:330    .text:00000000000001a0 .LVL33
     /tmp/ccAfwIJb.s:337    .text:00000000000001b4 .LVL34
     /tmp/ccAfwIJb.s:345    .text:00000000000001cc .LVL35
     /tmp/ccAfwIJb.s:375    .text:00000000000001f4 .LVL39
     /tmp/ccAfwIJb.s:5088   .debug_str:0000000000000b71 .LASF219
     /tmp/ccAfwIJb.s:4918   .debug_str:00000000000005a3 .LASF220
     /tmp/ccAfwIJb.s:385    .text:00000000000001f8 .LFB6
     /tmp/ccAfwIJb.s:506    .text:00000000000002cc .LFE6
     /tmp/ccAfwIJb.s:4620   .debug_loc:00000000000008f5 .LLST18
     /tmp/ccAfwIJb.s:4634   .debug_loc:000000000000092e .LLST19
     /tmp/ccAfwIJb.s:4754   .debug_ranges:0000000000000000 .Ldebug_ranges0
     /tmp/ccAfwIJb.s:4649   .debug_loc:0000000000000977 .LLST20
     /tmp/ccAfwIJb.s:437    .text:000000000000024c .LBB7
     /tmp/ccAfwIJb.s:484    .text:00000000000002ac .LBE7
     /tmp/ccAfwIJb.s:4664   .debug_loc:00000000000009c0 .LLST21
     /tmp/ccAfwIJb.s:458    .text:0000000000000278 .LVL47
     /tmp/ccAfwIJb.s:404    .text:0000000000000218 .LVL41
     /tmp/ccAfwIJb.s:4818   .debug_str:0000000000000204 .LASF221
     /tmp/ccAfwIJb.s:4964   .debug_str:0000000000000750 .LASF222
GAS LISTING /tmp/ccAfwIJb.s 			page 42


     /tmp/ccAfwIJb.s:686    .text:00000000000003f8 .LFB5
     /tmp/ccAfwIJb.s:823    .text:00000000000004ec .LFE5
     /tmp/ccAfwIJb.s:4671   .debug_loc:00000000000009e3 .LLST27
     /tmp/ccAfwIJb.s:4689   .debug_loc:0000000000000a2f .LLST28
     /tmp/ccAfwIJb.s:5174   .debug_str:0000000000000df8 .LASF223
     /tmp/ccAfwIJb.s:4700   .debug_loc:0000000000000a65 .LLST29
     /tmp/ccAfwIJb.s:5104   .debug_str:0000000000000bff .LASF224
     /tmp/ccAfwIJb.s:4707   .debug_loc:0000000000000a88 .LLST30
     /tmp/ccAfwIJb.s:754    .text:0000000000000470 .LBB10
     /tmp/ccAfwIJb.s:777    .text:0000000000000498 .LBE10
     /tmp/ccAfwIJb.s:4722   .debug_loc:0000000000000ad1 .LLST31
     /tmp/ccAfwIJb.s:778    .text:0000000000000498 .LBB11
     /tmp/ccAfwIJb.s:801    .text:00000000000004c8 .LBE11
     /tmp/ccAfwIJb.s:4734   .debug_loc:0000000000000b08 .LLST32
     /tmp/ccAfwIJb.s:795    .text:00000000000004c0 .LVL89
     /tmp/ccAfwIJb.s:709    .text:0000000000000424 .LVL78
     /tmp/ccAfwIJb.s:716    .text:0000000000000430 .LVL79
     /tmp/ccAfwIJb.s:736    .text:0000000000000454 .LVL83
     /tmp/ccAfwIJb.s:749    .text:000000000000046c .LVL84
     /tmp/ccAfwIJb.s:970    .text:00000000000005e8 .LVL105
     /tmp/ccAfwIJb.s:1042   .text:0000000000000684 .LVL116
     /tmp/ccAfwIJb.s:972    .text:00000000000005ec .LVL106
     /tmp/ccAfwIJb.s:976    .text:00000000000005f0 .LVL107
     /tmp/ccAfwIJb.s:1000   .text:0000000000000634 .LVL110
     /tmp/ccAfwIJb.s:1023   .text:0000000000000664 .LVL114
     /tmp/ccAfwIJb.s:245    .text:0000000000000120 .LVL24
     /tmp/ccAfwIJb.s:273    .text:0000000000000150 .LVL28
     /tmp/ccAfwIJb.s:283    .text:000000000000015c .LVL29
     /tmp/ccAfwIJb.s:289    .text:0000000000000160 .LVL30
     /tmp/ccAfwIJb.s:256    .text:0000000000000134 .LVL25
     /tmp/ccAfwIJb.s:263    .text:0000000000000144 .LVL26
     /tmp/ccAfwIJb.s:267    .text:0000000000000148 .LVL27
     /tmp/ccAfwIJb.s:179    .text:00000000000000b8 .LVL18
     /tmp/ccAfwIJb.s:203    .text:00000000000000e8 .LVL20
     /tmp/ccAfwIJb.s:205    .text:00000000000000ec .LVL21
     /tmp/ccAfwIJb.s:222    .text:0000000000000108 .LVL22
     /tmp/ccAfwIJb.s:228    .text:000000000000010c .LVL23
     /tmp/ccAfwIJb.s:515    .text:00000000000002cc .LVL52
     /tmp/ccAfwIJb.s:569    .text:0000000000000330 .LVL58
     /tmp/ccAfwIJb.s:673    .text:00000000000003ec .LVL76
     /tmp/ccAfwIJb.s:670    .text:00000000000003e8 .LVL75
     /tmp/ccAfwIJb.s:577    .text:000000000000033c .LVL60
     /tmp/ccAfwIJb.s:602    .text:0000000000000368 .LVL62
     /tmp/ccAfwIJb.s:606    .text:0000000000000374 .LVL64
     /tmp/ccAfwIJb.s:652    .text:00000000000003cc .LVL72
     /tmp/ccAfwIJb.s:658    .text:00000000000003d4 .LVL73
     /tmp/ccAfwIJb.s:548    .text:0000000000000318 .LVL54
     /tmp/ccAfwIJb.s:560    .text:0000000000000324 .LVL56
     /tmp/ccAfwIJb.s:566    .text:000000000000032c .LVL57
     /tmp/ccAfwIJb.s:594    .text:000000000000035c .LVL61
     /tmp/ccAfwIJb.s:611    .text:0000000000000378 .LVL65
     /tmp/ccAfwIJb.s:616    .text:0000000000000388 .LVL66
     /tmp/ccAfwIJb.s:621    .text:000000000000038c .LVL67
     /tmp/ccAfwIJb.s:552    .text:000000000000031c .LVL55
     /tmp/ccAfwIJb.s:627    .text:0000000000000394 .LVL68
     /tmp/ccAfwIJb.s:632    .text:00000000000003a4 .LVL69
     /tmp/ccAfwIJb.s:643    .text:00000000000003bc .LVL70
GAS LISTING /tmp/ccAfwIJb.s 			page 43


     /tmp/ccAfwIJb.s:130    .text:0000000000000084 .LVL12
     /tmp/ccAfwIJb.s:143    .text:0000000000000098 .LVL14
     /tmp/ccAfwIJb.s:139    .text:0000000000000094 .LVL13
     /tmp/ccAfwIJb.s:146    .text:000000000000009c .LVL15
     /tmp/ccAfwIJb.s:80     .text:0000000000000050 .LVL6
     /tmp/ccAfwIJb.s:113    .text:0000000000000078 .LVL11
     /tmp/ccAfwIJb.s:88     .text:000000000000005c .LVL7
     /tmp/ccAfwIJb.s:94     .text:0000000000000064 .LVL8
     /tmp/ccAfwIJb.s:44     .text:0000000000000020 .LVL3
     /tmp/ccAfwIJb.s:61     .text:0000000000000040 .LVL5
     /tmp/ccAfwIJb.s:14     .text:0000000000000000 .LVL0
     /tmp/ccAfwIJb.s:27     .text:0000000000000014 .LVL2
     /tmp/ccAfwIJb.s:832    .text:00000000000004ec .LVL94
     /tmp/ccAfwIJb.s:849    .text:000000000000050c .LVL95
     /tmp/ccAfwIJb.s:881    .text:0000000000000554 .LVL100
     /tmp/ccAfwIJb.s:853    .text:0000000000000518 .LVL97
     /tmp/ccAfwIJb.s:868    .text:000000000000053c .LVL99
     /tmp/ccAfwIJb.s:301    .text:0000000000000164 .LVL31
     /tmp/ccAfwIJb.s:362    .text:00000000000001e0 .LVL36
     /tmp/ccAfwIJb.s:366    .text:00000000000001e8 .LVL37
     /tmp/ccAfwIJb.s:328    .text:0000000000000198 .LVL32
     /tmp/ccAfwIJb.s:373    .text:00000000000001ec .LVL38
     /tmp/ccAfwIJb.s:388    .text:00000000000001f8 .LVL40
     /tmp/ccAfwIJb.s:406    .text:000000000000021c .LVL42
     /tmp/ccAfwIJb.s:456    .text:0000000000000270 .LVL46
     /tmp/ccAfwIJb.s:467    .text:000000000000028c .LVL48
     /tmp/ccAfwIJb.s:473    .text:0000000000000298 .LVL49
     /tmp/ccAfwIJb.s:489    .text:00000000000002b0 .LVL51
     /tmp/ccAfwIJb.s:411    .text:0000000000000220 .LVL43
     /tmp/ccAfwIJb.s:439    .text:000000000000024c .LVL45
     /tmp/ccAfwIJb.s:482    .text:00000000000002ac .LVL50
     /tmp/ccAfwIJb.s:689    .text:00000000000003f8 .LVL77
     /tmp/ccAfwIJb.s:718    .text:0000000000000434 .LVL80
     /tmp/ccAfwIJb.s:815    .text:00000000000004e0 .LVL92
     /tmp/ccAfwIJb.s:722    .text:0000000000000438 .LVL81
     /tmp/ccAfwIJb.s:818    .text:00000000000004e4 .LVL93
     /tmp/ccAfwIJb.s:753    .text:0000000000000470 .LVL85
     /tmp/ccAfwIJb.s:757    .text:0000000000000474 .LVL86
     /tmp/ccAfwIJb.s:781    .text:000000000000049c .LVL88
     /tmp/ccAfwIJb.s:812    .text:00000000000004dc .LVL91
     /tmp/ccAfwIJb.s:1089   .debug_info:0000000000000000 .Ldebug_info0
     /tmp/ccAfwIJb.s:408    .text:000000000000021c .LBB5
     /tmp/ccAfwIJb.s:419    .text:0000000000000230 .LBE5
     /tmp/ccAfwIJb.s:421    .text:0000000000000230 .LBB9
     /tmp/ccAfwIJb.s:486    .text:00000000000002ac .LBE9

UNDEFINED SYMBOLS
_ZN8KConsole15trapPrintStringEPKc
_ZN8KConsole18trapPrintStringIntEPKcmi
_ZN8KConsole12trapPrintIntEmii
