GAS LISTING /tmp/cc6dVBPf.s 			page 1


   1              		.file	"buddyAllocator.cpp"
   2              		.option pic
   3              		.option norelax
   4              		.text
   5              	.Ltext0:
   6              		.align	2
   7              		.globl	_Z12getBlockAddrm
   9              	_Z12getBlockAddrm:
  10              	.LFB9:
  11              		.file 1 "src/kernel/buddyAllocator.cpp"
   1:src/kernel/buddyAllocator.cpp **** #include "../../h/buddyAllocator.hpp"
   2:src/kernel/buddyAllocator.cpp **** #include "../../h/KConsole.hpp"
   3:src/kernel/buddyAllocator.cpp **** 
   4:src/kernel/buddyAllocator.cpp **** #define BLOCK_SIZE 4096
   5:src/kernel/buddyAllocator.cpp **** 
   6:src/kernel/buddyAllocator.cpp **** buddyAllocator* buddy_init(void* addr, size_t numOfBlocks)
   7:src/kernel/buddyAllocator.cpp **** {
   8:src/kernel/buddyAllocator.cpp ****     //KConsole::trapPrintString("Buddy initialization\n");
   9:src/kernel/buddyAllocator.cpp ****     size_t blockAddr = getBlockAddr((size_t)addr); //alling the address
  10:src/kernel/buddyAllocator.cpp ****     size_t buddyAddr = (size_t)addr;
  11:src/kernel/buddyAllocator.cpp ****     //KConsole::trapPrintInt(blockAddr,16); KConsole::trapPrintString("\n");
  12:src/kernel/buddyAllocator.cpp ****     //KConsole::trapPrintInt(buddyAddr,16); KConsole::trapPrintString("\n");
  13:src/kernel/buddyAllocator.cpp ****     if((size_t)addr != blockAddr) // if start address not aligned
  14:src/kernel/buddyAllocator.cpp ****     {
  15:src/kernel/buddyAllocator.cpp ****         buddyAddr = getNextBlockAddr(blockAddr);
  16:src/kernel/buddyAllocator.cpp ****         numOfBlocks--; //have to discard one block
  17:src/kernel/buddyAllocator.cpp ****     }
  18:src/kernel/buddyAllocator.cpp ****     //KConsole::trapPrintStringInt("Buddy metadata address: ", buddyAddr,16);
  19:src/kernel/buddyAllocator.cpp ****     numOfBlocks--; // take one block for buddy metadata
  20:src/kernel/buddyAllocator.cpp ****     buddyAllocator* buddy = (buddyAllocator*)buddyAddr;
  21:src/kernel/buddyAllocator.cpp ****     buddy->startAddr = (void*)getNextBlockAddr(buddyAddr);
  22:src/kernel/buddyAllocator.cpp ****     buddy->numOfBlocks = numOfBlocks;
  23:src/kernel/buddyAllocator.cpp ****     buddy->numOfFreeBlocks = numOfBlocks;
  24:src/kernel/buddyAllocator.cpp ****     buddy->maxLevel = getDeg2Floor(numOfBlocks);
  25:src/kernel/buddyAllocator.cpp **** 
  26:src/kernel/buddyAllocator.cpp ****     for(size_t i = 0; i <= buddy->maxLevel;i++)
  27:src/kernel/buddyAllocator.cpp ****         buddy->bucket[i].first = buddy->bucket[i].last = nullptr;
  28:src/kernel/buddyAllocator.cpp **** 
  29:src/kernel/buddyAllocator.cpp ****     //TODO
  30:src/kernel/buddyAllocator.cpp ****     //maybe do it differently, like putting in chunks of power of 2
  31:src/kernel/buddyAllocator.cpp ****     for(size_t i = 0;i < numOfBlocks;i++)
  32:src/kernel/buddyAllocator.cpp ****         addBlocks(buddy, (block*)buddy->startAddr + i, 0);
  33:src/kernel/buddyAllocator.cpp **** 
  34:src/kernel/buddyAllocator.cpp ****     return buddy;
  35:src/kernel/buddyAllocator.cpp **** }
  36:src/kernel/buddyAllocator.cpp **** 
  37:src/kernel/buddyAllocator.cpp **** void* buddy_alloc(buddyAllocator* buddy, size_t numOfBlocks)
  38:src/kernel/buddyAllocator.cpp **** {
  39:src/kernel/buddyAllocator.cpp ****     //KConsole::trapPrintStringInt("Buddy allocation: ", numOfBlocks);
  40:src/kernel/buddyAllocator.cpp ****     size_t level = getDeg2Ceil(numOfBlocks);
  41:src/kernel/buddyAllocator.cpp ****     //KConsole::trapPrintStringInt("Level: ", level);
  42:src/kernel/buddyAllocator.cpp ****     for(size_t i = level; i <= buddy->maxLevel;i++)
  43:src/kernel/buddyAllocator.cpp ****     {
  44:src/kernel/buddyAllocator.cpp ****         if(buddy->bucket[i].first != nullptr)
  45:src/kernel/buddyAllocator.cpp ****         {
  46:src/kernel/buddyAllocator.cpp ****             buddyBlock* ret = buddy->bucket[i].first;
  47:src/kernel/buddyAllocator.cpp ****             //KConsole::trapPrintStringInt("Found the block:", (size_t)ret,16);
GAS LISTING /tmp/cc6dVBPf.s 			page 2


  48:src/kernel/buddyAllocator.cpp ****             buddy->bucket[i].first = ret->next;
  49:src/kernel/buddyAllocator.cpp ****             if(buddy->bucket[i].first == nullptr)
  50:src/kernel/buddyAllocator.cpp ****                 buddy->bucket[i].last = nullptr;
  51:src/kernel/buddyAllocator.cpp ****             split(buddy, (void*)ret, level, i, true);
  52:src/kernel/buddyAllocator.cpp ****             buddy->numOfFreeBlocks-= (1 << level);
  53:src/kernel/buddyAllocator.cpp ****             return ret;
  54:src/kernel/buddyAllocator.cpp ****         }
  55:src/kernel/buddyAllocator.cpp ****     }
  56:src/kernel/buddyAllocator.cpp **** 
  57:src/kernel/buddyAllocator.cpp ****     return nullptr;
  58:src/kernel/buddyAllocator.cpp **** }
  59:src/kernel/buddyAllocator.cpp **** 
  60:src/kernel/buddyAllocator.cpp **** //split chunks into smaller chunks, until it is necessary
  61:src/kernel/buddyAllocator.cpp **** void split(buddyAllocator* buddy, void* addr, size_t finalLevel, size_t currLevel, bool splitMore)
  62:src/kernel/buddyAllocator.cpp **** {
  63:src/kernel/buddyAllocator.cpp ****     if(!splitMore)
  64:src/kernel/buddyAllocator.cpp ****     {
  65:src/kernel/buddyAllocator.cpp ****         addBlockToLevel(buddy, addr, currLevel);
  66:src/kernel/buddyAllocator.cpp ****     }
  67:src/kernel/buddyAllocator.cpp ****     else
  68:src/kernel/buddyAllocator.cpp ****     {
  69:src/kernel/buddyAllocator.cpp ****         if(currLevel == finalLevel)
  70:src/kernel/buddyAllocator.cpp ****             return;
  71:src/kernel/buddyAllocator.cpp ****         size_t buddyBlock = getBuddyBlockAddr(buddy, addr, currLevel - 1); // currLevel - 1 for nex
  72:src/kernel/buddyAllocator.cpp ****         split(buddy, (void*)buddyBlock, finalLevel, currLevel - 1, false); // continue splitting
  73:src/kernel/buddyAllocator.cpp ****         split(buddy, addr, finalLevel, currLevel - 1, true); // continue splitting
  74:src/kernel/buddyAllocator.cpp ****     }
  75:src/kernel/buddyAllocator.cpp **** }
  76:src/kernel/buddyAllocator.cpp **** 
  77:src/kernel/buddyAllocator.cpp **** //TODO
  78:src/kernel/buddyAllocator.cpp **** //maybe check if address is aligned to start of block
  79:src/kernel/buddyAllocator.cpp **** void buddy_free(buddyAllocator* buddy, void* addr, size_t numOfBlocks)
  80:src/kernel/buddyAllocator.cpp **** {
  81:src/kernel/buddyAllocator.cpp ****     size_t level = getDeg2Ceil(numOfBlocks);
  82:src/kernel/buddyAllocator.cpp ****     addBlocks(buddy, addr, level); //adds free blocks
  83:src/kernel/buddyAllocator.cpp ****     buddy->numOfFreeBlocks += (1 << level);
  84:src/kernel/buddyAllocator.cpp **** }
  85:src/kernel/buddyAllocator.cpp **** 
  86:src/kernel/buddyAllocator.cpp **** size_t getBlockAddr(size_t addr)
  87:src/kernel/buddyAllocator.cpp **** {
  12              		.loc 1 87 1
  13              		.cfi_startproc
  14              	.LVL0:
  15 0000 130101FF 		addi	sp,sp,-16
  16              		.cfi_def_cfa_offset 16
  17 0004 23348100 		sd	s0,8(sp)
  18              		.cfi_offset 8, -8
  19 0008 13040101 		addi	s0,sp,16
  20              		.cfi_def_cfa 8, 0
  88:src/kernel/buddyAllocator.cpp ****     size_t mask = ((size_t)-1) << BLOCK_SIZE_POWER_2;
  21              		.loc 1 88 5
  22              	.LVL1:
  89:src/kernel/buddyAllocator.cpp ****     return addr & mask;
  23              		.loc 1 89 5
  90:src/kernel/buddyAllocator.cpp **** }
  24              		.loc 1 90 1 is_stmt 0
  25 000c B7F7FFFF 		li	a5,-4096
GAS LISTING /tmp/cc6dVBPf.s 			page 3


  26 0010 3375F500 		and	a0,a0,a5
  27              	.LVL2:
  28 0014 03348100 		ld	s0,8(sp)
  29              		.cfi_restore 8
  30              		.cfi_def_cfa 2, 16
  31 0018 13010101 		addi	sp,sp,16
  32              		.cfi_def_cfa_offset 0
  33 001c 67800000 		jr	ra
  34              		.cfi_endproc
  35              	.LFE9:
  37              		.align	2
  38              		.globl	_Z16getNextBlockAddrm
  40              	_Z16getNextBlockAddrm:
  41              	.LFB10:
  91:src/kernel/buddyAllocator.cpp **** size_t getNextBlockAddr(size_t addr)
  92:src/kernel/buddyAllocator.cpp **** {
  42              		.loc 1 92 1 is_stmt 1
  43              		.cfi_startproc
  44              	.LVL3:
  45 0020 130101FF 		addi	sp,sp,-16
  46              		.cfi_def_cfa_offset 16
  47 0024 23341100 		sd	ra,8(sp)
  48 0028 23308100 		sd	s0,0(sp)
  49              		.cfi_offset 1, -8
  50              		.cfi_offset 8, -16
  51 002c 13040101 		addi	s0,sp,16
  52              		.cfi_def_cfa 8, 0
  93:src/kernel/buddyAllocator.cpp ****     size_t currBlock = getBlockAddr(addr);
  53              		.loc 1 93 5
  54              		.loc 1 93 36 is_stmt 0
  55 0030 97000000 		call	_Z12getBlockAddrm
  55      E7800000 
  56              	.LVL4:
  94:src/kernel/buddyAllocator.cpp ****     return currBlock + BLOCK_SIZE;
  57              		.loc 1 94 5 is_stmt 1
  95:src/kernel/buddyAllocator.cpp **** }
  58              		.loc 1 95 1 is_stmt 0
  59 0038 B7170000 		li	a5,4096
  60 003c 3305F500 		add	a0,a0,a5
  61              	.LVL5:
  62 0040 83308100 		ld	ra,8(sp)
  63              		.cfi_restore 1
  64 0044 03340100 		ld	s0,0(sp)
  65              		.cfi_restore 8
  66              		.cfi_def_cfa 2, 16
  67 0048 13010101 		addi	sp,sp,16
  68              		.cfi_def_cfa_offset 0
  69 004c 67800000 		jr	ra
  70              		.cfi_endproc
  71              	.LFE10:
  73              		.align	2
  74              		.globl	_Z12getDeg2Floorm
  76              	_Z12getDeg2Floorm:
  77              	.LFB11:
  96:src/kernel/buddyAllocator.cpp **** 
  97:src/kernel/buddyAllocator.cpp **** size_t getDeg2Floor(size_t num)
  98:src/kernel/buddyAllocator.cpp **** {
GAS LISTING /tmp/cc6dVBPf.s 			page 4


  78              		.loc 1 98 1 is_stmt 1
  79              		.cfi_startproc
  80              	.LVL6:
  81 0050 130101FF 		addi	sp,sp,-16
  82              		.cfi_def_cfa_offset 16
  83 0054 23348100 		sd	s0,8(sp)
  84              		.cfi_offset 8, -8
  85 0058 13040101 		addi	s0,sp,16
  86              		.cfi_def_cfa 8, 0
  99:src/kernel/buddyAllocator.cpp ****     size_t x = 1;
  87              		.loc 1 99 5
  88              	.LVL7:
 100:src/kernel/buddyAllocator.cpp ****     size_t deg = 0;
  89              		.loc 1 100 5
  90              		.loc 1 100 12 is_stmt 0
  91 005c 13070000 		li	a4,0
  99:src/kernel/buddyAllocator.cpp ****     size_t x = 1;
  92              		.loc 1 99 12
  93 0060 93071000 		li	a5,1
  94              	.LVL8:
  95              	.L7:
 101:src/kernel/buddyAllocator.cpp ****     while(x <= num)
  96              		.loc 1 101 5 is_stmt 1
  97              		.loc 1 101 13
  98 0064 6368F500 		bgtu	a5,a0,.L6
 102:src/kernel/buddyAllocator.cpp ****     {
 103:src/kernel/buddyAllocator.cpp ****         deg++;
  99              		.loc 1 103 9
 100              		.loc 1 103 12 is_stmt 0
 101 0068 13071700 		addi	a4,a4,1
 102              	.LVL9:
 104:src/kernel/buddyAllocator.cpp ****         x<<=1;
 103              		.loc 1 104 9 is_stmt 1
 104              		.loc 1 104 10 is_stmt 0
 105 006c 93971700 		slli	a5,a5,1
 106              	.LVL10:
 101:src/kernel/buddyAllocator.cpp ****     while(x <= num)
 107              		.loc 1 101 5
 108 0070 6FF05FFF 		j	.L7
 109              	.L6:
 105:src/kernel/buddyAllocator.cpp ****     }
 106:src/kernel/buddyAllocator.cpp ****     return deg - 1;
 110              		.loc 1 106 5 is_stmt 1
 107:src/kernel/buddyAllocator.cpp **** }
 111              		.loc 1 107 1 is_stmt 0
 112 0074 1305F7FF 		addi	a0,a4,-1
 113              	.LVL11:
 114 0078 03348100 		ld	s0,8(sp)
 115              		.cfi_restore 8
 116              		.cfi_def_cfa 2, 16
 117 007c 13010101 		addi	sp,sp,16
 118              		.cfi_def_cfa_offset 0
 119 0080 67800000 		jr	ra
 120              		.cfi_endproc
 121              	.LFE11:
 123              		.align	2
 124              		.globl	_Z11getDeg2Ceilm
GAS LISTING /tmp/cc6dVBPf.s 			page 5


 126              	_Z11getDeg2Ceilm:
 127              	.LFB12:
 108:src/kernel/buddyAllocator.cpp **** 
 109:src/kernel/buddyAllocator.cpp **** size_t getDeg2Ceil(size_t num)
 110:src/kernel/buddyAllocator.cpp **** {
 128              		.loc 1 110 1 is_stmt 1
 129              		.cfi_startproc
 130              	.LVL12:
 131 0084 130101FF 		addi	sp,sp,-16
 132              		.cfi_def_cfa_offset 16
 133 0088 23348100 		sd	s0,8(sp)
 134              		.cfi_offset 8, -8
 135 008c 13040101 		addi	s0,sp,16
 136              		.cfi_def_cfa 8, 0
 137 0090 13070500 		mv	a4,a0
 111:src/kernel/buddyAllocator.cpp ****     size_t x = 1;
 138              		.loc 1 111 5
 139              	.LVL13:
 112:src/kernel/buddyAllocator.cpp ****     size_t deg = 0;
 140              		.loc 1 112 5
 141              		.loc 1 112 12 is_stmt 0
 142 0094 13050000 		li	a0,0
 143              	.LVL14:
 111:src/kernel/buddyAllocator.cpp ****     size_t x = 1;
 144              		.loc 1 111 12
 145 0098 93071000 		li	a5,1
 146              	.LVL15:
 147              	.L11:
 113:src/kernel/buddyAllocator.cpp ****     while(x < num)
 148              		.loc 1 113 5 is_stmt 1
 149              		.loc 1 113 13
 150 009c 63F8E700 		bgeu	a5,a4,.L9
 114:src/kernel/buddyAllocator.cpp ****     {
 115:src/kernel/buddyAllocator.cpp ****         deg++;
 151              		.loc 1 115 9
 152              		.loc 1 115 12 is_stmt 0
 153 00a0 13051500 		addi	a0,a0,1
 154              	.LVL16:
 116:src/kernel/buddyAllocator.cpp ****         x<<=1;
 155              		.loc 1 116 9 is_stmt 1
 156              		.loc 1 116 10 is_stmt 0
 157 00a4 93971700 		slli	a5,a5,1
 158              	.LVL17:
 113:src/kernel/buddyAllocator.cpp ****     while(x < num)
 159              		.loc 1 113 5
 160 00a8 6FF05FFF 		j	.L11
 161              	.L9:
 117:src/kernel/buddyAllocator.cpp ****     }
 118:src/kernel/buddyAllocator.cpp ****     return deg;
 119:src/kernel/buddyAllocator.cpp **** }
 162              		.loc 1 119 1
 163 00ac 03348100 		ld	s0,8(sp)
 164              		.cfi_restore 8
 165              		.cfi_def_cfa 2, 16
 166 00b0 13010101 		addi	sp,sp,16
 167              		.cfi_def_cfa_offset 0
 168 00b4 67800000 		jr	ra
GAS LISTING /tmp/cc6dVBPf.s 			page 6


 169              		.cfi_endproc
 170              	.LFE12:
 172              		.align	2
 173              		.globl	_Z15addBlockToLevelP14buddyAllocatorPvm
 175              	_Z15addBlockToLevelP14buddyAllocatorPvm:
 176              	.LFB14:
 120:src/kernel/buddyAllocator.cpp **** 
 121:src/kernel/buddyAllocator.cpp **** //function to add free blocks to the buddy
 122:src/kernel/buddyAllocator.cpp **** void addBlocks(buddyAllocator* buddy, void* addr, size_t level)
 123:src/kernel/buddyAllocator.cpp **** {
 124:src/kernel/buddyAllocator.cpp ****     if(level == buddy->maxLevel)
 125:src/kernel/buddyAllocator.cpp ****     {
 126:src/kernel/buddyAllocator.cpp ****         addBlockToLevel(buddy, addr, level);
 127:src/kernel/buddyAllocator.cpp ****         return;
 128:src/kernel/buddyAllocator.cpp ****     }
 129:src/kernel/buddyAllocator.cpp ****     size_t buddyBlockAddr = getBuddyBlockAddr(buddy,addr,level);
 130:src/kernel/buddyAllocator.cpp ****     //KConsole::trapPrintString("Buddy block addr ");
 131:src/kernel/buddyAllocator.cpp ****     //KConsole::trapPrintInt(buddyBlockAddr, 16); KConsole::trapPrintString("\n");
 132:src/kernel/buddyAllocator.cpp ****     buddyBlock* curr = buddy->bucket[level].first;
 133:src/kernel/buddyAllocator.cpp ****     buddyBlock* prev = nullptr;
 134:src/kernel/buddyAllocator.cpp ****     while(curr != nullptr)
 135:src/kernel/buddyAllocator.cpp ****     {
 136:src/kernel/buddyAllocator.cpp ****         if((size_t)curr == buddyBlockAddr)
 137:src/kernel/buddyAllocator.cpp ****         {
 138:src/kernel/buddyAllocator.cpp ****             if(prev != nullptr)
 139:src/kernel/buddyAllocator.cpp ****             {
 140:src/kernel/buddyAllocator.cpp ****                 prev->next = curr->next;
 141:src/kernel/buddyAllocator.cpp ****                 if(curr == buddy->bucket[level].last)
 142:src/kernel/buddyAllocator.cpp ****                     buddy->bucket[level].last = prev;
 143:src/kernel/buddyAllocator.cpp ****             }
 144:src/kernel/buddyAllocator.cpp ****             else
 145:src/kernel/buddyAllocator.cpp ****             {
 146:src/kernel/buddyAllocator.cpp ****                 if(curr->next == nullptr)
 147:src/kernel/buddyAllocator.cpp ****                     buddy->bucket[level].first = buddy->bucket[level].last = nullptr;
 148:src/kernel/buddyAllocator.cpp ****                 else
 149:src/kernel/buddyAllocator.cpp ****                     buddy->bucket[level].first = curr->next;
 150:src/kernel/buddyAllocator.cpp ****             }
 151:src/kernel/buddyAllocator.cpp ****             if((size_t)addr < buddyBlockAddr) addBlocks(buddy, addr, level + 1); //merge two chunks
 152:src/kernel/buddyAllocator.cpp ****             else addBlocks(buddy, (void*)buddyBlockAddr, level + 1); //merge two chunks
 153:src/kernel/buddyAllocator.cpp ****             return;
 154:src/kernel/buddyAllocator.cpp ****         }
 155:src/kernel/buddyAllocator.cpp **** 
 156:src/kernel/buddyAllocator.cpp ****         prev = curr;
 157:src/kernel/buddyAllocator.cpp ****         curr = curr->next;
 158:src/kernel/buddyAllocator.cpp ****     }
 159:src/kernel/buddyAllocator.cpp **** 
 160:src/kernel/buddyAllocator.cpp ****     addBlockToLevel(buddy, addr, level);
 161:src/kernel/buddyAllocator.cpp **** }
 162:src/kernel/buddyAllocator.cpp **** 
 163:src/kernel/buddyAllocator.cpp **** //adds free block to level
 164:src/kernel/buddyAllocator.cpp **** void addBlockToLevel(buddyAllocator* buddy, void* addr, size_t level)
 165:src/kernel/buddyAllocator.cpp **** {
 177              		.loc 1 165 1 is_stmt 1
 178              		.cfi_startproc
 179              	.LVL18:
 180 00b8 130101FF 		addi	sp,sp,-16
 181              		.cfi_def_cfa_offset 16
GAS LISTING /tmp/cc6dVBPf.s 			page 7


 182 00bc 23348100 		sd	s0,8(sp)
 183              		.cfi_offset 8, -8
 184 00c0 13040101 		addi	s0,sp,16
 185              		.cfi_def_cfa 8, 0
 166:src/kernel/buddyAllocator.cpp ****     buddyBlock* newBlock = (buddyBlock*)addr;
 186              		.loc 1 166 5
 187              	.LVL19:
 167:src/kernel/buddyAllocator.cpp ****     newBlock->next = nullptr;
 188              		.loc 1 167 5
 189              		.loc 1 167 20 is_stmt 0
 190 00c4 23B00500 		sd	zero,0(a1)
 168:src/kernel/buddyAllocator.cpp ****     if(buddy->bucket[level].first == nullptr)
 191              		.loc 1 168 5 is_stmt 1
 192              		.loc 1 168 29 is_stmt 0
 193 00c8 93072600 		addi	a5,a2,2
 194 00cc 93974700 		slli	a5,a5,4
 195 00d0 B307F500 		add	a5,a0,a5
 196 00d4 83B70700 		ld	a5,0(a5)
 197              		.loc 1 168 5
 198 00d8 63840702 		beqz	a5,.L17
 169:src/kernel/buddyAllocator.cpp ****     {
 170:src/kernel/buddyAllocator.cpp ****         buddy->bucket[level].first = buddy->bucket[level].last = newBlock;
 171:src/kernel/buddyAllocator.cpp ****     }
 172:src/kernel/buddyAllocator.cpp ****     else
 173:src/kernel/buddyAllocator.cpp ****     {
 174:src/kernel/buddyAllocator.cpp ****         buddy->bucket[level].last->next = newBlock;
 199              		.loc 1 174 9 is_stmt 1
 200              		.loc 1 174 30 is_stmt 0
 201 00dc 13062600 		addi	a2,a2,2
 202              	.LVL20:
 203 00e0 13164600 		slli	a2,a2,4
 204              	.LVL21:
 205 00e4 3306C500 		add	a2,a0,a2
 206 00e8 83378600 		ld	a5,8(a2)
 207              		.loc 1 174 41
 208 00ec 23B0B700 		sd	a1,0(a5)
 175:src/kernel/buddyAllocator.cpp ****         buddy->bucket[level].last = newBlock;
 209              		.loc 1 175 9 is_stmt 1
 210              		.loc 1 175 35 is_stmt 0
 211 00f0 2334B600 		sd	a1,8(a2)
 212              	.L13:
 176:src/kernel/buddyAllocator.cpp ****     }
 177:src/kernel/buddyAllocator.cpp **** }
 213              		.loc 1 177 1
 214 00f4 03348100 		ld	s0,8(sp)
 215              		.cfi_remember_state
 216              		.cfi_restore 8
 217              		.cfi_def_cfa 2, 16
 218 00f8 13010101 		addi	sp,sp,16
 219              		.cfi_def_cfa_offset 0
 220 00fc 67800000 		jr	ra
 221              	.LVL22:
 222              	.L17:
 223              		.cfi_restore_state
 170:src/kernel/buddyAllocator.cpp ****     }
 224              		.loc 1 170 9 is_stmt 1
 170:src/kernel/buddyAllocator.cpp ****     }
GAS LISTING /tmp/cc6dVBPf.s 			page 8


 225              		.loc 1 170 64 is_stmt 0
 226 0100 13062600 		addi	a2,a2,2
 227              	.LVL23:
 228 0104 13164600 		slli	a2,a2,4
 229              	.LVL24:
 230 0108 3306C500 		add	a2,a0,a2
 231 010c 2334B600 		sd	a1,8(a2)
 170:src/kernel/buddyAllocator.cpp ****     }
 232              		.loc 1 170 36
 233 0110 2330B600 		sd	a1,0(a2)
 234 0114 6FF01FFE 		j	.L13
 235              		.cfi_endproc
 236              	.LFE14:
 238              		.align	2
 239              		.globl	_Z17getBuddyBlockAddrP14buddyAllocatorPvm
 241              	_Z17getBuddyBlockAddrP14buddyAllocatorPvm:
 242              	.LFB15:
 178:src/kernel/buddyAllocator.cpp **** 
 179:src/kernel/buddyAllocator.cpp **** size_t getBuddyBlockAddr(buddyAllocator* buddy, void* addr, size_t level)
 180:src/kernel/buddyAllocator.cpp **** {
 243              		.loc 1 180 1 is_stmt 1
 244              		.cfi_startproc
 245              	.LVL25:
 246 0118 130101FF 		addi	sp,sp,-16
 247              		.cfi_def_cfa_offset 16
 248 011c 23348100 		sd	s0,8(sp)
 249              		.cfi_offset 8, -8
 250 0120 13040101 		addi	s0,sp,16
 251              		.cfi_def_cfa 8, 0
 181:src/kernel/buddyAllocator.cpp ****     size_t diff = BLOCK_SIZE << level;
 252              		.loc 1 181 5
 253              		.loc 1 181 30 is_stmt 0
 254 0124 B7170000 		li	a5,4096
 255 0128 3B96C700 		sllw	a2,a5,a2
 256              	.LVL26:
 182:src/kernel/buddyAllocator.cpp ****     size_t off = (size_t)addr - (size_t)buddy->startAddr;
 257              		.loc 1 182 5 is_stmt 1
 258              		.loc 1 182 48 is_stmt 0
 259 012c 83378500 		ld	a5,8(a0)
 260              		.loc 1 182 12
 261 0130 B387F540 		sub	a5,a1,a5
 262              	.LVL27:
 183:src/kernel/buddyAllocator.cpp ****     if(diff & off)
 263              		.loc 1 183 5 is_stmt 1
 264              		.loc 1 183 13 is_stmt 0
 265 0134 B377F600 		and	a5,a2,a5
 266              	.LVL28:
 267              		.loc 1 183 5
 268 0138 638A0700 		beqz	a5,.L19
 184:src/kernel/buddyAllocator.cpp ****         return (size_t)addr - diff;
 269              		.loc 1 184 9 is_stmt 1
 270              		.loc 1 184 31 is_stmt 0
 271 013c 3385C540 		sub	a0,a1,a2
 272              	.LVL29:
 273              	.L18:
 185:src/kernel/buddyAllocator.cpp ****     else
 186:src/kernel/buddyAllocator.cpp ****         return (size_t)addr + diff;
GAS LISTING /tmp/cc6dVBPf.s 			page 9


 187:src/kernel/buddyAllocator.cpp **** }
 274              		.loc 1 187 1
 275 0140 03348100 		ld	s0,8(sp)
 276              		.cfi_remember_state
 277              		.cfi_restore 8
 278              		.cfi_def_cfa 2, 16
 279 0144 13010101 		addi	sp,sp,16
 280              		.cfi_def_cfa_offset 0
 281 0148 67800000 		jr	ra
 282              	.LVL30:
 283              	.L19:
 284              		.cfi_restore_state
 186:src/kernel/buddyAllocator.cpp **** }
 285              		.loc 1 186 9 is_stmt 1
 186:src/kernel/buddyAllocator.cpp **** }
 286              		.loc 1 186 31 is_stmt 0
 287 014c 3385C500 		add	a0,a1,a2
 288              	.LVL31:
 289 0150 6FF01FFF 		j	.L18
 290              		.cfi_endproc
 291              	.LFE15:
 293              		.align	2
 294              		.globl	_Z5splitP14buddyAllocatorPvmmb
 296              	_Z5splitP14buddyAllocatorPvmmb:
 297              	.LFB7:
  62:src/kernel/buddyAllocator.cpp ****     if(!splitMore)
 298              		.loc 1 62 1 is_stmt 1
 299              		.cfi_startproc
 300              	.LVL32:
 301 0154 130101FD 		addi	sp,sp,-48
 302              		.cfi_def_cfa_offset 48
 303 0158 23341102 		sd	ra,40(sp)
 304 015c 23308102 		sd	s0,32(sp)
 305 0160 233C9100 		sd	s1,24(sp)
 306 0164 23382101 		sd	s2,16(sp)
 307 0168 23343101 		sd	s3,8(sp)
 308 016c 23304101 		sd	s4,0(sp)
 309              		.cfi_offset 1, -8
 310              		.cfi_offset 8, -16
 311              		.cfi_offset 9, -24
 312              		.cfi_offset 18, -32
 313              		.cfi_offset 19, -40
 314              		.cfi_offset 20, -48
 315 0170 13040103 		addi	s0,sp,48
 316              		.cfi_def_cfa 8, 0
 317 0174 13090500 		mv	s2,a0
 318 0178 138A0500 		mv	s4,a1
  63:src/kernel/buddyAllocator.cpp ****     {
 319              		.loc 1 63 5
 320              	.LBB2:
 321 017c 630A0706 		beqz	a4,.L26
 322 0180 93090600 		mv	s3,a2
 323              	.LBB3:
  69:src/kernel/buddyAllocator.cpp ****             return;
 324              		.loc 1 69 9
 325 0184 6386C604 		beq	a3,a2,.L22
  71:src/kernel/buddyAllocator.cpp ****         split(buddy, (void*)buddyBlock, finalLevel, currLevel - 1, false); // continue splitting
GAS LISTING /tmp/cc6dVBPf.s 			page 10


 326              		.loc 1 71 9
  71:src/kernel/buddyAllocator.cpp ****         split(buddy, (void*)buddyBlock, finalLevel, currLevel - 1, false); // continue splitting
 327              		.loc 1 71 46 is_stmt 0
 328 0188 9384F6FF 		addi	s1,a3,-1
 329 018c 13860400 		mv	a2,s1
 330              	.LVL33:
 331 0190 97000000 		call	_Z17getBuddyBlockAddrP14buddyAllocatorPvm
 331      E7800000 
 332              	.LVL34:
 333 0198 93050500 		mv	a1,a0
 334              	.LVL35:
  72:src/kernel/buddyAllocator.cpp ****         split(buddy, addr, finalLevel, currLevel - 1, true); // continue splitting
 335              		.loc 1 72 9 is_stmt 1
  72:src/kernel/buddyAllocator.cpp ****         split(buddy, addr, finalLevel, currLevel - 1, true); // continue splitting
 336              		.loc 1 72 14 is_stmt 0
 337 019c 13070000 		li	a4,0
 338 01a0 93860400 		mv	a3,s1
 339 01a4 13860900 		mv	a2,s3
 340 01a8 13050900 		mv	a0,s2
 341              	.LVL36:
 342 01ac 97000000 		call	_Z5splitP14buddyAllocatorPvmmb
 342      E7800000 
 343              	.LVL37:
  73:src/kernel/buddyAllocator.cpp ****     }
 344              		.loc 1 73 9 is_stmt 1
  73:src/kernel/buddyAllocator.cpp ****     }
 345              		.loc 1 73 14 is_stmt 0
 346 01b4 13071000 		li	a4,1
 347 01b8 93860400 		mv	a3,s1
 348 01bc 13860900 		mv	a2,s3
 349 01c0 93050A00 		mv	a1,s4
 350 01c4 13050900 		mv	a0,s2
 351 01c8 97000000 		call	_Z5splitP14buddyAllocatorPvmmb
 351      E7800000 
 352              	.LVL38:
 353              	.L22:
 354              	.LBE3:
 355              	.LBE2:
  75:src/kernel/buddyAllocator.cpp **** 
 356              		.loc 1 75 1
 357 01d0 83308102 		ld	ra,40(sp)
 358              		.cfi_remember_state
 359              		.cfi_restore 1
 360 01d4 03340102 		ld	s0,32(sp)
 361              		.cfi_restore 8
 362              		.cfi_def_cfa 2, 48
 363 01d8 83348101 		ld	s1,24(sp)
 364              		.cfi_restore 9
 365 01dc 03390101 		ld	s2,16(sp)
 366              		.cfi_restore 18
 367              	.LVL39:
 368 01e0 83398100 		ld	s3,8(sp)
 369              		.cfi_restore 19
 370 01e4 033A0100 		ld	s4,0(sp)
 371              		.cfi_restore 20
 372              	.LVL40:
 373 01e8 13010103 		addi	sp,sp,48
GAS LISTING /tmp/cc6dVBPf.s 			page 11


 374              		.cfi_def_cfa_offset 0
 375 01ec 67800000 		jr	ra
 376              	.LVL41:
 377              	.L26:
 378              		.cfi_restore_state
 379              	.LBB4:
  65:src/kernel/buddyAllocator.cpp ****     }
 380              		.loc 1 65 9 is_stmt 1
  65:src/kernel/buddyAllocator.cpp ****     }
 381              		.loc 1 65 24 is_stmt 0
 382 01f0 13860600 		mv	a2,a3
 383              	.LVL42:
 384 01f4 97000000 		call	_Z15addBlockToLevelP14buddyAllocatorPvm
 384      E7800000 
 385              	.LVL43:
 386 01fc 6FF05FFD 		j	.L22
 387              	.LBE4:
 388              		.cfi_endproc
 389              	.LFE7:
 391              		.align	2
 392              		.globl	_Z11buddy_allocP14buddyAllocatorm
 394              	_Z11buddy_allocP14buddyAllocatorm:
 395              	.LFB6:
  38:src/kernel/buddyAllocator.cpp ****     //KConsole::trapPrintStringInt("Buddy allocation: ", numOfBlocks);
 396              		.loc 1 38 1 is_stmt 1
 397              		.cfi_startproc
 398              	.LVL44:
 399 0200 130101FD 		addi	sp,sp,-48
 400              		.cfi_def_cfa_offset 48
 401 0204 23341102 		sd	ra,40(sp)
 402 0208 23308102 		sd	s0,32(sp)
 403 020c 233C9100 		sd	s1,24(sp)
 404 0210 23382101 		sd	s2,16(sp)
 405 0214 23343101 		sd	s3,8(sp)
 406              		.cfi_offset 1, -8
 407              		.cfi_offset 8, -16
 408              		.cfi_offset 9, -24
 409              		.cfi_offset 18, -32
 410              		.cfi_offset 19, -40
 411 0218 13040103 		addi	s0,sp,48
 412              		.cfi_def_cfa 8, 0
 413 021c 93040500 		mv	s1,a0
  40:src/kernel/buddyAllocator.cpp ****     //KConsole::trapPrintStringInt("Level: ", level);
 414              		.loc 1 40 5
  40:src/kernel/buddyAllocator.cpp ****     //KConsole::trapPrintStringInt("Level: ", level);
 415              		.loc 1 40 31 is_stmt 0
 416 0220 13850500 		mv	a0,a1
 417              	.LVL45:
 418 0224 97000000 		call	_Z11getDeg2Ceilm
 418      E7800000 
 419              	.LVL46:
 420 022c 93090500 		mv	s3,a0
 421              	.LVL47:
  42:src/kernel/buddyAllocator.cpp ****     {
 422              		.loc 1 42 5 is_stmt 1
 423              	.LBB5:
  42:src/kernel/buddyAllocator.cpp ****     {
GAS LISTING /tmp/cc6dVBPf.s 			page 12


 424              		.loc 1 42 16 is_stmt 0
 425 0230 93060500 		mv	a3,a0
 426              	.LVL48:
 427              	.L31:
  42:src/kernel/buddyAllocator.cpp ****     {
 428              		.loc 1 42 29 is_stmt 1 discriminator 1
  42:src/kernel/buddyAllocator.cpp ****     {
 429              		.loc 1 42 39 is_stmt 0 discriminator 1
 430 0234 83B78401 		ld	a5,24(s1)
  42:src/kernel/buddyAllocator.cpp ****     {
 431              		.loc 1 42 29 discriminator 1
 432 0238 63EED706 		bltu	a5,a3,.L32
 433              	.LBE5:
  44:src/kernel/buddyAllocator.cpp ****         {
 434              		.loc 1 44 9 is_stmt 1
 435              	.LBB9:
 436              	.LBB6:
  44:src/kernel/buddyAllocator.cpp ****         {
 437              		.loc 1 44 29 is_stmt 0
 438 023c 93872600 		addi	a5,a3,2
 439 0240 93974700 		slli	a5,a5,4
 440 0244 B387F400 		add	a5,s1,a5
 441 0248 03B90700 		ld	s2,0(a5)
  44:src/kernel/buddyAllocator.cpp ****         {
 442              		.loc 1 44 9
 443 024c 63160900 		bnez	s2,.L34
 444              	.LBE6:
  42:src/kernel/buddyAllocator.cpp ****     {
 445              		.loc 1 42 5 is_stmt 1 discriminator 2
 446 0250 93861600 		addi	a3,a3,1
 447              	.LVL49:
 448 0254 6FF01FFE 		j	.L31
 449              	.L34:
 450              	.LBB8:
 451              	.LBB7:
  46:src/kernel/buddyAllocator.cpp ****             //KConsole::trapPrintStringInt("Found the block:", (size_t)ret,16);
 452              		.loc 1 46 13
 453              	.LVL50:
  48:src/kernel/buddyAllocator.cpp ****             if(buddy->bucket[i].first == nullptr)
 454              		.loc 1 48 13
  48:src/kernel/buddyAllocator.cpp ****             if(buddy->bucket[i].first == nullptr)
 455              		.loc 1 48 43 is_stmt 0
 456 0258 03370900 		ld	a4,0(s2)
  48:src/kernel/buddyAllocator.cpp ****             if(buddy->bucket[i].first == nullptr)
 457              		.loc 1 48 36
 458 025c 93872600 		addi	a5,a3,2
 459 0260 93974700 		slli	a5,a5,4
 460 0264 B387F400 		add	a5,s1,a5
 461 0268 23B0E700 		sd	a4,0(a5)
  49:src/kernel/buddyAllocator.cpp ****                 buddy->bucket[i].last = nullptr;
 462              		.loc 1 49 13 is_stmt 1
 463 026c 630A0702 		beqz	a4,.L35
 464              	.L30:
  51:src/kernel/buddyAllocator.cpp ****             buddy->numOfFreeBlocks-= (1 << level);
 465              		.loc 1 51 13
  51:src/kernel/buddyAllocator.cpp ****             buddy->numOfFreeBlocks-= (1 << level);
 466              		.loc 1 51 18 is_stmt 0
GAS LISTING /tmp/cc6dVBPf.s 			page 13


 467 0270 13071000 		li	a4,1
 468 0274 13860900 		mv	a2,s3
 469 0278 93050900 		mv	a1,s2
 470 027c 13850400 		mv	a0,s1
 471              	.LVL51:
 472 0280 97000000 		call	_Z5splitP14buddyAllocatorPvmmb
 472      E7800000 
 473              	.LVL52:
  52:src/kernel/buddyAllocator.cpp ****             return ret;
 474              		.loc 1 52 13 is_stmt 1
  52:src/kernel/buddyAllocator.cpp ****             return ret;
 475              		.loc 1 52 41 is_stmt 0
 476 0288 13051000 		li	a0,1
 477 028c 3B153501 		sllw	a0,a0,s3
  52:src/kernel/buddyAllocator.cpp ****             return ret;
 478              		.loc 1 52 35
 479 0290 83B90401 		ld	s3,16(s1)
 480              	.LVL53:
 481 0294 B389A940 		sub	s3,s3,a0
 482 0298 23B83401 		sd	s3,16(s1)
  53:src/kernel/buddyAllocator.cpp ****         }
 483              		.loc 1 53 13 is_stmt 1
  53:src/kernel/buddyAllocator.cpp ****         }
 484              		.loc 1 53 20 is_stmt 0
 485 029c 6F00C001 		j	.L27
 486              	.LVL54:
 487              	.L35:
  50:src/kernel/buddyAllocator.cpp ****             split(buddy, (void*)ret, level, i, true);
 488              		.loc 1 50 17 is_stmt 1
  50:src/kernel/buddyAllocator.cpp ****             split(buddy, (void*)ret, level, i, true);
 489              		.loc 1 50 39 is_stmt 0
 490 02a0 93872600 		addi	a5,a3,2
 491 02a4 93974700 		slli	a5,a5,4
 492 02a8 B387F400 		add	a5,s1,a5
 493 02ac 23B40700 		sd	zero,8(a5)
 494 02b0 6FF01FFC 		j	.L30
 495              	.LVL55:
 496              	.L32:
 497              	.LBE7:
 498              	.LBE8:
 499              	.LBE9:
  57:src/kernel/buddyAllocator.cpp **** }
 500              		.loc 1 57 12
 501 02b4 13090000 		li	s2,0
 502              	.LVL56:
 503              	.L27:
  58:src/kernel/buddyAllocator.cpp **** 
 504              		.loc 1 58 1
 505 02b8 13050900 		mv	a0,s2
 506 02bc 83308102 		ld	ra,40(sp)
 507              		.cfi_restore 1
 508 02c0 03340102 		ld	s0,32(sp)
 509              		.cfi_restore 8
 510              		.cfi_def_cfa 2, 48
 511 02c4 83348101 		ld	s1,24(sp)
 512              		.cfi_restore 9
 513              	.LVL57:
GAS LISTING /tmp/cc6dVBPf.s 			page 14


 514 02c8 03390101 		ld	s2,16(sp)
 515              		.cfi_restore 18
 516 02cc 83398100 		ld	s3,8(sp)
 517              		.cfi_restore 19
 518 02d0 13010103 		addi	sp,sp,48
 519              		.cfi_def_cfa_offset 0
 520 02d4 67800000 		jr	ra
 521              		.cfi_endproc
 522              	.LFE6:
 524              		.align	2
 525              		.globl	_Z9addBlocksP14buddyAllocatorPvm
 527              	_Z9addBlocksP14buddyAllocatorPvm:
 528              	.LFB13:
 123:src/kernel/buddyAllocator.cpp ****     if(level == buddy->maxLevel)
 529              		.loc 1 123 1 is_stmt 1
 530              		.cfi_startproc
 531              	.LVL58:
 532 02d8 130101FD 		addi	sp,sp,-48
 533              		.cfi_def_cfa_offset 48
 534 02dc 23341102 		sd	ra,40(sp)
 535 02e0 23308102 		sd	s0,32(sp)
 536 02e4 233C9100 		sd	s1,24(sp)
 537 02e8 23382101 		sd	s2,16(sp)
 538 02ec 23343101 		sd	s3,8(sp)
 539              		.cfi_offset 1, -8
 540              		.cfi_offset 8, -16
 541              		.cfi_offset 9, -24
 542              		.cfi_offset 18, -32
 543              		.cfi_offset 19, -40
 544 02f0 13040103 		addi	s0,sp,48
 545              		.cfi_def_cfa 8, 0
 546 02f4 93040500 		mv	s1,a0
 547 02f8 93890500 		mv	s3,a1
 548 02fc 13090600 		mv	s2,a2
 124:src/kernel/buddyAllocator.cpp ****     {
 549              		.loc 1 124 5
 124:src/kernel/buddyAllocator.cpp ****     {
 550              		.loc 1 124 24 is_stmt 0
 551 0300 83378501 		ld	a5,24(a0)
 124:src/kernel/buddyAllocator.cpp ****     {
 552              		.loc 1 124 5
 553 0304 638AC702 		beq	a5,a2,.L48
 129:src/kernel/buddyAllocator.cpp ****     //KConsole::trapPrintString("Buddy block addr ");
 554              		.loc 1 129 5 is_stmt 1
 129:src/kernel/buddyAllocator.cpp ****     //KConsole::trapPrintString("Buddy block addr ");
 555              		.loc 1 129 46 is_stmt 0
 556 0308 97000000 		call	_Z17getBuddyBlockAddrP14buddyAllocatorPvm
 556      E7800000 
 557              	.LVL59:
 132:src/kernel/buddyAllocator.cpp ****     buddyBlock* prev = nullptr;
 558              		.loc 1 132 5 is_stmt 1
 132:src/kernel/buddyAllocator.cpp ****     buddyBlock* prev = nullptr;
 559              		.loc 1 132 17 is_stmt 0
 560 0310 93072900 		addi	a5,s2,2
 561 0314 93974700 		slli	a5,a5,4
 562 0318 B387F400 		add	a5,s1,a5
 563 031c 83B70700 		ld	a5,0(a5)
GAS LISTING /tmp/cc6dVBPf.s 			page 15


 564              	.LVL60:
 133:src/kernel/buddyAllocator.cpp ****     while(curr != nullptr)
 565              		.loc 1 133 5 is_stmt 1
 133:src/kernel/buddyAllocator.cpp ****     while(curr != nullptr)
 566              		.loc 1 133 17 is_stmt 0
 567 0320 13070000 		li	a4,0
 568              	.LVL61:
 569              	.L46:
 134:src/kernel/buddyAllocator.cpp ****     {
 570              		.loc 1 134 5 is_stmt 1
 134:src/kernel/buddyAllocator.cpp ****     {
 571              		.loc 1 134 16
 572 0324 638E070A 		beqz	a5,.L39
 136:src/kernel/buddyAllocator.cpp ****         {
 573              		.loc 1 136 9
 574 0328 638EA700 		beq	a5,a0,.L49
 156:src/kernel/buddyAllocator.cpp ****         curr = curr->next;
 575              		.loc 1 156 9
 576              	.LVL62:
 157:src/kernel/buddyAllocator.cpp ****     }
 577              		.loc 1 157 9
 156:src/kernel/buddyAllocator.cpp ****         curr = curr->next;
 578              		.loc 1 156 14 is_stmt 0
 579 032c 13870700 		mv	a4,a5
 157:src/kernel/buddyAllocator.cpp ****     }
 580              		.loc 1 157 14
 581 0330 83B70700 		ld	a5,0(a5)
 582              	.LVL63:
 134:src/kernel/buddyAllocator.cpp ****     {
 583              		.loc 1 134 5
 584 0334 6FF01FFF 		j	.L46
 585              	.LVL64:
 586              	.L48:
 126:src/kernel/buddyAllocator.cpp ****         return;
 587              		.loc 1 126 9 is_stmt 1
 126:src/kernel/buddyAllocator.cpp ****         return;
 588              		.loc 1 126 24 is_stmt 0
 589 0338 97000000 		call	_Z15addBlockToLevelP14buddyAllocatorPvm
 589      E7800000 
 590              	.LVL65:
 127:src/kernel/buddyAllocator.cpp ****     }
 591              		.loc 1 127 9 is_stmt 1
 592 0340 6F00400B 		j	.L36
 593              	.LVL66:
 594              	.L49:
 138:src/kernel/buddyAllocator.cpp ****             {
 595              		.loc 1 138 13
 596 0344 63080704 		beqz	a4,.L41
 140:src/kernel/buddyAllocator.cpp ****                 if(curr == buddy->bucket[level].last)
 597              		.loc 1 140 17
 140:src/kernel/buddyAllocator.cpp ****                 if(curr == buddy->bucket[level].last)
 598              		.loc 1 140 36 is_stmt 0
 599 0348 83B60700 		ld	a3,0(a5)
 140:src/kernel/buddyAllocator.cpp ****                 if(curr == buddy->bucket[level].last)
 600              		.loc 1 140 28
 601 034c 2330D700 		sd	a3,0(a4)
 141:src/kernel/buddyAllocator.cpp ****                     buddy->bucket[level].last = prev;
GAS LISTING /tmp/cc6dVBPf.s 			page 16


 602              		.loc 1 141 17 is_stmt 1
 141:src/kernel/buddyAllocator.cpp ****                     buddy->bucket[level].last = prev;
 603              		.loc 1 141 49 is_stmt 0
 604 0350 93062900 		addi	a3,s2,2
 605 0354 93964600 		slli	a3,a3,4
 606 0358 B386D400 		add	a3,s1,a3
 607 035c 83B68600 		ld	a3,8(a3)
 141:src/kernel/buddyAllocator.cpp ****                     buddy->bucket[level].last = prev;
 608              		.loc 1 141 17
 609 0360 6380F602 		beq	a3,a5,.L50
 610              	.LVL67:
 611              	.L42:
 151:src/kernel/buddyAllocator.cpp ****             else addBlocks(buddy, (void*)buddyBlockAddr, level + 1); //merge two chunks
 612              		.loc 1 151 13 is_stmt 1
 613 0364 63F2A906 		bgeu	s3,a0,.L44
 151:src/kernel/buddyAllocator.cpp ****             else addBlocks(buddy, (void*)buddyBlockAddr, level + 1); //merge two chunks
 614              		.loc 1 151 47 discriminator 1
 151:src/kernel/buddyAllocator.cpp ****             else addBlocks(buddy, (void*)buddyBlockAddr, level + 1); //merge two chunks
 615              		.loc 1 151 56 is_stmt 0 discriminator 1
 616 0368 13061900 		addi	a2,s2,1
 617 036c 93850900 		mv	a1,s3
 618 0370 13850400 		mv	a0,s1
 619              	.LVL68:
 620 0374 97000000 		call	_Z9addBlocksP14buddyAllocatorPvm
 620      E7800000 
 621              	.LVL69:
 622 037c 6F008007 		j	.L36
 623              	.LVL70:
 624              	.L50:
 142:src/kernel/buddyAllocator.cpp ****             }
 625              		.loc 1 142 21 is_stmt 1
 142:src/kernel/buddyAllocator.cpp ****             }
 626              		.loc 1 142 47 is_stmt 0
 627 0380 93072900 		addi	a5,s2,2
 628              	.LVL71:
 629 0384 93974700 		slli	a5,a5,4
 630 0388 B387F400 		add	a5,s1,a5
 631 038c 23B4E700 		sd	a4,8(a5)
 632 0390 6FF05FFD 		j	.L42
 633              	.LVL72:
 634              	.L41:
 146:src/kernel/buddyAllocator.cpp ****                     buddy->bucket[level].first = buddy->bucket[level].last = nullptr;
 635              		.loc 1 146 17 is_stmt 1
 146:src/kernel/buddyAllocator.cpp ****                     buddy->bucket[level].first = buddy->bucket[level].last = nullptr;
 636              		.loc 1 146 26 is_stmt 0
 637 0394 03B70700 		ld	a4,0(a5)
 638              	.LVL73:
 146:src/kernel/buddyAllocator.cpp ****                     buddy->bucket[level].first = buddy->bucket[level].last = nullptr;
 639              		.loc 1 146 17
 640 0398 630C0700 		beqz	a4,.L51
 149:src/kernel/buddyAllocator.cpp ****             }
 641              		.loc 1 149 21 is_stmt 1
 149:src/kernel/buddyAllocator.cpp ****             }
 642              		.loc 1 149 48 is_stmt 0
 643 039c 93072900 		addi	a5,s2,2
 644              	.LVL74:
 645 03a0 93974700 		slli	a5,a5,4
GAS LISTING /tmp/cc6dVBPf.s 			page 17


 646 03a4 B387F400 		add	a5,s1,a5
 647 03a8 23B0E700 		sd	a4,0(a5)
 648 03ac 6FF09FFB 		j	.L42
 649              	.LVL75:
 650              	.L51:
 147:src/kernel/buddyAllocator.cpp ****                 else
 651              		.loc 1 147 21 is_stmt 1
 147:src/kernel/buddyAllocator.cpp ****                 else
 652              		.loc 1 147 76 is_stmt 0
 653 03b0 93072900 		addi	a5,s2,2
 654              	.LVL76:
 655 03b4 93974700 		slli	a5,a5,4
 656 03b8 B387F400 		add	a5,s1,a5
 657 03bc 23B40700 		sd	zero,8(a5)
 147:src/kernel/buddyAllocator.cpp ****                 else
 658              		.loc 1 147 48
 659 03c0 23B00700 		sd	zero,0(a5)
 660 03c4 6FF01FFA 		j	.L42
 661              	.L44:
 152:src/kernel/buddyAllocator.cpp ****             return;
 662              		.loc 1 152 18 is_stmt 1
 152:src/kernel/buddyAllocator.cpp ****             return;
 663              		.loc 1 152 27 is_stmt 0
 664 03c8 13061900 		addi	a2,s2,1
 665 03cc 93050500 		mv	a1,a0
 666 03d0 13850400 		mv	a0,s1
 667              	.LVL77:
 668 03d4 97000000 		call	_Z9addBlocksP14buddyAllocatorPvm
 668      E7800000 
 669              	.LVL78:
 153:src/kernel/buddyAllocator.cpp ****         }
 670              		.loc 1 153 13 is_stmt 1
 671 03dc 6F008001 		j	.L36
 672              	.LVL79:
 673              	.L39:
 160:src/kernel/buddyAllocator.cpp **** }
 674              		.loc 1 160 5
 160:src/kernel/buddyAllocator.cpp **** }
 675              		.loc 1 160 20 is_stmt 0
 676 03e0 13060900 		mv	a2,s2
 677 03e4 93850900 		mv	a1,s3
 678 03e8 13850400 		mv	a0,s1
 679              	.LVL80:
 680 03ec 97000000 		call	_Z15addBlockToLevelP14buddyAllocatorPvm
 680      E7800000 
 681              	.LVL81:
 682              	.L36:
 161:src/kernel/buddyAllocator.cpp **** 
 683              		.loc 1 161 1
 684 03f4 83308102 		ld	ra,40(sp)
 685              		.cfi_restore 1
 686 03f8 03340102 		ld	s0,32(sp)
 687              		.cfi_restore 8
 688              		.cfi_def_cfa 2, 48
 689 03fc 83348101 		ld	s1,24(sp)
 690              		.cfi_restore 9
 691              	.LVL82:
GAS LISTING /tmp/cc6dVBPf.s 			page 18


 692 0400 03390101 		ld	s2,16(sp)
 693              		.cfi_restore 18
 694              	.LVL83:
 695 0404 83398100 		ld	s3,8(sp)
 696              		.cfi_restore 19
 697              	.LVL84:
 698 0408 13010103 		addi	sp,sp,48
 699              		.cfi_def_cfa_offset 0
 700 040c 67800000 		jr	ra
 701              		.cfi_endproc
 702              	.LFE13:
 704              		.align	2
 705              		.globl	_Z10buddy_initPvm
 707              	_Z10buddy_initPvm:
 708              	.LFB5:
   7:src/kernel/buddyAllocator.cpp ****     //KConsole::trapPrintString("Buddy initialization\n");
 709              		.loc 1 7 1 is_stmt 1
 710              		.cfi_startproc
 711              	.LVL85:
 712 0410 130101FD 		addi	sp,sp,-48
 713              		.cfi_def_cfa_offset 48
 714 0414 23341102 		sd	ra,40(sp)
 715 0418 23308102 		sd	s0,32(sp)
 716 041c 233C9100 		sd	s1,24(sp)
 717 0420 23382101 		sd	s2,16(sp)
 718 0424 23343101 		sd	s3,8(sp)
 719              		.cfi_offset 1, -8
 720              		.cfi_offset 8, -16
 721              		.cfi_offset 9, -24
 722              		.cfi_offset 18, -32
 723              		.cfi_offset 19, -40
 724 0428 13040103 		addi	s0,sp,48
 725              		.cfi_def_cfa 8, 0
 726 042c 93890500 		mv	s3,a1
   9:src/kernel/buddyAllocator.cpp ****     size_t buddyAddr = (size_t)addr;
 727              		.loc 1 9 5
   9:src/kernel/buddyAllocator.cpp ****     size_t buddyAddr = (size_t)addr;
 728              		.loc 1 9 36 is_stmt 0
 729 0430 93040500 		mv	s1,a0
 730 0434 97000000 		call	_Z12getBlockAddrm
 730      E7800000 
 731              	.LVL86:
  10:src/kernel/buddyAllocator.cpp ****     //KConsole::trapPrintInt(blockAddr,16); KConsole::trapPrintString("\n");
 732              		.loc 1 10 5 is_stmt 1
  13:src/kernel/buddyAllocator.cpp ****     {
 733              		.loc 1 13 5
 734 043c 638AA400 		beq	s1,a0,.L53
  15:src/kernel/buddyAllocator.cpp ****         numOfBlocks--; //have to discard one block
 735              		.loc 1 15 9
  15:src/kernel/buddyAllocator.cpp ****         numOfBlocks--; //have to discard one block
 736              		.loc 1 15 37 is_stmt 0
 737 0440 97000000 		call	_Z16getNextBlockAddrm
 737      E7800000 
 738              	.LVL87:
 739 0448 93040500 		mv	s1,a0
 740              	.LVL88:
  16:src/kernel/buddyAllocator.cpp ****     }
GAS LISTING /tmp/cc6dVBPf.s 			page 19


 741              		.loc 1 16 9 is_stmt 1
  16:src/kernel/buddyAllocator.cpp ****     }
 742              		.loc 1 16 20 is_stmt 0
 743 044c 9389F9FF 		addi	s3,s3,-1
 744              	.LVL89:
 745              	.L53:
  19:src/kernel/buddyAllocator.cpp ****     buddyAllocator* buddy = (buddyAllocator*)buddyAddr;
 746              		.loc 1 19 5 is_stmt 1
  19:src/kernel/buddyAllocator.cpp ****     buddyAllocator* buddy = (buddyAllocator*)buddyAddr;
 747              		.loc 1 19 16 is_stmt 0
 748 0450 9389F9FF 		addi	s3,s3,-1
 749              	.LVL90:
  20:src/kernel/buddyAllocator.cpp ****     buddy->startAddr = (void*)getNextBlockAddr(buddyAddr);
 750              		.loc 1 20 5 is_stmt 1
  20:src/kernel/buddyAllocator.cpp ****     buddy->startAddr = (void*)getNextBlockAddr(buddyAddr);
 751              		.loc 1 20 21 is_stmt 0
 752 0454 13890400 		mv	s2,s1
 753              	.LVL91:
  21:src/kernel/buddyAllocator.cpp ****     buddy->numOfBlocks = numOfBlocks;
 754              		.loc 1 21 5 is_stmt 1
  21:src/kernel/buddyAllocator.cpp ****     buddy->numOfBlocks = numOfBlocks;
 755              		.loc 1 21 47 is_stmt 0
 756 0458 13850400 		mv	a0,s1
 757 045c 97000000 		call	_Z16getNextBlockAddrm
 757      E7800000 
 758              	.LVL92:
  21:src/kernel/buddyAllocator.cpp ****     buddy->numOfBlocks = numOfBlocks;
 759              		.loc 1 21 22
 760 0464 23B4A400 		sd	a0,8(s1)
  22:src/kernel/buddyAllocator.cpp ****     buddy->numOfFreeBlocks = numOfBlocks;
 761              		.loc 1 22 5 is_stmt 1
  22:src/kernel/buddyAllocator.cpp ****     buddy->numOfFreeBlocks = numOfBlocks;
 762              		.loc 1 22 24 is_stmt 0
 763 0468 23B03401 		sd	s3,0(s1)
  23:src/kernel/buddyAllocator.cpp ****     buddy->maxLevel = getDeg2Floor(numOfBlocks);
 764              		.loc 1 23 5 is_stmt 1
  23:src/kernel/buddyAllocator.cpp ****     buddy->maxLevel = getDeg2Floor(numOfBlocks);
 765              		.loc 1 23 28 is_stmt 0
 766 046c 23B83401 		sd	s3,16(s1)
  24:src/kernel/buddyAllocator.cpp **** 
 767              		.loc 1 24 5 is_stmt 1
  24:src/kernel/buddyAllocator.cpp **** 
 768              		.loc 1 24 35 is_stmt 0
 769 0470 13850900 		mv	a0,s3
 770 0474 97000000 		call	_Z12getDeg2Floorm
 770      E7800000 
 771              	.LVL93:
  24:src/kernel/buddyAllocator.cpp **** 
 772              		.loc 1 24 21
 773 047c 23BCA400 		sd	a0,24(s1)
  26:src/kernel/buddyAllocator.cpp ****         buddy->bucket[i].first = buddy->bucket[i].last = nullptr;
 774              		.loc 1 26 5 is_stmt 1
 775              	.LVL94:
 776              	.LBB10:
  26:src/kernel/buddyAllocator.cpp ****         buddy->bucket[i].first = buddy->bucket[i].last = nullptr;
 777              		.loc 1 26 16 is_stmt 0
 778 0480 13070000 		li	a4,0
GAS LISTING /tmp/cc6dVBPf.s 			page 20


 779              	.LVL95:
 780              	.L55:
  26:src/kernel/buddyAllocator.cpp ****         buddy->bucket[i].first = buddy->bucket[i].last = nullptr;
 781              		.loc 1 26 25 is_stmt 1 discriminator 3
 782 0484 6360E502 		bltu	a0,a4,.L57
  27:src/kernel/buddyAllocator.cpp **** 
 783              		.loc 1 27 9 discriminator 2
  27:src/kernel/buddyAllocator.cpp **** 
 784              		.loc 1 27 56 is_stmt 0 discriminator 2
 785 0488 93072700 		addi	a5,a4,2
 786 048c 93974700 		slli	a5,a5,4
 787 0490 B307F900 		add	a5,s2,a5
 788 0494 23B40700 		sd	zero,8(a5)
  27:src/kernel/buddyAllocator.cpp **** 
 789              		.loc 1 27 32 discriminator 2
 790 0498 23B00700 		sd	zero,0(a5)
  26:src/kernel/buddyAllocator.cpp ****         buddy->bucket[i].first = buddy->bucket[i].last = nullptr;
 791              		.loc 1 26 5 is_stmt 1 discriminator 2
 792 049c 13071700 		addi	a4,a4,1
 793              	.LVL96:
 794 04a0 6FF05FFE 		j	.L55
 795              	.L57:
 796              	.LBE10:
 797              	.LBB11:
  31:src/kernel/buddyAllocator.cpp ****         addBlocks(buddy, (block*)buddy->startAddr + i, 0);
 798              		.loc 1 31 16 is_stmt 0
 799 04a4 93040000 		li	s1,0
 800              	.LVL97:
 801              	.L54:
  31:src/kernel/buddyAllocator.cpp ****         addBlocks(buddy, (block*)buddy->startAddr + i, 0);
 802              		.loc 1 31 24 is_stmt 1 discriminator 3
 803 04a8 63F43403 		bgeu	s1,s3,.L52
  32:src/kernel/buddyAllocator.cpp **** 
 804              		.loc 1 32 9 discriminator 2
  32:src/kernel/buddyAllocator.cpp **** 
 805              		.loc 1 32 41 is_stmt 0 discriminator 2
 806 04ac 83358900 		ld	a1,8(s2)
  32:src/kernel/buddyAllocator.cpp **** 
 807              		.loc 1 32 51 discriminator 2
 808 04b0 9397C400 		slli	a5,s1,12
  32:src/kernel/buddyAllocator.cpp **** 
 809              		.loc 1 32 18 discriminator 2
 810 04b4 13060000 		li	a2,0
 811 04b8 B385F500 		add	a1,a1,a5
 812 04bc 13050900 		mv	a0,s2
 813 04c0 97000000 		call	_Z9addBlocksP14buddyAllocatorPvm
 813      E7800000 
 814              	.LVL98:
  31:src/kernel/buddyAllocator.cpp ****         addBlocks(buddy, (block*)buddy->startAddr + i, 0);
 815              		.loc 1 31 5 is_stmt 1 discriminator 2
 816 04c8 93841400 		addi	s1,s1,1
 817              	.LVL99:
 818 04cc 6FF0DFFD 		j	.L54
 819              	.L52:
 820              	.LBE11:
  35:src/kernel/buddyAllocator.cpp **** 
 821              		.loc 1 35 1 is_stmt 0
GAS LISTING /tmp/cc6dVBPf.s 			page 21


 822 04d0 13050900 		mv	a0,s2
 823 04d4 83308102 		ld	ra,40(sp)
 824              		.cfi_restore 1
 825 04d8 03340102 		ld	s0,32(sp)
 826              		.cfi_restore 8
 827              		.cfi_def_cfa 2, 48
 828 04dc 83348101 		ld	s1,24(sp)
 829              		.cfi_restore 9
 830              	.LVL100:
 831 04e0 03390101 		ld	s2,16(sp)
 832              		.cfi_restore 18
 833              	.LVL101:
 834 04e4 83398100 		ld	s3,8(sp)
 835              		.cfi_restore 19
 836              	.LVL102:
 837 04e8 13010103 		addi	sp,sp,48
 838              		.cfi_def_cfa_offset 0
 839 04ec 67800000 		jr	ra
 840              		.cfi_endproc
 841              	.LFE5:
 843              		.align	2
 844              		.globl	_Z10buddy_freeP14buddyAllocatorPvm
 846              	_Z10buddy_freeP14buddyAllocatorPvm:
 847              	.LFB8:
  80:src/kernel/buddyAllocator.cpp ****     size_t level = getDeg2Ceil(numOfBlocks);
 848              		.loc 1 80 1 is_stmt 1
 849              		.cfi_startproc
 850              	.LVL103:
 851 04f0 130101FD 		addi	sp,sp,-48
 852              		.cfi_def_cfa_offset 48
 853 04f4 23341102 		sd	ra,40(sp)
 854 04f8 23308102 		sd	s0,32(sp)
 855 04fc 233C9100 		sd	s1,24(sp)
 856 0500 23382101 		sd	s2,16(sp)
 857 0504 23343101 		sd	s3,8(sp)
 858              		.cfi_offset 1, -8
 859              		.cfi_offset 8, -16
 860              		.cfi_offset 9, -24
 861              		.cfi_offset 18, -32
 862              		.cfi_offset 19, -40
 863 0508 13040103 		addi	s0,sp,48
 864              		.cfi_def_cfa 8, 0
 865 050c 93040500 		mv	s1,a0
 866 0510 93890500 		mv	s3,a1
  81:src/kernel/buddyAllocator.cpp ****     addBlocks(buddy, addr, level); //adds free blocks
 867              		.loc 1 81 5
  81:src/kernel/buddyAllocator.cpp ****     addBlocks(buddy, addr, level); //adds free blocks
 868              		.loc 1 81 31 is_stmt 0
 869 0514 13050600 		mv	a0,a2
 870              	.LVL104:
 871 0518 97000000 		call	_Z11getDeg2Ceilm
 871      E7800000 
 872              	.LVL105:
 873 0520 13090500 		mv	s2,a0
 874              	.LVL106:
  82:src/kernel/buddyAllocator.cpp ****     buddy->numOfFreeBlocks += (1 << level);
 875              		.loc 1 82 5 is_stmt 1
GAS LISTING /tmp/cc6dVBPf.s 			page 22


  82:src/kernel/buddyAllocator.cpp ****     buddy->numOfFreeBlocks += (1 << level);
 876              		.loc 1 82 14 is_stmt 0
 877 0524 13060500 		mv	a2,a0
 878 0528 93850900 		mv	a1,s3
 879 052c 13850400 		mv	a0,s1
 880              	.LVL107:
 881 0530 97000000 		call	_Z9addBlocksP14buddyAllocatorPvm
 881      E7800000 
 882              	.LVL108:
  83:src/kernel/buddyAllocator.cpp **** }
 883              		.loc 1 83 5 is_stmt 1
  83:src/kernel/buddyAllocator.cpp **** }
 884              		.loc 1 83 34 is_stmt 0
 885 0538 13051000 		li	a0,1
 886 053c 3B152501 		sllw	a0,a0,s2
  83:src/kernel/buddyAllocator.cpp **** }
 887              		.loc 1 83 28
 888 0540 03B90401 		ld	s2,16(s1)
 889              	.LVL109:
 890 0544 3309A900 		add	s2,s2,a0
 891 0548 23B82401 		sd	s2,16(s1)
  84:src/kernel/buddyAllocator.cpp **** 
 892              		.loc 1 84 1
 893 054c 83308102 		ld	ra,40(sp)
 894              		.cfi_restore 1
 895 0550 03340102 		ld	s0,32(sp)
 896              		.cfi_restore 8
 897              		.cfi_def_cfa 2, 48
 898 0554 83348101 		ld	s1,24(sp)
 899              		.cfi_restore 9
 900              	.LVL110:
 901 0558 03390101 		ld	s2,16(sp)
 902              		.cfi_restore 18
 903 055c 83398100 		ld	s3,8(sp)
 904              		.cfi_restore 19
 905              	.LVL111:
 906 0560 13010103 		addi	sp,sp,48
 907              		.cfi_def_cfa_offset 0
 908 0564 67800000 		jr	ra
 909              		.cfi_endproc
 910              	.LFE8:
 912              		.section	.rodata.str1.8,"aMS",@progbits,1
 913              		.align	3
 914              	.LC0:
 915 0000 42756464 		.string	"Buddy info-------------------------------------------\n"
 915      7920696E 
 915      666F2D2D 
 915      2D2D2D2D 
 915      2D2D2D2D 
 916 0037 00       		.align	3
 917              	.LC1:
 918 0038 42756464 		.string	"Buddy starting address "
 918      79207374 
 918      61727469 
 918      6E672061 
 918      64647265 
 919              		.align	3
GAS LISTING /tmp/cc6dVBPf.s 			page 23


 920              	.LC2:
 921 0050 42756464 		.string	"Buddy number of blocks "
 921      79206E75 
 921      6D626572 
 921      206F6620 
 921      626C6F63 
 922              		.align	3
 923              	.LC3:
 924 0068 42756464 		.string	"Buddy number of free blocks "
 924      79206E75 
 924      6D626572 
 924      206F6620 
 924      66726565 
 925 0085 000000   		.align	3
 926              	.LC4:
 927 0088 4C657665 		.string	"Level "
 927      6C2000
 928 008f 00       		.align	3
 929              	.LC5:
 930 0090 46726565 		.string	"Free blocks on this level\n"
 930      20626C6F 
 930      636B7320 
 930      6F6E2074 
 930      68697320 
 931 00ab 00000000 		.align	3
 931      00
 932              	.LC6:
 933 00b0 0A00     		.string	"\n"
 934 00b2 00000000 		.align	3
 934      0000
 935              	.LC7:
 936 00b8 456E6420 		.string	"End of buddy info-------------------------------------------\n"
 936      6F662062 
 936      75646479 
 936      20696E66 
 936      6F2D2D2D 
 937              		.text
 938              		.align	2
 939              		.globl	_Z14printBuddyInfoP14buddyAllocator
 941              	_Z14printBuddyInfoP14buddyAllocator:
 942              	.LFB16:
 188:src/kernel/buddyAllocator.cpp **** 
 189:src/kernel/buddyAllocator.cpp **** void printBuddyInfo(buddyAllocator* buddy)
 190:src/kernel/buddyAllocator.cpp **** {
 943              		.loc 1 190 1 is_stmt 1
 944              		.cfi_startproc
 945              	.LVL112:
 946 0568 130101FD 		addi	sp,sp,-48
 947              		.cfi_def_cfa_offset 48
 948 056c 23341102 		sd	ra,40(sp)
 949 0570 23308102 		sd	s0,32(sp)
 950 0574 233C9100 		sd	s1,24(sp)
 951 0578 23382101 		sd	s2,16(sp)
 952 057c 23343101 		sd	s3,8(sp)
 953              		.cfi_offset 1, -8
 954              		.cfi_offset 8, -16
 955              		.cfi_offset 9, -24
GAS LISTING /tmp/cc6dVBPf.s 			page 24


 956              		.cfi_offset 18, -32
 957              		.cfi_offset 19, -40
 958 0580 13040103 		addi	s0,sp,48
 959              		.cfi_def_cfa 8, 0
 960 0584 93090500 		mv	s3,a0
 191:src/kernel/buddyAllocator.cpp ****     KConsole::trapPrintString("Buddy info-------------------------------------------\n");
 961              		.loc 1 191 5
 962              		.loc 1 191 30 is_stmt 0
 963 0588 17050000 		lla	a0,.LC0
 963      13050500 
 964              	.LVL113:
 965 0590 97000000 		call	_ZN8KConsole15trapPrintStringEPKc@plt
 965      E7800000 
 966              	.LVL114:
 192:src/kernel/buddyAllocator.cpp ****     KConsole::trapPrintStringInt("Buddy starting address ", (size_t)buddy->startAddr, 16);
 967              		.loc 1 192 5 is_stmt 1
 968              		.loc 1 192 33 is_stmt 0
 969 0598 13060001 		li	a2,16
 970 059c 83B58900 		ld	a1,8(s3)
 971 05a0 17050000 		lla	a0,.LC1
 971      13050500 
 972 05a8 97000000 		call	_ZN8KConsole18trapPrintStringIntEPKcmi@plt
 972      E7800000 
 973              	.LVL115:
 193:src/kernel/buddyAllocator.cpp ****     KConsole::trapPrintStringInt("Buddy number of blocks ", buddy->numOfBlocks);
 974              		.loc 1 193 5 is_stmt 1
 975              		.loc 1 193 33 is_stmt 0
 976 05b0 1306A000 		li	a2,10
 977 05b4 83B50900 		ld	a1,0(s3)
 978 05b8 17050000 		lla	a0,.LC2
 978      13050500 
 979 05c0 97000000 		call	_ZN8KConsole18trapPrintStringIntEPKcmi@plt
 979      E7800000 
 980              	.LVL116:
 194:src/kernel/buddyAllocator.cpp ****     KConsole::trapPrintStringInt("Buddy number of free blocks ", buddy->numOfFreeBlocks);
 981              		.loc 1 194 5 is_stmt 1
 982              		.loc 1 194 33 is_stmt 0
 983 05c8 1306A000 		li	a2,10
 984 05cc 83B50901 		ld	a1,16(s3)
 985 05d0 17050000 		lla	a0,.LC3
 985      13050500 
 986 05d8 97000000 		call	_ZN8KConsole18trapPrintStringIntEPKcmi@plt
 986      E7800000 
 987              	.LVL117:
 195:src/kernel/buddyAllocator.cpp ****     for(int i = buddy->maxLevel;i>=0;i--)
 988              		.loc 1 195 5 is_stmt 1
 989              	.LBB12:
 990              		.loc 1 195 13 is_stmt 0
 991 05e0 03A98901 		lw	s2,24(s3)
 992              	.LVL118:
 993 05e4 6F008000 		j	.L65
 994              	.LVL119:
 995              	.L63:
 996              		.loc 1 195 5 is_stmt 1 discriminator 2
 997 05e8 1B09F9FF 		addiw	s2,s2,-1
 998              	.LVL120:
 999              	.L65:
GAS LISTING /tmp/cc6dVBPf.s 			page 25


 1000              		.loc 1 195 34 discriminator 1
 1001 05ec 63460906 		bltz	s2,.L62
 1002              	.LBB13:
 196:src/kernel/buddyAllocator.cpp ****     {
 197:src/kernel/buddyAllocator.cpp ****         KConsole::trapPrintStringInt("Level ",i);
 1003              		.loc 1 197 9
 1004              		.loc 1 197 37 is_stmt 0
 1005 05f0 1306A000 		li	a2,10
 1006 05f4 93050900 		mv	a1,s2
 1007 05f8 17050000 		lla	a0,.LC4
 1007      13050500 
 1008 0600 97000000 		call	_ZN8KConsole18trapPrintStringIntEPKcmi@plt
 1008      E7800000 
 1009              	.LVL121:
 198:src/kernel/buddyAllocator.cpp ****         KConsole::trapPrintString("Free blocks on this level\n");
 1010              		.loc 1 198 9 is_stmt 1
 1011              		.loc 1 198 34 is_stmt 0
 1012 0608 17050000 		lla	a0,.LC5
 1012      13050500 
 1013 0610 97000000 		call	_ZN8KConsole15trapPrintStringEPKc@plt
 1013      E7800000 
 1014              	.LVL122:
 199:src/kernel/buddyAllocator.cpp ****         buddyBlock* curr = buddy->bucket[i].first;
 1015              		.loc 1 199 9 is_stmt 1
 1016              		.loc 1 199 21 is_stmt 0
 1017 0618 93072900 		addi	a5,s2,2
 1018 061c 93974700 		slli	a5,a5,4
 1019 0620 B387F900 		add	a5,s3,a5
 1020 0624 83B40700 		ld	s1,0(a5)
 1021              	.LVL123:
 1022              	.L64:
 200:src/kernel/buddyAllocator.cpp ****         while(curr != 0)
 1023              		.loc 1 200 9 is_stmt 1
 1024              		.loc 1 200 20
 1025 0628 E38004FC 		beqz	s1,.L63
 201:src/kernel/buddyAllocator.cpp ****         {
 202:src/kernel/buddyAllocator.cpp ****             KConsole::trapPrintInt((size_t)curr, 16);
 1026              		.loc 1 202 13
 1027              		.loc 1 202 35 is_stmt 0
 1028 062c 13060000 		li	a2,0
 1029 0630 93050001 		li	a1,16
 1030 0634 13850400 		mv	a0,s1
 1031 0638 97000000 		call	_ZN8KConsole12trapPrintIntEmii@plt
 1031      E7800000 
 1032              	.LVL124:
 203:src/kernel/buddyAllocator.cpp ****             KConsole::trapPrintString("\n");
 1033              		.loc 1 203 13 is_stmt 1
 1034              		.loc 1 203 38 is_stmt 0
 1035 0640 17050000 		lla	a0,.LC6
 1035      13050500 
 1036 0648 97000000 		call	_ZN8KConsole15trapPrintStringEPKc@plt
 1036      E7800000 
 1037              	.LVL125:
 204:src/kernel/buddyAllocator.cpp ****             curr = curr->next;
 1038              		.loc 1 204 13 is_stmt 1
 1039              		.loc 1 204 18 is_stmt 0
 1040 0650 83B40400 		ld	s1,0(s1)
GAS LISTING /tmp/cc6dVBPf.s 			page 26


 1041              	.LVL126:
 200:src/kernel/buddyAllocator.cpp ****         {
 1042              		.loc 1 200 9
 1043 0654 6FF05FFD 		j	.L64
 1044              	.LVL127:
 1045              	.L62:
 1046              	.LBE13:
 1047              	.LBE12:
 205:src/kernel/buddyAllocator.cpp ****         }
 206:src/kernel/buddyAllocator.cpp ****     }
 207:src/kernel/buddyAllocator.cpp ****     KConsole::trapPrintString("End of buddy info-------------------------------------------\n");
 1048              		.loc 1 207 5 is_stmt 1
 1049              		.loc 1 207 30 is_stmt 0
 1050 0658 17050000 		lla	a0,.LC7
 1050      13050500 
 1051 0660 97000000 		call	_ZN8KConsole15trapPrintStringEPKc@plt
 1051      E7800000 
 1052              	.LVL128:
 208:src/kernel/buddyAllocator.cpp **** }...
 1053              		.loc 1 208 1
 1054 0668 83308102 		ld	ra,40(sp)
 1055              		.cfi_restore 1
 1056 066c 03340102 		ld	s0,32(sp)
 1057              		.cfi_restore 8
 1058              		.cfi_def_cfa 2, 48
 1059 0670 83348101 		ld	s1,24(sp)
 1060              		.cfi_restore 9
 1061 0674 03390101 		ld	s2,16(sp)
 1062              		.cfi_restore 18
 1063              	.LVL129:
 1064 0678 83398100 		ld	s3,8(sp)
 1065              		.cfi_restore 19
 1066              	.LVL130:
 1067 067c 13010103 		addi	sp,sp,48
 1068              		.cfi_def_cfa_offset 0
 1069 0680 67800000 		jr	ra
 1070              		.cfi_endproc
 1071              	.LFE16:
 1073              	.Letext0:
 1074              		.file 2 "src/kernel/../../h/../lib/hw.h"
 1075              		.file 3 "src/kernel/../../h/buddyAllocator.hpp"
 1076              		.file 4 "src/kernel/../../h/PCB.hpp"
 1077              		.file 5 "src/kernel/../../h/KSemaphore.hpp"
 1078              		.file 6 "src/kernel/../../h/KConsole.hpp"
GAS LISTING /tmp/cc6dVBPf.s 			page 27

