GAS LISTING /tmp/cchYuXLD.s 			page 1


   1              		.file	"buddyTests.cpp"
   2              		.option pic
   3              		.option norelax
   4              		.text
   5              	.Ltext0:
   6              		.align	2
   7              		.globl	_Z14buddyInitTest1v
   9              	_Z14buddyInitTest1v:
  10              	.LFB5:
  11              		.file 1 "src/kernel/buddyTests.cpp"
   1:src/kernel/buddyTests.cpp **** #include "../../h/buddyTests.hpp"
   2:src/kernel/buddyTests.cpp **** #include "../../h/KConsole.hpp"
   3:src/kernel/buddyTests.cpp **** #include "../../h/MemoryAllocator.hpp"
   4:src/kernel/buddyTests.cpp **** 
   5:src/kernel/buddyTests.cpp **** void buddyInitTest1()
   6:src/kernel/buddyTests.cpp **** {
  12              		.loc 1 6 1
  13              		.cfi_startproc
  14 0000 130101FF 		addi	sp,sp,-16
  15              		.cfi_def_cfa_offset 16
  16 0004 23341100 		sd	ra,8(sp)
  17 0008 23308100 		sd	s0,0(sp)
  18              		.cfi_offset 1, -8
  19              		.cfi_offset 8, -16
  20 000c 13040101 		addi	s0,sp,16
  21              		.cfi_def_cfa 8, 0
   7:src/kernel/buddyTests.cpp ****     printBuddyInfo();
  22              		.loc 1 7 5
  23              		.loc 1 7 19 is_stmt 0
  24 0010 97000000 		call	_Z14printBuddyInfov@plt
  24      E7800000 
  25              	.LVL0:
   8:src/kernel/buddyTests.cpp **** }
  26              		.loc 1 8 1
  27 0018 83308100 		ld	ra,8(sp)
  28              		.cfi_restore 1
  29 001c 03340100 		ld	s0,0(sp)
  30              		.cfi_restore 8
  31              		.cfi_def_cfa 2, 16
  32 0020 13010101 		addi	sp,sp,16
  33              		.cfi_def_cfa_offset 0
  34 0024 67800000 		jr	ra
  35              		.cfi_endproc
  36              	.LFE5:
  38              		.align	2
  39              		.globl	_Z20buddyOnlyAllocsTest1v
  41              	_Z20buddyOnlyAllocsTest1v:
  42              	.LFB6:
   9:src/kernel/buddyTests.cpp **** 
  10:src/kernel/buddyTests.cpp **** void buddyOnlyAllocsTest1()
  11:src/kernel/buddyTests.cpp **** {
  43              		.loc 1 11 1 is_stmt 1
  44              		.cfi_startproc
  45 0028 130101FF 		addi	sp,sp,-16
  46              		.cfi_def_cfa_offset 16
  47 002c 23341100 		sd	ra,8(sp)
  48 0030 23308100 		sd	s0,0(sp)
GAS LISTING /tmp/cchYuXLD.s 			page 2


  49              		.cfi_offset 1, -8
  50              		.cfi_offset 8, -16
  51 0034 13040101 		addi	s0,sp,16
  52              		.cfi_def_cfa 8, 0
  12:src/kernel/buddyTests.cpp ****     printBuddyInfo();
  53              		.loc 1 12 5
  54              		.loc 1 12 19 is_stmt 0
  55 0038 97000000 		call	_Z14printBuddyInfov@plt
  55      E7800000 
  56              	.LVL1:
  13:src/kernel/buddyTests.cpp ****     buddy_alloc(1);
  57              		.loc 1 13 5 is_stmt 1
  58              		.loc 1 13 16 is_stmt 0
  59 0040 13051000 		li	a0,1
  60 0044 97000000 		call	_Z11buddy_allocm@plt
  60      E7800000 
  61              	.LVL2:
  14:src/kernel/buddyTests.cpp ****     printBuddyInfo();
  62              		.loc 1 14 5 is_stmt 1
  63              		.loc 1 14 19 is_stmt 0
  64 004c 97000000 		call	_Z14printBuddyInfov@plt
  64      E7800000 
  65              	.LVL3:
  15:src/kernel/buddyTests.cpp ****     buddy_alloc(1);
  66              		.loc 1 15 5 is_stmt 1
  67              		.loc 1 15 16 is_stmt 0
  68 0054 13051000 		li	a0,1
  69 0058 97000000 		call	_Z11buddy_allocm@plt
  69      E7800000 
  70              	.LVL4:
  16:src/kernel/buddyTests.cpp ****     printBuddyInfo();
  71              		.loc 1 16 5 is_stmt 1
  72              		.loc 1 16 19 is_stmt 0
  73 0060 97000000 		call	_Z14printBuddyInfov@plt
  73      E7800000 
  74              	.LVL5:
  17:src/kernel/buddyTests.cpp ****     buddy_alloc(1);
  75              		.loc 1 17 5 is_stmt 1
  76              		.loc 1 17 16 is_stmt 0
  77 0068 13051000 		li	a0,1
  78 006c 97000000 		call	_Z11buddy_allocm@plt
  78      E7800000 
  79              	.LVL6:
  18:src/kernel/buddyTests.cpp ****     printBuddyInfo();
  80              		.loc 1 18 5 is_stmt 1
  81              		.loc 1 18 19 is_stmt 0
  82 0074 97000000 		call	_Z14printBuddyInfov@plt
  82      E7800000 
  83              	.LVL7:
  19:src/kernel/buddyTests.cpp ****     buddy_alloc(3);
  84              		.loc 1 19 5 is_stmt 1
  85              		.loc 1 19 16 is_stmt 0
  86 007c 13053000 		li	a0,3
  87 0080 97000000 		call	_Z11buddy_allocm@plt
  87      E7800000 
  88              	.LVL8:
  20:src/kernel/buddyTests.cpp ****     printBuddyInfo();
GAS LISTING /tmp/cchYuXLD.s 			page 3


  89              		.loc 1 20 5 is_stmt 1
  90              		.loc 1 20 19 is_stmt 0
  91 0088 97000000 		call	_Z14printBuddyInfov@plt
  91      E7800000 
  92              	.LVL9:
  21:src/kernel/buddyTests.cpp **** }
  93              		.loc 1 21 1
  94 0090 83308100 		ld	ra,8(sp)
  95              		.cfi_restore 1
  96 0094 03340100 		ld	s0,0(sp)
  97              		.cfi_restore 8
  98              		.cfi_def_cfa 2, 16
  99 0098 13010101 		addi	sp,sp,16
 100              		.cfi_def_cfa_offset 0
 101 009c 67800000 		jr	ra
 102              		.cfi_endproc
 103              	.LFE6:
 105              		.align	2
 106              		.globl	_Z20buddyOnlyAllocsTest2v
 108              	_Z20buddyOnlyAllocsTest2v:
 109              	.LFB7:
  22:src/kernel/buddyTests.cpp **** 
  23:src/kernel/buddyTests.cpp **** void buddyOnlyAllocsTest2()
  24:src/kernel/buddyTests.cpp **** {
 110              		.loc 1 24 1 is_stmt 1
 111              		.cfi_startproc
 112 00a0 130101FF 		addi	sp,sp,-16
 113              		.cfi_def_cfa_offset 16
 114 00a4 23341100 		sd	ra,8(sp)
 115 00a8 23308100 		sd	s0,0(sp)
 116              		.cfi_offset 1, -8
 117              		.cfi_offset 8, -16
 118 00ac 13040101 		addi	s0,sp,16
 119              		.cfi_def_cfa 8, 0
  25:src/kernel/buddyTests.cpp ****     void* adr = buddy_alloc(100);
 120              		.loc 1 25 5
 121              		.loc 1 25 28 is_stmt 0
 122 00b0 13054006 		li	a0,100
 123 00b4 97000000 		call	_Z11buddy_allocm@plt
 123      E7800000 
 124              	.LVL10:
  26:src/kernel/buddyTests.cpp ****     if(adr == nullptr)
 125              		.loc 1 26 5 is_stmt 1
 126 00bc 630A0500 		beqz	a0,.L8
 127              	.LVL11:
 128              	.L5:
  27:src/kernel/buddyTests.cpp ****     {
  28:src/kernel/buddyTests.cpp ****         printBuddyInfo();
  29:src/kernel/buddyTests.cpp ****     }
  30:src/kernel/buddyTests.cpp **** }
 129              		.loc 1 30 1 is_stmt 0
 130 00c0 83308100 		ld	ra,8(sp)
 131              		.cfi_remember_state
 132              		.cfi_restore 1
 133 00c4 03340100 		ld	s0,0(sp)
 134              		.cfi_restore 8
 135              		.cfi_def_cfa 2, 16
GAS LISTING /tmp/cchYuXLD.s 			page 4


 136 00c8 13010101 		addi	sp,sp,16
 137              		.cfi_def_cfa_offset 0
 138 00cc 67800000 		jr	ra
 139              	.LVL12:
 140              	.L8:
 141              		.cfi_restore_state
  28:src/kernel/buddyTests.cpp ****     }
 142              		.loc 1 28 9 is_stmt 1
  28:src/kernel/buddyTests.cpp ****     }
 143              		.loc 1 28 23 is_stmt 0
 144 00d0 97000000 		call	_Z14printBuddyInfov@plt
 144      E7800000 
 145              	.LVL13:
 146              		.loc 1 30 1
 147 00d8 6FF09FFE 		j	.L5
 148              		.cfi_endproc
 149              	.LFE7:
 151              		.align	2
 152              		.globl	_Z19buddyAllocFreeTest1v
 154              	_Z19buddyAllocFreeTest1v:
 155              	.LFB8:
  31:src/kernel/buddyTests.cpp **** 
  32:src/kernel/buddyTests.cpp **** void buddyAllocFreeTest1()
  33:src/kernel/buddyTests.cpp **** {
 156              		.loc 1 33 1 is_stmt 1
 157              		.cfi_startproc
 158 00dc 130101FE 		addi	sp,sp,-32
 159              		.cfi_def_cfa_offset 32
 160 00e0 233C1100 		sd	ra,24(sp)
 161 00e4 23388100 		sd	s0,16(sp)
 162 00e8 23349100 		sd	s1,8(sp)
 163 00ec 23302101 		sd	s2,0(sp)
 164              		.cfi_offset 1, -8
 165              		.cfi_offset 8, -16
 166              		.cfi_offset 9, -24
 167              		.cfi_offset 18, -32
 168 00f0 13040102 		addi	s0,sp,32
 169              		.cfi_def_cfa 8, 0
  34:src/kernel/buddyTests.cpp ****     printBuddyInfo();
 170              		.loc 1 34 5
 171              		.loc 1 34 19 is_stmt 0
 172 00f4 97000000 		call	_Z14printBuddyInfov@plt
 172      E7800000 
 173              	.LVL14:
  35:src/kernel/buddyTests.cpp ****     void* adr = buddy_alloc(1);
 174              		.loc 1 35 5 is_stmt 1
 175              		.loc 1 35 28 is_stmt 0
 176 00fc 13051000 		li	a0,1
 177 0100 97000000 		call	_Z11buddy_allocm@plt
 177      E7800000 
 178              	.LVL15:
 179 0108 93040500 		mv	s1,a0
 180              	.LVL16:
  36:src/kernel/buddyTests.cpp ****     printBuddyInfo();
 181              		.loc 1 36 5 is_stmt 1
 182              		.loc 1 36 19 is_stmt 0
 183 010c 97000000 		call	_Z14printBuddyInfov@plt
GAS LISTING /tmp/cchYuXLD.s 			page 5


 183      E7800000 
 184              	.LVL17:
  37:src/kernel/buddyTests.cpp ****     buddy_free(adr, 1);
 185              		.loc 1 37 5 is_stmt 1
 186              		.loc 1 37 15 is_stmt 0
 187 0114 93051000 		li	a1,1
 188 0118 13850400 		mv	a0,s1
 189 011c 97000000 		call	_Z10buddy_freePvm@plt
 189      E7800000 
 190              	.LVL18:
  38:src/kernel/buddyTests.cpp ****     printBuddyInfo();
 191              		.loc 1 38 5 is_stmt 1
 192              		.loc 1 38 19 is_stmt 0
 193 0124 97000000 		call	_Z14printBuddyInfov@plt
 193      E7800000 
 194              	.LVL19:
  39:src/kernel/buddyTests.cpp **** 
  40:src/kernel/buddyTests.cpp ****     adr = buddy_alloc(2);
 195              		.loc 1 40 5 is_stmt 1
 196              		.loc 1 40 22 is_stmt 0
 197 012c 13052000 		li	a0,2
 198 0130 97000000 		call	_Z11buddy_allocm@plt
 198      E7800000 
 199              	.LVL20:
 200 0138 93040500 		mv	s1,a0
 201              	.LVL21:
  41:src/kernel/buddyTests.cpp ****     void* adr2 = buddy_alloc(3);
 202              		.loc 1 41 5 is_stmt 1
 203              		.loc 1 41 29 is_stmt 0
 204 013c 13053000 		li	a0,3
 205 0140 97000000 		call	_Z11buddy_allocm@plt
 205      E7800000 
 206              	.LVL22:
 207 0148 13090500 		mv	s2,a0
 208              	.LVL23:
  42:src/kernel/buddyTests.cpp ****     printBuddyInfo();
 209              		.loc 1 42 5 is_stmt 1
 210              		.loc 1 42 19 is_stmt 0
 211 014c 97000000 		call	_Z14printBuddyInfov@plt
 211      E7800000 
 212              	.LVL24:
  43:src/kernel/buddyTests.cpp **** 
  44:src/kernel/buddyTests.cpp ****     buddy_free(adr, 2);
 213              		.loc 1 44 5 is_stmt 1
 214              		.loc 1 44 15 is_stmt 0
 215 0154 93052000 		li	a1,2
 216 0158 13850400 		mv	a0,s1
 217 015c 97000000 		call	_Z10buddy_freePvm@plt
 217      E7800000 
 218              	.LVL25:
  45:src/kernel/buddyTests.cpp ****     printBuddyInfo();
 219              		.loc 1 45 5 is_stmt 1
 220              		.loc 1 45 19 is_stmt 0
 221 0164 97000000 		call	_Z14printBuddyInfov@plt
 221      E7800000 
 222              	.LVL26:
  46:src/kernel/buddyTests.cpp ****     adr = buddy_alloc(1);
GAS LISTING /tmp/cchYuXLD.s 			page 6


 223              		.loc 1 46 5 is_stmt 1
 224              		.loc 1 46 22 is_stmt 0
 225 016c 13051000 		li	a0,1
 226 0170 97000000 		call	_Z11buddy_allocm@plt
 226      E7800000 
 227              	.LVL27:
 228 0178 93040500 		mv	s1,a0
 229              	.LVL28:
  47:src/kernel/buddyTests.cpp ****     printBuddyInfo();
 230              		.loc 1 47 5 is_stmt 1
 231              		.loc 1 47 19 is_stmt 0
 232 017c 97000000 		call	_Z14printBuddyInfov@plt
 232      E7800000 
 233              	.LVL29:
  48:src/kernel/buddyTests.cpp **** 
  49:src/kernel/buddyTests.cpp ****     buddy_free(adr2, 3);
 234              		.loc 1 49 5 is_stmt 1
 235              		.loc 1 49 15 is_stmt 0
 236 0184 93053000 		li	a1,3
 237 0188 13050900 		mv	a0,s2
 238 018c 97000000 		call	_Z10buddy_freePvm@plt
 238      E7800000 
 239              	.LVL30:
  50:src/kernel/buddyTests.cpp ****     printBuddyInfo();
 240              		.loc 1 50 5 is_stmt 1
 241              		.loc 1 50 19 is_stmt 0
 242 0194 97000000 		call	_Z14printBuddyInfov@plt
 242      E7800000 
 243              	.LVL31:
  51:src/kernel/buddyTests.cpp ****     buddy_free(adr, 1);
 244              		.loc 1 51 5 is_stmt 1
 245              		.loc 1 51 15 is_stmt 0
 246 019c 93051000 		li	a1,1
 247 01a0 13850400 		mv	a0,s1
 248 01a4 97000000 		call	_Z10buddy_freePvm@plt
 248      E7800000 
 249              	.LVL32:
  52:src/kernel/buddyTests.cpp ****     printBuddyInfo();
 250              		.loc 1 52 5 is_stmt 1
 251              		.loc 1 52 19 is_stmt 0
 252 01ac 97000000 		call	_Z14printBuddyInfov@plt
 252      E7800000 
 253              	.LVL33:
  53:src/kernel/buddyTests.cpp **** }
 254              		.loc 1 53 1
 255 01b4 83308101 		ld	ra,24(sp)
 256              		.cfi_restore 1
 257 01b8 03340101 		ld	s0,16(sp)
 258              		.cfi_restore 8
 259              		.cfi_def_cfa 2, 32
 260 01bc 83348100 		ld	s1,8(sp)
 261              		.cfi_restore 9
 262              	.LVL34:
 263 01c0 03390100 		ld	s2,0(sp)
 264              		.cfi_restore 18
 265              	.LVL35:
 266 01c4 13010102 		addi	sp,sp,32
GAS LISTING /tmp/cchYuXLD.s 			page 7


 267              		.cfi_def_cfa_offset 0
 268 01c8 67800000 		jr	ra
 269              		.cfi_endproc
 270              	.LFE8:
 272              		.section	.rodata.str1.8,"aMS",@progbits,1
 273              		.align	3
 274              	.LC0:
 275 0000 42616420 		.string	"Bad allocation "
 275      616C6C6F 
 275      63617469 
 275      6F6E2000 
 276              		.text
 277              		.align	2
 278              		.globl	_Z13buddyTestMixav
 280              	_Z13buddyTestMixav:
 281              	.LFB9:
  54:src/kernel/buddyTests.cpp **** 
  55:src/kernel/buddyTests.cpp **** void buddyTestMixa()
  56:src/kernel/buddyTests.cpp **** {
 282              		.loc 1 56 1 is_stmt 1
 283              		.cfi_startproc
 284 01cc 130101FD 		addi	sp,sp,-48
 285              		.cfi_def_cfa_offset 48
 286 01d0 23341102 		sd	ra,40(sp)
 287 01d4 23308102 		sd	s0,32(sp)
 288 01d8 233C9100 		sd	s1,24(sp)
 289 01dc 23382101 		sd	s2,16(sp)
 290 01e0 23343101 		sd	s3,8(sp)
 291 01e4 23304101 		sd	s4,0(sp)
 292              		.cfi_offset 1, -8
 293              		.cfi_offset 8, -16
 294              		.cfi_offset 9, -24
 295              		.cfi_offset 18, -32
 296              		.cfi_offset 19, -40
 297              		.cfi_offset 20, -48
 298 01e8 13040103 		addi	s0,sp,48
 299              		.cfi_def_cfa 8, 0
  57:src/kernel/buddyTests.cpp ****     void** x = (void**)MemoryAllocator::kmalloc(5000*sizeof(void*));
 300              		.loc 1 57 5
 301              		.loc 1 57 48 is_stmt 0
 302 01ec 37A50000 		li	a0,40960
 303 01f0 130505C4 		addi	a0,a0,-960
 304 01f4 97000000 		call	_ZN15MemoryAllocator7kmallocEm@plt
 304      E7800000 
 305              	.LVL36:
 306 01fc 93090500 		mv	s3,a0
 307              	.LVL37:
  58:src/kernel/buddyTests.cpp ****     printBuddyInfo();
 308              		.loc 1 58 5 is_stmt 1
 309              		.loc 1 58 19 is_stmt 0
 310 0200 97000000 		call	_Z14printBuddyInfov@plt
 310      E7800000 
 311              	.LVL38:
  59:src/kernel/buddyTests.cpp ****     for(int i = 0; i < 5000;i++)
 312              		.loc 1 59 5 is_stmt 1
 313              	.LBB2:
 314              		.loc 1 59 13 is_stmt 0
GAS LISTING /tmp/cchYuXLD.s 			page 8


 315 0208 93040000 		li	s1,0
 316 020c 6F008000 		j	.L15
 317              	.LVL39:
 318              	.L13:
 319              		.loc 1 59 5 is_stmt 1 discriminator 2
 320 0210 9B841400 		addiw	s1,s1,1
 321              	.LVL40:
 322              	.L15:
 323              		.loc 1 59 22 discriminator 1
 324 0214 B7170000 		li	a5,4096
 325 0218 93877738 		addi	a5,a5,903
 326 021c 63C09706 		bgt	s1,a5,.L12
 327              	.LBB3:
  60:src/kernel/buddyTests.cpp ****     {
  61:src/kernel/buddyTests.cpp ****         x[i] = buddy_alloc(2);
 328              		.loc 1 61 9
 329              		.loc 1 61 12 is_stmt 0
 330 0220 13993400 		slli	s2,s1,3
 331 0224 33892901 		add	s2,s3,s2
 332              		.loc 1 61 27
 333 0228 13052000 		li	a0,2
 334 022c 97000000 		call	_Z11buddy_allocm@plt
 334      E7800000 
 335              	.LVL41:
 336              		.loc 1 61 14
 337 0234 2330A900 		sd	a0,0(s2)
  62:src/kernel/buddyTests.cpp ****         if(x[i] == nullptr)
 338              		.loc 1 62 9 is_stmt 1
 339              	.LBB4:
 340 0238 E31C05FC 		bnez	a0,.L13
 341              	.LBB5:
  63:src/kernel/buddyTests.cpp ****         {
  64:src/kernel/buddyTests.cpp ****             KConsole::trapPrintStringInt("Bad allocation ", i);
 342              		.loc 1 64 13
 343              		.loc 1 64 41 is_stmt 0
 344 023c 1306A000 		li	a2,10
 345 0240 93850400 		mv	a1,s1
 346 0244 17050000 		lla	a0,.LC0
 346      13050500 
 347 024c 97000000 		call	_ZN8KConsole18trapPrintStringIntEPKcmi@plt
 347      E7800000 
 348              	.LVL42:
  65:src/kernel/buddyTests.cpp ****             for(int j = 0;j < i;j++)
 349              		.loc 1 65 13 is_stmt 1
 350              	.LBB6:
 351              		.loc 1 65 21 is_stmt 0
 352 0254 13090000 		li	s2,0
 353              	.LVL43:
 354              	.L14:
 355              		.loc 1 65 29 is_stmt 1 discriminator 3
 356 0258 63529902 		ble	s1,s2,.L12
  66:src/kernel/buddyTests.cpp ****             {
  67:src/kernel/buddyTests.cpp ****                 buddy_free(x[j], 2);
 357              		.loc 1 67 17 discriminator 2
 358              		.loc 1 67 31 is_stmt 0 discriminator 2
 359 025c 93173900 		slli	a5,s2,3
 360 0260 B387F900 		add	a5,s3,a5
GAS LISTING /tmp/cchYuXLD.s 			page 9


 361              		.loc 1 67 27 discriminator 2
 362 0264 93052000 		li	a1,2
 363 0268 03B50700 		ld	a0,0(a5)
 364 026c 97000000 		call	_Z10buddy_freePvm@plt
 364      E7800000 
 365              	.LVL44:
  65:src/kernel/buddyTests.cpp ****             for(int j = 0;j < i;j++)
 366              		.loc 1 65 13 is_stmt 1 discriminator 2
 367 0274 1B091900 		addiw	s2,s2,1
 368              	.LVL45:
 369 0278 6FF01FFE 		j	.L14
 370              	.L12:
 371              	.LBE6:
 372              	.LBE5:
 373              	.LBE4:
 374              	.LBE3:
 375              	.LBE2:
  68:src/kernel/buddyTests.cpp ****             }
  69:src/kernel/buddyTests.cpp ****             break;
  70:src/kernel/buddyTests.cpp ****         }
  71:src/kernel/buddyTests.cpp ****     }
  72:src/kernel/buddyTests.cpp ****     printBuddyInfo();
 376              		.loc 1 72 5
 377              		.loc 1 72 19 is_stmt 0
 378 027c 97000000 		call	_Z14printBuddyInfov@plt
 378      E7800000 
 379              	.LVL46:
  73:src/kernel/buddyTests.cpp **** }
 380              		.loc 1 73 1
 381 0284 83308102 		ld	ra,40(sp)
 382              		.cfi_restore 1
 383 0288 03340102 		ld	s0,32(sp)
 384              		.cfi_restore 8
 385              		.cfi_def_cfa 2, 48
 386 028c 83348101 		ld	s1,24(sp)
 387              		.cfi_restore 9
 388              	.LVL47:
 389 0290 03390101 		ld	s2,16(sp)
 390              		.cfi_restore 18
 391 0294 83398100 		ld	s3,8(sp)
 392              		.cfi_restore 19
 393              	.LVL48:
 394 0298 033A0100 		ld	s4,0(sp)
 395              		.cfi_restore 20
 396 029c 13010103 		addi	sp,sp,48
 397              		.cfi_def_cfa_offset 0
 398 02a0 67800000 		jr	ra
 399              		.cfi_endproc
 400              	.LFE9:
 402              	.Letext0:
 403              		.file 2 "src/kernel/../../h/../lib/hw.h"
 404              		.file 3 "src/kernel/../../h/PCB.hpp"
 405              		.file 4 "src/kernel/../../h/KSemaphore.hpp"
 406              		.file 5 "src/kernel/../../h/KConsole.hpp"
 407              		.file 6 "src/kernel/../../h/MemoryAllocator.hpp"
 408              		.file 7 "src/kernel/../../h/buddyAllocator.hpp"
GAS LISTING /tmp/cchYuXLD.s 			page 10


DEFINED SYMBOLS
                            *ABS*:0000000000000000 buddyTests.cpp
     /tmp/cchYuXLD.s:9      .text:0000000000000000 _Z14buddyInitTest1v
     /tmp/cchYuXLD.s:13     .text:0000000000000000 .L0 
     /tmp/cchYuXLD.s:14     .text:0000000000000000 .L0 
     /tmp/cchYuXLD.s:15     .text:0000000000000004 .L0 
     /tmp/cchYuXLD.s:18     .text:000000000000000c .L0 
     /tmp/cchYuXLD.s:19     .text:000000000000000c .L0 
     /tmp/cchYuXLD.s:21     .text:0000000000000010 .L0 
     /tmp/cchYuXLD.s:23     .text:0000000000000010 .L0 
     /tmp/cchYuXLD.s:24     .text:0000000000000010 .L0 
     /tmp/cchYuXLD.s:27     .text:0000000000000018 .L0 
     /tmp/cchYuXLD.s:28     .text:000000000000001c .L0 
     /tmp/cchYuXLD.s:30     .text:0000000000000020 .L0 
     /tmp/cchYuXLD.s:31     .text:0000000000000020 .L0 
     /tmp/cchYuXLD.s:33     .text:0000000000000024 .L0 
     /tmp/cchYuXLD.s:35     .text:0000000000000028 .L0 
     /tmp/cchYuXLD.s:41     .text:0000000000000028 _Z20buddyOnlyAllocsTest1v
     /tmp/cchYuXLD.s:44     .text:0000000000000028 .L0 
     /tmp/cchYuXLD.s:45     .text:0000000000000028 .L0 
     /tmp/cchYuXLD.s:46     .text:000000000000002c .L0 
     /tmp/cchYuXLD.s:49     .text:0000000000000034 .L0 
     /tmp/cchYuXLD.s:50     .text:0000000000000034 .L0 
     /tmp/cchYuXLD.s:52     .text:0000000000000038 .L0 
     /tmp/cchYuXLD.s:54     .text:0000000000000038 .L0 
     /tmp/cchYuXLD.s:55     .text:0000000000000038 .L0 
     /tmp/cchYuXLD.s:58     .text:0000000000000040 .L0 
     /tmp/cchYuXLD.s:59     .text:0000000000000040 .L0 
     /tmp/cchYuXLD.s:63     .text:000000000000004c .L0 
     /tmp/cchYuXLD.s:64     .text:000000000000004c .L0 
     /tmp/cchYuXLD.s:67     .text:0000000000000054 .L0 
     /tmp/cchYuXLD.s:68     .text:0000000000000054 .L0 
     /tmp/cchYuXLD.s:72     .text:0000000000000060 .L0 
     /tmp/cchYuXLD.s:73     .text:0000000000000060 .L0 
     /tmp/cchYuXLD.s:76     .text:0000000000000068 .L0 
     /tmp/cchYuXLD.s:77     .text:0000000000000068 .L0 
     /tmp/cchYuXLD.s:81     .text:0000000000000074 .L0 
     /tmp/cchYuXLD.s:82     .text:0000000000000074 .L0 
     /tmp/cchYuXLD.s:85     .text:000000000000007c .L0 
     /tmp/cchYuXLD.s:86     .text:000000000000007c .L0 
     /tmp/cchYuXLD.s:90     .text:0000000000000088 .L0 
     /tmp/cchYuXLD.s:91     .text:0000000000000088 .L0 
     /tmp/cchYuXLD.s:94     .text:0000000000000090 .L0 
     /tmp/cchYuXLD.s:95     .text:0000000000000094 .L0 
     /tmp/cchYuXLD.s:97     .text:0000000000000098 .L0 
     /tmp/cchYuXLD.s:98     .text:0000000000000098 .L0 
     /tmp/cchYuXLD.s:100    .text:000000000000009c .L0 
     /tmp/cchYuXLD.s:102    .text:00000000000000a0 .L0 
     /tmp/cchYuXLD.s:108    .text:00000000000000a0 _Z20buddyOnlyAllocsTest2v
     /tmp/cchYuXLD.s:111    .text:00000000000000a0 .L0 
     /tmp/cchYuXLD.s:112    .text:00000000000000a0 .L0 
     /tmp/cchYuXLD.s:113    .text:00000000000000a4 .L0 
     /tmp/cchYuXLD.s:116    .text:00000000000000ac .L0 
     /tmp/cchYuXLD.s:117    .text:00000000000000ac .L0 
     /tmp/cchYuXLD.s:119    .text:00000000000000b0 .L0 
     /tmp/cchYuXLD.s:121    .text:00000000000000b0 .L0 
     /tmp/cchYuXLD.s:122    .text:00000000000000b0 .L0 
GAS LISTING /tmp/cchYuXLD.s 			page 11


     /tmp/cchYuXLD.s:126    .text:00000000000000bc .L0 
     /tmp/cchYuXLD.s:130    .text:00000000000000c0 .L0 
     /tmp/cchYuXLD.s:131    .text:00000000000000c4 .L0 
     /tmp/cchYuXLD.s:132    .text:00000000000000c4 .L0 
     /tmp/cchYuXLD.s:134    .text:00000000000000c8 .L0 
     /tmp/cchYuXLD.s:135    .text:00000000000000c8 .L0 
     /tmp/cchYuXLD.s:137    .text:00000000000000cc .L0 
     /tmp/cchYuXLD.s:141    .text:00000000000000d0 .L0 
     /tmp/cchYuXLD.s:143    .text:00000000000000d0 .L0 
     /tmp/cchYuXLD.s:144    .text:00000000000000d0 .L0 
     /tmp/cchYuXLD.s:147    .text:00000000000000d8 .L0 
     /tmp/cchYuXLD.s:148    .text:00000000000000dc .L0 
     /tmp/cchYuXLD.s:154    .text:00000000000000dc _Z19buddyAllocFreeTest1v
     /tmp/cchYuXLD.s:157    .text:00000000000000dc .L0 
     /tmp/cchYuXLD.s:158    .text:00000000000000dc .L0 
     /tmp/cchYuXLD.s:159    .text:00000000000000e0 .L0 
     /tmp/cchYuXLD.s:164    .text:00000000000000f0 .L0 
     /tmp/cchYuXLD.s:165    .text:00000000000000f0 .L0 
     /tmp/cchYuXLD.s:166    .text:00000000000000f0 .L0 
     /tmp/cchYuXLD.s:167    .text:00000000000000f0 .L0 
     /tmp/cchYuXLD.s:169    .text:00000000000000f4 .L0 
     /tmp/cchYuXLD.s:171    .text:00000000000000f4 .L0 
     /tmp/cchYuXLD.s:172    .text:00000000000000f4 .L0 
     /tmp/cchYuXLD.s:175    .text:00000000000000fc .L0 
     /tmp/cchYuXLD.s:176    .text:00000000000000fc .L0 
     /tmp/cchYuXLD.s:182    .text:000000000000010c .L0 
     /tmp/cchYuXLD.s:183    .text:000000000000010c .L0 
     /tmp/cchYuXLD.s:186    .text:0000000000000114 .L0 
     /tmp/cchYuXLD.s:187    .text:0000000000000114 .L0 
     /tmp/cchYuXLD.s:192    .text:0000000000000124 .L0 
     /tmp/cchYuXLD.s:193    .text:0000000000000124 .L0 
     /tmp/cchYuXLD.s:196    .text:000000000000012c .L0 
     /tmp/cchYuXLD.s:197    .text:000000000000012c .L0 
     /tmp/cchYuXLD.s:203    .text:000000000000013c .L0 
     /tmp/cchYuXLD.s:204    .text:000000000000013c .L0 
     /tmp/cchYuXLD.s:210    .text:000000000000014c .L0 
     /tmp/cchYuXLD.s:211    .text:000000000000014c .L0 
     /tmp/cchYuXLD.s:214    .text:0000000000000154 .L0 
     /tmp/cchYuXLD.s:215    .text:0000000000000154 .L0 
     /tmp/cchYuXLD.s:220    .text:0000000000000164 .L0 
     /tmp/cchYuXLD.s:221    .text:0000000000000164 .L0 
     /tmp/cchYuXLD.s:224    .text:000000000000016c .L0 
     /tmp/cchYuXLD.s:225    .text:000000000000016c .L0 
     /tmp/cchYuXLD.s:231    .text:000000000000017c .L0 
     /tmp/cchYuXLD.s:232    .text:000000000000017c .L0 
     /tmp/cchYuXLD.s:235    .text:0000000000000184 .L0 
     /tmp/cchYuXLD.s:236    .text:0000000000000184 .L0 
     /tmp/cchYuXLD.s:241    .text:0000000000000194 .L0 
     /tmp/cchYuXLD.s:242    .text:0000000000000194 .L0 
     /tmp/cchYuXLD.s:245    .text:000000000000019c .L0 
     /tmp/cchYuXLD.s:246    .text:000000000000019c .L0 
     /tmp/cchYuXLD.s:251    .text:00000000000001ac .L0 
     /tmp/cchYuXLD.s:252    .text:00000000000001ac .L0 
     /tmp/cchYuXLD.s:255    .text:00000000000001b4 .L0 
     /tmp/cchYuXLD.s:256    .text:00000000000001b8 .L0 
     /tmp/cchYuXLD.s:258    .text:00000000000001bc .L0 
     /tmp/cchYuXLD.s:259    .text:00000000000001bc .L0 
GAS LISTING /tmp/cchYuXLD.s 			page 12


     /tmp/cchYuXLD.s:261    .text:00000000000001c0 .L0 
     /tmp/cchYuXLD.s:264    .text:00000000000001c4 .L0 
     /tmp/cchYuXLD.s:267    .text:00000000000001c8 .L0 
     /tmp/cchYuXLD.s:269    .text:00000000000001cc .L0 
     /tmp/cchYuXLD.s:280    .text:00000000000001cc _Z13buddyTestMixav
     /tmp/cchYuXLD.s:283    .text:00000000000001cc .L0 
     /tmp/cchYuXLD.s:284    .text:00000000000001cc .L0 
     /tmp/cchYuXLD.s:285    .text:00000000000001d0 .L0 
     /tmp/cchYuXLD.s:292    .text:00000000000001e8 .L0 
     /tmp/cchYuXLD.s:293    .text:00000000000001e8 .L0 
     /tmp/cchYuXLD.s:294    .text:00000000000001e8 .L0 
     /tmp/cchYuXLD.s:295    .text:00000000000001e8 .L0 
     /tmp/cchYuXLD.s:296    .text:00000000000001e8 .L0 
     /tmp/cchYuXLD.s:297    .text:00000000000001e8 .L0 
     /tmp/cchYuXLD.s:299    .text:00000000000001ec .L0 
     /tmp/cchYuXLD.s:301    .text:00000000000001ec .L0 
     /tmp/cchYuXLD.s:302    .text:00000000000001ec .L0 
     /tmp/cchYuXLD.s:309    .text:0000000000000200 .L0 
     /tmp/cchYuXLD.s:310    .text:0000000000000200 .L0 
     /tmp/cchYuXLD.s:314    .text:0000000000000208 .L0 
     /tmp/cchYuXLD.s:315    .text:0000000000000208 .L0 
     /tmp/cchYuXLD.s:320    .text:0000000000000210 .L0 
     /tmp/cchYuXLD.s:324    .text:0000000000000214 .L0 
     /tmp/cchYuXLD.s:329    .text:0000000000000220 .L0 
     /tmp/cchYuXLD.s:330    .text:0000000000000220 .L0 
     /tmp/cchYuXLD.s:333    .text:0000000000000228 .L0 
     /tmp/cchYuXLD.s:337    .text:0000000000000234 .L0 
     /tmp/cchYuXLD.s:340    .text:0000000000000238 .L0 
     /tmp/cchYuXLD.s:343    .text:000000000000023c .L0 
     /tmp/cchYuXLD.s:344    .text:000000000000023c .L0 
     /tmp/cchYuXLD.s:351    .text:0000000000000254 .L0 
     /tmp/cchYuXLD.s:352    .text:0000000000000254 .L0 
     /tmp/cchYuXLD.s:356    .text:0000000000000258 .L0 
     /tmp/cchYuXLD.s:358    .text:000000000000025c .L0 
     /tmp/cchYuXLD.s:359    .text:000000000000025c .L0 
     /tmp/cchYuXLD.s:362    .text:0000000000000264 .L0 
     /tmp/cchYuXLD.s:367    .text:0000000000000274 .L0 
     /tmp/cchYuXLD.s:377    .text:000000000000027c .L0 
     /tmp/cchYuXLD.s:378    .text:000000000000027c .L0 
     /tmp/cchYuXLD.s:381    .text:0000000000000284 .L0 
     /tmp/cchYuXLD.s:382    .text:0000000000000288 .L0 
     /tmp/cchYuXLD.s:384    .text:000000000000028c .L0 
     /tmp/cchYuXLD.s:385    .text:000000000000028c .L0 
     /tmp/cchYuXLD.s:387    .text:0000000000000290 .L0 
     /tmp/cchYuXLD.s:390    .text:0000000000000294 .L0 
     /tmp/cchYuXLD.s:392    .text:0000000000000298 .L0 
     /tmp/cchYuXLD.s:395    .text:000000000000029c .L0 
     /tmp/cchYuXLD.s:397    .text:00000000000002a0 .L0 
     /tmp/cchYuXLD.s:399    .text:00000000000002a4 .L0 
     /tmp/cchYuXLD.s:409    .text:00000000000002a4 .L0 
     /tmp/cchYuXLD.s:274    .rodata.str1.8:0000000000000000 .LC0
     /tmp/cchYuXLD.s:346    .text:0000000000000244 .L0 
     /tmp/cchYuXLD.s:140    .text:00000000000000d0 .L8
     /tmp/cchYuXLD.s:128    .text:00000000000000c0 .L5
     /tmp/cchYuXLD.s:322    .text:0000000000000214 .L15
     /tmp/cchYuXLD.s:370    .text:000000000000027c .L12
     /tmp/cchYuXLD.s:318    .text:0000000000000210 .L13
GAS LISTING /tmp/cchYuXLD.s 			page 13


     /tmp/cchYuXLD.s:354    .text:0000000000000258 .L14
     /tmp/cchYuXLD.s:2065   .debug_abbrev:0000000000000000 .Ldebug_abbrev0
     /tmp/cchYuXLD.s:3011   .debug_str:00000000000004ac .LASF223
     /tmp/cchYuXLD.s:3049   .debug_str:00000000000006bb .LASF224
     /tmp/cchYuXLD.s:3009   .debug_str:000000000000048e .LASF225
     /tmp/cchYuXLD.s:5      .text:0000000000000000 .Ltext0
     /tmp/cchYuXLD.s:402    .text:00000000000002a4 .Letext0
     /tmp/cchYuXLD.s:2879   .debug_line:0000000000000000 .Ldebug_line0
     /tmp/cchYuXLD.s:3037   .debug_str:0000000000000657 .LASF0
     /tmp/cchYuXLD.s:3059   .debug_str:000000000000073a .LASF1
     /tmp/cchYuXLD.s:3161   .debug_str:0000000000000b32 .LASF2
     /tmp/cchYuXLD.s:3175   .debug_str:0000000000000ba5 .LASF4
     /tmp/cchYuXLD.s:3047   .debug_str:00000000000006a9 .LASF3
     /tmp/cchYuXLD.s:2901   .debug_str:00000000000000e5 .LASF5
     /tmp/cchYuXLD.s:3133   .debug_str:0000000000000a11 .LASF6
     /tmp/cchYuXLD.s:3053   .debug_str:00000000000006fe .LASF7
     /tmp/cchYuXLD.s:3007   .debug_str:000000000000047e .LASF8
     /tmp/cchYuXLD.s:3015   .debug_str:0000000000000590 .LASF9
     /tmp/cchYuXLD.s:2937   .debug_str:000000000000027b .LASF10
     /tmp/cchYuXLD.s:3213   .debug_str:0000000000000d15 .LASF11
     /tmp/cchYuXLD.s:2995   .debug_str:0000000000000437 .LASF12
     /tmp/cchYuXLD.s:2951   .debug_str:00000000000002c7 .LASF13
     /tmp/cchYuXLD.s:2935   .debug_str:000000000000026b .LASF14
     /tmp/cchYuXLD.s:3217   .debug_str:0000000000000d4a .LASF15
     /tmp/cchYuXLD.s:2985   .debug_str:00000000000003df .LASF16
     /tmp/cchYuXLD.s:3205   .debug_str:0000000000000ca5 .LASF17
     /tmp/cchYuXLD.s:3233   .debug_str:0000000000000da7 .LASF18
     /tmp/cchYuXLD.s:3237   .debug_str:0000000000000db7 .LASF226
     /tmp/cchYuXLD.s:3229   .debug_str:0000000000000d8c .LASF19
     /tmp/cchYuXLD.s:3193   .debug_str:0000000000000c39 .LASF20
     /tmp/cchYuXLD.s:2945   .debug_str:00000000000002a1 .LASF21
     /tmp/cchYuXLD.s:2923   .debug_str:00000000000001cb .LASF22
     /tmp/cchYuXLD.s:3135   .debug_str:0000000000000a24 .LASF23
     /tmp/cchYuXLD.s:2943   .debug_str:0000000000000298 .LASF24
     /tmp/cchYuXLD.s:3225   .debug_str:0000000000000d79 .LASF92
     /tmp/cchYuXLD.s:3031   .debug_str:0000000000000642 .LASF25
     /tmp/cchYuXLD.s:2903   .debug_str:00000000000000ec .LASF31
     /tmp/cchYuXLD.s:3259   .debug_str:0000000000000e54 .LASF227
     /tmp/cchYuXLD.s:3121   .debug_str:00000000000009ac .LASF26
     /tmp/cchYuXLD.s:3057   .debug_str:0000000000000735 .LASF27
     /tmp/cchYuXLD.s:3319   .debug_str:0000000000001089 .LASF29
     /tmp/cchYuXLD.s:3315   .debug_str:000000000000106d .LASF28
     /tmp/cchYuXLD.s:3241   .debug_str:0000000000000dc5 .LASF30
     /tmp/cchYuXLD.s:2971   .debug_str:0000000000000376 .LASF54
     /tmp/cchYuXLD.s:2909   .debug_str:0000000000000125 .LASF56
     /tmp/cchYuXLD.s:3239   .debug_str:0000000000000dbd .LASF32
     /tmp/cchYuXLD.s:3183   .debug_str:0000000000000be4 .LASF33
     /tmp/cchYuXLD.s:3067   .debug_str:0000000000000777 .LASF36
     /tmp/cchYuXLD.s:3073   .debug_str:00000000000007b8 .LASF38
     /tmp/cchYuXLD.s:3325   .debug_str:00000000000010ce .LASF34
     /tmp/cchYuXLD.s:2989   .debug_str:0000000000000405 .LASF35
     /tmp/cchYuXLD.s:2893   .debug_str:000000000000006a .LASF80
     /tmp/cchYuXLD.s:3045   .debug_str:000000000000069c .LASF82
     /tmp/cchYuXLD.s:3185   .debug_str:0000000000000bf5 .LASF37
     /tmp/cchYuXLD.s:3099   .debug_str:00000000000008b7 .LASF39
     /tmp/cchYuXLD.s:3169   .debug_str:0000000000000b6b .LASF40
     /tmp/cchYuXLD.s:3211   .debug_str:0000000000000cf9 .LASF41
GAS LISTING /tmp/cchYuXLD.s 			page 14


     /tmp/cchYuXLD.s:3101   .debug_str:00000000000008ca .LASF42
     /tmp/cchYuXLD.s:2887   .debug_str:000000000000002c .LASF43
     /tmp/cchYuXLD.s:3303   .debug_str:000000000000100f .LASF44
     /tmp/cchYuXLD.s:3131   .debug_str:00000000000009f7 .LASF45
     /tmp/cchYuXLD.s:3203   .debug_str:0000000000000c97 .LASF46
     /tmp/cchYuXLD.s:3141   .debug_str:0000000000000a42 .LASF47
     /tmp/cchYuXLD.s:2967   .debug_str:0000000000000355 .LASF48
     /tmp/cchYuXLD.s:2997   .debug_str:0000000000000446 .LASF49
     /tmp/cchYuXLD.s:3157   .debug_str:0000000000000b10 .LASF50
     /tmp/cchYuXLD.s:3079   .debug_str:00000000000007f2 .LASF51
     /tmp/cchYuXLD.s:3305   .debug_str:000000000000101e .LASF52
     /tmp/cchYuXLD.s:3333   .debug_str:000000000000110f .LASF53
     /tmp/cchYuXLD.s:3199   .debug_str:0000000000000c7a .LASF55
     /tmp/cchYuXLD.s:3317   .debug_str:0000000000001073 .LASF57
     /tmp/cchYuXLD.s:3227   .debug_str:0000000000000d81 .LASF58
     /tmp/cchYuXLD.s:2963   .debug_str:0000000000000334 .LASF59
     /tmp/cchYuXLD.s:3181   .debug_str:0000000000000bdc .LASF60
     /tmp/cchYuXLD.s:3039   .debug_str:0000000000000664 .LASF61
     /tmp/cchYuXLD.s:3109   .debug_str:0000000000000904 .LASF62
     /tmp/cchYuXLD.s:2957   .debug_str:000000000000030f .LASF63
     /tmp/cchYuXLD.s:3147   .debug_str:0000000000000a8c .LASF64
     /tmp/cchYuXLD.s:3339   .debug_str:0000000000001134 .LASF65
     /tmp/cchYuXLD.s:3111   .debug_str:0000000000000923 .LASF66
     /tmp/cchYuXLD.s:3167   .debug_str:0000000000000b58 .LASF67
     /tmp/cchYuXLD.s:3187   .debug_str:0000000000000bfe .LASF68
     /tmp/cchYuXLD.s:3273   .debug_str:0000000000000ec9 .LASF69
     /tmp/cchYuXLD.s:3089   .debug_str:0000000000000845 .LASF70
     /tmp/cchYuXLD.s:3261   .debug_str:0000000000000e6c .LASF71
     /tmp/cchYuXLD.s:3209   .debug_str:0000000000000cd9 .LASF72
     /tmp/cchYuXLD.s:3127   .debug_str:00000000000009d0 .LASF73
     /tmp/cchYuXLD.s:3113   .debug_str:0000000000000944 .LASF74
     /tmp/cchYuXLD.s:2979   .debug_str:000000000000039c .LASF75
     /tmp/cchYuXLD.s:3041   .debug_str:0000000000000678 .LASF76
     /tmp/cchYuXLD.s:3093   .debug_str:0000000000000882 .LASF77
     /tmp/cchYuXLD.s:3243   .debug_str:0000000000000dd5 .LASF78
     /tmp/cchYuXLD.s:3001   .debug_str:000000000000045c .LASF79
     /tmp/cchYuXLD.s:3313   .debug_str:000000000000105f .LASF81
     /tmp/cchYuXLD.s:2917   .debug_str:0000000000000182 .LASF83
     /tmp/cchYuXLD.s:2991   .debug_str:0000000000000411 .LASF84
     /tmp/cchYuXLD.s:2931   .debug_str:000000000000022b .LASF85
     /tmp/cchYuXLD.s:3299   .debug_str:0000000000000ff4 .LASF86
     /tmp/cchYuXLD.s:2929   .debug_str:000000000000021a .LASF87
     /tmp/cchYuXLD.s:2891   .debug_str:0000000000000065 .LASF88
     /tmp/cchYuXLD.s:3269   .debug_str:0000000000000eb8 .LASF89
     /tmp/cchYuXLD.s:3077   .debug_str:00000000000007ea .LASF90
     /tmp/cchYuXLD.s:2977   .debug_str:0000000000000396 .LASF91
     /tmp/cchYuXLD.s:3257   .debug_str:0000000000000e4c .LASF93
     /tmp/cchYuXLD.s:2921   .debug_str:00000000000001ba .LASF94
     /tmp/cchYuXLD.s:3083   .debug_str:000000000000080d .LASF95
     /tmp/cchYuXLD.s:3151   .debug_str:0000000000000abd .LASF96
     /tmp/cchYuXLD.s:3013   .debug_str:000000000000057c .LASF97
     /tmp/cchYuXLD.s:3163   .debug_str:0000000000000b40 .LASF98
     /tmp/cchYuXLD.s:3149   .debug_str:0000000000000aa9 .LASF99
     /tmp/cchYuXLD.s:2973   .debug_str:000000000000037f .LASF100
     /tmp/cchYuXLD.s:3197   .debug_str:0000000000000c63 .LASF101
     /tmp/cchYuXLD.s:3221   .debug_str:0000000000000d69 .LASF102
     /tmp/cchYuXLD.s:3105   .debug_str:00000000000008e2 .LASF103
GAS LISTING /tmp/cchYuXLD.s 			page 15


     /tmp/cchYuXLD.s:2883   .debug_str:000000000000000f .LASF104
     /tmp/cchYuXLD.s:3165   .debug_str:0000000000000b4c .LASF105
     /tmp/cchYuXLD.s:3085   .debug_str:0000000000000812 .LASF106
     /tmp/cchYuXLD.s:3159   .debug_str:0000000000000b1d .LASF107
     /tmp/cchYuXLD.s:2941   .debug_str:000000000000028f .LASF108
     /tmp/cchYuXLD.s:2947   .debug_str:00000000000002ab .LASF109
     /tmp/cchYuXLD.s:3103   .debug_str:00000000000008d9 .LASF110
     /tmp/cchYuXLD.s:3173   .debug_str:0000000000000b9a .LASF111
     /tmp/cchYuXLD.s:2881   .debug_str:0000000000000000 .LASF112
     /tmp/cchYuXLD.s:3025   .debug_str:00000000000005dd .LASF113
     /tmp/cchYuXLD.s:3255   .debug_str:0000000000000e3d .LASF114
     /tmp/cchYuXLD.s:3215   .debug_str:0000000000000d28 .LASF115
     /tmp/cchYuXLD.s:3189   .debug_str:0000000000000c1c .LASF116
     /tmp/cchYuXLD.s:2955   .debug_str:00000000000002eb .LASF117
     /tmp/cchYuXLD.s:3119   .debug_str:000000000000099c .LASF118
     /tmp/cchYuXLD.s:3145   .debug_str:0000000000000a69 .LASF119
     /tmp/cchYuXLD.s:3035   .debug_str:0000000000000651 .LASF120
     /tmp/cchYuXLD.s:3329   .debug_str:00000000000010ea .LASF121
     /tmp/cchYuXLD.s:2895   .debug_str:000000000000007a .LASF122
     /tmp/cchYuXLD.s:3075   .debug_str:00000000000007d0 .LASF123
     /tmp/cchYuXLD.s:3323   .debug_str:00000000000010be .LASF124
     /tmp/cchYuXLD.s:3177   .debug_str:0000000000000bac .LASF125
     /tmp/cchYuXLD.s:3219   .debug_str:0000000000000d56 .LASF126
     /tmp/cchYuXLD.s:3171   .debug_str:0000000000000b74 .LASF127
     /tmp/cchYuXLD.s:3331   .debug_str:0000000000001102 .LASF128
     /tmp/cchYuXLD.s:3055   .debug_str:0000000000000711 .LASF129
     /tmp/cchYuXLD.s:3107   .debug_str:00000000000008fb .LASF130
     /tmp/cchYuXLD.s:2919   .debug_str:00000000000001aa .LASF131
     /tmp/cchYuXLD.s:3249   .debug_str:0000000000000dfc .LASF132
     /tmp/cchYuXLD.s:3179   .debug_str:0000000000000bcf .LASF133
     /tmp/cchYuXLD.s:2889   .debug_str:0000000000000046 .LASF134
     /tmp/cchYuXLD.s:2915   .debug_str:000000000000016f .LASF135
     /tmp/cchYuXLD.s:3155   .debug_str:0000000000000ae9 .LASF136
     /tmp/cchYuXLD.s:3129   .debug_str:00000000000009e4 .LASF137
     /tmp/cchYuXLD.s:3029   .debug_str:000000000000062e .LASF138
     /tmp/cchYuXLD.s:3123   .debug_str:00000000000009b1 .LASF139
     /tmp/cchYuXLD.s:3061   .debug_str:000000000000074d .LASF140
     /tmp/cchYuXLD.s:3139   .debug_str:0000000000000a38 .LASF141
     /tmp/cchYuXLD.s:3275   .debug_str:0000000000000edc .LASF142
     /tmp/cchYuXLD.s:3223   .debug_str:0000000000000d70 .LASF143
     /tmp/cchYuXLD.s:3235   .debug_str:0000000000000dac .LASF144
     /tmp/cchYuXLD.s:3271   .debug_str:0000000000000ebd .LASF145
     /tmp/cchYuXLD.s:3285   .debug_str:0000000000000f54 .LASF146
     /tmp/cchYuXLD.s:3097   .debug_str:00000000000008ab .LASF147
     /tmp/cchYuXLD.s:3137   .debug_str:0000000000000a2c .LASF148
     /tmp/cchYuXLD.s:3201   .debug_str:0000000000000c85 .LASF151
     /tmp/cchYuXLD.s:3195   .debug_str:0000000000000c41 .LASF153
     /tmp/cchYuXLD.s:3265   .debug_str:0000000000000e93 .LASF149
     /tmp/cchYuXLD.s:3297   .debug_str:0000000000000fd2 .LASF150
     /tmp/cchYuXLD.s:3263   .debug_str:0000000000000e81 .LASF152
     /tmp/cchYuXLD.s:2905   .debug_str:00000000000000f7 .LASF154
     /tmp/cchYuXLD.s:3267   .debug_str:0000000000000ea5 .LASF155
     /tmp/cchYuXLD.s:2927   .debug_str:00000000000001f7 .LASF156
     /tmp/cchYuXLD.s:2983   .debug_str:00000000000003cc .LASF157
     /tmp/cchYuXLD.s:2925   .debug_str:00000000000001d4 .LASF158
     /tmp/cchYuXLD.s:2911   .debug_str:0000000000000138 .LASF159
     /tmp/cchYuXLD.s:3283   .debug_str:0000000000000f45 .LASF160
GAS LISTING /tmp/cchYuXLD.s 			page 16


     /tmp/cchYuXLD.s:3091   .debug_str:0000000000000863 .LASF161
     /tmp/cchYuXLD.s:3295   .debug_str:0000000000000fb9 .LASF162
     /tmp/cchYuXLD.s:3051   .debug_str:00000000000006d5 .LASF163
     /tmp/cchYuXLD.s:3069   .debug_str:0000000000000784 .LASF164
     /tmp/cchYuXLD.s:3321   .debug_str:0000000000001095 .LASF165
     /tmp/cchYuXLD.s:2993   .debug_str:0000000000000426 .LASF166
     /tmp/cchYuXLD.s:3289   .debug_str:0000000000000f77 .LASF167
     /tmp/cchYuXLD.s:3005   .debug_str:0000000000000471 .LASF168
     /tmp/cchYuXLD.s:3307   .debug_str:0000000000001029 .LASF169
     /tmp/cchYuXLD.s:3023   .debug_str:00000000000005cc .LASF170
     /tmp/cchYuXLD.s:2907   .debug_str:0000000000000119 .LASF171
     /tmp/cchYuXLD.s:3071   .debug_str:000000000000079c .LASF172
     /tmp/cchYuXLD.s:3081   .debug_str:0000000000000801 .LASF173
     /tmp/cchYuXLD.s:2913   .debug_str:0000000000000153 .LASF174
     /tmp/cchYuXLD.s:3019   .debug_str:00000000000005a7 .LASF175
     /tmp/cchYuXLD.s:3065   .debug_str:000000000000076b .LASF176
     /tmp/cchYuXLD.s:2961   .debug_str:000000000000032f .LASF177
     /tmp/cchYuXLD.s:2939   .debug_str:000000000000028a .LASF178
     /tmp/cchYuXLD.s:3293   .debug_str:0000000000000fb1 .LASF179
     /tmp/cchYuXLD.s:3087   .debug_str:0000000000000826 .LASF180
     /tmp/cchYuXLD.s:2999   .debug_str:0000000000000456 .LASF181
     /tmp/cchYuXLD.s:3207   .debug_str:0000000000000cbb .LASF182
     /tmp/cchYuXLD.s:3003   .debug_str:0000000000000468 .LASF183
     /tmp/cchYuXLD.s:3337   .debug_str:0000000000001126 .LASF184
     /tmp/cchYuXLD.s:3063   .debug_str:0000000000000758 .LASF185
     /tmp/cchYuXLD.s:3017   .debug_str:000000000000059e .LASF186
     /tmp/cchYuXLD.s:3335   .debug_str:000000000000111c .LASF187
     /tmp/cchYuXLD.s:3245   .debug_str:0000000000000ddf .LASF188
     /tmp/cchYuXLD.s:3153   .debug_str:0000000000000ac8 .LASF189
     /tmp/cchYuXLD.s:3033   .debug_str:0000000000000648 .LASF190
     /tmp/cchYuXLD.s:3095   .debug_str:000000000000088a .LASF191
     /tmp/cchYuXLD.s:3281   .debug_str:0000000000000f3a .LASF192
     /tmp/cchYuXLD.s:3277   .debug_str:0000000000000ee7 .LASF193
     /tmp/cchYuXLD.s:3143   .debug_str:0000000000000a4e .LASF194
     /tmp/cchYuXLD.s:2899   .debug_str:00000000000000b0 .LASF195
     /tmp/cchYuXLD.s:3287   .debug_str:0000000000000f61 .LASF196
     /tmp/cchYuXLD.s:2897   .debug_str:0000000000000082 .LASF197
     /tmp/cchYuXLD.s:3231   .debug_str:0000000000000d92 .LASF198
     /tmp/cchYuXLD.s:3027   .debug_str:00000000000005ff .LASF199
     /tmp/cchYuXLD.s:2885   .debug_str:000000000000001b .LASF200
     /tmp/cchYuXLD.s:3115   .debug_str:0000000000000963 .LASF201
     /tmp/cchYuXLD.s:2987   .debug_str:00000000000003f5 .LASF202
     /tmp/cchYuXLD.s:3291   .debug_str:0000000000000f89 .LASF203
     /tmp/cchYuXLD.s:3327   .debug_str:00000000000010db .LASF204
     /tmp/cchYuXLD.s:2981   .debug_str:00000000000003a5 .LASF205
     /tmp/cchYuXLD.s:2975   .debug_str:0000000000000384 .LASF228
     /tmp/cchYuXLD.s:3279   .debug_str:0000000000000f0b .LASF229
     /tmp/cchYuXLD.s:2959   .debug_str:0000000000000321 .LASF206
     /tmp/cchYuXLD.s:3247   .debug_str:0000000000000de9 .LASF208
     /tmp/cchYuXLD.s:281    .text:00000000000001cc .LFB9
     /tmp/cchYuXLD.s:400    .text:00000000000002a4 .LFE9
     /tmp/cchYuXLD.s:2802   .debug_loc:0000000000000000 .LLST3
     /tmp/cchYuXLD.s:313    .text:0000000000000208 .LBB2
     /tmp/cchYuXLD.s:375    .text:000000000000027c .LBE2
     /tmp/cchYuXLD.s:2813   .debug_loc:0000000000000036 .LLST4
     /tmp/cchYuXLD.s:350    .text:0000000000000254 .LBB6
     /tmp/cchYuXLD.s:371    .text:000000000000027c .LBE6
GAS LISTING /tmp/cchYuXLD.s 			page 17


     /tmp/cchYuXLD.s:2825   .debug_loc:000000000000006d .LLST5
     /tmp/cchYuXLD.s:365    .text:0000000000000274 .LVL44
     /tmp/cchYuXLD.s:335    .text:0000000000000234 .LVL41
     /tmp/cchYuXLD.s:348    .text:0000000000000254 .LVL42
     /tmp/cchYuXLD.s:305    .text:00000000000001fc .LVL36
     /tmp/cchYuXLD.s:311    .text:0000000000000208 .LVL38
     /tmp/cchYuXLD.s:379    .text:0000000000000284 .LVL46
     /tmp/cchYuXLD.s:2953   .debug_str:00000000000002d7 .LASF207
     /tmp/cchYuXLD.s:3043   .debug_str:0000000000000683 .LASF209
     /tmp/cchYuXLD.s:155    .text:00000000000000dc .LFB8
     /tmp/cchYuXLD.s:270    .text:00000000000001cc .LFE8
     /tmp/cchYuXLD.s:2837   .debug_loc:00000000000000a4 .LLST1
     /tmp/cchYuXLD.s:3251   .debug_str:0000000000000e1e .LASF210
     /tmp/cchYuXLD.s:2844   .debug_loc:00000000000000c7 .LLST2
     /tmp/cchYuXLD.s:173    .text:00000000000000fc .LVL14
     /tmp/cchYuXLD.s:178    .text:0000000000000108 .LVL15
     /tmp/cchYuXLD.s:184    .text:0000000000000114 .LVL17
     /tmp/cchYuXLD.s:190    .text:0000000000000124 .LVL18
     /tmp/cchYuXLD.s:194    .text:000000000000012c .LVL19
     /tmp/cchYuXLD.s:199    .text:0000000000000138 .LVL20
     /tmp/cchYuXLD.s:206    .text:0000000000000148 .LVL22
     /tmp/cchYuXLD.s:212    .text:0000000000000154 .LVL24
     /tmp/cchYuXLD.s:218    .text:0000000000000164 .LVL25
     /tmp/cchYuXLD.s:222    .text:000000000000016c .LVL26
     /tmp/cchYuXLD.s:227    .text:0000000000000178 .LVL27
     /tmp/cchYuXLD.s:233    .text:0000000000000184 .LVL29
     /tmp/cchYuXLD.s:239    .text:0000000000000194 .LVL30
     /tmp/cchYuXLD.s:243    .text:000000000000019c .LVL31
     /tmp/cchYuXLD.s:249    .text:00000000000001ac .LVL32
     /tmp/cchYuXLD.s:253    .text:00000000000001b4 .LVL33
     /tmp/cchYuXLD.s:3021   .debug_str:00000000000005b7 .LASF211
     /tmp/cchYuXLD.s:3309   .debug_str:0000000000001036 .LASF212
     /tmp/cchYuXLD.s:109    .text:00000000000000a0 .LFB7
     /tmp/cchYuXLD.s:149    .text:00000000000000dc .LFE7
     /tmp/cchYuXLD.s:2855   .debug_loc:00000000000000fd .LLST0
     /tmp/cchYuXLD.s:124    .text:00000000000000bc .LVL10
     /tmp/cchYuXLD.s:145    .text:00000000000000d8 .LVL13
     /tmp/cchYuXLD.s:3125   .debug_str:00000000000009bb .LASF213
     /tmp/cchYuXLD.s:3253   .debug_str:0000000000000e23 .LASF214
     /tmp/cchYuXLD.s:42     .text:0000000000000028 .LFB6
     /tmp/cchYuXLD.s:103    .text:00000000000000a0 .LFE6
     /tmp/cchYuXLD.s:56     .text:0000000000000040 .LVL1
     /tmp/cchYuXLD.s:61     .text:000000000000004c .LVL2
     /tmp/cchYuXLD.s:65     .text:0000000000000054 .LVL3
     /tmp/cchYuXLD.s:70     .text:0000000000000060 .LVL4
     /tmp/cchYuXLD.s:74     .text:0000000000000068 .LVL5
     /tmp/cchYuXLD.s:79     .text:0000000000000074 .LVL6
     /tmp/cchYuXLD.s:83     .text:000000000000007c .LVL7
     /tmp/cchYuXLD.s:88     .text:0000000000000088 .LVL8
     /tmp/cchYuXLD.s:92     .text:0000000000000090 .LVL9
     /tmp/cchYuXLD.s:3117   .debug_str:000000000000098d .LASF215
     /tmp/cchYuXLD.s:2933   .debug_str:0000000000000257 .LASF216
     /tmp/cchYuXLD.s:10     .text:0000000000000000 .LFB5
     /tmp/cchYuXLD.s:36     .text:0000000000000028 .LFE5
     /tmp/cchYuXLD.s:25     .text:0000000000000018 .LVL0
     /tmp/cchYuXLD.s:2949   .debug_str:00000000000002b5 .LASF217
     /tmp/cchYuXLD.s:2965   .debug_str:000000000000034a .LASF219
GAS LISTING /tmp/cchYuXLD.s 			page 18


     /tmp/cchYuXLD.s:2969   .debug_str:0000000000000365 .LASF218
     /tmp/cchYuXLD.s:3191   .debug_str:0000000000000c2d .LASF220
     /tmp/cchYuXLD.s:3301   .debug_str:0000000000000ffb .LASF221
     /tmp/cchYuXLD.s:3311   .debug_str:0000000000001050 .LASF222
     /tmp/cchYuXLD.s:307    .text:0000000000000200 .LVL37
     /tmp/cchYuXLD.s:393    .text:0000000000000298 .LVL48
     /tmp/cchYuXLD.s:317    .text:0000000000000210 .LVL39
     /tmp/cchYuXLD.s:388    .text:0000000000000290 .LVL47
     /tmp/cchYuXLD.s:353    .text:0000000000000258 .LVL43
     /tmp/cchYuXLD.s:368    .text:0000000000000278 .LVL45
     /tmp/cchYuXLD.s:180    .text:000000000000010c .LVL16
     /tmp/cchYuXLD.s:262    .text:00000000000001c0 .LVL34
     /tmp/cchYuXLD.s:208    .text:000000000000014c .LVL23
     /tmp/cchYuXLD.s:265    .text:00000000000001c4 .LVL35
     /tmp/cchYuXLD.s:127    .text:00000000000000c0 .LVL11
     /tmp/cchYuXLD.s:139    .text:00000000000000d0 .LVL12
     /tmp/cchYuXLD.s:410    .debug_info:0000000000000000 .Ldebug_info0

UNDEFINED SYMBOLS
_Z14printBuddyInfov
_Z11buddy_allocm
_Z10buddy_freePvm
_ZN15MemoryAllocator7kmallocEm
_ZN8KConsole18trapPrintStringIntEPKcmi
