GAS LISTING /tmp/cc0BrT1j.s 			page 1


   1              		.file	"buddyTests.cpp"
   2              		.option pic
   3              		.option norelax
   4              		.text
   5              	.Ltext0:
   6              		.align	2
   7              		.globl	_Z14buddyInitTest1v
   9              	_Z14buddyInitTest1v:
  10              	.LFB5:
  11              		.file 1 "src/kernel/buddyTests.cpp"
   1:src/kernel/buddyTests.cpp **** #include "../../h/buddyTests.hpp"
   2:src/kernel/buddyTests.cpp **** #include "../../h/KConsole.hpp"
   3:src/kernel/buddyTests.cpp **** #include "../../h/MemoryAllocator.hpp"
   4:src/kernel/buddyTests.cpp **** 
   5:src/kernel/buddyTests.cpp **** void buddyInitTest1()
   6:src/kernel/buddyTests.cpp **** {
  12              		.loc 1 6 1
  13              		.cfi_startproc
  14 0000 130101FF 		addi	sp,sp,-16
  15              		.cfi_def_cfa_offset 16
  16 0004 23341100 		sd	ra,8(sp)
  17 0008 23308100 		sd	s0,0(sp)
  18              		.cfi_offset 1, -8
  19              		.cfi_offset 8, -16
  20 000c 13040101 		addi	s0,sp,16
  21              		.cfi_def_cfa 8, 0
   7:src/kernel/buddyTests.cpp ****     buddyAllocator* buddy = buddy_init((void*)HEAP_START_ADDR, 18);
  22              		.loc 1 7 5
  23              		.loc 1 7 39 is_stmt 0
  24 0010 93052001 		li	a1,18
  25 0014 97070000 		la	a5,HEAP_START_ADDR
  25      83B70700 
  26 001c 03B50700 		ld	a0,0(a5)
  27 0020 97000000 		call	_Z10buddy_initPvm@plt
  27      E7800000 
  28              	.LVL0:
   8:src/kernel/buddyTests.cpp ****     printBuddyInfo(buddy);
  29              		.loc 1 8 5 is_stmt 1
  30              		.loc 1 8 19 is_stmt 0
  31 0028 97000000 		call	_Z14printBuddyInfoP14buddyAllocator@plt
  31      E7800000 
  32              	.LVL1:
   9:src/kernel/buddyTests.cpp **** }
  33              		.loc 1 9 1
  34 0030 83308100 		ld	ra,8(sp)
  35              		.cfi_restore 1
  36 0034 03340100 		ld	s0,0(sp)
  37              		.cfi_restore 8
  38              		.cfi_def_cfa 2, 16
  39 0038 13010101 		addi	sp,sp,16
  40              		.cfi_def_cfa_offset 0
  41 003c 67800000 		jr	ra
  42              		.cfi_endproc
  43              	.LFE5:
  45              		.align	2
  46              		.globl	_Z20buddyOnlyAllocsTest1v
  48              	_Z20buddyOnlyAllocsTest1v:
GAS LISTING /tmp/cc0BrT1j.s 			page 2


  49              	.LFB6:
  10:src/kernel/buddyTests.cpp **** 
  11:src/kernel/buddyTests.cpp **** void buddyOnlyAllocsTest1()
  12:src/kernel/buddyTests.cpp **** {
  50              		.loc 1 12 1 is_stmt 1
  51              		.cfi_startproc
  52 0040 130101FE 		addi	sp,sp,-32
  53              		.cfi_def_cfa_offset 32
  54 0044 233C1100 		sd	ra,24(sp)
  55 0048 23388100 		sd	s0,16(sp)
  56 004c 23349100 		sd	s1,8(sp)
  57              		.cfi_offset 1, -8
  58              		.cfi_offset 8, -16
  59              		.cfi_offset 9, -24
  60 0050 13040102 		addi	s0,sp,32
  61              		.cfi_def_cfa 8, 0
  13:src/kernel/buddyTests.cpp ****     buddyAllocator* buddy = buddy_init((void*)HEAP_START_ADDR, 10);
  62              		.loc 1 13 5
  63              		.loc 1 13 39 is_stmt 0
  64 0054 9305A000 		li	a1,10
  65 0058 97070000 		la	a5,HEAP_START_ADDR
  65      83B70700 
  66 0060 03B50700 		ld	a0,0(a5)
  67 0064 97000000 		call	_Z10buddy_initPvm@plt
  67      E7800000 
  68              	.LVL2:
  69 006c 93040500 		mv	s1,a0
  70              	.LVL3:
  14:src/kernel/buddyTests.cpp ****     printBuddyInfo(buddy);
  71              		.loc 1 14 5 is_stmt 1
  72              		.loc 1 14 19 is_stmt 0
  73 0070 97000000 		call	_Z14printBuddyInfoP14buddyAllocator@plt
  73      E7800000 
  74              	.LVL4:
  15:src/kernel/buddyTests.cpp ****     buddy_alloc(buddy,1);
  75              		.loc 1 15 5 is_stmt 1
  76              		.loc 1 15 16 is_stmt 0
  77 0078 93051000 		li	a1,1
  78 007c 13850400 		mv	a0,s1
  79 0080 97000000 		call	_Z11buddy_allocP14buddyAllocatorm@plt
  79      E7800000 
  80              	.LVL5:
  16:src/kernel/buddyTests.cpp ****     printBuddyInfo(buddy);
  81              		.loc 1 16 5 is_stmt 1
  82              		.loc 1 16 19 is_stmt 0
  83 0088 13850400 		mv	a0,s1
  84 008c 97000000 		call	_Z14printBuddyInfoP14buddyAllocator@plt
  84      E7800000 
  85              	.LVL6:
  17:src/kernel/buddyTests.cpp ****     buddy_alloc(buddy,1);
  86              		.loc 1 17 5 is_stmt 1
  87              		.loc 1 17 16 is_stmt 0
  88 0094 93051000 		li	a1,1
  89 0098 13850400 		mv	a0,s1
  90 009c 97000000 		call	_Z11buddy_allocP14buddyAllocatorm@plt
  90      E7800000 
  91              	.LVL7:
GAS LISTING /tmp/cc0BrT1j.s 			page 3


  18:src/kernel/buddyTests.cpp ****     printBuddyInfo(buddy);
  92              		.loc 1 18 5 is_stmt 1
  93              		.loc 1 18 19 is_stmt 0
  94 00a4 13850400 		mv	a0,s1
  95 00a8 97000000 		call	_Z14printBuddyInfoP14buddyAllocator@plt
  95      E7800000 
  96              	.LVL8:
  19:src/kernel/buddyTests.cpp ****     buddy_alloc(buddy,1);
  97              		.loc 1 19 5 is_stmt 1
  98              		.loc 1 19 16 is_stmt 0
  99 00b0 93051000 		li	a1,1
 100 00b4 13850400 		mv	a0,s1
 101 00b8 97000000 		call	_Z11buddy_allocP14buddyAllocatorm@plt
 101      E7800000 
 102              	.LVL9:
  20:src/kernel/buddyTests.cpp ****     printBuddyInfo(buddy);
 103              		.loc 1 20 5 is_stmt 1
 104              		.loc 1 20 19 is_stmt 0
 105 00c0 13850400 		mv	a0,s1
 106 00c4 97000000 		call	_Z14printBuddyInfoP14buddyAllocator@plt
 106      E7800000 
 107              	.LVL10:
  21:src/kernel/buddyTests.cpp ****     buddy_alloc(buddy,3);
 108              		.loc 1 21 5 is_stmt 1
 109              		.loc 1 21 16 is_stmt 0
 110 00cc 93053000 		li	a1,3
 111 00d0 13850400 		mv	a0,s1
 112 00d4 97000000 		call	_Z11buddy_allocP14buddyAllocatorm@plt
 112      E7800000 
 113              	.LVL11:
  22:src/kernel/buddyTests.cpp ****     printBuddyInfo(buddy);
 114              		.loc 1 22 5 is_stmt 1
 115              		.loc 1 22 19 is_stmt 0
 116 00dc 13850400 		mv	a0,s1
 117 00e0 97000000 		call	_Z14printBuddyInfoP14buddyAllocator@plt
 117      E7800000 
 118              	.LVL12:
  23:src/kernel/buddyTests.cpp **** }
 119              		.loc 1 23 1
 120 00e8 83308101 		ld	ra,24(sp)
 121              		.cfi_restore 1
 122 00ec 03340101 		ld	s0,16(sp)
 123              		.cfi_restore 8
 124              		.cfi_def_cfa 2, 32
 125 00f0 83348100 		ld	s1,8(sp)
 126              		.cfi_restore 9
 127              	.LVL13:
 128 00f4 13010102 		addi	sp,sp,32
 129              		.cfi_def_cfa_offset 0
 130 00f8 67800000 		jr	ra
 131              		.cfi_endproc
 132              	.LFE6:
 134              		.align	2
 135              		.globl	_Z20buddyOnlyAllocsTest2v
 137              	_Z20buddyOnlyAllocsTest2v:
 138              	.LFB7:
  24:src/kernel/buddyTests.cpp **** 
GAS LISTING /tmp/cc0BrT1j.s 			page 4


  25:src/kernel/buddyTests.cpp **** void buddyOnlyAllocsTest2()
  26:src/kernel/buddyTests.cpp **** {
 139              		.loc 1 26 1 is_stmt 1
 140              		.cfi_startproc
 141 00fc 130101FE 		addi	sp,sp,-32
 142              		.cfi_def_cfa_offset 32
 143 0100 233C1100 		sd	ra,24(sp)
 144 0104 23388100 		sd	s0,16(sp)
 145 0108 23349100 		sd	s1,8(sp)
 146              		.cfi_offset 1, -8
 147              		.cfi_offset 8, -16
 148              		.cfi_offset 9, -24
 149 010c 13040102 		addi	s0,sp,32
 150              		.cfi_def_cfa 8, 0
  27:src/kernel/buddyTests.cpp ****     buddyAllocator* buddy = buddy_init((void*)HEAP_START_ADDR, 10);
 151              		.loc 1 27 5
 152              		.loc 1 27 39 is_stmt 0
 153 0110 9305A000 		li	a1,10
 154 0114 97070000 		la	a5,HEAP_START_ADDR
 154      83B70700 
 155 011c 03B50700 		ld	a0,0(a5)
 156 0120 97000000 		call	_Z10buddy_initPvm@plt
 156      E7800000 
 157              	.LVL14:
 158 0128 93040500 		mv	s1,a0
 159              	.LVL15:
  28:src/kernel/buddyTests.cpp ****     void* adr = buddy_alloc(buddy, 100);
 160              		.loc 1 28 5 is_stmt 1
 161              		.loc 1 28 28 is_stmt 0
 162 012c 93054006 		li	a1,100
 163 0130 97000000 		call	_Z11buddy_allocP14buddyAllocatorm@plt
 163      E7800000 
 164              	.LVL16:
  29:src/kernel/buddyTests.cpp ****     if(adr == nullptr)
 165              		.loc 1 29 5 is_stmt 1
 166 0138 630C0500 		beqz	a0,.L8
 167              	.LVL17:
 168              	.L5:
  30:src/kernel/buddyTests.cpp ****     {
  31:src/kernel/buddyTests.cpp ****         printBuddyInfo(buddy);
  32:src/kernel/buddyTests.cpp ****     }
  33:src/kernel/buddyTests.cpp **** }
 169              		.loc 1 33 1 is_stmt 0
 170 013c 83308101 		ld	ra,24(sp)
 171              		.cfi_remember_state
 172              		.cfi_restore 1
 173 0140 03340101 		ld	s0,16(sp)
 174              		.cfi_restore 8
 175              		.cfi_def_cfa 2, 32
 176 0144 83348100 		ld	s1,8(sp)
 177              		.cfi_restore 9
 178              	.LVL18:
 179 0148 13010102 		addi	sp,sp,32
 180              		.cfi_def_cfa_offset 0
 181 014c 67800000 		jr	ra
 182              	.LVL19:
 183              	.L8:
GAS LISTING /tmp/cc0BrT1j.s 			page 5


 184              		.cfi_restore_state
  31:src/kernel/buddyTests.cpp ****     }
 185              		.loc 1 31 9 is_stmt 1
  31:src/kernel/buddyTests.cpp ****     }
 186              		.loc 1 31 23 is_stmt 0
 187 0150 13850400 		mv	a0,s1
 188              	.LVL20:
 189 0154 97000000 		call	_Z14printBuddyInfoP14buddyAllocator@plt
 189      E7800000 
 190              	.LVL21:
 191              		.loc 1 33 1
 192 015c 6FF01FFE 		j	.L5
 193              		.cfi_endproc
 194              	.LFE7:
 196              		.align	2
 197              		.globl	_Z19buddyAllocFreeTest1v
 199              	_Z19buddyAllocFreeTest1v:
 200              	.LFB8:
  34:src/kernel/buddyTests.cpp **** 
  35:src/kernel/buddyTests.cpp **** void buddyAllocFreeTest1()
  36:src/kernel/buddyTests.cpp **** {
 201              		.loc 1 36 1 is_stmt 1
 202              		.cfi_startproc
 203 0160 130101FD 		addi	sp,sp,-48
 204              		.cfi_def_cfa_offset 48
 205 0164 23341102 		sd	ra,40(sp)
 206 0168 23308102 		sd	s0,32(sp)
 207 016c 233C9100 		sd	s1,24(sp)
 208 0170 23382101 		sd	s2,16(sp)
 209 0174 23343101 		sd	s3,8(sp)
 210              		.cfi_offset 1, -8
 211              		.cfi_offset 8, -16
 212              		.cfi_offset 9, -24
 213              		.cfi_offset 18, -32
 214              		.cfi_offset 19, -40
 215 0178 13040103 		addi	s0,sp,48
 216              		.cfi_def_cfa 8, 0
  37:src/kernel/buddyTests.cpp ****     buddyAllocator* buddy = buddy_init((void*)HEAP_START_ADDR, 10);
 217              		.loc 1 37 5
 218              		.loc 1 37 39 is_stmt 0
 219 017c 9305A000 		li	a1,10
 220 0180 97070000 		la	a5,HEAP_START_ADDR
 220      83B70700 
 221 0188 03B50700 		ld	a0,0(a5)
 222 018c 97000000 		call	_Z10buddy_initPvm@plt
 222      E7800000 
 223              	.LVL22:
 224 0194 93040500 		mv	s1,a0
 225              	.LVL23:
  38:src/kernel/buddyTests.cpp ****     printBuddyInfo(buddy);
 226              		.loc 1 38 5 is_stmt 1
 227              		.loc 1 38 19 is_stmt 0
 228 0198 97000000 		call	_Z14printBuddyInfoP14buddyAllocator@plt
 228      E7800000 
 229              	.LVL24:
  39:src/kernel/buddyTests.cpp ****     void* adr = buddy_alloc(buddy,1);
 230              		.loc 1 39 5 is_stmt 1
GAS LISTING /tmp/cc0BrT1j.s 			page 6


 231              		.loc 1 39 28 is_stmt 0
 232 01a0 93051000 		li	a1,1
 233 01a4 13850400 		mv	a0,s1
 234 01a8 97000000 		call	_Z11buddy_allocP14buddyAllocatorm@plt
 234      E7800000 
 235              	.LVL25:
 236 01b0 13090500 		mv	s2,a0
 237              	.LVL26:
  40:src/kernel/buddyTests.cpp ****     printBuddyInfo(buddy);
 238              		.loc 1 40 5 is_stmt 1
 239              		.loc 1 40 19 is_stmt 0
 240 01b4 13850400 		mv	a0,s1
 241              	.LVL27:
 242 01b8 97000000 		call	_Z14printBuddyInfoP14buddyAllocator@plt
 242      E7800000 
 243              	.LVL28:
  41:src/kernel/buddyTests.cpp ****     buddy_free(buddy, adr, 1);
 244              		.loc 1 41 5 is_stmt 1
 245              		.loc 1 41 15 is_stmt 0
 246 01c0 13061000 		li	a2,1
 247 01c4 93050900 		mv	a1,s2
 248 01c8 13850400 		mv	a0,s1
 249 01cc 97000000 		call	_Z10buddy_freeP14buddyAllocatorPvm@plt
 249      E7800000 
 250              	.LVL29:
  42:src/kernel/buddyTests.cpp ****     printBuddyInfo(buddy);
 251              		.loc 1 42 5 is_stmt 1
 252              		.loc 1 42 19 is_stmt 0
 253 01d4 13850400 		mv	a0,s1
 254 01d8 97000000 		call	_Z14printBuddyInfoP14buddyAllocator@plt
 254      E7800000 
 255              	.LVL30:
  43:src/kernel/buddyTests.cpp **** 
  44:src/kernel/buddyTests.cpp ****     adr = buddy_alloc(buddy, 2);
 256              		.loc 1 44 5 is_stmt 1
 257              		.loc 1 44 22 is_stmt 0
 258 01e0 93052000 		li	a1,2
 259 01e4 13850400 		mv	a0,s1
 260 01e8 97000000 		call	_Z11buddy_allocP14buddyAllocatorm@plt
 260      E7800000 
 261              	.LVL31:
 262 01f0 13090500 		mv	s2,a0
 263              	.LVL32:
  45:src/kernel/buddyTests.cpp ****     void* adr2 = buddy_alloc(buddy, 3);
 264              		.loc 1 45 5 is_stmt 1
 265              		.loc 1 45 29 is_stmt 0
 266 01f4 93053000 		li	a1,3
 267 01f8 13850400 		mv	a0,s1
 268              	.LVL33:
 269 01fc 97000000 		call	_Z11buddy_allocP14buddyAllocatorm@plt
 269      E7800000 
 270              	.LVL34:
 271 0204 93090500 		mv	s3,a0
 272              	.LVL35:
  46:src/kernel/buddyTests.cpp ****     printBuddyInfo(buddy);
 273              		.loc 1 46 5 is_stmt 1
 274              		.loc 1 46 19 is_stmt 0
GAS LISTING /tmp/cc0BrT1j.s 			page 7


 275 0208 13850400 		mv	a0,s1
 276              	.LVL36:
 277 020c 97000000 		call	_Z14printBuddyInfoP14buddyAllocator@plt
 277      E7800000 
 278              	.LVL37:
  47:src/kernel/buddyTests.cpp **** 
  48:src/kernel/buddyTests.cpp ****     buddy_free(buddy, adr, 2);
 279              		.loc 1 48 5 is_stmt 1
 280              		.loc 1 48 15 is_stmt 0
 281 0214 13062000 		li	a2,2
 282 0218 93050900 		mv	a1,s2
 283 021c 13850400 		mv	a0,s1
 284 0220 97000000 		call	_Z10buddy_freeP14buddyAllocatorPvm@plt
 284      E7800000 
 285              	.LVL38:
  49:src/kernel/buddyTests.cpp ****     printBuddyInfo(buddy);
 286              		.loc 1 49 5 is_stmt 1
 287              		.loc 1 49 19 is_stmt 0
 288 0228 13850400 		mv	a0,s1
 289 022c 97000000 		call	_Z14printBuddyInfoP14buddyAllocator@plt
 289      E7800000 
 290              	.LVL39:
  50:src/kernel/buddyTests.cpp ****     adr = buddy_alloc(buddy, 1);
 291              		.loc 1 50 5 is_stmt 1
 292              		.loc 1 50 22 is_stmt 0
 293 0234 93051000 		li	a1,1
 294 0238 13850400 		mv	a0,s1
 295 023c 97000000 		call	_Z11buddy_allocP14buddyAllocatorm@plt
 295      E7800000 
 296              	.LVL40:
 297 0244 13090500 		mv	s2,a0
 298              	.LVL41:
  51:src/kernel/buddyTests.cpp ****     printBuddyInfo(buddy);
 299              		.loc 1 51 5 is_stmt 1
 300              		.loc 1 51 19 is_stmt 0
 301 0248 13850400 		mv	a0,s1
 302              	.LVL42:
 303 024c 97000000 		call	_Z14printBuddyInfoP14buddyAllocator@plt
 303      E7800000 
 304              	.LVL43:
  52:src/kernel/buddyTests.cpp **** 
  53:src/kernel/buddyTests.cpp ****     buddy_free(buddy, adr2, 3);
 305              		.loc 1 53 5 is_stmt 1
 306              		.loc 1 53 15 is_stmt 0
 307 0254 13063000 		li	a2,3
 308 0258 93850900 		mv	a1,s3
 309 025c 13850400 		mv	a0,s1
 310 0260 97000000 		call	_Z10buddy_freeP14buddyAllocatorPvm@plt
 310      E7800000 
 311              	.LVL44:
  54:src/kernel/buddyTests.cpp ****     printBuddyInfo(buddy);
 312              		.loc 1 54 5 is_stmt 1
 313              		.loc 1 54 19 is_stmt 0
 314 0268 13850400 		mv	a0,s1
 315 026c 97000000 		call	_Z14printBuddyInfoP14buddyAllocator@plt
 315      E7800000 
 316              	.LVL45:
GAS LISTING /tmp/cc0BrT1j.s 			page 8


  55:src/kernel/buddyTests.cpp ****     buddy_free(buddy, adr, 1);
 317              		.loc 1 55 5 is_stmt 1
 318              		.loc 1 55 15 is_stmt 0
 319 0274 13061000 		li	a2,1
 320 0278 93050900 		mv	a1,s2
 321 027c 13850400 		mv	a0,s1
 322 0280 97000000 		call	_Z10buddy_freeP14buddyAllocatorPvm@plt
 322      E7800000 
 323              	.LVL46:
  56:src/kernel/buddyTests.cpp ****     printBuddyInfo(buddy);
 324              		.loc 1 56 5 is_stmt 1
 325              		.loc 1 56 19 is_stmt 0
 326 0288 13850400 		mv	a0,s1
 327 028c 97000000 		call	_Z14printBuddyInfoP14buddyAllocator@plt
 327      E7800000 
 328              	.LVL47:
  57:src/kernel/buddyTests.cpp **** }
 329              		.loc 1 57 1
 330 0294 83308102 		ld	ra,40(sp)
 331              		.cfi_restore 1
 332 0298 03340102 		ld	s0,32(sp)
 333              		.cfi_restore 8
 334              		.cfi_def_cfa 2, 48
 335 029c 83348101 		ld	s1,24(sp)
 336              		.cfi_restore 9
 337              	.LVL48:
 338 02a0 03390101 		ld	s2,16(sp)
 339              		.cfi_restore 18
 340              	.LVL49:
 341 02a4 83398100 		ld	s3,8(sp)
 342              		.cfi_restore 19
 343              	.LVL50:
 344 02a8 13010103 		addi	sp,sp,48
 345              		.cfi_def_cfa_offset 0
 346 02ac 67800000 		jr	ra
 347              		.cfi_endproc
 348              	.LFE8:
 350              		.section	.rodata.str1.8,"aMS",@progbits,1
 351              		.align	3
 352              	.LC0:
 353 0000 42616420 		.string	"Bad allocation "
 353      616C6C6F 
 353      63617469 
 353      6F6E2000 
 354              		.text
 355              		.align	2
 356              		.globl	_Z13buddyTestMixav
 358              	_Z13buddyTestMixav:
 359              	.LFB9:
  58:src/kernel/buddyTests.cpp **** 
  59:src/kernel/buddyTests.cpp **** void buddyTestMixa()
  60:src/kernel/buddyTests.cpp **** {
 360              		.loc 1 60 1 is_stmt 1
 361              		.cfi_startproc
 362 02b0 130101FC 		addi	sp,sp,-64
 363              		.cfi_def_cfa_offset 64
 364 02b4 233C1102 		sd	ra,56(sp)
GAS LISTING /tmp/cc0BrT1j.s 			page 9


 365 02b8 23388102 		sd	s0,48(sp)
 366 02bc 23349102 		sd	s1,40(sp)
 367 02c0 23302103 		sd	s2,32(sp)
 368 02c4 233C3101 		sd	s3,24(sp)
 369 02c8 23384101 		sd	s4,16(sp)
 370 02cc 23345101 		sd	s5,8(sp)
 371              		.cfi_offset 1, -8
 372              		.cfi_offset 8, -16
 373              		.cfi_offset 9, -24
 374              		.cfi_offset 18, -32
 375              		.cfi_offset 19, -40
 376              		.cfi_offset 20, -48
 377              		.cfi_offset 21, -56
 378 02d0 13040104 		addi	s0,sp,64
 379              		.cfi_def_cfa 8, 0
  61:src/kernel/buddyTests.cpp ****     size_t mask = ((size_t)-1) << 12;
 380              		.loc 1 61 5
 381              	.LVL51:
  62:src/kernel/buddyTests.cpp ****     buddyAllocator* buddy = (buddyAllocator*)(((size_t)HEAP_START_ADDR & mask) + (1 << 12));
 382              		.loc 1 62 5
 383              		.loc 1 62 72 is_stmt 0
 384 02d4 97070000 		la	a5,HEAP_START_ADDR
 384      83B70700 
 385 02dc 83B90700 		ld	s3,0(a5)
 386 02e0 B7F7FFFF 		li	a5,-4096
 387 02e4 B3F9F900 		and	s3,s3,a5
 388              		.loc 1 62 80
 389 02e8 B7170000 		li	a5,4096
 390 02ec B389F900 		add	s3,s3,a5
 391              	.LVL52:
  63:src/kernel/buddyTests.cpp ****     void** x = (void**)MemoryAllocator::kmalloc(5000*sizeof(void*));
 392              		.loc 1 63 5 is_stmt 1
 393              		.loc 1 63 48 is_stmt 0
 394 02f0 37A50000 		li	a0,40960
 395 02f4 130505C4 		addi	a0,a0,-960
 396 02f8 97000000 		call	_ZN15MemoryAllocator7kmallocEm@plt
 396      E7800000 
 397              	.LVL53:
 398 0300 130A0500 		mv	s4,a0
 399              	.LVL54:
  64:src/kernel/buddyTests.cpp ****     printBuddyInfo(buddy);
 400              		.loc 1 64 5 is_stmt 1
 401              		.loc 1 64 19 is_stmt 0
 402 0304 13850900 		mv	a0,s3
 403              	.LVL55:
 404 0308 97000000 		call	_Z14printBuddyInfoP14buddyAllocator@plt
 404      E7800000 
 405              	.LVL56:
  65:src/kernel/buddyTests.cpp ****     for(int i = 0; i < 5000;i++)
 406              		.loc 1 65 5 is_stmt 1
 407              	.LBB2:
 408              		.loc 1 65 13 is_stmt 0
 409 0310 93040000 		li	s1,0
 410 0314 6F008000 		j	.L15
 411              	.LVL57:
 412              	.L13:
 413              		.loc 1 65 5 is_stmt 1 discriminator 2
GAS LISTING /tmp/cc0BrT1j.s 			page 10


 414 0318 9B841400 		addiw	s1,s1,1
 415              	.LVL58:
 416              	.L15:
 417              		.loc 1 65 22 discriminator 1
 418 031c B7170000 		li	a5,4096
 419 0320 93877738 		addi	a5,a5,903
 420 0324 63C49706 		bgt	s1,a5,.L12
 421              	.LBB3:
  66:src/kernel/buddyTests.cpp ****     {
  67:src/kernel/buddyTests.cpp ****         x[i] = buddy_alloc(buddy, 2);
 422              		.loc 1 67 9
 423              		.loc 1 67 12 is_stmt 0
 424 0328 13993400 		slli	s2,s1,3
 425 032c 33092A01 		add	s2,s4,s2
 426              		.loc 1 67 27
 427 0330 93052000 		li	a1,2
 428 0334 13850900 		mv	a0,s3
 429 0338 97000000 		call	_Z11buddy_allocP14buddyAllocatorm@plt
 429      E7800000 
 430              	.LVL59:
 431              		.loc 1 67 14
 432 0340 2330A900 		sd	a0,0(s2)
  68:src/kernel/buddyTests.cpp ****         if(x[i] == nullptr)
 433              		.loc 1 68 9 is_stmt 1
 434              	.LBB4:
 435 0344 E31A05FC 		bnez	a0,.L13
 436              	.LBB5:
  69:src/kernel/buddyTests.cpp ****         {
  70:src/kernel/buddyTests.cpp ****             KConsole::trapPrintStringInt("Bad allocation ", i);
 437              		.loc 1 70 13
 438              		.loc 1 70 41 is_stmt 0
 439 0348 1306A000 		li	a2,10
 440 034c 93850400 		mv	a1,s1
 441 0350 17050000 		lla	a0,.LC0
 441      13050500 
 442 0358 97000000 		call	_ZN8KConsole18trapPrintStringIntEPKcmi@plt
 442      E7800000 
 443              	.LVL60:
  71:src/kernel/buddyTests.cpp ****             for(int j = 0;j < i;j++)
 444              		.loc 1 71 13 is_stmt 1
 445              	.LBB6:
 446              		.loc 1 71 21 is_stmt 0
 447 0360 13090000 		li	s2,0
 448              	.LVL61:
 449              	.L14:
 450              		.loc 1 71 29 is_stmt 1 discriminator 3
 451 0364 63549902 		ble	s1,s2,.L12
  72:src/kernel/buddyTests.cpp ****             {
  73:src/kernel/buddyTests.cpp ****                 buddy_free(buddy, x[j], 2);
 452              		.loc 1 73 17 discriminator 2
 453              		.loc 1 73 38 is_stmt 0 discriminator 2
 454 0368 93173900 		slli	a5,s2,3
 455 036c B307FA00 		add	a5,s4,a5
 456              		.loc 1 73 27 discriminator 2
 457 0370 13062000 		li	a2,2
 458 0374 83B50700 		ld	a1,0(a5)
 459 0378 13850900 		mv	a0,s3
GAS LISTING /tmp/cc0BrT1j.s 			page 11


 460 037c 97000000 		call	_Z10buddy_freeP14buddyAllocatorPvm@plt
 460      E7800000 
 461              	.LVL62:
  71:src/kernel/buddyTests.cpp ****             for(int j = 0;j < i;j++)
 462              		.loc 1 71 13 is_stmt 1 discriminator 2
 463 0384 1B091900 		addiw	s2,s2,1
 464              	.LVL63:
 465 0388 6FF0DFFD 		j	.L14
 466              	.L12:
 467              	.LBE6:
 468              	.LBE5:
 469              	.LBE4:
 470              	.LBE3:
 471              	.LBE2:
  74:src/kernel/buddyTests.cpp ****             }
  75:src/kernel/buddyTests.cpp ****             break;
  76:src/kernel/buddyTests.cpp ****         }
  77:src/kernel/buddyTests.cpp ****     }
  78:src/kernel/buddyTests.cpp ****     printBuddyInfo(buddy);
 472              		.loc 1 78 5
 473              		.loc 1 78 19 is_stmt 0
 474 038c 13850900 		mv	a0,s3
 475 0390 97000000 		call	_Z14printBuddyInfoP14buddyAllocator@plt
 475      E7800000 
 476              	.LVL64:
  79:src/kernel/buddyTests.cpp **** }
 477              		.loc 1 79 1
 478 0398 83308103 		ld	ra,56(sp)
 479              		.cfi_restore 1
 480 039c 03340103 		ld	s0,48(sp)
 481              		.cfi_restore 8
 482              		.cfi_def_cfa 2, 64
 483 03a0 83348102 		ld	s1,40(sp)
 484              		.cfi_restore 9
 485              	.LVL65:
 486 03a4 03390102 		ld	s2,32(sp)
 487              		.cfi_restore 18
 488 03a8 83398101 		ld	s3,24(sp)
 489              		.cfi_restore 19
 490              	.LVL66:
 491 03ac 033A0101 		ld	s4,16(sp)
 492              		.cfi_restore 20
 493              	.LVL67:
 494 03b0 833A8100 		ld	s5,8(sp)
 495              		.cfi_restore 21
 496 03b4 13010104 		addi	sp,sp,64
 497              		.cfi_def_cfa_offset 0
 498 03b8 67800000 		jr	ra
 499              		.cfi_endproc
 500              	.LFE9:
 502              	.Letext0:
 503              		.file 2 "src/kernel/../../h/../lib/hw.h"
 504              		.file 3 "src/kernel/../../h/buddyAllocator.hpp"
 505              		.file 4 "src/kernel/../../h/PCB.hpp"
 506              		.file 5 "src/kernel/../../h/KSemaphore.hpp"
 507              		.file 6 "src/kernel/../../h/KConsole.hpp"
 508              		.file 7 "src/kernel/../../h/MemoryAllocator.hpp"
GAS LISTING /tmp/cc0BrT1j.s 			page 12


GAS LISTING /tmp/cc0BrT1j.s 			page 13

