GAS LISTING /tmp/ccZ7yWHp.s 			page 1


   1              		.file	"KConsole.cpp"
   2              		.option pic
   3              		.option norelax
   4              		.text
   5              	.Ltext0:
   6              		.align	2
   7              		.globl	_ZN8KConsole10initializeEv
   9              	_ZN8KConsole10initializeEv:
  10              	.LFB25:
  11              		.file 1 "src/kernel/KConsole.cpp"
   1:src/kernel/KConsole.cpp **** //
   2:src/kernel/KConsole.cpp **** // Created by os on 5/19/22.
   3:src/kernel/KConsole.cpp **** //
   4:src/kernel/KConsole.cpp **** #include "../../h/KConsole.hpp"
   5:src/kernel/KConsole.cpp **** #include "../user/test/printing.hpp"
   6:src/kernel/KConsole.cpp **** #include "../../h/Riscv.hpp"
   7:src/kernel/KConsole.cpp **** #include "../../h/syscall_c_kernel.hpp"
   8:src/kernel/KConsole.cpp **** 
   9:src/kernel/KConsole.cpp **** uint64 KConsole::inputHead = 0;
  10:src/kernel/KConsole.cpp **** uint64 KConsole::inputTail = 0;
  11:src/kernel/KConsole.cpp **** uint64 KConsole::outputHead = 0;
  12:src/kernel/KConsole.cpp **** uint64 KConsole::outputTail = 0;
  13:src/kernel/KConsole.cpp **** KSemaphore* KConsole::hasCharactersOutput = nullptr;
  14:src/kernel/KConsole.cpp **** KSemaphore* KConsole::hasCharactersInput = nullptr;
  15:src/kernel/KConsole.cpp **** uint64 KConsole::pendingGetc = 0;
  16:src/kernel/KConsole.cpp **** //char KConsole::inputBuffer[bufferSize];
  17:src/kernel/KConsole.cpp **** //char KConsole::outputBuffer[bufferSize];
  18:src/kernel/KConsole.cpp **** char* KConsole::inputBuffer = nullptr;
  19:src/kernel/KConsole.cpp **** char* KConsole::outputBuffer = nullptr;
  20:src/kernel/KConsole.cpp **** uint64 KConsole::pendingPutc = 0;
  21:src/kernel/KConsole.cpp **** bool KConsole::finished = false;
  22:src/kernel/KConsole.cpp **** 
  23:src/kernel/KConsole.cpp **** void KConsole::initialize()
  24:src/kernel/KConsole.cpp **** {
  12              		.loc 1 24 1
  13              		.cfi_startproc
  14              		.cfi_personality 0x9b,DW.ref.__gxx_personality_v0
  15              		.cfi_lsda 0x1b,.LLSDA25
  16 0000 130101FE 		addi	sp,sp,-32
  17              		.cfi_def_cfa_offset 32
  18 0004 233C1100 		sd	ra,24(sp)
  19 0008 23388100 		sd	s0,16(sp)
  20 000c 23349100 		sd	s1,8(sp)
  21 0010 23302101 		sd	s2,0(sp)
  22              		.cfi_offset 1, -8
  23              		.cfi_offset 8, -16
  24              		.cfi_offset 9, -24
  25              		.cfi_offset 18, -32
  26 0014 13040102 		addi	s0,sp,32
  27              		.cfi_def_cfa 8, 0
  25:src/kernel/KConsole.cpp ****     hasCharactersInput = new KSemaphore(0);
  28              		.loc 1 25 5
  29              		.loc 1 25 42 is_stmt 0
  30 0018 13058001 		li	a0,24
  31              	.LEHB0:
  32 001c 97000000 		call	_ZN10KSemaphorenwEm@plt
  32      E7800000 
GAS LISTING /tmp/ccZ7yWHp.s 			page 2


  33              	.LVL0:
  34              	.LEHE0:
  35 0024 93040500 		mv	s1,a0
  36 0028 63080500 		beqz	a0,.L2
  37              		.loc 1 25 42 discriminator 1
  38 002c 93050000 		li	a1,0
  39              	.LEHB1:
  40 0030 97000000 		call	_ZN10KSemaphoreC1Ei@plt
  40      E7800000 
  41              	.LVL1:
  42              	.LEHE1:
  43              	.L2:
  44              		.loc 1 25 24 discriminator 6
  45 0038 97070000 		sd	s1,.LANCHOR0,a5
  45      23B09700 
  26:src/kernel/KConsole.cpp ****     hasCharactersOutput = new KSemaphore(0);
  46              		.loc 1 26 5 is_stmt 1 discriminator 6
  47              		.loc 1 26 43 is_stmt 0 discriminator 6
  48 0040 13058001 		li	a0,24
  49              	.LEHB2:
  50 0044 97000000 		call	_ZN10KSemaphorenwEm@plt
  50      E7800000 
  51              	.LVL2:
  52              	.LEHE2:
  53 004c 93040500 		mv	s1,a0
  54 0050 63080500 		beqz	a0,.L3
  55              		.loc 1 26 43 discriminator 1
  56 0054 93050000 		li	a1,0
  57              	.LEHB3:
  58 0058 97000000 		call	_ZN10KSemaphoreC1Ei@plt
  58      E7800000 
  59              	.LVL3:
  60              	.LEHE3:
  61              	.L3:
  62              		.loc 1 26 25 discriminator 6
  63 0060 17090000 		lla	s2,.LANCHOR0
  63      13090900 
  64 0068 23349900 		sd	s1,8(s2)
  27:src/kernel/KConsole.cpp ****     inputBuffer = (char*)kmalloc(bufferSize);
  65              		.loc 1 27 5 is_stmt 1 discriminator 6
  66              		.loc 1 27 33 is_stmt 0 discriminator 6
  67 006c 37450000 		li	a0,16384
  68              	.LEHB4:
  69 0070 97000000 		call	_Z7kmallocm@plt
  69      E7800000 
  70              	.LVL4:
  71              		.loc 1 27 17 discriminator 6
  72 0078 2338A900 		sd	a0,16(s2)
  28:src/kernel/KConsole.cpp ****     outputBuffer = (char*)kmalloc(bufferSize);
  73              		.loc 1 28 5 is_stmt 1 discriminator 6
  74              		.loc 1 28 34 is_stmt 0 discriminator 6
  75 007c 37450000 		li	a0,16384
  76 0080 97000000 		call	_Z7kmallocm@plt
  76      E7800000 
  77              	.LVL5:
  78              	.LEHE4:
  79              		.loc 1 28 18 discriminator 6
GAS LISTING /tmp/ccZ7yWHp.s 			page 3


  80 0088 233CA900 		sd	a0,24(s2)
  29:src/kernel/KConsole.cpp **** }
  81              		.loc 1 29 1 discriminator 6
  82 008c 83308101 		ld	ra,24(sp)
  83              		.cfi_remember_state
  84              		.cfi_restore 1
  85 0090 03340101 		ld	s0,16(sp)
  86              		.cfi_restore 8
  87              		.cfi_def_cfa 2, 32
  88 0094 83348100 		ld	s1,8(sp)
  89              		.cfi_restore 9
  90 0098 03390100 		ld	s2,0(sp)
  91              		.cfi_restore 18
  92 009c 13010102 		addi	sp,sp,32
  93              		.cfi_def_cfa_offset 0
  94 00a0 67800000 		jr	ra
  95              	.L6:
  96              		.cfi_restore_state
  97 00a4 13090500 		mv	s2,a0
  25:src/kernel/KConsole.cpp ****     hasCharactersOutput = new KSemaphore(0);
  98              		.loc 1 25 42
  99 00a8 13850400 		mv	a0,s1
 100 00ac 97000000 		call	_ZN10KSemaphoredlEPv@plt
 100      E7800000 
 101              	.LVL6:
 102 00b4 13050900 		mv	a0,s2
 103              	.LEHB5:
 104 00b8 97000000 		call	_Unwind_Resume@plt
 104      E7800000 
 105              	.LVL7:
 106              	.LEHE5:
 107              	.L7:
 108 00c0 13090500 		mv	s2,a0
  26:src/kernel/KConsole.cpp ****     inputBuffer = (char*)kmalloc(bufferSize);
 109              		.loc 1 26 43
 110 00c4 13850400 		mv	a0,s1
 111 00c8 97000000 		call	_ZN10KSemaphoredlEPv@plt
 111      E7800000 
 112              	.LVL8:
 113 00d0 13050900 		mv	a0,s2
 114              	.LEHB6:
 115 00d4 97000000 		call	_Unwind_Resume@plt
 115      E7800000 
 116              	.LVL9:
 117              	.LEHE6:
 118              		.cfi_endproc
 119              	.LFE25:
 120              		.globl	__gxx_personality_v0
 121              		.section	.gcc_except_table,"a",@progbits
 122              	.LLSDA25:
 123 0000 FF       		.byte	0xff
 124 0001 FF       		.byte	0xff
 125 0002 03       		.byte	0x3
 126 0003 5B       		.byte	0x5b
 127 0004 00000000 		.4byte	.LEHB0-.LFB25
 128 0008 00000000 		.4byte	.LEHE0-.LEHB0
 129 000c 00000000 		.4byte	0
GAS LISTING /tmp/ccZ7yWHp.s 			page 4


 130 0010 00       		.byte	0
 131 0011 00000000 		.4byte	.LEHB1-.LFB25
 132 0015 00000000 		.4byte	.LEHE1-.LEHB1
 133 0019 00000000 		.4byte	.L6-.LFB25
 134 001d 00       		.byte	0
 135 001e 00000000 		.4byte	.LEHB2-.LFB25
 136 0022 00000000 		.4byte	.LEHE2-.LEHB2
 137 0026 00000000 		.4byte	0
 138 002a 00       		.byte	0
 139 002b 00000000 		.4byte	.LEHB3-.LFB25
 140 002f 00000000 		.4byte	.LEHE3-.LEHB3
 141 0033 00000000 		.4byte	.L7-.LFB25
 142 0037 00       		.byte	0
 143 0038 00000000 		.4byte	.LEHB4-.LFB25
 144 003c 00000000 		.4byte	.LEHE4-.LEHB4
 145 0040 00000000 		.4byte	0
 146 0044 00       		.byte	0
 147 0045 00000000 		.4byte	.LEHB5-.LFB25
 148 0049 00000000 		.4byte	.LEHE5-.LEHB5
 149 004d 00000000 		.4byte	0
 150 0051 00       		.byte	0
 151 0052 00000000 		.4byte	.LEHB6-.LFB25
 152 0056 00000000 		.4byte	.LEHE6-.LEHB6
 153 005a 00000000 		.4byte	0
 154 005e 00       		.byte	0
 155              		.text
 157              		.align	2
 158              		.globl	_ZN8KConsole17putCharacterInputEc
 160              	_ZN8KConsole17putCharacterInputEc:
 161              	.LFB28:
  30:src/kernel/KConsole.cpp **** 
  31:src/kernel/KConsole.cpp **** //extern const uint64 CONSOLE_STATUS;
  32:src/kernel/KConsole.cpp **** //extern const uint64 CONSOLE_TX_DATA;
  33:src/kernel/KConsole.cpp **** //extern const uint64 CONSOLE_RX_DATA;
  34:src/kernel/KConsole.cpp **** void KConsole::getCharactersFromConsole()
  35:src/kernel/KConsole.cpp **** {
  36:src/kernel/KConsole.cpp ****     uint64 operation = *(uint8*)CONSOLE_STATUS;
  37:src/kernel/KConsole.cpp ****     if(operation & KConsole::STATUS_READ_MASK)
  38:src/kernel/KConsole.cpp ****     {
  39:src/kernel/KConsole.cpp ****         char c = *(uint8*)CONSOLE_TX_DATA;
  40:src/kernel/KConsole.cpp ****         if(KConsole::pendingGetc > 0)
  41:src/kernel/KConsole.cpp ****         {
  42:src/kernel/KConsole.cpp ****             KConsole::pendingGetc--;
  43:src/kernel/KConsole.cpp ****             KConsole::putCharacterInput(c);
  44:src/kernel/KConsole.cpp ****             //KConsole::putCharacterOutput(c);
  45:src/kernel/KConsole.cpp ****         }
  46:src/kernel/KConsole.cpp ****     }
  47:src/kernel/KConsole.cpp **** }
  48:src/kernel/KConsole.cpp **** 
  49:src/kernel/KConsole.cpp **** void KConsole::sendCharactersToConsole(void* p)
  50:src/kernel/KConsole.cpp **** {
  51:src/kernel/KConsole.cpp ****     while(true)
  52:src/kernel/KConsole.cpp ****     {
  53:src/kernel/KConsole.cpp ****             if(Riscv::finishSystem && KConsole::outputBufferEmpty() && pendingGetc == 0)
  54:src/kernel/KConsole.cpp ****             {
  55:src/kernel/KConsole.cpp ****                 thread_exit_kernel();
  56:src/kernel/KConsole.cpp ****             }
GAS LISTING /tmp/ccZ7yWHp.s 			page 5


  57:src/kernel/KConsole.cpp **** 
  58:src/kernel/KConsole.cpp ****             uint64 operation = *(uint8*)CONSOLE_STATUS;
  59:src/kernel/KConsole.cpp ****             if ((operation & STATUS_WRITE_MASK) && pendingPutc > 0)
  60:src/kernel/KConsole.cpp ****             {
  61:src/kernel/KConsole.cpp ****                 char volatile c = sysCallGetCharOutput();
  62:src/kernel/KConsole.cpp ****                 pendingPutc--;
  63:src/kernel/KConsole.cpp ****                 *(uint8*)CONSOLE_RX_DATA = c;
  64:src/kernel/KConsole.cpp ****             }
  65:src/kernel/KConsole.cpp ****             else
  66:src/kernel/KConsole.cpp ****             {
  67:src/kernel/KConsole.cpp ****                 thread_dispatch_kernel();
  68:src/kernel/KConsole.cpp ****             }
  69:src/kernel/KConsole.cpp ****     }
  70:src/kernel/KConsole.cpp **** }
  71:src/kernel/KConsole.cpp **** 
  72:src/kernel/KConsole.cpp **** void KConsole::putCharacterInput(char c)
  73:src/kernel/KConsole.cpp **** {
 162              		.loc 1 73 1 is_stmt 1
 163              		.cfi_startproc
 164              	.LVL10:
  74:src/kernel/KConsole.cpp ****     if((inputTail+1)%bufferSize == inputHead)
 165              		.loc 1 74 5
 166              		.loc 1 74 18 is_stmt 0
 167 00dc 97060000 		lla	a3,.LANCHOR0
 167      93860600 
 168 00e4 03B60602 		ld	a2,32(a3)
 169 00e8 93071600 		addi	a5,a2,1
 170              		.loc 1 74 21
 171 00ec 37470000 		li	a4,16384
 172 00f0 1307F7FF 		addi	a4,a4,-1
 173 00f4 B3F7E700 		and	a5,a5,a4
 174              		.loc 1 74 33
 175 00f8 03B78602 		ld	a4,40(a3)
 176              		.loc 1 74 5
 177 00fc 638CE704 		beq	a5,a4,.L13
  73:src/kernel/KConsole.cpp ****     if((inputTail+1)%bufferSize == inputHead)
 178              		.loc 1 73 1
 179 0100 130101FF 		addi	sp,sp,-16
 180              		.cfi_def_cfa_offset 16
 181 0104 23341100 		sd	ra,8(sp)
 182 0108 23308100 		sd	s0,0(sp)
 183              		.cfi_offset 1, -8
 184              		.cfi_offset 8, -16
 185 010c 13040101 		addi	s0,sp,16
 186              		.cfi_def_cfa 8, 0
  75:src/kernel/KConsole.cpp ****         return;
  76:src/kernel/KConsole.cpp ****     inputBuffer[inputTail] = c;
 187              		.loc 1 76 5 is_stmt 1
 188              		.loc 1 76 26 is_stmt 0
 189 0110 13870600 		mv	a4,a3
 190 0114 83B70601 		ld	a5,16(a3)
 191 0118 3386C700 		add	a2,a5,a2
 192              		.loc 1 76 28
 193 011c 2300A600 		sb	a0,0(a2)
  77:src/kernel/KConsole.cpp ****     inputTail = (inputTail+1)%bufferSize;
 194              		.loc 1 77 5 is_stmt 1
 195              		.loc 1 77 27 is_stmt 0
GAS LISTING /tmp/ccZ7yWHp.s 			page 6


 196 0120 83B70602 		ld	a5,32(a3)
 197 0124 93871700 		addi	a5,a5,1
 198              		.loc 1 77 30
 199 0128 B7460000 		li	a3,16384
 200 012c 9386F6FF 		addi	a3,a3,-1
 201 0130 B3F7D700 		and	a5,a5,a3
 202              		.loc 1 77 15
 203 0134 2330F702 		sd	a5,32(a4)
  78:src/kernel/KConsole.cpp ****     hasCharactersInput->signal();
 204              		.loc 1 78 5 is_stmt 1
 205              		.loc 1 78 31 is_stmt 0
 206 0138 03350700 		ld	a0,0(a4)
 207              	.LVL11:
 208 013c 97000000 		call	_ZN10KSemaphore6signalEv@plt
 208      E7800000 
 209              	.LVL12:
  79:src/kernel/KConsole.cpp **** }
 210              		.loc 1 79 1
 211 0144 83308100 		ld	ra,8(sp)
 212              		.cfi_restore 1
 213 0148 03340100 		ld	s0,0(sp)
 214              		.cfi_restore 8
 215              		.cfi_def_cfa 2, 16
 216 014c 13010101 		addi	sp,sp,16
 217              		.cfi_def_cfa_offset 0
 218 0150 67800000 		jr	ra
 219              	.LVL13:
 220              	.L13:
 221 0154 67800000 		ret
 222              		.cfi_endproc
 223              	.LFE28:
 225              		.align	2
 226              		.globl	_ZN8KConsole24getCharactersFromConsoleEv
 228              	_ZN8KConsole24getCharactersFromConsoleEv:
 229              	.LFB26:
  35:src/kernel/KConsole.cpp ****     uint64 operation = *(uint8*)CONSOLE_STATUS;
 230              		.loc 1 35 1 is_stmt 1
 231              		.cfi_startproc
  36:src/kernel/KConsole.cpp ****     if(operation & KConsole::STATUS_READ_MASK)
 232              		.loc 1 36 5
  36:src/kernel/KConsole.cpp ****     if(operation & KConsole::STATUS_READ_MASK)
 233              		.loc 1 36 24 is_stmt 0
 234 0158 97070000 		la	a5,CONSOLE_STATUS
 234      83B70700 
 235 0160 83B70700 		ld	a5,0(a5)
 236 0164 83C70700 		lbu	a5,0(a5)
 237              	.LVL14:
  37:src/kernel/KConsole.cpp ****     {
 238              		.loc 1 37 5 is_stmt 1
 239              	.LBB2:
 240 0168 93F71700 		andi	a5,a5,1
 241              	.LVL15:
 242 016c 63800702 		beqz	a5,.L19
 243              	.LBB3:
  39:src/kernel/KConsole.cpp ****         if(KConsole::pendingGetc > 0)
 244              		.loc 1 39 9
  39:src/kernel/KConsole.cpp ****         if(KConsole::pendingGetc > 0)
GAS LISTING /tmp/ccZ7yWHp.s 			page 7


 245              		.loc 1 39 18 is_stmt 0
 246 0170 97070000 		la	a5,CONSOLE_TX_DATA
 246      83B70700 
 247 0178 83B70700 		ld	a5,0(a5)
  39:src/kernel/KConsole.cpp ****         if(KConsole::pendingGetc > 0)
 248              		.loc 1 39 14
 249 017c 03C50700 		lbu	a0,0(a5)
 250              	.LVL16:
  40:src/kernel/KConsole.cpp ****         {
 251              		.loc 1 40 9 is_stmt 1
  40:src/kernel/KConsole.cpp ****         {
 252              		.loc 1 40 34 is_stmt 0
 253 0180 97070000 		ld	a5,.LANCHOR0+48
 253      83B70700 
  40:src/kernel/KConsole.cpp ****         {
 254              		.loc 1 40 9
 255 0188 63940700 		bnez	a5,.L22
 256              	.LVL17:
 257              	.L19:
 258 018c 67800000 		ret
 259              	.LVL18:
 260              	.L22:
 261              	.LBE3:
 262              	.LBE2:
  35:src/kernel/KConsole.cpp ****     uint64 operation = *(uint8*)CONSOLE_STATUS;
 263              		.loc 1 35 1
 264 0190 130101FF 		addi	sp,sp,-16
 265              		.cfi_def_cfa_offset 16
 266 0194 23341100 		sd	ra,8(sp)
 267              	.LVL19:
 268 0198 23308100 		sd	s0,0(sp)
 269              		.cfi_offset 1, -8
 270              		.cfi_offset 8, -16
 271 019c 13040101 		addi	s0,sp,16
 272              		.cfi_def_cfa 8, 0
 273              	.LBB5:
 274              	.LBB4:
  42:src/kernel/KConsole.cpp ****             KConsole::putCharacterInput(c);
 275              		.loc 1 42 13 is_stmt 1
  42:src/kernel/KConsole.cpp ****             KConsole::putCharacterInput(c);
 276              		.loc 1 42 34 is_stmt 0
 277 01a0 9387F7FF 		addi	a5,a5,-1
 278 01a4 17070000 		sd	a5,.LANCHOR0+48,a4
 278      2330F700 
  43:src/kernel/KConsole.cpp ****             //KConsole::putCharacterOutput(c);
 279              		.loc 1 43 13 is_stmt 1
  43:src/kernel/KConsole.cpp ****             //KConsole::putCharacterOutput(c);
 280              		.loc 1 43 40 is_stmt 0
 281 01ac 97000000 		call	_ZN8KConsole17putCharacterInputEc
 281      E7800000 
 282              	.LVL20:
 283              	.LBE4:
 284              	.LBE5:
  47:src/kernel/KConsole.cpp **** 
 285              		.loc 1 47 1
 286 01b4 83308100 		ld	ra,8(sp)
 287              		.cfi_restore 1
GAS LISTING /tmp/ccZ7yWHp.s 			page 8


 288 01b8 03340100 		ld	s0,0(sp)
 289              		.cfi_restore 8
 290              		.cfi_def_cfa 2, 16
 291 01bc 13010101 		addi	sp,sp,16
 292              		.cfi_def_cfa_offset 0
 293 01c0 67800000 		jr	ra
 294              		.cfi_endproc
 295              	.LFE26:
 297              		.align	2
 298              		.globl	_ZN8KConsole17getCharacterInputEv
 300              	_ZN8KConsole17getCharacterInputEv:
 301              	.LFB29:
  80:src/kernel/KConsole.cpp **** 
  81:src/kernel/KConsole.cpp **** char KConsole::getCharacterInput()
  82:src/kernel/KConsole.cpp **** {
 302              		.loc 1 82 1 is_stmt 1
 303              		.cfi_startproc
 304 01c4 130101FE 		addi	sp,sp,-32
 305              		.cfi_def_cfa_offset 32
 306 01c8 233C1100 		sd	ra,24(sp)
 307 01cc 23388100 		sd	s0,16(sp)
 308 01d0 23349100 		sd	s1,8(sp)
 309              		.cfi_offset 1, -8
 310              		.cfi_offset 8, -16
 311              		.cfi_offset 9, -24
 312 01d4 13040102 		addi	s0,sp,32
 313              		.cfi_def_cfa 8, 0
  83:src/kernel/KConsole.cpp ****     hasCharactersInput->wait();
 314              		.loc 1 83 5
 315              		.loc 1 83 29 is_stmt 0
 316 01d8 97040000 		lla	s1,.LANCHOR0
 316      93840400 
 317 01e0 03B50400 		ld	a0,0(s1)
 318 01e4 97000000 		call	_ZN10KSemaphore4waitEv@plt
 318      E7800000 
 319              	.LVL21:
  84:src/kernel/KConsole.cpp ****     if(inputHead == inputTail)
 320              		.loc 1 84 5 is_stmt 1
 321              		.loc 1 84 18 is_stmt 0
 322 01ec 83B78402 		ld	a5,40(s1)
 323 01f0 03B70402 		ld	a4,32(s1)
 324              		.loc 1 84 5
 325 01f4 638CE702 		beq	a5,a4,.L25
  85:src/kernel/KConsole.cpp ****         return -1;
  86:src/kernel/KConsole.cpp ****     char c = inputBuffer[inputHead];
 326              		.loc 1 86 5 is_stmt 1
 327              		.loc 1 86 35 is_stmt 0
 328 01f8 03B70401 		ld	a4,16(s1)
 329 01fc 3307F700 		add	a4,a4,a5
 330              		.loc 1 86 10
 331 0200 03450700 		lbu	a0,0(a4)
 332              	.LVL22:
  87:src/kernel/KConsole.cpp ****     inputHead = (inputHead+1)%bufferSize;
 333              		.loc 1 87 5 is_stmt 1
 334              		.loc 1 87 27 is_stmt 0
 335 0204 93871700 		addi	a5,a5,1
 336              		.loc 1 87 30
GAS LISTING /tmp/ccZ7yWHp.s 			page 9


 337 0208 37470000 		li	a4,16384
 338 020c 1307F7FF 		addi	a4,a4,-1
 339 0210 B3F7E700 		and	a5,a5,a4
 340              		.loc 1 87 15
 341 0214 23B4F402 		sd	a5,40(s1)
  88:src/kernel/KConsole.cpp ****     return c;
 342              		.loc 1 88 5 is_stmt 1
 343              	.LVL23:
 344              	.L24:
  89:src/kernel/KConsole.cpp **** }
 345              		.loc 1 89 1 is_stmt 0
 346 0218 83308101 		ld	ra,24(sp)
 347              		.cfi_remember_state
 348              		.cfi_restore 1
 349 021c 03340101 		ld	s0,16(sp)
 350              		.cfi_restore 8
 351              		.cfi_def_cfa 2, 32
 352 0220 83348100 		ld	s1,8(sp)
 353              		.cfi_restore 9
 354 0224 13010102 		addi	sp,sp,32
 355              		.cfi_def_cfa_offset 0
 356 0228 67800000 		jr	ra
 357              	.L25:
 358              		.cfi_restore_state
  85:src/kernel/KConsole.cpp ****     char c = inputBuffer[inputHead];
 359              		.loc 1 85 17
 360 022c 1305F00F 		li	a0,255
 361 0230 6FF09FFE 		j	.L24
 362              		.cfi_endproc
 363              	.LFE29:
 365              		.align	2
 366              		.globl	_ZN8KConsole18putCharacterOutputEc
 368              	_ZN8KConsole18putCharacterOutputEc:
 369              	.LFB30:
  90:src/kernel/KConsole.cpp **** 
  91:src/kernel/KConsole.cpp **** void KConsole::putCharacterOutput(char c)
  92:src/kernel/KConsole.cpp **** {
 370              		.loc 1 92 1 is_stmt 1
 371              		.cfi_startproc
 372              	.LVL24:
  93:src/kernel/KConsole.cpp ****     if((outputTail+1)%bufferSize == outputHead)
 373              		.loc 1 93 5
 374              		.loc 1 93 19 is_stmt 0
 375 0234 97060000 		lla	a3,.LANCHOR0
 375      93860600 
 376 023c 03B68603 		ld	a2,56(a3)
 377 0240 93071600 		addi	a5,a2,1
 378              		.loc 1 93 22
 379 0244 37470000 		li	a4,16384
 380 0248 1307F7FF 		addi	a4,a4,-1
 381 024c B3F7E700 		and	a5,a5,a4
 382              		.loc 1 93 34
 383 0250 03B70604 		ld	a4,64(a3)
 384              		.loc 1 93 5
 385 0254 6382E706 		beq	a5,a4,.L30
  92:src/kernel/KConsole.cpp ****     if((outputTail+1)%bufferSize == outputHead)
 386              		.loc 1 92 1
GAS LISTING /tmp/ccZ7yWHp.s 			page 10


 387 0258 130101FF 		addi	sp,sp,-16
 388              		.cfi_def_cfa_offset 16
 389 025c 23341100 		sd	ra,8(sp)
 390 0260 23308100 		sd	s0,0(sp)
 391              		.cfi_offset 1, -8
 392              		.cfi_offset 8, -16
 393 0264 13040101 		addi	s0,sp,16
 394              		.cfi_def_cfa 8, 0
  94:src/kernel/KConsole.cpp ****         return;
  95:src/kernel/KConsole.cpp ****     pendingPutc++;
 395              		.loc 1 95 5 is_stmt 1
 396              		.loc 1 95 16 is_stmt 0
 397 0268 93870600 		mv	a5,a3
 398 026c 03B78604 		ld	a4,72(a3)
 399 0270 13071700 		addi	a4,a4,1
 400 0274 23B4E604 		sd	a4,72(a3)
  96:src/kernel/KConsole.cpp ****     outputBuffer[outputTail] = c;
 401              		.loc 1 96 5 is_stmt 1
 402              		.loc 1 96 28 is_stmt 0
 403 0278 03B78601 		ld	a4,24(a3)
 404 027c 3306C700 		add	a2,a4,a2
 405              		.loc 1 96 30
 406 0280 2300A600 		sb	a0,0(a2)
  97:src/kernel/KConsole.cpp ****     outputTail = (outputTail+1)%bufferSize;
 407              		.loc 1 97 5 is_stmt 1
 408              		.loc 1 97 29 is_stmt 0
 409 0284 03B78603 		ld	a4,56(a3)
 410 0288 13071700 		addi	a4,a4,1
 411              		.loc 1 97 32
 412 028c B7460000 		li	a3,16384
 413 0290 9386F6FF 		addi	a3,a3,-1
 414 0294 3377D700 		and	a4,a4,a3
 415              		.loc 1 97 16
 416 0298 23BCE702 		sd	a4,56(a5)
  98:src/kernel/KConsole.cpp ****     hasCharactersOutput->signal();
 417              		.loc 1 98 5 is_stmt 1
 418              		.loc 1 98 32 is_stmt 0
 419 029c 03B58700 		ld	a0,8(a5)
 420              	.LVL25:
 421 02a0 97000000 		call	_ZN10KSemaphore6signalEv@plt
 421      E7800000 
 422              	.LVL26:
  99:src/kernel/KConsole.cpp **** }
 423              		.loc 1 99 1
 424 02a8 83308100 		ld	ra,8(sp)
 425              		.cfi_restore 1
 426 02ac 03340100 		ld	s0,0(sp)
 427              		.cfi_restore 8
 428              		.cfi_def_cfa 2, 16
 429 02b0 13010101 		addi	sp,sp,16
 430              		.cfi_def_cfa_offset 0
 431 02b4 67800000 		jr	ra
 432              	.LVL27:
 433              	.L30:
 434 02b8 67800000 		ret
 435              		.cfi_endproc
 436              	.LFE30:
GAS LISTING /tmp/ccZ7yWHp.s 			page 11


 438              		.align	2
 439              		.globl	_ZN8KConsole18getCharacterOutputEv
 441              	_ZN8KConsole18getCharacterOutputEv:
 442              	.LFB31:
 100:src/kernel/KConsole.cpp **** 
 101:src/kernel/KConsole.cpp **** char KConsole::getCharacterOutput()
 102:src/kernel/KConsole.cpp **** {
 443              		.loc 1 102 1 is_stmt 1
 444              		.cfi_startproc
 445 02bc 130101FE 		addi	sp,sp,-32
 446              		.cfi_def_cfa_offset 32
 447 02c0 233C1100 		sd	ra,24(sp)
 448 02c4 23388100 		sd	s0,16(sp)
 449 02c8 23349100 		sd	s1,8(sp)
 450              		.cfi_offset 1, -8
 451              		.cfi_offset 8, -16
 452              		.cfi_offset 9, -24
 453 02cc 13040102 		addi	s0,sp,32
 454              		.cfi_def_cfa 8, 0
 103:src/kernel/KConsole.cpp ****     hasCharactersOutput->wait();
 455              		.loc 1 103 5
 456              		.loc 1 103 30 is_stmt 0
 457 02d0 97040000 		lla	s1,.LANCHOR0
 457      93840400 
 458 02d8 03B58400 		ld	a0,8(s1)
 459 02dc 97000000 		call	_ZN10KSemaphore4waitEv@plt
 459      E7800000 
 460              	.LVL28:
 104:src/kernel/KConsole.cpp ****     if(outputHead == outputTail)
 461              		.loc 1 104 5 is_stmt 1
 462              		.loc 1 104 19 is_stmt 0
 463 02e4 83B70404 		ld	a5,64(s1)
 464 02e8 03B78403 		ld	a4,56(s1)
 465              		.loc 1 104 5
 466 02ec 638CE702 		beq	a5,a4,.L35
 105:src/kernel/KConsole.cpp ****         return -1;
 106:src/kernel/KConsole.cpp ****     char c = outputBuffer[outputHead];
 467              		.loc 1 106 5 is_stmt 1
 468              		.loc 1 106 37 is_stmt 0
 469 02f0 03B78401 		ld	a4,24(s1)
 470 02f4 3307F700 		add	a4,a4,a5
 471              		.loc 1 106 10
 472 02f8 03450700 		lbu	a0,0(a4)
 473              	.LVL29:
 107:src/kernel/KConsole.cpp ****     outputHead = (outputHead+1)%bufferSize;
 474              		.loc 1 107 5 is_stmt 1
 475              		.loc 1 107 29 is_stmt 0
 476 02fc 93871700 		addi	a5,a5,1
 477              		.loc 1 107 32
 478 0300 37470000 		li	a4,16384
 479 0304 1307F7FF 		addi	a4,a4,-1
 480 0308 B3F7E700 		and	a5,a5,a4
 481              		.loc 1 107 16
 482 030c 23B0F404 		sd	a5,64(s1)
 108:src/kernel/KConsole.cpp ****     return c;
 483              		.loc 1 108 5 is_stmt 1
 484              	.LVL30:
GAS LISTING /tmp/ccZ7yWHp.s 			page 12


 485              	.L34:
 109:src/kernel/KConsole.cpp **** }
 486              		.loc 1 109 1 is_stmt 0
 487 0310 83308101 		ld	ra,24(sp)
 488              		.cfi_remember_state
 489              		.cfi_restore 1
 490 0314 03340101 		ld	s0,16(sp)
 491              		.cfi_restore 8
 492              		.cfi_def_cfa 2, 32
 493 0318 83348100 		ld	s1,8(sp)
 494              		.cfi_restore 9
 495 031c 13010102 		addi	sp,sp,32
 496              		.cfi_def_cfa_offset 0
 497 0320 67800000 		jr	ra
 498              	.L35:
 499              		.cfi_restore_state
 105:src/kernel/KConsole.cpp ****     char c = outputBuffer[outputHead];
 500              		.loc 1 105 17
 501 0324 1305F00F 		li	a0,255
 502 0328 6FF09FFE 		j	.L34
 503              		.cfi_endproc
 504              	.LFE31:
 506              		.align	2
 507              		.globl	_ZN8KConsole11putcHandlerEv
 509              	_ZN8KConsole11putcHandlerEv:
 510              	.LFB32:
 110:src/kernel/KConsole.cpp **** 
 111:src/kernel/KConsole.cpp **** void KConsole::putcHandler()
 112:src/kernel/KConsole.cpp **** {
 511              		.loc 1 112 1 is_stmt 1
 512              		.cfi_startproc
 513 032c 130101FF 		addi	sp,sp,-16
 514              		.cfi_def_cfa_offset 16
 515 0330 23341100 		sd	ra,8(sp)
 516 0334 23308100 		sd	s0,0(sp)
 517              		.cfi_offset 1, -8
 518              		.cfi_offset 8, -16
 519 0338 13040101 		addi	s0,sp,16
 520              		.cfi_def_cfa 8, 0
 113:src/kernel/KConsole.cpp ****     uint64 ch;
 521              		.loc 1 113 5
 114:src/kernel/KConsole.cpp ****     __asm__ volatile("mv %0, a1" : "=r"(ch));
 522              		.loc 1 114 5
 523              		.loc 1 114 45 is_stmt 0
 524              	#APP
 525              	# 114 "src/kernel/KConsole.cpp" 1
 115              	    putCharacterOutput((char)ch);
 526              		mv a0, a1
 527              	# 0 "" 2
 528              	.LVL31:
 529              		.loc 1 115 5 is_stmt 1
 530              		.loc 1 115 23 is_stmt 0
 531              	#NO_APP
 532 0340 1375F50F 		andi	a0,a0,0xff
 533              	.LVL32:
 534 0344 97000000 		call	_ZN8KConsole18putCharacterOutputEc
 534      E7800000 
GAS LISTING /tmp/ccZ7yWHp.s 			page 13


 535              	.LVL33:
 116:src/kernel/KConsole.cpp **** }
 536              		.loc 1 116 1
 537 034c 83308100 		ld	ra,8(sp)
 538              		.cfi_restore 1
 539 0350 03340100 		ld	s0,0(sp)
 540              		.cfi_restore 8
 541              		.cfi_def_cfa 2, 16
 542 0354 13010101 		addi	sp,sp,16
 543              		.cfi_def_cfa_offset 0
 544 0358 67800000 		jr	ra
 545              		.cfi_endproc
 546              	.LFE32:
 548              		.align	2
 549              		.globl	_ZN8KConsole11getcHandlerEv
 551              	_ZN8KConsole11getcHandlerEv:
 552              	.LFB33:
 117:src/kernel/KConsole.cpp **** 
 118:src/kernel/KConsole.cpp **** void KConsole::getcHandler()
 119:src/kernel/KConsole.cpp **** {
 553              		.loc 1 119 1 is_stmt 1
 554              		.cfi_startproc
 555 035c 130101FE 		addi	sp,sp,-32
 556              		.cfi_def_cfa_offset 32
 557 0360 233C1100 		sd	ra,24(sp)
 558 0364 23388100 		sd	s0,16(sp)
 559 0368 23349100 		sd	s1,8(sp)
 560              		.cfi_offset 1, -8
 561              		.cfi_offset 8, -16
 562              		.cfi_offset 9, -24
 563 036c 13040102 		addi	s0,sp,32
 564              		.cfi_def_cfa 8, 0
 120:src/kernel/KConsole.cpp ****     pendingGetc++;
 565              		.loc 1 120 5
 566              		.loc 1 120 16 is_stmt 0
 567 0370 17070000 		lla	a4,.LANCHOR0
 567      13070700 
 568 0378 83370703 		ld	a5,48(a4)
 569 037c 93871700 		addi	a5,a5,1
 570 0380 2338F702 		sd	a5,48(a4)
 121:src/kernel/KConsole.cpp ****     char ch;
 571              		.loc 1 121 5 is_stmt 1
 122:src/kernel/KConsole.cpp ****     ch = getCharacterInput();
 572              		.loc 1 122 5
 573              		.loc 1 122 27 is_stmt 0
 574 0384 97000000 		call	_ZN8KConsole17getCharacterInputEv
 574      E7800000 
 575              	.LVL34:
 576 038c 93040500 		mv	s1,a0
 577              	.LVL35:
 123:src/kernel/KConsole.cpp ****     if(ch!=0x01b)
 578              		.loc 1 123 5 is_stmt 1
 579 0390 9307B001 		li	a5,27
 580 0394 6316F502 		bne	a0,a5,.L43
 581              	.LVL36:
 582              	.L40:
 124:src/kernel/KConsole.cpp ****         putCharacterOutput(ch);
GAS LISTING /tmp/ccZ7yWHp.s 			page 14


 125:src/kernel/KConsole.cpp **** 
 126:src/kernel/KConsole.cpp ****     if(ch==13)
 583              		.loc 1 126 5
 584 0398 9307D000 		li	a5,13
 585 039c 6388F402 		beq	s1,a5,.L44
 586              	.L41:
 127:src/kernel/KConsole.cpp ****     {
 128:src/kernel/KConsole.cpp ****         putCharacterOutput(13);
 129:src/kernel/KConsole.cpp ****         putCharacterOutput(10);
 130:src/kernel/KConsole.cpp ****     }
 131:src/kernel/KConsole.cpp **** 
 132:src/kernel/KConsole.cpp ****     __asm__ volatile("mv a0, %0" : :"r"((uint64)ch));
 587              		.loc 1 132 5
 588              		.loc 1 132 53 is_stmt 0
 589              	#APP
 590              	# 132 "src/kernel/KConsole.cpp" 1
 133              	    Riscv::w_a0_sscratch();
 591              		mv a0, s1
 592              	# 0 "" 2
 593              		.loc 1 133 5 is_stmt 1
 594              		.loc 1 133 25 is_stmt 0
 595              	#NO_APP
 596 03a4 97000000 		call	_ZN5Riscv13w_a0_sscratchEv@plt
 596      E7800000 
 597              	.LVL37:
 134:src/kernel/KConsole.cpp **** }
 598              		.loc 1 134 1
 599 03ac 83308101 		ld	ra,24(sp)
 600              		.cfi_remember_state
 601              		.cfi_restore 1
 602 03b0 03340101 		ld	s0,16(sp)
 603              		.cfi_restore 8
 604              		.cfi_def_cfa 2, 32
 605 03b4 83348100 		ld	s1,8(sp)
 606              		.cfi_restore 9
 607 03b8 13010102 		addi	sp,sp,32
 608              		.cfi_def_cfa_offset 0
 609 03bc 67800000 		jr	ra
 610              	.LVL38:
 611              	.L43:
 612              		.cfi_restore_state
 124:src/kernel/KConsole.cpp ****         putCharacterOutput(ch);
 613              		.loc 1 124 9 is_stmt 1
 124:src/kernel/KConsole.cpp ****         putCharacterOutput(ch);
 614              		.loc 1 124 27 is_stmt 0
 615 03c0 97000000 		call	_ZN8KConsole18putCharacterOutputEc
 615      E7800000 
 616              	.LVL39:
 617 03c8 6FF01FFD 		j	.L40
 618              	.L44:
 128:src/kernel/KConsole.cpp ****         putCharacterOutput(10);
 619              		.loc 1 128 9 is_stmt 1
 128:src/kernel/KConsole.cpp ****         putCharacterOutput(10);
 620              		.loc 1 128 27 is_stmt 0
 621 03cc 1305D000 		li	a0,13
 622 03d0 97000000 		call	_ZN8KConsole18putCharacterOutputEc
 622      E7800000 
GAS LISTING /tmp/ccZ7yWHp.s 			page 15


 623              	.LVL40:
 129:src/kernel/KConsole.cpp ****     }
 624              		.loc 1 129 9 is_stmt 1
 129:src/kernel/KConsole.cpp ****     }
 625              		.loc 1 129 27 is_stmt 0
 626 03d8 1305A000 		li	a0,10
 627 03dc 97000000 		call	_ZN8KConsole18putCharacterOutputEc
 627      E7800000 
 628              	.LVL41:
 629 03e4 6FF0DFFB 		j	.L41
 630              		.cfi_endproc
 631              	.LFE33:
 633              		.align	2
 634              		.globl	_ZN8KConsole17outputBufferEmptyEv
 636              	_ZN8KConsole17outputBufferEmptyEv:
 637              	.LFB34:
 135:src/kernel/KConsole.cpp **** 
 136:src/kernel/KConsole.cpp **** bool KConsole::outputBufferEmpty()
 137:src/kernel/KConsole.cpp **** {
 638              		.loc 1 137 1 is_stmt 1
 639              		.cfi_startproc
 640 03e8 130101FF 		addi	sp,sp,-16
 641              		.cfi_def_cfa_offset 16
 642 03ec 23348100 		sd	s0,8(sp)
 643              		.cfi_offset 8, -8
 644 03f0 13040101 		addi	s0,sp,16
 645              		.cfi_def_cfa 8, 0
 138:src/kernel/KConsole.cpp ****     return pendingPutc == 0;
 646              		.loc 1 138 5
 139:src/kernel/KConsole.cpp **** }
 647              		.loc 1 139 1 is_stmt 0
 648 03f4 17050000 		ld	a0,.LANCHOR0+72
 648      03350500 
 649 03fc 13351500 		seqz	a0,a0
 650 0400 03348100 		ld	s0,8(sp)
 651              		.cfi_restore 8
 652              		.cfi_def_cfa 2, 16
 653 0404 13010101 		addi	sp,sp,16
 654              		.cfi_def_cfa_offset 0
 655 0408 67800000 		jr	ra
 656              		.cfi_endproc
 657              	.LFE34:
 659              		.align	2
 660              		.globl	_ZN8KConsole23sendCharactersToConsoleEPv
 662              	_ZN8KConsole23sendCharactersToConsoleEPv:
 663              	.LFB27:
  50:src/kernel/KConsole.cpp ****     while(true)
 664              		.loc 1 50 1 is_stmt 1
 665              		.cfi_startproc
 666              	.LVL42:
 667 040c 130101FE 		addi	sp,sp,-32
 668              		.cfi_def_cfa_offset 32
 669 0410 233C1100 		sd	ra,24(sp)
 670 0414 23388100 		sd	s0,16(sp)
 671              		.cfi_offset 1, -8
 672              		.cfi_offset 8, -16
 673 0418 13040102 		addi	s0,sp,32
GAS LISTING /tmp/ccZ7yWHp.s 			page 16


 674              		.cfi_def_cfa 8, 0
 675 041c 6F008001 		j	.L48
 676              	.LVL43:
 677              	.L53:
 678              	.LBB6:
  55:src/kernel/KConsole.cpp ****             }
 679              		.loc 1 55 17
  55:src/kernel/KConsole.cpp ****             }
 680              		.loc 1 55 35 is_stmt 0
 681 0420 97000000 		call	_Z18thread_exit_kernelv@plt
 681      E7800000 
 682              	.LVL44:
 683 0428 6F004003 		j	.L49
 684              	.LVL45:
 685              	.L50:
 686              	.LBB7:
  67:src/kernel/KConsole.cpp ****             }
 687              		.loc 1 67 17 is_stmt 1
  67:src/kernel/KConsole.cpp ****             }
 688              		.loc 1 67 39 is_stmt 0
 689 042c 97000000 		call	_Z22thread_dispatch_kernelv@plt
 689      E7800000 
 690              	.LVL46:
 691              	.L48:
 692              	.LBE7:
 693              	.LBE6:
  51:src/kernel/KConsole.cpp ****     {
 694              		.loc 1 51 5 is_stmt 1
 695              	.LBB10:
  53:src/kernel/KConsole.cpp ****             {
 696              		.loc 1 53 13
  53:src/kernel/KConsole.cpp ****             {
 697              		.loc 1 53 69 is_stmt 0
 698 0434 97070000 		la	a5,_ZN5Riscv12finishSystemE
 698      83B70700 
 699 043c 83C70700 		lbu	a5,0(a5)
 700 0440 638E0700 		beqz	a5,.L49
  53:src/kernel/KConsole.cpp ****             {
 701              		.loc 1 53 66 discriminator 1
 702 0444 97000000 		call	_ZN8KConsole17outputBufferEmptyEv
 702      E7800000 
 703              	.LVL47:
  53:src/kernel/KConsole.cpp ****             {
 704              		.loc 1 53 36 discriminator 1
 705 044c 63080500 		beqz	a0,.L49
  53:src/kernel/KConsole.cpp ****             {
 706              		.loc 1 53 84 discriminator 3
 707 0450 97070000 		ld	a5,.LANCHOR0+48
 707      83B70700 
  53:src/kernel/KConsole.cpp ****             {
 708              		.loc 1 53 69 discriminator 3
 709 0458 E38407FC 		beqz	a5,.L53
 710              	.L49:
  58:src/kernel/KConsole.cpp ****             if ((operation & STATUS_WRITE_MASK) && pendingPutc > 0)
 711              		.loc 1 58 13 is_stmt 1
  58:src/kernel/KConsole.cpp ****             if ((operation & STATUS_WRITE_MASK) && pendingPutc > 0)
 712              		.loc 1 58 32 is_stmt 0
GAS LISTING /tmp/ccZ7yWHp.s 			page 17


 713 045c 97070000 		la	a5,CONSOLE_STATUS
 713      83B70700 
 714 0464 83B70700 		ld	a5,0(a5)
 715 0468 83C70700 		lbu	a5,0(a5)
 716              	.LVL48:
  59:src/kernel/KConsole.cpp ****             {
 717              		.loc 1 59 13 is_stmt 1
 718              	.LBB9:
 719 046c 93F70702 		andi	a5,a5,32
 720              	.LVL49:
 721 0470 E38E07FA 		beqz	a5,.L50
  59:src/kernel/KConsole.cpp ****             {
 722              		.loc 1 59 64 is_stmt 0 discriminator 1
 723 0474 97070000 		ld	a5,.LANCHOR0+72
 723      83B70700 
  59:src/kernel/KConsole.cpp ****             {
 724              		.loc 1 59 49 discriminator 1
 725 047c E38807FA 		beqz	a5,.L50
 726              	.LBB8:
  61:src/kernel/KConsole.cpp ****                 pendingPutc--;
 727              		.loc 1 61 17 is_stmt 1
  61:src/kernel/KConsole.cpp ****                 pendingPutc--;
 728              		.loc 1 61 55 is_stmt 0
 729 0480 97000000 		call	_Z20sysCallGetCharOutputv@plt
 729      E7800000 
 730              	.LVL50:
  61:src/kernel/KConsole.cpp ****                 pendingPutc--;
 731              		.loc 1 61 56
 732 0488 A307A4FE 		sb	a0,-17(s0)
  62:src/kernel/KConsole.cpp ****                 *(uint8*)CONSOLE_RX_DATA = c;
 733              		.loc 1 62 17 is_stmt 1
  62:src/kernel/KConsole.cpp ****                 *(uint8*)CONSOLE_RX_DATA = c;
 734              		.loc 1 62 28 is_stmt 0
 735 048c 17070000 		lla	a4,.LANCHOR0
 735      13070700 
 736 0494 83378704 		ld	a5,72(a4)
 737 0498 9387F7FF 		addi	a5,a5,-1
 738 049c 2334F704 		sd	a5,72(a4)
  63:src/kernel/KConsole.cpp ****             }
 739              		.loc 1 63 17 is_stmt 1
 740 04a0 97070000 		la	a5,CONSOLE_RX_DATA
 740      83B70700 
 741 04a8 83B70700 		ld	a5,0(a5)
  63:src/kernel/KConsole.cpp ****             }
 742              		.loc 1 63 42 is_stmt 0
 743 04ac 0347F4FE 		lbu	a4,-17(s0)
 744 04b0 2380E700 		sb	a4,0(a5)
 745              	.LBE8:
  63:src/kernel/KConsole.cpp ****             }
 746              		.loc 1 63 45
 747 04b4 6FF01FF8 		j	.L48
 748              	.LBE9:
 749              	.LBE10:
 750              		.cfi_endproc
 751              	.LFE27:
 753              		.align	2
 754              		.globl	_ZN8KConsole14getCharHandlerEv
GAS LISTING /tmp/ccZ7yWHp.s 			page 18


 756              	_ZN8KConsole14getCharHandlerEv:
 757              	.LFB35:
 140:src/kernel/KConsole.cpp **** 
 141:src/kernel/KConsole.cpp **** void KConsole::getCharHandler()
 142:src/kernel/KConsole.cpp **** {
 758              		.loc 1 142 1 is_stmt 1
 759              		.cfi_startproc
 760 04b8 130101FF 		addi	sp,sp,-16
 761              		.cfi_def_cfa_offset 16
 762 04bc 23341100 		sd	ra,8(sp)
 763 04c0 23308100 		sd	s0,0(sp)
 764              		.cfi_offset 1, -8
 765              		.cfi_offset 8, -16
 766 04c4 13040101 		addi	s0,sp,16
 767              		.cfi_def_cfa 8, 0
 143:src/kernel/KConsole.cpp ****     char ch;
 768              		.loc 1 143 5
 144:src/kernel/KConsole.cpp ****     ch = getCharacterOutput();
 769              		.loc 1 144 5
 770              		.loc 1 144 28 is_stmt 0
 771 04c8 97000000 		call	_ZN8KConsole18getCharacterOutputEv
 771      E7800000 
 772              	.LVL51:
 145:src/kernel/KConsole.cpp ****     __asm__ volatile("mv a0, %0" : :"r"((uint64)ch));
 773              		.loc 1 145 5 is_stmt 1
 774              		.loc 1 145 53 is_stmt 0
 775              	#APP
 776              	# 145 "src/kernel/KConsole.cpp" 1
 146              	    Riscv::w_a0_sscratch();
 777              		mv a0, a0
 778              	# 0 "" 2
 779              		.loc 1 146 5 is_stmt 1
 780              		.loc 1 146 25 is_stmt 0
 781              	#NO_APP
 782 04d4 97000000 		call	_ZN5Riscv13w_a0_sscratchEv@plt
 782      E7800000 
 783              	.LVL52:
 147:src/kernel/KConsole.cpp **** }
 784              		.loc 1 147 1
 785 04dc 83308100 		ld	ra,8(sp)
 786              		.cfi_restore 1
 787 04e0 03340100 		ld	s0,0(sp)
 788              		.cfi_restore 8
 789              		.cfi_def_cfa 2, 16
 790 04e4 13010101 		addi	sp,sp,16
 791              		.cfi_def_cfa_offset 0
 792 04e8 67800000 		jr	ra
 793              		.cfi_endproc
 794              	.LFE35:
 796              		.align	2
 797              		.globl	_ZN8KConsole15trapPrintStringEPKc
 799              	_ZN8KConsole15trapPrintStringEPKc:
 800              	.LFB36:
 148:src/kernel/KConsole.cpp **** 
 149:src/kernel/KConsole.cpp **** void KConsole::trapPrintString(const char *string)
 150:src/kernel/KConsole.cpp **** {
 801              		.loc 1 150 1 is_stmt 1
GAS LISTING /tmp/ccZ7yWHp.s 			page 19


 802              		.cfi_startproc
 803              	.LVL53:
 804 04ec 130101FE 		addi	sp,sp,-32
 805              		.cfi_def_cfa_offset 32
 806 04f0 233C1100 		sd	ra,24(sp)
 807 04f4 23388100 		sd	s0,16(sp)
 808 04f8 23349100 		sd	s1,8(sp)
 809              		.cfi_offset 1, -8
 810              		.cfi_offset 8, -16
 811              		.cfi_offset 9, -24
 812 04fc 13040102 		addi	s0,sp,32
 813              		.cfi_def_cfa 8, 0
 814 0500 93040500 		mv	s1,a0
 815              	.LVL54:
 816              	.L58:
 151:src/kernel/KConsole.cpp ****     while (*string != '\0')
 817              		.loc 1 151 5
 818              		.loc 1 151 20
 819              		.loc 1 151 12 is_stmt 0
 820 0504 03C50400 		lbu	a0,0(s1)
 821              		.loc 1 151 20
 822 0508 630A0500 		beqz	a0,.L56
 152:src/kernel/KConsole.cpp ****     {
 153:src/kernel/KConsole.cpp ****         KConsole::putCharacterOutput(*string);
 823              		.loc 1 153 9 is_stmt 1
 824              		.loc 1 153 37 is_stmt 0
 825 050c 97000000 		call	_ZN8KConsole18putCharacterOutputEc
 825      E7800000 
 826              	.LVL55:
 154:src/kernel/KConsole.cpp ****         string++;
 827              		.loc 1 154 9 is_stmt 1
 828              		.loc 1 154 15 is_stmt 0
 829 0514 93841400 		addi	s1,s1,1
 830              	.LVL56:
 151:src/kernel/KConsole.cpp ****     while (*string != '\0')
 831              		.loc 1 151 5
 832 0518 6FF0DFFE 		j	.L58
 833              	.L56:
 155:src/kernel/KConsole.cpp ****     }
 156:src/kernel/KConsole.cpp **** }
 834              		.loc 1 156 1
 835 051c 83308101 		ld	ra,24(sp)
 836              		.cfi_restore 1
 837 0520 03340101 		ld	s0,16(sp)
 838              		.cfi_restore 8
 839              		.cfi_def_cfa 2, 32
 840 0524 83348100 		ld	s1,8(sp)
 841              		.cfi_restore 9
 842              	.LVL57:
 843 0528 13010102 		addi	sp,sp,32
 844              		.cfi_def_cfa_offset 0
 845 052c 67800000 		jr	ra
 846              		.cfi_endproc
 847              	.LFE36:
 849              		.section	.rodata.str1.8,"aMS",@progbits,1
 850              		.align	3
 851              	.LC0:
GAS LISTING /tmp/ccZ7yWHp.s 			page 20


 852 0000 30313233 		.string	"0123456789ABCDEF"
 852      34353637 
 852      38394142 
 852      43444546 
 852      00
 853              		.text
 854              		.align	2
 855              		.globl	_ZN8KConsole12trapPrintIntEmii
 857              	_ZN8KConsole12trapPrintIntEmii:
 858              	.LFB37:
 157:src/kernel/KConsole.cpp **** 
 158:src/kernel/KConsole.cpp **** void KConsole::trapPrintInt(size_t xx, int base, int sgn)
 159:src/kernel/KConsole.cpp **** {
 859              		.loc 1 159 1 is_stmt 1
 860              		.cfi_startproc
 861              	.LVL58:
 862 0530 130101FB 		addi	sp,sp,-80
 863              		.cfi_def_cfa_offset 80
 864 0534 23341104 		sd	ra,72(sp)
 865 0538 23308104 		sd	s0,64(sp)
 866 053c 233C9102 		sd	s1,56(sp)
 867              		.cfi_offset 1, -8
 868              		.cfi_offset 8, -16
 869              		.cfi_offset 9, -24
 870 0540 13040105 		addi	s0,sp,80
 871              		.cfi_def_cfa 8, 0
 160:src/kernel/KConsole.cpp ****     char digits[] = "0123456789ABCDEF";
 872              		.loc 1 160 5
 873              		.loc 1 160 10 is_stmt 0
 874 0544 97070000 		lla	a5,.LC0
 874      93870700 
 875 054c 03B70700 		ld	a4,0(a5)
 876 0550 2334E4FC 		sd	a4,-56(s0)
 877 0554 03B78700 		ld	a4,8(a5)
 878 0558 2338E4FC 		sd	a4,-48(s0)
 879 055c 83C70701 		lbu	a5,16(a5)
 880 0560 230CF4FC 		sb	a5,-40(s0)
 161:src/kernel/KConsole.cpp ****     char buf[16];
 881              		.loc 1 161 5 is_stmt 1
 162:src/kernel/KConsole.cpp ****     int i, neg;
 882              		.loc 1 162 5
 163:src/kernel/KConsole.cpp ****     size_t x;
 883              		.loc 1 163 5
 164:src/kernel/KConsole.cpp **** 
 165:src/kernel/KConsole.cpp ****     neg = 0;
 884              		.loc 1 165 5
 885              	.LVL59:
 166:src/kernel/KConsole.cpp ****     if(sgn && xx < 0) {
 886              		.loc 1 166 5
 167:src/kernel/KConsole.cpp ****         neg = 1;
 168:src/kernel/KConsole.cpp ****         x = -xx;
 169:src/kernel/KConsole.cpp ****     } else {
 170:src/kernel/KConsole.cpp ****         x = xx;
 887              		.loc 1 170 9
 171:src/kernel/KConsole.cpp ****     }
 172:src/kernel/KConsole.cpp **** 
 173:src/kernel/KConsole.cpp ****     i = 0;
GAS LISTING /tmp/ccZ7yWHp.s 			page 21


 888              		.loc 1 173 5
 889              		.loc 1 173 7 is_stmt 0
 890 0564 93040000 		li	s1,0
 891              	.LVL60:
 892              	.L61:
 174:src/kernel/KConsole.cpp ****     do {
 893              		.loc 1 174 5 is_stmt 1
 175:src/kernel/KConsole.cpp ****         buf[i++] = digits[x % base];
 894              		.loc 1 175 9
 895              		.loc 1 175 29 is_stmt 0
 896 0568 3377B502 		remu	a4,a0,a1
 897              	.LVL61:
 898              		.loc 1 175 35
 899 056c 930604FE 		addi	a3,s0,-32
 900 0570 3387E600 		add	a4,a3,a4
 901 0574 034787FE 		lbu	a4,-24(a4)
 902              		.loc 1 175 18
 903 0578 B3879600 		add	a5,a3,s1
 904 057c 9B841400 		addiw	s1,s1,1
 905              	.LVL62:
 906 0580 238CE7FC 		sb	a4,-40(a5)
 176:src/kernel/KConsole.cpp ****     }while((x /= base) != 0);
 907              		.loc 1 176 24 is_stmt 1
 908 0584 93070500 		mv	a5,a0
 909              		.loc 1 176 15 is_stmt 0
 910 0588 3355B502 		divu	a0,a0,a1
 911              	.LVL63:
 912              		.loc 1 176 24
 913 058c E3FEB7FC 		bleu	a1,a5,.L61
 914              	.LVL64:
 915              	.L63:
 177:src/kernel/KConsole.cpp ****     if(neg)
 178:src/kernel/KConsole.cpp ****         buf[i++] = '-';
 179:src/kernel/KConsole.cpp **** 
 180:src/kernel/KConsole.cpp ****     while(--i >= 0)
 916              		.loc 1 180 5 is_stmt 1
 917              		.loc 1 180 15
 918 0590 9B84F4FF 		addiw	s1,s1,-1
 919              	.LVL65:
 920 0594 63CE0400 		bltz	s1,.L60
 181:src/kernel/KConsole.cpp ****         KConsole::putCharacterOutput(buf[i]);
 921              		.loc 1 181 9
 922              		.loc 1 181 37 is_stmt 0
 923 0598 930704FE 		addi	a5,s0,-32
 924 059c B3879700 		add	a5,a5,s1
 925 05a0 03C587FD 		lbu	a0,-40(a5)
 926 05a4 97000000 		call	_ZN8KConsole18putCharacterOutputEc
 926      E7800000 
 927              	.LVL66:
 928 05ac 6FF05FFE 		j	.L63
 929              	.L60:
 182:src/kernel/KConsole.cpp **** }
 930              		.loc 1 182 1
 931 05b0 83308104 		ld	ra,72(sp)
 932              		.cfi_restore 1
 933 05b4 03340104 		ld	s0,64(sp)
 934              		.cfi_restore 8
GAS LISTING /tmp/ccZ7yWHp.s 			page 22


 935              		.cfi_def_cfa 2, 80
 936 05b8 83348103 		ld	s1,56(sp)
 937              		.cfi_restore 9
 938 05bc 13010105 		addi	sp,sp,80
 939              		.cfi_def_cfa_offset 0
 940 05c0 67800000 		jr	ra
 941              		.cfi_endproc
 942              	.LFE37:
 944              		.section	.rodata.str1.8
 945 0011 00000000 		.align	3
 945      000000
 946              	.LC1:
 947 0018 0A00     		.string	"\n"
 948              		.text
 949              		.align	2
 950              		.globl	_ZN8KConsole18trapPrintStringIntEPKcmi
 952              	_ZN8KConsole18trapPrintStringIntEPKcmi:
 953              	.LFB38:
 183:src/kernel/KConsole.cpp **** 
 184:src/kernel/KConsole.cpp **** void KConsole::trapPrintStringInt(const char *string, size_t xx, int base)
 185:src/kernel/KConsole.cpp **** {
 954              		.loc 1 185 1 is_stmt 1
 955              		.cfi_startproc
 956              	.LVL67:
 957 05c4 130101FE 		addi	sp,sp,-32
 958              		.cfi_def_cfa_offset 32
 959 05c8 233C1100 		sd	ra,24(sp)
 960 05cc 23388100 		sd	s0,16(sp)
 961 05d0 23349100 		sd	s1,8(sp)
 962 05d4 23302101 		sd	s2,0(sp)
 963              		.cfi_offset 1, -8
 964              		.cfi_offset 8, -16
 965              		.cfi_offset 9, -24
 966              		.cfi_offset 18, -32
 967 05d8 13040102 		addi	s0,sp,32
 968              		.cfi_def_cfa 8, 0
 969 05dc 93840500 		mv	s1,a1
 970 05e0 13090600 		mv	s2,a2
 186:src/kernel/KConsole.cpp ****     trapPrintString(string);
 971              		.loc 1 186 5
 972              		.loc 1 186 20 is_stmt 0
 973 05e4 97000000 		call	_ZN8KConsole15trapPrintStringEPKc
 973      E7800000 
 974              	.LVL68:
 187:src/kernel/KConsole.cpp ****     trapPrintInt(xx,base);
 975              		.loc 1 187 5 is_stmt 1
 976              		.loc 1 187 17 is_stmt 0
 977 05ec 13060000 		li	a2,0
 978 05f0 93050900 		mv	a1,s2
 979 05f4 13850400 		mv	a0,s1
 980 05f8 97000000 		call	_ZN8KConsole12trapPrintIntEmii
 980      E7800000 
 981              	.LVL69:
 188:src/kernel/KConsole.cpp ****     trapPrintString("\n");
 982              		.loc 1 188 5 is_stmt 1
 983              		.loc 1 188 20 is_stmt 0
 984 0600 17050000 		lla	a0,.LC1
GAS LISTING /tmp/ccZ7yWHp.s 			page 23


 984      13050500 
 985 0608 97000000 		call	_ZN8KConsole15trapPrintStringEPKc
 985      E7800000 
 986              	.LVL70:
 189:src/kernel/KConsole.cpp **** }
 987              		.loc 1 189 1
 988 0610 83308101 		ld	ra,24(sp)
 989              		.cfi_restore 1
 990 0614 03340101 		ld	s0,16(sp)
 991              		.cfi_restore 8
 992              		.cfi_def_cfa 2, 32
 993 0618 83348100 		ld	s1,8(sp)
 994              		.cfi_restore 9
 995              	.LVL71:
 996 061c 03390100 		ld	s2,0(sp)
 997              		.cfi_restore 18
 998 0620 13010102 		addi	sp,sp,32
 999              		.cfi_def_cfa_offset 0
 1000 0624 67800000 		jr	ra
 1001              		.cfi_endproc
 1002              	.LFE38:
 1004              		.globl	_ZN8KConsole8finishedE
 1005              		.globl	_ZN8KConsole11pendingPutcE
 1006              		.globl	_ZN8KConsole12outputBufferE
 1007              		.globl	_ZN8KConsole11inputBufferE
 1008              		.globl	_ZN8KConsole11pendingGetcE
 1009              		.globl	_ZN8KConsole18hasCharactersInputE
 1010              		.globl	_ZN8KConsole19hasCharactersOutputE
 1011              		.globl	_ZN8KConsole10outputTailE
 1012              		.globl	_ZN8KConsole10outputHeadE
 1013              		.globl	_ZN8KConsole9inputTailE
 1014              		.globl	_ZN8KConsole9inputHeadE
 1015              		.bss
 1016              		.align	3
 1017              		.set	.LANCHOR0,. + 0
 1020              	_ZN8KConsole18hasCharactersInputE:
 1021 0000 00000000 		.zero	8
 1021      00000000 
 1024              	_ZN8KConsole19hasCharactersOutputE:
 1025 0008 00000000 		.zero	8
 1025      00000000 
 1028              	_ZN8KConsole11inputBufferE:
 1029 0010 00000000 		.zero	8
 1029      00000000 
 1032              	_ZN8KConsole12outputBufferE:
 1033 0018 00000000 		.zero	8
 1033      00000000 
 1036              	_ZN8KConsole9inputTailE:
 1037 0020 00000000 		.zero	8
 1037      00000000 
 1040              	_ZN8KConsole9inputHeadE:
 1041 0028 00000000 		.zero	8
 1041      00000000 
 1044              	_ZN8KConsole11pendingGetcE:
 1045 0030 00000000 		.zero	8
 1045      00000000 
 1048              	_ZN8KConsole10outputTailE:
GAS LISTING /tmp/ccZ7yWHp.s 			page 24


 1049 0038 00000000 		.zero	8
 1049      00000000 
 1052              	_ZN8KConsole10outputHeadE:
 1053 0040 00000000 		.zero	8
 1053      00000000 
 1056              	_ZN8KConsole11pendingPutcE:
 1057 0048 00000000 		.zero	8
 1057      00000000 
 1060              	_ZN8KConsole8finishedE:
 1061 0050 00       		.zero	1
 1062              		.text
 1063              	.Letext0:
 1064              		.file 2 "src/kernel/../../h/../lib/hw.h"
 1065              		.file 3 "src/kernel/../../h/PCB.hpp"
 1066              		.file 4 "src/kernel/../../h/KSemaphore.hpp"
 1067              		.file 5 "src/kernel/../../h/KConsole.hpp"
 1068              		.file 6 "src/kernel/../../h/slabAllocator.hpp"
 1069              		.file 7 "src/kernel/../../h/Riscv.hpp"
 1070              		.file 8 "src/kernel/../../h/syscall_c_kernel.hpp"
 5102              		.align	3
 5105              	DW.ref.__gxx_personality_v0:
 5106 0000 00000000 		.dword	__gxx_personality_v0
 5106      00000000 
 5107              		.ident	"GCC: (Ubuntu 9.4.0-1ubuntu1~20.04) 9.4.0"
 5108              		.section	.note.GNU-stack,"",@progbits
GAS LISTING /tmp/ccZ7yWHp.s 			page 25


DEFINED SYMBOLS
                            *ABS*:0000000000000000 KConsole.cpp
     /tmp/ccZ7yWHp.s:9      .text:0000000000000000 _ZN8KConsole10initializeEv
     /tmp/ccZ7yWHp.s:13     .text:0000000000000000 .L0 
     /tmp/ccZ7yWHp.s:5105   .data.rel.local.DW.ref.__gxx_personality_v0:0000000000000000 DW.ref.__gxx_personality_v0
     /tmp/ccZ7yWHp.s:16     .text:0000000000000000 .L0 
     /tmp/ccZ7yWHp.s:17     .text:0000000000000004 .L0 
     /tmp/ccZ7yWHp.s:22     .text:0000000000000014 .L0 
     /tmp/ccZ7yWHp.s:23     .text:0000000000000014 .L0 
     /tmp/ccZ7yWHp.s:24     .text:0000000000000014 .L0 
     /tmp/ccZ7yWHp.s:25     .text:0000000000000014 .L0 
     /tmp/ccZ7yWHp.s:27     .text:0000000000000018 .L0 
     /tmp/ccZ7yWHp.s:29     .text:0000000000000018 .L0 
     /tmp/ccZ7yWHp.s:30     .text:0000000000000018 .L0 
     /tmp/ccZ7yWHp.s:38     .text:000000000000002c .L0 
     /tmp/ccZ7yWHp.s:45     .text:0000000000000038 .L0 
     /tmp/ccZ7yWHp.s:47     .text:0000000000000040 .L0 
     /tmp/ccZ7yWHp.s:48     .text:0000000000000040 .L0 
     /tmp/ccZ7yWHp.s:56     .text:0000000000000054 .L0 
     /tmp/ccZ7yWHp.s:63     .text:0000000000000060 .L0 
     /tmp/ccZ7yWHp.s:66     .text:000000000000006c .L0 
     /tmp/ccZ7yWHp.s:67     .text:000000000000006c .L0 
     /tmp/ccZ7yWHp.s:72     .text:0000000000000078 .L0 
     /tmp/ccZ7yWHp.s:74     .text:000000000000007c .L0 
     /tmp/ccZ7yWHp.s:75     .text:000000000000007c .L0 
     /tmp/ccZ7yWHp.s:80     .text:0000000000000088 .L0 
     /tmp/ccZ7yWHp.s:82     .text:000000000000008c .L0 
     /tmp/ccZ7yWHp.s:83     .text:0000000000000090 .L0 
     /tmp/ccZ7yWHp.s:84     .text:0000000000000090 .L0 
     /tmp/ccZ7yWHp.s:86     .text:0000000000000094 .L0 
     /tmp/ccZ7yWHp.s:87     .text:0000000000000094 .L0 
     /tmp/ccZ7yWHp.s:89     .text:0000000000000098 .L0 
     /tmp/ccZ7yWHp.s:91     .text:000000000000009c .L0 
     /tmp/ccZ7yWHp.s:93     .text:00000000000000a0 .L0 
     /tmp/ccZ7yWHp.s:96     .text:00000000000000a4 .L0 
     /tmp/ccZ7yWHp.s:99     .text:00000000000000a8 .L0 
     /tmp/ccZ7yWHp.s:110    .text:00000000000000c4 .L0 
     /tmp/ccZ7yWHp.s:118    .text:00000000000000dc .L0 
     /tmp/ccZ7yWHp.s:160    .text:00000000000000dc _ZN8KConsole17putCharacterInputEc
     /tmp/ccZ7yWHp.s:163    .text:00000000000000dc .L0 
     /tmp/ccZ7yWHp.s:165    .text:00000000000000dc .L0 
     /tmp/ccZ7yWHp.s:166    .text:00000000000000dc .L0 
     /tmp/ccZ7yWHp.s:167    .text:00000000000000dc .L0 
     /tmp/ccZ7yWHp.s:171    .text:00000000000000ec .L0 
     /tmp/ccZ7yWHp.s:175    .text:00000000000000f8 .L0 
     /tmp/ccZ7yWHp.s:177    .text:00000000000000fc .L0 
     /tmp/ccZ7yWHp.s:179    .text:0000000000000100 .L0 
     /tmp/ccZ7yWHp.s:180    .text:0000000000000104 .L0 
     /tmp/ccZ7yWHp.s:183    .text:000000000000010c .L0 
     /tmp/ccZ7yWHp.s:184    .text:000000000000010c .L0 
     /tmp/ccZ7yWHp.s:186    .text:0000000000000110 .L0 
     /tmp/ccZ7yWHp.s:188    .text:0000000000000110 .L0 
     /tmp/ccZ7yWHp.s:189    .text:0000000000000110 .L0 
     /tmp/ccZ7yWHp.s:193    .text:000000000000011c .L0 
     /tmp/ccZ7yWHp.s:195    .text:0000000000000120 .L0 
     /tmp/ccZ7yWHp.s:196    .text:0000000000000120 .L0 
     /tmp/ccZ7yWHp.s:199    .text:0000000000000128 .L0 
GAS LISTING /tmp/ccZ7yWHp.s 			page 26


     /tmp/ccZ7yWHp.s:203    .text:0000000000000134 .L0 
     /tmp/ccZ7yWHp.s:205    .text:0000000000000138 .L0 
     /tmp/ccZ7yWHp.s:206    .text:0000000000000138 .L0 
     /tmp/ccZ7yWHp.s:211    .text:0000000000000144 .L0 
     /tmp/ccZ7yWHp.s:212    .text:0000000000000148 .L0 
     /tmp/ccZ7yWHp.s:214    .text:000000000000014c .L0 
     /tmp/ccZ7yWHp.s:215    .text:000000000000014c .L0 
     /tmp/ccZ7yWHp.s:217    .text:0000000000000150 .L0 
     /tmp/ccZ7yWHp.s:222    .text:0000000000000158 .L0 
     /tmp/ccZ7yWHp.s:228    .text:0000000000000158 _ZN8KConsole24getCharactersFromConsoleEv
     /tmp/ccZ7yWHp.s:231    .text:0000000000000158 .L0 
     /tmp/ccZ7yWHp.s:232    .text:0000000000000158 .L0 
     /tmp/ccZ7yWHp.s:233    .text:0000000000000158 .L0 
     /tmp/ccZ7yWHp.s:234    .text:0000000000000158 .L0 
     /tmp/ccZ7yWHp.s:240    .text:0000000000000168 .L0 
     /tmp/ccZ7yWHp.s:245    .text:0000000000000170 .L0 
     /tmp/ccZ7yWHp.s:246    .text:0000000000000170 .L0 
     /tmp/ccZ7yWHp.s:249    .text:000000000000017c .L0 
     /tmp/ccZ7yWHp.s:252    .text:0000000000000180 .L0 
     /tmp/ccZ7yWHp.s:253    .text:0000000000000180 .L0 
     /tmp/ccZ7yWHp.s:255    .text:0000000000000188 .L0 
     /tmp/ccZ7yWHp.s:264    .text:0000000000000190 .L0 
     /tmp/ccZ7yWHp.s:265    .text:0000000000000194 .L0 
     /tmp/ccZ7yWHp.s:269    .text:000000000000019c .L0 
     /tmp/ccZ7yWHp.s:270    .text:000000000000019c .L0 
     /tmp/ccZ7yWHp.s:272    .text:00000000000001a0 .L0 
     /tmp/ccZ7yWHp.s:276    .text:00000000000001a0 .L0 
     /tmp/ccZ7yWHp.s:277    .text:00000000000001a0 .L0 
     /tmp/ccZ7yWHp.s:280    .text:00000000000001ac .L0 
     /tmp/ccZ7yWHp.s:281    .text:00000000000001ac .L0 
     /tmp/ccZ7yWHp.s:286    .text:00000000000001b4 .L0 
     /tmp/ccZ7yWHp.s:287    .text:00000000000001b8 .L0 
     /tmp/ccZ7yWHp.s:289    .text:00000000000001bc .L0 
     /tmp/ccZ7yWHp.s:290    .text:00000000000001bc .L0 
     /tmp/ccZ7yWHp.s:292    .text:00000000000001c0 .L0 
     /tmp/ccZ7yWHp.s:294    .text:00000000000001c4 .L0 
     /tmp/ccZ7yWHp.s:300    .text:00000000000001c4 _ZN8KConsole17getCharacterInputEv
     /tmp/ccZ7yWHp.s:303    .text:00000000000001c4 .L0 
     /tmp/ccZ7yWHp.s:304    .text:00000000000001c4 .L0 
     /tmp/ccZ7yWHp.s:305    .text:00000000000001c8 .L0 
     /tmp/ccZ7yWHp.s:309    .text:00000000000001d4 .L0 
     /tmp/ccZ7yWHp.s:310    .text:00000000000001d4 .L0 
     /tmp/ccZ7yWHp.s:311    .text:00000000000001d4 .L0 
     /tmp/ccZ7yWHp.s:313    .text:00000000000001d8 .L0 
     /tmp/ccZ7yWHp.s:315    .text:00000000000001d8 .L0 
     /tmp/ccZ7yWHp.s:316    .text:00000000000001d8 .L0 
     /tmp/ccZ7yWHp.s:321    .text:00000000000001ec .L0 
     /tmp/ccZ7yWHp.s:322    .text:00000000000001ec .L0 
     /tmp/ccZ7yWHp.s:325    .text:00000000000001f4 .L0 
     /tmp/ccZ7yWHp.s:327    .text:00000000000001f8 .L0 
     /tmp/ccZ7yWHp.s:328    .text:00000000000001f8 .L0 
     /tmp/ccZ7yWHp.s:331    .text:0000000000000200 .L0 
     /tmp/ccZ7yWHp.s:334    .text:0000000000000204 .L0 
     /tmp/ccZ7yWHp.s:335    .text:0000000000000204 .L0 
     /tmp/ccZ7yWHp.s:337    .text:0000000000000208 .L0 
     /tmp/ccZ7yWHp.s:341    .text:0000000000000214 .L0 
     /tmp/ccZ7yWHp.s:345    .text:0000000000000218 .L0 
GAS LISTING /tmp/ccZ7yWHp.s 			page 27


     /tmp/ccZ7yWHp.s:346    .text:0000000000000218 .L0 
     /tmp/ccZ7yWHp.s:347    .text:000000000000021c .L0 
     /tmp/ccZ7yWHp.s:348    .text:000000000000021c .L0 
     /tmp/ccZ7yWHp.s:350    .text:0000000000000220 .L0 
     /tmp/ccZ7yWHp.s:351    .text:0000000000000220 .L0 
     /tmp/ccZ7yWHp.s:353    .text:0000000000000224 .L0 
     /tmp/ccZ7yWHp.s:355    .text:0000000000000228 .L0 
     /tmp/ccZ7yWHp.s:358    .text:000000000000022c .L0 
     /tmp/ccZ7yWHp.s:360    .text:000000000000022c .L0 
     /tmp/ccZ7yWHp.s:362    .text:0000000000000234 .L0 
     /tmp/ccZ7yWHp.s:368    .text:0000000000000234 _ZN8KConsole18putCharacterOutputEc
     /tmp/ccZ7yWHp.s:371    .text:0000000000000234 .L0 
     /tmp/ccZ7yWHp.s:373    .text:0000000000000234 .L0 
     /tmp/ccZ7yWHp.s:374    .text:0000000000000234 .L0 
     /tmp/ccZ7yWHp.s:375    .text:0000000000000234 .L0 
     /tmp/ccZ7yWHp.s:379    .text:0000000000000244 .L0 
     /tmp/ccZ7yWHp.s:383    .text:0000000000000250 .L0 
     /tmp/ccZ7yWHp.s:385    .text:0000000000000254 .L0 
     /tmp/ccZ7yWHp.s:387    .text:0000000000000258 .L0 
     /tmp/ccZ7yWHp.s:388    .text:000000000000025c .L0 
     /tmp/ccZ7yWHp.s:391    .text:0000000000000264 .L0 
     /tmp/ccZ7yWHp.s:392    .text:0000000000000264 .L0 
     /tmp/ccZ7yWHp.s:394    .text:0000000000000268 .L0 
     /tmp/ccZ7yWHp.s:396    .text:0000000000000268 .L0 
     /tmp/ccZ7yWHp.s:397    .text:0000000000000268 .L0 
     /tmp/ccZ7yWHp.s:402    .text:0000000000000278 .L0 
     /tmp/ccZ7yWHp.s:403    .text:0000000000000278 .L0 
     /tmp/ccZ7yWHp.s:406    .text:0000000000000280 .L0 
     /tmp/ccZ7yWHp.s:408    .text:0000000000000284 .L0 
     /tmp/ccZ7yWHp.s:409    .text:0000000000000284 .L0 
     /tmp/ccZ7yWHp.s:412    .text:000000000000028c .L0 
     /tmp/ccZ7yWHp.s:416    .text:0000000000000298 .L0 
     /tmp/ccZ7yWHp.s:418    .text:000000000000029c .L0 
     /tmp/ccZ7yWHp.s:419    .text:000000000000029c .L0 
     /tmp/ccZ7yWHp.s:424    .text:00000000000002a8 .L0 
     /tmp/ccZ7yWHp.s:425    .text:00000000000002ac .L0 
     /tmp/ccZ7yWHp.s:427    .text:00000000000002b0 .L0 
     /tmp/ccZ7yWHp.s:428    .text:00000000000002b0 .L0 
     /tmp/ccZ7yWHp.s:430    .text:00000000000002b4 .L0 
     /tmp/ccZ7yWHp.s:435    .text:00000000000002bc .L0 
     /tmp/ccZ7yWHp.s:441    .text:00000000000002bc _ZN8KConsole18getCharacterOutputEv
     /tmp/ccZ7yWHp.s:444    .text:00000000000002bc .L0 
     /tmp/ccZ7yWHp.s:445    .text:00000000000002bc .L0 
     /tmp/ccZ7yWHp.s:446    .text:00000000000002c0 .L0 
     /tmp/ccZ7yWHp.s:450    .text:00000000000002cc .L0 
     /tmp/ccZ7yWHp.s:451    .text:00000000000002cc .L0 
     /tmp/ccZ7yWHp.s:452    .text:00000000000002cc .L0 
     /tmp/ccZ7yWHp.s:454    .text:00000000000002d0 .L0 
     /tmp/ccZ7yWHp.s:456    .text:00000000000002d0 .L0 
     /tmp/ccZ7yWHp.s:457    .text:00000000000002d0 .L0 
     /tmp/ccZ7yWHp.s:462    .text:00000000000002e4 .L0 
     /tmp/ccZ7yWHp.s:463    .text:00000000000002e4 .L0 
     /tmp/ccZ7yWHp.s:466    .text:00000000000002ec .L0 
     /tmp/ccZ7yWHp.s:468    .text:00000000000002f0 .L0 
     /tmp/ccZ7yWHp.s:469    .text:00000000000002f0 .L0 
     /tmp/ccZ7yWHp.s:472    .text:00000000000002f8 .L0 
     /tmp/ccZ7yWHp.s:475    .text:00000000000002fc .L0 
GAS LISTING /tmp/ccZ7yWHp.s 			page 28


     /tmp/ccZ7yWHp.s:476    .text:00000000000002fc .L0 
     /tmp/ccZ7yWHp.s:478    .text:0000000000000300 .L0 
     /tmp/ccZ7yWHp.s:482    .text:000000000000030c .L0 
     /tmp/ccZ7yWHp.s:486    .text:0000000000000310 .L0 
     /tmp/ccZ7yWHp.s:487    .text:0000000000000310 .L0 
     /tmp/ccZ7yWHp.s:488    .text:0000000000000314 .L0 
     /tmp/ccZ7yWHp.s:489    .text:0000000000000314 .L0 
     /tmp/ccZ7yWHp.s:491    .text:0000000000000318 .L0 
     /tmp/ccZ7yWHp.s:492    .text:0000000000000318 .L0 
     /tmp/ccZ7yWHp.s:494    .text:000000000000031c .L0 
     /tmp/ccZ7yWHp.s:496    .text:0000000000000320 .L0 
     /tmp/ccZ7yWHp.s:499    .text:0000000000000324 .L0 
     /tmp/ccZ7yWHp.s:501    .text:0000000000000324 .L0 
     /tmp/ccZ7yWHp.s:503    .text:000000000000032c .L0 
     /tmp/ccZ7yWHp.s:509    .text:000000000000032c _ZN8KConsole11putcHandlerEv
     /tmp/ccZ7yWHp.s:512    .text:000000000000032c .L0 
     /tmp/ccZ7yWHp.s:513    .text:000000000000032c .L0 
     /tmp/ccZ7yWHp.s:514    .text:0000000000000330 .L0 
     /tmp/ccZ7yWHp.s:517    .text:0000000000000338 .L0 
     /tmp/ccZ7yWHp.s:518    .text:0000000000000338 .L0 
     /tmp/ccZ7yWHp.s:520    .text:000000000000033c .L0 
     /tmp/ccZ7yWHp.s:522    .text:000000000000033c .L0 
     /tmp/ccZ7yWHp.s:523    .text:000000000000033c .L0 
src/kernel/KConsole.cpp:114    .text:000000000000033c .L0 
     /tmp/ccZ7yWHp.s:530    .text:0000000000000340 .L0 
     /tmp/ccZ7yWHp.s:532    .text:0000000000000340 .L0 
     /tmp/ccZ7yWHp.s:537    .text:000000000000034c .L0 
     /tmp/ccZ7yWHp.s:538    .text:0000000000000350 .L0 
     /tmp/ccZ7yWHp.s:540    .text:0000000000000354 .L0 
     /tmp/ccZ7yWHp.s:541    .text:0000000000000354 .L0 
     /tmp/ccZ7yWHp.s:543    .text:0000000000000358 .L0 
     /tmp/ccZ7yWHp.s:545    .text:000000000000035c .L0 
     /tmp/ccZ7yWHp.s:551    .text:000000000000035c _ZN8KConsole11getcHandlerEv
     /tmp/ccZ7yWHp.s:554    .text:000000000000035c .L0 
     /tmp/ccZ7yWHp.s:555    .text:000000000000035c .L0 
     /tmp/ccZ7yWHp.s:556    .text:0000000000000360 .L0 
     /tmp/ccZ7yWHp.s:560    .text:000000000000036c .L0 
     /tmp/ccZ7yWHp.s:561    .text:000000000000036c .L0 
     /tmp/ccZ7yWHp.s:562    .text:000000000000036c .L0 
     /tmp/ccZ7yWHp.s:564    .text:0000000000000370 .L0 
     /tmp/ccZ7yWHp.s:566    .text:0000000000000370 .L0 
     /tmp/ccZ7yWHp.s:567    .text:0000000000000370 .L0 
     /tmp/ccZ7yWHp.s:572    .text:0000000000000384 .L0 
     /tmp/ccZ7yWHp.s:573    .text:0000000000000384 .L0 
     /tmp/ccZ7yWHp.s:574    .text:0000000000000384 .L0 
     /tmp/ccZ7yWHp.s:579    .text:0000000000000390 .L0 
     /tmp/ccZ7yWHp.s:584    .text:0000000000000398 .L0 
     /tmp/ccZ7yWHp.s:588    .text:00000000000003a0 .L0 
src/kernel/KConsole.cpp:132    .text:00000000000003a0 .L0 
     /tmp/ccZ7yWHp.s:594    .text:00000000000003a4 .L0 
     /tmp/ccZ7yWHp.s:596    .text:00000000000003a4 .L0 
     /tmp/ccZ7yWHp.s:599    .text:00000000000003ac .L0 
     /tmp/ccZ7yWHp.s:600    .text:00000000000003b0 .L0 
     /tmp/ccZ7yWHp.s:601    .text:00000000000003b0 .L0 
     /tmp/ccZ7yWHp.s:603    .text:00000000000003b4 .L0 
     /tmp/ccZ7yWHp.s:604    .text:00000000000003b4 .L0 
     /tmp/ccZ7yWHp.s:606    .text:00000000000003b8 .L0 
GAS LISTING /tmp/ccZ7yWHp.s 			page 29


     /tmp/ccZ7yWHp.s:608    .text:00000000000003bc .L0 
     /tmp/ccZ7yWHp.s:612    .text:00000000000003c0 .L0 
     /tmp/ccZ7yWHp.s:614    .text:00000000000003c0 .L0 
     /tmp/ccZ7yWHp.s:615    .text:00000000000003c0 .L0 
     /tmp/ccZ7yWHp.s:620    .text:00000000000003cc .L0 
     /tmp/ccZ7yWHp.s:621    .text:00000000000003cc .L0 
     /tmp/ccZ7yWHp.s:625    .text:00000000000003d8 .L0 
     /tmp/ccZ7yWHp.s:626    .text:00000000000003d8 .L0 
     /tmp/ccZ7yWHp.s:630    .text:00000000000003e8 .L0 
     /tmp/ccZ7yWHp.s:636    .text:00000000000003e8 _ZN8KConsole17outputBufferEmptyEv
     /tmp/ccZ7yWHp.s:639    .text:00000000000003e8 .L0 
     /tmp/ccZ7yWHp.s:640    .text:00000000000003e8 .L0 
     /tmp/ccZ7yWHp.s:641    .text:00000000000003ec .L0 
     /tmp/ccZ7yWHp.s:643    .text:00000000000003f0 .L0 
     /tmp/ccZ7yWHp.s:645    .text:00000000000003f4 .L0 
     /tmp/ccZ7yWHp.s:647    .text:00000000000003f4 .L0 
     /tmp/ccZ7yWHp.s:648    .text:00000000000003f4 .L0 
     /tmp/ccZ7yWHp.s:651    .text:0000000000000404 .L0 
     /tmp/ccZ7yWHp.s:652    .text:0000000000000404 .L0 
     /tmp/ccZ7yWHp.s:654    .text:0000000000000408 .L0 
     /tmp/ccZ7yWHp.s:656    .text:000000000000040c .L0 
     /tmp/ccZ7yWHp.s:662    .text:000000000000040c _ZN8KConsole23sendCharactersToConsoleEPv
     /tmp/ccZ7yWHp.s:665    .text:000000000000040c .L0 
     /tmp/ccZ7yWHp.s:667    .text:000000000000040c .L0 
     /tmp/ccZ7yWHp.s:668    .text:0000000000000410 .L0 
     /tmp/ccZ7yWHp.s:671    .text:0000000000000418 .L0 
     /tmp/ccZ7yWHp.s:672    .text:0000000000000418 .L0 
     /tmp/ccZ7yWHp.s:674    .text:000000000000041c .L0 
     /tmp/ccZ7yWHp.s:680    .text:0000000000000420 .L0 
     /tmp/ccZ7yWHp.s:681    .text:0000000000000420 .L0 
     /tmp/ccZ7yWHp.s:688    .text:000000000000042c .L0 
     /tmp/ccZ7yWHp.s:689    .text:000000000000042c .L0 
     /tmp/ccZ7yWHp.s:696    .text:0000000000000434 .L0 
     /tmp/ccZ7yWHp.s:697    .text:0000000000000434 .L0 
     /tmp/ccZ7yWHp.s:698    .text:0000000000000434 .L0 
     /tmp/ccZ7yWHp.s:702    .text:0000000000000444 .L0 
     /tmp/ccZ7yWHp.s:705    .text:000000000000044c .L0 
     /tmp/ccZ7yWHp.s:707    .text:0000000000000450 .L0 
     /tmp/ccZ7yWHp.s:709    .text:0000000000000458 .L0 
     /tmp/ccZ7yWHp.s:712    .text:000000000000045c .L0 
     /tmp/ccZ7yWHp.s:713    .text:000000000000045c .L0 
     /tmp/ccZ7yWHp.s:719    .text:000000000000046c .L0 
     /tmp/ccZ7yWHp.s:723    .text:0000000000000474 .L0 
     /tmp/ccZ7yWHp.s:725    .text:000000000000047c .L0 
     /tmp/ccZ7yWHp.s:728    .text:0000000000000480 .L0 
     /tmp/ccZ7yWHp.s:729    .text:0000000000000480 .L0 
     /tmp/ccZ7yWHp.s:732    .text:0000000000000488 .L0 
     /tmp/ccZ7yWHp.s:734    .text:000000000000048c .L0 
     /tmp/ccZ7yWHp.s:735    .text:000000000000048c .L0 
     /tmp/ccZ7yWHp.s:740    .text:00000000000004a0 .L0 
     /tmp/ccZ7yWHp.s:743    .text:00000000000004ac .L0 
     /tmp/ccZ7yWHp.s:747    .text:00000000000004b4 .L0 
     /tmp/ccZ7yWHp.s:750    .text:00000000000004b8 .L0 
     /tmp/ccZ7yWHp.s:756    .text:00000000000004b8 _ZN8KConsole14getCharHandlerEv
     /tmp/ccZ7yWHp.s:759    .text:00000000000004b8 .L0 
     /tmp/ccZ7yWHp.s:760    .text:00000000000004b8 .L0 
     /tmp/ccZ7yWHp.s:761    .text:00000000000004bc .L0 
GAS LISTING /tmp/ccZ7yWHp.s 			page 30


     /tmp/ccZ7yWHp.s:764    .text:00000000000004c4 .L0 
     /tmp/ccZ7yWHp.s:765    .text:00000000000004c4 .L0 
     /tmp/ccZ7yWHp.s:767    .text:00000000000004c8 .L0 
     /tmp/ccZ7yWHp.s:769    .text:00000000000004c8 .L0 
     /tmp/ccZ7yWHp.s:770    .text:00000000000004c8 .L0 
     /tmp/ccZ7yWHp.s:771    .text:00000000000004c8 .L0 
     /tmp/ccZ7yWHp.s:774    .text:00000000000004d0 .L0 
src/kernel/KConsole.cpp:145    .text:00000000000004d0 .L0 
     /tmp/ccZ7yWHp.s:780    .text:00000000000004d4 .L0 
     /tmp/ccZ7yWHp.s:782    .text:00000000000004d4 .L0 
     /tmp/ccZ7yWHp.s:785    .text:00000000000004dc .L0 
     /tmp/ccZ7yWHp.s:786    .text:00000000000004e0 .L0 
     /tmp/ccZ7yWHp.s:788    .text:00000000000004e4 .L0 
     /tmp/ccZ7yWHp.s:789    .text:00000000000004e4 .L0 
     /tmp/ccZ7yWHp.s:791    .text:00000000000004e8 .L0 
     /tmp/ccZ7yWHp.s:793    .text:00000000000004ec .L0 
     /tmp/ccZ7yWHp.s:799    .text:00000000000004ec _ZN8KConsole15trapPrintStringEPKc
     /tmp/ccZ7yWHp.s:802    .text:00000000000004ec .L0 
     /tmp/ccZ7yWHp.s:804    .text:00000000000004ec .L0 
     /tmp/ccZ7yWHp.s:805    .text:00000000000004f0 .L0 
     /tmp/ccZ7yWHp.s:809    .text:00000000000004fc .L0 
     /tmp/ccZ7yWHp.s:810    .text:00000000000004fc .L0 
     /tmp/ccZ7yWHp.s:811    .text:00000000000004fc .L0 
     /tmp/ccZ7yWHp.s:813    .text:0000000000000500 .L0 
     /tmp/ccZ7yWHp.s:818    .text:0000000000000504 .L0 
     /tmp/ccZ7yWHp.s:819    .text:0000000000000504 .L0 
     /tmp/ccZ7yWHp.s:820    .text:0000000000000504 .L0 
     /tmp/ccZ7yWHp.s:822    .text:0000000000000508 .L0 
     /tmp/ccZ7yWHp.s:824    .text:000000000000050c .L0 
     /tmp/ccZ7yWHp.s:825    .text:000000000000050c .L0 
     /tmp/ccZ7yWHp.s:828    .text:0000000000000514 .L0 
     /tmp/ccZ7yWHp.s:829    .text:0000000000000514 .L0 
     /tmp/ccZ7yWHp.s:832    .text:0000000000000518 .L0 
     /tmp/ccZ7yWHp.s:835    .text:000000000000051c .L0 
     /tmp/ccZ7yWHp.s:836    .text:0000000000000520 .L0 
     /tmp/ccZ7yWHp.s:838    .text:0000000000000524 .L0 
     /tmp/ccZ7yWHp.s:839    .text:0000000000000524 .L0 
     /tmp/ccZ7yWHp.s:841    .text:0000000000000528 .L0 
     /tmp/ccZ7yWHp.s:844    .text:000000000000052c .L0 
     /tmp/ccZ7yWHp.s:846    .text:0000000000000530 .L0 
     /tmp/ccZ7yWHp.s:857    .text:0000000000000530 _ZN8KConsole12trapPrintIntEmii
     /tmp/ccZ7yWHp.s:860    .text:0000000000000530 .L0 
     /tmp/ccZ7yWHp.s:862    .text:0000000000000530 .L0 
     /tmp/ccZ7yWHp.s:863    .text:0000000000000534 .L0 
     /tmp/ccZ7yWHp.s:867    .text:0000000000000540 .L0 
     /tmp/ccZ7yWHp.s:868    .text:0000000000000540 .L0 
     /tmp/ccZ7yWHp.s:869    .text:0000000000000540 .L0 
     /tmp/ccZ7yWHp.s:871    .text:0000000000000544 .L0 
     /tmp/ccZ7yWHp.s:873    .text:0000000000000544 .L0 
     /tmp/ccZ7yWHp.s:874    .text:0000000000000544 .L0 
     /tmp/ccZ7yWHp.s:882    .text:0000000000000564 .L0 
     /tmp/ccZ7yWHp.s:883    .text:0000000000000564 .L0 
     /tmp/ccZ7yWHp.s:884    .text:0000000000000564 .L0 
     /tmp/ccZ7yWHp.s:886    .text:0000000000000564 .L0 
     /tmp/ccZ7yWHp.s:887    .text:0000000000000564 .L0 
     /tmp/ccZ7yWHp.s:888    .text:0000000000000564 .L0 
     /tmp/ccZ7yWHp.s:889    .text:0000000000000564 .L0 
GAS LISTING /tmp/ccZ7yWHp.s 			page 31


     /tmp/ccZ7yWHp.s:890    .text:0000000000000564 .L0 
     /tmp/ccZ7yWHp.s:894    .text:0000000000000568 .L0 
     /tmp/ccZ7yWHp.s:895    .text:0000000000000568 .L0 
     /tmp/ccZ7yWHp.s:896    .text:0000000000000568 .L0 
     /tmp/ccZ7yWHp.s:899    .text:000000000000056c .L0 
     /tmp/ccZ7yWHp.s:903    .text:0000000000000578 .L0 
     /tmp/ccZ7yWHp.s:908    .text:0000000000000584 .L0 
     /tmp/ccZ7yWHp.s:910    .text:0000000000000588 .L0 
     /tmp/ccZ7yWHp.s:913    .text:000000000000058c .L0 
     /tmp/ccZ7yWHp.s:917    .text:0000000000000590 .L0 
     /tmp/ccZ7yWHp.s:918    .text:0000000000000590 .L0 
     /tmp/ccZ7yWHp.s:922    .text:0000000000000598 .L0 
     /tmp/ccZ7yWHp.s:923    .text:0000000000000598 .L0 
     /tmp/ccZ7yWHp.s:931    .text:00000000000005b0 .L0 
     /tmp/ccZ7yWHp.s:932    .text:00000000000005b4 .L0 
     /tmp/ccZ7yWHp.s:934    .text:00000000000005b8 .L0 
     /tmp/ccZ7yWHp.s:935    .text:00000000000005b8 .L0 
     /tmp/ccZ7yWHp.s:937    .text:00000000000005bc .L0 
     /tmp/ccZ7yWHp.s:939    .text:00000000000005c0 .L0 
     /tmp/ccZ7yWHp.s:941    .text:00000000000005c4 .L0 
     /tmp/ccZ7yWHp.s:952    .text:00000000000005c4 _ZN8KConsole18trapPrintStringIntEPKcmi
     /tmp/ccZ7yWHp.s:955    .text:00000000000005c4 .L0 
     /tmp/ccZ7yWHp.s:957    .text:00000000000005c4 .L0 
     /tmp/ccZ7yWHp.s:958    .text:00000000000005c8 .L0 
     /tmp/ccZ7yWHp.s:963    .text:00000000000005d8 .L0 
     /tmp/ccZ7yWHp.s:964    .text:00000000000005d8 .L0 
     /tmp/ccZ7yWHp.s:965    .text:00000000000005d8 .L0 
     /tmp/ccZ7yWHp.s:966    .text:00000000000005d8 .L0 
     /tmp/ccZ7yWHp.s:968    .text:00000000000005dc .L0 
     /tmp/ccZ7yWHp.s:972    .text:00000000000005e4 .L0 
     /tmp/ccZ7yWHp.s:973    .text:00000000000005e4 .L0 
     /tmp/ccZ7yWHp.s:976    .text:00000000000005ec .L0 
     /tmp/ccZ7yWHp.s:977    .text:00000000000005ec .L0 
     /tmp/ccZ7yWHp.s:983    .text:0000000000000600 .L0 
     /tmp/ccZ7yWHp.s:984    .text:0000000000000600 .L0 
     /tmp/ccZ7yWHp.s:988    .text:0000000000000610 .L0 
     /tmp/ccZ7yWHp.s:989    .text:0000000000000614 .L0 
     /tmp/ccZ7yWHp.s:991    .text:0000000000000618 .L0 
     /tmp/ccZ7yWHp.s:992    .text:0000000000000618 .L0 
     /tmp/ccZ7yWHp.s:994    .text:000000000000061c .L0 
     /tmp/ccZ7yWHp.s:997    .text:0000000000000620 .L0 
     /tmp/ccZ7yWHp.s:999    .text:0000000000000624 .L0 
     /tmp/ccZ7yWHp.s:1001   .text:0000000000000628 .L0 
     /tmp/ccZ7yWHp.s:1060   .bss:0000000000000050 _ZN8KConsole8finishedE
     /tmp/ccZ7yWHp.s:1056   .bss:0000000000000048 _ZN8KConsole11pendingPutcE
     /tmp/ccZ7yWHp.s:1032   .bss:0000000000000018 _ZN8KConsole12outputBufferE
     /tmp/ccZ7yWHp.s:1028   .bss:0000000000000010 _ZN8KConsole11inputBufferE
     /tmp/ccZ7yWHp.s:1044   .bss:0000000000000030 _ZN8KConsole11pendingGetcE
     /tmp/ccZ7yWHp.s:1020   .bss:0000000000000000 _ZN8KConsole18hasCharactersInputE
     /tmp/ccZ7yWHp.s:1024   .bss:0000000000000008 _ZN8KConsole19hasCharactersOutputE
     /tmp/ccZ7yWHp.s:1048   .bss:0000000000000038 _ZN8KConsole10outputTailE
     /tmp/ccZ7yWHp.s:1052   .bss:0000000000000040 _ZN8KConsole10outputHeadE
     /tmp/ccZ7yWHp.s:1036   .bss:0000000000000020 _ZN8KConsole9inputTailE
     /tmp/ccZ7yWHp.s:1040   .bss:0000000000000028 _ZN8KConsole9inputHeadE
     /tmp/ccZ7yWHp.s:1017   .bss:0000000000000000 .LANCHOR0
     /tmp/ccZ7yWHp.s:1071   .text:0000000000000628 .L0 
     /tmp/ccZ7yWHp.s:45     .text:0000000000000038 .L0 
GAS LISTING /tmp/ccZ7yWHp.s 			page 32


     /tmp/ccZ7yWHp.s:63     .text:0000000000000060 .L0 
     /tmp/ccZ7yWHp.s:167    .text:00000000000000dc .L0 
     /tmp/ccZ7yWHp.s:234    .text:0000000000000158 .L0 
     /tmp/ccZ7yWHp.s:246    .text:0000000000000170 .L0 
     /tmp/ccZ7yWHp.s:253    .text:0000000000000180 .L0 
     /tmp/ccZ7yWHp.s:278    .text:00000000000001a4 .L0 
     /tmp/ccZ7yWHp.s:316    .text:00000000000001d8 .L0 
     /tmp/ccZ7yWHp.s:375    .text:0000000000000234 .L0 
     /tmp/ccZ7yWHp.s:457    .text:00000000000002d0 .L0 
     /tmp/ccZ7yWHp.s:567    .text:0000000000000370 .L0 
     /tmp/ccZ7yWHp.s:648    .text:00000000000003f4 .L0 
     /tmp/ccZ7yWHp.s:698    .text:0000000000000434 .L0 
     /tmp/ccZ7yWHp.s:707    .text:0000000000000450 .L0 
     /tmp/ccZ7yWHp.s:713    .text:000000000000045c .L0 
     /tmp/ccZ7yWHp.s:723    .text:0000000000000474 .L0 
     /tmp/ccZ7yWHp.s:735    .text:000000000000048c .L0 
     /tmp/ccZ7yWHp.s:740    .text:00000000000004a0 .L0 
     /tmp/ccZ7yWHp.s:851    .rodata.str1.8:0000000000000000 .LC0
     /tmp/ccZ7yWHp.s:874    .text:0000000000000544 .L0 
     /tmp/ccZ7yWHp.s:946    .rodata.str1.8:0000000000000018 .LC1
     /tmp/ccZ7yWHp.s:984    .text:0000000000000600 .L0 
     /tmp/ccZ7yWHp.s:43     .text:0000000000000038 .L2
     /tmp/ccZ7yWHp.s:61     .text:0000000000000060 .L3
     /tmp/ccZ7yWHp.s:220    .text:0000000000000154 .L13
     /tmp/ccZ7yWHp.s:257    .text:000000000000018c .L19
     /tmp/ccZ7yWHp.s:260    .text:0000000000000190 .L22
     /tmp/ccZ7yWHp.s:357    .text:000000000000022c .L25
     /tmp/ccZ7yWHp.s:344    .text:0000000000000218 .L24
     /tmp/ccZ7yWHp.s:433    .text:00000000000002b8 .L30
     /tmp/ccZ7yWHp.s:498    .text:0000000000000324 .L35
     /tmp/ccZ7yWHp.s:485    .text:0000000000000310 .L34
     /tmp/ccZ7yWHp.s:611    .text:00000000000003c0 .L43
     /tmp/ccZ7yWHp.s:618    .text:00000000000003cc .L44
     /tmp/ccZ7yWHp.s:582    .text:0000000000000398 .L40
     /tmp/ccZ7yWHp.s:586    .text:00000000000003a0 .L41
     /tmp/ccZ7yWHp.s:691    .text:0000000000000434 .L48
     /tmp/ccZ7yWHp.s:710    .text:000000000000045c .L49
     /tmp/ccZ7yWHp.s:677    .text:0000000000000420 .L53
     /tmp/ccZ7yWHp.s:685    .text:000000000000042c .L50
     /tmp/ccZ7yWHp.s:833    .text:000000000000051c .L56
     /tmp/ccZ7yWHp.s:816    .text:0000000000000504 .L58
     /tmp/ccZ7yWHp.s:892    .text:0000000000000568 .L61
     /tmp/ccZ7yWHp.s:929    .text:00000000000005b0 .L60
     /tmp/ccZ7yWHp.s:915    .text:0000000000000590 .L63
     /tmp/ccZ7yWHp.s:31     .text:000000000000001c .LEHB0
     /tmp/ccZ7yWHp.s:10     .text:0000000000000000 .LFB25
     /tmp/ccZ7yWHp.s:34     .text:0000000000000024 .LEHE0
     /tmp/ccZ7yWHp.s:39     .text:0000000000000030 .LEHB1
     /tmp/ccZ7yWHp.s:42     .text:0000000000000038 .LEHE1
     /tmp/ccZ7yWHp.s:95     .text:00000000000000a4 .L6
     /tmp/ccZ7yWHp.s:49     .text:0000000000000044 .LEHB2
     /tmp/ccZ7yWHp.s:52     .text:000000000000004c .LEHE2
     /tmp/ccZ7yWHp.s:57     .text:0000000000000058 .LEHB3
     /tmp/ccZ7yWHp.s:60     .text:0000000000000060 .LEHE3
     /tmp/ccZ7yWHp.s:107    .text:00000000000000c0 .L7
     /tmp/ccZ7yWHp.s:68     .text:0000000000000070 .LEHB4
     /tmp/ccZ7yWHp.s:78     .text:0000000000000088 .LEHE4
GAS LISTING /tmp/ccZ7yWHp.s 			page 33


     /tmp/ccZ7yWHp.s:103    .text:00000000000000b8 .LEHB5
     /tmp/ccZ7yWHp.s:106    .text:00000000000000c0 .LEHE5
     /tmp/ccZ7yWHp.s:114    .text:00000000000000d4 .LEHB6
     /tmp/ccZ7yWHp.s:117    .text:00000000000000dc .LEHE6
     /tmp/ccZ7yWHp.s:3299   .debug_abbrev:0000000000000000 .Ldebug_abbrev0
     /tmp/ccZ7yWHp.s:4665   .debug_str:00000000000005b8 .LASF293
     /tmp/ccZ7yWHp.s:5063   .debug_str:0000000000001433 .LASF294
     /tmp/ccZ7yWHp.s:4663   .debug_str:000000000000059a .LASF295
     /tmp/ccZ7yWHp.s:5      .text:0000000000000000 .Ltext0
     /tmp/ccZ7yWHp.s:1063   .text:0000000000000628 .Letext0
     /tmp/ccZ7yWHp.s:4495   .debug_line:0000000000000000 .Ldebug_line0
     /tmp/ccZ7yWHp.s:4705   .debug_str:00000000000007bb .LASF0
     /tmp/ccZ7yWHp.s:4743   .debug_str:000000000000092f .LASF1
     /tmp/ccZ7yWHp.s:4883   .debug_str:0000000000000e33 .LASF2
     /tmp/ccZ7yWHp.s:4639   .debug_str:00000000000004e1 .LASF3
     /tmp/ccZ7yWHp.s:4899   .debug_str:0000000000000eb7 .LASF4
     /tmp/ccZ7yWHp.s:4719   .debug_str:0000000000000820 .LASF5
     /tmp/ccZ7yWHp.s:4517   .debug_str:00000000000000a8 .LASF6
     /tmp/ccZ7yWHp.s:4833   .debug_str:0000000000000c82 .LASF7
     /tmp/ccZ7yWHp.s:4729   .debug_str:0000000000000892 .LASF8
     /tmp/ccZ7yWHp.s:4661   .debug_str:000000000000058a .LASF9
     /tmp/ccZ7yWHp.s:4675   .debug_str:00000000000006db .LASF10
     /tmp/ccZ7yWHp.s:4579   .debug_str:0000000000000320 .LASF11
     /tmp/ccZ7yWHp.s:4953   .debug_str:00000000000010a7 .LASF12
     /tmp/ccZ7yWHp.s:4651   .debug_str:000000000000053f .LASF13
     /tmp/ccZ7yWHp.s:4593   .debug_str:0000000000000365 .LASF14
     /tmp/ccZ7yWHp.s:4577   .debug_str:0000000000000310 .LASF15
     /tmp/ccZ7yWHp.s:4959   .debug_str:00000000000010e3 .LASF16
     /tmp/ccZ7yWHp.s:4631   .debug_str:0000000000000495 .LASF17
     /tmp/ccZ7yWHp.s:4939   .debug_str:0000000000001003 .LASF18
     /tmp/ccZ7yWHp.s:4983   .debug_str:0000000000001173 .LASF296
     /tmp/ccZ7yWHp.s:4971   .debug_str:0000000000001125 .LASF19
     /tmp/ccZ7yWHp.s:4923   .debug_str:0000000000000f7f .LASF20
     /tmp/ccZ7yWHp.s:4587   .debug_str:000000000000034b .LASF21
     /tmp/ccZ7yWHp.s:4557   .debug_str:0000000000000220 .LASF22
     /tmp/ccZ7yWHp.s:4837   .debug_str:0000000000000cab .LASF23
     /tmp/ccZ7yWHp.s:4585   .debug_str:0000000000000342 .LASF24
     /tmp/ccZ7yWHp.s:4967   .debug_str:0000000000001112 .LASF92
     /tmp/ccZ7yWHp.s:4691   .debug_str:000000000000076e .LASF25
     /tmp/ccZ7yWHp.s:4521   .debug_str:00000000000000ba .LASF31
     /tmp/ccZ7yWHp.s:5007   .debug_str:000000000000122b .LASF297
     /tmp/ccZ7yWHp.s:4823   .debug_str:0000000000000c32 .LASF26
     /tmp/ccZ7yWHp.s:4741   .debug_str:000000000000092a .LASF27
     /tmp/ccZ7yWHp.s:5083   .debug_str:00000000000014e5 .LASF29
     /tmp/ccZ7yWHp.s:5079   .debug_str:00000000000014c9 .LASF28
     /tmp/ccZ7yWHp.s:4991   .debug_str:000000000000119a .LASF30
     /tmp/ccZ7yWHp.s:4613   .debug_str:000000000000041f .LASF54
     /tmp/ccZ7yWHp.s:4529   .debug_str:0000000000000109 .LASF56
     /tmp/ccZ7yWHp.s:4989   .debug_str:0000000000001192 .LASF32
     /tmp/ccZ7yWHp.s:4913   .debug_str:0000000000000f1e .LASF33
     /tmp/ccZ7yWHp.s:4751   .debug_str:0000000000000975 .LASF36
     /tmp/ccZ7yWHp.s:4759   .debug_str:00000000000009d4 .LASF38
     /tmp/ccZ7yWHp.s:5091   .debug_str:0000000000001542 .LASF34
     /tmp/ccZ7yWHp.s:4637   .debug_str:00000000000004d5 .LASF35
     /tmp/ccZ7yWHp.s:4507   .debug_str:0000000000000059 .LASF80
     /tmp/ccZ7yWHp.s:4717   .debug_str:0000000000000813 .LASF82
     /tmp/ccZ7yWHp.s:4915   .debug_str:0000000000000f2f .LASF37
GAS LISTING /tmp/ccZ7yWHp.s 			page 34


     /tmp/ccZ7yWHp.s:4797   .debug_str:0000000000000b39 .LASF39
     /tmp/ccZ7yWHp.s:4895   .debug_str:0000000000000e88 .LASF40
     /tmp/ccZ7yWHp.s:4951   .debug_str:000000000000108b .LASF41
     /tmp/ccZ7yWHp.s:4799   .debug_str:0000000000000b4c .LASF42
     /tmp/ccZ7yWHp.s:4501   .debug_str:000000000000001b .LASF43
     /tmp/ccZ7yWHp.s:5065   .debug_str:000000000000144b .LASF44
     /tmp/ccZ7yWHp.s:4831   .debug_str:0000000000000c68 .LASF45
     /tmp/ccZ7yWHp.s:4937   .debug_str:0000000000000ff5 .LASF46
     /tmp/ccZ7yWHp.s:4845   .debug_str:0000000000000cde .LASF47
     /tmp/ccZ7yWHp.s:4609   .debug_str:00000000000003fd .LASF48
     /tmp/ccZ7yWHp.s:4655   .debug_str:0000000000000561 .LASF49
     /tmp/ccZ7yWHp.s:4873   .debug_str:0000000000000ddc .LASF50
     /tmp/ccZ7yWHp.s:4769   .debug_str:0000000000000a3b .LASF51
     /tmp/ccZ7yWHp.s:5071   .debug_str:000000000000147f .LASF52
     /tmp/ccZ7yWHp.s:4721   .debug_str:0000000000000832 .LASF53
     /tmp/ccZ7yWHp.s:4929   .debug_str:0000000000000fc0 .LASF55
     /tmp/ccZ7yWHp.s:5081   .debug_str:00000000000014cf .LASF57
     /tmp/ccZ7yWHp.s:4969   .debug_str:000000000000111a .LASF58
     /tmp/ccZ7yWHp.s:4603   .debug_str:00000000000003d5 .LASF59
     /tmp/ccZ7yWHp.s:4909   .debug_str:0000000000000f08 .LASF60
     /tmp/ccZ7yWHp.s:4707   .debug_str:00000000000007c8 .LASF61
     /tmp/ccZ7yWHp.s:4809   .debug_str:0000000000000b93 .LASF62
     /tmp/ccZ7yWHp.s:4599   .debug_str:00000000000003b4 .LASF63
     /tmp/ccZ7yWHp.s:4851   .debug_str:0000000000000d14 .LASF64
     /tmp/ccZ7yWHp.s:5097   .debug_str:0000000000001574 .LASF65
     /tmp/ccZ7yWHp.s:4813   .debug_str:0000000000000bb9 .LASF66
     /tmp/ccZ7yWHp.s:4893   .debug_str:0000000000000e75 .LASF67
     /tmp/ccZ7yWHp.s:4917   .debug_str:0000000000000f38 .LASF68
     /tmp/ccZ7yWHp.s:5023   .debug_str:00000000000012af .LASF69
     /tmp/ccZ7yWHp.s:4781   .debug_str:0000000000000aa6 .LASF70
     /tmp/ccZ7yWHp.s:5009   .debug_str:0000000000001243 .LASF71
     /tmp/ccZ7yWHp.s:4949   .debug_str:000000000000106b .LASF72
     /tmp/ccZ7yWHp.s:4827   .debug_str:0000000000000c41 .LASF73
     /tmp/ccZ7yWHp.s:4815   .debug_str:0000000000000bda .LASF74
     /tmp/ccZ7yWHp.s:4619   .debug_str:0000000000000433 .LASF75
     /tmp/ccZ7yWHp.s:4709   .debug_str:00000000000007dc .LASF76
     /tmp/ccZ7yWHp.s:4785   .debug_str:0000000000000ae3 .LASF77
     /tmp/ccZ7yWHp.s:4995   .debug_str:00000000000011be .LASF78
     /tmp/ccZ7yWHp.s:4657   .debug_str:0000000000000571 .LASF79
     /tmp/ccZ7yWHp.s:5077   .debug_str:00000000000014bb .LASF81
     /tmp/ccZ7yWHp.s:4539   .debug_str:0000000000000182 .LASF83
     /tmp/ccZ7yWHp.s:4641   .debug_str:00000000000004e7 .LASF84
     /tmp/ccZ7yWHp.s:4567   .debug_str:000000000000028e .LASF85
     /tmp/ccZ7yWHp.s:5061   .debug_str:000000000000142c .LASF86
     /tmp/ccZ7yWHp.s:4563   .debug_str:000000000000026f .LASF87
     /tmp/ccZ7yWHp.s:4505   .debug_str:0000000000000054 .LASF88
     /tmp/ccZ7yWHp.s:5019   .debug_str:000000000000129e .LASF89
     /tmp/ccZ7yWHp.s:4767   .debug_str:0000000000000a33 .LASF90
     /tmp/ccZ7yWHp.s:4617   .debug_str:000000000000042d .LASF91
     /tmp/ccZ7yWHp.s:5005   .debug_str:0000000000001223 .LASF93
     /tmp/ccZ7yWHp.s:4549   .debug_str:00000000000001e6 .LASF94
     /tmp/ccZ7yWHp.s:4773   .debug_str:0000000000000a56 .LASF95
     /tmp/ccZ7yWHp.s:4859   .debug_str:0000000000000d6c .LASF96
     /tmp/ccZ7yWHp.s:4671   .debug_str:00000000000006ab .LASF97
     /tmp/ccZ7yWHp.s:4887   .debug_str:0000000000000e49 .LASF98
     /tmp/ccZ7yWHp.s:4857   .debug_str:0000000000000d58 .LASF99
     /tmp/ccZ7yWHp.s:4615   .debug_str:0000000000000428 .LASF100
GAS LISTING /tmp/ccZ7yWHp.s 			page 35


     /tmp/ccZ7yWHp.s:4927   .debug_str:0000000000000fa9 .LASF101
     /tmp/ccZ7yWHp.s:4963   .debug_str:0000000000001102 .LASF102
     /tmp/ccZ7yWHp.s:4805   .debug_str:0000000000000b71 .LASF103
     /tmp/ccZ7yWHp.s:4499   .debug_str:000000000000000f .LASF104
     /tmp/ccZ7yWHp.s:4891   .debug_str:0000000000000e69 .LASF105
     /tmp/ccZ7yWHp.s:4777   .debug_str:0000000000000a7a .LASF106
     /tmp/ccZ7yWHp.s:4877   .debug_str:0000000000000dfb .LASF107
     /tmp/ccZ7yWHp.s:4581   .debug_str:000000000000032f .LASF108
     /tmp/ccZ7yWHp.s:4589   .debug_str:0000000000000355 .LASF109
     /tmp/ccZ7yWHp.s:4803   .debug_str:0000000000000b68 .LASF110
     /tmp/ccZ7yWHp.s:4975   .debug_str:0000000000001130 .LASF111
     /tmp/ccZ7yWHp.s:4497   .debug_str:0000000000000000 .LASF112
     /tmp/ccZ7yWHp.s:4685   .debug_str:0000000000000723 .LASF113
     /tmp/ccZ7yWHp.s:5001   .debug_str:00000000000011f1 .LASF114
     /tmp/ccZ7yWHp.s:4957   .debug_str:00000000000010c1 .LASF115
     /tmp/ccZ7yWHp.s:4919   .debug_str:0000000000000f56 .LASF116
     /tmp/ccZ7yWHp.s:4597   .debug_str:0000000000000390 .LASF117
     /tmp/ccZ7yWHp.s:4821   .debug_str:0000000000000c22 .LASF118
     /tmp/ccZ7yWHp.s:4849   .debug_str:0000000000000cf1 .LASF119
     /tmp/ccZ7yWHp.s:4703   .debug_str:00000000000007b5 .LASF120
     /tmp/ccZ7yWHp.s:5093   .debug_str:000000000000154f .LASF121
     /tmp/ccZ7yWHp.s:4509   .debug_str:0000000000000069 .LASF122
     /tmp/ccZ7yWHp.s:4765   .debug_str:0000000000000a19 .LASF123
     /tmp/ccZ7yWHp.s:5089   .debug_str:0000000000001532 .LASF124
     /tmp/ccZ7yWHp.s:4901   .debug_str:0000000000000ebe .LASF125
     /tmp/ccZ7yWHp.s:4961   .debug_str:00000000000010ef .LASF126
     /tmp/ccZ7yWHp.s:4897   .debug_str:0000000000000e91 .LASF127
     /tmp/ccZ7yWHp.s:5095   .debug_str:0000000000001567 .LASF128
     /tmp/ccZ7yWHp.s:4739   .debug_str:0000000000000906 .LASF129
     /tmp/ccZ7yWHp.s:4807   .debug_str:0000000000000b8a .LASF130
     /tmp/ccZ7yWHp.s:4547   .debug_str:00000000000001d6 .LASF131
     /tmp/ccZ7yWHp.s:4997   .debug_str:00000000000011c8 .LASF132
     /tmp/ccZ7yWHp.s:4903   .debug_str:0000000000000ee1 .LASF133
     /tmp/ccZ7yWHp.s:4503   .debug_str:0000000000000035 .LASF134
     /tmp/ccZ7yWHp.s:4535   .debug_str:0000000000000153 .LASF135
     /tmp/ccZ7yWHp.s:4865   .debug_str:0000000000000d9c .LASF136
     /tmp/ccZ7yWHp.s:4829   .debug_str:0000000000000c55 .LASF137
     /tmp/ccZ7yWHp.s:4689   .debug_str:000000000000075a .LASF138
     /tmp/ccZ7yWHp.s:4825   .debug_str:0000000000000c37 .LASF139
     /tmp/ccZ7yWHp.s:4745   .debug_str:0000000000000942 .LASF140
     /tmp/ccZ7yWHp.s:4843   .debug_str:0000000000000cd4 .LASF141
     /tmp/ccZ7yWHp.s:5025   .debug_str:00000000000012c2 .LASF142
     /tmp/ccZ7yWHp.s:4965   .debug_str:0000000000001109 .LASF143
     /tmp/ccZ7yWHp.s:4979   .debug_str:000000000000114d .LASF144
     /tmp/ccZ7yWHp.s:5021   .debug_str:00000000000012a3 .LASF145
     /tmp/ccZ7yWHp.s:5039   .debug_str:000000000000134d .LASF146
     /tmp/ccZ7yWHp.s:4787   .debug_str:0000000000000aeb .LASF147
     /tmp/ccZ7yWHp.s:4841   .debug_str:0000000000000cc8 .LASF148
     /tmp/ccZ7yWHp.s:4933   .debug_str:0000000000000fdc .LASF151
     /tmp/ccZ7yWHp.s:4925   .debug_str:0000000000000f87 .LASF153
     /tmp/ccZ7yWHp.s:5015   .debug_str:0000000000001279 .LASF149
     /tmp/ccZ7yWHp.s:5059   .debug_str:000000000000140a .LASF150
     /tmp/ccZ7yWHp.s:5013   .debug_str:0000000000001267 .LASF152
     /tmp/ccZ7yWHp.s:4523   .debug_str:00000000000000c5 .LASF154
     /tmp/ccZ7yWHp.s:5017   .debug_str:000000000000128b .LASF155
     /tmp/ccZ7yWHp.s:4561   .debug_str:000000000000024c .LASF156
     /tmp/ccZ7yWHp.s:4629   .debug_str:0000000000000482 .LASF157
GAS LISTING /tmp/ccZ7yWHp.s 			page 36


     /tmp/ccZ7yWHp.s:4559   .debug_str:0000000000000229 .LASF158
     /tmp/ccZ7yWHp.s:4531   .debug_str:000000000000011c .LASF159
     /tmp/ccZ7yWHp.s:5035   .debug_str:000000000000132b .LASF160
     /tmp/ccZ7yWHp.s:4783   .debug_str:0000000000000ac4 .LASF161
     /tmp/ccZ7yWHp.s:5057   .debug_str:00000000000013f1 .LASF162
     /tmp/ccZ7yWHp.s:4723   .debug_str:000000000000083f .LASF163
     /tmp/ccZ7yWHp.s:4753   .debug_str:0000000000000982 .LASF164
     /tmp/ccZ7yWHp.s:5085   .debug_str:00000000000014f1 .LASF165
     /tmp/ccZ7yWHp.s:4649   .debug_str:000000000000052e .LASF166
     /tmp/ccZ7yWHp.s:5049   .debug_str:0000000000001390 .LASF167
     /tmp/ccZ7yWHp.s:4659   .debug_str:000000000000057d .LASF168
     /tmp/ccZ7yWHp.s:5073   .debug_str:000000000000148a .LASF169
     /tmp/ccZ7yWHp.s:4683   .debug_str:0000000000000712 .LASF170
     /tmp/ccZ7yWHp.s:4527   .debug_str:00000000000000fd .LASF171
     /tmp/ccZ7yWHp.s:4755   .debug_str:000000000000099a .LASF172
     /tmp/ccZ7yWHp.s:4771   .debug_str:0000000000000a4a .LASF173
     /tmp/ccZ7yWHp.s:4533   .debug_str:0000000000000137 .LASF174
     /tmp/ccZ7yWHp.s:4973   .debug_str:000000000000112b .LASF175
     /tmp/ccZ7yWHp.s:4647   .debug_str:0000000000000521 .LASF176
     /tmp/ccZ7yWHp.s:4645   .debug_str:0000000000000514 .LASF298
     /tmp/ccZ7yWHp.s:5043   .debug_str:000000000000136c .LASF177
     /tmp/ccZ7yWHp.s:4699   .debug_str:0000000000000792 .LASF178
     /tmp/ccZ7yWHp.s:4947   .debug_str:0000000000001053 .LASF179
     /tmp/ccZ7yWHp.s:5027   .debug_str:00000000000012cd .LASF180
     /tmp/ccZ7yWHp.s:5069   .debug_str:0000000000001470 .LASF181
     /tmp/ccZ7yWHp.s:5033   .debug_str:000000000000130f .LASF182
     /tmp/ccZ7yWHp.s:4885   .debug_str:0000000000000e41 .LASF183
     /tmp/ccZ7yWHp.s:4601   .debug_str:00000000000003c6 .LASF184
     /tmp/ccZ7yWHp.s:4537   .debug_str:0000000000000166 .LASF185
     /tmp/ccZ7yWHp.s:5047   .debug_str:000000000000137c .LASF186
     /tmp/ccZ7yWHp.s:5051   .debug_str:00000000000013a2 .LASF187
     /tmp/ccZ7yWHp.s:4733   .debug_str:00000000000008c1 .LASF188
     /tmp/ccZ7yWHp.s:4569   .debug_str:00000000000002ba .LASF189
     /tmp/ccZ7yWHp.s:4623   .debug_str:0000000000000453 .LASF190
     /tmp/ccZ7yWHp.s:4775   .debug_str:0000000000000a5b .LASF191
     /tmp/ccZ7yWHp.s:4889   .debug_str:0000000000000e55 .LASF192
     /tmp/ccZ7yWHp.s:4789   .debug_str:0000000000000af7 .LASF193
     /tmp/ccZ7yWHp.s:4545   .debug_str:00000000000001cb .LASF194
     /tmp/ccZ7yWHp.s:4779   .debug_str:0000000000000a8e .LASF195
     /tmp/ccZ7yWHp.s:4627   .debug_str:0000000000000478 .LASF196
     /tmp/ccZ7yWHp.s:4835   .debug_str:0000000000000c95 .LASF197
     /tmp/ccZ7yWHp.s:4573   .debug_str:00000000000002ec .LASF198
     /tmp/ccZ7yWHp.s:4757   .debug_str:00000000000009b6 .LASF199
     /tmp/ccZ7yWHp.s:4621   .debug_str:000000000000043c .LASF200
     /tmp/ccZ7yWHp.s:5075   .debug_str:0000000000001497 .LASF201
     /tmp/ccZ7yWHp.s:4715   .debug_str:0000000000000801 .LASF202
     /tmp/ccZ7yWHp.s:4749   .debug_str:0000000000000956 .LASF203
     /tmp/ccZ7yWHp.s:4911   .debug_str:0000000000000f10 .LASF204
     /tmp/ccZ7yWHp.s:4595   .debug_str:0000000000000375 .LASF205
     /tmp/ccZ7yWHp.s:4801   .debug_str:0000000000000b5b .LASF206
     /tmp/ccZ7yWHp.s:5031   .debug_str:00000000000012f5 .LASF207
     /tmp/ccZ7yWHp.s:4747   .debug_str:000000000000094d .LASF208
     /tmp/ccZ7yWHp.s:4515   .debug_str:0000000000000093 .LASF209
     /tmp/ccZ7yWHp.s:4543   .debug_str:00000000000001c2 .LASF210
     /tmp/ccZ7yWHp.s:4819   .debug_str:0000000000000c0d .LASF211
     /tmp/ccZ7yWHp.s:4847   .debug_str:0000000000000cea .LASF212
     /tmp/ccZ7yWHp.s:4853   .debug_str:0000000000000d31 .LASF213
GAS LISTING /tmp/ccZ7yWHp.s 			page 37


     /tmp/ccZ7yWHp.s:4811   .debug_str:0000000000000bb2 .LASF214
     /tmp/ccZ7yWHp.s:5053   .debug_str:00000000000013c3 .LASF215
     /tmp/ccZ7yWHp.s:4867   .debug_str:0000000000000dc3 .LASF216
     /tmp/ccZ7yWHp.s:4993   .debug_str:00000000000011aa .LASF217
     /tmp/ccZ7yWHp.s:4727   .debug_str:000000000000088a .LASF218
     /tmp/ccZ7yWHp.s:4817   .debug_str:0000000000000bf9 .LASF219
     /tmp/ccZ7yWHp.s:4791   .debug_str:0000000000000b1a .LASF220
     /tmp/ccZ7yWHp.s:4855   .debug_str:0000000000000d44 .LASF221
     /tmp/ccZ7yWHp.s:4943   .debug_str:0000000000001031 .LASF222
     /tmp/ccZ7yWHp.s:4713   .debug_str:00000000000007ed .LASF223
     /tmp/ccZ7yWHp.s:4695   .debug_str:000000000000077f .LASF224
     /tmp/ccZ7yWHp.s:4955   .debug_str:00000000000010ba .LASF225
     /tmp/ccZ7yWHp.s:4905   .debug_str:0000000000000eee .LASF226
     /tmp/ccZ7yWHp.s:4907   .debug_str:0000000000000f01 .LASF227
     /tmp/ccZ7yWHp.s:4625   .debug_str:0000000000000465 .LASF228
     /tmp/ccZ7yWHp.s:4591   .debug_str:000000000000035f .LASF229
     /tmp/ccZ7yWHp.s:4977   .debug_str:000000000000113b .LASF230
     /tmp/ccZ7yWHp.s:4711   .debug_str:00000000000007e7 .LASF231
     /tmp/ccZ7yWHp.s:4611   .debug_str:000000000000040d .LASF232
     /tmp/ccZ7yWHp.s:4565   .debug_str:0000000000000280 .LASF233
     /tmp/ccZ7yWHp.s:5055   .debug_str:00000000000013d6 .LASF234
     /tmp/ccZ7yWHp.s:4519   .debug_str:00000000000000af .LASF235
     /tmp/ccZ7yWHp.s:4941   .debug_str:0000000000001019 .LASF236
     /tmp/ccZ7yWHp.s:4881   .debug_str:0000000000000e28 .LASF237
     /tmp/ccZ7yWHp.s:5087   .debug_str:000000000000151a .LASF238
     /tmp/ccZ7yWHp.s:4679   .debug_str:00000000000006fc .LASF239
     /tmp/ccZ7yWHp.s:4575   .debug_str:00000000000002fd .LASF240
     /tmp/ccZ7yWHp.s:4935   .debug_str:0000000000000fee .LASF241
     /tmp/ccZ7yWHp.s:4761   .debug_str:00000000000009ec .LASF242
     /tmp/ccZ7yWHp.s:5045   .debug_str:0000000000001372 .LASF243
     /tmp/ccZ7yWHp.s:5067   .debug_str:000000000000145a .LASF244
     /tmp/ccZ7yWHp.s:4583   .debug_str:0000000000000338 .LASF245
     /tmp/ccZ7yWHp.s:4525   .debug_str:00000000000000e7 .LASF246
     /tmp/ccZ7yWHp.s:4607   .debug_str:00000000000003f7 .LASF247
     /tmp/ccZ7yWHp.s:4875   .debug_str:0000000000000de9 .LASF248
     /tmp/ccZ7yWHp.s:4697   .debug_str:000000000000078c .LASF249
     /tmp/ccZ7yWHp.s:5041   .debug_str:000000000000135a .LASF250
     /tmp/ccZ7yWHp.s:4693   .debug_str:0000000000000774 .LASF251
     /tmp/ccZ7yWHp.s:4701   .debug_str:000000000000079d .LASF252
     /tmp/ccZ7yWHp.s:5011   .debug_str:0000000000001258 .LASF253
     /tmp/ccZ7yWHp.s:4673   .debug_str:00000000000006bf .LASF254
     /tmp/ccZ7yWHp.s:4839   .debug_str:0000000000000cb3 .LASF255
     /tmp/ccZ7yWHp.s:4725   .debug_str:0000000000000868 .LASF256
     /tmp/ccZ7yWHp.s:4869   .debug_str:0000000000000dcb .LASF257
     /tmp/ccZ7yWHp.s:4513   .debug_str:000000000000008b .LASF258
     /tmp/ccZ7yWHp.s:4551   .debug_str:00000000000001f7 .LASF259
     /tmp/ccZ7yWHp.s:4669   .debug_str:000000000000069f .LASF260
     /tmp/ccZ7yWHp.s:4553   .debug_str:0000000000000206 .LASF261
     /tmp/ccZ7yWHp.s:4795   .debug_str:0000000000000b27 .LASF262
     /tmp/ccZ7yWHp.s:4677   .debug_str:00000000000006e9 .LASF263
     /tmp/ccZ7yWHp.s:5037   .debug_str:000000000000133a .LASF264
     /tmp/ccZ7yWHp.s:4571   .debug_str:00000000000002d8 .LASF265
     /tmp/ccZ7yWHp.s:4987   .debug_str:0000000000001188 .LASF266
     /tmp/ccZ7yWHp.s:4861   .debug_str:0000000000000d77 .LASF267
     /tmp/ccZ7yWHp.s:4681   .debug_str:0000000000000703 .LASF268
     /tmp/ccZ7yWHp.s:4931   .debug_str:0000000000000fcb .LASF269
     /tmp/ccZ7yWHp.s:4921   .debug_str:0000000000000f67 .LASF270
GAS LISTING /tmp/ccZ7yWHp.s 			page 38


     /tmp/ccZ7yWHp.s:4879   .debug_str:0000000000000e10 .LASF271
     /tmp/ccZ7yWHp.s:4511   .debug_str:0000000000000071 .LASF272
     /tmp/ccZ7yWHp.s:4945   .debug_str:0000000000001039 .LASF273
     /tmp/ccZ7yWHp.s:5003   .debug_str:0000000000001200 .LASF274
     /tmp/ccZ7yWHp.s:4633   .debug_str:00000000000004ab .LASF275
     /tmp/ccZ7yWHp.s:4735   .debug_str:00000000000008d0 .LASF276
     /tmp/ccZ7yWHp.s:4737   .debug_str:00000000000008eb .LASF277
     /tmp/ccZ7yWHp.s:4731   .debug_str:00000000000008a5 .LASF278
     /tmp/ccZ7yWHp.s:4981   .debug_str:0000000000001158 .LASF279
     /tmp/ccZ7yWHp.s:5029   .debug_str:00000000000012de .LASF280
     /tmp/ccZ7yWHp.s:953    .text:00000000000005c4 .LFB38
     /tmp/ccZ7yWHp.s:1002   .text:0000000000000628 .LFE38
     /tmp/ccZ7yWHp.s:4555   .debug_str:0000000000000219 .LASF281
     /tmp/ccZ7yWHp.s:4216   .debug_loc:0000000000000000 .LLST17
     /tmp/ccZ7yWHp.s:4230   .debug_loc:0000000000000039 .LLST18
     /tmp/ccZ7yWHp.s:4793   .debug_str:0000000000000b22 .LASF282
     /tmp/ccZ7yWHp.s:4248   .debug_loc:0000000000000085 .LLST19
     /tmp/ccZ7yWHp.s:974    .text:00000000000005ec .LVL68
     /tmp/ccZ7yWHp.s:981    .text:0000000000000600 .LVL69
     /tmp/ccZ7yWHp.s:986    .text:0000000000000610 .LVL70
     /tmp/ccZ7yWHp.s:858    .text:0000000000000530 .LFB37
     /tmp/ccZ7yWHp.s:942    .text:00000000000005c4 .LFE37
     /tmp/ccZ7yWHp.s:4262   .debug_loc:00000000000000be .LLST12
     /tmp/ccZ7yWHp.s:4276   .debug_loc:00000000000000f7 .LLST13
     /tmp/ccZ7yWHp.s:4290   .debug_loc:0000000000000130 .LLST14
     /tmp/ccZ7yWHp.s:4999   .debug_str:00000000000011ea .LASF283
     /tmp/ccZ7yWHp.s:4304   .debug_loc:0000000000000169 .LLST15
     /tmp/ccZ7yWHp.s:4326   .debug_loc:00000000000001c8 .LLST16
     /tmp/ccZ7yWHp.s:927    .text:00000000000005ac .LVL66
     /tmp/ccZ7yWHp.s:800    .text:00000000000004ec .LFB36
     /tmp/ccZ7yWHp.s:847    .text:0000000000000530 .LFE36
     /tmp/ccZ7yWHp.s:4333   .debug_loc:00000000000001eb .LLST11
     /tmp/ccZ7yWHp.s:826    .text:0000000000000514 .LVL55
     /tmp/ccZ7yWHp.s:757    .text:00000000000004b8 .LFB35
     /tmp/ccZ7yWHp.s:794    .text:00000000000004ec .LFE35
     /tmp/ccZ7yWHp.s:4344   .debug_loc:0000000000000221 .LLST10
     /tmp/ccZ7yWHp.s:772    .text:00000000000004d0 .LVL51
     /tmp/ccZ7yWHp.s:783    .text:00000000000004dc .LVL52
     /tmp/ccZ7yWHp.s:637    .text:00000000000003e8 .LFB34
     /tmp/ccZ7yWHp.s:657    .text:000000000000040c .LFE34
     /tmp/ccZ7yWHp.s:552    .text:000000000000035c .LFB33
     /tmp/ccZ7yWHp.s:631    .text:00000000000003e8 .LFE33
     /tmp/ccZ7yWHp.s:4351   .debug_loc:0000000000000244 .LLST7
     /tmp/ccZ7yWHp.s:575    .text:000000000000038c .LVL34
     /tmp/ccZ7yWHp.s:597    .text:00000000000003ac .LVL37
     /tmp/ccZ7yWHp.s:616    .text:00000000000003c8 .LVL39
     /tmp/ccZ7yWHp.s:623    .text:00000000000003d8 .LVL40
     /tmp/ccZ7yWHp.s:628    .text:00000000000003e4 .LVL41
     /tmp/ccZ7yWHp.s:510    .text:000000000000032c .LFB32
     /tmp/ccZ7yWHp.s:546    .text:000000000000035c .LFE32
     /tmp/ccZ7yWHp.s:4362   .debug_loc:000000000000027a .LLST6
     /tmp/ccZ7yWHp.s:535    .text:000000000000034c .LVL33
     /tmp/ccZ7yWHp.s:442    .text:00000000000002bc .LFB31
     /tmp/ccZ7yWHp.s:504    .text:000000000000032c .LFE31
     /tmp/ccZ7yWHp.s:4369   .debug_loc:000000000000029d .LLST5
     /tmp/ccZ7yWHp.s:460    .text:00000000000002e4 .LVL28
     /tmp/ccZ7yWHp.s:369    .text:0000000000000234 .LFB30
GAS LISTING /tmp/ccZ7yWHp.s 			page 39


     /tmp/ccZ7yWHp.s:436    .text:00000000000002bc .LFE30
     /tmp/ccZ7yWHp.s:4376   .debug_loc:00000000000002c0 .LLST4
     /tmp/ccZ7yWHp.s:422    .text:00000000000002a8 .LVL26
     /tmp/ccZ7yWHp.s:301    .text:00000000000001c4 .LFB29
     /tmp/ccZ7yWHp.s:363    .text:0000000000000234 .LFE29
     /tmp/ccZ7yWHp.s:4394   .debug_loc:000000000000030c .LLST3
     /tmp/ccZ7yWHp.s:319    .text:00000000000001ec .LVL21
     /tmp/ccZ7yWHp.s:161    .text:00000000000000dc .LFB28
     /tmp/ccZ7yWHp.s:223    .text:0000000000000158 .LFE28
     /tmp/ccZ7yWHp.s:4401   .debug_loc:000000000000032f .LLST0
     /tmp/ccZ7yWHp.s:209    .text:0000000000000144 .LVL12
     /tmp/ccZ7yWHp.s:663    .text:000000000000040c .LFB27
     /tmp/ccZ7yWHp.s:751    .text:00000000000004b8 .LFE27
     /tmp/ccZ7yWHp.s:4419   .debug_loc:000000000000037b .LLST8
     /tmp/ccZ7yWHp.s:4481   .debug_ranges:0000000000000000 .Ldebug_ranges0
     /tmp/ccZ7yWHp.s:4871   .debug_str:0000000000000dd2 .LASF284
     /tmp/ccZ7yWHp.s:4433   .debug_loc:00000000000003b4 .LLST9
     /tmp/ccZ7yWHp.s:726    .text:0000000000000480 .LBB8
     /tmp/ccZ7yWHp.s:745    .text:00000000000004b4 .LBE8
     /tmp/ccZ7yWHp.s:730    .text:0000000000000488 .LVL50
     /tmp/ccZ7yWHp.s:682    .text:0000000000000428 .LVL44
     /tmp/ccZ7yWHp.s:690    .text:0000000000000434 .LVL46
     /tmp/ccZ7yWHp.s:703    .text:000000000000044c .LVL47
     /tmp/ccZ7yWHp.s:229    .text:0000000000000158 .LFB26
     /tmp/ccZ7yWHp.s:295    .text:00000000000001c4 .LFE26
     /tmp/ccZ7yWHp.s:4445   .debug_loc:00000000000003dc .LLST1
     /tmp/ccZ7yWHp.s:4457   .debug_loc:0000000000000404 .LLST2
     /tmp/ccZ7yWHp.s:282    .text:00000000000001b4 .LVL20
     /tmp/ccZ7yWHp.s:119    .text:00000000000000dc .LFE25
     /tmp/ccZ7yWHp.s:33     .text:0000000000000024 .LVL0
     /tmp/ccZ7yWHp.s:41     .text:0000000000000038 .LVL1
     /tmp/ccZ7yWHp.s:51     .text:000000000000004c .LVL2
     /tmp/ccZ7yWHp.s:59     .text:0000000000000060 .LVL3
     /tmp/ccZ7yWHp.s:70     .text:0000000000000078 .LVL4
     /tmp/ccZ7yWHp.s:77     .text:0000000000000088 .LVL5
     /tmp/ccZ7yWHp.s:101    .text:00000000000000b4 .LVL6
     /tmp/ccZ7yWHp.s:105    .text:00000000000000c0 .LVL7
     /tmp/ccZ7yWHp.s:112    .text:00000000000000d0 .LVL8
     /tmp/ccZ7yWHp.s:116    .text:00000000000000dc .LVL9
     /tmp/ccZ7yWHp.s:4763   .debug_str:00000000000009ff .LASF285
     /tmp/ccZ7yWHp.s:4687   .debug_str:0000000000000745 .LASF287
     /tmp/ccZ7yWHp.s:4643   .debug_str:00000000000004fc .LASF286
     /tmp/ccZ7yWHp.s:4653   .debug_str:000000000000054e .LASF288
     /tmp/ccZ7yWHp.s:4863   .debug_str:0000000000000d80 .LASF289
     /tmp/ccZ7yWHp.s:4667   .debug_str:0000000000000688 .LASF290
     /tmp/ccZ7yWHp.s:4605   .debug_str:00000000000003eb .LASF291
     /tmp/ccZ7yWHp.s:4635   .debug_str:00000000000004cd .LASF292
     /tmp/ccZ7yWHp.s:4985   .debug_str:0000000000001179 .LASF299
     /tmp/ccZ7yWHp.s:4541   .debug_str:00000000000001aa .LASF300
     /tmp/ccZ7yWHp.s:956    .text:00000000000005c4 .LVL67
     /tmp/ccZ7yWHp.s:995    .text:000000000000061c .LVL71
     /tmp/ccZ7yWHp.s:861    .text:0000000000000530 .LVL58
     /tmp/ccZ7yWHp.s:891    .text:0000000000000568 .LVL60
     /tmp/ccZ7yWHp.s:914    .text:0000000000000590 .LVL64
     /tmp/ccZ7yWHp.s:885    .text:0000000000000564 .LVL59
     /tmp/ccZ7yWHp.s:897    .text:000000000000056c .LVL61
     /tmp/ccZ7yWHp.s:905    .text:0000000000000580 .LVL62
GAS LISTING /tmp/ccZ7yWHp.s 			page 40


     /tmp/ccZ7yWHp.s:919    .text:0000000000000594 .LVL65
     /tmp/ccZ7yWHp.s:803    .text:00000000000004ec .LVL53
     /tmp/ccZ7yWHp.s:815    .text:0000000000000504 .LVL54
     /tmp/ccZ7yWHp.s:842    .text:0000000000000528 .LVL57
     /tmp/ccZ7yWHp.s:577    .text:0000000000000390 .LVL35
     /tmp/ccZ7yWHp.s:581    .text:0000000000000398 .LVL36
     /tmp/ccZ7yWHp.s:610    .text:00000000000003c0 .LVL38
     /tmp/ccZ7yWHp.s:528    .text:0000000000000340 .LVL31
     /tmp/ccZ7yWHp.s:533    .text:0000000000000344 .LVL32
     /tmp/ccZ7yWHp.s:473    .text:00000000000002fc .LVL29
     /tmp/ccZ7yWHp.s:484    .text:0000000000000310 .LVL30
     /tmp/ccZ7yWHp.s:372    .text:0000000000000234 .LVL24
     /tmp/ccZ7yWHp.s:420    .text:00000000000002a0 .LVL25
     /tmp/ccZ7yWHp.s:432    .text:00000000000002b8 .LVL27
     /tmp/ccZ7yWHp.s:332    .text:0000000000000204 .LVL22
     /tmp/ccZ7yWHp.s:343    .text:0000000000000218 .LVL23
     /tmp/ccZ7yWHp.s:164    .text:00000000000000dc .LVL10
     /tmp/ccZ7yWHp.s:207    .text:000000000000013c .LVL11
     /tmp/ccZ7yWHp.s:219    .text:0000000000000154 .LVL13
     /tmp/ccZ7yWHp.s:666    .text:000000000000040c .LVL42
     /tmp/ccZ7yWHp.s:676    .text:0000000000000420 .LVL43
     /tmp/ccZ7yWHp.s:716    .text:000000000000046c .LVL48
     /tmp/ccZ7yWHp.s:720    .text:0000000000000470 .LVL49
     /tmp/ccZ7yWHp.s:237    .text:0000000000000168 .LVL14
     /tmp/ccZ7yWHp.s:241    .text:000000000000016c .LVL15
     /tmp/ccZ7yWHp.s:250    .text:0000000000000180 .LVL16
     /tmp/ccZ7yWHp.s:256    .text:000000000000018c .LVL17
     /tmp/ccZ7yWHp.s:259    .text:0000000000000190 .LVL18
     /tmp/ccZ7yWHp.s:1072   .debug_info:0000000000000000 .Ldebug_info0
     /tmp/ccZ7yWHp.s:243    .text:0000000000000170 .LBB3
     /tmp/ccZ7yWHp.s:261    .text:0000000000000190 .LBE3
     /tmp/ccZ7yWHp.s:274    .text:00000000000001a0 .LBB4
     /tmp/ccZ7yWHp.s:283    .text:00000000000001b4 .LBE4
     /tmp/ccZ7yWHp.s:678    .text:0000000000000420 .LBB6
     /tmp/ccZ7yWHp.s:693    .text:0000000000000434 .LBE6
     /tmp/ccZ7yWHp.s:695    .text:0000000000000434 .LBB10
     /tmp/ccZ7yWHp.s:749    .text:00000000000004b8 .LBE10
     /tmp/ccZ7yWHp.s:122    .gcc_except_table:0000000000000000 .LLSDA25

UNDEFINED SYMBOLS
_ZN10KSemaphorenwEm
_ZN10KSemaphoreC1Ei
_Z7kmallocm
_ZN10KSemaphoredlEPv
_Unwind_Resume
__gxx_personality_v0
_ZN10KSemaphore6signalEv
CONSOLE_STATUS
CONSOLE_TX_DATA
_ZN10KSemaphore4waitEv
_ZN5Riscv13w_a0_sscratchEv
_Z18thread_exit_kernelv
_Z22thread_dispatch_kernelv
_ZN5Riscv12finishSystemE
_Z20sysCallGetCharOutputv
CONSOLE_RX_DATA
