GAS LISTING /tmp/cc6syZG2.s 			page 1


   1              		.file	"KSemaphore.cpp"
   2              		.option pic
   3              		.option norelax
   4              		.text
   5              	.Ltext0:
   6              		.align	2
   7              		.globl	_ZN10KSemaphoreC2Ei
   9              	_ZN10KSemaphoreC2Ei:
  10              	.LFB26:
  11              		.file 1 "src/kernel/KSemaphore.cpp"
   1:src/kernel/KSemaphore.cpp **** //
   2:src/kernel/KSemaphore.cpp **** // Created by os on 5/2/22.
   3:src/kernel/KSemaphore.cpp **** //
   4:src/kernel/KSemaphore.cpp **** 
   5:src/kernel/KSemaphore.cpp **** #include "../../h/KSemaphore.hpp"
   6:src/kernel/KSemaphore.cpp **** #include "../../h/MemoryAllocator.hpp"
   7:src/kernel/KSemaphore.cpp **** #include "../../h/Riscv.hpp"
   8:src/kernel/KSemaphore.cpp **** #include "../../h/Scheduler.hpp"
   9:src/kernel/KSemaphore.cpp **** 
  10:src/kernel/KSemaphore.cpp **** KSemaphore::KSemaphore(int val)
  12              		.loc 1 10 1
  13              		.cfi_startproc
  14              	.LVL0:
  15 0000 130101FF 		addi	sp,sp,-16
  16              		.cfi_def_cfa_offset 16
  17 0004 23348100 		sd	s0,8(sp)
  18              		.cfi_offset 8, -8
  19 0008 13040101 		addi	s0,sp,16
  20              		.cfi_def_cfa 8, 0
  21              	.LBB4:
  11:src/kernel/KSemaphore.cpp **** {
  12:src/kernel/KSemaphore.cpp ****     this->val = val;
  22              		.loc 1 12 5
  23              		.loc 1 12 15 is_stmt 0
  24 000c 2328B500 		sw	a1,16(a0)
  13:src/kernel/KSemaphore.cpp ****     headBlocked = tailBlocked = 0;
  25              		.loc 1 13 5 is_stmt 1
  26              		.loc 1 13 31 is_stmt 0
  27 0010 23340500 		sd	zero,8(a0)
  28              		.loc 1 13 17
  29 0014 23300500 		sd	zero,0(a0)
  30              	.LBE4:
  14:src/kernel/KSemaphore.cpp **** }
  31              		.loc 1 14 1
  32 0018 03348100 		ld	s0,8(sp)
  33              		.cfi_restore 8
  34              		.cfi_def_cfa 2, 16
  35 001c 13010101 		addi	sp,sp,16
  36              		.cfi_def_cfa_offset 0
  37 0020 67800000 		jr	ra
  38              		.cfi_endproc
  39              	.LFE26:
  41              		.globl	_ZN10KSemaphoreC1Ei
  42              		.set	_ZN10KSemaphoreC1Ei,_ZN10KSemaphoreC2Ei
  43              		.align	2
  44              		.globl	_ZN10KSemaphore12addToBlockedEP3PCB
  46              	_ZN10KSemaphore12addToBlockedEP3PCB:
GAS LISTING /tmp/cc6syZG2.s 			page 2


  47              	.LFB34:
  15:src/kernel/KSemaphore.cpp **** 
  16:src/kernel/KSemaphore.cpp **** uint64 KSemaphore::wait()
  17:src/kernel/KSemaphore.cpp **** {
  18:src/kernel/KSemaphore.cpp ****     PCB::running->retFromClosedSem = false;
  19:src/kernel/KSemaphore.cpp ****     if(--val < 0)
  20:src/kernel/KSemaphore.cpp ****         block();
  21:src/kernel/KSemaphore.cpp **** 
  22:src/kernel/KSemaphore.cpp ****     return 0;
  23:src/kernel/KSemaphore.cpp **** }
  24:src/kernel/KSemaphore.cpp **** 
  25:src/kernel/KSemaphore.cpp **** uint64 KSemaphore::signal() {
  26:src/kernel/KSemaphore.cpp ****     if(++val <= 0)
  27:src/kernel/KSemaphore.cpp ****         unblock();
  28:src/kernel/KSemaphore.cpp **** 
  29:src/kernel/KSemaphore.cpp ****     return 0;
  30:src/kernel/KSemaphore.cpp **** }
  31:src/kernel/KSemaphore.cpp **** 
  32:src/kernel/KSemaphore.cpp **** void KSemaphore::semOpenHandler()
  33:src/kernel/KSemaphore.cpp **** {
  34:src/kernel/KSemaphore.cpp ****     uint64 val;
  35:src/kernel/KSemaphore.cpp ****     KSemaphore** semaphoreHandle;
  36:src/kernel/KSemaphore.cpp ****     __asm__ volatile("mv %0, a1" : "=r"(semaphoreHandle));
  37:src/kernel/KSemaphore.cpp ****     __asm__ volatile("mv %0, a2" : "=r"(val));
  38:src/kernel/KSemaphore.cpp **** 
  39:src/kernel/KSemaphore.cpp ****     KSemaphore* newSem = new KSemaphore(val);
  40:src/kernel/KSemaphore.cpp **** 
  41:src/kernel/KSemaphore.cpp ****     (*semaphoreHandle) = newSem;
  42:src/kernel/KSemaphore.cpp **** 
  43:src/kernel/KSemaphore.cpp ****     if(newSem == 0)
  44:src/kernel/KSemaphore.cpp ****             __asm__ volatile("li a0, 0xffffffffffffffff");
  45:src/kernel/KSemaphore.cpp ****     else
  46:src/kernel/KSemaphore.cpp ****             __asm__ volatile("li a0, 0");
  47:src/kernel/KSemaphore.cpp ****     Riscv::w_a0_sscratch();
  48:src/kernel/KSemaphore.cpp **** }
  49:src/kernel/KSemaphore.cpp **** 
  50:src/kernel/KSemaphore.cpp **** KSemaphore::~KSemaphore()
  51:src/kernel/KSemaphore.cpp **** {
  52:src/kernel/KSemaphore.cpp ****     while(getFirstBlocked() != 0)
  53:src/kernel/KSemaphore.cpp ****     {
  54:src/kernel/KSemaphore.cpp ****         PCB* pcb = getFirstBlocked();
  55:src/kernel/KSemaphore.cpp ****         removeFirstBlocked();
  56:src/kernel/KSemaphore.cpp ****         pcb->retFromClosedSem = true;
  57:src/kernel/KSemaphore.cpp ****         Scheduler::put(pcb);
  58:src/kernel/KSemaphore.cpp ****     }
  59:src/kernel/KSemaphore.cpp **** }
  60:src/kernel/KSemaphore.cpp **** 
  61:src/kernel/KSemaphore.cpp **** void KSemaphore::addToBlocked(PCB* pcb)
  62:src/kernel/KSemaphore.cpp **** {
  48              		.loc 1 62 1 is_stmt 1
  49              		.cfi_startproc
  50              	.LVL1:
  51 0024 130101FF 		addi	sp,sp,-16
  52              		.cfi_def_cfa_offset 16
  53 0028 23348100 		sd	s0,8(sp)
  54              		.cfi_offset 8, -8
  55 002c 13040101 		addi	s0,sp,16
GAS LISTING /tmp/cc6syZG2.s 			page 3


  56              		.cfi_def_cfa 8, 0
  63:src/kernel/KSemaphore.cpp ****     pcb->nextPCB = 0;
  57              		.loc 1 63 5
  58              		.loc 1 63 18 is_stmt 0
  59 0030 23B40500 		sd	zero,8(a1)
  64:src/kernel/KSemaphore.cpp ****     if(headBlocked == 0)
  60              		.loc 1 64 5 is_stmt 1
  61              		.loc 1 64 8 is_stmt 0
  62 0034 83370500 		ld	a5,0(a0)
  63              		.loc 1 64 5
  64 0038 638E0700 		beqz	a5,.L7
  65:src/kernel/KSemaphore.cpp ****     {
  66:src/kernel/KSemaphore.cpp ****         headBlocked = tailBlocked = pcb;
  67:src/kernel/KSemaphore.cpp ****     }
  68:src/kernel/KSemaphore.cpp ****     else
  69:src/kernel/KSemaphore.cpp ****     {
  70:src/kernel/KSemaphore.cpp ****         tailBlocked->nextPCB = pcb;
  65              		.loc 1 70 9 is_stmt 1
  66 003c 83378500 		ld	a5,8(a0)
  67              		.loc 1 70 30 is_stmt 0
  68 0040 23B4B700 		sd	a1,8(a5)
  71:src/kernel/KSemaphore.cpp ****         tailBlocked = pcb;
  69              		.loc 1 71 9 is_stmt 1
  70              		.loc 1 71 21 is_stmt 0
  71 0044 2334B500 		sd	a1,8(a0)
  72              	.L3:
  72:src/kernel/KSemaphore.cpp ****     }
  73:src/kernel/KSemaphore.cpp **** }
  73              		.loc 1 73 1
  74 0048 03348100 		ld	s0,8(sp)
  75              		.cfi_remember_state
  76              		.cfi_restore 8
  77              		.cfi_def_cfa 2, 16
  78 004c 13010101 		addi	sp,sp,16
  79              		.cfi_def_cfa_offset 0
  80 0050 67800000 		jr	ra
  81              	.L7:
  82              		.cfi_restore_state
  66:src/kernel/KSemaphore.cpp ****     }
  83              		.loc 1 66 9 is_stmt 1
  66:src/kernel/KSemaphore.cpp ****     }
  84              		.loc 1 66 35 is_stmt 0
  85 0054 2334B500 		sd	a1,8(a0)
  66:src/kernel/KSemaphore.cpp ****     }
  86              		.loc 1 66 21
  87 0058 2330B500 		sd	a1,0(a0)
  88 005c 6FF0DFFE 		j	.L3
  89              		.cfi_endproc
  90              	.LFE34:
  92              		.align	2
  93              		.globl	_ZN10KSemaphore5blockEv
  95              	_ZN10KSemaphore5blockEv:
  96              	.LFB35:
  74:src/kernel/KSemaphore.cpp **** 
  75:src/kernel/KSemaphore.cpp **** void KSemaphore::block()
  76:src/kernel/KSemaphore.cpp **** {
  97              		.loc 1 76 1 is_stmt 1
GAS LISTING /tmp/cc6syZG2.s 			page 4


  98              		.cfi_startproc
  99              	.LVL2:
 100 0060 130101FF 		addi	sp,sp,-16
 101              		.cfi_def_cfa_offset 16
 102 0064 23341100 		sd	ra,8(sp)
 103 0068 23308100 		sd	s0,0(sp)
 104              		.cfi_offset 1, -8
 105              		.cfi_offset 8, -16
 106 006c 13040101 		addi	s0,sp,16
 107              		.cfi_def_cfa 8, 0
  77:src/kernel/KSemaphore.cpp ****     PCB::running->setState(PCB::SUSPENDED);
 108              		.loc 1 77 5
 109              		.loc 1 77 27 is_stmt 0
 110 0070 97070000 		la	a5,_ZN3PCB7runningE
 110      83B70700 
 111 0078 83B50700 		ld	a1,0(a5)
 112              	.LVL3:
 113              	.LBB5:
 114              	.LBB6:
 115              		.file 2 "src/kernel/../../h/PCB.hpp"
   1:src/kernel/../../h/PCB.hpp **** //
   2:src/kernel/../../h/PCB.hpp **** // Created by os on 4/27/22.
   3:src/kernel/../../h/PCB.hpp **** //
   4:src/kernel/../../h/PCB.hpp **** 
   5:src/kernel/../../h/PCB.hpp **** #ifndef PROJECT_BASE_V1_0_PCB_HPP
   6:src/kernel/../../h/PCB.hpp **** #define PROJECT_BASE_V1_0_PCB_HPP
   7:src/kernel/../../h/PCB.hpp **** 
   8:src/kernel/../../h/PCB.hpp **** #include "../lib/hw.h"
   9:src/kernel/../../h/PCB.hpp **** 
  10:src/kernel/../../h/PCB.hpp **** class PCB
  11:src/kernel/../../h/PCB.hpp **** {
  12:src/kernel/../../h/PCB.hpp **** private:
  13:src/kernel/../../h/PCB.hpp ****     static uint64 savedRegA4;
  14:src/kernel/../../h/PCB.hpp **** 
  15:src/kernel/../../h/PCB.hpp ****     using Body = void (*)(void*);
  16:src/kernel/../../h/PCB.hpp **** 
  17:src/kernel/../../h/PCB.hpp ****     PCB(Body body,  void* args, void* stack_space, uint64 timeSlice);
  18:src/kernel/../../h/PCB.hpp ****     ~PCB();
  19:src/kernel/../../h/PCB.hpp **** 
  20:src/kernel/../../h/PCB.hpp ****     void start();
  21:src/kernel/../../h/PCB.hpp ****     static void dispatch();
  22:src/kernel/../../h/PCB.hpp **** 
  23:src/kernel/../../h/PCB.hpp ****     static PCB* running;
  24:src/kernel/../../h/PCB.hpp **** 
  25:src/kernel/../../h/PCB.hpp ****     static uint64 timeSliceCounter;
  26:src/kernel/../../h/PCB.hpp ****     uint64 getTimeSlice() { return timeSlice;}
  27:src/kernel/../../h/PCB.hpp **** 
  28:src/kernel/../../h/PCB.hpp ****     void* operator new(size_t size);
  29:src/kernel/../../h/PCB.hpp ****     void operator delete(void *p);
  30:src/kernel/../../h/PCB.hpp **** 
  31:src/kernel/../../h/PCB.hpp ****     enum State{READY, RUNNING, SUSPENDED, FINISHED, EXITING, SLEEPING};
  32:src/kernel/../../h/PCB.hpp ****     State getState() {return state;}
  33:src/kernel/../../h/PCB.hpp ****     void setState(State s) {state = s;}
 116              		.loc 2 33 29 is_stmt 1
 117              		.loc 2 33 35 is_stmt 0
 118 007c 93072000 		li	a5,2
 119 0080 23A0F504 		sw	a5,64(a1)
GAS LISTING /tmp/cc6syZG2.s 			page 5


 120              	.LVL4:
 121              	.LBE6:
 122              	.LBE5:
  78:src/kernel/KSemaphore.cpp ****     addToBlocked(PCB::running);
 123              		.loc 1 78 5 is_stmt 1
 124              		.loc 1 78 17 is_stmt 0
 125 0084 97000000 		call	_ZN10KSemaphore12addToBlockedEP3PCB
 125      E7800000 
 126              	.LVL5:
  79:src/kernel/KSemaphore.cpp ****     PCB::dispatch();
 127              		.loc 1 79 5 is_stmt 1
 128              		.loc 1 79 18 is_stmt 0
 129 008c 97000000 		call	_ZN3PCB8dispatchEv@plt
 129      E7800000 
 130              	.LVL6:
  80:src/kernel/KSemaphore.cpp **** }
 131              		.loc 1 80 1
 132 0094 83308100 		ld	ra,8(sp)
 133              		.cfi_restore 1
 134 0098 03340100 		ld	s0,0(sp)
 135              		.cfi_restore 8
 136              		.cfi_def_cfa 2, 16
 137 009c 13010101 		addi	sp,sp,16
 138              		.cfi_def_cfa_offset 0
 139 00a0 67800000 		jr	ra
 140              		.cfi_endproc
 141              	.LFE35:
 143              		.align	2
 144              		.globl	_ZN10KSemaphore4waitEv
 146              	_ZN10KSemaphore4waitEv:
 147              	.LFB28:
  17:src/kernel/KSemaphore.cpp ****     PCB::running->retFromClosedSem = false;
 148              		.loc 1 17 1 is_stmt 1
 149              		.cfi_startproc
 150              	.LVL7:
  18:src/kernel/KSemaphore.cpp ****     if(--val < 0)
 151              		.loc 1 18 5
  18:src/kernel/KSemaphore.cpp ****     if(--val < 0)
 152              		.loc 1 18 19 is_stmt 0
 153 00a4 97070000 		la	a5,_ZN3PCB7runningE
 153      83B70700 
 154 00ac 83B70700 		ld	a5,0(a5)
  18:src/kernel/KSemaphore.cpp ****     if(--val < 0)
 155              		.loc 1 18 36
 156 00b0 238C0704 		sb	zero,88(a5)
  19:src/kernel/KSemaphore.cpp ****         block();
 157              		.loc 1 19 5 is_stmt 1
  19:src/kernel/KSemaphore.cpp ****         block();
 158              		.loc 1 19 10 is_stmt 0
 159 00b4 83270501 		lw	a5,16(a0)
  19:src/kernel/KSemaphore.cpp ****         block();
 160              		.loc 1 19 8
 161 00b8 9B87F7FF 		addiw	a5,a5,-1
  19:src/kernel/KSemaphore.cpp ****         block();
 162              		.loc 1 19 14
 163 00bc 2328F500 		sw	a5,16(a0)
  19:src/kernel/KSemaphore.cpp ****         block();
GAS LISTING /tmp/cc6syZG2.s 			page 6


 164              		.loc 1 19 5
 165 00c0 13970702 		slli	a4,a5,32
 166 00c4 63460700 		bltz	a4,.L16
  22:src/kernel/KSemaphore.cpp **** }
 167              		.loc 1 22 5 is_stmt 1
  23:src/kernel/KSemaphore.cpp **** 
 168              		.loc 1 23 1 is_stmt 0
 169 00c8 13050000 		li	a0,0
 170              	.LVL8:
 171 00cc 67800000 		ret
 172              	.LVL9:
 173              	.L16:
  17:src/kernel/KSemaphore.cpp ****     PCB::running->retFromClosedSem = false;
 174              		.loc 1 17 1
 175 00d0 130101FF 		addi	sp,sp,-16
 176              		.cfi_def_cfa_offset 16
 177 00d4 23341100 		sd	ra,8(sp)
 178 00d8 23308100 		sd	s0,0(sp)
 179              		.cfi_offset 1, -8
 180              		.cfi_offset 8, -16
 181 00dc 13040101 		addi	s0,sp,16
 182              		.cfi_def_cfa 8, 0
  20:src/kernel/KSemaphore.cpp **** 
 183              		.loc 1 20 9 is_stmt 1
  20:src/kernel/KSemaphore.cpp **** 
 184              		.loc 1 20 14 is_stmt 0
 185 00e0 97000000 		call	_ZN10KSemaphore5blockEv
 185      E7800000 
 186              	.LVL10:
  22:src/kernel/KSemaphore.cpp **** }
 187              		.loc 1 22 5 is_stmt 1
  23:src/kernel/KSemaphore.cpp **** 
 188              		.loc 1 23 1 is_stmt 0
 189 00e8 13050000 		li	a0,0
 190 00ec 83308100 		ld	ra,8(sp)
 191              		.cfi_restore 1
 192 00f0 03340100 		ld	s0,0(sp)
 193              		.cfi_restore 8
 194              		.cfi_def_cfa 2, 16
 195 00f4 13010101 		addi	sp,sp,16
 196              		.cfi_def_cfa_offset 0
 197 00f8 67800000 		jr	ra
 198              		.cfi_endproc
 199              	.LFE28:
 201              		.align	2
 202              		.globl	_ZN10KSemaphore15getFirstBlockedEv
 204              	_ZN10KSemaphore15getFirstBlockedEv:
 205              	.LFB36:
  81:src/kernel/KSemaphore.cpp **** 
  82:src/kernel/KSemaphore.cpp **** PCB* KSemaphore::getFirstBlocked()
  83:src/kernel/KSemaphore.cpp **** {
 206              		.loc 1 83 1 is_stmt 1
 207              		.cfi_startproc
 208              	.LVL11:
 209 00fc 130101FF 		addi	sp,sp,-16
 210              		.cfi_def_cfa_offset 16
 211 0100 23348100 		sd	s0,8(sp)
GAS LISTING /tmp/cc6syZG2.s 			page 7


 212              		.cfi_offset 8, -8
 213 0104 13040101 		addi	s0,sp,16
 214              		.cfi_def_cfa 8, 0
  84:src/kernel/KSemaphore.cpp ****    return headBlocked;
 215              		.loc 1 84 4
  85:src/kernel/KSemaphore.cpp **** }
 216              		.loc 1 85 1 is_stmt 0
 217 0108 03350500 		ld	a0,0(a0)
 218              	.LVL12:
 219 010c 03348100 		ld	s0,8(sp)
 220              		.cfi_restore 8
 221              		.cfi_def_cfa 2, 16
 222 0110 13010101 		addi	sp,sp,16
 223              		.cfi_def_cfa_offset 0
 224 0114 67800000 		jr	ra
 225              		.cfi_endproc
 226              	.LFE36:
 228              		.align	2
 229              		.globl	_ZN10KSemaphore18removeFirstBlockedEv
 231              	_ZN10KSemaphore18removeFirstBlockedEv:
 232              	.LFB37:
  86:src/kernel/KSemaphore.cpp **** 
  87:src/kernel/KSemaphore.cpp **** void KSemaphore::removeFirstBlocked()
  88:src/kernel/KSemaphore.cpp **** {
 233              		.loc 1 88 1 is_stmt 1
 234              		.cfi_startproc
 235              	.LVL13:
 236 0118 130101FF 		addi	sp,sp,-16
 237              		.cfi_def_cfa_offset 16
 238 011c 23348100 		sd	s0,8(sp)
 239              		.cfi_offset 8, -8
 240 0120 13040101 		addi	s0,sp,16
 241              		.cfi_def_cfa 8, 0
  89:src/kernel/KSemaphore.cpp ****     if(headBlocked == 0)
 242              		.loc 1 89 5
 243              		.loc 1 89 8 is_stmt 0
 244 0124 83370500 		ld	a5,0(a0)
 245              		.loc 1 89 5
 246 0128 638C0700 		beqz	a5,.L19
  90:src/kernel/KSemaphore.cpp ****         return;
  91:src/kernel/KSemaphore.cpp ****     PCB* first = headBlocked;
 247              		.loc 1 91 5 is_stmt 1
 248              	.LVL14:
  92:src/kernel/KSemaphore.cpp ****     headBlocked = headBlocked->nextPCB;
 249              		.loc 1 92 5
 250              		.loc 1 92 32 is_stmt 0
 251 012c 03B78700 		ld	a4,8(a5)
 252              		.loc 1 92 17
 253 0130 2330E500 		sd	a4,0(a0)
  93:src/kernel/KSemaphore.cpp ****     first->nextPCB = 0;
 254              		.loc 1 93 5 is_stmt 1
 255              		.loc 1 93 20 is_stmt 0
 256 0134 23B40700 		sd	zero,8(a5)
  94:src/kernel/KSemaphore.cpp ****     if(headBlocked == 0)
 257              		.loc 1 94 5 is_stmt 1
 258              		.loc 1 94 8 is_stmt 0
 259 0138 83370500 		ld	a5,0(a0)
GAS LISTING /tmp/cc6syZG2.s 			page 8


 260              	.LVL15:
 261              		.loc 1 94 5
 262 013c 63880700 		beqz	a5,.L22
 263              	.L19:
  95:src/kernel/KSemaphore.cpp ****         tailBlocked =0;
  96:src/kernel/KSemaphore.cpp **** }
 264              		.loc 1 96 1
 265 0140 03348100 		ld	s0,8(sp)
 266              		.cfi_remember_state
 267              		.cfi_restore 8
 268              		.cfi_def_cfa 2, 16
 269 0144 13010101 		addi	sp,sp,16
 270              		.cfi_def_cfa_offset 0
 271 0148 67800000 		jr	ra
 272              	.L22:
 273              		.cfi_restore_state
  95:src/kernel/KSemaphore.cpp ****         tailBlocked =0;
 274              		.loc 1 95 9 is_stmt 1
  95:src/kernel/KSemaphore.cpp ****         tailBlocked =0;
 275              		.loc 1 95 21 is_stmt 0
 276 014c 23340500 		sd	zero,8(a0)
 277 0150 6FF01FFF 		j	.L19
 278              		.cfi_endproc
 279              	.LFE37:
 281              		.align	2
 282              		.globl	_ZN10KSemaphoreD2Ev
 284              	_ZN10KSemaphoreD2Ev:
 285              	.LFB32:
  50:src/kernel/KSemaphore.cpp **** {
 286              		.loc 1 50 1 is_stmt 1
 287              		.cfi_startproc
 288              		.cfi_personality 0x9b,DW.ref.__gxx_personality_v0
 289              		.cfi_lsda 0x1b,.LLSDA32
 290              	.LVL16:
 291 0154 130101FE 		addi	sp,sp,-32
 292              		.cfi_def_cfa_offset 32
 293 0158 233C1100 		sd	ra,24(sp)
 294 015c 23388100 		sd	s0,16(sp)
 295 0160 23349100 		sd	s1,8(sp)
 296 0164 23302101 		sd	s2,0(sp)
 297              		.cfi_offset 1, -8
 298              		.cfi_offset 8, -16
 299              		.cfi_offset 9, -24
 300              		.cfi_offset 18, -32
 301 0168 13040102 		addi	s0,sp,32
 302              		.cfi_def_cfa 8, 0
 303 016c 13090500 		mv	s2,a0
 304              	.LVL17:
 305              	.L25:
 306              	.LBB7:
  52:src/kernel/KSemaphore.cpp ****     {
 307              		.loc 1 52 5
  52:src/kernel/KSemaphore.cpp ****     {
 308              		.loc 1 52 29
  52:src/kernel/KSemaphore.cpp ****     {
 309              		.loc 1 52 26 is_stmt 0
 310 0170 13050900 		mv	a0,s2
GAS LISTING /tmp/cc6syZG2.s 			page 9


 311 0174 97000000 		call	_ZN10KSemaphore15getFirstBlockedEv
 311      E7800000 
 312              	.LVL18:
 313 017c 93040500 		mv	s1,a0
  52:src/kernel/KSemaphore.cpp ****     {
 314              		.loc 1 52 29
 315 0180 63040502 		beqz	a0,.L23
 316              	.LBB8:
  54:src/kernel/KSemaphore.cpp ****         removeFirstBlocked();
 317              		.loc 1 54 9 is_stmt 1
 318              	.LVL19:
  55:src/kernel/KSemaphore.cpp ****         pcb->retFromClosedSem = true;
 319              		.loc 1 55 9
  55:src/kernel/KSemaphore.cpp ****         pcb->retFromClosedSem = true;
 320              		.loc 1 55 27 is_stmt 0
 321 0184 13050900 		mv	a0,s2
 322 0188 97000000 		call	_ZN10KSemaphore18removeFirstBlockedEv
 322      E7800000 
 323              	.LVL20:
  56:src/kernel/KSemaphore.cpp ****         Scheduler::put(pcb);
 324              		.loc 1 56 9 is_stmt 1
  56:src/kernel/KSemaphore.cpp ****         Scheduler::put(pcb);
 325              		.loc 1 56 31 is_stmt 0
 326 0190 93071000 		li	a5,1
 327 0194 238CF404 		sb	a5,88(s1)
  57:src/kernel/KSemaphore.cpp ****     }
 328              		.loc 1 57 9 is_stmt 1
  57:src/kernel/KSemaphore.cpp ****     }
 329              		.loc 1 57 23 is_stmt 0
 330 0198 13850400 		mv	a0,s1
 331 019c 97000000 		call	_ZN9Scheduler3putEP3PCB@plt
 331      E7800000 
 332              	.LVL21:
 333              	.LBE8:
  52:src/kernel/KSemaphore.cpp ****     {
 334              		.loc 1 52 5
 335 01a4 6FF0DFFC 		j	.L25
 336              	.LVL22:
 337              	.L23:
 338              	.LBE7:
  59:src/kernel/KSemaphore.cpp **** 
 339              		.loc 1 59 1
 340 01a8 83308101 		ld	ra,24(sp)
 341              		.cfi_restore 1
 342 01ac 03340101 		ld	s0,16(sp)
 343              		.cfi_restore 8
 344              		.cfi_def_cfa 2, 32
 345 01b0 83348100 		ld	s1,8(sp)
 346              		.cfi_restore 9
 347 01b4 03390100 		ld	s2,0(sp)
 348              		.cfi_restore 18
 349              	.LVL23:
 350 01b8 13010102 		addi	sp,sp,32
 351              		.cfi_def_cfa_offset 0
 352 01bc 67800000 		jr	ra
 353              		.cfi_endproc
 354              	.LFE32:
GAS LISTING /tmp/cc6syZG2.s 			page 10


 355              		.globl	__gxx_personality_v0
 356              		.section	.gcc_except_table,"a",@progbits
 357              	.LLSDA32:
 358 0000 FF       		.byte	0xff
 359 0001 FF       		.byte	0xff
 360 0002 03       		.byte	0x3
 361 0003 00       		.byte	0
 362              		.text
 364              		.globl	_ZN10KSemaphoreD1Ev
 365              		.set	_ZN10KSemaphoreD1Ev,_ZN10KSemaphoreD2Ev
 366              		.align	2
 367              		.globl	_ZN10KSemaphore7unblockEv
 369              	_ZN10KSemaphore7unblockEv:
 370              	.LFB38:
  97:src/kernel/KSemaphore.cpp **** 
  98:src/kernel/KSemaphore.cpp **** void KSemaphore::unblock() {
 371              		.loc 1 98 28 is_stmt 1
 372              		.cfi_startproc
 373              	.LVL24:
 374 01c0 130101FE 		addi	sp,sp,-32
 375              		.cfi_def_cfa_offset 32
 376 01c4 233C1100 		sd	ra,24(sp)
 377 01c8 23388100 		sd	s0,16(sp)
 378 01cc 23349100 		sd	s1,8(sp)
 379 01d0 23302101 		sd	s2,0(sp)
 380              		.cfi_offset 1, -8
 381              		.cfi_offset 8, -16
 382              		.cfi_offset 9, -24
 383              		.cfi_offset 18, -32
 384 01d4 13040102 		addi	s0,sp,32
 385              		.cfi_def_cfa 8, 0
 386 01d8 13090500 		mv	s2,a0
  99:src/kernel/KSemaphore.cpp ****     PCB* fr = getFirstBlocked();
 387              		.loc 1 99 5
 388              		.loc 1 99 30 is_stmt 0
 389 01dc 97000000 		call	_ZN10KSemaphore15getFirstBlockedEv
 389      E7800000 
 390              	.LVL25:
 391 01e4 93040500 		mv	s1,a0
 392              	.LVL26:
 100:src/kernel/KSemaphore.cpp ****     removeFirstBlocked();
 393              		.loc 1 100 5 is_stmt 1
 394              		.loc 1 100 23 is_stmt 0
 395 01e8 13050900 		mv	a0,s2
 396 01ec 97000000 		call	_ZN10KSemaphore18removeFirstBlockedEv
 396      E7800000 
 397              	.LVL27:
 101:src/kernel/KSemaphore.cpp ****     if(fr != 0)
 398              		.loc 1 101 5 is_stmt 1
 399 01f4 63880400 		beqz	s1,.L27
 102:src/kernel/KSemaphore.cpp ****     {
 103:src/kernel/KSemaphore.cpp ****         Scheduler::put(fr);
 400              		.loc 1 103 9
 401              		.loc 1 103 23 is_stmt 0
 402 01f8 13850400 		mv	a0,s1
 403 01fc 97000000 		call	_ZN9Scheduler3putEP3PCB@plt
 403      E7800000 
GAS LISTING /tmp/cc6syZG2.s 			page 11


 404              	.LVL28:
 405              	.L27:
 104:src/kernel/KSemaphore.cpp ****     }
 105:src/kernel/KSemaphore.cpp **** }
 406              		.loc 1 105 1
 407 0204 83308101 		ld	ra,24(sp)
 408              		.cfi_restore 1
 409 0208 03340101 		ld	s0,16(sp)
 410              		.cfi_restore 8
 411              		.cfi_def_cfa 2, 32
 412 020c 83348100 		ld	s1,8(sp)
 413              		.cfi_restore 9
 414              	.LVL29:
 415 0210 03390100 		ld	s2,0(sp)
 416              		.cfi_restore 18
 417              	.LVL30:
 418 0214 13010102 		addi	sp,sp,32
 419              		.cfi_def_cfa_offset 0
 420 0218 67800000 		jr	ra
 421              		.cfi_endproc
 422              	.LFE38:
 424              		.align	2
 425              		.globl	_ZN10KSemaphore6signalEv
 427              	_ZN10KSemaphore6signalEv:
 428              	.LFB29:
  25:src/kernel/KSemaphore.cpp ****     if(++val <= 0)
 429              		.loc 1 25 29 is_stmt 1
 430              		.cfi_startproc
 431              	.LVL31:
  26:src/kernel/KSemaphore.cpp ****         unblock();
 432              		.loc 1 26 5
  26:src/kernel/KSemaphore.cpp ****         unblock();
 433              		.loc 1 26 10 is_stmt 0
 434 021c 83270501 		lw	a5,16(a0)
  26:src/kernel/KSemaphore.cpp ****         unblock();
 435              		.loc 1 26 8
 436 0220 9B871700 		addiw	a5,a5,1
 437 0224 1B870700 		sext.w	a4,a5
  26:src/kernel/KSemaphore.cpp ****         unblock();
 438              		.loc 1 26 14
 439 0228 2328F500 		sw	a5,16(a0)
  26:src/kernel/KSemaphore.cpp ****         unblock();
 440              		.loc 1 26 5
 441 022c 6356E000 		blez	a4,.L36
  29:src/kernel/KSemaphore.cpp **** }
 442              		.loc 1 29 5 is_stmt 1
  30:src/kernel/KSemaphore.cpp **** 
 443              		.loc 1 30 1 is_stmt 0
 444 0230 13050000 		li	a0,0
 445              	.LVL32:
 446 0234 67800000 		ret
 447              	.LVL33:
 448              	.L36:
  25:src/kernel/KSemaphore.cpp ****     if(++val <= 0)
 449              		.loc 1 25 29
 450 0238 130101FF 		addi	sp,sp,-16
 451              		.cfi_def_cfa_offset 16
GAS LISTING /tmp/cc6syZG2.s 			page 12


 452 023c 23341100 		sd	ra,8(sp)
 453 0240 23308100 		sd	s0,0(sp)
 454              		.cfi_offset 1, -8
 455              		.cfi_offset 8, -16
 456 0244 13040101 		addi	s0,sp,16
 457              		.cfi_def_cfa 8, 0
  27:src/kernel/KSemaphore.cpp **** 
 458              		.loc 1 27 9 is_stmt 1
  27:src/kernel/KSemaphore.cpp **** 
 459              		.loc 1 27 16 is_stmt 0
 460 0248 97000000 		call	_ZN10KSemaphore7unblockEv
 460      E7800000 
 461              	.LVL34:
  29:src/kernel/KSemaphore.cpp **** }
 462              		.loc 1 29 5 is_stmt 1
  30:src/kernel/KSemaphore.cpp **** 
 463              		.loc 1 30 1 is_stmt 0
 464 0250 13050000 		li	a0,0
 465 0254 83308100 		ld	ra,8(sp)
 466              		.cfi_restore 1
 467 0258 03340100 		ld	s0,0(sp)
 468              		.cfi_restore 8
 469              		.cfi_def_cfa 2, 16
 470 025c 13010101 		addi	sp,sp,16
 471              		.cfi_def_cfa_offset 0
 472 0260 67800000 		jr	ra
 473              		.cfi_endproc
 474              	.LFE29:
 476              		.align	2
 477              		.globl	_ZN10KSemaphorenwEm
 479              	_ZN10KSemaphorenwEm:
 480              	.LFB39:
 106:src/kernel/KSemaphore.cpp **** void *KSemaphore::operator new(size_t size) {
 481              		.loc 1 106 45 is_stmt 1
 482              		.cfi_startproc
 483              	.LVL35:
 484 0264 130101FF 		addi	sp,sp,-16
 485              		.cfi_def_cfa_offset 16
 486 0268 23341100 		sd	ra,8(sp)
 487 026c 23308100 		sd	s0,0(sp)
 488              		.cfi_offset 1, -8
 489              		.cfi_offset 8, -16
 490 0270 13040101 		addi	s0,sp,16
 491              		.cfi_def_cfa 8, 0
 107:src/kernel/KSemaphore.cpp ****     return kmem_cache_alloc(Riscv::semaphoreCache);
 492              		.loc 1 107 5
 493              		.loc 1 107 28 is_stmt 0
 494 0274 97070000 		la	a5,_ZN5Riscv14semaphoreCacheE
 494      83B70700 
 495 027c 03B50700 		ld	a0,0(a5)
 496              	.LVL36:
 497 0280 97000000 		call	_Z16kmem_cache_allocP12kmem_cache_s@plt
 497      E7800000 
 498              	.LVL37:
 108:src/kernel/KSemaphore.cpp ****     //return MemoryAllocator::kmalloc(size);
 109:src/kernel/KSemaphore.cpp **** }
 499              		.loc 1 109 1
GAS LISTING /tmp/cc6syZG2.s 			page 13


 500 0288 83308100 		ld	ra,8(sp)
 501              		.cfi_restore 1
 502 028c 03340100 		ld	s0,0(sp)
 503              		.cfi_restore 8
 504              		.cfi_def_cfa 2, 16
 505 0290 13010101 		addi	sp,sp,16
 506              		.cfi_def_cfa_offset 0
 507 0294 67800000 		jr	ra
 508              		.cfi_endproc
 509              	.LFE39:
 511              		.align	2
 512              		.globl	_ZN10KSemaphore14semOpenHandlerEv
 514              	_ZN10KSemaphore14semOpenHandlerEv:
 515              	.LFB30:
  33:src/kernel/KSemaphore.cpp ****     uint64 val;
 516              		.loc 1 33 1 is_stmt 1
 517              		.cfi_startproc
 518 0298 130101FD 		addi	sp,sp,-48
 519              		.cfi_def_cfa_offset 48
 520 029c 23341102 		sd	ra,40(sp)
 521 02a0 23308102 		sd	s0,32(sp)
 522 02a4 233C9100 		sd	s1,24(sp)
 523 02a8 23382101 		sd	s2,16(sp)
 524 02ac 23343101 		sd	s3,8(sp)
 525              		.cfi_offset 1, -8
 526              		.cfi_offset 8, -16
 527              		.cfi_offset 9, -24
 528              		.cfi_offset 18, -32
 529              		.cfi_offset 19, -40
 530 02b0 13040103 		addi	s0,sp,48
 531              		.cfi_def_cfa 8, 0
  34:src/kernel/KSemaphore.cpp ****     KSemaphore** semaphoreHandle;
 532              		.loc 1 34 5
  35:src/kernel/KSemaphore.cpp ****     __asm__ volatile("mv %0, a1" : "=r"(semaphoreHandle));
 533              		.loc 1 35 5
  36:src/kernel/KSemaphore.cpp ****     __asm__ volatile("mv %0, a2" : "=r"(val));
 534              		.loc 1 36 5
  36:src/kernel/KSemaphore.cpp ****     __asm__ volatile("mv %0, a2" : "=r"(val));
 535              		.loc 1 36 58 is_stmt 0
 536              	#APP
 537              	# 36 "src/kernel/KSemaphore.cpp" 1
 538              		mv s2, a1
 539              	# 0 "" 2
 540              	.LVL38:
  37:src/kernel/KSemaphore.cpp **** 
 541              		.loc 1 37 5 is_stmt 1
  37:src/kernel/KSemaphore.cpp **** 
 542              		.loc 1 37 46 is_stmt 0
 543              	# 37 "src/kernel/KSemaphore.cpp" 1
 544              		mv s3, a2
 545              	# 0 "" 2
 546              	.LVL39:
  39:src/kernel/KSemaphore.cpp **** 
 547              		.loc 1 39 5 is_stmt 1
  39:src/kernel/KSemaphore.cpp **** 
 548              		.loc 1 39 44 is_stmt 0
 549              	#NO_APP
GAS LISTING /tmp/cc6syZG2.s 			page 14


 550 02bc 13058001 		li	a0,24
 551 02c0 97000000 		call	_ZN10KSemaphorenwEm
 551      E7800000 
 552              	.LVL40:
 553 02c8 93040500 		mv	s1,a0
 554 02cc 63080500 		beqz	a0,.L40
  39:src/kernel/KSemaphore.cpp **** 
 555              		.loc 1 39 44 discriminator 1
 556 02d0 9B850900 		sext.w	a1,s3
 557 02d4 97000000 		call	_ZN10KSemaphoreC1Ei
 557      E7800000 
 558              	.LVL41:
 559              	.L40:
  41:src/kernel/KSemaphore.cpp **** 
 560              		.loc 1 41 5 is_stmt 1 discriminator 4
  41:src/kernel/KSemaphore.cpp **** 
 561              		.loc 1 41 24 is_stmt 0 discriminator 4
 562 02dc 23309900 		sd	s1,0(s2)
  43:src/kernel/KSemaphore.cpp ****             __asm__ volatile("li a0, 0xffffffffffffffff");
 563              		.loc 1 43 5 is_stmt 1 discriminator 4
 564 02e0 63860402 		beqz	s1,.L44
  46:src/kernel/KSemaphore.cpp ****     Riscv::w_a0_sscratch();
 565              		.loc 1 46 13
  46:src/kernel/KSemaphore.cpp ****     Riscv::w_a0_sscratch();
 566              		.loc 1 46 41 is_stmt 0
 567              	#APP
 568              	# 46 "src/kernel/KSemaphore.cpp" 1
 569              		li a0, 0
 570              	# 0 "" 2
 571              	#NO_APP
 572              	.L42:
  47:src/kernel/KSemaphore.cpp **** }
 573              		.loc 1 47 5 is_stmt 1
  47:src/kernel/KSemaphore.cpp **** }
 574              		.loc 1 47 25 is_stmt 0
 575 02e8 97000000 		call	_ZN5Riscv13w_a0_sscratchEv@plt
 575      E7800000 
 576              	.LVL42:
  48:src/kernel/KSemaphore.cpp **** 
 577              		.loc 1 48 1
 578 02f0 83308102 		ld	ra,40(sp)
 579              		.cfi_remember_state
 580              		.cfi_restore 1
 581 02f4 03340102 		ld	s0,32(sp)
 582              		.cfi_restore 8
 583              		.cfi_def_cfa 2, 48
 584 02f8 83348101 		ld	s1,24(sp)
 585              		.cfi_restore 9
 586              	.LVL43:
 587 02fc 03390101 		ld	s2,16(sp)
 588              		.cfi_restore 18
 589              	.LVL44:
 590 0300 83398100 		ld	s3,8(sp)
 591              		.cfi_restore 19
 592              	.LVL45:
 593 0304 13010103 		addi	sp,sp,48
 594              		.cfi_def_cfa_offset 0
GAS LISTING /tmp/cc6syZG2.s 			page 15


 595 0308 67800000 		jr	ra
 596              	.LVL46:
 597              	.L44:
 598              		.cfi_restore_state
  44:src/kernel/KSemaphore.cpp ****     else
 599              		.loc 1 44 13 is_stmt 1
  44:src/kernel/KSemaphore.cpp ****     else
 600              		.loc 1 44 58 is_stmt 0
 601              	#APP
 602              	# 44 "src/kernel/KSemaphore.cpp" 1
 603              		li a0, 0xffffffffffffffff
 604              	# 0 "" 2
 605              	#NO_APP
 606 0310 6FF09FFD 		j	.L42
 607              		.cfi_endproc
 608              	.LFE30:
 610              		.align	2
 611              		.globl	_ZN10KSemaphoredlEPv
 613              	_ZN10KSemaphoredlEPv:
 614              	.LFB40:
 110:src/kernel/KSemaphore.cpp **** 
 111:src/kernel/KSemaphore.cpp **** void KSemaphore::operator delete(void *p)
 112:src/kernel/KSemaphore.cpp **** {
 615              		.loc 1 112 1 is_stmt 1
 616              		.cfi_startproc
 617              	.LVL47:
 618 0314 130101FF 		addi	sp,sp,-16
 619              		.cfi_def_cfa_offset 16
 620 0318 23341100 		sd	ra,8(sp)
 621 031c 23308100 		sd	s0,0(sp)
 622              		.cfi_offset 1, -8
 623              		.cfi_offset 8, -16
 624 0320 13040101 		addi	s0,sp,16
 625              		.cfi_def_cfa 8, 0
 626 0324 93050500 		mv	a1,a0
 113:src/kernel/KSemaphore.cpp ****     kmem_cache_free(Riscv::semaphoreCache, p);
 627              		.loc 1 113 5
 628              		.loc 1 113 20 is_stmt 0
 629 0328 97070000 		la	a5,_ZN5Riscv14semaphoreCacheE
 629      83B70700 
 630 0330 03B50700 		ld	a0,0(a5)
 631              	.LVL48:
 632 0334 97000000 		call	_Z15kmem_cache_freeP12kmem_cache_sPv@plt
 632      E7800000 
 633              	.LVL49:
 114:src/kernel/KSemaphore.cpp ****     //MemoryAllocator::kfree(p);
 115:src/kernel/KSemaphore.cpp **** }
 634              		.loc 1 115 1
 635 033c 83308100 		ld	ra,8(sp)
 636              		.cfi_restore 1
 637 0340 03340100 		ld	s0,0(sp)
 638              		.cfi_restore 8
 639              		.cfi_def_cfa 2, 16
 640 0344 13010101 		addi	sp,sp,16
 641              		.cfi_def_cfa_offset 0
 642 0348 67800000 		jr	ra
 643              		.cfi_endproc
GAS LISTING /tmp/cc6syZG2.s 			page 16


 644              	.LFE40:
 646              		.align	2
 647              		.globl	_ZN10KSemaphore14semWaitHandlerEv
 649              	_ZN10KSemaphore14semWaitHandlerEv:
 650              	.LFB41:
 116:src/kernel/KSemaphore.cpp **** 
 117:src/kernel/KSemaphore.cpp **** void KSemaphore::semWaitHandler()
 118:src/kernel/KSemaphore.cpp **** {
 651              		.loc 1 118 1 is_stmt 1
 652              		.cfi_startproc
 653 034c 130101FF 		addi	sp,sp,-16
 654              		.cfi_def_cfa_offset 16
 655 0350 23341100 		sd	ra,8(sp)
 656 0354 23308100 		sd	s0,0(sp)
 657              		.cfi_offset 1, -8
 658              		.cfi_offset 8, -16
 659 0358 13040101 		addi	s0,sp,16
 660              		.cfi_def_cfa 8, 0
 119:src/kernel/KSemaphore.cpp ****     KSemaphore* kSem;
 661              		.loc 1 119 5
 120:src/kernel/KSemaphore.cpp ****     __asm__ volatile("mv %0, a1" : "=r"(kSem));
 662              		.loc 1 120 5
 663              		.loc 1 120 47 is_stmt 0
 664              	#APP
 665              	# 120 "src/kernel/KSemaphore.cpp" 1
 121              	    kSem->wait();
 666              		mv a0, a1
 667              	# 0 "" 2
 668              	.LVL50:
 669              		.loc 1 121 5 is_stmt 1
 670              		.loc 1 121 15 is_stmt 0
 671              	#NO_APP
 672 0360 97000000 		call	_ZN10KSemaphore4waitEv
 672      E7800000 
 673              	.LVL51:
 122:src/kernel/KSemaphore.cpp ****     if(PCB::running->retFromClosedSem)
 674              		.loc 1 122 5 is_stmt 1
 675              		.loc 1 122 22 is_stmt 0
 676 0368 97070000 		la	a5,_ZN3PCB7runningE
 676      83B70700 
 677 0370 83B70700 		ld	a5,0(a5)
 678 0374 83C78705 		lbu	a5,88(a5)
 679              		.loc 1 122 5
 680 0378 63800702 		beqz	a5,.L48
 123:src/kernel/KSemaphore.cpp ****         __asm__ volatile("li a0, 0x1");
 681              		.loc 1 123 9 is_stmt 1
 682              		.loc 1 123 39 is_stmt 0
 683              	#APP
 684              	# 123 "src/kernel/KSemaphore.cpp" 1
 124              	    else
 685              		li a0, 0x1
 686              	# 0 "" 2
 687              	#NO_APP
 688              	.L49:
 125:src/kernel/KSemaphore.cpp ****         __asm__ volatile("li a0, 0x0");
 126:src/kernel/KSemaphore.cpp ****     Riscv::w_a0_sscratch();
 689              		.loc 1 126 5 is_stmt 1
GAS LISTING /tmp/cc6syZG2.s 			page 17


 690              		.loc 1 126 25 is_stmt 0
 691 0380 97000000 		call	_ZN5Riscv13w_a0_sscratchEv@plt
 691      E7800000 
 692              	.LVL52:
 127:src/kernel/KSemaphore.cpp **** }
 693              		.loc 1 127 1
 694 0388 83308100 		ld	ra,8(sp)
 695              		.cfi_remember_state
 696              		.cfi_restore 1
 697 038c 03340100 		ld	s0,0(sp)
 698              		.cfi_restore 8
 699              		.cfi_def_cfa 2, 16
 700 0390 13010101 		addi	sp,sp,16
 701              		.cfi_def_cfa_offset 0
 702 0394 67800000 		jr	ra
 703              	.L48:
 704              		.cfi_restore_state
 125:src/kernel/KSemaphore.cpp ****         __asm__ volatile("li a0, 0x0");
 705              		.loc 1 125 9 is_stmt 1
 125:src/kernel/KSemaphore.cpp ****         __asm__ volatile("li a0, 0x0");
 706              		.loc 1 125 39 is_stmt 0
 707              	#APP
 708              	# 125 "src/kernel/KSemaphore.cpp" 1
 709              		li a0, 0x0
 710              	# 0 "" 2
 711              	#NO_APP
 712 039c 6FF05FFE 		j	.L49
 713              		.cfi_endproc
 714              	.LFE41:
 716              		.align	2
 717              		.globl	_ZN10KSemaphore16semSignalHandlerEv
 719              	_ZN10KSemaphore16semSignalHandlerEv:
 720              	.LFB42:
 128:src/kernel/KSemaphore.cpp **** 
 129:src/kernel/KSemaphore.cpp **** void KSemaphore::semSignalHandler() {
 721              		.loc 1 129 37 is_stmt 1
 722              		.cfi_startproc
 723 03a0 130101FF 		addi	sp,sp,-16
 724              		.cfi_def_cfa_offset 16
 725 03a4 23341100 		sd	ra,8(sp)
 726 03a8 23308100 		sd	s0,0(sp)
 727              		.cfi_offset 1, -8
 728              		.cfi_offset 8, -16
 729 03ac 13040101 		addi	s0,sp,16
 730              		.cfi_def_cfa 8, 0
 130:src/kernel/KSemaphore.cpp ****     KSemaphore *kSem;
 731              		.loc 1 130 5
 131:src/kernel/KSemaphore.cpp ****     __asm__ volatile("mv %0, a1" : "=r"(kSem));
 732              		.loc 1 131 5
 733              		.loc 1 131 47 is_stmt 0
 734              	#APP
 735              	# 131 "src/kernel/KSemaphore.cpp" 1
 132              	    if (kSem == 0)
 736              		mv a0, a1
 737              	# 0 "" 2
 738              	.LVL53:
 739              		.loc 1 132 5 is_stmt 1
GAS LISTING /tmp/cc6syZG2.s 			page 18


 740              	#NO_APP
 741 03b4 63040502 		beqz	a0,.L55
 133:src/kernel/KSemaphore.cpp ****     {
 134:src/kernel/KSemaphore.cpp ****         __asm__ volatile("li a0, 0x1");
 135:src/kernel/KSemaphore.cpp ****     }
 136:src/kernel/KSemaphore.cpp ****     else
 137:src/kernel/KSemaphore.cpp ****     {
 138:src/kernel/KSemaphore.cpp ****         kSem->signal();
 742              		.loc 1 138 9
 743              		.loc 1 138 21 is_stmt 0
 744 03b8 97000000 		call	_ZN10KSemaphore6signalEv
 744      E7800000 
 745              	.LVL54:
 139:src/kernel/KSemaphore.cpp ****         __asm__ volatile("li a0, 0x0");
 746              		.loc 1 139 9 is_stmt 1
 747              		.loc 1 139 39 is_stmt 0
 748              	#APP
 749              	# 139 "src/kernel/KSemaphore.cpp" 1
 140              	    }
 750              		li a0, 0x0
 751              	# 0 "" 2
 752              	#NO_APP
 753              	.L53:
 141:src/kernel/KSemaphore.cpp ****     Riscv::w_a0_sscratch();
 754              		.loc 1 141 5 is_stmt 1
 755              		.loc 1 141 25 is_stmt 0
 756 03c4 97000000 		call	_ZN5Riscv13w_a0_sscratchEv@plt
 756      E7800000 
 757              	.LVL55:
 142:src/kernel/KSemaphore.cpp **** }
 758              		.loc 1 142 1
 759 03cc 83308100 		ld	ra,8(sp)
 760              		.cfi_remember_state
 761              		.cfi_restore 1
 762 03d0 03340100 		ld	s0,0(sp)
 763              		.cfi_restore 8
 764              		.cfi_def_cfa 2, 16
 765 03d4 13010101 		addi	sp,sp,16
 766              		.cfi_def_cfa_offset 0
 767 03d8 67800000 		jr	ra
 768              	.LVL56:
 769              	.L55:
 770              		.cfi_restore_state
 134:src/kernel/KSemaphore.cpp ****     }
 771              		.loc 1 134 9 is_stmt 1
 134:src/kernel/KSemaphore.cpp ****     }
 772              		.loc 1 134 39 is_stmt 0
 773              	#APP
 774              	# 134 "src/kernel/KSemaphore.cpp" 1
 775              		li a0, 0x1
 776              	# 0 "" 2
 777              	#NO_APP
 778 03e0 6FF05FFE 		j	.L53
 779              		.cfi_endproc
 780              	.LFE42:
 782              		.align	2
 783              		.globl	_ZN10KSemaphore15semCloseHandlerEv
GAS LISTING /tmp/cc6syZG2.s 			page 19


 785              	_ZN10KSemaphore15semCloseHandlerEv:
 786              	.LFB43:
 143:src/kernel/KSemaphore.cpp **** 
 144:src/kernel/KSemaphore.cpp **** void KSemaphore::semCloseHandler()
 145:src/kernel/KSemaphore.cpp **** {
 787              		.loc 1 145 1 is_stmt 1
 788              		.cfi_startproc
 789 03e4 130101FE 		addi	sp,sp,-32
 790              		.cfi_def_cfa_offset 32
 791 03e8 233C1100 		sd	ra,24(sp)
 792 03ec 23388100 		sd	s0,16(sp)
 793 03f0 23349100 		sd	s1,8(sp)
 794              		.cfi_offset 1, -8
 795              		.cfi_offset 8, -16
 796              		.cfi_offset 9, -24
 797 03f4 13040102 		addi	s0,sp,32
 798              		.cfi_def_cfa 8, 0
 146:src/kernel/KSemaphore.cpp ****     KSemaphore* kSem;
 799              		.loc 1 146 5
 147:src/kernel/KSemaphore.cpp ****     __asm__ volatile("mv %0, a1" : "=r"(kSem));
 800              		.loc 1 147 5
 801              		.loc 1 147 47 is_stmt 0
 802              	#APP
 803              	# 147 "src/kernel/KSemaphore.cpp" 1
 148              	    delete kSem;
 804              		mv s1, a1
 805              	# 0 "" 2
 806              	.LVL57:
 807              		.loc 1 148 5 is_stmt 1
 808              		.loc 1 148 16 is_stmt 0
 809              	#NO_APP
 810 03fc 638E0400 		beqz	s1,.L57
 811              		.loc 1 148 12 discriminator 1
 812 0400 13850400 		mv	a0,s1
 813 0404 97000000 		call	_ZN10KSemaphoreD1Ev
 813      E7800000 
 814              	.LVL58:
 815 040c 13850400 		mv	a0,s1
 816 0410 97000000 		call	_ZN10KSemaphoredlEPv
 816      E7800000 
 817              	.LVL59:
 818              	.L57:
 149:src/kernel/KSemaphore.cpp ****     __asm__ volatile("li a0, 0");
 819              		.loc 1 149 5 is_stmt 1
 820              		.loc 1 149 33 is_stmt 0
 821              	#APP
 822              	# 149 "src/kernel/KSemaphore.cpp" 1
 150              	    Riscv::w_a0_sscratch();
 823              		li a0, 0
 824              	# 0 "" 2
 825              		.loc 1 150 5 is_stmt 1
 826              		.loc 1 150 25 is_stmt 0
 827              	#NO_APP
 828 041c 97000000 		call	_ZN5Riscv13w_a0_sscratchEv@plt
 828      E7800000 
 829              	.LVL60:
 151:src/kernel/KSemaphore.cpp **** }
GAS LISTING /tmp/cc6syZG2.s 			page 20


 830              		.loc 1 151 1
 831 0424 83308101 		ld	ra,24(sp)
 832              		.cfi_restore 1
 833 0428 03340101 		ld	s0,16(sp)
 834              		.cfi_restore 8
 835              		.cfi_def_cfa 2, 32
 836 042c 83348100 		ld	s1,8(sp)
 837              		.cfi_restore 9
 838              	.LVL61:
 839 0430 13010102 		addi	sp,sp,32
 840              		.cfi_def_cfa_offset 0
 841 0434 67800000 		jr	ra
 842              		.cfi_endproc
 843              	.LFE43:
 845              	.Letext0:
 846              		.file 3 "src/kernel/../../h/../lib/hw.h"
 847              		.file 4 "src/kernel/../../h/KSemaphore.hpp"
 848              		.file 5 "src/kernel/../../h/slabAllocator.hpp"
 849              		.file 6 "src/kernel/../../h/Riscv.hpp"
 850              		.file 7 "src/kernel/../../h/Scheduler.hpp"
 4554              		.align	3
 4557              	DW.ref.__gxx_personality_v0:
 4558 0000 00000000 		.dword	__gxx_personality_v0
 4558      00000000 
 4559              		.ident	"GCC: (Ubuntu 9.4.0-1ubuntu1~20.04) 9.4.0"
 4560              		.section	.note.GNU-stack,"",@progbits
GAS LISTING /tmp/cc6syZG2.s 			page 21

