GAS LISTING /tmp/cc6syZG2.s 			page 1


   1              		.file	"KSemaphore.cpp"
   2              		.option pic
   3              		.option norelax
   4              		.text
   5              	.Ltext0:
   6              		.align	2
   7              		.globl	_ZN10KSemaphoreC2Ei
   9              	_ZN10KSemaphoreC2Ei:
  10              	.LFB26:
  11              		.file 1 "src/kernel/KSemaphore.cpp"
   1:src/kernel/KSemaphore.cpp **** //
   2:src/kernel/KSemaphore.cpp **** // Created by os on 5/2/22.
   3:src/kernel/KSemaphore.cpp **** //
   4:src/kernel/KSemaphore.cpp **** 
   5:src/kernel/KSemaphore.cpp **** #include "../../h/KSemaphore.hpp"
   6:src/kernel/KSemaphore.cpp **** #include "../../h/MemoryAllocator.hpp"
   7:src/kernel/KSemaphore.cpp **** #include "../../h/Riscv.hpp"
   8:src/kernel/KSemaphore.cpp **** #include "../../h/Scheduler.hpp"
   9:src/kernel/KSemaphore.cpp **** 
  10:src/kernel/KSemaphore.cpp **** KSemaphore::KSemaphore(int val)
  12              		.loc 1 10 1
  13              		.cfi_startproc
  14              	.LVL0:
  15 0000 130101FF 		addi	sp,sp,-16
  16              		.cfi_def_cfa_offset 16
  17 0004 23348100 		sd	s0,8(sp)
  18              		.cfi_offset 8, -8
  19 0008 13040101 		addi	s0,sp,16
  20              		.cfi_def_cfa 8, 0
  21              	.LBB4:
  11:src/kernel/KSemaphore.cpp **** {
  12:src/kernel/KSemaphore.cpp ****     this->val = val;
  22              		.loc 1 12 5
  23              		.loc 1 12 15 is_stmt 0
  24 000c 2328B500 		sw	a1,16(a0)
  13:src/kernel/KSemaphore.cpp ****     headBlocked = tailBlocked = 0;
  25              		.loc 1 13 5 is_stmt 1
  26              		.loc 1 13 31 is_stmt 0
  27 0010 23340500 		sd	zero,8(a0)
  28              		.loc 1 13 17
  29 0014 23300500 		sd	zero,0(a0)
  30              	.LBE4:
  14:src/kernel/KSemaphore.cpp **** }
  31              		.loc 1 14 1
  32 0018 03348100 		ld	s0,8(sp)
  33              		.cfi_restore 8
  34              		.cfi_def_cfa 2, 16
  35 001c 13010101 		addi	sp,sp,16
  36              		.cfi_def_cfa_offset 0
  37 0020 67800000 		jr	ra
  38              		.cfi_endproc
  39              	.LFE26:
  41              		.globl	_ZN10KSemaphoreC1Ei
  42              		.set	_ZN10KSemaphoreC1Ei,_ZN10KSemaphoreC2Ei
  43              		.align	2
  44              		.globl	_ZN10KSemaphore12addToBlockedEP3PCB
  46              	_ZN10KSemaphore12addToBlockedEP3PCB:
GAS LISTING /tmp/cc6syZG2.s 			page 2


  47              	.LFB34:
  15:src/kernel/KSemaphore.cpp **** 
  16:src/kernel/KSemaphore.cpp **** uint64 KSemaphore::wait()
  17:src/kernel/KSemaphore.cpp **** {
  18:src/kernel/KSemaphore.cpp ****     PCB::running->retFromClosedSem = false;
  19:src/kernel/KSemaphore.cpp ****     if(--val < 0)
  20:src/kernel/KSemaphore.cpp ****         block();
  21:src/kernel/KSemaphore.cpp **** 
  22:src/kernel/KSemaphore.cpp ****     return 0;
  23:src/kernel/KSemaphore.cpp **** }
  24:src/kernel/KSemaphore.cpp **** 
  25:src/kernel/KSemaphore.cpp **** uint64 KSemaphore::signal() {
  26:src/kernel/KSemaphore.cpp ****     if(++val <= 0)
  27:src/kernel/KSemaphore.cpp ****         unblock();
  28:src/kernel/KSemaphore.cpp **** 
  29:src/kernel/KSemaphore.cpp ****     return 0;
  30:src/kernel/KSemaphore.cpp **** }
  31:src/kernel/KSemaphore.cpp **** 
  32:src/kernel/KSemaphore.cpp **** void KSemaphore::semOpenHandler()
  33:src/kernel/KSemaphore.cpp **** {
  34:src/kernel/KSemaphore.cpp ****     uint64 val;
  35:src/kernel/KSemaphore.cpp ****     KSemaphore** semaphoreHandle;
  36:src/kernel/KSemaphore.cpp ****     __asm__ volatile("mv %0, a1" : "=r"(semaphoreHandle));
  37:src/kernel/KSemaphore.cpp ****     __asm__ volatile("mv %0, a2" : "=r"(val));
  38:src/kernel/KSemaphore.cpp **** 
  39:src/kernel/KSemaphore.cpp ****     KSemaphore* newSem = new KSemaphore(val);
  40:src/kernel/KSemaphore.cpp **** 
  41:src/kernel/KSemaphore.cpp ****     (*semaphoreHandle) = newSem;
  42:src/kernel/KSemaphore.cpp **** 
  43:src/kernel/KSemaphore.cpp ****     if(newSem == 0)
  44:src/kernel/KSemaphore.cpp ****             __asm__ volatile("li a0, 0xffffffffffffffff");
  45:src/kernel/KSemaphore.cpp ****     else
  46:src/kernel/KSemaphore.cpp ****             __asm__ volatile("li a0, 0");
  47:src/kernel/KSemaphore.cpp ****     Riscv::w_a0_sscratch();
  48:src/kernel/KSemaphore.cpp **** }
  49:src/kernel/KSemaphore.cpp **** 
  50:src/kernel/KSemaphore.cpp **** KSemaphore::~KSemaphore()
  51:src/kernel/KSemaphore.cpp **** {
  52:src/kernel/KSemaphore.cpp ****     while(getFirstBlocked() != 0)
  53:src/kernel/KSemaphore.cpp ****     {
  54:src/kernel/KSemaphore.cpp ****         PCB* pcb = getFirstBlocked();
  55:src/kernel/KSemaphore.cpp ****         removeFirstBlocked();
  56:src/kernel/KSemaphore.cpp ****         pcb->retFromClosedSem = true;
  57:src/kernel/KSemaphore.cpp ****         Scheduler::put(pcb);
  58:src/kernel/KSemaphore.cpp ****     }
  59:src/kernel/KSemaphore.cpp **** }
  60:src/kernel/KSemaphore.cpp **** 
  61:src/kernel/KSemaphore.cpp **** void KSemaphore::addToBlocked(PCB* pcb)
  62:src/kernel/KSemaphore.cpp **** {
  48              		.loc 1 62 1 is_stmt 1
  49              		.cfi_startproc
  50              	.LVL1:
  51 0024 130101FF 		addi	sp,sp,-16
  52              		.cfi_def_cfa_offset 16
  53 0028 23348100 		sd	s0,8(sp)
  54              		.cfi_offset 8, -8
  55 002c 13040101 		addi	s0,sp,16
GAS LISTING /tmp/cc6syZG2.s 			page 3


  56              		.cfi_def_cfa 8, 0
  63:src/kernel/KSemaphore.cpp ****     pcb->nextPCB = 0;
  57              		.loc 1 63 5
  58              		.loc 1 63 18 is_stmt 0
  59 0030 23B40500 		sd	zero,8(a1)
  64:src/kernel/KSemaphore.cpp ****     if(headBlocked == 0)
  60              		.loc 1 64 5 is_stmt 1
  61              		.loc 1 64 8 is_stmt 0
  62 0034 83370500 		ld	a5,0(a0)
  63              		.loc 1 64 5
  64 0038 638E0700 		beqz	a5,.L7
  65:src/kernel/KSemaphore.cpp ****     {
  66:src/kernel/KSemaphore.cpp ****         headBlocked = tailBlocked = pcb;
  67:src/kernel/KSemaphore.cpp ****     }
  68:src/kernel/KSemaphore.cpp ****     else
  69:src/kernel/KSemaphore.cpp ****     {
  70:src/kernel/KSemaphore.cpp ****         tailBlocked->nextPCB = pcb;
  65              		.loc 1 70 9 is_stmt 1
  66 003c 83378500 		ld	a5,8(a0)
  67              		.loc 1 70 30 is_stmt 0
  68 0040 23B4B700 		sd	a1,8(a5)
  71:src/kernel/KSemaphore.cpp ****         tailBlocked = pcb;
  69              		.loc 1 71 9 is_stmt 1
  70              		.loc 1 71 21 is_stmt 0
  71 0044 2334B500 		sd	a1,8(a0)
  72              	.L3:
  72:src/kernel/KSemaphore.cpp ****     }
  73:src/kernel/KSemaphore.cpp **** }
  73              		.loc 1 73 1
  74 0048 03348100 		ld	s0,8(sp)
  75              		.cfi_remember_state
  76              		.cfi_restore 8
  77              		.cfi_def_cfa 2, 16
  78 004c 13010101 		addi	sp,sp,16
  79              		.cfi_def_cfa_offset 0
  80 0050 67800000 		jr	ra
  81              	.L7:
  82              		.cfi_restore_state
  66:src/kernel/KSemaphore.cpp ****     }
  83              		.loc 1 66 9 is_stmt 1
  66:src/kernel/KSemaphore.cpp ****     }
  84              		.loc 1 66 35 is_stmt 0
  85 0054 2334B500 		sd	a1,8(a0)
  66:src/kernel/KSemaphore.cpp ****     }
  86              		.loc 1 66 21
  87 0058 2330B500 		sd	a1,0(a0)
  88 005c 6FF0DFFE 		j	.L3
  89              		.cfi_endproc
  90              	.LFE34:
  92              		.align	2
  93              		.globl	_ZN10KSemaphore5blockEv
  95              	_ZN10KSemaphore5blockEv:
  96              	.LFB35:
  74:src/kernel/KSemaphore.cpp **** 
  75:src/kernel/KSemaphore.cpp **** void KSemaphore::block()
  76:src/kernel/KSemaphore.cpp **** {
  97              		.loc 1 76 1 is_stmt 1
GAS LISTING /tmp/cc6syZG2.s 			page 4


  98              		.cfi_startproc
  99              	.LVL2:
 100 0060 130101FF 		addi	sp,sp,-16
 101              		.cfi_def_cfa_offset 16
 102 0064 23341100 		sd	ra,8(sp)
 103 0068 23308100 		sd	s0,0(sp)
 104              		.cfi_offset 1, -8
 105              		.cfi_offset 8, -16
 106 006c 13040101 		addi	s0,sp,16
 107              		.cfi_def_cfa 8, 0
  77:src/kernel/KSemaphore.cpp ****     PCB::running->setState(PCB::SUSPENDED);
 108              		.loc 1 77 5
 109              		.loc 1 77 27 is_stmt 0
 110 0070 97070000 		la	a5,_ZN3PCB7runningE
 110      83B70700 
 111 0078 83B50700 		ld	a1,0(a5)
 112              	.LVL3:
 113              	.LBB5:
 114              	.LBB6:
 115              		.file 2 "src/kernel/../../h/PCB.hpp"
   1:src/kernel/../../h/PCB.hpp **** //
   2:src/kernel/../../h/PCB.hpp **** // Created by os on 4/27/22.
   3:src/kernel/../../h/PCB.hpp **** //
   4:src/kernel/../../h/PCB.hpp **** 
   5:src/kernel/../../h/PCB.hpp **** #ifndef PROJECT_BASE_V1_0_PCB_HPP
   6:src/kernel/../../h/PCB.hpp **** #define PROJECT_BASE_V1_0_PCB_HPP
   7:src/kernel/../../h/PCB.hpp **** 
   8:src/kernel/../../h/PCB.hpp **** #include "../lib/hw.h"
   9:src/kernel/../../h/PCB.hpp **** 
  10:src/kernel/../../h/PCB.hpp **** class PCB
  11:src/kernel/../../h/PCB.hpp **** {
  12:src/kernel/../../h/PCB.hpp **** private:
  13:src/kernel/../../h/PCB.hpp ****     static uint64 savedRegA4;
  14:src/kernel/../../h/PCB.hpp **** 
  15:src/kernel/../../h/PCB.hpp ****     using Body = void (*)(void*);
  16:src/kernel/../../h/PCB.hpp **** 
  17:src/kernel/../../h/PCB.hpp ****     PCB(Body body,  void* args, void* stack_space, uint64 timeSlice);
  18:src/kernel/../../h/PCB.hpp ****     ~PCB();
  19:src/kernel/../../h/PCB.hpp **** 
  20:src/kernel/../../h/PCB.hpp ****     void start();
  21:src/kernel/../../h/PCB.hpp ****     static void dispatch();
  22:src/kernel/../../h/PCB.hpp **** 
  23:src/kernel/../../h/PCB.hpp ****     static PCB* running;
  24:src/kernel/../../h/PCB.hpp **** 
  25:src/kernel/../../h/PCB.hpp ****     static uint64 timeSliceCounter;
  26:src/kernel/../../h/PCB.hpp ****     uint64 getTimeSlice() { return timeSlice;}
  27:src/kernel/../../h/PCB.hpp **** 
  28:src/kernel/../../h/PCB.hpp ****     void* operator new(size_t size);
  29:src/kernel/../../h/PCB.hpp ****     void operator delete(void *p);
  30:src/kernel/../../h/PCB.hpp **** 
  31:src/kernel/../../h/PCB.hpp ****     enum State{READY, RUNNING, SUSPENDED, FINISHED, EXITING, SLEEPING};
  32:src/kernel/../../h/PCB.hpp ****     State getState() {return state;}
  33:src/kernel/../../h/PCB.hpp ****     void setState(State s) {state = s;}
 116              		.loc 2 33 29 is_stmt 1
 117              		.loc 2 33 35 is_stmt 0
 118 007c 93072000 		li	a5,2
 119 0080 23A0F504 		sw	a5,64(a1)
GAS LISTING /tmp/cc6syZG2.s 			page 5


 120              	.LVL4:
 121              	.LBE6:
 122              	.LBE5:
  78:src/kernel/KSemaphore.cpp ****     addToBlocked(PCB::running);
 123              		.loc 1 78 5 is_stmt 1
 124              		.loc 1 78 17 is_stmt 0
 125 0084 97000000 		call	_ZN10KSemaphore12addToBlockedEP3PCB
 125      E7800000 
 126              	.LVL5:
  79:src/kernel/KSemaphore.cpp ****     PCB::dispatch();
 127              		.loc 1 79 5 is_stmt 1
 128              		.loc 1 79 18 is_stmt 0
 129 008c 97000000 		call	_ZN3PCB8dispatchEv@plt
 129      E7800000 
 130              	.LVL6:
  80:src/kernel/KSemaphore.cpp **** }
 131              		.loc 1 80 1
 132 0094 83308100 		ld	ra,8(sp)
 133              		.cfi_restore 1
 134 0098 03340100 		ld	s0,0(sp)
 135              		.cfi_restore 8
 136              		.cfi_def_cfa 2, 16
 137 009c 13010101 		addi	sp,sp,16
 138              		.cfi_def_cfa_offset 0
 139 00a0 67800000 		jr	ra
 140              		.cfi_endproc
 141              	.LFE35:
 143              		.align	2
 144              		.globl	_ZN10KSemaphore4waitEv
 146              	_ZN10KSemaphore4waitEv:
 147              	.LFB28:
  17:src/kernel/KSemaphore.cpp ****     PCB::running->retFromClosedSem = false;
 148              		.loc 1 17 1 is_stmt 1
 149              		.cfi_startproc
 150              	.LVL7:
  18:src/kernel/KSemaphore.cpp ****     if(--val < 0)
 151              		.loc 1 18 5
  18:src/kernel/KSemaphore.cpp ****     if(--val < 0)
 152              		.loc 1 18 19 is_stmt 0
 153 00a4 97070000 		la	a5,_ZN3PCB7runningE
 153      83B70700 
 154 00ac 83B70700 		ld	a5,0(a5)
  18:src/kernel/KSemaphore.cpp ****     if(--val < 0)
 155              		.loc 1 18 36
 156 00b0 238C0704 		sb	zero,88(a5)
  19:src/kernel/KSemaphore.cpp ****         block();
 157              		.loc 1 19 5 is_stmt 1
  19:src/kernel/KSemaphore.cpp ****         block();
 158              		.loc 1 19 10 is_stmt 0
 159 00b4 83270501 		lw	a5,16(a0)
  19:src/kernel/KSemaphore.cpp ****         block();
 160              		.loc 1 19 8
 161 00b8 9B87F7FF 		addiw	a5,a5,-1
  19:src/kernel/KSemaphore.cpp ****         block();
 162              		.loc 1 19 14
 163 00bc 2328F500 		sw	a5,16(a0)
  19:src/kernel/KSemaphore.cpp ****         block();
GAS LISTING /tmp/cc6syZG2.s 			page 6


 164              		.loc 1 19 5
 165 00c0 13970702 		slli	a4,a5,32
 166 00c4 63460700 		bltz	a4,.L16
  22:src/kernel/KSemaphore.cpp **** }
 167              		.loc 1 22 5 is_stmt 1
  23:src/kernel/KSemaphore.cpp **** 
 168              		.loc 1 23 1 is_stmt 0
 169 00c8 13050000 		li	a0,0
 170              	.LVL8:
 171 00cc 67800000 		ret
 172              	.LVL9:
 173              	.L16:
  17:src/kernel/KSemaphore.cpp ****     PCB::running->retFromClosedSem = false;
 174              		.loc 1 17 1
 175 00d0 130101FF 		addi	sp,sp,-16
 176              		.cfi_def_cfa_offset 16
 177 00d4 23341100 		sd	ra,8(sp)
 178 00d8 23308100 		sd	s0,0(sp)
 179              		.cfi_offset 1, -8
 180              		.cfi_offset 8, -16
 181 00dc 13040101 		addi	s0,sp,16
 182              		.cfi_def_cfa 8, 0
  20:src/kernel/KSemaphore.cpp **** 
 183              		.loc 1 20 9 is_stmt 1
  20:src/kernel/KSemaphore.cpp **** 
 184              		.loc 1 20 14 is_stmt 0
 185 00e0 97000000 		call	_ZN10KSemaphore5blockEv
 185      E7800000 
 186              	.LVL10:
  22:src/kernel/KSemaphore.cpp **** }
 187              		.loc 1 22 5 is_stmt 1
  23:src/kernel/KSemaphore.cpp **** 
 188              		.loc 1 23 1 is_stmt 0
 189 00e8 13050000 		li	a0,0
 190 00ec 83308100 		ld	ra,8(sp)
 191              		.cfi_restore 1
 192 00f0 03340100 		ld	s0,0(sp)
 193              		.cfi_restore 8
 194              		.cfi_def_cfa 2, 16
 195 00f4 13010101 		addi	sp,sp,16
 196              		.cfi_def_cfa_offset 0
 197 00f8 67800000 		jr	ra
 198              		.cfi_endproc
 199              	.LFE28:
 201              		.align	2
 202              		.globl	_ZN10KSemaphore15getFirstBlockedEv
 204              	_ZN10KSemaphore15getFirstBlockedEv:
 205              	.LFB36:
  81:src/kernel/KSemaphore.cpp **** 
  82:src/kernel/KSemaphore.cpp **** PCB* KSemaphore::getFirstBlocked()
  83:src/kernel/KSemaphore.cpp **** {
 206              		.loc 1 83 1 is_stmt 1
 207              		.cfi_startproc
 208              	.LVL11:
 209 00fc 130101FF 		addi	sp,sp,-16
 210              		.cfi_def_cfa_offset 16
 211 0100 23348100 		sd	s0,8(sp)
GAS LISTING /tmp/cc6syZG2.s 			page 7


 212              		.cfi_offset 8, -8
 213 0104 13040101 		addi	s0,sp,16
 214              		.cfi_def_cfa 8, 0
  84:src/kernel/KSemaphore.cpp ****    return headBlocked;
 215              		.loc 1 84 4
  85:src/kernel/KSemaphore.cpp **** }
 216              		.loc 1 85 1 is_stmt 0
 217 0108 03350500 		ld	a0,0(a0)
 218              	.LVL12:
 219 010c 03348100 		ld	s0,8(sp)
 220              		.cfi_restore 8
 221              		.cfi_def_cfa 2, 16
 222 0110 13010101 		addi	sp,sp,16
 223              		.cfi_def_cfa_offset 0
 224 0114 67800000 		jr	ra
 225              		.cfi_endproc
 226              	.LFE36:
 228              		.align	2
 229              		.globl	_ZN10KSemaphore18removeFirstBlockedEv
 231              	_ZN10KSemaphore18removeFirstBlockedEv:
 232              	.LFB37:
  86:src/kernel/KSemaphore.cpp **** 
  87:src/kernel/KSemaphore.cpp **** void KSemaphore::removeFirstBlocked()
  88:src/kernel/KSemaphore.cpp **** {
 233              		.loc 1 88 1 is_stmt 1
 234              		.cfi_startproc
 235              	.LVL13:
 236 0118 130101FF 		addi	sp,sp,-16
 237              		.cfi_def_cfa_offset 16
 238 011c 23348100 		sd	s0,8(sp)
 239              		.cfi_offset 8, -8
 240 0120 13040101 		addi	s0,sp,16
 241              		.cfi_def_cfa 8, 0
  89:src/kernel/KSemaphore.cpp ****     if(headBlocked == 0)
 242              		.loc 1 89 5
 243              		.loc 1 89 8 is_stmt 0
 244 0124 83370500 		ld	a5,0(a0)
 245              		.loc 1 89 5
 246 0128 638C0700 		beqz	a5,.L19
  90:src/kernel/KSemaphore.cpp ****         return;
  91:src/kernel/KSemaphore.cpp ****     PCB* first = headBlocked;
 247              		.loc 1 91 5 is_stmt 1
 248              	.LVL14:
  92:src/kernel/KSemaphore.cpp ****     headBlocked = headBlocked->nextPCB;
 249              		.loc 1 92 5
 250              		.loc 1 92 32 is_stmt 0
 251 012c 03B78700 		ld	a4,8(a5)
 252              		.loc 1 92 17
 253 0130 2330E500 		sd	a4,0(a0)
  93:src/kernel/KSemaphore.cpp ****     first->nextPCB = 0;
 254              		.loc 1 93 5 is_stmt 1
 255              		.loc 1 93 20 is_stmt 0
 256 0134 23B40700 		sd	zero,8(a5)
  94:src/kernel/KSemaphore.cpp ****     if(headBlocked == 0)
 257              		.loc 1 94 5 is_stmt 1
 258              		.loc 1 94 8 is_stmt 0
 259 0138 83370500 		ld	a5,0(a0)
GAS LISTING /tmp/cc6syZG2.s 			page 8


 260              	.LVL15:
 261              		.loc 1 94 5
 262 013c 63880700 		beqz	a5,.L22
 263              	.L19:
  95:src/kernel/KSemaphore.cpp ****         tailBlocked =0;
  96:src/kernel/KSemaphore.cpp **** }
 264              		.loc 1 96 1
 265 0140 03348100 		ld	s0,8(sp)
 266              		.cfi_remember_state
 267              		.cfi_restore 8
 268              		.cfi_def_cfa 2, 16
 269 0144 13010101 		addi	sp,sp,16
 270              		.cfi_def_cfa_offset 0
 271 0148 67800000 		jr	ra
 272              	.L22:
 273              		.cfi_restore_state
  95:src/kernel/KSemaphore.cpp ****         tailBlocked =0;
 274              		.loc 1 95 9 is_stmt 1
  95:src/kernel/KSemaphore.cpp ****         tailBlocked =0;
 275              		.loc 1 95 21 is_stmt 0
 276 014c 23340500 		sd	zero,8(a0)
 277 0150 6FF01FFF 		j	.L19
 278              		.cfi_endproc
 279              	.LFE37:
 281              		.align	2
 282              		.globl	_ZN10KSemaphoreD2Ev
 284              	_ZN10KSemaphoreD2Ev:
 285              	.LFB32:
  50:src/kernel/KSemaphore.cpp **** {
 286              		.loc 1 50 1 is_stmt 1
 287              		.cfi_startproc
 288              		.cfi_personality 0x9b,DW.ref.__gxx_personality_v0
 289              		.cfi_lsda 0x1b,.LLSDA32
 290              	.LVL16:
 291 0154 130101FE 		addi	sp,sp,-32
 292              		.cfi_def_cfa_offset 32
 293 0158 233C1100 		sd	ra,24(sp)
 294 015c 23388100 		sd	s0,16(sp)
 295 0160 23349100 		sd	s1,8(sp)
 296 0164 23302101 		sd	s2,0(sp)
 297              		.cfi_offset 1, -8
 298              		.cfi_offset 8, -16
 299              		.cfi_offset 9, -24
 300              		.cfi_offset 18, -32
 301 0168 13040102 		addi	s0,sp,32
 302              		.cfi_def_cfa 8, 0
 303 016c 13090500 		mv	s2,a0
 304              	.LVL17:
 305              	.L25:
 306              	.LBB7:
  52:src/kernel/KSemaphore.cpp ****     {
 307              		.loc 1 52 5
  52:src/kernel/KSemaphore.cpp ****     {
 308              		.loc 1 52 29
  52:src/kernel/KSemaphore.cpp ****     {
 309              		.loc 1 52 26 is_stmt 0
 310 0170 13050900 		mv	a0,s2
GAS LISTING /tmp/cc6syZG2.s 			page 9


 311 0174 97000000 		call	_ZN10KSemaphore15getFirstBlockedEv
 311      E7800000 
 312              	.LVL18:
 313 017c 93040500 		mv	s1,a0
  52:src/kernel/KSemaphore.cpp ****     {
 314              		.loc 1 52 29
 315 0180 63040502 		beqz	a0,.L23
 316              	.LBB8:
  54:src/kernel/KSemaphore.cpp ****         removeFirstBlocked();
 317              		.loc 1 54 9 is_stmt 1
 318              	.LVL19:
  55:src/kernel/KSemaphore.cpp ****         pcb->retFromClosedSem = true;
 319              		.loc 1 55 9
  55:src/kernel/KSemaphore.cpp ****         pcb->retFromClosedSem = true;
 320              		.loc 1 55 27 is_stmt 0
 321 0184 13050900 		mv	a0,s2
 322 0188 97000000 		call	_ZN10KSemaphore18removeFirstBlockedEv
 322      E7800000 
 323              	.LVL20:
  56:src/kernel/KSemaphore.cpp ****         Scheduler::put(pcb);
 324              		.loc 1 56 9 is_stmt 1
  56:src/kernel/KSemaphore.cpp ****         Scheduler::put(pcb);
 325              		.loc 1 56 31 is_stmt 0
 326 0190 93071000 		li	a5,1
 327 0194 238CF404 		sb	a5,88(s1)
  57:src/kernel/KSemaphore.cpp ****     }
 328              		.loc 1 57 9 is_stmt 1
  57:src/kernel/KSemaphore.cpp ****     }
 329              		.loc 1 57 23 is_stmt 0
 330 0198 13850400 		mv	a0,s1
 331 019c 97000000 		call	_ZN9Scheduler3putEP3PCB@plt
 331      E7800000 
 332              	.LVL21:
 333              	.LBE8:
  52:src/kernel/KSemaphore.cpp ****     {
 334              		.loc 1 52 5
 335 01a4 6FF0DFFC 		j	.L25
 336              	.LVL22:
 337              	.L23:
 338              	.LBE7:
  59:src/kernel/KSemaphore.cpp **** 
 339              		.loc 1 59 1
 340 01a8 83308101 		ld	ra,24(sp)
 341              		.cfi_restore 1
 342 01ac 03340101 		ld	s0,16(sp)
 343              		.cfi_restore 8
 344              		.cfi_def_cfa 2, 32
 345 01b0 83348100 		ld	s1,8(sp)
 346              		.cfi_restore 9
 347 01b4 03390100 		ld	s2,0(sp)
 348              		.cfi_restore 18
 349              	.LVL23:
 350 01b8 13010102 		addi	sp,sp,32
 351              		.cfi_def_cfa_offset 0
 352 01bc 67800000 		jr	ra
 353              		.cfi_endproc
 354              	.LFE32:
GAS LISTING /tmp/cc6syZG2.s 			page 10


 355              		.globl	__gxx_personality_v0
 356              		.section	.gcc_except_table,"a",@progbits
 357              	.LLSDA32:
 358 0000 FF       		.byte	0xff
 359 0001 FF       		.byte	0xff
 360 0002 03       		.byte	0x3
 361 0003 00       		.byte	0
 362              		.text
 364              		.globl	_ZN10KSemaphoreD1Ev
 365              		.set	_ZN10KSemaphoreD1Ev,_ZN10KSemaphoreD2Ev
 366              		.align	2
 367              		.globl	_ZN10KSemaphore7unblockEv
 369              	_ZN10KSemaphore7unblockEv:
 370              	.LFB38:
  97:src/kernel/KSemaphore.cpp **** 
  98:src/kernel/KSemaphore.cpp **** void KSemaphore::unblock() {
 371              		.loc 1 98 28 is_stmt 1
 372              		.cfi_startproc
 373              	.LVL24:
 374 01c0 130101FE 		addi	sp,sp,-32
 375              		.cfi_def_cfa_offset 32
 376 01c4 233C1100 		sd	ra,24(sp)
 377 01c8 23388100 		sd	s0,16(sp)
 378 01cc 23349100 		sd	s1,8(sp)
 379 01d0 23302101 		sd	s2,0(sp)
 380              		.cfi_offset 1, -8
 381              		.cfi_offset 8, -16
 382              		.cfi_offset 9, -24
 383              		.cfi_offset 18, -32
 384 01d4 13040102 		addi	s0,sp,32
 385              		.cfi_def_cfa 8, 0
 386 01d8 13090500 		mv	s2,a0
  99:src/kernel/KSemaphore.cpp ****     PCB* fr = getFirstBlocked();
 387              		.loc 1 99 5
 388              		.loc 1 99 30 is_stmt 0
 389 01dc 97000000 		call	_ZN10KSemaphore15getFirstBlockedEv
 389      E7800000 
 390              	.LVL25:
 391 01e4 93040500 		mv	s1,a0
 392              	.LVL26:
 100:src/kernel/KSemaphore.cpp ****     removeFirstBlocked();
 393              		.loc 1 100 5 is_stmt 1
 394              		.loc 1 100 23 is_stmt 0
 395 01e8 13050900 		mv	a0,s2
 396 01ec 97000000 		call	_ZN10KSemaphore18removeFirstBlockedEv
 396      E7800000 
 397              	.LVL27:
 101:src/kernel/KSemaphore.cpp ****     if(fr != 0)
 398              		.loc 1 101 5 is_stmt 1
 399 01f4 63880400 		beqz	s1,.L27
 102:src/kernel/KSemaphore.cpp ****     {
 103:src/kernel/KSemaphore.cpp ****         Scheduler::put(fr);
 400              		.loc 1 103 9
 401              		.loc 1 103 23 is_stmt 0
 402 01f8 13850400 		mv	a0,s1
 403 01fc 97000000 		call	_ZN9Scheduler3putEP3PCB@plt
 403      E7800000 
GAS LISTING /tmp/cc6syZG2.s 			page 11


 404              	.LVL28:
 405              	.L27:
 104:src/kernel/KSemaphore.cpp ****     }
 105:src/kernel/KSemaphore.cpp **** }
 406              		.loc 1 105 1
 407 0204 83308101 		ld	ra,24(sp)
 408              		.cfi_restore 1
 409 0208 03340101 		ld	s0,16(sp)
 410              		.cfi_restore 8
 411              		.cfi_def_cfa 2, 32
 412 020c 83348100 		ld	s1,8(sp)
 413              		.cfi_restore 9
 414              	.LVL29:
 415 0210 03390100 		ld	s2,0(sp)
 416              		.cfi_restore 18
 417              	.LVL30:
 418 0214 13010102 		addi	sp,sp,32
 419              		.cfi_def_cfa_offset 0
 420 0218 67800000 		jr	ra
 421              		.cfi_endproc
 422              	.LFE38:
 424              		.align	2
 425              		.globl	_ZN10KSemaphore6signalEv
 427              	_ZN10KSemaphore6signalEv:
 428              	.LFB29:
  25:src/kernel/KSemaphore.cpp ****     if(++val <= 0)
 429              		.loc 1 25 29 is_stmt 1
 430              		.cfi_startproc
 431              	.LVL31:
  26:src/kernel/KSemaphore.cpp ****         unblock();
 432              		.loc 1 26 5
  26:src/kernel/KSemaphore.cpp ****         unblock();
 433              		.loc 1 26 10 is_stmt 0
 434 021c 83270501 		lw	a5,16(a0)
  26:src/kernel/KSemaphore.cpp ****         unblock();
 435              		.loc 1 26 8
 436 0220 9B871700 		addiw	a5,a5,1
 437 0224 1B870700 		sext.w	a4,a5
  26:src/kernel/KSemaphore.cpp ****         unblock();
 438              		.loc 1 26 14
 439 0228 2328F500 		sw	a5,16(a0)
  26:src/kernel/KSemaphore.cpp ****         unblock();
 440              		.loc 1 26 5
 441 022c 6356E000 		blez	a4,.L36
  29:src/kernel/KSemaphore.cpp **** }
 442              		.loc 1 29 5 is_stmt 1
  30:src/kernel/KSemaphore.cpp **** 
 443              		.loc 1 30 1 is_stmt 0
 444 0230 13050000 		li	a0,0
 445              	.LVL32:
 446 0234 67800000 		ret
 447              	.LVL33:
 448              	.L36:
  25:src/kernel/KSemaphore.cpp ****     if(++val <= 0)
 449              		.loc 1 25 29
 450 0238 130101FF 		addi	sp,sp,-16
 451              		.cfi_def_cfa_offset 16
GAS LISTING /tmp/cc6syZG2.s 			page 12


 452 023c 23341100 		sd	ra,8(sp)
 453 0240 23308100 		sd	s0,0(sp)
 454              		.cfi_offset 1, -8
 455              		.cfi_offset 8, -16
 456 0244 13040101 		addi	s0,sp,16
 457              		.cfi_def_cfa 8, 0
  27:src/kernel/KSemaphore.cpp **** 
 458              		.loc 1 27 9 is_stmt 1
  27:src/kernel/KSemaphore.cpp **** 
 459              		.loc 1 27 16 is_stmt 0
 460 0248 97000000 		call	_ZN10KSemaphore7unblockEv
 460      E7800000 
 461              	.LVL34:
  29:src/kernel/KSemaphore.cpp **** }
 462              		.loc 1 29 5 is_stmt 1
  30:src/kernel/KSemaphore.cpp **** 
 463              		.loc 1 30 1 is_stmt 0
 464 0250 13050000 		li	a0,0
 465 0254 83308100 		ld	ra,8(sp)
 466              		.cfi_restore 1
 467 0258 03340100 		ld	s0,0(sp)
 468              		.cfi_restore 8
 469              		.cfi_def_cfa 2, 16
 470 025c 13010101 		addi	sp,sp,16
 471              		.cfi_def_cfa_offset 0
 472 0260 67800000 		jr	ra
 473              		.cfi_endproc
 474              	.LFE29:
 476              		.align	2
 477              		.globl	_ZN10KSemaphorenwEm
 479              	_ZN10KSemaphorenwEm:
 480              	.LFB39:
 106:src/kernel/KSemaphore.cpp **** void *KSemaphore::operator new(size_t size) {
 481              		.loc 1 106 45 is_stmt 1
 482              		.cfi_startproc
 483              	.LVL35:
 484 0264 130101FF 		addi	sp,sp,-16
 485              		.cfi_def_cfa_offset 16
 486 0268 23341100 		sd	ra,8(sp)
 487 026c 23308100 		sd	s0,0(sp)
 488              		.cfi_offset 1, -8
 489              		.cfi_offset 8, -16
 490 0270 13040101 		addi	s0,sp,16
 491              		.cfi_def_cfa 8, 0
 107:src/kernel/KSemaphore.cpp ****     return kmem_cache_alloc(Riscv::semaphoreCache);
 492              		.loc 1 107 5
 493              		.loc 1 107 28 is_stmt 0
 494 0274 97070000 		la	a5,_ZN5Riscv14semaphoreCacheE
 494      83B70700 
 495 027c 03B50700 		ld	a0,0(a5)
 496              	.LVL36:
 497 0280 97000000 		call	_Z16kmem_cache_allocP12kmem_cache_s@plt
 497      E7800000 
 498              	.LVL37:
 108:src/kernel/KSemaphore.cpp ****     //return MemoryAllocator::kmalloc(size);
 109:src/kernel/KSemaphore.cpp **** }
 499              		.loc 1 109 1
GAS LISTING /tmp/cc6syZG2.s 			page 13


 500 0288 83308100 		ld	ra,8(sp)
 501              		.cfi_restore 1
 502 028c 03340100 		ld	s0,0(sp)
 503              		.cfi_restore 8
 504              		.cfi_def_cfa 2, 16
 505 0290 13010101 		addi	sp,sp,16
 506              		.cfi_def_cfa_offset 0
 507 0294 67800000 		jr	ra
 508              		.cfi_endproc
 509              	.LFE39:
 511              		.align	2
 512              		.globl	_ZN10KSemaphore14semOpenHandlerEv
 514              	_ZN10KSemaphore14semOpenHandlerEv:
 515              	.LFB30:
  33:src/kernel/KSemaphore.cpp ****     uint64 val;
 516              		.loc 1 33 1 is_stmt 1
 517              		.cfi_startproc
 518 0298 130101FD 		addi	sp,sp,-48
 519              		.cfi_def_cfa_offset 48
 520 029c 23341102 		sd	ra,40(sp)
 521 02a0 23308102 		sd	s0,32(sp)
 522 02a4 233C9100 		sd	s1,24(sp)
 523 02a8 23382101 		sd	s2,16(sp)
 524 02ac 23343101 		sd	s3,8(sp)
 525              		.cfi_offset 1, -8
 526              		.cfi_offset 8, -16
 527              		.cfi_offset 9, -24
 528              		.cfi_offset 18, -32
 529              		.cfi_offset 19, -40
 530 02b0 13040103 		addi	s0,sp,48
 531              		.cfi_def_cfa 8, 0
  34:src/kernel/KSemaphore.cpp ****     KSemaphore** semaphoreHandle;
 532              		.loc 1 34 5
  35:src/kernel/KSemaphore.cpp ****     __asm__ volatile("mv %0, a1" : "=r"(semaphoreHandle));
 533              		.loc 1 35 5
  36:src/kernel/KSemaphore.cpp ****     __asm__ volatile("mv %0, a2" : "=r"(val));
 534              		.loc 1 36 5
  36:src/kernel/KSemaphore.cpp ****     __asm__ volatile("mv %0, a2" : "=r"(val));
 535              		.loc 1 36 58 is_stmt 0
 536              	#APP
 537              	# 36 "src/kernel/KSemaphore.cpp" 1
 538              		mv s2, a1
 539              	# 0 "" 2
 540              	.LVL38:
  37:src/kernel/KSemaphore.cpp **** 
 541              		.loc 1 37 5 is_stmt 1
  37:src/kernel/KSemaphore.cpp **** 
 542              		.loc 1 37 46 is_stmt 0
 543              	# 37 "src/kernel/KSemaphore.cpp" 1
 544              		mv s3, a2
 545              	# 0 "" 2
 546              	.LVL39:
  39:src/kernel/KSemaphore.cpp **** 
 547              		.loc 1 39 5 is_stmt 1
  39:src/kernel/KSemaphore.cpp **** 
 548              		.loc 1 39 44 is_stmt 0
 549              	#NO_APP
GAS LISTING /tmp/cc6syZG2.s 			page 14


 550 02bc 13058001 		li	a0,24
 551 02c0 97000000 		call	_ZN10KSemaphorenwEm
 551      E7800000 
 552              	.LVL40:
 553 02c8 93040500 		mv	s1,a0
 554 02cc 63080500 		beqz	a0,.L40
  39:src/kernel/KSemaphore.cpp **** 
 555              		.loc 1 39 44 discriminator 1
 556 02d0 9B850900 		sext.w	a1,s3
 557 02d4 97000000 		call	_ZN10KSemaphoreC1Ei
 557      E7800000 
 558              	.LVL41:
 559              	.L40:
  41:src/kernel/KSemaphore.cpp **** 
 560              		.loc 1 41 5 is_stmt 1 discriminator 4
  41:src/kernel/KSemaphore.cpp **** 
 561              		.loc 1 41 24 is_stmt 0 discriminator 4
 562 02dc 23309900 		sd	s1,0(s2)
  43:src/kernel/KSemaphore.cpp ****             __asm__ volatile("li a0, 0xffffffffffffffff");
 563              		.loc 1 43 5 is_stmt 1 discriminator 4
 564 02e0 63860402 		beqz	s1,.L44
  46:src/kernel/KSemaphore.cpp ****     Riscv::w_a0_sscratch();
 565              		.loc 1 46 13
  46:src/kernel/KSemaphore.cpp ****     Riscv::w_a0_sscratch();
 566              		.loc 1 46 41 is_stmt 0
 567              	#APP
 568              	# 46 "src/kernel/KSemaphore.cpp" 1
 569              		li a0, 0
 570              	# 0 "" 2
 571              	#NO_APP
 572              	.L42:
  47:src/kernel/KSemaphore.cpp **** }
 573              		.loc 1 47 5 is_stmt 1
  47:src/kernel/KSemaphore.cpp **** }
 574              		.loc 1 47 25 is_stmt 0
 575 02e8 97000000 		call	_ZN5Riscv13w_a0_sscratchEv@plt
 575      E7800000 
 576              	.LVL42:
  48:src/kernel/KSemaphore.cpp **** 
 577              		.loc 1 48 1
 578 02f0 83308102 		ld	ra,40(sp)
 579              		.cfi_remember_state
 580              		.cfi_restore 1
 581 02f4 03340102 		ld	s0,32(sp)
 582              		.cfi_restore 8
 583              		.cfi_def_cfa 2, 48
 584 02f8 83348101 		ld	s1,24(sp)
 585              		.cfi_restore 9
 586              	.LVL43:
 587 02fc 03390101 		ld	s2,16(sp)
 588              		.cfi_restore 18
 589              	.LVL44:
 590 0300 83398100 		ld	s3,8(sp)
 591              		.cfi_restore 19
 592              	.LVL45:
 593 0304 13010103 		addi	sp,sp,48
 594              		.cfi_def_cfa_offset 0
GAS LISTING /tmp/cc6syZG2.s 			page 15


 595 0308 67800000 		jr	ra
 596              	.LVL46:
 597              	.L44:
 598              		.cfi_restore_state
  44:src/kernel/KSemaphore.cpp ****     else
 599              		.loc 1 44 13 is_stmt 1
  44:src/kernel/KSemaphore.cpp ****     else
 600              		.loc 1 44 58 is_stmt 0
 601              	#APP
 602              	# 44 "src/kernel/KSemaphore.cpp" 1
 603              		li a0, 0xffffffffffffffff
 604              	# 0 "" 2
 605              	#NO_APP
 606 0310 6FF09FFD 		j	.L42
 607              		.cfi_endproc
 608              	.LFE30:
 610              		.align	2
 611              		.globl	_ZN10KSemaphoredlEPv
 613              	_ZN10KSemaphoredlEPv:
 614              	.LFB40:
 110:src/kernel/KSemaphore.cpp **** 
 111:src/kernel/KSemaphore.cpp **** void KSemaphore::operator delete(void *p)
 112:src/kernel/KSemaphore.cpp **** {
 615              		.loc 1 112 1 is_stmt 1
 616              		.cfi_startproc
 617              	.LVL47:
 618 0314 130101FF 		addi	sp,sp,-16
 619              		.cfi_def_cfa_offset 16
 620 0318 23341100 		sd	ra,8(sp)
 621 031c 23308100 		sd	s0,0(sp)
 622              		.cfi_offset 1, -8
 623              		.cfi_offset 8, -16
 624 0320 13040101 		addi	s0,sp,16
 625              		.cfi_def_cfa 8, 0
 626 0324 93050500 		mv	a1,a0
 113:src/kernel/KSemaphore.cpp ****     kmem_cache_free(Riscv::semaphoreCache, p);
 627              		.loc 1 113 5
 628              		.loc 1 113 20 is_stmt 0
 629 0328 97070000 		la	a5,_ZN5Riscv14semaphoreCacheE
 629      83B70700 
 630 0330 03B50700 		ld	a0,0(a5)
 631              	.LVL48:
 632 0334 97000000 		call	_Z15kmem_cache_freeP12kmem_cache_sPv@plt
 632      E7800000 
 633              	.LVL49:
 114:src/kernel/KSemaphore.cpp ****     //MemoryAllocator::kfree(p);
 115:src/kernel/KSemaphore.cpp **** }
 634              		.loc 1 115 1
 635 033c 83308100 		ld	ra,8(sp)
 636              		.cfi_restore 1
 637 0340 03340100 		ld	s0,0(sp)
 638              		.cfi_restore 8
 639              		.cfi_def_cfa 2, 16
 640 0344 13010101 		addi	sp,sp,16
 641              		.cfi_def_cfa_offset 0
 642 0348 67800000 		jr	ra
 643              		.cfi_endproc
GAS LISTING /tmp/cc6syZG2.s 			page 16


 644              	.LFE40:
 646              		.align	2
 647              		.globl	_ZN10KSemaphore14semWaitHandlerEv
 649              	_ZN10KSemaphore14semWaitHandlerEv:
 650              	.LFB41:
 116:src/kernel/KSemaphore.cpp **** 
 117:src/kernel/KSemaphore.cpp **** void KSemaphore::semWaitHandler()
 118:src/kernel/KSemaphore.cpp **** {
 651              		.loc 1 118 1 is_stmt 1
 652              		.cfi_startproc
 653 034c 130101FF 		addi	sp,sp,-16
 654              		.cfi_def_cfa_offset 16
 655 0350 23341100 		sd	ra,8(sp)
 656 0354 23308100 		sd	s0,0(sp)
 657              		.cfi_offset 1, -8
 658              		.cfi_offset 8, -16
 659 0358 13040101 		addi	s0,sp,16
 660              		.cfi_def_cfa 8, 0
 119:src/kernel/KSemaphore.cpp ****     KSemaphore* kSem;
 661              		.loc 1 119 5
 120:src/kernel/KSemaphore.cpp ****     __asm__ volatile("mv %0, a1" : "=r"(kSem));
 662              		.loc 1 120 5
 663              		.loc 1 120 47 is_stmt 0
 664              	#APP
 665              	# 120 "src/kernel/KSemaphore.cpp" 1
 121              	    kSem->wait();
 666              		mv a0, a1
 667              	# 0 "" 2
 668              	.LVL50:
 669              		.loc 1 121 5 is_stmt 1
 670              		.loc 1 121 15 is_stmt 0
 671              	#NO_APP
 672 0360 97000000 		call	_ZN10KSemaphore4waitEv
 672      E7800000 
 673              	.LVL51:
 122:src/kernel/KSemaphore.cpp ****     if(PCB::running->retFromClosedSem)
 674              		.loc 1 122 5 is_stmt 1
 675              		.loc 1 122 22 is_stmt 0
 676 0368 97070000 		la	a5,_ZN3PCB7runningE
 676      83B70700 
 677 0370 83B70700 		ld	a5,0(a5)
 678 0374 83C78705 		lbu	a5,88(a5)
 679              		.loc 1 122 5
 680 0378 63800702 		beqz	a5,.L48
 123:src/kernel/KSemaphore.cpp ****         __asm__ volatile("li a0, 0x1");
 681              		.loc 1 123 9 is_stmt 1
 682              		.loc 1 123 39 is_stmt 0
 683              	#APP
 684              	# 123 "src/kernel/KSemaphore.cpp" 1
 124              	    else
 685              		li a0, 0x1
 686              	# 0 "" 2
 687              	#NO_APP
 688              	.L49:
 125:src/kernel/KSemaphore.cpp ****         __asm__ volatile("li a0, 0x0");
 126:src/kernel/KSemaphore.cpp ****     Riscv::w_a0_sscratch();
 689              		.loc 1 126 5 is_stmt 1
GAS LISTING /tmp/cc6syZG2.s 			page 17


 690              		.loc 1 126 25 is_stmt 0
 691 0380 97000000 		call	_ZN5Riscv13w_a0_sscratchEv@plt
 691      E7800000 
 692              	.LVL52:
 127:src/kernel/KSemaphore.cpp **** }
 693              		.loc 1 127 1
 694 0388 83308100 		ld	ra,8(sp)
 695              		.cfi_remember_state
 696              		.cfi_restore 1
 697 038c 03340100 		ld	s0,0(sp)
 698              		.cfi_restore 8
 699              		.cfi_def_cfa 2, 16
 700 0390 13010101 		addi	sp,sp,16
 701              		.cfi_def_cfa_offset 0
 702 0394 67800000 		jr	ra
 703              	.L48:
 704              		.cfi_restore_state
 125:src/kernel/KSemaphore.cpp ****         __asm__ volatile("li a0, 0x0");
 705              		.loc 1 125 9 is_stmt 1
 125:src/kernel/KSemaphore.cpp ****         __asm__ volatile("li a0, 0x0");
 706              		.loc 1 125 39 is_stmt 0
 707              	#APP
 708              	# 125 "src/kernel/KSemaphore.cpp" 1
 709              		li a0, 0x0
 710              	# 0 "" 2
 711              	#NO_APP
 712 039c 6FF05FFE 		j	.L49
 713              		.cfi_endproc
 714              	.LFE41:
 716              		.align	2
 717              		.globl	_ZN10KSemaphore16semSignalHandlerEv
 719              	_ZN10KSemaphore16semSignalHandlerEv:
 720              	.LFB42:
 128:src/kernel/KSemaphore.cpp **** 
 129:src/kernel/KSemaphore.cpp **** void KSemaphore::semSignalHandler() {
 721              		.loc 1 129 37 is_stmt 1
 722              		.cfi_startproc
 723 03a0 130101FF 		addi	sp,sp,-16
 724              		.cfi_def_cfa_offset 16
 725 03a4 23341100 		sd	ra,8(sp)
 726 03a8 23308100 		sd	s0,0(sp)
 727              		.cfi_offset 1, -8
 728              		.cfi_offset 8, -16
 729 03ac 13040101 		addi	s0,sp,16
 730              		.cfi_def_cfa 8, 0
 130:src/kernel/KSemaphore.cpp ****     KSemaphore *kSem;
 731              		.loc 1 130 5
 131:src/kernel/KSemaphore.cpp ****     __asm__ volatile("mv %0, a1" : "=r"(kSem));
 732              		.loc 1 131 5
 733              		.loc 1 131 47 is_stmt 0
 734              	#APP
 735              	# 131 "src/kernel/KSemaphore.cpp" 1
 132              	    if (kSem == 0)
 736              		mv a0, a1
 737              	# 0 "" 2
 738              	.LVL53:
 739              		.loc 1 132 5 is_stmt 1
GAS LISTING /tmp/cc6syZG2.s 			page 18


 740              	#NO_APP
 741 03b4 63040502 		beqz	a0,.L55
 133:src/kernel/KSemaphore.cpp ****     {
 134:src/kernel/KSemaphore.cpp ****         __asm__ volatile("li a0, 0x1");
 135:src/kernel/KSemaphore.cpp ****     }
 136:src/kernel/KSemaphore.cpp ****     else
 137:src/kernel/KSemaphore.cpp ****     {
 138:src/kernel/KSemaphore.cpp ****         kSem->signal();
 742              		.loc 1 138 9
 743              		.loc 1 138 21 is_stmt 0
 744 03b8 97000000 		call	_ZN10KSemaphore6signalEv
 744      E7800000 
 745              	.LVL54:
 139:src/kernel/KSemaphore.cpp ****         __asm__ volatile("li a0, 0x0");
 746              		.loc 1 139 9 is_stmt 1
 747              		.loc 1 139 39 is_stmt 0
 748              	#APP
 749              	# 139 "src/kernel/KSemaphore.cpp" 1
 140              	    }
 750              		li a0, 0x0
 751              	# 0 "" 2
 752              	#NO_APP
 753              	.L53:
 141:src/kernel/KSemaphore.cpp ****     Riscv::w_a0_sscratch();
 754              		.loc 1 141 5 is_stmt 1
 755              		.loc 1 141 25 is_stmt 0
 756 03c4 97000000 		call	_ZN5Riscv13w_a0_sscratchEv@plt
 756      E7800000 
 757              	.LVL55:
 142:src/kernel/KSemaphore.cpp **** }
 758              		.loc 1 142 1
 759 03cc 83308100 		ld	ra,8(sp)
 760              		.cfi_remember_state
 761              		.cfi_restore 1
 762 03d0 03340100 		ld	s0,0(sp)
 763              		.cfi_restore 8
 764              		.cfi_def_cfa 2, 16
 765 03d4 13010101 		addi	sp,sp,16
 766              		.cfi_def_cfa_offset 0
 767 03d8 67800000 		jr	ra
 768              	.LVL56:
 769              	.L55:
 770              		.cfi_restore_state
 134:src/kernel/KSemaphore.cpp ****     }
 771              		.loc 1 134 9 is_stmt 1
 134:src/kernel/KSemaphore.cpp ****     }
 772              		.loc 1 134 39 is_stmt 0
 773              	#APP
 774              	# 134 "src/kernel/KSemaphore.cpp" 1
 775              		li a0, 0x1
 776              	# 0 "" 2
 777              	#NO_APP
 778 03e0 6FF05FFE 		j	.L53
 779              		.cfi_endproc
 780              	.LFE42:
 782              		.align	2
 783              		.globl	_ZN10KSemaphore15semCloseHandlerEv
GAS LISTING /tmp/cc6syZG2.s 			page 19


 785              	_ZN10KSemaphore15semCloseHandlerEv:
 786              	.LFB43:
 143:src/kernel/KSemaphore.cpp **** 
 144:src/kernel/KSemaphore.cpp **** void KSemaphore::semCloseHandler()
 145:src/kernel/KSemaphore.cpp **** {
 787              		.loc 1 145 1 is_stmt 1
 788              		.cfi_startproc
 789 03e4 130101FE 		addi	sp,sp,-32
 790              		.cfi_def_cfa_offset 32
 791 03e8 233C1100 		sd	ra,24(sp)
 792 03ec 23388100 		sd	s0,16(sp)
 793 03f0 23349100 		sd	s1,8(sp)
 794              		.cfi_offset 1, -8
 795              		.cfi_offset 8, -16
 796              		.cfi_offset 9, -24
 797 03f4 13040102 		addi	s0,sp,32
 798              		.cfi_def_cfa 8, 0
 146:src/kernel/KSemaphore.cpp ****     KSemaphore* kSem;
 799              		.loc 1 146 5
 147:src/kernel/KSemaphore.cpp ****     __asm__ volatile("mv %0, a1" : "=r"(kSem));
 800              		.loc 1 147 5
 801              		.loc 1 147 47 is_stmt 0
 802              	#APP
 803              	# 147 "src/kernel/KSemaphore.cpp" 1
 148              	    delete kSem;
 804              		mv s1, a1
 805              	# 0 "" 2
 806              	.LVL57:
 807              		.loc 1 148 5 is_stmt 1
 808              		.loc 1 148 16 is_stmt 0
 809              	#NO_APP
 810 03fc 638E0400 		beqz	s1,.L57
 811              		.loc 1 148 12 discriminator 1
 812 0400 13850400 		mv	a0,s1
 813 0404 97000000 		call	_ZN10KSemaphoreD1Ev
 813      E7800000 
 814              	.LVL58:
 815 040c 13850400 		mv	a0,s1
 816 0410 97000000 		call	_ZN10KSemaphoredlEPv
 816      E7800000 
 817              	.LVL59:
 818              	.L57:
 149:src/kernel/KSemaphore.cpp ****     __asm__ volatile("li a0, 0");
 819              		.loc 1 149 5 is_stmt 1
 820              		.loc 1 149 33 is_stmt 0
 821              	#APP
 822              	# 149 "src/kernel/KSemaphore.cpp" 1
 150              	    Riscv::w_a0_sscratch();
 823              		li a0, 0
 824              	# 0 "" 2
 825              		.loc 1 150 5 is_stmt 1
 826              		.loc 1 150 25 is_stmt 0
 827              	#NO_APP
 828 041c 97000000 		call	_ZN5Riscv13w_a0_sscratchEv@plt
 828      E7800000 
 829              	.LVL60:
 151:src/kernel/KSemaphore.cpp **** }
GAS LISTING /tmp/cc6syZG2.s 			page 20


 830              		.loc 1 151 1
 831 0424 83308101 		ld	ra,24(sp)
 832              		.cfi_restore 1
 833 0428 03340101 		ld	s0,16(sp)
 834              		.cfi_restore 8
 835              		.cfi_def_cfa 2, 32
 836 042c 83348100 		ld	s1,8(sp)
 837              		.cfi_restore 9
 838              	.LVL61:
 839 0430 13010102 		addi	sp,sp,32
 840              		.cfi_def_cfa_offset 0
 841 0434 67800000 		jr	ra
 842              		.cfi_endproc
 843              	.LFE43:
 845              	.Letext0:
 846              		.file 3 "src/kernel/../../h/../lib/hw.h"
 847              		.file 4 "src/kernel/../../h/KSemaphore.hpp"
 848              		.file 5 "src/kernel/../../h/slabAllocator.hpp"
 849              		.file 6 "src/kernel/../../h/Riscv.hpp"
 850              		.file 7 "src/kernel/../../h/Scheduler.hpp"
 4554              		.align	3
 4557              	DW.ref.__gxx_personality_v0:
 4558 0000 00000000 		.dword	__gxx_personality_v0
 4558      00000000 
 4559              		.ident	"GCC: (Ubuntu 9.4.0-1ubuntu1~20.04) 9.4.0"
 4560              		.section	.note.GNU-stack,"",@progbits
GAS LISTING /tmp/cc6syZG2.s 			page 21


DEFINED SYMBOLS
                            *ABS*:0000000000000000 KSemaphore.cpp
     /tmp/cc6syZG2.s:9      .text:0000000000000000 _ZN10KSemaphoreC2Ei
     /tmp/cc6syZG2.s:13     .text:0000000000000000 .L0 
     /tmp/cc6syZG2.s:15     .text:0000000000000000 .L0 
     /tmp/cc6syZG2.s:16     .text:0000000000000004 .L0 
     /tmp/cc6syZG2.s:18     .text:0000000000000008 .L0 
     /tmp/cc6syZG2.s:20     .text:000000000000000c .L0 
     /tmp/cc6syZG2.s:23     .text:000000000000000c .L0 
     /tmp/cc6syZG2.s:24     .text:000000000000000c .L0 
     /tmp/cc6syZG2.s:26     .text:0000000000000010 .L0 
     /tmp/cc6syZG2.s:27     .text:0000000000000010 .L0 
     /tmp/cc6syZG2.s:29     .text:0000000000000014 .L0 
     /tmp/cc6syZG2.s:32     .text:0000000000000018 .L0 
     /tmp/cc6syZG2.s:33     .text:000000000000001c .L0 
     /tmp/cc6syZG2.s:34     .text:000000000000001c .L0 
     /tmp/cc6syZG2.s:36     .text:0000000000000020 .L0 
     /tmp/cc6syZG2.s:38     .text:0000000000000024 .L0 
     /tmp/cc6syZG2.s:9      .text:0000000000000000 _ZN10KSemaphoreC1Ei
     /tmp/cc6syZG2.s:46     .text:0000000000000024 _ZN10KSemaphore12addToBlockedEP3PCB
     /tmp/cc6syZG2.s:49     .text:0000000000000024 .L0 
     /tmp/cc6syZG2.s:51     .text:0000000000000024 .L0 
     /tmp/cc6syZG2.s:52     .text:0000000000000028 .L0 
     /tmp/cc6syZG2.s:54     .text:000000000000002c .L0 
     /tmp/cc6syZG2.s:56     .text:0000000000000030 .L0 
     /tmp/cc6syZG2.s:58     .text:0000000000000030 .L0 
     /tmp/cc6syZG2.s:59     .text:0000000000000030 .L0 
     /tmp/cc6syZG2.s:61     .text:0000000000000034 .L0 
     /tmp/cc6syZG2.s:62     .text:0000000000000034 .L0 
     /tmp/cc6syZG2.s:64     .text:0000000000000038 .L0 
     /tmp/cc6syZG2.s:66     .text:000000000000003c .L0 
     /tmp/cc6syZG2.s:68     .text:0000000000000040 .L0 
     /tmp/cc6syZG2.s:70     .text:0000000000000044 .L0 
     /tmp/cc6syZG2.s:71     .text:0000000000000044 .L0 
     /tmp/cc6syZG2.s:74     .text:0000000000000048 .L0 
     /tmp/cc6syZG2.s:75     .text:000000000000004c .L0 
     /tmp/cc6syZG2.s:76     .text:000000000000004c .L0 
     /tmp/cc6syZG2.s:77     .text:000000000000004c .L0 
     /tmp/cc6syZG2.s:79     .text:0000000000000050 .L0 
     /tmp/cc6syZG2.s:82     .text:0000000000000054 .L0 
     /tmp/cc6syZG2.s:84     .text:0000000000000054 .L0 
     /tmp/cc6syZG2.s:85     .text:0000000000000054 .L0 
     /tmp/cc6syZG2.s:87     .text:0000000000000058 .L0 
     /tmp/cc6syZG2.s:89     .text:0000000000000060 .L0 
     /tmp/cc6syZG2.s:95     .text:0000000000000060 _ZN10KSemaphore5blockEv
     /tmp/cc6syZG2.s:98     .text:0000000000000060 .L0 
     /tmp/cc6syZG2.s:100    .text:0000000000000060 .L0 
     /tmp/cc6syZG2.s:101    .text:0000000000000064 .L0 
     /tmp/cc6syZG2.s:104    .text:000000000000006c .L0 
     /tmp/cc6syZG2.s:105    .text:000000000000006c .L0 
     /tmp/cc6syZG2.s:107    .text:0000000000000070 .L0 
     /tmp/cc6syZG2.s:109    .text:0000000000000070 .L0 
     /tmp/cc6syZG2.s:110    .text:0000000000000070 .L0 
     /tmp/cc6syZG2.s:117    .text:000000000000007c .L0 
     /tmp/cc6syZG2.s:118    .text:000000000000007c .L0 
     /tmp/cc6syZG2.s:124    .text:0000000000000084 .L0 
     /tmp/cc6syZG2.s:125    .text:0000000000000084 .L0 
GAS LISTING /tmp/cc6syZG2.s 			page 22


     /tmp/cc6syZG2.s:128    .text:000000000000008c .L0 
     /tmp/cc6syZG2.s:129    .text:000000000000008c .L0 
     /tmp/cc6syZG2.s:132    .text:0000000000000094 .L0 
     /tmp/cc6syZG2.s:133    .text:0000000000000098 .L0 
     /tmp/cc6syZG2.s:135    .text:000000000000009c .L0 
     /tmp/cc6syZG2.s:136    .text:000000000000009c .L0 
     /tmp/cc6syZG2.s:138    .text:00000000000000a0 .L0 
     /tmp/cc6syZG2.s:140    .text:00000000000000a4 .L0 
     /tmp/cc6syZG2.s:146    .text:00000000000000a4 _ZN10KSemaphore4waitEv
     /tmp/cc6syZG2.s:149    .text:00000000000000a4 .L0 
     /tmp/cc6syZG2.s:151    .text:00000000000000a4 .L0 
     /tmp/cc6syZG2.s:152    .text:00000000000000a4 .L0 
     /tmp/cc6syZG2.s:153    .text:00000000000000a4 .L0 
     /tmp/cc6syZG2.s:156    .text:00000000000000b0 .L0 
     /tmp/cc6syZG2.s:158    .text:00000000000000b4 .L0 
     /tmp/cc6syZG2.s:159    .text:00000000000000b4 .L0 
     /tmp/cc6syZG2.s:161    .text:00000000000000b8 .L0 
     /tmp/cc6syZG2.s:163    .text:00000000000000bc .L0 
     /tmp/cc6syZG2.s:165    .text:00000000000000c0 .L0 
     /tmp/cc6syZG2.s:168    .text:00000000000000c8 .L0 
     /tmp/cc6syZG2.s:169    .text:00000000000000c8 .L0 
     /tmp/cc6syZG2.s:175    .text:00000000000000d0 .L0 
     /tmp/cc6syZG2.s:176    .text:00000000000000d4 .L0 
     /tmp/cc6syZG2.s:179    .text:00000000000000dc .L0 
     /tmp/cc6syZG2.s:180    .text:00000000000000dc .L0 
     /tmp/cc6syZG2.s:182    .text:00000000000000e0 .L0 
     /tmp/cc6syZG2.s:184    .text:00000000000000e0 .L0 
     /tmp/cc6syZG2.s:185    .text:00000000000000e0 .L0 
     /tmp/cc6syZG2.s:188    .text:00000000000000e8 .L0 
     /tmp/cc6syZG2.s:189    .text:00000000000000e8 .L0 
     /tmp/cc6syZG2.s:191    .text:00000000000000f0 .L0 
     /tmp/cc6syZG2.s:193    .text:00000000000000f4 .L0 
     /tmp/cc6syZG2.s:194    .text:00000000000000f4 .L0 
     /tmp/cc6syZG2.s:196    .text:00000000000000f8 .L0 
     /tmp/cc6syZG2.s:198    .text:00000000000000fc .L0 
     /tmp/cc6syZG2.s:204    .text:00000000000000fc _ZN10KSemaphore15getFirstBlockedEv
     /tmp/cc6syZG2.s:207    .text:00000000000000fc .L0 
     /tmp/cc6syZG2.s:209    .text:00000000000000fc .L0 
     /tmp/cc6syZG2.s:210    .text:0000000000000100 .L0 
     /tmp/cc6syZG2.s:212    .text:0000000000000104 .L0 
     /tmp/cc6syZG2.s:214    .text:0000000000000108 .L0 
     /tmp/cc6syZG2.s:216    .text:0000000000000108 .L0 
     /tmp/cc6syZG2.s:217    .text:0000000000000108 .L0 
     /tmp/cc6syZG2.s:220    .text:0000000000000110 .L0 
     /tmp/cc6syZG2.s:221    .text:0000000000000110 .L0 
     /tmp/cc6syZG2.s:223    .text:0000000000000114 .L0 
     /tmp/cc6syZG2.s:225    .text:0000000000000118 .L0 
     /tmp/cc6syZG2.s:231    .text:0000000000000118 _ZN10KSemaphore18removeFirstBlockedEv
     /tmp/cc6syZG2.s:234    .text:0000000000000118 .L0 
     /tmp/cc6syZG2.s:236    .text:0000000000000118 .L0 
     /tmp/cc6syZG2.s:237    .text:000000000000011c .L0 
     /tmp/cc6syZG2.s:239    .text:0000000000000120 .L0 
     /tmp/cc6syZG2.s:241    .text:0000000000000124 .L0 
     /tmp/cc6syZG2.s:243    .text:0000000000000124 .L0 
     /tmp/cc6syZG2.s:244    .text:0000000000000124 .L0 
     /tmp/cc6syZG2.s:246    .text:0000000000000128 .L0 
     /tmp/cc6syZG2.s:249    .text:000000000000012c .L0 
GAS LISTING /tmp/cc6syZG2.s 			page 23


     /tmp/cc6syZG2.s:250    .text:000000000000012c .L0 
     /tmp/cc6syZG2.s:251    .text:000000000000012c .L0 
     /tmp/cc6syZG2.s:253    .text:0000000000000130 .L0 
     /tmp/cc6syZG2.s:255    .text:0000000000000134 .L0 
     /tmp/cc6syZG2.s:256    .text:0000000000000134 .L0 
     /tmp/cc6syZG2.s:258    .text:0000000000000138 .L0 
     /tmp/cc6syZG2.s:259    .text:0000000000000138 .L0 
     /tmp/cc6syZG2.s:262    .text:000000000000013c .L0 
     /tmp/cc6syZG2.s:265    .text:0000000000000140 .L0 
     /tmp/cc6syZG2.s:266    .text:0000000000000144 .L0 
     /tmp/cc6syZG2.s:267    .text:0000000000000144 .L0 
     /tmp/cc6syZG2.s:268    .text:0000000000000144 .L0 
     /tmp/cc6syZG2.s:270    .text:0000000000000148 .L0 
     /tmp/cc6syZG2.s:273    .text:000000000000014c .L0 
     /tmp/cc6syZG2.s:275    .text:000000000000014c .L0 
     /tmp/cc6syZG2.s:276    .text:000000000000014c .L0 
     /tmp/cc6syZG2.s:278    .text:0000000000000154 .L0 
     /tmp/cc6syZG2.s:284    .text:0000000000000154 _ZN10KSemaphoreD2Ev
     /tmp/cc6syZG2.s:287    .text:0000000000000154 .L0 
     /tmp/cc6syZG2.s:4557   .data.rel.local.DW.ref.__gxx_personality_v0:0000000000000000 DW.ref.__gxx_personality_v0
     /tmp/cc6syZG2.s:291    .text:0000000000000154 .L0 
     /tmp/cc6syZG2.s:292    .text:0000000000000158 .L0 
     /tmp/cc6syZG2.s:297    .text:0000000000000168 .L0 
     /tmp/cc6syZG2.s:298    .text:0000000000000168 .L0 
     /tmp/cc6syZG2.s:299    .text:0000000000000168 .L0 
     /tmp/cc6syZG2.s:300    .text:0000000000000168 .L0 
     /tmp/cc6syZG2.s:302    .text:000000000000016c .L0 
     /tmp/cc6syZG2.s:308    .text:0000000000000170 .L0 
     /tmp/cc6syZG2.s:309    .text:0000000000000170 .L0 
     /tmp/cc6syZG2.s:310    .text:0000000000000170 .L0 
     /tmp/cc6syZG2.s:315    .text:0000000000000180 .L0 
     /tmp/cc6syZG2.s:319    .text:0000000000000184 .L0 
     /tmp/cc6syZG2.s:320    .text:0000000000000184 .L0 
     /tmp/cc6syZG2.s:321    .text:0000000000000184 .L0 
     /tmp/cc6syZG2.s:325    .text:0000000000000190 .L0 
     /tmp/cc6syZG2.s:326    .text:0000000000000190 .L0 
     /tmp/cc6syZG2.s:329    .text:0000000000000198 .L0 
     /tmp/cc6syZG2.s:330    .text:0000000000000198 .L0 
     /tmp/cc6syZG2.s:335    .text:00000000000001a4 .L0 
     /tmp/cc6syZG2.s:340    .text:00000000000001a8 .L0 
     /tmp/cc6syZG2.s:341    .text:00000000000001ac .L0 
     /tmp/cc6syZG2.s:343    .text:00000000000001b0 .L0 
     /tmp/cc6syZG2.s:344    .text:00000000000001b0 .L0 
     /tmp/cc6syZG2.s:346    .text:00000000000001b4 .L0 
     /tmp/cc6syZG2.s:348    .text:00000000000001b8 .L0 
     /tmp/cc6syZG2.s:351    .text:00000000000001bc .L0 
     /tmp/cc6syZG2.s:353    .text:00000000000001c0 .L0 
     /tmp/cc6syZG2.s:284    .text:0000000000000154 _ZN10KSemaphoreD1Ev
     /tmp/cc6syZG2.s:369    .text:00000000000001c0 _ZN10KSemaphore7unblockEv
     /tmp/cc6syZG2.s:372    .text:00000000000001c0 .L0 
     /tmp/cc6syZG2.s:374    .text:00000000000001c0 .L0 
     /tmp/cc6syZG2.s:375    .text:00000000000001c4 .L0 
     /tmp/cc6syZG2.s:380    .text:00000000000001d4 .L0 
     /tmp/cc6syZG2.s:381    .text:00000000000001d4 .L0 
     /tmp/cc6syZG2.s:382    .text:00000000000001d4 .L0 
     /tmp/cc6syZG2.s:383    .text:00000000000001d4 .L0 
     /tmp/cc6syZG2.s:385    .text:00000000000001d8 .L0 
GAS LISTING /tmp/cc6syZG2.s 			page 24


     /tmp/cc6syZG2.s:388    .text:00000000000001dc .L0 
     /tmp/cc6syZG2.s:389    .text:00000000000001dc .L0 
     /tmp/cc6syZG2.s:394    .text:00000000000001e8 .L0 
     /tmp/cc6syZG2.s:395    .text:00000000000001e8 .L0 
     /tmp/cc6syZG2.s:399    .text:00000000000001f4 .L0 
     /tmp/cc6syZG2.s:401    .text:00000000000001f8 .L0 
     /tmp/cc6syZG2.s:402    .text:00000000000001f8 .L0 
     /tmp/cc6syZG2.s:407    .text:0000000000000204 .L0 
     /tmp/cc6syZG2.s:408    .text:0000000000000208 .L0 
     /tmp/cc6syZG2.s:410    .text:000000000000020c .L0 
     /tmp/cc6syZG2.s:411    .text:000000000000020c .L0 
     /tmp/cc6syZG2.s:413    .text:0000000000000210 .L0 
     /tmp/cc6syZG2.s:416    .text:0000000000000214 .L0 
     /tmp/cc6syZG2.s:419    .text:0000000000000218 .L0 
     /tmp/cc6syZG2.s:421    .text:000000000000021c .L0 
     /tmp/cc6syZG2.s:427    .text:000000000000021c _ZN10KSemaphore6signalEv
     /tmp/cc6syZG2.s:430    .text:000000000000021c .L0 
     /tmp/cc6syZG2.s:432    .text:000000000000021c .L0 
     /tmp/cc6syZG2.s:433    .text:000000000000021c .L0 
     /tmp/cc6syZG2.s:434    .text:000000000000021c .L0 
     /tmp/cc6syZG2.s:436    .text:0000000000000220 .L0 
     /tmp/cc6syZG2.s:439    .text:0000000000000228 .L0 
     /tmp/cc6syZG2.s:441    .text:000000000000022c .L0 
     /tmp/cc6syZG2.s:443    .text:0000000000000230 .L0 
     /tmp/cc6syZG2.s:444    .text:0000000000000230 .L0 
     /tmp/cc6syZG2.s:450    .text:0000000000000238 .L0 
     /tmp/cc6syZG2.s:451    .text:000000000000023c .L0 
     /tmp/cc6syZG2.s:454    .text:0000000000000244 .L0 
     /tmp/cc6syZG2.s:455    .text:0000000000000244 .L0 
     /tmp/cc6syZG2.s:457    .text:0000000000000248 .L0 
     /tmp/cc6syZG2.s:459    .text:0000000000000248 .L0 
     /tmp/cc6syZG2.s:460    .text:0000000000000248 .L0 
     /tmp/cc6syZG2.s:463    .text:0000000000000250 .L0 
     /tmp/cc6syZG2.s:464    .text:0000000000000250 .L0 
     /tmp/cc6syZG2.s:466    .text:0000000000000258 .L0 
     /tmp/cc6syZG2.s:468    .text:000000000000025c .L0 
     /tmp/cc6syZG2.s:469    .text:000000000000025c .L0 
     /tmp/cc6syZG2.s:471    .text:0000000000000260 .L0 
     /tmp/cc6syZG2.s:473    .text:0000000000000264 .L0 
     /tmp/cc6syZG2.s:479    .text:0000000000000264 _ZN10KSemaphorenwEm
     /tmp/cc6syZG2.s:482    .text:0000000000000264 .L0 
     /tmp/cc6syZG2.s:484    .text:0000000000000264 .L0 
     /tmp/cc6syZG2.s:485    .text:0000000000000268 .L0 
     /tmp/cc6syZG2.s:488    .text:0000000000000270 .L0 
     /tmp/cc6syZG2.s:489    .text:0000000000000270 .L0 
     /tmp/cc6syZG2.s:491    .text:0000000000000274 .L0 
     /tmp/cc6syZG2.s:493    .text:0000000000000274 .L0 
     /tmp/cc6syZG2.s:494    .text:0000000000000274 .L0 
     /tmp/cc6syZG2.s:500    .text:0000000000000288 .L0 
     /tmp/cc6syZG2.s:501    .text:000000000000028c .L0 
     /tmp/cc6syZG2.s:503    .text:0000000000000290 .L0 
     /tmp/cc6syZG2.s:504    .text:0000000000000290 .L0 
     /tmp/cc6syZG2.s:506    .text:0000000000000294 .L0 
     /tmp/cc6syZG2.s:508    .text:0000000000000298 .L0 
     /tmp/cc6syZG2.s:514    .text:0000000000000298 _ZN10KSemaphore14semOpenHandlerEv
     /tmp/cc6syZG2.s:517    .text:0000000000000298 .L0 
     /tmp/cc6syZG2.s:518    .text:0000000000000298 .L0 
GAS LISTING /tmp/cc6syZG2.s 			page 25


     /tmp/cc6syZG2.s:519    .text:000000000000029c .L0 
     /tmp/cc6syZG2.s:525    .text:00000000000002b0 .L0 
     /tmp/cc6syZG2.s:526    .text:00000000000002b0 .L0 
     /tmp/cc6syZG2.s:527    .text:00000000000002b0 .L0 
     /tmp/cc6syZG2.s:528    .text:00000000000002b0 .L0 
     /tmp/cc6syZG2.s:529    .text:00000000000002b0 .L0 
     /tmp/cc6syZG2.s:531    .text:00000000000002b4 .L0 
     /tmp/cc6syZG2.s:533    .text:00000000000002b4 .L0 
     /tmp/cc6syZG2.s:534    .text:00000000000002b4 .L0 
     /tmp/cc6syZG2.s:535    .text:00000000000002b4 .L0 
src/kernel/KSemaphore.cpp:36     .text:00000000000002b4 .L0 
     /tmp/cc6syZG2.s:542    .text:00000000000002b8 .L0 
src/kernel/KSemaphore.cpp:37     .text:00000000000002b8 .L0 
     /tmp/cc6syZG2.s:548    .text:00000000000002bc .L0 
     /tmp/cc6syZG2.s:550    .text:00000000000002bc .L0 
     /tmp/cc6syZG2.s:556    .text:00000000000002d0 .L0 
     /tmp/cc6syZG2.s:561    .text:00000000000002dc .L0 
     /tmp/cc6syZG2.s:562    .text:00000000000002dc .L0 
     /tmp/cc6syZG2.s:564    .text:00000000000002e0 .L0 
     /tmp/cc6syZG2.s:566    .text:00000000000002e4 .L0 
src/kernel/KSemaphore.cpp:46     .text:00000000000002e4 .L0 
     /tmp/cc6syZG2.s:574    .text:00000000000002e8 .L0 
     /tmp/cc6syZG2.s:575    .text:00000000000002e8 .L0 
     /tmp/cc6syZG2.s:578    .text:00000000000002f0 .L0 
     /tmp/cc6syZG2.s:579    .text:00000000000002f4 .L0 
     /tmp/cc6syZG2.s:580    .text:00000000000002f4 .L0 
     /tmp/cc6syZG2.s:582    .text:00000000000002f8 .L0 
     /tmp/cc6syZG2.s:583    .text:00000000000002f8 .L0 
     /tmp/cc6syZG2.s:585    .text:00000000000002fc .L0 
     /tmp/cc6syZG2.s:588    .text:0000000000000300 .L0 
     /tmp/cc6syZG2.s:591    .text:0000000000000304 .L0 
     /tmp/cc6syZG2.s:594    .text:0000000000000308 .L0 
     /tmp/cc6syZG2.s:598    .text:000000000000030c .L0 
     /tmp/cc6syZG2.s:600    .text:000000000000030c .L0 
src/kernel/KSemaphore.cpp:44     .text:000000000000030c .L0 
     /tmp/cc6syZG2.s:607    .text:0000000000000314 .L0 
     /tmp/cc6syZG2.s:613    .text:0000000000000314 _ZN10KSemaphoredlEPv
     /tmp/cc6syZG2.s:616    .text:0000000000000314 .L0 
     /tmp/cc6syZG2.s:618    .text:0000000000000314 .L0 
     /tmp/cc6syZG2.s:619    .text:0000000000000318 .L0 
     /tmp/cc6syZG2.s:622    .text:0000000000000320 .L0 
     /tmp/cc6syZG2.s:623    .text:0000000000000320 .L0 
     /tmp/cc6syZG2.s:625    .text:0000000000000324 .L0 
     /tmp/cc6syZG2.s:628    .text:0000000000000328 .L0 
     /tmp/cc6syZG2.s:629    .text:0000000000000328 .L0 
     /tmp/cc6syZG2.s:635    .text:000000000000033c .L0 
     /tmp/cc6syZG2.s:636    .text:0000000000000340 .L0 
     /tmp/cc6syZG2.s:638    .text:0000000000000344 .L0 
     /tmp/cc6syZG2.s:639    .text:0000000000000344 .L0 
     /tmp/cc6syZG2.s:641    .text:0000000000000348 .L0 
     /tmp/cc6syZG2.s:643    .text:000000000000034c .L0 
     /tmp/cc6syZG2.s:649    .text:000000000000034c _ZN10KSemaphore14semWaitHandlerEv
     /tmp/cc6syZG2.s:652    .text:000000000000034c .L0 
     /tmp/cc6syZG2.s:653    .text:000000000000034c .L0 
     /tmp/cc6syZG2.s:654    .text:0000000000000350 .L0 
     /tmp/cc6syZG2.s:657    .text:0000000000000358 .L0 
     /tmp/cc6syZG2.s:658    .text:0000000000000358 .L0 
GAS LISTING /tmp/cc6syZG2.s 			page 26


     /tmp/cc6syZG2.s:660    .text:000000000000035c .L0 
     /tmp/cc6syZG2.s:662    .text:000000000000035c .L0 
     /tmp/cc6syZG2.s:663    .text:000000000000035c .L0 
src/kernel/KSemaphore.cpp:120    .text:000000000000035c .L0 
     /tmp/cc6syZG2.s:670    .text:0000000000000360 .L0 
     /tmp/cc6syZG2.s:672    .text:0000000000000360 .L0 
     /tmp/cc6syZG2.s:675    .text:0000000000000368 .L0 
     /tmp/cc6syZG2.s:676    .text:0000000000000368 .L0 
     /tmp/cc6syZG2.s:680    .text:0000000000000378 .L0 
     /tmp/cc6syZG2.s:682    .text:000000000000037c .L0 
src/kernel/KSemaphore.cpp:123    .text:000000000000037c .L0 
     /tmp/cc6syZG2.s:690    .text:0000000000000380 .L0 
     /tmp/cc6syZG2.s:691    .text:0000000000000380 .L0 
     /tmp/cc6syZG2.s:694    .text:0000000000000388 .L0 
     /tmp/cc6syZG2.s:695    .text:000000000000038c .L0 
     /tmp/cc6syZG2.s:696    .text:000000000000038c .L0 
     /tmp/cc6syZG2.s:698    .text:0000000000000390 .L0 
     /tmp/cc6syZG2.s:699    .text:0000000000000390 .L0 
     /tmp/cc6syZG2.s:701    .text:0000000000000394 .L0 
     /tmp/cc6syZG2.s:704    .text:0000000000000398 .L0 
     /tmp/cc6syZG2.s:706    .text:0000000000000398 .L0 
src/kernel/KSemaphore.cpp:125    .text:0000000000000398 .L0 
     /tmp/cc6syZG2.s:713    .text:00000000000003a0 .L0 
     /tmp/cc6syZG2.s:719    .text:00000000000003a0 _ZN10KSemaphore16semSignalHandlerEv
     /tmp/cc6syZG2.s:722    .text:00000000000003a0 .L0 
     /tmp/cc6syZG2.s:723    .text:00000000000003a0 .L0 
     /tmp/cc6syZG2.s:724    .text:00000000000003a4 .L0 
     /tmp/cc6syZG2.s:727    .text:00000000000003ac .L0 
     /tmp/cc6syZG2.s:728    .text:00000000000003ac .L0 
     /tmp/cc6syZG2.s:730    .text:00000000000003b0 .L0 
     /tmp/cc6syZG2.s:732    .text:00000000000003b0 .L0 
     /tmp/cc6syZG2.s:733    .text:00000000000003b0 .L0 
src/kernel/KSemaphore.cpp:131    .text:00000000000003b0 .L0 
     /tmp/cc6syZG2.s:741    .text:00000000000003b4 .L0 
     /tmp/cc6syZG2.s:743    .text:00000000000003b8 .L0 
     /tmp/cc6syZG2.s:744    .text:00000000000003b8 .L0 
     /tmp/cc6syZG2.s:747    .text:00000000000003c0 .L0 
src/kernel/KSemaphore.cpp:139    .text:00000000000003c0 .L0 
     /tmp/cc6syZG2.s:755    .text:00000000000003c4 .L0 
     /tmp/cc6syZG2.s:756    .text:00000000000003c4 .L0 
     /tmp/cc6syZG2.s:759    .text:00000000000003cc .L0 
     /tmp/cc6syZG2.s:760    .text:00000000000003d0 .L0 
     /tmp/cc6syZG2.s:761    .text:00000000000003d0 .L0 
     /tmp/cc6syZG2.s:763    .text:00000000000003d4 .L0 
     /tmp/cc6syZG2.s:764    .text:00000000000003d4 .L0 
     /tmp/cc6syZG2.s:766    .text:00000000000003d8 .L0 
     /tmp/cc6syZG2.s:770    .text:00000000000003dc .L0 
     /tmp/cc6syZG2.s:772    .text:00000000000003dc .L0 
src/kernel/KSemaphore.cpp:134    .text:00000000000003dc .L0 
     /tmp/cc6syZG2.s:779    .text:00000000000003e4 .L0 
     /tmp/cc6syZG2.s:785    .text:00000000000003e4 _ZN10KSemaphore15semCloseHandlerEv
     /tmp/cc6syZG2.s:788    .text:00000000000003e4 .L0 
     /tmp/cc6syZG2.s:789    .text:00000000000003e4 .L0 
     /tmp/cc6syZG2.s:790    .text:00000000000003e8 .L0 
     /tmp/cc6syZG2.s:794    .text:00000000000003f4 .L0 
     /tmp/cc6syZG2.s:795    .text:00000000000003f4 .L0 
     /tmp/cc6syZG2.s:796    .text:00000000000003f4 .L0 
GAS LISTING /tmp/cc6syZG2.s 			page 27


     /tmp/cc6syZG2.s:798    .text:00000000000003f8 .L0 
     /tmp/cc6syZG2.s:800    .text:00000000000003f8 .L0 
     /tmp/cc6syZG2.s:801    .text:00000000000003f8 .L0 
src/kernel/KSemaphore.cpp:147    .text:00000000000003f8 .L0 
     /tmp/cc6syZG2.s:808    .text:00000000000003fc .L0 
     /tmp/cc6syZG2.s:810    .text:00000000000003fc .L0 
     /tmp/cc6syZG2.s:812    .text:0000000000000400 .L0 
     /tmp/cc6syZG2.s:820    .text:0000000000000418 .L0 
src/kernel/KSemaphore.cpp:149    .text:0000000000000418 .L0 
     /tmp/cc6syZG2.s:826    .text:000000000000041c .L0 
     /tmp/cc6syZG2.s:828    .text:000000000000041c .L0 
     /tmp/cc6syZG2.s:831    .text:0000000000000424 .L0 
     /tmp/cc6syZG2.s:832    .text:0000000000000428 .L0 
     /tmp/cc6syZG2.s:834    .text:000000000000042c .L0 
     /tmp/cc6syZG2.s:835    .text:000000000000042c .L0 
     /tmp/cc6syZG2.s:837    .text:0000000000000430 .L0 
     /tmp/cc6syZG2.s:840    .text:0000000000000434 .L0 
     /tmp/cc6syZG2.s:842    .text:0000000000000438 .L0 
     /tmp/cc6syZG2.s:851    .text:0000000000000438 .L0 
     /tmp/cc6syZG2.s:110    .text:0000000000000070 .L0 
     /tmp/cc6syZG2.s:153    .text:00000000000000a4 .L0 
     /tmp/cc6syZG2.s:494    .text:0000000000000274 .L0 
     /tmp/cc6syZG2.s:629    .text:0000000000000328 .L0 
     /tmp/cc6syZG2.s:676    .text:0000000000000368 .L0 
     /tmp/cc6syZG2.s:81     .text:0000000000000054 .L7
     /tmp/cc6syZG2.s:72     .text:0000000000000048 .L3
     /tmp/cc6syZG2.s:173    .text:00000000000000d0 .L16
     /tmp/cc6syZG2.s:263    .text:0000000000000140 .L19
     /tmp/cc6syZG2.s:272    .text:000000000000014c .L22
     /tmp/cc6syZG2.s:337    .text:00000000000001a8 .L23
     /tmp/cc6syZG2.s:305    .text:0000000000000170 .L25
     /tmp/cc6syZG2.s:405    .text:0000000000000204 .L27
     /tmp/cc6syZG2.s:448    .text:0000000000000238 .L36
     /tmp/cc6syZG2.s:559    .text:00000000000002dc .L40
     /tmp/cc6syZG2.s:597    .text:000000000000030c .L44
     /tmp/cc6syZG2.s:572    .text:00000000000002e8 .L42
     /tmp/cc6syZG2.s:703    .text:0000000000000398 .L48
     /tmp/cc6syZG2.s:688    .text:0000000000000380 .L49
     /tmp/cc6syZG2.s:769    .text:00000000000003dc .L55
     /tmp/cc6syZG2.s:753    .text:00000000000003c4 .L53
     /tmp/cc6syZG2.s:818    .text:0000000000000418 .L57
     /tmp/cc6syZG2.s:2730   .debug_abbrev:0000000000000000 .Ldebug_abbrev0
     /tmp/cc6syZG2.s:4197   .debug_str:00000000000004ce .LASF245
     /tmp/cc6syZG2.s:4063   .debug_str:0000000000000087 .LASF246
     /tmp/cc6syZG2.s:4195   .debug_str:00000000000004b0 .LASF247
     /tmp/cc6syZG2.s:5      .text:0000000000000000 .Ltext0
     /tmp/cc6syZG2.s:845    .text:0000000000000438 .Letext0
     /tmp/cc6syZG2.s:4043   .debug_line:0000000000000000 .Ldebug_line0
     /tmp/cc6syZG2.s:4225   .debug_str:0000000000000670 .LASF0
     /tmp/cc6syZG2.s:4257   .debug_str:0000000000000779 .LASF1
     /tmp/cc6syZG2.s:4373   .debug_str:0000000000000b9d .LASF2
     /tmp/cc6syZG2.s:4389   .debug_str:0000000000000c20 .LASF4
     /tmp/cc6syZG2.s:4239   .debug_str:00000000000006d5 .LASF3
     /tmp/cc6syZG2.s:4065   .debug_str:00000000000000a1 .LASF5
     /tmp/cc6syZG2.s:4333   .debug_str:0000000000000a4d .LASF6
     /tmp/cc6syZG2.s:4249   .debug_str:000000000000072e .LASF7
     /tmp/cc6syZG2.s:4191   .debug_str:000000000000048c .LASF8
GAS LISTING /tmp/cc6syZG2.s 			page 28


     /tmp/cc6syZG2.s:4203   .debug_str:00000000000005ce .LASF9
     /tmp/cc6syZG2.s:4115   .debug_str:0000000000000260 .LASF10
     /tmp/cc6syZG2.s:4435   .debug_str:0000000000000da3 .LASF11
     /tmp/cc6syZG2.s:4179   .debug_str:000000000000041f .LASF12
     /tmp/cc6syZG2.s:4127   .debug_str:000000000000029c .LASF13
     /tmp/cc6syZG2.s:4113   .debug_str:0000000000000250 .LASF14
     /tmp/cc6syZG2.s:4441   .debug_str:0000000000000ddf .LASF15
     /tmp/cc6syZG2.s:4169   .debug_str:00000000000003ce .LASF16
     /tmp/cc6syZG2.s:4423   .debug_str:0000000000000d19 .LASF17
     /tmp/cc6syZG2.s:4455   .debug_str:0000000000000e29 .LASF248
     /tmp/cc6syZG2.s:4451   .debug_str:0000000000000e18 .LASF18
     /tmp/cc6syZG2.s:4413   .debug_str:0000000000000cda .LASF19
     /tmp/cc6syZG2.s:4123   .debug_str:0000000000000288 .LASF20
     /tmp/cc6syZG2.s:4093   .debug_str:0000000000000190 .LASF21
     /tmp/cc6syZG2.s:4337   .debug_str:0000000000000a76 .LASF22
     /tmp/cc6syZG2.s:4121   .debug_str:000000000000027f .LASF23
     /tmp/cc6syZG2.s:4447   .debug_str:0000000000000e05 .LASF91
     /tmp/cc6syZG2.s:4211   .debug_str:0000000000000623 .LASF24
     /tmp/cc6syZG2.s:4069   .debug_str:00000000000000b3 .LASF30
     /tmp/cc6syZG2.s:4475   .debug_str:0000000000000eb3 .LASF249
     /tmp/cc6syZG2.s:4321   .debug_str:00000000000009f7 .LASF25
     /tmp/cc6syZG2.s:4255   .debug_str:0000000000000774 .LASF26
     /tmp/cc6syZG2.s:4537   .debug_str:00000000000010cb .LASF28
     /tmp/cc6syZG2.s:4531   .debug_str:000000000000109b .LASF27
     /tmp/cc6syZG2.s:4463   .debug_str:0000000000000e49 .LASF29
     /tmp/cc6syZG2.s:4149   .debug_str:0000000000000354 .LASF53
     /tmp/cc6syZG2.s:4079   .debug_str:000000000000010f .LASF55
     /tmp/cc6syZG2.s:4459   .debug_str:0000000000000e39 .LASF31
     /tmp/cc6syZG2.s:4403   .debug_str:0000000000000c80 .LASF32
     /tmp/cc6syZG2.s:4261   .debug_str:00000000000007ab .LASF35
     /tmp/cc6syZG2.s:4267   .debug_str:00000000000007e2 .LASF37
     /tmp/cc6syZG2.s:4543   .debug_str:00000000000010ff .LASF33
     /tmp/cc6syZG2.s:4171   .debug_str:00000000000003e4 .LASF34
     /tmp/cc6syZG2.s:4055   .debug_str:0000000000000052 .LASF79
     /tmp/cc6syZG2.s:4237   .debug_str:00000000000006c8 .LASF81
     /tmp/cc6syZG2.s:4407   .debug_str:0000000000000ca2 .LASF36
     /tmp/cc6syZG2.s:4295   .debug_str:00000000000008f1 .LASF38
     /tmp/cc6syZG2.s:4385   .debug_str:0000000000000bf1 .LASF39
     /tmp/cc6syZG2.s:4433   .debug_str:0000000000000d87 .LASF40
     /tmp/cc6syZG2.s:4297   .debug_str:0000000000000904 .LASF41
     /tmp/cc6syZG2.s:4049   .debug_str:000000000000001b .LASF42
     /tmp/cc6syZG2.s:4519   .debug_str:000000000000102a .LASF43
     /tmp/cc6syZG2.s:4331   .debug_str:0000000000000a33 .LASF44
     /tmp/cc6syZG2.s:4421   .debug_str:0000000000000d0b .LASF45
     /tmp/cc6syZG2.s:4343   .debug_str:0000000000000aa7 .LASF46
     /tmp/cc6syZG2.s:4145   .debug_str:0000000000000332 .LASF47
     /tmp/cc6syZG2.s:4181   .debug_str:000000000000042e .LASF48
     /tmp/cc6syZG2.s:4365   .debug_str:0000000000000b61 .LASF49
     /tmp/cc6syZG2.s:4275   .debug_str:000000000000082f .LASF50
     /tmp/cc6syZG2.s:4525   .debug_str:000000000000105e .LASF51
     /tmp/cc6syZG2.s:4241   .debug_str:00000000000006e7 .LASF52
     /tmp/cc6syZG2.s:4417   .debug_str:0000000000000cf9 .LASF54
     /tmp/cc6syZG2.s:4535   .debug_str:00000000000010b5 .LASF56
     /tmp/cc6syZG2.s:4449   .debug_str:0000000000000e0d .LASF57
     /tmp/cc6syZG2.s:4139   .debug_str:0000000000000311 .LASF58
     /tmp/cc6syZG2.s:4399   .debug_str:0000000000000c6a .LASF59
     /tmp/cc6syZG2.s:4227   .debug_str:000000000000067d .LASF60
GAS LISTING /tmp/cc6syZG2.s 			page 29


     /tmp/cc6syZG2.s:4307   .debug_str:0000000000000958 .LASF61
     /tmp/cc6syZG2.s:4133   .debug_str:00000000000002eb .LASF62
     /tmp/cc6syZG2.s:4349   .debug_str:0000000000000add .LASF63
     /tmp/cc6syZG2.s:4549   .debug_str:0000000000001131 .LASF64
     /tmp/cc6syZG2.s:4311   .debug_str:000000000000097e .LASF65
     /tmp/cc6syZG2.s:4383   .debug_str:0000000000000bde .LASF66
     /tmp/cc6syZG2.s:4409   .debug_str:0000000000000cab .LASF67
     /tmp/cc6syZG2.s:4489   .debug_str:0000000000000f2a .LASF68
     /tmp/cc6syZG2.s:4285   .debug_str:000000000000088e .LASF69
     /tmp/cc6syZG2.s:4479   .debug_str:0000000000000edd .LASF70
     /tmp/cc6syZG2.s:4431   .debug_str:0000000000000d67 .LASF71
     /tmp/cc6syZG2.s:4327   .debug_str:0000000000000a14 .LASF72
     /tmp/cc6syZG2.s:4313   .debug_str:000000000000099f .LASF73
     /tmp/cc6syZG2.s:4159   .debug_str:000000000000037f .LASF74
     /tmp/cc6syZG2.s:4229   .debug_str:0000000000000691 .LASF75
     /tmp/cc6syZG2.s:4287   .debug_str:00000000000008ac .LASF76
     /tmp/cc6syZG2.s:4467   .debug_str:0000000000000e6d .LASF77
     /tmp/cc6syZG2.s:4183   .debug_str:000000000000043e .LASF78
     /tmp/cc6syZG2.s:4529   .debug_str:000000000000108d .LASF80
     /tmp/cc6syZG2.s:4081   .debug_str:0000000000000122 .LASF82
     /tmp/cc6syZG2.s:4173   .debug_str:00000000000003f0 .LASF83
     /tmp/cc6syZG2.s:4103   .debug_str:00000000000001ce .LASF84
     /tmp/cc6syZG2.s:4517   .debug_str:0000000000001023 .LASF85
     /tmp/cc6syZG2.s:4099   .debug_str:00000000000001af .LASF86
     /tmp/cc6syZG2.s:4053   .debug_str:000000000000004d .LASF87
     /tmp/cc6syZG2.s:4487   .debug_str:0000000000000f25 .LASF88
     /tmp/cc6syZG2.s:4273   .debug_str:0000000000000827 .LASF89
     /tmp/cc6syZG2.s:4157   .debug_str:0000000000000379 .LASF90
     /tmp/cc6syZG2.s:4473   .debug_str:0000000000000eab .LASF92
     /tmp/cc6syZG2.s:4087   .debug_str:000000000000015d .LASF93
     /tmp/cc6syZG2.s:4277   .debug_str:000000000000083e .LASF94
     /tmp/cc6syZG2.s:4357   .debug_str:0000000000000b35 .LASF95
     /tmp/cc6syZG2.s:4199   .debug_str:000000000000059e .LASF96
     /tmp/cc6syZG2.s:4377   .debug_str:0000000000000bb3 .LASF97
     /tmp/cc6syZG2.s:4355   .debug_str:0000000000000b21 .LASF98
     /tmp/cc6syZG2.s:4151   .debug_str:000000000000035d .LASF99
     /tmp/cc6syZG2.s:4415   .debug_str:0000000000000ce2 .LASF100
     /tmp/cc6syZG2.s:4445   .debug_str:0000000000000dfe .LASF101
     /tmp/cc6syZG2.s:4303   .debug_str:0000000000000929 .LASF102
     /tmp/cc6syZG2.s:4047   .debug_str:000000000000000f .LASF103
     /tmp/cc6syZG2.s:4381   .debug_str:0000000000000bd2 .LASF104
     /tmp/cc6syZG2.s:4281   .debug_str:0000000000000862 .LASF105
     /tmp/cc6syZG2.s:4369   .debug_str:0000000000000b7d .LASF106
     /tmp/cc6syZG2.s:4119   .debug_str:0000000000000276 .LASF107
     /tmp/cc6syZG2.s:4125   .debug_str:0000000000000292 .LASF108
     /tmp/cc6syZG2.s:4301   .debug_str:0000000000000920 .LASF109
     /tmp/cc6syZG2.s:4453   .debug_str:0000000000000e1e .LASF110
     /tmp/cc6syZG2.s:4045   .debug_str:0000000000000000 .LASF111
     /tmp/cc6syZG2.s:4207   .debug_str:00000000000005ef .LASF112
     /tmp/cc6syZG2.s:4471   .debug_str:0000000000000e9c .LASF113
     /tmp/cc6syZG2.s:4439   .debug_str:0000000000000dbd .LASF114
     /tmp/cc6syZG2.s:4411   .debug_str:0000000000000cc9 .LASF115
     /tmp/cc6syZG2.s:4131   .debug_str:00000000000002c7 .LASF116
     /tmp/cc6syZG2.s:4319   .debug_str:00000000000009e7 .LASF117
     /tmp/cc6syZG2.s:4347   .debug_str:0000000000000aba .LASF118
     /tmp/cc6syZG2.s:4223   .debug_str:000000000000066a .LASF119
     /tmp/cc6syZG2.s:4545   .debug_str:000000000000110c .LASF120
GAS LISTING /tmp/cc6syZG2.s 			page 30


     /tmp/cc6syZG2.s:4057   .debug_str:0000000000000062 .LASF121
     /tmp/cc6syZG2.s:4271   .debug_str:000000000000080d .LASF122
     /tmp/cc6syZG2.s:4541   .debug_str:00000000000010ef .LASF123
     /tmp/cc6syZG2.s:4391   .debug_str:0000000000000c27 .LASF124
     /tmp/cc6syZG2.s:4443   .debug_str:0000000000000deb .LASF125
     /tmp/cc6syZG2.s:4387   .debug_str:0000000000000bfa .LASF126
     /tmp/cc6syZG2.s:4547   .debug_str:0000000000001124 .LASF127
     /tmp/cc6syZG2.s:4253   .debug_str:0000000000000750 .LASF128
     /tmp/cc6syZG2.s:4177   .debug_str:0000000000000412 .LASF129
     /tmp/cc6syZG2.s:4175   .debug_str:0000000000000405 .LASF250
     /tmp/cc6syZG2.s:4507   .debug_str:0000000000000fd6 .LASF130
     /tmp/cc6syZG2.s:4219   .debug_str:0000000000000647 .LASF159
     /tmp/cc6syZG2.s:4429   .debug_str:0000000000000d4f .LASF161
     /tmp/cc6syZG2.s:4493   .debug_str:0000000000000f44 .LASF131
     /tmp/cc6syZG2.s:4523   .debug_str:000000000000104f .LASF132
     /tmp/cc6syZG2.s:4497   .debug_str:0000000000000f6f .LASF133
     /tmp/cc6syZG2.s:4375   .debug_str:0000000000000bab .LASF134
     /tmp/cc6syZG2.s:4135   .debug_str:00000000000002fd .LASF135
     /tmp/cc6syZG2.s:4499   .debug_str:0000000000000f8b .LASF136
     /tmp/cc6syZG2.s:4511   .debug_str:0000000000000fe6 .LASF137
     /tmp/cc6syZG2.s:4513   .debug_str:0000000000000ffa .LASF138
     /tmp/cc6syZG2.s:4251   .debug_str:0000000000000741 .LASF139
     /tmp/cc6syZG2.s:4105   .debug_str:00000000000001fa .LASF140
     /tmp/cc6syZG2.s:4163   .debug_str:000000000000039f .LASF141
     /tmp/cc6syZG2.s:4279   .debug_str:0000000000000843 .LASF142
     /tmp/cc6syZG2.s:4187   .debug_str:000000000000046e .LASF143
     /tmp/cc6syZG2.s:4289   .debug_str:00000000000008b4 .LASF144
     /tmp/cc6syZG2.s:4329   .debug_str:0000000000000a28 .LASF145
     /tmp/cc6syZG2.s:4283   .debug_str:0000000000000876 .LASF146
     /tmp/cc6syZG2.s:4167   .debug_str:00000000000003c4 .LASF147
     /tmp/cc6syZG2.s:4335   .debug_str:0000000000000a60 .LASF148
     /tmp/cc6syZG2.s:4109   .debug_str:000000000000022c .LASF149
     /tmp/cc6syZG2.s:4265   .debug_str:00000000000007c4 .LASF150
     /tmp/cc6syZG2.s:4161   .debug_str:0000000000000388 .LASF151
     /tmp/cc6syZG2.s:4527   .debug_str:0000000000001069 .LASF152
     /tmp/cc6syZG2.s:4235   .debug_str:00000000000006b6 .LASF153
     /tmp/cc6syZG2.s:4259   .debug_str:000000000000078c .LASF154
     /tmp/cc6syZG2.s:4401   .debug_str:0000000000000c72 .LASF155
     /tmp/cc6syZG2.s:4129   .debug_str:00000000000002ac .LASF156
     /tmp/cc6syZG2.s:4299   .debug_str:0000000000000913 .LASF157
     /tmp/cc6syZG2.s:4495   .debug_str:0000000000000f55 .LASF158
     /tmp/cc6syZG2.s:4485   .debug_str:0000000000000f1c .LASF160
     /tmp/cc6syZG2.s:4061   .debug_str:0000000000000072 .LASF162
     /tmp/cc6syZG2.s:4083   .debug_str:000000000000014a .LASF163
     /tmp/cc6syZG2.s:4317   .debug_str:00000000000009d2 .LASF164
     /tmp/cc6syZG2.s:4345   .debug_str:0000000000000ab3 .LASF165
     /tmp/cc6syZG2.s:4351   .debug_str:0000000000000afa .LASF166
     /tmp/cc6syZG2.s:4309   .debug_str:0000000000000977 .LASF167
     /tmp/cc6syZG2.s:4379   .debug_str:0000000000000bbf .LASF168
     /tmp/cc6syZG2.s:4515   .debug_str:000000000000101b .LASF169
     /tmp/cc6syZG2.s:4465   .debug_str:0000000000000e59 .LASF170
     /tmp/cc6syZG2.s:4247   .debug_str:0000000000000726 .LASF171
     /tmp/cc6syZG2.s:4315   .debug_str:00000000000009be .LASF172
     /tmp/cc6syZG2.s:4291   .debug_str:00000000000008d7 .LASF173
     /tmp/cc6syZG2.s:4353   .debug_str:0000000000000b0d .LASF174
     /tmp/cc6syZG2.s:4427   .debug_str:0000000000000d47 .LASF175
     /tmp/cc6syZG2.s:4233   .debug_str:00000000000006a2 .LASF176
GAS LISTING /tmp/cc6syZG2.s 			page 31


     /tmp/cc6syZG2.s:4215   .debug_str:0000000000000634 .LASF177
     /tmp/cc6syZG2.s:4437   .debug_str:0000000000000db6 .LASF178
     /tmp/cc6syZG2.s:4395   .debug_str:0000000000000c50 .LASF179
     /tmp/cc6syZG2.s:4397   .debug_str:0000000000000c63 .LASF180
     /tmp/cc6syZG2.s:4165   .debug_str:00000000000003b1 .LASF181
     /tmp/cc6syZG2.s:4393   .debug_str:0000000000000c4a .LASF182
     /tmp/cc6syZG2.s:4073   .debug_str:00000000000000d6 .LASF183
     /tmp/cc6syZG2.s:4231   .debug_str:000000000000069c .LASF184
     /tmp/cc6syZG2.s:4147   .debug_str:0000000000000342 .LASF185
     /tmp/cc6syZG2.s:4101   .debug_str:00000000000001c0 .LASF186
     /tmp/cc6syZG2.s:4483   .debug_str:0000000000000f01 .LASF187
     /tmp/cc6syZG2.s:4067   .debug_str:00000000000000a8 .LASF188
     /tmp/cc6syZG2.s:4425   .debug_str:0000000000000d2f .LASF189
     /tmp/cc6syZG2.s:4371   .debug_str:0000000000000b92 .LASF190
     /tmp/cc6syZG2.s:4539   .debug_str:00000000000010d7 .LASF191
     /tmp/cc6syZG2.s:4491   .debug_str:0000000000000f3d .LASF192
     /tmp/cc6syZG2.s:4111   .debug_str:000000000000023d .LASF193
     /tmp/cc6syZG2.s:4419   .debug_str:0000000000000d04 .LASF194
     /tmp/cc6syZG2.s:4269   .debug_str:00000000000007fa .LASF195
     /tmp/cc6syZG2.s:4509   .debug_str:0000000000000fdc .LASF196
     /tmp/cc6syZG2.s:4521   .debug_str:0000000000001039 .LASF197
     /tmp/cc6syZG2.s:4503   .debug_str:0000000000000fba .LASF198
     /tmp/cc6syZG2.s:4075   .debug_str:00000000000000e8 .LASF199
     /tmp/cc6syZG2.s:4143   .debug_str:000000000000032c .LASF200
     /tmp/cc6syZG2.s:4209   .debug_str:0000000000000611 .LASF201
     /tmp/cc6syZG2.s:4217   .debug_str:0000000000000641 .LASF202
     /tmp/cc6syZG2.s:4505   .debug_str:0000000000000fc4 .LASF203
     /tmp/cc6syZG2.s:4213   .debug_str:0000000000000629 .LASF204
     /tmp/cc6syZG2.s:4221   .debug_str:0000000000000652 .LASF205
     /tmp/cc6syZG2.s:4481   .debug_str:0000000000000ef2 .LASF206
     /tmp/cc6syZG2.s:4201   .debug_str:00000000000005b2 .LASF207
     /tmp/cc6syZG2.s:4339   .debug_str:0000000000000a7e .LASF208
     /tmp/cc6syZG2.s:4245   .debug_str:0000000000000704 .LASF209
     /tmp/cc6syZG2.s:4363   .debug_str:0000000000000b5a .LASF210
     /tmp/cc6syZG2.s:4059   .debug_str:000000000000006a .LASF211
     /tmp/cc6syZG2.s:4089   .debug_str:000000000000016e .LASF212
     /tmp/cc6syZG2.s:4263   .debug_str:00000000000007b8 .LASF213
     /tmp/cc6syZG2.s:4091   .debug_str:000000000000017d .LASF214
     /tmp/cc6syZG2.s:4293   .debug_str:00000000000008df .LASF215
     /tmp/cc6syZG2.s:4205   .debug_str:00000000000005dc .LASF216
     /tmp/cc6syZG2.s:4501   .debug_str:0000000000000fa7 .LASF217
     /tmp/cc6syZG2.s:4107   .debug_str:0000000000000218 .LASF218
     /tmp/cc6syZG2.s:4457   .debug_str:0000000000000e2f .LASF219
     /tmp/cc6syZG2.s:4359   .debug_str:0000000000000b40 .LASF220
     /tmp/cc6syZG2.s:4367   .debug_str:0000000000000b6e .LASF221
     /tmp/cc6syZG2.s:4361   .debug_str:0000000000000b49 .LASF222
     /tmp/cc6syZG2.s:4189   .debug_str:0000000000000482 .LASF223
     /tmp/cc6syZG2.s:4071   .debug_str:00000000000000be .LASF251
     /tmp/cc6syZG2.s:4533   .debug_str:00000000000010a1 .LASF252
     /tmp/cc6syZG2.s:4477   .debug_str:0000000000000ecb .LASF224
     /tmp/cc6syZG2.s:4323   .debug_str:00000000000009fc .LASF225
     /tmp/cc6syZG2.s:4461   .debug_str:0000000000000e41 .LASF226
     /tmp/cc6syZG2.s:4051   .debug_str:0000000000000035 .LASF227
     /tmp/cc6syZG2.s:4097   .debug_str:00000000000001a9 .LASF228
     /tmp/cc6syZG2.s:4305   .debug_str:0000000000000942 .LASF229
     /tmp/cc6syZG2.s:4405   .debug_str:0000000000000c91 .LASF230
     /tmp/cc6syZG2.s:4077   .debug_str:00000000000000fe .LASF231
GAS LISTING /tmp/cc6syZG2.s 			page 32


     /tmp/cc6syZG2.s:786    .text:00000000000003e4 .LFB43
     /tmp/cc6syZG2.s:843    .text:0000000000000438 .LFE43
     /tmp/cc6syZG2.s:4325   .debug_str:0000000000000a0f .LASF232
     /tmp/cc6syZG2.s:3790   .debug_loc:0000000000000000 .LLST18
     /tmp/cc6syZG2.s:814    .text:000000000000040c .LVL58
     /tmp/cc6syZG2.s:817    .text:0000000000000418 .LVL59
     /tmp/cc6syZG2.s:829    .text:0000000000000424 .LVL60
     /tmp/cc6syZG2.s:720    .text:00000000000003a0 .LFB42
     /tmp/cc6syZG2.s:780    .text:00000000000003e4 .LFE42
     /tmp/cc6syZG2.s:3797   .debug_loc:0000000000000023 .LLST17
     /tmp/cc6syZG2.s:745    .text:00000000000003c0 .LVL54
     /tmp/cc6syZG2.s:757    .text:00000000000003cc .LVL55
     /tmp/cc6syZG2.s:650    .text:000000000000034c .LFB41
     /tmp/cc6syZG2.s:714    .text:00000000000003a0 .LFE41
     /tmp/cc6syZG2.s:3808   .debug_loc:0000000000000059 .LLST16
     /tmp/cc6syZG2.s:673    .text:0000000000000368 .LVL51
     /tmp/cc6syZG2.s:692    .text:0000000000000388 .LVL52
     /tmp/cc6syZG2.s:614    .text:0000000000000314 .LFB40
     /tmp/cc6syZG2.s:644    .text:000000000000034c .LFE40
     /tmp/cc6syZG2.s:3815   .debug_loc:000000000000007c .LLST15
     /tmp/cc6syZG2.s:633    .text:000000000000033c .LVL49
     /tmp/cc6syZG2.s:480    .text:0000000000000264 .LFB39
     /tmp/cc6syZG2.s:509    .text:0000000000000298 .LFE39
     /tmp/cc6syZG2.s:4137   .debug_str:000000000000030c .LASF233
     /tmp/cc6syZG2.s:3833   .debug_loc:00000000000000c8 .LLST11
     /tmp/cc6syZG2.s:498    .text:0000000000000288 .LVL37
     /tmp/cc6syZG2.s:370    .text:00000000000001c0 .LFB38
     /tmp/cc6syZG2.s:422    .text:000000000000021c .LFE38
     /tmp/cc6syZG2.s:4141   .debug_str:0000000000000327 .LASF234
     /tmp/cc6syZG2.s:3847   .debug_loc:0000000000000101 .LLST8
     /tmp/cc6syZG2.s:3865   .debug_loc:000000000000014d .LLST9
     /tmp/cc6syZG2.s:390    .text:00000000000001e4 .LVL25
     /tmp/cc6syZG2.s:397    .text:00000000000001f4 .LVL27
     /tmp/cc6syZG2.s:404    .text:0000000000000204 .LVL28
     /tmp/cc6syZG2.s:232    .text:0000000000000118 .LFB37
     /tmp/cc6syZG2.s:279    .text:0000000000000154 .LFE37
     /tmp/cc6syZG2.s:4155   .debug_str:0000000000000373 .LASF235
     /tmp/cc6syZG2.s:3872   .debug_loc:0000000000000170 .LLST5
     /tmp/cc6syZG2.s:205    .text:00000000000000fc .LFB36
     /tmp/cc6syZG2.s:226    .text:0000000000000118 .LFE36
     /tmp/cc6syZG2.s:3879   .debug_loc:0000000000000193 .LLST4
     /tmp/cc6syZG2.s:96     .text:0000000000000060 .LFB35
     /tmp/cc6syZG2.s:141    .text:00000000000000a4 .LFE35
     /tmp/cc6syZG2.s:3893   .debug_loc:00000000000001cc .LLST0
     /tmp/cc6syZG2.s:113    .text:000000000000007c .LBB5
     /tmp/cc6syZG2.s:122    .text:0000000000000084 .LBE5
     /tmp/cc6syZG2.s:3907   .debug_loc:0000000000000205 .LLST1
     /tmp/cc6syZG2.s:3915   .debug_loc:0000000000000229 .LLST2
     /tmp/cc6syZG2.s:126    .text:000000000000008c .LVL5
     /tmp/cc6syZG2.s:130    .text:0000000000000094 .LVL6
     /tmp/cc6syZG2.s:47     .text:0000000000000024 .LFB34
     /tmp/cc6syZG2.s:90     .text:0000000000000060 .LFE34
     /tmp/cc6syZG2.s:4085   .debug_str:0000000000000153 .LASF236
     /tmp/cc6syZG2.s:4193   .debug_str:000000000000049c .LASF239
     /tmp/cc6syZG2.s:285    .text:0000000000000154 .LFB32
     /tmp/cc6syZG2.s:354    .text:00000000000001c0 .LFE32
     /tmp/cc6syZG2.s:3922   .debug_loc:000000000000024c .LLST6
GAS LISTING /tmp/cc6syZG2.s 			page 33


     /tmp/cc6syZG2.s:323    .text:0000000000000190 .LVL20
     /tmp/cc6syZG2.s:332    .text:00000000000001a4 .LVL21
     /tmp/cc6syZG2.s:316    .text:0000000000000184 .LBB8
     /tmp/cc6syZG2.s:333    .text:00000000000001a4 .LBE8
     /tmp/cc6syZG2.s:3940   .debug_loc:0000000000000298 .LLST7
     /tmp/cc6syZG2.s:312    .text:000000000000017c .LVL18
     /tmp/cc6syZG2.s:515    .text:0000000000000298 .LFB30
     /tmp/cc6syZG2.s:608    .text:0000000000000314 .LFE30
     /tmp/cc6syZG2.s:3947   .debug_loc:00000000000002bb .LLST12
     /tmp/cc6syZG2.s:4243   .debug_str:00000000000006f4 .LASF237
     /tmp/cc6syZG2.s:3958   .debug_loc:00000000000002f1 .LLST13
     /tmp/cc6syZG2.s:4117   .debug_str:000000000000026f .LASF238
     /tmp/cc6syZG2.s:3969   .debug_loc:0000000000000327 .LLST14
     /tmp/cc6syZG2.s:552    .text:00000000000002c8 .LVL40
     /tmp/cc6syZG2.s:558    .text:00000000000002dc .LVL41
     /tmp/cc6syZG2.s:576    .text:00000000000002f0 .LVL42
     /tmp/cc6syZG2.s:428    .text:000000000000021c .LFB29
     /tmp/cc6syZG2.s:474    .text:0000000000000264 .LFE29
     /tmp/cc6syZG2.s:3980   .debug_loc:000000000000035d .LLST10
     /tmp/cc6syZG2.s:461    .text:0000000000000250 .LVL34
     /tmp/cc6syZG2.s:147    .text:00000000000000a4 .LFB28
     /tmp/cc6syZG2.s:199    .text:00000000000000fc .LFE28
     /tmp/cc6syZG2.s:4005   .debug_loc:00000000000003bf .LLST3
     /tmp/cc6syZG2.s:186    .text:00000000000000e8 .LVL10
     /tmp/cc6syZG2.s:4341   .debug_str:0000000000000a93 .LASF240
     /tmp/cc6syZG2.s:10     .text:0000000000000000 .LFB26
     /tmp/cc6syZG2.s:39     .text:0000000000000024 .LFE26
     /tmp/cc6syZG2.s:4469   .debug_str:0000000000000e77 .LASF241
     /tmp/cc6syZG2.s:4095   .debug_str:0000000000000199 .LASF243
     /tmp/cc6syZG2.s:4185   .debug_str:000000000000044a .LASF242
     /tmp/cc6syZG2.s:4153   .debug_str:0000000000000362 .LASF244
     /tmp/cc6syZG2.s:806    .text:00000000000003fc .LVL57
     /tmp/cc6syZG2.s:838    .text:0000000000000430 .LVL61
     /tmp/cc6syZG2.s:738    .text:00000000000003b4 .LVL53
     /tmp/cc6syZG2.s:768    .text:00000000000003dc .LVL56
     /tmp/cc6syZG2.s:668    .text:0000000000000360 .LVL50
     /tmp/cc6syZG2.s:617    .text:0000000000000314 .LVL47
     /tmp/cc6syZG2.s:631    .text:0000000000000334 .LVL48
     /tmp/cc6syZG2.s:483    .text:0000000000000264 .LVL35
     /tmp/cc6syZG2.s:496    .text:0000000000000280 .LVL36
     /tmp/cc6syZG2.s:373    .text:00000000000001c0 .LVL24
     /tmp/cc6syZG2.s:417    .text:0000000000000214 .LVL30
     /tmp/cc6syZG2.s:392    .text:00000000000001e8 .LVL26
     /tmp/cc6syZG2.s:414    .text:0000000000000210 .LVL29
     /tmp/cc6syZG2.s:248    .text:000000000000012c .LVL14
     /tmp/cc6syZG2.s:260    .text:000000000000013c .LVL15
     /tmp/cc6syZG2.s:208    .text:00000000000000fc .LVL11
     /tmp/cc6syZG2.s:218    .text:000000000000010c .LVL12
     /tmp/cc6syZG2.s:99     .text:0000000000000060 .LVL2
     /tmp/cc6syZG2.s:112    .text:000000000000007c .LVL3
     /tmp/cc6syZG2.s:120    .text:0000000000000084 .LVL4
     /tmp/cc6syZG2.s:290    .text:0000000000000154 .LVL16
     /tmp/cc6syZG2.s:304    .text:0000000000000170 .LVL17
     /tmp/cc6syZG2.s:349    .text:00000000000001b8 .LVL23
     /tmp/cc6syZG2.s:318    .text:0000000000000184 .LVL19
     /tmp/cc6syZG2.s:336    .text:00000000000001a8 .LVL22
     /tmp/cc6syZG2.s:546    .text:00000000000002bc .LVL39
GAS LISTING /tmp/cc6syZG2.s 			page 34


     /tmp/cc6syZG2.s:592    .text:0000000000000304 .LVL45
     /tmp/cc6syZG2.s:596    .text:000000000000030c .LVL46
     /tmp/cc6syZG2.s:540    .text:00000000000002b8 .LVL38
     /tmp/cc6syZG2.s:589    .text:0000000000000300 .LVL44
     /tmp/cc6syZG2.s:586    .text:00000000000002fc .LVL43
     /tmp/cc6syZG2.s:431    .text:000000000000021c .LVL31
     /tmp/cc6syZG2.s:445    .text:0000000000000234 .LVL32
     /tmp/cc6syZG2.s:447    .text:0000000000000238 .LVL33
     /tmp/cc6syZG2.s:150    .text:00000000000000a4 .LVL7
     /tmp/cc6syZG2.s:170    .text:00000000000000cc .LVL8
     /tmp/cc6syZG2.s:172    .text:00000000000000d0 .LVL9
     /tmp/cc6syZG2.s:852    .debug_info:0000000000000000 .Ldebug_info0
     /tmp/cc6syZG2.s:357    .gcc_except_table:0000000000000000 .LLSDA32

UNDEFINED SYMBOLS
_ZN3PCB7runningE
_ZN3PCB8dispatchEv
_ZN9Scheduler3putEP3PCB
__gxx_personality_v0
_ZN5Riscv14semaphoreCacheE
_Z16kmem_cache_allocP12kmem_cache_s
_ZN5Riscv13w_a0_sscratchEv
_Z15kmem_cache_freeP12kmem_cache_sPv
