GAS LISTING /tmp/ccj6XjNR.s 			page 1


   1              		.file	"PCB.cpp"
   2              		.option pic
   3              		.option norelax
   4              		.text
   5              	.Ltext0:
   6              		.align	2
   7              		.globl	_ZN3PCB6runnerEv
   9              	_ZN3PCB6runnerEv:
  10              	.LFB29:
  11              		.file 1 "src/kernel/PCB.cpp"
   1:src/kernel/PCB.cpp **** //
   2:src/kernel/PCB.cpp **** // Created by os on 4/27/22.
   3:src/kernel/PCB.cpp **** //
   4:src/kernel/PCB.cpp **** 
   5:src/kernel/PCB.cpp **** #include "../../h/PCB.hpp"
   6:src/kernel/PCB.cpp **** #include "../../h/syscall_c.hpp"
   7:src/kernel/PCB.cpp **** #include "../../h/SleepPCBList.hpp"
   8:src/kernel/PCB.cpp **** #include "../user/test/printing.hpp"
   9:src/kernel/PCB.cpp **** #include "../../h/KConsole.hpp"
  10:src/kernel/PCB.cpp **** #include "../../h/Scheduler.hpp"
  11:src/kernel/PCB.cpp **** #include "../../h/Riscv.hpp"
  12:src/kernel/PCB.cpp **** #include "../../h/syscall_c_kernel.hpp"
  13:src/kernel/PCB.cpp **** #include "../../h/PCBWrapperUser.hpp"
  14:src/kernel/PCB.cpp **** 
  15:src/kernel/PCB.cpp **** PCB* PCB::running = 0;
  16:src/kernel/PCB.cpp **** uint64 PCB::timeSliceCounter = 0;
  17:src/kernel/PCB.cpp **** uint64 PCB::savedRegA4 = 0;
  18:src/kernel/PCB.cpp **** PCB* PCB::consolePCB = 0;
  19:src/kernel/PCB.cpp **** PCB* PCB::userPCB = 0;
  20:src/kernel/PCB.cpp **** 
  21:src/kernel/PCB.cpp **** PCB::PCB(Body body, void *args, void* stack_space, uint64 timeSlice) :
  22:src/kernel/PCB.cpp ****     timeSlice(timeSlice),
  23:src/kernel/PCB.cpp ****     body(body),
  24:src/kernel/PCB.cpp ****     args(args),
  25:src/kernel/PCB.cpp ****     beginSP(stack_space),
  26:src/kernel/PCB.cpp ****     context({
  27:src/kernel/PCB.cpp ****         (uint64)((char*)stack_space + DEFAULT_STACK_SIZE),
  28:src/kernel/PCB.cpp ****         (uint64)&PCB::runner
  29:src/kernel/PCB.cpp ****     })
  30:src/kernel/PCB.cpp **** {
  31:src/kernel/PCB.cpp ****     nextPCB = 0;
  32:src/kernel/PCB.cpp **** }
  33:src/kernel/PCB.cpp **** 
  34:src/kernel/PCB.cpp **** void PCB::start()
  35:src/kernel/PCB.cpp **** {
  36:src/kernel/PCB.cpp ****     Scheduler::put(this);
  37:src/kernel/PCB.cpp **** }
  38:src/kernel/PCB.cpp **** 
  39:src/kernel/PCB.cpp **** void PCB::runner()
  40:src/kernel/PCB.cpp **** {
  12              		.loc 1 40 1
  13              		.cfi_startproc
  14 0000 130101FF 		addi	sp,sp,-16
  15              		.cfi_def_cfa_offset 16
  16 0004 23341100 		sd	ra,8(sp)
  17 0008 23308100 		sd	s0,0(sp)
  18              		.cfi_offset 1, -8
GAS LISTING /tmp/ccj6XjNR.s 			page 2


  19              		.cfi_offset 8, -16
  20 000c 13040101 		addi	s0,sp,16
  21              		.cfi_def_cfa 8, 0
  41:src/kernel/PCB.cpp ****     Riscv::popSppSpie();
  22              		.loc 1 41 5
  23              		.loc 1 41 22 is_stmt 0
  24 0010 97000000 		call	_ZN5Riscv10popSppSpieEv@plt
  24      E7800000 
  25              	.LVL0:
  42:src/kernel/PCB.cpp ****     running->body(running->args);
  26              		.loc 1 42 5 is_stmt 1
  27              		.loc 1 42 14 is_stmt 0
  28 0018 97070000 		ld	a5,.LANCHOR0
  28      83B70700 
  29 0020 03B78702 		ld	a4,40(a5)
  30              		.loc 1 42 18
  31 0024 03B50703 		ld	a0,48(a5)
  32 0028 E7000700 		jalr	a4
  33              	.LVL1:
  43:src/kernel/PCB.cpp **** 
  44:src/kernel/PCB.cpp ****     thread_exit_kernel();
  34              		.loc 1 44 5 is_stmt 1
  35              		.loc 1 44 23 is_stmt 0
  36 002c 97000000 		call	_Z18thread_exit_kernelv@plt
  36      E7800000 
  37              	.LVL2:
  45:src/kernel/PCB.cpp **** }
  38              		.loc 1 45 1
  39 0034 83308100 		ld	ra,8(sp)
  40              		.cfi_restore 1
  41 0038 03340100 		ld	s0,0(sp)
  42              		.cfi_restore 8
  43              		.cfi_def_cfa 2, 16
  44 003c 13010101 		addi	sp,sp,16
  45              		.cfi_def_cfa_offset 0
  46 0040 67800000 		jr	ra
  47              		.cfi_endproc
  48              	.LFE29:
  50              		.align	2
  51              		.globl	_ZN3PCBC2EPFvPvES0_S0_m
  53              	_ZN3PCBC2EPFvPvES0_S0_m:
  54              	.LFB26:
  21:src/kernel/PCB.cpp ****     timeSlice(timeSlice),
  55              		.loc 1 21 1 is_stmt 1
  56              		.cfi_startproc
  57              	.LVL3:
  58 0044 130101FF 		addi	sp,sp,-16
  59              		.cfi_def_cfa_offset 16
  60 0048 23348100 		sd	s0,8(sp)
  61              		.cfi_offset 8, -8
  62 004c 13040101 		addi	s0,sp,16
  63              		.cfi_def_cfa 8, 0
  64              	.LBB12:
  29:src/kernel/PCB.cpp **** {
  65              		.loc 1 29 6 is_stmt 0
  66 0050 23000500 		sb	zero,0(a0)
  67 0054 233CE500 		sd	a4,24(a0)
GAS LISTING /tmp/ccj6XjNR.s 			page 3


  68 0058 23300502 		sd	zero,32(a0)
  69 005c 2334B502 		sd	a1,40(a0)
  70 0060 2338C502 		sd	a2,48(a0)
  71 0064 233CD502 		sd	a3,56(a0)
  27:src/kernel/PCB.cpp ****         (uint64)&PCB::runner
  72              		.loc 1 27 37
  73 0068 B7170000 		li	a5,4096
  74 006c B386F600 		add	a3,a3,a5
  75              	.LVL4:
  29:src/kernel/PCB.cpp **** {
  76              		.loc 1 29 6
  77 0070 2334D504 		sd	a3,72(a0)
  78 0074 97070000 		lla	a5,_ZN3PCB6runnerEv
  78      93870700 
  79 007c 2338F504 		sd	a5,80(a0)
  80 0080 230C0504 		sb	zero,88(a0)
  31:src/kernel/PCB.cpp **** }
  81              		.loc 1 31 5 is_stmt 1
  31:src/kernel/PCB.cpp **** }
  82              		.loc 1 31 13 is_stmt 0
  83 0084 23340500 		sd	zero,8(a0)
  84              	.LBE12:
  32:src/kernel/PCB.cpp **** 
  85              		.loc 1 32 1
  86 0088 03348100 		ld	s0,8(sp)
  87              		.cfi_restore 8
  88              		.cfi_def_cfa 2, 16
  89 008c 13010101 		addi	sp,sp,16
  90              		.cfi_def_cfa_offset 0
  91 0090 67800000 		jr	ra
  92              		.cfi_endproc
  93              	.LFE26:
  95              		.globl	_ZN3PCBC1EPFvPvES0_S0_m
  96              		.set	_ZN3PCBC1EPFvPvES0_S0_m,_ZN3PCBC2EPFvPvES0_S0_m
  97              		.align	2
  98              		.globl	_ZN3PCB5startEv
 100              	_ZN3PCB5startEv:
 101              	.LFB28:
  35:src/kernel/PCB.cpp ****     Scheduler::put(this);
 102              		.loc 1 35 1 is_stmt 1
 103              		.cfi_startproc
 104              	.LVL5:
 105 0094 130101FF 		addi	sp,sp,-16
 106              		.cfi_def_cfa_offset 16
 107 0098 23341100 		sd	ra,8(sp)
 108 009c 23308100 		sd	s0,0(sp)
 109              		.cfi_offset 1, -8
 110              		.cfi_offset 8, -16
 111 00a0 13040101 		addi	s0,sp,16
 112              		.cfi_def_cfa 8, 0
  36:src/kernel/PCB.cpp **** }
 113              		.loc 1 36 5
  36:src/kernel/PCB.cpp **** }
 114              		.loc 1 36 19 is_stmt 0
 115 00a4 97000000 		call	_ZN9Scheduler3putEP3PCB@plt
 115      E7800000 
 116              	.LVL6:
GAS LISTING /tmp/ccj6XjNR.s 			page 4


  37:src/kernel/PCB.cpp **** 
 117              		.loc 1 37 1
 118 00ac 83308100 		ld	ra,8(sp)
 119              		.cfi_restore 1
 120 00b0 03340100 		ld	s0,0(sp)
 121              		.cfi_restore 8
 122              		.cfi_def_cfa 2, 16
 123 00b4 13010101 		addi	sp,sp,16
 124              		.cfi_def_cfa_offset 0
 125 00b8 67800000 		jr	ra
 126              		.cfi_endproc
 127              	.LFE28:
 129              		.align	2
 130              		.globl	_ZN3PCB8dispatchEv
 132              	_ZN3PCB8dispatchEv:
 133              	.LFB30:
  46:src/kernel/PCB.cpp **** 
  47:src/kernel/PCB.cpp **** void PCB::dispatch()
  48:src/kernel/PCB.cpp **** {
 134              		.loc 1 48 1 is_stmt 1
 135              		.cfi_startproc
 136 00bc 130101FE 		addi	sp,sp,-32
 137              		.cfi_def_cfa_offset 32
 138 00c0 233C1100 		sd	ra,24(sp)
 139 00c4 23388100 		sd	s0,16(sp)
 140 00c8 23349100 		sd	s1,8(sp)
 141 00cc 23302101 		sd	s2,0(sp)
 142              		.cfi_offset 1, -8
 143              		.cfi_offset 8, -16
 144              		.cfi_offset 9, -24
 145              		.cfi_offset 18, -32
 146 00d0 13040102 		addi	s0,sp,32
 147              		.cfi_def_cfa 8, 0
  49:src/kernel/PCB.cpp ****     PCB* old = running;
 148              		.loc 1 49 5
 149              		.loc 1 49 10 is_stmt 0
 150 00d4 97040000 		ld	s1,.LANCHOR0
 150      83B40400 
 151              	.LVL7:
  50:src/kernel/PCB.cpp ****     if(old->getState() == PCB::RUNNING)
 152              		.loc 1 50 5 is_stmt 1
 153              	.LBB13:
 154              	.LBB14:
 155              		.file 2 "src/kernel/../../h/PCB.hpp"
   1:src/kernel/../../h/PCB.hpp **** //
   2:src/kernel/../../h/PCB.hpp **** // Created by os on 4/27/22.
   3:src/kernel/../../h/PCB.hpp **** //
   4:src/kernel/../../h/PCB.hpp **** 
   5:src/kernel/../../h/PCB.hpp **** #ifndef PROJECT_BASE_V1_0_PCB_HPP
   6:src/kernel/../../h/PCB.hpp **** #define PROJECT_BASE_V1_0_PCB_HPP
   7:src/kernel/../../h/PCB.hpp **** 
   8:src/kernel/../../h/PCB.hpp **** #include "../lib/hw.h"
   9:src/kernel/../../h/PCB.hpp **** 
  10:src/kernel/../../h/PCB.hpp **** class PCB
  11:src/kernel/../../h/PCB.hpp **** {
  12:src/kernel/../../h/PCB.hpp **** private:
  13:src/kernel/../../h/PCB.hpp ****     static uint64 savedRegA4;
GAS LISTING /tmp/ccj6XjNR.s 			page 5


  14:src/kernel/../../h/PCB.hpp **** 
  15:src/kernel/../../h/PCB.hpp ****     using Body = void (*)(void*);
  16:src/kernel/../../h/PCB.hpp **** 
  17:src/kernel/../../h/PCB.hpp ****     PCB(Body body,  void* args, void* stack_space, uint64 timeSlice);
  18:src/kernel/../../h/PCB.hpp ****     ~PCB();
  19:src/kernel/../../h/PCB.hpp **** 
  20:src/kernel/../../h/PCB.hpp ****     void start();
  21:src/kernel/../../h/PCB.hpp ****     static void dispatch();
  22:src/kernel/../../h/PCB.hpp **** 
  23:src/kernel/../../h/PCB.hpp ****     static PCB* running;
  24:src/kernel/../../h/PCB.hpp **** 
  25:src/kernel/../../h/PCB.hpp ****     static uint64 timeSliceCounter;
  26:src/kernel/../../h/PCB.hpp ****     uint64 getTimeSlice() { return timeSlice;}
  27:src/kernel/../../h/PCB.hpp **** 
  28:src/kernel/../../h/PCB.hpp ****     void* operator new(size_t size);
  29:src/kernel/../../h/PCB.hpp ****     void operator delete(void *p);
  30:src/kernel/../../h/PCB.hpp **** 
  31:src/kernel/../../h/PCB.hpp ****     enum State{READY, RUNNING, SUSPENDED, FINISHED, EXITING, SLEEPING};
  32:src/kernel/../../h/PCB.hpp ****     State getState() {return state;}
 156              		.loc 2 32 23
 157              		.loc 2 32 30 is_stmt 0
 158 00dc 03A70404 		lw	a4,64(s1)
 159              	.LVL8:
 160              	.LBE14:
 161              	.LBE13:
 162              		.loc 1 50 5
 163 00e0 93071000 		li	a5,1
 164 00e4 630AF704 		beq	a4,a5,.L10
 165              	.L8:
  51:src/kernel/PCB.cpp ****         Scheduler::put(old);
  52:src/kernel/PCB.cpp **** 
  53:src/kernel/PCB.cpp ****     PCB::running = Scheduler::get();
 166              		.loc 1 53 5 is_stmt 1
 167              		.loc 1 53 34 is_stmt 0
 168 00e8 97000000 		call	_ZN9Scheduler3getEv@plt
 168      E7800000 
 169              	.LVL9:
 170              		.loc 1 53 18
 171 00f0 17090000 		lla	s2,.LANCHOR0
 171      13090900 
 172 00f8 2330A900 		sd	a0,0(s2)
  54:src/kernel/PCB.cpp ****     PCB::running->setState(PCB::RUNNING);
 173              		.loc 1 54 5 is_stmt 1
 174              	.LVL10:
 175              	.LBB15:
 176              	.LBB16:
  33:src/kernel/../../h/PCB.hpp ****     void setState(State s) {state = s;}
 177              		.loc 2 33 29
 178              		.loc 2 33 35 is_stmt 0
 179 00fc 93071000 		li	a5,1
 180 0100 2320F504 		sw	a5,64(a0)
 181              	.LVL11:
 182              	.LBE16:
 183              	.LBE15:
  55:src/kernel/PCB.cpp **** 
  56:src/kernel/PCB.cpp ****     Riscv::changePrivMode();
 184              		.loc 1 56 5 is_stmt 1
GAS LISTING /tmp/ccj6XjNR.s 			page 6


 185              		.loc 1 56 26 is_stmt 0
 186 0104 97000000 		call	_ZN5Riscv14changePrivModeEv@plt
 186      E7800000 
 187              	.LVL12:
  57:src/kernel/PCB.cpp **** 
  58:src/kernel/PCB.cpp ****     PCB::contextSwitch(&old->context, &running->context);
 188              		.loc 1 58 5 is_stmt 1
 189              		.loc 1 58 49 is_stmt 0
 190 010c 83350900 		ld	a1,0(s2)
 191              		.loc 1 58 23
 192 0110 93858504 		addi	a1,a1,72
 193 0114 13858404 		addi	a0,s1,72
 194 0118 97000000 		call	_ZN3PCB13contextSwitchEPNS_7ContextES1_@plt
 194      E7800000 
 195              	.LVL13:
  59:src/kernel/PCB.cpp **** }
 196              		.loc 1 59 1
 197 0120 83308101 		ld	ra,24(sp)
 198              		.cfi_remember_state
 199              		.cfi_restore 1
 200 0124 03340101 		ld	s0,16(sp)
 201              		.cfi_restore 8
 202              		.cfi_def_cfa 2, 32
 203 0128 83348100 		ld	s1,8(sp)
 204              		.cfi_restore 9
 205              	.LVL14:
 206 012c 03390100 		ld	s2,0(sp)
 207              		.cfi_restore 18
 208 0130 13010102 		addi	sp,sp,32
 209              		.cfi_def_cfa_offset 0
 210 0134 67800000 		jr	ra
 211              	.LVL15:
 212              	.L10:
 213              		.cfi_restore_state
  51:src/kernel/PCB.cpp **** 
 214              		.loc 1 51 9 is_stmt 1
  51:src/kernel/PCB.cpp **** 
 215              		.loc 1 51 23 is_stmt 0
 216 0138 13850400 		mv	a0,s1
 217 013c 97000000 		call	_ZN9Scheduler3putEP3PCB@plt
 217      E7800000 
 218              	.LVL16:
 219 0144 6FF05FFA 		j	.L8
 220              		.cfi_endproc
 221              	.LFE30:
 223              		.align	2
 224              		.globl	_ZN3PCBnwEm
 226              	_ZN3PCBnwEm:
 227              	.LFB31:
  60:src/kernel/PCB.cpp **** 
  61:src/kernel/PCB.cpp **** void *PCB::operator new(size_t size) {
 228              		.loc 1 61 38 is_stmt 1
 229              		.cfi_startproc
 230              	.LVL17:
 231 0148 130101FF 		addi	sp,sp,-16
 232              		.cfi_def_cfa_offset 16
 233 014c 23341100 		sd	ra,8(sp)
GAS LISTING /tmp/ccj6XjNR.s 			page 7


 234 0150 23308100 		sd	s0,0(sp)
 235              		.cfi_offset 1, -8
 236              		.cfi_offset 8, -16
 237 0154 13040101 		addi	s0,sp,16
 238              		.cfi_def_cfa 8, 0
  62:src/kernel/PCB.cpp ****     return kmem_cache_alloc(Riscv::pcbCache);
 239              		.loc 1 62 5
 240              		.loc 1 62 28 is_stmt 0
 241 0158 97070000 		la	a5,_ZN5Riscv8pcbCacheE
 241      83B70700 
 242 0160 03B50700 		ld	a0,0(a5)
 243              	.LVL18:
 244 0164 97000000 		call	_Z16kmem_cache_allocP12kmem_cache_s@plt
 244      E7800000 
 245              	.LVL19:
  63:src/kernel/PCB.cpp ****     //return MemoryAllocator::kmalloc(size);
  64:src/kernel/PCB.cpp **** }
 246              		.loc 1 64 1
 247 016c 83308100 		ld	ra,8(sp)
 248              		.cfi_restore 1
 249 0170 03340100 		ld	s0,0(sp)
 250              		.cfi_restore 8
 251              		.cfi_def_cfa 2, 16
 252 0174 13010101 		addi	sp,sp,16
 253              		.cfi_def_cfa_offset 0
 254 0178 67800000 		jr	ra
 255              		.cfi_endproc
 256              	.LFE31:
 258              		.align	2
 259              		.globl	_ZN3PCBdlEPv
 261              	_ZN3PCBdlEPv:
 262              	.LFB32:
  65:src/kernel/PCB.cpp **** 
  66:src/kernel/PCB.cpp **** void PCB::operator delete(void *p) {
 263              		.loc 1 66 36 is_stmt 1
 264              		.cfi_startproc
 265              	.LVL20:
 266 017c 130101FF 		addi	sp,sp,-16
 267              		.cfi_def_cfa_offset 16
 268 0180 23341100 		sd	ra,8(sp)
 269 0184 23308100 		sd	s0,0(sp)
 270              		.cfi_offset 1, -8
 271              		.cfi_offset 8, -16
 272 0188 13040101 		addi	s0,sp,16
 273              		.cfi_def_cfa 8, 0
 274 018c 93050500 		mv	a1,a0
  67:src/kernel/PCB.cpp ****     kmem_cache_free(Riscv::pcbCache, p);
 275              		.loc 1 67 5
 276              		.loc 1 67 20 is_stmt 0
 277 0190 97070000 		la	a5,_ZN5Riscv8pcbCacheE
 277      83B70700 
 278 0198 03B50700 		ld	a0,0(a5)
 279              	.LVL21:
 280 019c 97000000 		call	_Z15kmem_cache_freeP12kmem_cache_sPv@plt
 280      E7800000 
 281              	.LVL22:
  68:src/kernel/PCB.cpp ****     //MemoryAllocator::kfree(p);
GAS LISTING /tmp/ccj6XjNR.s 			page 8


  69:src/kernel/PCB.cpp **** }
 282              		.loc 1 69 1
 283 01a4 83308100 		ld	ra,8(sp)
 284              		.cfi_restore 1
 285 01a8 03340100 		ld	s0,0(sp)
 286              		.cfi_restore 8
 287              		.cfi_def_cfa 2, 16
 288 01ac 13010101 		addi	sp,sp,16
 289              		.cfi_def_cfa_offset 0
 290 01b0 67800000 		jr	ra
 291              		.cfi_endproc
 292              	.LFE32:
 294              		.align	2
 295              		.globl	_ZN3PCBD2Ev
 297              	_ZN3PCBD2Ev:
 298              	.LFB34:
  70:src/kernel/PCB.cpp **** 
  71:src/kernel/PCB.cpp **** PCB::~PCB()
 299              		.loc 1 71 1 is_stmt 1
 300              		.cfi_startproc
 301              		.cfi_personality 0x9b,DW.ref.__gxx_personality_v0
 302              		.cfi_lsda 0x1b,.LLSDA34
 303              	.LVL23:
 304 01b4 130101FF 		addi	sp,sp,-16
 305              		.cfi_def_cfa_offset 16
 306 01b8 23341100 		sd	ra,8(sp)
 307 01bc 23308100 		sd	s0,0(sp)
 308              		.cfi_offset 1, -8
 309              		.cfi_offset 8, -16
 310 01c0 13040101 		addi	s0,sp,16
 311              		.cfi_def_cfa 8, 0
 312              	.LBB17:
  72:src/kernel/PCB.cpp **** {
  73:src/kernel/PCB.cpp ****     MemoryAllocator::kfree(beginSP);
 313              		.loc 1 73 5
 314              		.loc 1 73 27 is_stmt 0
 315 01c4 03358503 		ld	a0,56(a0)
 316              	.LVL24:
 317 01c8 97000000 		call	_ZN15MemoryAllocator5kfreeEPv@plt
 317      E7800000 
 318              	.LVL25:
 319              	.LBE17:
  74:src/kernel/PCB.cpp **** }
 320              		.loc 1 74 1
 321 01d0 83308100 		ld	ra,8(sp)
 322              		.cfi_restore 1
 323 01d4 03340100 		ld	s0,0(sp)
 324              		.cfi_restore 8
 325              		.cfi_def_cfa 2, 16
 326 01d8 13010101 		addi	sp,sp,16
 327              		.cfi_def_cfa_offset 0
 328 01dc 67800000 		jr	ra
 329              		.cfi_endproc
 330              	.LFE34:
 331              		.globl	__gxx_personality_v0
 332              		.section	.gcc_except_table,"a",@progbits
 333              	.LLSDA34:
GAS LISTING /tmp/ccj6XjNR.s 			page 9


 334 0000 FF       		.byte	0xff
 335 0001 FF       		.byte	0xff
 336 0002 03       		.byte	0x3
 337 0003 00       		.byte	0
 338              		.text
 340              		.globl	_ZN3PCBD1Ev
 341              		.set	_ZN3PCBD1Ev,_ZN3PCBD2Ev
 342              		.align	2
 343              		.globl	_ZN3PCB10initializeEv
 345              	_ZN3PCB10initializeEv:
 346              	.LFB36:
  75:src/kernel/PCB.cpp **** 
  76:src/kernel/PCB.cpp **** void PCB::initialize()
  77:src/kernel/PCB.cpp **** {
 347              		.loc 1 77 1 is_stmt 1
 348              		.cfi_startproc
 349 01e0 130101FE 		addi	sp,sp,-32
 350              		.cfi_def_cfa_offset 32
 351 01e4 233C1100 		sd	ra,24(sp)
 352 01e8 23388100 		sd	s0,16(sp)
 353 01ec 23349100 		sd	s1,8(sp)
 354 01f0 23302101 		sd	s2,0(sp)
 355              		.cfi_offset 1, -8
 356              		.cfi_offset 8, -16
 357              		.cfi_offset 9, -24
 358              		.cfi_offset 18, -32
 359 01f4 13040102 		addi	s0,sp,32
 360              		.cfi_def_cfa 8, 0
  78:src/kernel/PCB.cpp ****     PCB* mainSystem = new PCB(0, 0, 0, 0);
 361              		.loc 1 78 5
 362              		.loc 1 78 41 is_stmt 0
 363 01f8 13050006 		li	a0,96
 364 01fc 97000000 		call	_ZN3PCBnwEm
 364      E7800000 
 365              	.LVL26:
 366 0204 93040500 		mv	s1,a0
 367 0208 630E0500 		beqz	a0,.L18
 368              		.loc 1 78 41 discriminator 1
 369 020c 13070000 		li	a4,0
 370 0210 93060000 		li	a3,0
 371 0214 13060000 		li	a2,0
 372 0218 93050000 		li	a1,0
 373 021c 97000000 		call	_ZN3PCBC1EPFvPvES0_S0_m
 373      E7800000 
 374              	.LVL27:
 375              	.L18:
  79:src/kernel/PCB.cpp ****     mainSystem->systemThread = true;
 376              		.loc 1 79 5 is_stmt 1 discriminator 4
 377              		.loc 1 79 30 is_stmt 0 discriminator 4
 378 0224 93071000 		li	a5,1
 379 0228 2380F400 		sb	a5,0(s1)
  80:src/kernel/PCB.cpp ****     PCB::running = mainSystem;
 380              		.loc 1 80 5 is_stmt 1 discriminator 4
 381              		.loc 1 80 18 is_stmt 0 discriminator 4
 382 022c 97070000 		sd	s1,.LANCHOR0,a5
 382      23B09700 
  81:src/kernel/PCB.cpp ****     PCB::running->setState(PCB::RUNNING);
GAS LISTING /tmp/ccj6XjNR.s 			page 10


 383              		.loc 1 81 5 is_stmt 1 discriminator 4
 384              	.LVL28:
 385              	.LBB18:
 386              	.LBB19:
 387              		.loc 2 33 29 discriminator 4
 388              		.loc 2 33 35 is_stmt 0 discriminator 4
 389 0234 93071000 		li	a5,1
 390 0238 23A0F404 		sw	a5,64(s1)
 391              	.LVL29:
 392              	.LBE19:
 393              	.LBE18:
  82:src/kernel/PCB.cpp ****     PCB::consolePCB = new PCB(&KConsole::sendCharactersToConsole, 0,
 394              		.loc 1 82 5 is_stmt 1 discriminator 4
  83:src/kernel/PCB.cpp ****                               kmalloc(DEFAULT_STACK_SIZE),
 395              		.loc 1 83 38 is_stmt 0 discriminator 4
 396 023c 37150000 		li	a0,4096
 397 0240 97000000 		call	_Z7kmallocm@plt
 397      E7800000 
 398              	.LVL30:
 399 0248 13090500 		mv	s2,a0
  84:src/kernel/PCB.cpp **** //                              MemoryAllocator::kmalloc(DEFAULT_STACK_SIZE),
  85:src/kernel/PCB.cpp ****                               DEFAULT_TIME_SLICE);
 400              		.loc 1 85 49 discriminator 4
 401 024c 13050006 		li	a0,96
 402 0250 97000000 		call	_ZN3PCBnwEm
 402      E7800000 
 403              	.LVL31:
 404 0258 93040500 		mv	s1,a0
 405              	.LVL32:
 406 025c 63000502 		beqz	a0,.L19
 407              		.loc 1 85 49 discriminator 1
 408 0260 13072000 		li	a4,2
 409 0264 93060900 		mv	a3,s2
 410 0268 13060000 		li	a2,0
 411 026c 97050000 		la	a1,_ZN8KConsole23sendCharactersToConsoleEPv
 411      83B50500 
 412 0274 97000000 		call	_ZN3PCBC1EPFvPvES0_S0_m
 412      E7800000 
 413              	.LVL33:
 414              	.L19:
  82:src/kernel/PCB.cpp ****                               kmalloc(DEFAULT_STACK_SIZE),
 415              		.loc 1 82 21
 416 027c 97070000 		lla	a5,.LANCHOR0
 416      93870700 
 417 0284 23B49700 		sd	s1,8(a5)
  86:src/kernel/PCB.cpp ****     PCB::consolePCB->systemThread = true;
 418              		.loc 1 86 5 is_stmt 1
 419              		.loc 1 86 35 is_stmt 0
 420 0288 13071000 		li	a4,1
 421 028c 2380E400 		sb	a4,0(s1)
  87:src/kernel/PCB.cpp ****     PCB::consolePCB->start();
 422              		.loc 1 87 5 is_stmt 1
 423              		.loc 1 87 27 is_stmt 0
 424 0290 03B58700 		ld	a0,8(a5)
 425 0294 97000000 		call	_ZN3PCB5startEv
 425      E7800000 
 426              	.LVL34:
GAS LISTING /tmp/ccj6XjNR.s 			page 11


  88:src/kernel/PCB.cpp ****     PCB::userPCB = new PCB(&PCBWrapperUser::userMainWrapper, 0,
 427              		.loc 1 88 5 is_stmt 1
  89:src/kernel/PCB.cpp **** //                           kmalloc(DEFAULT_STACK_SIZE),
  90:src/kernel/PCB.cpp ****                            MemoryAllocator::kmalloc(DEFAULT_STACK_SIZE),
 428              		.loc 1 90 52 is_stmt 0
 429 029c 37150000 		li	a0,4096
 430 02a0 97000000 		call	_ZN15MemoryAllocator7kmallocEm@plt
 430      E7800000 
 431              	.LVL35:
 432 02a8 13090500 		mv	s2,a0
  91:src/kernel/PCB.cpp ****                            DEFAULT_TIME_SLICE);
 433              		.loc 1 91 46
 434 02ac 13050006 		li	a0,96
 435 02b0 97000000 		call	_ZN3PCBnwEm
 435      E7800000 
 436              	.LVL36:
 437 02b8 93040500 		mv	s1,a0
 438 02bc 63000502 		beqz	a0,.L20
 439              		.loc 1 91 46 discriminator 1
 440 02c0 13072000 		li	a4,2
 441 02c4 93060900 		mv	a3,s2
 442 02c8 13060000 		li	a2,0
 443 02cc 97050000 		la	a1,_ZN14PCBWrapperUser15userMainWrapperEPv
 443      83B50500 
 444 02d4 97000000 		call	_ZN3PCBC1EPFvPvES0_S0_m
 444      E7800000 
 445              	.LVL37:
 446              	.L20:
  88:src/kernel/PCB.cpp ****     PCB::userPCB = new PCB(&PCBWrapperUser::userMainWrapper, 0,
 447              		.loc 1 88 18
 448 02dc 97070000 		sd	s1,.LANCHOR0+16,a5
 448      23B09700 
  92:src/kernel/PCB.cpp ****     PCB::userPCB->start();
 449              		.loc 1 92 5 is_stmt 1
 450              		.loc 1 92 24 is_stmt 0
 451 02e4 13850400 		mv	a0,s1
 452 02e8 97000000 		call	_ZN3PCB5startEv
 452      E7800000 
 453              	.LVL38:
  93:src/kernel/PCB.cpp **** }
 454              		.loc 1 93 1
 455 02f0 83308101 		ld	ra,24(sp)
 456              		.cfi_restore 1
 457 02f4 03340101 		ld	s0,16(sp)
 458              		.cfi_restore 8
 459              		.cfi_def_cfa 2, 32
 460 02f8 83348100 		ld	s1,8(sp)
 461              		.cfi_restore 9
 462 02fc 03390100 		ld	s2,0(sp)
 463              		.cfi_restore 18
 464 0300 13010102 		addi	sp,sp,32
 465              		.cfi_def_cfa_offset 0
 466 0304 67800000 		jr	ra
 467              		.cfi_endproc
 468              	.LFE36:
 470              		.align	2
 471              		.globl	_ZN3PCB10isFinishedEv
GAS LISTING /tmp/ccj6XjNR.s 			page 12


 473              	_ZN3PCB10isFinishedEv:
 474              	.LFB37:
  94:src/kernel/PCB.cpp **** 
  95:src/kernel/PCB.cpp **** bool PCB::isFinished()
  96:src/kernel/PCB.cpp **** {
 475              		.loc 1 96 1 is_stmt 1
 476              		.cfi_startproc
 477              	.LVL39:
 478 0308 130101FF 		addi	sp,sp,-16
 479              		.cfi_def_cfa_offset 16
 480 030c 23348100 		sd	s0,8(sp)
 481              		.cfi_offset 8, -8
 482 0310 13040101 		addi	s0,sp,16
 483              		.cfi_def_cfa 8, 0
  97:src/kernel/PCB.cpp ****     return state == PCB::FINISHED;
 484              		.loc 1 97 5
 485              		.loc 1 97 12 is_stmt 0
 486 0314 03250504 		lw	a0,64(a0)
 487              	.LVL40:
 488              		.loc 1 97 26
 489 0318 1305D5FF 		addi	a0,a0,-3
  98:src/kernel/PCB.cpp **** }
 490              		.loc 1 98 1
 491 031c 13351500 		seqz	a0,a0
 492 0320 03348100 		ld	s0,8(sp)
 493              		.cfi_restore 8
 494              		.cfi_def_cfa 2, 16
 495 0324 13010101 		addi	sp,sp,16
 496              		.cfi_def_cfa_offset 0
 497 0328 67800000 		jr	ra
 498              		.cfi_endproc
 499              	.LFE37:
 501              		.align	2
 502              		.globl	_ZN3PCB17threadExitHandlerEv
 504              	_ZN3PCB17threadExitHandlerEv:
 505              	.LFB38:
  99:src/kernel/PCB.cpp **** 
 100:src/kernel/PCB.cpp **** void PCB::threadExitHandler()
 101:src/kernel/PCB.cpp **** {
 506              		.loc 1 101 1 is_stmt 1
 507              		.cfi_startproc
 508 032c 130101FF 		addi	sp,sp,-16
 509              		.cfi_def_cfa_offset 16
 510 0330 23341100 		sd	ra,8(sp)
 511 0334 23308100 		sd	s0,0(sp)
 512              		.cfi_offset 1, -8
 513              		.cfi_offset 8, -16
 514 0338 13040101 		addi	s0,sp,16
 515              		.cfi_def_cfa 8, 0
 102:src/kernel/PCB.cpp ****     PCB::timeSliceCounter = 0;
 516              		.loc 1 102 5
 517              		.loc 1 102 27 is_stmt 0
 518 033c 97070000 		lla	a5,.LANCHOR0
 518      93870700 
 519 0344 23BC0700 		sd	zero,24(a5)
 103:src/kernel/PCB.cpp ****     PCB::running->setState(PCB::FINISHED);
 520              		.loc 1 103 5 is_stmt 1
GAS LISTING /tmp/ccj6XjNR.s 			page 13


 521              		.loc 1 103 27 is_stmt 0
 522 0348 83B70700 		ld	a5,0(a5)
 523              	.LVL41:
 524              	.LBB20:
 525              	.LBB21:
 526              		.loc 2 33 29 is_stmt 1
 527              		.loc 2 33 35 is_stmt 0
 528 034c 13073000 		li	a4,3
 529 0350 23A0E704 		sw	a4,64(a5)
 530              	.LVL42:
 531              	.LBE21:
 532              	.LBE20:
 104:src/kernel/PCB.cpp ****     PCB::dispatch();
 533              		.loc 1 104 5 is_stmt 1
 534              		.loc 1 104 18 is_stmt 0
 535 0354 97000000 		call	_ZN3PCB8dispatchEv
 535      E7800000 
 536              	.LVL43:
 105:src/kernel/PCB.cpp ****     __asm__ volatile("li a0, 0");
 537              		.loc 1 105 5 is_stmt 1
 538              		.loc 1 105 33 is_stmt 0
 539              	#APP
 540              	# 105 "src/kernel/PCB.cpp" 1
 106              	    Riscv::w_a0_sscratch();
 541              		li a0, 0
 542              	# 0 "" 2
 543              		.loc 1 106 5 is_stmt 1
 544              		.loc 1 106 25 is_stmt 0
 545              	#NO_APP
 546 0360 97000000 		call	_ZN5Riscv13w_a0_sscratchEv@plt
 546      E7800000 
 547              	.LVL44:
 107:src/kernel/PCB.cpp **** }
 548              		.loc 1 107 1
 549 0368 83308100 		ld	ra,8(sp)
 550              		.cfi_restore 1
 551 036c 03340100 		ld	s0,0(sp)
 552              		.cfi_restore 8
 553              		.cfi_def_cfa 2, 16
 554 0370 13010101 		addi	sp,sp,16
 555              		.cfi_def_cfa_offset 0
 556 0374 67800000 		jr	ra
 557              		.cfi_endproc
 558              	.LFE38:
 560              		.align	2
 561              		.globl	_ZN3PCB21threadDispatchHandlerEv
 563              	_ZN3PCB21threadDispatchHandlerEv:
 564              	.LFB39:
 108:src/kernel/PCB.cpp **** 
 109:src/kernel/PCB.cpp **** void PCB::threadDispatchHandler()
 110:src/kernel/PCB.cpp **** {
 565              		.loc 1 110 1 is_stmt 1
 566              		.cfi_startproc
 567 0378 130101FF 		addi	sp,sp,-16
 568              		.cfi_def_cfa_offset 16
 569 037c 23341100 		sd	ra,8(sp)
 570 0380 23308100 		sd	s0,0(sp)
GAS LISTING /tmp/ccj6XjNR.s 			page 14


 571              		.cfi_offset 1, -8
 572              		.cfi_offset 8, -16
 573 0384 13040101 		addi	s0,sp,16
 574              		.cfi_def_cfa 8, 0
 111:src/kernel/PCB.cpp ****     PCB::timeSliceCounter = 0;
 575              		.loc 1 111 5
 576              		.loc 1 111 27 is_stmt 0
 577 0388 97070000 		sd	zero,.LANCHOR0+24,a5
 577      23B00700 
 112:src/kernel/PCB.cpp ****     PCB::dispatch();
 578              		.loc 1 112 5 is_stmt 1
 579              		.loc 1 112 18 is_stmt 0
 580 0390 97000000 		call	_ZN3PCB8dispatchEv
 580      E7800000 
 581              	.LVL45:
 113:src/kernel/PCB.cpp **** }
 582              		.loc 1 113 1
 583 0398 83308100 		ld	ra,8(sp)
 584              		.cfi_restore 1
 585 039c 03340100 		ld	s0,0(sp)
 586              		.cfi_restore 8
 587              		.cfi_def_cfa 2, 16
 588 03a0 13010101 		addi	sp,sp,16
 589              		.cfi_def_cfa_offset 0
 590 03a4 67800000 		jr	ra
 591              		.cfi_endproc
 592              	.LFE39:
 594              		.align	2
 595              		.globl	_ZN3PCB18threadSleepHandlerEv
 597              	_ZN3PCB18threadSleepHandlerEv:
 598              	.LFB40:
 114:src/kernel/PCB.cpp **** 
 115:src/kernel/PCB.cpp **** void PCB::threadSleepHandler()
 116:src/kernel/PCB.cpp **** {
 599              		.loc 1 116 1 is_stmt 1
 600              		.cfi_startproc
 601 03a8 130101FF 		addi	sp,sp,-16
 602              		.cfi_def_cfa_offset 16
 603 03ac 23341100 		sd	ra,8(sp)
 604 03b0 23308100 		sd	s0,0(sp)
 605              		.cfi_offset 1, -8
 606              		.cfi_offset 8, -16
 607 03b4 13040101 		addi	s0,sp,16
 608              		.cfi_def_cfa 8, 0
 117:src/kernel/PCB.cpp ****     uint64 time;
 609              		.loc 1 117 5
 118:src/kernel/PCB.cpp ****     __asm__ volatile("mv %0, a1" : "=r"(time));
 610              		.loc 1 118 5
 611              		.loc 1 118 47 is_stmt 0
 612              	#APP
 613              	# 118 "src/kernel/PCB.cpp" 1
 119              	    PCB::timeSliceCounter = 0;
 614              		mv a5, a1
 615              	# 0 "" 2
 616              	.LVL46:
 617              		.loc 1 119 5 is_stmt 1
 618              		.loc 1 119 27 is_stmt 0
GAS LISTING /tmp/ccj6XjNR.s 			page 15


 619              	#NO_APP
 620 03bc 17070000 		lla	a4,.LANCHOR0
 620      13070700 
 621 03c4 233C0700 		sd	zero,24(a4)
 120:src/kernel/PCB.cpp ****     PCB::running->setTimeToSleep(time + Riscv::totalTime);
 622              		.loc 1 120 5 is_stmt 1
 623              		.loc 1 120 33 is_stmt 0
 624 03c8 03370700 		ld	a4,0(a4)
 625 03cc 97060000 		la	a3,_ZN5Riscv9totalTimeE
 625      83B60600 
 626 03d4 83B60600 		ld	a3,0(a3)
 627 03d8 B387D700 		add	a5,a5,a3
 628              	.LVL47:
 629              	.LBB22:
 630              	.LBB23:
  34:src/kernel/../../h/PCB.hpp ****     void setTimeToSleep(uint64 time) {timeToSleep = time;}
 631              		.loc 2 34 39 is_stmt 1
 632              		.loc 2 34 51 is_stmt 0
 633 03dc 2330F702 		sd	a5,32(a4)
 634              	.LVL48:
 635              	.LBE23:
 636              	.LBE22:
 121:src/kernel/PCB.cpp ****     SleepPCBList::insertSleepingPCB();
 637              		.loc 1 121 5 is_stmt 1
 638              		.loc 1 121 36 is_stmt 0
 639 03e0 97000000 		call	_ZN12SleepPCBList17insertSleepingPCBEv@plt
 639      E7800000 
 640              	.LVL49:
 122:src/kernel/PCB.cpp ****     PCB::dispatch();
 641              		.loc 1 122 5 is_stmt 1
 642              		.loc 1 122 18 is_stmt 0
 643 03e8 97000000 		call	_ZN3PCB8dispatchEv
 643      E7800000 
 644              	.LVL50:
 123:src/kernel/PCB.cpp ****     __asm__ volatile("li a0, 0x0");
 645              		.loc 1 123 5 is_stmt 1
 646              		.loc 1 123 35 is_stmt 0
 647              	#APP
 648              	# 123 "src/kernel/PCB.cpp" 1
 124              	    Riscv::w_a0_sscratch();
 649              		li a0, 0x0
 650              	# 0 "" 2
 651              		.loc 1 124 5 is_stmt 1
 652              		.loc 1 124 25 is_stmt 0
 653              	#NO_APP
 654 03f4 97000000 		call	_ZN5Riscv13w_a0_sscratchEv@plt
 654      E7800000 
 655              	.LVL51:
 125:src/kernel/PCB.cpp **** }
 656              		.loc 1 125 1
 657 03fc 83308100 		ld	ra,8(sp)
 658              		.cfi_restore 1
 659 0400 03340100 		ld	s0,0(sp)
 660              		.cfi_restore 8
 661              		.cfi_def_cfa 2, 16
 662 0404 13010101 		addi	sp,sp,16
 663              		.cfi_def_cfa_offset 0
GAS LISTING /tmp/ccj6XjNR.s 			page 16


 664 0408 67800000 		jr	ra
 665              		.cfi_endproc
 666              	.LFE40:
 668              		.align	2
 669              		.globl	_ZN3PCB19threadCreateHandlerEv
 671              	_ZN3PCB19threadCreateHandlerEv:
 672              	.LFB41:
 126:src/kernel/PCB.cpp **** 
 127:src/kernel/PCB.cpp **** void PCB::threadCreateHandler()
 128:src/kernel/PCB.cpp **** {
 673              		.loc 1 128 1 is_stmt 1
 674              		.cfi_startproc
 675 040c 130101FD 		addi	sp,sp,-48
 676              		.cfi_def_cfa_offset 48
 677 0410 23341102 		sd	ra,40(sp)
 678 0414 23308102 		sd	s0,32(sp)
 679 0418 233C9100 		sd	s1,24(sp)
 680 041c 23382101 		sd	s2,16(sp)
 681 0420 23343101 		sd	s3,8(sp)
 682 0424 23304101 		sd	s4,0(sp)
 683              		.cfi_offset 1, -8
 684              		.cfi_offset 8, -16
 685              		.cfi_offset 9, -24
 686              		.cfi_offset 18, -32
 687              		.cfi_offset 19, -40
 688              		.cfi_offset 20, -48
 689 0428 13040103 		addi	s0,sp,48
 690              		.cfi_def_cfa 8, 0
 129:src/kernel/PCB.cpp ****     uint64 start_routine;
 691              		.loc 1 129 5
 130:src/kernel/PCB.cpp ****     uint64 args;
 692              		.loc 1 130 5
 131:src/kernel/PCB.cpp ****     PCB **threadHandle;
 693              		.loc 1 131 5
 132:src/kernel/PCB.cpp ****     __asm__ volatile("mv %0, a1" : "=r"(threadHandle));
 694              		.loc 1 132 5
 695              		.loc 1 132 55 is_stmt 0
 696              	#APP
 697              	# 132 "src/kernel/PCB.cpp" 1
 133              	    __asm__ volatile("mv %0, a2" : "=r"(start_routine));
 698              		mv s2, a1
 699              	# 0 "" 2
 700              	.LVL52:
 701              		.loc 1 133 5 is_stmt 1
 702              		.loc 1 133 56 is_stmt 0
 703              	# 133 "src/kernel/PCB.cpp" 1
 134              	    __asm__ volatile("mv %0, a3" : "=r"(args));
 704              		mv s3, a2
 705              	# 0 "" 2
 706              	.LVL53:
 707              		.loc 1 134 5 is_stmt 1
 708              		.loc 1 134 47 is_stmt 0
 709              	# 134 "src/kernel/PCB.cpp" 1
 135              	
 710              		mv s4, a3
 711              	# 0 "" 2
 712              	.LVL54:
GAS LISTING /tmp/ccj6XjNR.s 			page 17


 136:src/kernel/PCB.cpp ****     PCB *newPCB = new PCB((void (*)(void *)) start_routine, (void *) args,
 713              		.loc 1 136 5 is_stmt 1
 137:src/kernel/PCB.cpp ****                           //stack_space,
 138:src/kernel/PCB.cpp ****                           (void *) PCB::savedRegA4,
 139:src/kernel/PCB.cpp ****                           DEFAULT_TIME_SLICE);
 714              		.loc 1 139 45 is_stmt 0
 715              	#NO_APP
 716 0438 13050006 		li	a0,96
 717 043c 97000000 		call	_ZN3PCBnwEm
 717      E7800000 
 718              	.LVL55:
 719 0444 93040500 		mv	s1,a0
 720 0448 63000502 		beqz	a0,.L31
 721              		.loc 1 139 45 discriminator 1
 722 044c 13072000 		li	a4,2
 723 0450 97060000 		ld	a3,.LANCHOR0+32
 723      83B60600 
 724 0458 13060A00 		mv	a2,s4
 725 045c 93850900 		mv	a1,s3
 726 0460 97000000 		call	_ZN3PCBC1EPFvPvES0_S0_m
 726      E7800000 
 727              	.LVL56:
 728              	.L31:
 140:src/kernel/PCB.cpp **** 
 141:src/kernel/PCB.cpp ****     (*threadHandle) = newPCB;
 729              		.loc 1 141 5 is_stmt 1 discriminator 4
 730              		.loc 1 141 21 is_stmt 0 discriminator 4
 731 0468 23309900 		sd	s1,0(s2)
 142:src/kernel/PCB.cpp **** 
 143:src/kernel/PCB.cpp ****     if (newPCB == nullptr) {
 732              		.loc 1 143 5 is_stmt 1 discriminator 4
 733 046c 638E0402 		beqz	s1,.L35
 144:src/kernel/PCB.cpp ****         __asm__ volatile("li a0, 0x01");
 145:src/kernel/PCB.cpp ****     }
 146:src/kernel/PCB.cpp ****     else
 147:src/kernel/PCB.cpp ****     {
 148:src/kernel/PCB.cpp ****         newPCB->start();
 734              		.loc 1 148 9
 735              		.loc 1 148 22 is_stmt 0
 736 0470 13850400 		mv	a0,s1
 737 0474 97000000 		call	_ZN3PCB5startEv
 737      E7800000 
 738              	.LVL57:
 149:src/kernel/PCB.cpp ****         __asm__ volatile("li a0, 0");
 739              		.loc 1 149 9 is_stmt 1
 740              		.loc 1 149 37 is_stmt 0
 741              	#APP
 742              	# 149 "src/kernel/PCB.cpp" 1
 150              	    }
 743              		li a0, 0
 744              	# 0 "" 2
 745              	#NO_APP
 746              	.L33:
 151:src/kernel/PCB.cpp ****     Riscv::w_a0_sscratch();
 747              		.loc 1 151 5 is_stmt 1
 748              		.loc 1 151 25 is_stmt 0
 749 0480 97000000 		call	_ZN5Riscv13w_a0_sscratchEv@plt
GAS LISTING /tmp/ccj6XjNR.s 			page 18


 749      E7800000 
 750              	.LVL58:
 152:src/kernel/PCB.cpp **** }
 751              		.loc 1 152 1
 752 0488 83308102 		ld	ra,40(sp)
 753              		.cfi_remember_state
 754              		.cfi_restore 1
 755 048c 03340102 		ld	s0,32(sp)
 756              		.cfi_restore 8
 757              		.cfi_def_cfa 2, 48
 758 0490 83348101 		ld	s1,24(sp)
 759              		.cfi_restore 9
 760              	.LVL59:
 761 0494 03390101 		ld	s2,16(sp)
 762              		.cfi_restore 18
 763              	.LVL60:
 764 0498 83398100 		ld	s3,8(sp)
 765              		.cfi_restore 19
 766              	.LVL61:
 767 049c 033A0100 		ld	s4,0(sp)
 768              		.cfi_restore 20
 769              	.LVL62:
 770 04a0 13010103 		addi	sp,sp,48
 771              		.cfi_def_cfa_offset 0
 772 04a4 67800000 		jr	ra
 773              	.LVL63:
 774              	.L35:
 775              		.cfi_restore_state
 144:src/kernel/PCB.cpp ****     }
 776              		.loc 1 144 9 is_stmt 1
 144:src/kernel/PCB.cpp ****     }
 777              		.loc 1 144 40 is_stmt 0
 778              	#APP
 779              	# 144 "src/kernel/PCB.cpp" 1
 780              		li a0, 0x01
 781              	# 0 "" 2
 782              	#NO_APP
 783 04ac 6FF05FFD 		j	.L33
 784              		.cfi_endproc
 785              	.LFE41:
 787              		.align	2
 788              		.globl	_ZN3PCB18threadStartHandlerEv
 790              	_ZN3PCB18threadStartHandlerEv:
 791              	.LFB42:
 153:src/kernel/PCB.cpp **** 
 154:src/kernel/PCB.cpp **** void PCB::threadStartHandler()
 155:src/kernel/PCB.cpp **** {
 792              		.loc 1 155 1 is_stmt 1
 793              		.cfi_startproc
 794 04b0 130101FF 		addi	sp,sp,-16
 795              		.cfi_def_cfa_offset 16
 796 04b4 23341100 		sd	ra,8(sp)
 797 04b8 23308100 		sd	s0,0(sp)
 798              		.cfi_offset 1, -8
 799              		.cfi_offset 8, -16
 800 04bc 13040101 		addi	s0,sp,16
 801              		.cfi_def_cfa 8, 0
GAS LISTING /tmp/ccj6XjNR.s 			page 19


 156:src/kernel/PCB.cpp ****     PCB* pcb;
 802              		.loc 1 156 5
 157:src/kernel/PCB.cpp ****     __asm__ volatile("mv %0, a1" : "=r"(pcb));
 803              		.loc 1 157 5
 804              		.loc 1 157 46 is_stmt 0
 805              	#APP
 806              	# 157 "src/kernel/PCB.cpp" 1
 158              	    if(pcb != nullptr)
 807              		mv a0, a1
 808              	# 0 "" 2
 809              	.LVL64:
 810              		.loc 1 158 5 is_stmt 1
 811              	#NO_APP
 812 04c4 63040502 		beqz	a0,.L37
 159:src/kernel/PCB.cpp ****     {
 160:src/kernel/PCB.cpp ****         pcb->start();
 813              		.loc 1 160 9
 814              		.loc 1 160 19 is_stmt 0
 815 04c8 97000000 		call	_ZN3PCB5startEv
 815      E7800000 
 816              	.LVL65:
 161:src/kernel/PCB.cpp ****         __asm__ volatile("li a0, 0");
 817              		.loc 1 161 9 is_stmt 1
 818              		.loc 1 161 37 is_stmt 0
 819              	#APP
 820              	# 161 "src/kernel/PCB.cpp" 1
 162              	    }
 821              		li a0, 0
 822              	# 0 "" 2
 823              	#NO_APP
 824              	.L38:
 163:src/kernel/PCB.cpp ****     else
 164:src/kernel/PCB.cpp ****     {
 165:src/kernel/PCB.cpp ****         __asm__ volatile("li a0, 0x01");
 166:src/kernel/PCB.cpp ****     }
 167:src/kernel/PCB.cpp ****     Riscv::w_a0_sscratch();
 825              		.loc 1 167 5 is_stmt 1
 826              		.loc 1 167 25 is_stmt 0
 827 04d4 97000000 		call	_ZN5Riscv13w_a0_sscratchEv@plt
 827      E7800000 
 828              	.LVL66:
 168:src/kernel/PCB.cpp **** }
 829              		.loc 1 168 1
 830 04dc 83308100 		ld	ra,8(sp)
 831              		.cfi_remember_state
 832              		.cfi_restore 1
 833 04e0 03340100 		ld	s0,0(sp)
 834              		.cfi_restore 8
 835              		.cfi_def_cfa 2, 16
 836 04e4 13010101 		addi	sp,sp,16
 837              		.cfi_def_cfa_offset 0
 838 04e8 67800000 		jr	ra
 839              	.LVL67:
 840              	.L37:
 841              		.cfi_restore_state
 165:src/kernel/PCB.cpp ****     }
 842              		.loc 1 165 9 is_stmt 1
GAS LISTING /tmp/ccj6XjNR.s 			page 20


 165:src/kernel/PCB.cpp ****     }
 843              		.loc 1 165 40 is_stmt 0
 844              	#APP
 845              	# 165 "src/kernel/PCB.cpp" 1
 846              		li a0, 0x01
 847              	# 0 "" 2
 848              	#NO_APP
 849 04f0 6FF05FFE 		j	.L38
 850              		.cfi_endproc
 851              	.LFE42:
 853              		.align	2
 854              		.globl	_ZN3PCB20threadMakePCBHandlerEv
 856              	_ZN3PCB20threadMakePCBHandlerEv:
 857              	.LFB43:
 169:src/kernel/PCB.cpp **** 
 170:src/kernel/PCB.cpp **** void PCB::threadMakePCBHandler()
 171:src/kernel/PCB.cpp **** {
 858              		.loc 1 171 1 is_stmt 1
 859              		.cfi_startproc
 860 04f4 130101FD 		addi	sp,sp,-48
 861              		.cfi_def_cfa_offset 48
 862 04f8 23341102 		sd	ra,40(sp)
 863 04fc 23308102 		sd	s0,32(sp)
 864 0500 233C9100 		sd	s1,24(sp)
 865 0504 23382101 		sd	s2,16(sp)
 866 0508 23343101 		sd	s3,8(sp)
 867 050c 23304101 		sd	s4,0(sp)
 868              		.cfi_offset 1, -8
 869              		.cfi_offset 8, -16
 870              		.cfi_offset 9, -24
 871              		.cfi_offset 18, -32
 872              		.cfi_offset 19, -40
 873              		.cfi_offset 20, -48
 874 0510 13040103 		addi	s0,sp,48
 875              		.cfi_def_cfa 8, 0
 172:src/kernel/PCB.cpp ****     uint64 start_routine;
 876              		.loc 1 172 5
 173:src/kernel/PCB.cpp ****     uint64 args;
 877              		.loc 1 173 5
 174:src/kernel/PCB.cpp ****     PCB **threadHandle;
 878              		.loc 1 174 5
 175:src/kernel/PCB.cpp ****     __asm__ volatile("mv %0, a1" : "=r"(threadHandle));
 879              		.loc 1 175 5
 880              		.loc 1 175 55 is_stmt 0
 881              	#APP
 882              	# 175 "src/kernel/PCB.cpp" 1
 176              	    __asm__ volatile("mv %0, a2" : "=r"(start_routine));
 883              		mv s2, a1
 884              	# 0 "" 2
 885              	.LVL68:
 886              		.loc 1 176 5 is_stmt 1
 887              		.loc 1 176 56 is_stmt 0
 888              	# 176 "src/kernel/PCB.cpp" 1
 177              	    __asm__ volatile("mv %0, a3" : "=r"(args));
 889              		mv s3, a2
 890              	# 0 "" 2
 891              	.LVL69:
GAS LISTING /tmp/ccj6XjNR.s 			page 21


 892              		.loc 1 177 5 is_stmt 1
 893              		.loc 1 177 47 is_stmt 0
 894              	# 177 "src/kernel/PCB.cpp" 1
 178              	
 895              		mv s4, a3
 896              	# 0 "" 2
 897              	.LVL70:
 179:src/kernel/PCB.cpp ****     PCB *newPCB = new PCB((void (*)(void *)) start_routine, (void *) args,
 898              		.loc 1 179 5 is_stmt 1
 180:src/kernel/PCB.cpp ****                           //stack_space,
 181:src/kernel/PCB.cpp ****                           (void *) PCB::savedRegA4,
 182:src/kernel/PCB.cpp ****                           DEFAULT_TIME_SLICE);
 899              		.loc 1 182 45 is_stmt 0
 900              	#NO_APP
 901 0520 13050006 		li	a0,96
 902 0524 97000000 		call	_ZN3PCBnwEm
 902      E7800000 
 903              	.LVL71:
 904 052c 93040500 		mv	s1,a0
 905 0530 63000502 		beqz	a0,.L41
 906              		.loc 1 182 45 discriminator 1
 907 0534 13072000 		li	a4,2
 908 0538 97060000 		ld	a3,.LANCHOR0+32
 908      83B60600 
 909 0540 13060A00 		mv	a2,s4
 910 0544 93850900 		mv	a1,s3
 911 0548 97000000 		call	_ZN3PCBC1EPFvPvES0_S0_m
 911      E7800000 
 912              	.LVL72:
 913              	.L41:
 183:src/kernel/PCB.cpp **** 
 184:src/kernel/PCB.cpp ****     (*threadHandle) = newPCB;
 914              		.loc 1 184 5 is_stmt 1 discriminator 4
 915              		.loc 1 184 21 is_stmt 0 discriminator 4
 916 0550 23309900 		sd	s1,0(s2)
 185:src/kernel/PCB.cpp **** 
 186:src/kernel/PCB.cpp ****     if (newPCB == nullptr)
 917              		.loc 1 186 5 is_stmt 1 discriminator 4
 918 0554 63880402 		beqz	s1,.L45
 187:src/kernel/PCB.cpp ****     {
 188:src/kernel/PCB.cpp ****         __asm__ volatile("li a0, 0x01");
 189:src/kernel/PCB.cpp ****     }
 190:src/kernel/PCB.cpp ****     else
 191:src/kernel/PCB.cpp ****         __asm__ volatile("li a0, 0");
 919              		.loc 1 191 9
 920              		.loc 1 191 37 is_stmt 0
 921              	#APP
 922              	# 191 "src/kernel/PCB.cpp" 1
 192              	    Riscv::w_a0_sscratch();
 923              		li a0, 0
 924              	# 0 "" 2
 925              	#NO_APP
 926              	.L43:
 927              		.loc 1 192 5 is_stmt 1
 928              		.loc 1 192 25 is_stmt 0
 929 055c 97000000 		call	_ZN5Riscv13w_a0_sscratchEv@plt
 929      E7800000 
GAS LISTING /tmp/ccj6XjNR.s 			page 22


 930              	.LVL73:
 193:src/kernel/PCB.cpp **** }
 931              		.loc 1 193 1
 932 0564 83308102 		ld	ra,40(sp)
 933              		.cfi_remember_state
 934              		.cfi_restore 1
 935 0568 03340102 		ld	s0,32(sp)
 936              		.cfi_restore 8
 937              		.cfi_def_cfa 2, 48
 938 056c 83348101 		ld	s1,24(sp)
 939              		.cfi_restore 9
 940              	.LVL74:
 941 0570 03390101 		ld	s2,16(sp)
 942              		.cfi_restore 18
 943              	.LVL75:
 944 0574 83398100 		ld	s3,8(sp)
 945              		.cfi_restore 19
 946              	.LVL76:
 947 0578 033A0100 		ld	s4,0(sp)
 948              		.cfi_restore 20
 949              	.LVL77:
 950 057c 13010103 		addi	sp,sp,48
 951              		.cfi_def_cfa_offset 0
 952 0580 67800000 		jr	ra
 953              	.LVL78:
 954              	.L45:
 955              		.cfi_restore_state
 188:src/kernel/PCB.cpp ****     }
 956              		.loc 1 188 9 is_stmt 1
 188:src/kernel/PCB.cpp ****     }
 957              		.loc 1 188 40 is_stmt 0
 958              	#APP
 959              	# 188 "src/kernel/PCB.cpp" 1
 960              		li a0, 0x01
 961              	# 0 "" 2
 962              	#NO_APP
 963 0588 6FF05FFD 		j	.L43
 964              		.cfi_endproc
 965              	.LFE43:
 967              		.align	2
 968              		.globl	_ZN3PCB19threadDelPCBHandlerEv
 970              	_ZN3PCB19threadDelPCBHandlerEv:
 971              	.LFB44:
 194:src/kernel/PCB.cpp **** 
 195:src/kernel/PCB.cpp **** void PCB::threadDelPCBHandler()
 196:src/kernel/PCB.cpp **** {
 972              		.loc 1 196 1 is_stmt 1
 973              		.cfi_startproc
 974 058c 130101FE 		addi	sp,sp,-32
 975              		.cfi_def_cfa_offset 32
 976 0590 233C1100 		sd	ra,24(sp)
 977 0594 23388100 		sd	s0,16(sp)
 978 0598 23349100 		sd	s1,8(sp)
 979              		.cfi_offset 1, -8
 980              		.cfi_offset 8, -16
 981              		.cfi_offset 9, -24
 982 059c 13040102 		addi	s0,sp,32
GAS LISTING /tmp/ccj6XjNR.s 			page 23


 983              		.cfi_def_cfa 8, 0
 197:src/kernel/PCB.cpp ****     PCB* pcb;
 984              		.loc 1 197 5
 198:src/kernel/PCB.cpp ****     __asm__ volatile("mv %0, a1" : "=r"(pcb));
 985              		.loc 1 198 5
 986              		.loc 1 198 46 is_stmt 0
 987              	#APP
 988              	# 198 "src/kernel/PCB.cpp" 1
 199              	    if(pcb != nullptr)
 989              		mv s1, a1
 990              	# 0 "" 2
 991              	.LVL79:
 992              		.loc 1 199 5 is_stmt 1
 993              	#NO_APP
 994 05a4 638E0402 		beqz	s1,.L47
 200:src/kernel/PCB.cpp ****     {
 201:src/kernel/PCB.cpp ****         delete pcb;
 995              		.loc 1 201 9 discriminator 1
 996              		.loc 1 201 16 is_stmt 0 discriminator 1
 997 05a8 13850400 		mv	a0,s1
 998 05ac 97000000 		call	_ZN3PCBD1Ev
 998      E7800000 
 999              	.LVL80:
 1000 05b4 13850400 		mv	a0,s1
 1001 05b8 97000000 		call	_ZN3PCBdlEPv
 1001      E7800000 
 1002              	.LVL81:
 202:src/kernel/PCB.cpp ****         __asm__ volatile("li a0, 0x0");
 1003              		.loc 1 202 9 is_stmt 1 discriminator 1
 1004              		.loc 1 202 39 is_stmt 0 discriminator 1
 1005              	#APP
 1006              	# 202 "src/kernel/PCB.cpp" 1
 203              	    }
 1007              		li a0, 0x0
 1008              	# 0 "" 2
 1009              	#NO_APP
 1010              	.L48:
 204:src/kernel/PCB.cpp ****     else
 205:src/kernel/PCB.cpp ****     {
 206:src/kernel/PCB.cpp ****         __asm__ volatile("li a0, 0x1");
 207:src/kernel/PCB.cpp ****     }
 208:src/kernel/PCB.cpp ****     Riscv::w_a0_sscratch();
 1011              		.loc 1 208 5 is_stmt 1
 1012              		.loc 1 208 25 is_stmt 0
 1013 05c4 97000000 		call	_ZN5Riscv13w_a0_sscratchEv@plt
 1013      E7800000 
 1014              	.LVL82:
 209:src/kernel/PCB.cpp **** }
 1015              		.loc 1 209 1
 1016 05cc 83308101 		ld	ra,24(sp)
 1017              		.cfi_remember_state
 1018              		.cfi_restore 1
 1019 05d0 03340101 		ld	s0,16(sp)
 1020              		.cfi_restore 8
 1021              		.cfi_def_cfa 2, 32
 1022 05d4 83348100 		ld	s1,8(sp)
 1023              		.cfi_restore 9
GAS LISTING /tmp/ccj6XjNR.s 			page 24


 1024              	.LVL83:
 1025 05d8 13010102 		addi	sp,sp,32
 1026              		.cfi_def_cfa_offset 0
 1027 05dc 67800000 		jr	ra
 1028              	.LVL84:
 1029              	.L47:
 1030              		.cfi_restore_state
 206:src/kernel/PCB.cpp ****     }
 1031              		.loc 1 206 9 is_stmt 1
 206:src/kernel/PCB.cpp ****     }
 1032              		.loc 1 206 39 is_stmt 0
 1033              	#APP
 1034              	# 206 "src/kernel/PCB.cpp" 1
 1035              		li a0, 0x1
 1036              	# 0 "" 2
 1037              	#NO_APP
 1038 05e4 6FF01FFE 		j	.L48
 1039              		.cfi_endproc
 1040              	.LFE44:
 1042              		.globl	_ZN3PCB7userPCBE
 1043              		.globl	_ZN3PCB10consolePCBE
 1044              		.globl	_ZN3PCB10savedRegA4E
 1045              		.globl	_ZN3PCB16timeSliceCounterE
 1046              		.globl	_ZN3PCB7runningE
 1047              		.bss
 1048              		.align	3
 1049              		.set	.LANCHOR0,. + 0
 1052              	_ZN3PCB7runningE:
 1053 0000 00000000 		.zero	8
 1053      00000000 
 1056              	_ZN3PCB10consolePCBE:
 1057 0008 00000000 		.zero	8
 1057      00000000 
 1060              	_ZN3PCB7userPCBE:
 1061 0010 00000000 		.zero	8
 1061      00000000 
 1064              	_ZN3PCB16timeSliceCounterE:
 1065 0018 00000000 		.zero	8
 1065      00000000 
 1068              	_ZN3PCB10savedRegA4E:
 1069 0020 00000000 		.zero	8
 1069      00000000 
 1070              		.text
 1071              	.Letext0:
 1072              		.file 3 "src/kernel/../../h/../lib/hw.h"
 1073              		.file 4 "src/kernel/../../h/SleepPCBList.hpp"
 1074              		.file 5 "src/kernel/../../h/MemoryAllocator.hpp"
 1075              		.file 6 "src/kernel/../../h/Scheduler.hpp"
 1076              		.file 7 "src/kernel/../../h/slabAllocator.hpp"
 1077              		.file 8 "src/kernel/../../h/Riscv.hpp"
 1078              		.file 9 "src/kernel/../../h/syscall_c_kernel.hpp"
 5163              		.align	3
 5166              	DW.ref.__gxx_personality_v0:
 5167 0000 00000000 		.dword	__gxx_personality_v0
 5167      00000000 
 5168              		.ident	"GCC: (Ubuntu 9.4.0-1ubuntu1~20.04) 9.4.0"
 5169              		.section	.note.GNU-stack,"",@progbits
GAS LISTING /tmp/ccj6XjNR.s 			page 25


GAS LISTING /tmp/ccj6XjNR.s 			page 26


DEFINED SYMBOLS
                            *ABS*:0000000000000000 PCB.cpp
     /tmp/ccj6XjNR.s:9      .text:0000000000000000 _ZN3PCB6runnerEv
     /tmp/ccj6XjNR.s:13     .text:0000000000000000 .L0 
     /tmp/ccj6XjNR.s:14     .text:0000000000000000 .L0 
     /tmp/ccj6XjNR.s:15     .text:0000000000000004 .L0 
     /tmp/ccj6XjNR.s:18     .text:000000000000000c .L0 
     /tmp/ccj6XjNR.s:19     .text:000000000000000c .L0 
     /tmp/ccj6XjNR.s:21     .text:0000000000000010 .L0 
     /tmp/ccj6XjNR.s:23     .text:0000000000000010 .L0 
     /tmp/ccj6XjNR.s:24     .text:0000000000000010 .L0 
     /tmp/ccj6XjNR.s:27     .text:0000000000000018 .L0 
     /tmp/ccj6XjNR.s:28     .text:0000000000000018 .L0 
     /tmp/ccj6XjNR.s:31     .text:0000000000000024 .L0 
     /tmp/ccj6XjNR.s:35     .text:000000000000002c .L0 
     /tmp/ccj6XjNR.s:36     .text:000000000000002c .L0 
     /tmp/ccj6XjNR.s:39     .text:0000000000000034 .L0 
     /tmp/ccj6XjNR.s:40     .text:0000000000000038 .L0 
     /tmp/ccj6XjNR.s:42     .text:000000000000003c .L0 
     /tmp/ccj6XjNR.s:43     .text:000000000000003c .L0 
     /tmp/ccj6XjNR.s:45     .text:0000000000000040 .L0 
     /tmp/ccj6XjNR.s:47     .text:0000000000000044 .L0 
     /tmp/ccj6XjNR.s:53     .text:0000000000000044 _ZN3PCBC2EPFvPvES0_S0_m
     /tmp/ccj6XjNR.s:56     .text:0000000000000044 .L0 
     /tmp/ccj6XjNR.s:58     .text:0000000000000044 .L0 
     /tmp/ccj6XjNR.s:59     .text:0000000000000048 .L0 
     /tmp/ccj6XjNR.s:61     .text:000000000000004c .L0 
     /tmp/ccj6XjNR.s:63     .text:0000000000000050 .L0 
     /tmp/ccj6XjNR.s:66     .text:0000000000000050 .L0 
     /tmp/ccj6XjNR.s:73     .text:0000000000000068 .L0 
     /tmp/ccj6XjNR.s:77     .text:0000000000000070 .L0 
     /tmp/ccj6XjNR.s:82     .text:0000000000000084 .L0 
     /tmp/ccj6XjNR.s:83     .text:0000000000000084 .L0 
     /tmp/ccj6XjNR.s:86     .text:0000000000000088 .L0 
     /tmp/ccj6XjNR.s:87     .text:000000000000008c .L0 
     /tmp/ccj6XjNR.s:88     .text:000000000000008c .L0 
     /tmp/ccj6XjNR.s:90     .text:0000000000000090 .L0 
     /tmp/ccj6XjNR.s:92     .text:0000000000000094 .L0 
     /tmp/ccj6XjNR.s:53     .text:0000000000000044 _ZN3PCBC1EPFvPvES0_S0_m
     /tmp/ccj6XjNR.s:100    .text:0000000000000094 _ZN3PCB5startEv
     /tmp/ccj6XjNR.s:103    .text:0000000000000094 .L0 
     /tmp/ccj6XjNR.s:105    .text:0000000000000094 .L0 
     /tmp/ccj6XjNR.s:106    .text:0000000000000098 .L0 
     /tmp/ccj6XjNR.s:109    .text:00000000000000a0 .L0 
     /tmp/ccj6XjNR.s:110    .text:00000000000000a0 .L0 
     /tmp/ccj6XjNR.s:112    .text:00000000000000a4 .L0 
     /tmp/ccj6XjNR.s:114    .text:00000000000000a4 .L0 
     /tmp/ccj6XjNR.s:115    .text:00000000000000a4 .L0 
     /tmp/ccj6XjNR.s:118    .text:00000000000000ac .L0 
     /tmp/ccj6XjNR.s:119    .text:00000000000000b0 .L0 
     /tmp/ccj6XjNR.s:121    .text:00000000000000b4 .L0 
     /tmp/ccj6XjNR.s:122    .text:00000000000000b4 .L0 
     /tmp/ccj6XjNR.s:124    .text:00000000000000b8 .L0 
     /tmp/ccj6XjNR.s:126    .text:00000000000000bc .L0 
     /tmp/ccj6XjNR.s:132    .text:00000000000000bc _ZN3PCB8dispatchEv
     /tmp/ccj6XjNR.s:135    .text:00000000000000bc .L0 
     /tmp/ccj6XjNR.s:136    .text:00000000000000bc .L0 
GAS LISTING /tmp/ccj6XjNR.s 			page 27


     /tmp/ccj6XjNR.s:137    .text:00000000000000c0 .L0 
     /tmp/ccj6XjNR.s:142    .text:00000000000000d0 .L0 
     /tmp/ccj6XjNR.s:143    .text:00000000000000d0 .L0 
     /tmp/ccj6XjNR.s:144    .text:00000000000000d0 .L0 
     /tmp/ccj6XjNR.s:145    .text:00000000000000d0 .L0 
     /tmp/ccj6XjNR.s:147    .text:00000000000000d4 .L0 
     /tmp/ccj6XjNR.s:149    .text:00000000000000d4 .L0 
     /tmp/ccj6XjNR.s:150    .text:00000000000000d4 .L0 
     /tmp/ccj6XjNR.s:156    .text:00000000000000dc .L0 
     /tmp/ccj6XjNR.s:157    .text:00000000000000dc .L0 
     /tmp/ccj6XjNR.s:158    .text:00000000000000dc .L0 
     /tmp/ccj6XjNR.s:163    .text:00000000000000e0 .L0 
     /tmp/ccj6XjNR.s:167    .text:00000000000000e8 .L0 
     /tmp/ccj6XjNR.s:168    .text:00000000000000e8 .L0 
     /tmp/ccj6XjNR.s:171    .text:00000000000000f0 .L0 
     /tmp/ccj6XjNR.s:177    .text:00000000000000fc .L0 
     /tmp/ccj6XjNR.s:178    .text:00000000000000fc .L0 
     /tmp/ccj6XjNR.s:179    .text:00000000000000fc .L0 
     /tmp/ccj6XjNR.s:185    .text:0000000000000104 .L0 
     /tmp/ccj6XjNR.s:186    .text:0000000000000104 .L0 
     /tmp/ccj6XjNR.s:189    .text:000000000000010c .L0 
     /tmp/ccj6XjNR.s:190    .text:000000000000010c .L0 
     /tmp/ccj6XjNR.s:192    .text:0000000000000110 .L0 
     /tmp/ccj6XjNR.s:197    .text:0000000000000120 .L0 
     /tmp/ccj6XjNR.s:198    .text:0000000000000124 .L0 
     /tmp/ccj6XjNR.s:199    .text:0000000000000124 .L0 
     /tmp/ccj6XjNR.s:201    .text:0000000000000128 .L0 
     /tmp/ccj6XjNR.s:202    .text:0000000000000128 .L0 
     /tmp/ccj6XjNR.s:204    .text:000000000000012c .L0 
     /tmp/ccj6XjNR.s:207    .text:0000000000000130 .L0 
     /tmp/ccj6XjNR.s:209    .text:0000000000000134 .L0 
     /tmp/ccj6XjNR.s:213    .text:0000000000000138 .L0 
     /tmp/ccj6XjNR.s:215    .text:0000000000000138 .L0 
     /tmp/ccj6XjNR.s:216    .text:0000000000000138 .L0 
     /tmp/ccj6XjNR.s:220    .text:0000000000000148 .L0 
     /tmp/ccj6XjNR.s:226    .text:0000000000000148 _ZN3PCBnwEm
     /tmp/ccj6XjNR.s:229    .text:0000000000000148 .L0 
     /tmp/ccj6XjNR.s:231    .text:0000000000000148 .L0 
     /tmp/ccj6XjNR.s:232    .text:000000000000014c .L0 
     /tmp/ccj6XjNR.s:235    .text:0000000000000154 .L0 
     /tmp/ccj6XjNR.s:236    .text:0000000000000154 .L0 
     /tmp/ccj6XjNR.s:238    .text:0000000000000158 .L0 
     /tmp/ccj6XjNR.s:240    .text:0000000000000158 .L0 
     /tmp/ccj6XjNR.s:241    .text:0000000000000158 .L0 
     /tmp/ccj6XjNR.s:247    .text:000000000000016c .L0 
     /tmp/ccj6XjNR.s:248    .text:0000000000000170 .L0 
     /tmp/ccj6XjNR.s:250    .text:0000000000000174 .L0 
     /tmp/ccj6XjNR.s:251    .text:0000000000000174 .L0 
     /tmp/ccj6XjNR.s:253    .text:0000000000000178 .L0 
     /tmp/ccj6XjNR.s:255    .text:000000000000017c .L0 
     /tmp/ccj6XjNR.s:261    .text:000000000000017c _ZN3PCBdlEPv
     /tmp/ccj6XjNR.s:264    .text:000000000000017c .L0 
     /tmp/ccj6XjNR.s:266    .text:000000000000017c .L0 
     /tmp/ccj6XjNR.s:267    .text:0000000000000180 .L0 
     /tmp/ccj6XjNR.s:270    .text:0000000000000188 .L0 
     /tmp/ccj6XjNR.s:271    .text:0000000000000188 .L0 
     /tmp/ccj6XjNR.s:273    .text:000000000000018c .L0 
GAS LISTING /tmp/ccj6XjNR.s 			page 28


     /tmp/ccj6XjNR.s:276    .text:0000000000000190 .L0 
     /tmp/ccj6XjNR.s:277    .text:0000000000000190 .L0 
     /tmp/ccj6XjNR.s:283    .text:00000000000001a4 .L0 
     /tmp/ccj6XjNR.s:284    .text:00000000000001a8 .L0 
     /tmp/ccj6XjNR.s:286    .text:00000000000001ac .L0 
     /tmp/ccj6XjNR.s:287    .text:00000000000001ac .L0 
     /tmp/ccj6XjNR.s:289    .text:00000000000001b0 .L0 
     /tmp/ccj6XjNR.s:291    .text:00000000000001b4 .L0 
     /tmp/ccj6XjNR.s:297    .text:00000000000001b4 _ZN3PCBD2Ev
     /tmp/ccj6XjNR.s:300    .text:00000000000001b4 .L0 
     /tmp/ccj6XjNR.s:5166   .data.rel.local.DW.ref.__gxx_personality_v0:0000000000000000 DW.ref.__gxx_personality_v0
     /tmp/ccj6XjNR.s:304    .text:00000000000001b4 .L0 
     /tmp/ccj6XjNR.s:305    .text:00000000000001b8 .L0 
     /tmp/ccj6XjNR.s:308    .text:00000000000001c0 .L0 
     /tmp/ccj6XjNR.s:309    .text:00000000000001c0 .L0 
     /tmp/ccj6XjNR.s:311    .text:00000000000001c4 .L0 
     /tmp/ccj6XjNR.s:314    .text:00000000000001c4 .L0 
     /tmp/ccj6XjNR.s:315    .text:00000000000001c4 .L0 
     /tmp/ccj6XjNR.s:321    .text:00000000000001d0 .L0 
     /tmp/ccj6XjNR.s:322    .text:00000000000001d4 .L0 
     /tmp/ccj6XjNR.s:324    .text:00000000000001d8 .L0 
     /tmp/ccj6XjNR.s:325    .text:00000000000001d8 .L0 
     /tmp/ccj6XjNR.s:327    .text:00000000000001dc .L0 
     /tmp/ccj6XjNR.s:329    .text:00000000000001e0 .L0 
     /tmp/ccj6XjNR.s:297    .text:00000000000001b4 _ZN3PCBD1Ev
     /tmp/ccj6XjNR.s:345    .text:00000000000001e0 _ZN3PCB10initializeEv
     /tmp/ccj6XjNR.s:348    .text:00000000000001e0 .L0 
     /tmp/ccj6XjNR.s:349    .text:00000000000001e0 .L0 
     /tmp/ccj6XjNR.s:350    .text:00000000000001e4 .L0 
     /tmp/ccj6XjNR.s:355    .text:00000000000001f4 .L0 
     /tmp/ccj6XjNR.s:356    .text:00000000000001f4 .L0 
     /tmp/ccj6XjNR.s:357    .text:00000000000001f4 .L0 
     /tmp/ccj6XjNR.s:358    .text:00000000000001f4 .L0 
     /tmp/ccj6XjNR.s:360    .text:00000000000001f8 .L0 
     /tmp/ccj6XjNR.s:362    .text:00000000000001f8 .L0 
     /tmp/ccj6XjNR.s:363    .text:00000000000001f8 .L0 
     /tmp/ccj6XjNR.s:369    .text:000000000000020c .L0 
     /tmp/ccj6XjNR.s:377    .text:0000000000000224 .L0 
     /tmp/ccj6XjNR.s:378    .text:0000000000000224 .L0 
     /tmp/ccj6XjNR.s:381    .text:000000000000022c .L0 
     /tmp/ccj6XjNR.s:382    .text:000000000000022c .L0 
     /tmp/ccj6XjNR.s:387    .text:0000000000000234 .L0 
     /tmp/ccj6XjNR.s:388    .text:0000000000000234 .L0 
     /tmp/ccj6XjNR.s:389    .text:0000000000000234 .L0 
     /tmp/ccj6XjNR.s:395    .text:000000000000023c .L0 
     /tmp/ccj6XjNR.s:396    .text:000000000000023c .L0 
     /tmp/ccj6XjNR.s:401    .text:000000000000024c .L0 
     /tmp/ccj6XjNR.s:408    .text:0000000000000260 .L0 
     /tmp/ccj6XjNR.s:416    .text:000000000000027c .L0 
     /tmp/ccj6XjNR.s:419    .text:0000000000000288 .L0 
     /tmp/ccj6XjNR.s:420    .text:0000000000000288 .L0 
     /tmp/ccj6XjNR.s:423    .text:0000000000000290 .L0 
     /tmp/ccj6XjNR.s:424    .text:0000000000000290 .L0 
     /tmp/ccj6XjNR.s:428    .text:000000000000029c .L0 
     /tmp/ccj6XjNR.s:429    .text:000000000000029c .L0 
     /tmp/ccj6XjNR.s:434    .text:00000000000002ac .L0 
     /tmp/ccj6XjNR.s:440    .text:00000000000002c0 .L0 
GAS LISTING /tmp/ccj6XjNR.s 			page 29


     /tmp/ccj6XjNR.s:448    .text:00000000000002dc .L0 
     /tmp/ccj6XjNR.s:450    .text:00000000000002e4 .L0 
     /tmp/ccj6XjNR.s:451    .text:00000000000002e4 .L0 
     /tmp/ccj6XjNR.s:455    .text:00000000000002f0 .L0 
     /tmp/ccj6XjNR.s:456    .text:00000000000002f4 .L0 
     /tmp/ccj6XjNR.s:458    .text:00000000000002f8 .L0 
     /tmp/ccj6XjNR.s:459    .text:00000000000002f8 .L0 
     /tmp/ccj6XjNR.s:461    .text:00000000000002fc .L0 
     /tmp/ccj6XjNR.s:463    .text:0000000000000300 .L0 
     /tmp/ccj6XjNR.s:465    .text:0000000000000304 .L0 
     /tmp/ccj6XjNR.s:467    .text:0000000000000308 .L0 
     /tmp/ccj6XjNR.s:473    .text:0000000000000308 _ZN3PCB10isFinishedEv
     /tmp/ccj6XjNR.s:476    .text:0000000000000308 .L0 
     /tmp/ccj6XjNR.s:478    .text:0000000000000308 .L0 
     /tmp/ccj6XjNR.s:479    .text:000000000000030c .L0 
     /tmp/ccj6XjNR.s:481    .text:0000000000000310 .L0 
     /tmp/ccj6XjNR.s:483    .text:0000000000000314 .L0 
     /tmp/ccj6XjNR.s:485    .text:0000000000000314 .L0 
     /tmp/ccj6XjNR.s:486    .text:0000000000000314 .L0 
     /tmp/ccj6XjNR.s:489    .text:0000000000000318 .L0 
     /tmp/ccj6XjNR.s:491    .text:000000000000031c .L0 
     /tmp/ccj6XjNR.s:493    .text:0000000000000324 .L0 
     /tmp/ccj6XjNR.s:494    .text:0000000000000324 .L0 
     /tmp/ccj6XjNR.s:496    .text:0000000000000328 .L0 
     /tmp/ccj6XjNR.s:498    .text:000000000000032c .L0 
     /tmp/ccj6XjNR.s:504    .text:000000000000032c _ZN3PCB17threadExitHandlerEv
     /tmp/ccj6XjNR.s:507    .text:000000000000032c .L0 
     /tmp/ccj6XjNR.s:508    .text:000000000000032c .L0 
     /tmp/ccj6XjNR.s:509    .text:0000000000000330 .L0 
     /tmp/ccj6XjNR.s:512    .text:0000000000000338 .L0 
     /tmp/ccj6XjNR.s:513    .text:0000000000000338 .L0 
     /tmp/ccj6XjNR.s:515    .text:000000000000033c .L0 
     /tmp/ccj6XjNR.s:517    .text:000000000000033c .L0 
     /tmp/ccj6XjNR.s:518    .text:000000000000033c .L0 
     /tmp/ccj6XjNR.s:521    .text:0000000000000348 .L0 
     /tmp/ccj6XjNR.s:522    .text:0000000000000348 .L0 
     /tmp/ccj6XjNR.s:527    .text:000000000000034c .L0 
     /tmp/ccj6XjNR.s:528    .text:000000000000034c .L0 
     /tmp/ccj6XjNR.s:534    .text:0000000000000354 .L0 
     /tmp/ccj6XjNR.s:535    .text:0000000000000354 .L0 
     /tmp/ccj6XjNR.s:538    .text:000000000000035c .L0 
  src/kernel/PCB.cpp:105    .text:000000000000035c .L0 
     /tmp/ccj6XjNR.s:544    .text:0000000000000360 .L0 
     /tmp/ccj6XjNR.s:546    .text:0000000000000360 .L0 
     /tmp/ccj6XjNR.s:549    .text:0000000000000368 .L0 
     /tmp/ccj6XjNR.s:550    .text:000000000000036c .L0 
     /tmp/ccj6XjNR.s:552    .text:0000000000000370 .L0 
     /tmp/ccj6XjNR.s:553    .text:0000000000000370 .L0 
     /tmp/ccj6XjNR.s:555    .text:0000000000000374 .L0 
     /tmp/ccj6XjNR.s:557    .text:0000000000000378 .L0 
     /tmp/ccj6XjNR.s:563    .text:0000000000000378 _ZN3PCB21threadDispatchHandlerEv
     /tmp/ccj6XjNR.s:566    .text:0000000000000378 .L0 
     /tmp/ccj6XjNR.s:567    .text:0000000000000378 .L0 
     /tmp/ccj6XjNR.s:568    .text:000000000000037c .L0 
     /tmp/ccj6XjNR.s:571    .text:0000000000000384 .L0 
     /tmp/ccj6XjNR.s:572    .text:0000000000000384 .L0 
     /tmp/ccj6XjNR.s:574    .text:0000000000000388 .L0 
GAS LISTING /tmp/ccj6XjNR.s 			page 30


     /tmp/ccj6XjNR.s:576    .text:0000000000000388 .L0 
     /tmp/ccj6XjNR.s:577    .text:0000000000000388 .L0 
     /tmp/ccj6XjNR.s:579    .text:0000000000000390 .L0 
     /tmp/ccj6XjNR.s:580    .text:0000000000000390 .L0 
     /tmp/ccj6XjNR.s:583    .text:0000000000000398 .L0 
     /tmp/ccj6XjNR.s:584    .text:000000000000039c .L0 
     /tmp/ccj6XjNR.s:586    .text:00000000000003a0 .L0 
     /tmp/ccj6XjNR.s:587    .text:00000000000003a0 .L0 
     /tmp/ccj6XjNR.s:589    .text:00000000000003a4 .L0 
     /tmp/ccj6XjNR.s:591    .text:00000000000003a8 .L0 
     /tmp/ccj6XjNR.s:597    .text:00000000000003a8 _ZN3PCB18threadSleepHandlerEv
     /tmp/ccj6XjNR.s:600    .text:00000000000003a8 .L0 
     /tmp/ccj6XjNR.s:601    .text:00000000000003a8 .L0 
     /tmp/ccj6XjNR.s:602    .text:00000000000003ac .L0 
     /tmp/ccj6XjNR.s:605    .text:00000000000003b4 .L0 
     /tmp/ccj6XjNR.s:606    .text:00000000000003b4 .L0 
     /tmp/ccj6XjNR.s:608    .text:00000000000003b8 .L0 
     /tmp/ccj6XjNR.s:610    .text:00000000000003b8 .L0 
     /tmp/ccj6XjNR.s:611    .text:00000000000003b8 .L0 
  src/kernel/PCB.cpp:118    .text:00000000000003b8 .L0 
     /tmp/ccj6XjNR.s:618    .text:00000000000003bc .L0 
     /tmp/ccj6XjNR.s:620    .text:00000000000003bc .L0 
     /tmp/ccj6XjNR.s:623    .text:00000000000003c8 .L0 
     /tmp/ccj6XjNR.s:624    .text:00000000000003c8 .L0 
     /tmp/ccj6XjNR.s:632    .text:00000000000003dc .L0 
     /tmp/ccj6XjNR.s:633    .text:00000000000003dc .L0 
     /tmp/ccj6XjNR.s:638    .text:00000000000003e0 .L0 
     /tmp/ccj6XjNR.s:639    .text:00000000000003e0 .L0 
     /tmp/ccj6XjNR.s:642    .text:00000000000003e8 .L0 
     /tmp/ccj6XjNR.s:643    .text:00000000000003e8 .L0 
     /tmp/ccj6XjNR.s:646    .text:00000000000003f0 .L0 
  src/kernel/PCB.cpp:123    .text:00000000000003f0 .L0 
     /tmp/ccj6XjNR.s:652    .text:00000000000003f4 .L0 
     /tmp/ccj6XjNR.s:654    .text:00000000000003f4 .L0 
     /tmp/ccj6XjNR.s:657    .text:00000000000003fc .L0 
     /tmp/ccj6XjNR.s:658    .text:0000000000000400 .L0 
     /tmp/ccj6XjNR.s:660    .text:0000000000000404 .L0 
     /tmp/ccj6XjNR.s:661    .text:0000000000000404 .L0 
     /tmp/ccj6XjNR.s:663    .text:0000000000000408 .L0 
     /tmp/ccj6XjNR.s:665    .text:000000000000040c .L0 
     /tmp/ccj6XjNR.s:671    .text:000000000000040c _ZN3PCB19threadCreateHandlerEv
     /tmp/ccj6XjNR.s:674    .text:000000000000040c .L0 
     /tmp/ccj6XjNR.s:675    .text:000000000000040c .L0 
     /tmp/ccj6XjNR.s:676    .text:0000000000000410 .L0 
     /tmp/ccj6XjNR.s:683    .text:0000000000000428 .L0 
     /tmp/ccj6XjNR.s:684    .text:0000000000000428 .L0 
     /tmp/ccj6XjNR.s:685    .text:0000000000000428 .L0 
     /tmp/ccj6XjNR.s:686    .text:0000000000000428 .L0 
     /tmp/ccj6XjNR.s:687    .text:0000000000000428 .L0 
     /tmp/ccj6XjNR.s:688    .text:0000000000000428 .L0 
     /tmp/ccj6XjNR.s:690    .text:000000000000042c .L0 
     /tmp/ccj6XjNR.s:692    .text:000000000000042c .L0 
     /tmp/ccj6XjNR.s:693    .text:000000000000042c .L0 
     /tmp/ccj6XjNR.s:694    .text:000000000000042c .L0 
     /tmp/ccj6XjNR.s:695    .text:000000000000042c .L0 
  src/kernel/PCB.cpp:132    .text:000000000000042c .L0 
     /tmp/ccj6XjNR.s:702    .text:0000000000000430 .L0 
GAS LISTING /tmp/ccj6XjNR.s 			page 31


  src/kernel/PCB.cpp:133    .text:0000000000000430 .L0 
     /tmp/ccj6XjNR.s:708    .text:0000000000000434 .L0 
  src/kernel/PCB.cpp:134    .text:0000000000000434 .L0 
     /tmp/ccj6XjNR.s:714    .text:0000000000000438 .L0 
     /tmp/ccj6XjNR.s:716    .text:0000000000000438 .L0 
     /tmp/ccj6XjNR.s:722    .text:000000000000044c .L0 
     /tmp/ccj6XjNR.s:730    .text:0000000000000468 .L0 
     /tmp/ccj6XjNR.s:731    .text:0000000000000468 .L0 
     /tmp/ccj6XjNR.s:733    .text:000000000000046c .L0 
     /tmp/ccj6XjNR.s:735    .text:0000000000000470 .L0 
     /tmp/ccj6XjNR.s:736    .text:0000000000000470 .L0 
     /tmp/ccj6XjNR.s:740    .text:000000000000047c .L0 
  src/kernel/PCB.cpp:149    .text:000000000000047c .L0 
     /tmp/ccj6XjNR.s:748    .text:0000000000000480 .L0 
     /tmp/ccj6XjNR.s:749    .text:0000000000000480 .L0 
     /tmp/ccj6XjNR.s:752    .text:0000000000000488 .L0 
     /tmp/ccj6XjNR.s:753    .text:000000000000048c .L0 
     /tmp/ccj6XjNR.s:754    .text:000000000000048c .L0 
     /tmp/ccj6XjNR.s:756    .text:0000000000000490 .L0 
     /tmp/ccj6XjNR.s:757    .text:0000000000000490 .L0 
     /tmp/ccj6XjNR.s:759    .text:0000000000000494 .L0 
     /tmp/ccj6XjNR.s:762    .text:0000000000000498 .L0 
     /tmp/ccj6XjNR.s:765    .text:000000000000049c .L0 
     /tmp/ccj6XjNR.s:768    .text:00000000000004a0 .L0 
     /tmp/ccj6XjNR.s:771    .text:00000000000004a4 .L0 
     /tmp/ccj6XjNR.s:775    .text:00000000000004a8 .L0 
     /tmp/ccj6XjNR.s:777    .text:00000000000004a8 .L0 
  src/kernel/PCB.cpp:144    .text:00000000000004a8 .L0 
     /tmp/ccj6XjNR.s:784    .text:00000000000004b0 .L0 
     /tmp/ccj6XjNR.s:790    .text:00000000000004b0 _ZN3PCB18threadStartHandlerEv
     /tmp/ccj6XjNR.s:793    .text:00000000000004b0 .L0 
     /tmp/ccj6XjNR.s:794    .text:00000000000004b0 .L0 
     /tmp/ccj6XjNR.s:795    .text:00000000000004b4 .L0 
     /tmp/ccj6XjNR.s:798    .text:00000000000004bc .L0 
     /tmp/ccj6XjNR.s:799    .text:00000000000004bc .L0 
     /tmp/ccj6XjNR.s:801    .text:00000000000004c0 .L0 
     /tmp/ccj6XjNR.s:803    .text:00000000000004c0 .L0 
     /tmp/ccj6XjNR.s:804    .text:00000000000004c0 .L0 
  src/kernel/PCB.cpp:157    .text:00000000000004c0 .L0 
     /tmp/ccj6XjNR.s:812    .text:00000000000004c4 .L0 
     /tmp/ccj6XjNR.s:814    .text:00000000000004c8 .L0 
     /tmp/ccj6XjNR.s:815    .text:00000000000004c8 .L0 
     /tmp/ccj6XjNR.s:818    .text:00000000000004d0 .L0 
  src/kernel/PCB.cpp:161    .text:00000000000004d0 .L0 
     /tmp/ccj6XjNR.s:826    .text:00000000000004d4 .L0 
     /tmp/ccj6XjNR.s:827    .text:00000000000004d4 .L0 
     /tmp/ccj6XjNR.s:830    .text:00000000000004dc .L0 
     /tmp/ccj6XjNR.s:831    .text:00000000000004e0 .L0 
     /tmp/ccj6XjNR.s:832    .text:00000000000004e0 .L0 
     /tmp/ccj6XjNR.s:834    .text:00000000000004e4 .L0 
     /tmp/ccj6XjNR.s:835    .text:00000000000004e4 .L0 
     /tmp/ccj6XjNR.s:837    .text:00000000000004e8 .L0 
     /tmp/ccj6XjNR.s:841    .text:00000000000004ec .L0 
     /tmp/ccj6XjNR.s:843    .text:00000000000004ec .L0 
  src/kernel/PCB.cpp:165    .text:00000000000004ec .L0 
     /tmp/ccj6XjNR.s:850    .text:00000000000004f4 .L0 
     /tmp/ccj6XjNR.s:856    .text:00000000000004f4 _ZN3PCB20threadMakePCBHandlerEv
GAS LISTING /tmp/ccj6XjNR.s 			page 32


     /tmp/ccj6XjNR.s:859    .text:00000000000004f4 .L0 
     /tmp/ccj6XjNR.s:860    .text:00000000000004f4 .L0 
     /tmp/ccj6XjNR.s:861    .text:00000000000004f8 .L0 
     /tmp/ccj6XjNR.s:868    .text:0000000000000510 .L0 
     /tmp/ccj6XjNR.s:869    .text:0000000000000510 .L0 
     /tmp/ccj6XjNR.s:870    .text:0000000000000510 .L0 
     /tmp/ccj6XjNR.s:871    .text:0000000000000510 .L0 
     /tmp/ccj6XjNR.s:872    .text:0000000000000510 .L0 
     /tmp/ccj6XjNR.s:873    .text:0000000000000510 .L0 
     /tmp/ccj6XjNR.s:875    .text:0000000000000514 .L0 
     /tmp/ccj6XjNR.s:877    .text:0000000000000514 .L0 
     /tmp/ccj6XjNR.s:878    .text:0000000000000514 .L0 
     /tmp/ccj6XjNR.s:879    .text:0000000000000514 .L0 
     /tmp/ccj6XjNR.s:880    .text:0000000000000514 .L0 
  src/kernel/PCB.cpp:175    .text:0000000000000514 .L0 
     /tmp/ccj6XjNR.s:887    .text:0000000000000518 .L0 
  src/kernel/PCB.cpp:176    .text:0000000000000518 .L0 
     /tmp/ccj6XjNR.s:893    .text:000000000000051c .L0 
  src/kernel/PCB.cpp:177    .text:000000000000051c .L0 
     /tmp/ccj6XjNR.s:899    .text:0000000000000520 .L0 
     /tmp/ccj6XjNR.s:901    .text:0000000000000520 .L0 
     /tmp/ccj6XjNR.s:907    .text:0000000000000534 .L0 
     /tmp/ccj6XjNR.s:915    .text:0000000000000550 .L0 
     /tmp/ccj6XjNR.s:916    .text:0000000000000550 .L0 
     /tmp/ccj6XjNR.s:918    .text:0000000000000554 .L0 
     /tmp/ccj6XjNR.s:920    .text:0000000000000558 .L0 
  src/kernel/PCB.cpp:191    .text:0000000000000558 .L0 
     /tmp/ccj6XjNR.s:928    .text:000000000000055c .L0 
     /tmp/ccj6XjNR.s:929    .text:000000000000055c .L0 
     /tmp/ccj6XjNR.s:932    .text:0000000000000564 .L0 
     /tmp/ccj6XjNR.s:933    .text:0000000000000568 .L0 
     /tmp/ccj6XjNR.s:934    .text:0000000000000568 .L0 
     /tmp/ccj6XjNR.s:936    .text:000000000000056c .L0 
     /tmp/ccj6XjNR.s:937    .text:000000000000056c .L0 
     /tmp/ccj6XjNR.s:939    .text:0000000000000570 .L0 
     /tmp/ccj6XjNR.s:942    .text:0000000000000574 .L0 
     /tmp/ccj6XjNR.s:945    .text:0000000000000578 .L0 
     /tmp/ccj6XjNR.s:948    .text:000000000000057c .L0 
     /tmp/ccj6XjNR.s:951    .text:0000000000000580 .L0 
     /tmp/ccj6XjNR.s:955    .text:0000000000000584 .L0 
     /tmp/ccj6XjNR.s:957    .text:0000000000000584 .L0 
  src/kernel/PCB.cpp:188    .text:0000000000000584 .L0 
     /tmp/ccj6XjNR.s:964    .text:000000000000058c .L0 
     /tmp/ccj6XjNR.s:970    .text:000000000000058c _ZN3PCB19threadDelPCBHandlerEv
     /tmp/ccj6XjNR.s:973    .text:000000000000058c .L0 
     /tmp/ccj6XjNR.s:974    .text:000000000000058c .L0 
     /tmp/ccj6XjNR.s:975    .text:0000000000000590 .L0 
     /tmp/ccj6XjNR.s:979    .text:000000000000059c .L0 
     /tmp/ccj6XjNR.s:980    .text:000000000000059c .L0 
     /tmp/ccj6XjNR.s:981    .text:000000000000059c .L0 
     /tmp/ccj6XjNR.s:983    .text:00000000000005a0 .L0 
     /tmp/ccj6XjNR.s:985    .text:00000000000005a0 .L0 
     /tmp/ccj6XjNR.s:986    .text:00000000000005a0 .L0 
  src/kernel/PCB.cpp:198    .text:00000000000005a0 .L0 
     /tmp/ccj6XjNR.s:994    .text:00000000000005a4 .L0 
     /tmp/ccj6XjNR.s:996    .text:00000000000005a8 .L0 
     /tmp/ccj6XjNR.s:997    .text:00000000000005a8 .L0 
GAS LISTING /tmp/ccj6XjNR.s 			page 33


     /tmp/ccj6XjNR.s:1004   .text:00000000000005c0 .L0 
  src/kernel/PCB.cpp:202    .text:00000000000005c0 .L0 
     /tmp/ccj6XjNR.s:1012   .text:00000000000005c4 .L0 
     /tmp/ccj6XjNR.s:1013   .text:00000000000005c4 .L0 
     /tmp/ccj6XjNR.s:1016   .text:00000000000005cc .L0 
     /tmp/ccj6XjNR.s:1017   .text:00000000000005d0 .L0 
     /tmp/ccj6XjNR.s:1018   .text:00000000000005d0 .L0 
     /tmp/ccj6XjNR.s:1020   .text:00000000000005d4 .L0 
     /tmp/ccj6XjNR.s:1021   .text:00000000000005d4 .L0 
     /tmp/ccj6XjNR.s:1023   .text:00000000000005d8 .L0 
     /tmp/ccj6XjNR.s:1026   .text:00000000000005dc .L0 
     /tmp/ccj6XjNR.s:1030   .text:00000000000005e0 .L0 
     /tmp/ccj6XjNR.s:1032   .text:00000000000005e0 .L0 
  src/kernel/PCB.cpp:206    .text:00000000000005e0 .L0 
     /tmp/ccj6XjNR.s:1039   .text:00000000000005e8 .L0 
     /tmp/ccj6XjNR.s:1060   .bss:0000000000000010 _ZN3PCB7userPCBE
     /tmp/ccj6XjNR.s:1056   .bss:0000000000000008 _ZN3PCB10consolePCBE
     /tmp/ccj6XjNR.s:1068   .bss:0000000000000020 _ZN3PCB10savedRegA4E
     /tmp/ccj6XjNR.s:1064   .bss:0000000000000018 _ZN3PCB16timeSliceCounterE
     /tmp/ccj6XjNR.s:1052   .bss:0000000000000000 _ZN3PCB7runningE
     /tmp/ccj6XjNR.s:1049   .bss:0000000000000000 .LANCHOR0
     /tmp/ccj6XjNR.s:1079   .text:00000000000005e8 .L0 
     /tmp/ccj6XjNR.s:28     .text:0000000000000018 .L0 
     /tmp/ccj6XjNR.s:78     .text:0000000000000074 .L0 
     /tmp/ccj6XjNR.s:150    .text:00000000000000d4 .L0 
     /tmp/ccj6XjNR.s:171    .text:00000000000000f0 .L0 
     /tmp/ccj6XjNR.s:241    .text:0000000000000158 .L0 
     /tmp/ccj6XjNR.s:277    .text:0000000000000190 .L0 
     /tmp/ccj6XjNR.s:382    .text:000000000000022c .L0 
     /tmp/ccj6XjNR.s:411    .text:000000000000026c .L0 
     /tmp/ccj6XjNR.s:416    .text:000000000000027c .L0 
     /tmp/ccj6XjNR.s:443    .text:00000000000002cc .L0 
     /tmp/ccj6XjNR.s:448    .text:00000000000002dc .L0 
     /tmp/ccj6XjNR.s:518    .text:000000000000033c .L0 
     /tmp/ccj6XjNR.s:577    .text:0000000000000388 .L0 
     /tmp/ccj6XjNR.s:620    .text:00000000000003bc .L0 
     /tmp/ccj6XjNR.s:625    .text:00000000000003cc .L0 
     /tmp/ccj6XjNR.s:723    .text:0000000000000450 .L0 
     /tmp/ccj6XjNR.s:908    .text:0000000000000538 .L0 
     /tmp/ccj6XjNR.s:212    .text:0000000000000138 .L10
     /tmp/ccj6XjNR.s:165    .text:00000000000000e8 .L8
     /tmp/ccj6XjNR.s:375    .text:0000000000000224 .L18
     /tmp/ccj6XjNR.s:414    .text:000000000000027c .L19
     /tmp/ccj6XjNR.s:446    .text:00000000000002dc .L20
     /tmp/ccj6XjNR.s:728    .text:0000000000000468 .L31
     /tmp/ccj6XjNR.s:774    .text:00000000000004a8 .L35
     /tmp/ccj6XjNR.s:746    .text:0000000000000480 .L33
     /tmp/ccj6XjNR.s:840    .text:00000000000004ec .L37
     /tmp/ccj6XjNR.s:824    .text:00000000000004d4 .L38
     /tmp/ccj6XjNR.s:913    .text:0000000000000550 .L41
     /tmp/ccj6XjNR.s:954    .text:0000000000000584 .L45
     /tmp/ccj6XjNR.s:926    .text:000000000000055c .L43
     /tmp/ccj6XjNR.s:1029   .text:00000000000005e0 .L47
     /tmp/ccj6XjNR.s:1010   .text:00000000000005c4 .L48
     /tmp/ccj6XjNR.s:3320   .debug_abbrev:0000000000000000 .Ldebug_abbrev0
     /tmp/ccj6XjNR.s:4782   .debug_str:0000000000000557 .LASF258
     /tmp/ccj6XjNR.s:4746   .debug_str:000000000000040f .LASF259
GAS LISTING /tmp/ccj6XjNR.s 			page 34


     /tmp/ccj6XjNR.s:4780   .debug_str:0000000000000539 .LASF260
     /tmp/ccj6XjNR.s:5      .text:0000000000000000 .Ltext0
     /tmp/ccj6XjNR.s:1071   .text:00000000000005e8 .Letext0
     /tmp/ccj6XjNR.s:4622   .debug_line:0000000000000000 .Ldebug_line0
     /tmp/ccj6XjNR.s:4816   .debug_str:000000000000073f .LASF0
     /tmp/ccj6XjNR.s:4848   .debug_str:0000000000000842 .LASF1
     /tmp/ccj6XjNR.s:4978   .debug_str:0000000000000d25 .LASF2
     /tmp/ccj6XjNR.s:4990   .debug_str:0000000000000d71 .LASF4
     /tmp/ccj6XjNR.s:4830   .debug_str:00000000000007a4 .LASF3
     /tmp/ccj6XjNR.s:4640   .debug_str:00000000000000b5 .LASF5
     /tmp/ccj6XjNR.s:4934   .debug_str:0000000000000b98 .LASF6
     /tmp/ccj6XjNR.s:4840   .debug_str:000000000000080d .LASF7
     /tmp/ccj6XjNR.s:4778   .debug_str:0000000000000529 .LASF8
     /tmp/ccj6XjNR.s:4788   .debug_str:0000000000000653 .LASF9
     /tmp/ccj6XjNR.s:4692   .debug_str:000000000000029f .LASF10
     /tmp/ccj6XjNR.s:5032   .debug_str:0000000000000ec0 .LASF11
     /tmp/ccj6XjNR.s:4762   .debug_str:00000000000004be .LASF12
     /tmp/ccj6XjNR.s:4704   .debug_str:00000000000002de .LASF13
     /tmp/ccj6XjNR.s:4690   .debug_str:000000000000028f .LASF14
     /tmp/ccj6XjNR.s:5036   .debug_str:0000000000000eda .LASF15
     /tmp/ccj6XjNR.s:4748   .debug_str:0000000000000422 .LASF16
     /tmp/ccj6XjNR.s:5022   .debug_str:0000000000000e47 .LASF17
     /tmp/ccj6XjNR.s:5048   .debug_str:0000000000000f19 .LASF261
     /tmp/ccj6XjNR.s:5042   .debug_str:0000000000000ef9 .LASF18
     /tmp/ccj6XjNR.s:5012   .debug_str:0000000000000e13 .LASF19
     /tmp/ccj6XjNR.s:4698   .debug_str:00000000000002bc .LASF20
     /tmp/ccj6XjNR.s:4668   .debug_str:00000000000001c1 .LASF21
     /tmp/ccj6XjNR.s:4938   .debug_str:0000000000000bc1 .LASF22
     /tmp/ccj6XjNR.s:4696   .debug_str:00000000000002b3 .LASF23
     /tmp/ccj6XjNR.s:5038   .debug_str:0000000000000ee6 .LASF91
     /tmp/ccj6XjNR.s:4800   .debug_str:00000000000006c8 .LASF24
     /tmp/ccj6XjNR.s:4644   .debug_str:00000000000000c7 .LASF30
     /tmp/ccj6XjNR.s:5070   .debug_str:0000000000000fb7 .LASF262
     /tmp/ccj6XjNR.s:4924   .debug_str:0000000000000b42 .LASF25
     /tmp/ccj6XjNR.s:4846   .debug_str:000000000000083d .LASF26
     /tmp/ccj6XjNR.s:5144   .debug_str:0000000000001276 .LASF28
     /tmp/ccj6XjNR.s:5138   .debug_str:0000000000001246 .LASF27
     /tmp/ccj6XjNR.s:5056   .debug_str:0000000000000f47 .LASF29
     /tmp/ccj6XjNR.s:4730   .debug_str:0000000000000398 .LASF53
     /tmp/ccj6XjNR.s:4654   .debug_str:000000000000013b .LASF55
     /tmp/ccj6XjNR.s:5052   .debug_str:0000000000000f37 .LASF31
     /tmp/ccj6XjNR.s:5002   .debug_str:0000000000000dae .LASF32
     /tmp/ccj6XjNR.s:4856   .debug_str:0000000000000883 .LASF35
     /tmp/ccj6XjNR.s:4862   .debug_str:00000000000008ba .LASF37
     /tmp/ccj6XjNR.s:5148   .debug_str:000000000000129a .LASF33
     /tmp/ccj6XjNR.s:4752   .debug_str:0000000000000448 .LASF34
     /tmp/ccj6XjNR.s:4630   .debug_str:0000000000000030 .LASF79
     /tmp/ccj6XjNR.s:4828   .debug_str:0000000000000797 .LASF81
     /tmp/ccj6XjNR.s:5006   .debug_str:0000000000000dd0 .LASF36
     /tmp/ccj6XjNR.s:4896   .debug_str:0000000000000a06 .LASF38
     /tmp/ccj6XjNR.s:4988   .debug_str:0000000000000d68 .LASF39
     /tmp/ccj6XjNR.s:5030   .debug_str:0000000000000ea4 .LASF40
     /tmp/ccj6XjNR.s:4898   .debug_str:0000000000000a19 .LASF41
     /tmp/ccj6XjNR.s:4626   .debug_str:0000000000000011 .LASF42
     /tmp/ccj6XjNR.s:5124   .debug_str:00000000000011ce .LASF43
     /tmp/ccj6XjNR.s:4932   .debug_str:0000000000000b7e .LASF44
     /tmp/ccj6XjNR.s:5020   .debug_str:0000000000000e39 .LASF45
GAS LISTING /tmp/ccj6XjNR.s 			page 35


     /tmp/ccj6XjNR.s:4944   .debug_str:0000000000000be3 .LASF46
     /tmp/ccj6XjNR.s:4726   .debug_str:0000000000000376 .LASF47
     /tmp/ccj6XjNR.s:4766   .debug_str:00000000000004e0 .LASF48
     /tmp/ccj6XjNR.s:4968   .debug_str:0000000000000cd5 .LASF49
     /tmp/ccj6XjNR.s:4870   .debug_str:0000000000000908 .LASF50
     /tmp/ccj6XjNR.s:5130   .debug_str:0000000000001202 .LASF51
     /tmp/ccj6XjNR.s:4832   .debug_str:00000000000007b6 .LASF52
     /tmp/ccj6XjNR.s:5016   .debug_str:0000000000000e27 .LASF54
     /tmp/ccj6XjNR.s:5142   .debug_str:0000000000001260 .LASF56
     /tmp/ccj6XjNR.s:5040   .debug_str:0000000000000eee .LASF57
     /tmp/ccj6XjNR.s:4716   .debug_str:000000000000033d .LASF58
     /tmp/ccj6XjNR.s:4998   .debug_str:0000000000000d98 .LASF59
     /tmp/ccj6XjNR.s:4818   .debug_str:000000000000074c .LASF60
     /tmp/ccj6XjNR.s:4906   .debug_str:0000000000000a53 .LASF61
     /tmp/ccj6XjNR.s:4710   .debug_str:0000000000000317 .LASF62
     /tmp/ccj6XjNR.s:4948   .debug_str:0000000000000c0a .LASF63
     /tmp/ccj6XjNR.s:5158   .debug_str:00000000000012d1 .LASF64
     /tmp/ccj6XjNR.s:4910   .debug_str:0000000000000a79 .LASF65
     /tmp/ccj6XjNR.s:4986   .debug_str:0000000000000d55 .LASF66
     /tmp/ccj6XjNR.s:5008   .debug_str:0000000000000dd9 .LASF67
     /tmp/ccj6XjNR.s:5084   .debug_str:0000000000001040 .LASF68
     /tmp/ccj6XjNR.s:4882   .debug_str:000000000000097e .LASF69
     /tmp/ccj6XjNR.s:5074   .debug_str:0000000000000ff3 .LASF70
     /tmp/ccj6XjNR.s:5028   .debug_str:0000000000000e84 .LASF71
     /tmp/ccj6XjNR.s:4928   .debug_str:0000000000000b5a .LASF72
     /tmp/ccj6XjNR.s:4912   .debug_str:0000000000000a9a .LASF73
     /tmp/ccj6XjNR.s:4738   .debug_str:00000000000003ca .LASF74
     /tmp/ccj6XjNR.s:4820   .debug_str:0000000000000760 .LASF75
     /tmp/ccj6XjNR.s:4884   .debug_str:000000000000099c .LASF76
     /tmp/ccj6XjNR.s:5060   .debug_str:0000000000000f6b .LASF77
     /tmp/ccj6XjNR.s:4770   .debug_str:00000000000004f6 .LASF78
     /tmp/ccj6XjNR.s:5136   .debug_str:0000000000001238 .LASF80
     /tmp/ccj6XjNR.s:4660   .debug_str:0000000000000163 .LASF82
     /tmp/ccj6XjNR.s:4754   .debug_str:0000000000000454 .LASF83
     /tmp/ccj6XjNR.s:4680   .debug_str:000000000000020d .LASF84
     /tmp/ccj6XjNR.s:5122   .debug_str:00000000000011c7 .LASF85
     /tmp/ccj6XjNR.s:4676   .debug_str:00000000000001ee .LASF86
     /tmp/ccj6XjNR.s:4628   .debug_str:000000000000002b .LASF87
     /tmp/ccj6XjNR.s:5082   .debug_str:000000000000103b .LASF88
     /tmp/ccj6XjNR.s:4868   .debug_str:0000000000000900 .LASF89
     /tmp/ccj6XjNR.s:4736   .debug_str:00000000000003c4 .LASF90
     /tmp/ccj6XjNR.s:5068   .debug_str:0000000000000faf .LASF92
     /tmp/ccj6XjNR.s:4662   .debug_str:000000000000018b .LASF93
     /tmp/ccj6XjNR.s:4872   .debug_str:0000000000000917 .LASF94
     /tmp/ccj6XjNR.s:4786   .debug_str:0000000000000646 .LASF95
     /tmp/ccj6XjNR.s:4886   .debug_str:00000000000009a4 .LASF96
     /tmp/ccj6XjNR.s:4742   .debug_str:00000000000003ea .LASF97
     /tmp/ccj6XjNR.s:4756   .debug_str:0000000000000469 .LASF98
     /tmp/ccj6XjNR.s:4670   .debug_str:00000000000001ca .LASF99
     /tmp/ccj6XjNR.s:4650   .debug_str:00000000000000fc .LASF100
     /tmp/ccj6XjNR.s:5046   .debug_str:0000000000000f14 .LASF101
     /tmp/ccj6XjNR.s:4930   .debug_str:0000000000000b6e .LASF102
     /tmp/ccj6XjNR.s:5014   .debug_str:0000000000000e1b .LASF103
     /tmp/ccj6XjNR.s:4714   .debug_str:0000000000000338 .LASF104
     /tmp/ccj6XjNR.s:4694   .debug_str:00000000000002ae .LASF105
     /tmp/ccj6XjNR.s:5120   .debug_str:00000000000011bf .LASF106
     /tmp/ccj6XjNR.s:4880   .debug_str:000000000000095f .LASF107
GAS LISTING /tmp/ccj6XjNR.s 			page 36


     /tmp/ccj6XjNR.s:4768   .debug_str:00000000000004f0 .LASF108
     /tmp/ccj6XjNR.s:4922   .debug_str:0000000000000b24 .LASF109
     /tmp/ccj6XjNR.s:4772   .debug_str:0000000000000502 .LASF110
     /tmp/ccj6XjNR.s:4850   .debug_str:0000000000000855 .LASF111
     /tmp/ccj6XjNR.s:4854   .debug_str:0000000000000870 .LASF112
     /tmp/ccj6XjNR.s:4792   .debug_str:000000000000066b .LASF113
     /tmp/ccj6XjNR.s:5156   .debug_str:00000000000012c7 .LASF114
     /tmp/ccj6XjNR.s:5062   .debug_str:0000000000000f75 .LASF115
     /tmp/ccj6XjNR.s:4960   .debug_str:0000000000000c87 .LASF116
     /tmp/ccj6XjNR.s:4810   .debug_str:00000000000006f7 .LASF117
     /tmp/ccj6XjNR.s:4760   .debug_str:000000000000049d .LASF118
     /tmp/ccj6XjNR.s:5096   .debug_str:00000000000010db .LASF119
     /tmp/ccj6XjNR.s:5092   .debug_str:0000000000001088 .LASF120
     /tmp/ccj6XjNR.s:4946   .debug_str:0000000000000bef .LASF121
     /tmp/ccj6XjNR.s:4636   .debug_str:0000000000000076 .LASF122
     /tmp/ccj6XjNR.s:5114   .debug_str:0000000000001160 .LASF123
     /tmp/ccj6XjNR.s:4632   .debug_str:0000000000000040 .LASF124
     /tmp/ccj6XjNR.s:5044   .debug_str:0000000000000eff .LASF125
     /tmp/ccj6XjNR.s:4796   .debug_str:0000000000000687 .LASF126
     /tmp/ccj6XjNR.s:4624   .debug_str:0000000000000000 .LASF127
     /tmp/ccj6XjNR.s:4918   .debug_str:0000000000000ae2 .LASF128
     /tmp/ccj6XjNR.s:4750   .debug_str:0000000000000438 .LASF129
     /tmp/ccj6XjNR.s:5116   .debug_str:0000000000001176 .LASF130
     /tmp/ccj6XjNR.s:5024   .debug_str:0000000000000e5d .LASF131
     /tmp/ccj6XjNR.s:4814   .debug_str:0000000000000718 .LASF132
     /tmp/ccj6XjNR.s:4734   .debug_str:00000000000003b2 .LASF263
     /tmp/ccj6XjNR.s:5094   .debug_str:00000000000010ac .LASF264
     /tmp/ccj6XjNR.s:4776   .debug_str:000000000000051f .LASF133
     /tmp/ccj6XjNR.s:4646   .debug_str:00000000000000d2 .LASF265
     /tmp/ccj6XjNR.s:5140   .debug_str:000000000000124c .LASF266
     /tmp/ccj6XjNR.s:4664   .debug_str:000000000000019c .LASF134
     /tmp/ccj6XjNR.s:4926   .debug_str:0000000000000b47 .LASF135
     /tmp/ccj6XjNR.s:5054   .debug_str:0000000000000f3f .LASF136
     /tmp/ccj6XjNR.s:4972   .debug_str:0000000000000cf1 .LASF144
     /tmp/ccj6XjNR.s:4674   .debug_str:00000000000001e8 .LASF137
     /tmp/ccj6XjNR.s:4904   .debug_str:0000000000000a3d .LASF138
     /tmp/ccj6XjNR.s:5004   .debug_str:0000000000000dbf .LASF139
     /tmp/ccj6XjNR.s:4706   .debug_str:00000000000002ee .LASF140
     /tmp/ccj6XjNR.s:4852   .debug_str:0000000000000863 .LASF141
     /tmp/ccj6XjNR.s:4758   .debug_str:0000000000000490 .LASF267
     /tmp/ccj6XjNR.s:5106   .debug_str:0000000000001131 .LASF142
     /tmp/ccj6XjNR.s:4808   .debug_str:00000000000006ec .LASF143
     /tmp/ccj6XjNR.s:5026   .debug_str:0000000000000e6c .LASF145
     /tmp/ccj6XjNR.s:5088   .debug_str:000000000000105d .LASF146
     /tmp/ccj6XjNR.s:5128   .debug_str:00000000000011f3 .LASF147
     /tmp/ccj6XjNR.s:5010   .debug_str:0000000000000df7 .LASF148
     /tmp/ccj6XjNR.s:4980   .debug_str:0000000000000d33 .LASF149
     /tmp/ccj6XjNR.s:4712   .debug_str:0000000000000329 .LASF150
     /tmp/ccj6XjNR.s:5098   .debug_str:00000000000010e6 .LASF151
     /tmp/ccj6XjNR.s:5112   .debug_str:000000000000114c .LASF152
     /tmp/ccj6XjNR.s:5118   .debug_str:000000000000119e .LASF153
     /tmp/ccj6XjNR.s:4842   .debug_str:0000000000000820 .LASF154
     /tmp/ccj6XjNR.s:4682   .debug_str:0000000000000239 .LASF155
     /tmp/ccj6XjNR.s:4838   .debug_str:00000000000007fb .LASF156
     /tmp/ccj6XjNR.s:4874   .debug_str:000000000000091c .LASF157
     /tmp/ccj6XjNR.s:4774   .debug_str:000000000000050b .LASF158
     /tmp/ccj6XjNR.s:4888   .debug_str:00000000000009b4 .LASF159
GAS LISTING /tmp/ccj6XjNR.s 			page 37


     /tmp/ccj6XjNR.s:5066   .debug_str:0000000000000fa4 .LASF160
     /tmp/ccj6XjNR.s:4878   .debug_str:0000000000000947 .LASF161
     /tmp/ccj6XjNR.s:4790   .debug_str:0000000000000661 .LASF162
     /tmp/ccj6XjNR.s:4936   .debug_str:0000000000000bab .LASF163
     /tmp/ccj6XjNR.s:4686   .debug_str:000000000000026b .LASF164
     /tmp/ccj6XjNR.s:4860   .debug_str:000000000000089c .LASF165
     /tmp/ccj6XjNR.s:4740   .debug_str:00000000000003d3 .LASF166
     /tmp/ccj6XjNR.s:5134   .debug_str:0000000000001214 .LASF167
     /tmp/ccj6XjNR.s:4826   .debug_str:0000000000000785 .LASF168
     /tmp/ccj6XjNR.s:4784   .debug_str:0000000000000627 .LASF169
     /tmp/ccj6XjNR.s:5000   .debug_str:0000000000000da0 .LASF170
     /tmp/ccj6XjNR.s:4958   .debug_str:0000000000000c6c .LASF171
     /tmp/ccj6XjNR.s:4900   .debug_str:0000000000000a28 .LASF172
     /tmp/ccj6XjNR.s:5090   .debug_str:000000000000106e .LASF173
     /tmp/ccj6XjNR.s:5080   .debug_str:0000000000001032 .LASF174
     /tmp/ccj6XjNR.s:4964   .debug_str:0000000000000cb9 .LASF175
     /tmp/ccj6XjNR.s:5152   .debug_str:00000000000012b6 .LASF176
     /tmp/ccj6XjNR.s:4916   .debug_str:0000000000000acd .LASF177
     /tmp/ccj6XjNR.s:4700   .debug_str:00000000000002c6 .LASF178
     /tmp/ccj6XjNR.s:4950   .debug_str:0000000000000c27 .LASF179
     /tmp/ccj6XjNR.s:4908   .debug_str:0000000000000a72 .LASF180
     /tmp/ccj6XjNR.s:4984   .debug_str:0000000000000d42 .LASF181
     /tmp/ccj6XjNR.s:4656   .debug_str:000000000000014e .LASF182
     /tmp/ccj6XjNR.s:5058   .debug_str:0000000000000f57 .LASF183
     /tmp/ccj6XjNR.s:4902   .debug_str:0000000000000a35 .LASF184
     /tmp/ccj6XjNR.s:4914   .debug_str:0000000000000ab9 .LASF185
     /tmp/ccj6XjNR.s:4890   .debug_str:00000000000009d7 .LASF186
     /tmp/ccj6XjNR.s:4952   .debug_str:0000000000000c3a .LASF187
     /tmp/ccj6XjNR.s:5154   .debug_str:00000000000012bf .LASF188
     /tmp/ccj6XjNR.s:4824   .debug_str:0000000000000771 .LASF189
     /tmp/ccj6XjNR.s:4804   .debug_str:00000000000006d9 .LASF190
     /tmp/ccj6XjNR.s:5034   .debug_str:0000000000000ed3 .LASF191
     /tmp/ccj6XjNR.s:4994   .debug_str:0000000000000d7e .LASF192
     /tmp/ccj6XjNR.s:4996   .debug_str:0000000000000d91 .LASF193
     /tmp/ccj6XjNR.s:4744   .debug_str:00000000000003fc .LASF194
     /tmp/ccj6XjNR.s:4992   .debug_str:0000000000000d78 .LASF195
     /tmp/ccj6XjNR.s:4648   .debug_str:00000000000000ea .LASF196
     /tmp/ccj6XjNR.s:4822   .debug_str:000000000000076b .LASF197
     /tmp/ccj6XjNR.s:4728   .debug_str:0000000000000386 .LASF198
     /tmp/ccj6XjNR.s:4678   .debug_str:00000000000001ff .LASF199
     /tmp/ccj6XjNR.s:5078   .debug_str:0000000000001017 .LASF200
     /tmp/ccj6XjNR.s:4642   .debug_str:00000000000000bc .LASF201
     /tmp/ccj6XjNR.s:5050   .debug_str:0000000000000f1f .LASF202
     /tmp/ccj6XjNR.s:4976   .debug_str:0000000000000d1a .LASF203
     /tmp/ccj6XjNR.s:5146   .debug_str:0000000000001282 .LASF204
     /tmp/ccj6XjNR.s:4982   .debug_str:0000000000000d3b .LASF205
     /tmp/ccj6XjNR.s:4688   .debug_str:000000000000027c .LASF206
     /tmp/ccj6XjNR.s:5018   .debug_str:0000000000000e32 .LASF207
     /tmp/ccj6XjNR.s:4864   .debug_str:00000000000008d2 .LASF208
     /tmp/ccj6XjNR.s:5110   .debug_str:0000000000001142 .LASF209
     /tmp/ccj6XjNR.s:5126   .debug_str:00000000000011dd .LASF210
     /tmp/ccj6XjNR.s:5102   .debug_str:0000000000001115 .LASF211
     /tmp/ccj6XjNR.s:4834   .debug_str:00000000000007c3 .LASF212
     /tmp/ccj6XjNR.s:4724   .debug_str:0000000000000370 .LASF213
     /tmp/ccj6XjNR.s:4798   .debug_str:00000000000006b6 .LASF214
     /tmp/ccj6XjNR.s:4806   .debug_str:00000000000006e6 .LASF215
     /tmp/ccj6XjNR.s:5104   .debug_str:000000000000111f .LASF216
GAS LISTING /tmp/ccj6XjNR.s 			page 38


     /tmp/ccj6XjNR.s:4802   .debug_str:00000000000006ce .LASF217
     /tmp/ccj6XjNR.s:4812   .debug_str:0000000000000700 .LASF218
     /tmp/ccj6XjNR.s:5076   .debug_str:0000000000001008 .LASF219
     /tmp/ccj6XjNR.s:4652   .debug_str:000000000000011f .LASF220
     /tmp/ccj6XjNR.s:4942   .debug_str:0000000000000bce .LASF221
     /tmp/ccj6XjNR.s:4836   .debug_str:00000000000007d9 .LASF222
     /tmp/ccj6XjNR.s:4966   .debug_str:0000000000000cce .LASF223
     /tmp/ccj6XjNR.s:4634   .debug_str:000000000000006e .LASF224
     /tmp/ccj6XjNR.s:5150   .debug_str:00000000000012a7 .LASF225
     /tmp/ccj6XjNR.s:4858   .debug_str:0000000000000890 .LASF226
     /tmp/ccj6XjNR.s:4666   .debug_str:00000000000001ae .LASF227
     /tmp/ccj6XjNR.s:4894   .debug_str:00000000000009f4 .LASF228
     /tmp/ccj6XjNR.s:4794   .debug_str:0000000000000674 .LASF229
     /tmp/ccj6XjNR.s:5100   .debug_str:0000000000001102 .LASF230
     /tmp/ccj6XjNR.s:4684   .debug_str:0000000000000257 .LASF231
     /tmp/ccj6XjNR.s:5086   .debug_str:0000000000001053 .LASF232
     /tmp/ccj6XjNR.s:4956   .debug_str:0000000000000c63 .LASF233
     /tmp/ccj6XjNR.s:4970   .debug_str:0000000000000ce2 .LASF234
     /tmp/ccj6XjNR.s:4962   .debug_str:0000000000000ca8 .LASF235
     /tmp/ccj6XjNR.s:4974   .debug_str:0000000000000d09 .LASF236
     /tmp/ccj6XjNR.s:4866   .debug_str:00000000000008e5 .LASF237
     /tmp/ccj6XjNR.s:4954   .debug_str:0000000000000c4e .LASF238
     /tmp/ccj6XjNR.s:4892   .debug_str:00000000000009df .LASF239
     /tmp/ccj6XjNR.s:4702   .debug_str:00000000000002cd .LASF240
     /tmp/ccj6XjNR.s:971    .text:000000000000058c .LFB44
     /tmp/ccj6XjNR.s:1040   .text:00000000000005e8 .LFE44
     /tmp/ccj6XjNR.s:4322   .debug_loc:0000000000000000 .LLST27
     /tmp/ccj6XjNR.s:999    .text:00000000000005b4 .LVL80
     /tmp/ccj6XjNR.s:1002   .text:00000000000005c0 .LVL81
     /tmp/ccj6XjNR.s:1014   .text:00000000000005cc .LVL82
     /tmp/ccj6XjNR.s:857    .text:00000000000004f4 .LFB43
     /tmp/ccj6XjNR.s:965    .text:000000000000058c .LFE43
     /tmp/ccj6XjNR.s:4844   .debug_str:000000000000082f .LASF241
     /tmp/ccj6XjNR.s:4333   .debug_loc:0000000000000036 .LLST23
     /tmp/ccj6XjNR.s:4344   .debug_loc:000000000000006c .LLST24
     /tmp/ccj6XjNR.s:4658   .debug_str:0000000000000156 .LASF242
     /tmp/ccj6XjNR.s:4355   .debug_loc:00000000000000a2 .LLST25
     /tmp/ccj6XjNR.s:5132   .debug_str:000000000000120d .LASF243
     /tmp/ccj6XjNR.s:4366   .debug_loc:00000000000000d8 .LLST26
     /tmp/ccj6XjNR.s:903    .text:000000000000052c .LVL71
     /tmp/ccj6XjNR.s:912    .text:0000000000000550 .LVL72
     /tmp/ccj6XjNR.s:930    .text:0000000000000564 .LVL73
     /tmp/ccj6XjNR.s:791    .text:00000000000004b0 .LFB42
     /tmp/ccj6XjNR.s:851    .text:00000000000004f4 .LFE42
     /tmp/ccj6XjNR.s:4377   .debug_loc:000000000000010e .LLST22
     /tmp/ccj6XjNR.s:816    .text:00000000000004d0 .LVL65
     /tmp/ccj6XjNR.s:828    .text:00000000000004dc .LVL66
     /tmp/ccj6XjNR.s:672    .text:000000000000040c .LFB41
     /tmp/ccj6XjNR.s:785    .text:00000000000004b0 .LFE41
     /tmp/ccj6XjNR.s:4388   .debug_loc:0000000000000144 .LLST18
     /tmp/ccj6XjNR.s:4399   .debug_loc:000000000000017a .LLST19
     /tmp/ccj6XjNR.s:4410   .debug_loc:00000000000001b0 .LLST20
     /tmp/ccj6XjNR.s:4421   .debug_loc:00000000000001e6 .LLST21
     /tmp/ccj6XjNR.s:718    .text:0000000000000444 .LVL55
     /tmp/ccj6XjNR.s:727    .text:0000000000000468 .LVL56
     /tmp/ccj6XjNR.s:738    .text:000000000000047c .LVL57
     /tmp/ccj6XjNR.s:750    .text:0000000000000488 .LVL58
GAS LISTING /tmp/ccj6XjNR.s 			page 39


     /tmp/ccj6XjNR.s:598    .text:00000000000003a8 .LFB40
     /tmp/ccj6XjNR.s:666    .text:000000000000040c .LFE40
     /tmp/ccj6XjNR.s:4940   .debug_str:0000000000000bc9 .LASF244
     /tmp/ccj6XjNR.s:4432   .debug_loc:000000000000021c .LLST15
     /tmp/ccj6XjNR.s:629    .text:00000000000003dc .LBB22
     /tmp/ccj6XjNR.s:636    .text:00000000000003e0 .LBE22
     /tmp/ccj6XjNR.s:4439   .debug_loc:000000000000023f .LLST16
     /tmp/ccj6XjNR.s:4446   .debug_loc:0000000000000262 .LLST17
     /tmp/ccj6XjNR.s:640    .text:00000000000003e8 .LVL49
     /tmp/ccj6XjNR.s:644    .text:00000000000003f0 .LVL50
     /tmp/ccj6XjNR.s:655    .text:00000000000003fc .LVL51
     /tmp/ccj6XjNR.s:564    .text:0000000000000378 .LFB39
     /tmp/ccj6XjNR.s:592    .text:00000000000003a8 .LFE39
     /tmp/ccj6XjNR.s:581    .text:0000000000000398 .LVL45
     /tmp/ccj6XjNR.s:505    .text:000000000000032c .LFB38
     /tmp/ccj6XjNR.s:558    .text:0000000000000378 .LFE38
     /tmp/ccj6XjNR.s:524    .text:000000000000034c .LBB20
     /tmp/ccj6XjNR.s:532    .text:0000000000000354 .LBE20
     /tmp/ccj6XjNR.s:4453   .debug_loc:0000000000000285 .LLST13
     /tmp/ccj6XjNR.s:4461   .debug_loc:00000000000002a9 .LLST14
     /tmp/ccj6XjNR.s:536    .text:000000000000035c .LVL43
     /tmp/ccj6XjNR.s:547    .text:0000000000000368 .LVL44
     /tmp/ccj6XjNR.s:474    .text:0000000000000308 .LFB37
     /tmp/ccj6XjNR.s:499    .text:000000000000032c .LFE37
     /tmp/ccj6XjNR.s:4722   .debug_str:000000000000036b .LASF246
     /tmp/ccj6XjNR.s:4468   .debug_loc:00000000000002cc .LLST12
     /tmp/ccj6XjNR.s:346    .text:00000000000001e0 .LFB36
     /tmp/ccj6XjNR.s:468    .text:0000000000000308 .LFE36
     /tmp/ccj6XjNR.s:5108   .debug_str:0000000000001137 .LASF245
     /tmp/ccj6XjNR.s:4482   .debug_loc:0000000000000305 .LLST9
     /tmp/ccj6XjNR.s:385    .text:0000000000000234 .LBB18
     /tmp/ccj6XjNR.s:393    .text:000000000000023c .LBE18
     /tmp/ccj6XjNR.s:4489   .debug_loc:0000000000000328 .LLST10
     /tmp/ccj6XjNR.s:4497   .debug_loc:000000000000034c .LLST11
     /tmp/ccj6XjNR.s:365    .text:0000000000000204 .LVL26
     /tmp/ccj6XjNR.s:374    .text:0000000000000224 .LVL27
     /tmp/ccj6XjNR.s:398    .text:0000000000000248 .LVL30
     /tmp/ccj6XjNR.s:403    .text:0000000000000258 .LVL31
     /tmp/ccj6XjNR.s:413    .text:000000000000027c .LVL33
     /tmp/ccj6XjNR.s:426    .text:000000000000029c .LVL34
     /tmp/ccj6XjNR.s:431    .text:00000000000002a8 .LVL35
     /tmp/ccj6XjNR.s:436    .text:00000000000002b8 .LVL36
     /tmp/ccj6XjNR.s:445    .text:00000000000002dc .LVL37
     /tmp/ccj6XjNR.s:453    .text:00000000000002f0 .LVL38
     /tmp/ccj6XjNR.s:4638   .debug_str:00000000000000ab .LASF247
     /tmp/ccj6XjNR.s:4718   .debug_str:0000000000000353 .LASF249
     /tmp/ccj6XjNR.s:298    .text:00000000000001b4 .LFB34
     /tmp/ccj6XjNR.s:330    .text:00000000000001e0 .LFE34
     /tmp/ccj6XjNR.s:4504   .debug_loc:000000000000036f .LLST8
     /tmp/ccj6XjNR.s:318    .text:00000000000001d0 .LVL25
     /tmp/ccj6XjNR.s:262    .text:000000000000017c .LFB32
     /tmp/ccj6XjNR.s:292    .text:00000000000001b4 .LFE32
     /tmp/ccj6XjNR.s:4518   .debug_loc:00000000000003a8 .LLST7
     /tmp/ccj6XjNR.s:281    .text:00000000000001a4 .LVL22
     /tmp/ccj6XjNR.s:227    .text:0000000000000148 .LFB31
     /tmp/ccj6XjNR.s:256    .text:000000000000017c .LFE31
     /tmp/ccj6XjNR.s:4536   .debug_loc:00000000000003f4 .LLST6
GAS LISTING /tmp/ccj6XjNR.s 			page 40


     /tmp/ccj6XjNR.s:245    .text:000000000000016c .LVL19
     /tmp/ccj6XjNR.s:133    .text:00000000000000bc .LFB30
     /tmp/ccj6XjNR.s:221    .text:0000000000000148 .LFE30
     /tmp/ccj6XjNR.s:4550   .debug_loc:000000000000042d .LLST2
     /tmp/ccj6XjNR.s:153    .text:00000000000000dc .LBB13
     /tmp/ccj6XjNR.s:161    .text:00000000000000e0 .LBE13
     /tmp/ccj6XjNR.s:4561   .debug_loc:0000000000000463 .LLST3
     /tmp/ccj6XjNR.s:175    .text:00000000000000fc .LBB15
     /tmp/ccj6XjNR.s:183    .text:0000000000000104 .LBE15
     /tmp/ccj6XjNR.s:4568   .debug_loc:0000000000000486 .LLST4
     /tmp/ccj6XjNR.s:4576   .debug_loc:00000000000004aa .LLST5
     /tmp/ccj6XjNR.s:169    .text:00000000000000f0 .LVL9
     /tmp/ccj6XjNR.s:187    .text:000000000000010c .LVL12
     /tmp/ccj6XjNR.s:195    .text:0000000000000120 .LVL13
     /tmp/ccj6XjNR.s:218    .text:0000000000000144 .LVL16
     /tmp/ccj6XjNR.s:10     .text:0000000000000000 .LFB29
     /tmp/ccj6XjNR.s:48     .text:0000000000000044 .LFE29
     /tmp/ccj6XjNR.s:25     .text:0000000000000018 .LVL0
     /tmp/ccj6XjNR.s:37     .text:0000000000000034 .LVL2
     /tmp/ccj6XjNR.s:101    .text:0000000000000094 .LFB28
     /tmp/ccj6XjNR.s:127    .text:00000000000000bc .LFE28
     /tmp/ccj6XjNR.s:4583   .debug_loc:00000000000004cd .LLST1
     /tmp/ccj6XjNR.s:116    .text:00000000000000ac .LVL6
     /tmp/ccj6XjNR.s:4876   .debug_str:000000000000093b .LASF248
     /tmp/ccj6XjNR.s:4920   .debug_str:0000000000000b0c .LASF250
     /tmp/ccj6XjNR.s:54     .text:0000000000000044 .LFB26
     /tmp/ccj6XjNR.s:93     .text:0000000000000094 .LFE26
     /tmp/ccj6XjNR.s:4597   .debug_loc:0000000000000506 .LLST0
     /tmp/ccj6XjNR.s:4720   .debug_str:000000000000035f .LASF251
     /tmp/ccj6XjNR.s:5064   .debug_str:0000000000000f7f .LASF252
     /tmp/ccj6XjNR.s:4672   .debug_str:00000000000001d8 .LASF253
     /tmp/ccj6XjNR.s:5072   .debug_str:0000000000000fcf .LASF254
     /tmp/ccj6XjNR.s:4732   .debug_str:00000000000003a1 .LASF255
     /tmp/ccj6XjNR.s:4708   .debug_str:00000000000002ff .LASF256
     /tmp/ccj6XjNR.s:4764   .debug_str:00000000000004cd .LASF257
     /tmp/ccj6XjNR.s:991    .text:00000000000005a4 .LVL79
     /tmp/ccj6XjNR.s:1024   .text:00000000000005d8 .LVL83
     /tmp/ccj6XjNR.s:1028   .text:00000000000005e0 .LVL84
     /tmp/ccj6XjNR.s:891    .text:000000000000051c .LVL69
     /tmp/ccj6XjNR.s:946    .text:0000000000000578 .LVL76
     /tmp/ccj6XjNR.s:953    .text:0000000000000584 .LVL78
     /tmp/ccj6XjNR.s:897    .text:0000000000000520 .LVL70
     /tmp/ccj6XjNR.s:949    .text:000000000000057c .LVL77
     /tmp/ccj6XjNR.s:885    .text:0000000000000518 .LVL68
     /tmp/ccj6XjNR.s:943    .text:0000000000000574 .LVL75
     /tmp/ccj6XjNR.s:940    .text:0000000000000570 .LVL74
     /tmp/ccj6XjNR.s:809    .text:00000000000004c4 .LVL64
     /tmp/ccj6XjNR.s:839    .text:00000000000004ec .LVL67
     /tmp/ccj6XjNR.s:706    .text:0000000000000434 .LVL53
     /tmp/ccj6XjNR.s:766    .text:000000000000049c .LVL61
     /tmp/ccj6XjNR.s:773    .text:00000000000004a8 .LVL63
     /tmp/ccj6XjNR.s:712    .text:0000000000000438 .LVL54
     /tmp/ccj6XjNR.s:769    .text:00000000000004a0 .LVL62
     /tmp/ccj6XjNR.s:700    .text:0000000000000430 .LVL52
     /tmp/ccj6XjNR.s:763    .text:0000000000000498 .LVL60
     /tmp/ccj6XjNR.s:760    .text:0000000000000494 .LVL59
     /tmp/ccj6XjNR.s:616    .text:00000000000003bc .LVL46
GAS LISTING /tmp/ccj6XjNR.s 			page 41


     /tmp/ccj6XjNR.s:628    .text:00000000000003dc .LVL47
     /tmp/ccj6XjNR.s:634    .text:00000000000003e0 .LVL48
     /tmp/ccj6XjNR.s:523    .text:000000000000034c .LVL41
     /tmp/ccj6XjNR.s:530    .text:0000000000000354 .LVL42
     /tmp/ccj6XjNR.s:477    .text:0000000000000308 .LVL39
     /tmp/ccj6XjNR.s:487    .text:0000000000000318 .LVL40
     /tmp/ccj6XjNR.s:405    .text:000000000000025c .LVL32
     /tmp/ccj6XjNR.s:384    .text:0000000000000234 .LVL28
     /tmp/ccj6XjNR.s:391    .text:000000000000023c .LVL29
     /tmp/ccj6XjNR.s:303    .text:00000000000001b4 .LVL23
     /tmp/ccj6XjNR.s:316    .text:00000000000001c8 .LVL24
     /tmp/ccj6XjNR.s:265    .text:000000000000017c .LVL20
     /tmp/ccj6XjNR.s:279    .text:000000000000019c .LVL21
     /tmp/ccj6XjNR.s:230    .text:0000000000000148 .LVL17
     /tmp/ccj6XjNR.s:243    .text:0000000000000164 .LVL18
     /tmp/ccj6XjNR.s:151    .text:00000000000000dc .LVL7
     /tmp/ccj6XjNR.s:205    .text:000000000000012c .LVL14
     /tmp/ccj6XjNR.s:211    .text:0000000000000138 .LVL15
     /tmp/ccj6XjNR.s:159    .text:00000000000000e0 .LVL8
     /tmp/ccj6XjNR.s:174    .text:00000000000000fc .LVL10
     /tmp/ccj6XjNR.s:181    .text:0000000000000104 .LVL11
     /tmp/ccj6XjNR.s:104    .text:0000000000000094 .LVL5
     /tmp/ccj6XjNR.s:57     .text:0000000000000044 .LVL3
     /tmp/ccj6XjNR.s:75     .text:0000000000000070 .LVL4
     /tmp/ccj6XjNR.s:1080   .debug_info:0000000000000000 .Ldebug_info0
     /tmp/ccj6XjNR.s:333    .gcc_except_table:0000000000000000 .LLSDA34

UNDEFINED SYMBOLS
_ZN5Riscv10popSppSpieEv
_Z18thread_exit_kernelv
_ZN9Scheduler3putEP3PCB
_ZN9Scheduler3getEv
_ZN5Riscv14changePrivModeEv
_ZN3PCB13contextSwitchEPNS_7ContextES1_
_ZN5Riscv8pcbCacheE
_Z16kmem_cache_allocP12kmem_cache_s
_Z15kmem_cache_freeP12kmem_cache_sPv
_ZN15MemoryAllocator5kfreeEPv
__gxx_personality_v0
_Z7kmallocm
_ZN8KConsole23sendCharactersToConsoleEPv
_ZN15MemoryAllocator7kmallocEm
_ZN14PCBWrapperUser15userMainWrapperEPv
_ZN5Riscv13w_a0_sscratchEv
_ZN5Riscv9totalTimeE
_ZN12SleepPCBList17insertSleepingPCBEv
