GAS LISTING /tmp/ccPjER0C.s 			page 1


   1              		.file	"PCB.cpp"
   2              		.option pic
   3              		.option norelax
   4              		.text
   5              	.Ltext0:
   6              		.align	2
   7              		.globl	_ZN3PCB6runnerEv
   9              	_ZN3PCB6runnerEv:
  10              	.LFB29:
  11              		.file 1 "src/kernel/PCB.cpp"
   1:src/kernel/PCB.cpp **** //
   2:src/kernel/PCB.cpp **** // Created by os on 4/27/22.
   3:src/kernel/PCB.cpp **** //
   4:src/kernel/PCB.cpp **** 
   5:src/kernel/PCB.cpp **** #include "../../h/PCB.hpp"
   6:src/kernel/PCB.cpp **** #include "../../h/syscall_c.hpp"
   7:src/kernel/PCB.cpp **** #include "../../h/SleepPCBList.hpp"
   8:src/kernel/PCB.cpp **** #include "../user/test/printing.hpp"
   9:src/kernel/PCB.cpp **** #include "../../h/KConsole.hpp"
  10:src/kernel/PCB.cpp **** #include "../../h/Scheduler.hpp"
  11:src/kernel/PCB.cpp **** #include "../../h/Riscv.hpp"
  12:src/kernel/PCB.cpp **** #include "../../h/syscall_c_kernel.hpp"
  13:src/kernel/PCB.cpp **** #include "../../h/PCBWrapperUser.hpp"
  14:src/kernel/PCB.cpp **** 
  15:src/kernel/PCB.cpp **** PCB* PCB::running = 0;
  16:src/kernel/PCB.cpp **** uint64 PCB::timeSliceCounter = 0;
  17:src/kernel/PCB.cpp **** uint64 PCB::savedRegA4 = 0;
  18:src/kernel/PCB.cpp **** PCB* PCB::consolePCB = 0;
  19:src/kernel/PCB.cpp **** PCB* PCB::userPCB = 0;
  20:src/kernel/PCB.cpp **** 
  21:src/kernel/PCB.cpp **** PCB::PCB(Body body, void *args, void* stack_space, uint64 timeSlice) :
  22:src/kernel/PCB.cpp ****     timeSlice(timeSlice),
  23:src/kernel/PCB.cpp ****     body(body),
  24:src/kernel/PCB.cpp ****     args(args),
  25:src/kernel/PCB.cpp ****     beginSP(stack_space),
  26:src/kernel/PCB.cpp ****     context({
  27:src/kernel/PCB.cpp ****         (uint64)((char*)stack_space + DEFAULT_STACK_SIZE),
  28:src/kernel/PCB.cpp ****         (uint64)&PCB::runner
  29:src/kernel/PCB.cpp ****     })
  30:src/kernel/PCB.cpp **** {
  31:src/kernel/PCB.cpp ****     nextPCB = 0;
  32:src/kernel/PCB.cpp **** }
  33:src/kernel/PCB.cpp **** 
  34:src/kernel/PCB.cpp **** void PCB::start()
  35:src/kernel/PCB.cpp **** {
  36:src/kernel/PCB.cpp ****     Scheduler::put(this);
  37:src/kernel/PCB.cpp **** }
  38:src/kernel/PCB.cpp **** 
  39:src/kernel/PCB.cpp **** void PCB::runner()
  40:src/kernel/PCB.cpp **** {
  12              		.loc 1 40 1
  13              		.cfi_startproc
  14 0000 130101FF 		addi	sp,sp,-16
  15              		.cfi_def_cfa_offset 16
  16 0004 23341100 		sd	ra,8(sp)
  17 0008 23308100 		sd	s0,0(sp)
  18              		.cfi_offset 1, -8
GAS LISTING /tmp/ccPjER0C.s 			page 2


  19              		.cfi_offset 8, -16
  20 000c 13040101 		addi	s0,sp,16
  21              		.cfi_def_cfa 8, 0
  41:src/kernel/PCB.cpp ****     Riscv::popSppSpie();
  22              		.loc 1 41 5
  23              		.loc 1 41 22 is_stmt 0
  24 0010 97000000 		call	_ZN5Riscv10popSppSpieEv@plt
  24      E7800000 
  25              	.LVL0:
  42:src/kernel/PCB.cpp ****     running->body(running->args);
  26              		.loc 1 42 5 is_stmt 1
  27              		.loc 1 42 14 is_stmt 0
  28 0018 97070000 		ld	a5,.LANCHOR0
  28      83B70700 
  29 0020 03B78702 		ld	a4,40(a5)
  30              		.loc 1 42 18
  31 0024 03B50703 		ld	a0,48(a5)
  32 0028 E7000700 		jalr	a4
  33              	.LVL1:
  43:src/kernel/PCB.cpp **** 
  44:src/kernel/PCB.cpp ****     thread_exit_kernel();
  34              		.loc 1 44 5 is_stmt 1
  35              		.loc 1 44 23 is_stmt 0
  36 002c 97000000 		call	_Z18thread_exit_kernelv@plt
  36      E7800000 
  37              	.LVL2:
  45:src/kernel/PCB.cpp **** }
  38              		.loc 1 45 1
  39 0034 83308100 		ld	ra,8(sp)
  40              		.cfi_restore 1
  41 0038 03340100 		ld	s0,0(sp)
  42              		.cfi_restore 8
  43              		.cfi_def_cfa 2, 16
  44 003c 13010101 		addi	sp,sp,16
  45              		.cfi_def_cfa_offset 0
  46 0040 67800000 		jr	ra
  47              		.cfi_endproc
  48              	.LFE29:
  50              		.align	2
  51              		.globl	_ZN3PCBC2EPFvPvES0_S0_m
  53              	_ZN3PCBC2EPFvPvES0_S0_m:
  54              	.LFB26:
  21:src/kernel/PCB.cpp ****     timeSlice(timeSlice),
  55              		.loc 1 21 1 is_stmt 1
  56              		.cfi_startproc
  57              	.LVL3:
  58 0044 130101FF 		addi	sp,sp,-16
  59              		.cfi_def_cfa_offset 16
  60 0048 23348100 		sd	s0,8(sp)
  61              		.cfi_offset 8, -8
  62 004c 13040101 		addi	s0,sp,16
  63              		.cfi_def_cfa 8, 0
  64              	.LBB14:
  29:src/kernel/PCB.cpp **** {
  65              		.loc 1 29 6 is_stmt 0
  66 0050 23000500 		sb	zero,0(a0)
  67 0054 233CE500 		sd	a4,24(a0)
GAS LISTING /tmp/ccPjER0C.s 			page 3


  68 0058 23300502 		sd	zero,32(a0)
  69 005c 2334B502 		sd	a1,40(a0)
  70 0060 2338C502 		sd	a2,48(a0)
  71 0064 233CD502 		sd	a3,56(a0)
  27:src/kernel/PCB.cpp ****         (uint64)&PCB::runner
  72              		.loc 1 27 37
  73 0068 B7170000 		li	a5,4096
  74 006c B386F600 		add	a3,a3,a5
  75              	.LVL4:
  29:src/kernel/PCB.cpp **** {
  76              		.loc 1 29 6
  77 0070 2334D504 		sd	a3,72(a0)
  78 0074 97070000 		lla	a5,_ZN3PCB6runnerEv
  78      93870700 
  79 007c 2338F504 		sd	a5,80(a0)
  80 0080 230C0504 		sb	zero,88(a0)
  31:src/kernel/PCB.cpp **** }
  81              		.loc 1 31 5 is_stmt 1
  31:src/kernel/PCB.cpp **** }
  82              		.loc 1 31 13 is_stmt 0
  83 0084 23340500 		sd	zero,8(a0)
  84              	.LBE14:
  32:src/kernel/PCB.cpp **** 
  85              		.loc 1 32 1
  86 0088 03348100 		ld	s0,8(sp)
  87              		.cfi_restore 8
  88              		.cfi_def_cfa 2, 16
  89 008c 13010101 		addi	sp,sp,16
  90              		.cfi_def_cfa_offset 0
  91 0090 67800000 		jr	ra
  92              		.cfi_endproc
  93              	.LFE26:
  95              		.globl	_ZN3PCBC1EPFvPvES0_S0_m
  96              		.set	_ZN3PCBC1EPFvPvES0_S0_m,_ZN3PCBC2EPFvPvES0_S0_m
  97              		.align	2
  98              		.globl	_ZN3PCB5startEv
 100              	_ZN3PCB5startEv:
 101              	.LFB28:
  35:src/kernel/PCB.cpp ****     Scheduler::put(this);
 102              		.loc 1 35 1 is_stmt 1
 103              		.cfi_startproc
 104              	.LVL5:
 105 0094 130101FF 		addi	sp,sp,-16
 106              		.cfi_def_cfa_offset 16
 107 0098 23341100 		sd	ra,8(sp)
 108 009c 23308100 		sd	s0,0(sp)
 109              		.cfi_offset 1, -8
 110              		.cfi_offset 8, -16
 111 00a0 13040101 		addi	s0,sp,16
 112              		.cfi_def_cfa 8, 0
  36:src/kernel/PCB.cpp **** }
 113              		.loc 1 36 5
  36:src/kernel/PCB.cpp **** }
 114              		.loc 1 36 19 is_stmt 0
 115 00a4 97000000 		call	_ZN9Scheduler3putEP3PCB@plt
 115      E7800000 
 116              	.LVL6:
GAS LISTING /tmp/ccPjER0C.s 			page 4


  37:src/kernel/PCB.cpp **** 
 117              		.loc 1 37 1
 118 00ac 83308100 		ld	ra,8(sp)
 119              		.cfi_restore 1
 120 00b0 03340100 		ld	s0,0(sp)
 121              		.cfi_restore 8
 122              		.cfi_def_cfa 2, 16
 123 00b4 13010101 		addi	sp,sp,16
 124              		.cfi_def_cfa_offset 0
 125 00b8 67800000 		jr	ra
 126              		.cfi_endproc
 127              	.LFE28:
 129              		.align	2
 130              		.globl	_ZN3PCBnwEm
 132              	_ZN3PCBnwEm:
 133              	.LFB31:
  46:src/kernel/PCB.cpp **** 
  47:src/kernel/PCB.cpp **** void PCB::dispatch()
  48:src/kernel/PCB.cpp **** {
  49:src/kernel/PCB.cpp ****     PCB* old = running;
  50:src/kernel/PCB.cpp ****     if(old->getState() == PCB::RUNNING)
  51:src/kernel/PCB.cpp ****         Scheduler::put(old);
  52:src/kernel/PCB.cpp ****     else if(old->getState() == PCB::FINISHED) // TODO test it
  53:src/kernel/PCB.cpp ****         delete old;
  54:src/kernel/PCB.cpp ****     PCB::running = Scheduler::get();
  55:src/kernel/PCB.cpp ****     PCB::running->setState(PCB::RUNNING);
  56:src/kernel/PCB.cpp **** 
  57:src/kernel/PCB.cpp ****     Riscv::changePrivMode();
  58:src/kernel/PCB.cpp **** 
  59:src/kernel/PCB.cpp ****     PCB::contextSwitch(&old->context, &running->context);
  60:src/kernel/PCB.cpp **** }
  61:src/kernel/PCB.cpp **** 
  62:src/kernel/PCB.cpp **** void *PCB::operator new(size_t size) {
 134              		.loc 1 62 38 is_stmt 1
 135              		.cfi_startproc
 136              	.LVL7:
 137 00bc 130101FF 		addi	sp,sp,-16
 138              		.cfi_def_cfa_offset 16
 139 00c0 23341100 		sd	ra,8(sp)
 140 00c4 23308100 		sd	s0,0(sp)
 141              		.cfi_offset 1, -8
 142              		.cfi_offset 8, -16
 143 00c8 13040101 		addi	s0,sp,16
 144              		.cfi_def_cfa 8, 0
  63:src/kernel/PCB.cpp ****     return kmem_cache_alloc(Riscv::pcbCache);
 145              		.loc 1 63 5
 146              		.loc 1 63 28 is_stmt 0
 147 00cc 97070000 		la	a5,_ZN5Riscv8pcbCacheE
 147      83B70700 
 148 00d4 03B50700 		ld	a0,0(a5)
 149              	.LVL8:
 150 00d8 97000000 		call	_Z16kmem_cache_allocP12kmem_cache_s@plt
 150      E7800000 
 151              	.LVL9:
  64:src/kernel/PCB.cpp ****     //return MemoryAllocator::kmalloc(size);
  65:src/kernel/PCB.cpp **** }
 152              		.loc 1 65 1
GAS LISTING /tmp/ccPjER0C.s 			page 5


 153 00e0 83308100 		ld	ra,8(sp)
 154              		.cfi_restore 1
 155 00e4 03340100 		ld	s0,0(sp)
 156              		.cfi_restore 8
 157              		.cfi_def_cfa 2, 16
 158 00e8 13010101 		addi	sp,sp,16
 159              		.cfi_def_cfa_offset 0
 160 00ec 67800000 		jr	ra
 161              		.cfi_endproc
 162              	.LFE31:
 164              		.align	2
 165              		.globl	_ZN3PCBdlEPv
 167              	_ZN3PCBdlEPv:
 168              	.LFB32:
  66:src/kernel/PCB.cpp **** 
  67:src/kernel/PCB.cpp **** void PCB::operator delete(void *p) {
 169              		.loc 1 67 36 is_stmt 1
 170              		.cfi_startproc
 171              	.LVL10:
 172 00f0 130101FF 		addi	sp,sp,-16
 173              		.cfi_def_cfa_offset 16
 174 00f4 23341100 		sd	ra,8(sp)
 175 00f8 23308100 		sd	s0,0(sp)
 176              		.cfi_offset 1, -8
 177              		.cfi_offset 8, -16
 178 00fc 13040101 		addi	s0,sp,16
 179              		.cfi_def_cfa 8, 0
 180 0100 93050500 		mv	a1,a0
  68:src/kernel/PCB.cpp ****     kmem_cache_free(Riscv::pcbCache, p);
 181              		.loc 1 68 5
 182              		.loc 1 68 20 is_stmt 0
 183 0104 97070000 		la	a5,_ZN5Riscv8pcbCacheE
 183      83B70700 
 184 010c 03B50700 		ld	a0,0(a5)
 185              	.LVL11:
 186 0110 97000000 		call	_Z15kmem_cache_freeP12kmem_cache_sPv@plt
 186      E7800000 
 187              	.LVL12:
  69:src/kernel/PCB.cpp ****     //MemoryAllocator::kfree(p);
  70:src/kernel/PCB.cpp **** }
 188              		.loc 1 70 1
 189 0118 83308100 		ld	ra,8(sp)
 190              		.cfi_restore 1
 191 011c 03340100 		ld	s0,0(sp)
 192              		.cfi_restore 8
 193              		.cfi_def_cfa 2, 16
 194 0120 13010101 		addi	sp,sp,16
 195              		.cfi_def_cfa_offset 0
 196 0124 67800000 		jr	ra
 197              		.cfi_endproc
 198              	.LFE32:
 200              		.align	2
 201              		.globl	_ZN3PCBD2Ev
 203              	_ZN3PCBD2Ev:
 204              	.LFB34:
  71:src/kernel/PCB.cpp **** 
  72:src/kernel/PCB.cpp **** PCB::~PCB()
GAS LISTING /tmp/ccPjER0C.s 			page 6


 205              		.loc 1 72 1 is_stmt 1
 206              		.cfi_startproc
 207              		.cfi_personality 0x9b,DW.ref.__gxx_personality_v0
 208              		.cfi_lsda 0x1b,.LLSDA34
 209              	.LVL13:
 210 0128 130101FF 		addi	sp,sp,-16
 211              		.cfi_def_cfa_offset 16
 212 012c 23341100 		sd	ra,8(sp)
 213 0130 23308100 		sd	s0,0(sp)
 214              		.cfi_offset 1, -8
 215              		.cfi_offset 8, -16
 216 0134 13040101 		addi	s0,sp,16
 217              		.cfi_def_cfa 8, 0
 218              	.LBB15:
  73:src/kernel/PCB.cpp **** {
  74:src/kernel/PCB.cpp ****     MemoryAllocator::kfree(beginSP);
 219              		.loc 1 74 5
 220              		.loc 1 74 27 is_stmt 0
 221 0138 03358503 		ld	a0,56(a0)
 222              	.LVL14:
 223 013c 97000000 		call	_ZN15MemoryAllocator5kfreeEPv@plt
 223      E7800000 
 224              	.LVL15:
 225              	.LBE15:
  75:src/kernel/PCB.cpp **** }
 226              		.loc 1 75 1
 227 0144 83308100 		ld	ra,8(sp)
 228              		.cfi_restore 1
 229 0148 03340100 		ld	s0,0(sp)
 230              		.cfi_restore 8
 231              		.cfi_def_cfa 2, 16
 232 014c 13010101 		addi	sp,sp,16
 233              		.cfi_def_cfa_offset 0
 234 0150 67800000 		jr	ra
 235              		.cfi_endproc
 236              	.LFE34:
 237              		.globl	__gxx_personality_v0
 238              		.section	.gcc_except_table,"a",@progbits
 239              	.LLSDA34:
 240 0000 FF       		.byte	0xff
 241 0001 FF       		.byte	0xff
 242 0002 03       		.byte	0x3
 243 0003 00       		.byte	0
 244              		.text
 246              		.globl	_ZN3PCBD1Ev
 247              		.set	_ZN3PCBD1Ev,_ZN3PCBD2Ev
 248              		.align	2
 249              		.globl	_ZN3PCB8dispatchEv
 251              	_ZN3PCB8dispatchEv:
 252              	.LFB30:
  48:src/kernel/PCB.cpp ****     PCB* old = running;
 253              		.loc 1 48 1 is_stmt 1
 254              		.cfi_startproc
 255 0154 130101FE 		addi	sp,sp,-32
 256              		.cfi_def_cfa_offset 32
 257 0158 233C1100 		sd	ra,24(sp)
 258 015c 23388100 		sd	s0,16(sp)
GAS LISTING /tmp/ccPjER0C.s 			page 7


 259 0160 23349100 		sd	s1,8(sp)
 260 0164 23302101 		sd	s2,0(sp)
 261              		.cfi_offset 1, -8
 262              		.cfi_offset 8, -16
 263              		.cfi_offset 9, -24
 264              		.cfi_offset 18, -32
 265 0168 13040102 		addi	s0,sp,32
 266              		.cfi_def_cfa 8, 0
  49:src/kernel/PCB.cpp ****     if(old->getState() == PCB::RUNNING)
 267              		.loc 1 49 5
  49:src/kernel/PCB.cpp ****     if(old->getState() == PCB::RUNNING)
 268              		.loc 1 49 10 is_stmt 0
 269 016c 97040000 		ld	s1,.LANCHOR0
 269      83B40400 
 270              	.LVL16:
  50:src/kernel/PCB.cpp ****         Scheduler::put(old);
 271              		.loc 1 50 5 is_stmt 1
 272              	.LBB16:
 273              	.LBB17:
 274              		.file 2 "src/kernel/../../h/PCB.hpp"
   1:src/kernel/../../h/PCB.hpp **** //
   2:src/kernel/../../h/PCB.hpp **** // Created by os on 4/27/22.
   3:src/kernel/../../h/PCB.hpp **** //
   4:src/kernel/../../h/PCB.hpp **** 
   5:src/kernel/../../h/PCB.hpp **** #ifndef PROJECT_BASE_V1_0_PCB_HPP
   6:src/kernel/../../h/PCB.hpp **** #define PROJECT_BASE_V1_0_PCB_HPP
   7:src/kernel/../../h/PCB.hpp **** 
   8:src/kernel/../../h/PCB.hpp **** #include "../lib/hw.h"
   9:src/kernel/../../h/PCB.hpp **** 
  10:src/kernel/../../h/PCB.hpp **** class PCB
  11:src/kernel/../../h/PCB.hpp **** {
  12:src/kernel/../../h/PCB.hpp **** private:
  13:src/kernel/../../h/PCB.hpp ****     static uint64 savedRegA4;
  14:src/kernel/../../h/PCB.hpp **** 
  15:src/kernel/../../h/PCB.hpp ****     using Body = void (*)(void*);
  16:src/kernel/../../h/PCB.hpp **** 
  17:src/kernel/../../h/PCB.hpp ****     PCB(Body body,  void* args, void* stack_space, uint64 timeSlice);
  18:src/kernel/../../h/PCB.hpp ****     ~PCB();
  19:src/kernel/../../h/PCB.hpp **** 
  20:src/kernel/../../h/PCB.hpp ****     void start();
  21:src/kernel/../../h/PCB.hpp ****     static void dispatch();
  22:src/kernel/../../h/PCB.hpp **** 
  23:src/kernel/../../h/PCB.hpp ****     static PCB* running;
  24:src/kernel/../../h/PCB.hpp **** 
  25:src/kernel/../../h/PCB.hpp ****     static uint64 timeSliceCounter;
  26:src/kernel/../../h/PCB.hpp ****     uint64 getTimeSlice() { return timeSlice;}
  27:src/kernel/../../h/PCB.hpp **** 
  28:src/kernel/../../h/PCB.hpp ****     void* operator new(size_t size);
  29:src/kernel/../../h/PCB.hpp ****     void operator delete(void *p);
  30:src/kernel/../../h/PCB.hpp **** 
  31:src/kernel/../../h/PCB.hpp ****     enum State{READY, RUNNING, SUSPENDED, FINISHED, EXITING, SLEEPING};
  32:src/kernel/../../h/PCB.hpp ****     State getState() {return state;}
 275              		.loc 2 32 23
 276              		.loc 2 32 30 is_stmt 0
 277 0174 83A70404 		lw	a5,64(s1)
 278              	.LVL17:
 279              	.LBE17:
GAS LISTING /tmp/ccPjER0C.s 			page 8


 280              	.LBE16:
  50:src/kernel/PCB.cpp ****         Scheduler::put(old);
 281              		.loc 1 50 5
 282 0178 13071000 		li	a4,1
 283 017c 638EE704 		beq	a5,a4,.L17
  52:src/kernel/PCB.cpp ****         delete old;
 284              		.loc 1 52 10 is_stmt 1
 285              	.LVL18:
 286              		.loc 2 32 23
  52:src/kernel/PCB.cpp ****         delete old;
 287              		.loc 1 52 10 is_stmt 0
 288 0180 13073000 		li	a4,3
 289 0184 6382E706 		beq	a5,a4,.L18
 290              	.L15:
  54:src/kernel/PCB.cpp ****     PCB::running->setState(PCB::RUNNING);
 291              		.loc 1 54 5 is_stmt 1
  54:src/kernel/PCB.cpp ****     PCB::running->setState(PCB::RUNNING);
 292              		.loc 1 54 34 is_stmt 0
 293 0188 97000000 		call	_ZN9Scheduler3getEv@plt
 293      E7800000 
 294              	.LVL19:
  54:src/kernel/PCB.cpp ****     PCB::running->setState(PCB::RUNNING);
 295              		.loc 1 54 18
 296 0190 17090000 		lla	s2,.LANCHOR0
 296      13090900 
 297 0198 2330A900 		sd	a0,0(s2)
  55:src/kernel/PCB.cpp **** 
 298              		.loc 1 55 5 is_stmt 1
 299              	.LVL20:
 300              	.LBB18:
 301              	.LBB19:
  33:src/kernel/../../h/PCB.hpp ****     void setState(State s) {state = s;}
 302              		.loc 2 33 29
 303              		.loc 2 33 35 is_stmt 0
 304 019c 93071000 		li	a5,1
 305 01a0 2320F504 		sw	a5,64(a0)
 306              	.LVL21:
 307              	.LBE19:
 308              	.LBE18:
  57:src/kernel/PCB.cpp **** 
 309              		.loc 1 57 5 is_stmt 1
  57:src/kernel/PCB.cpp **** 
 310              		.loc 1 57 26 is_stmt 0
 311 01a4 97000000 		call	_ZN5Riscv14changePrivModeEv@plt
 311      E7800000 
 312              	.LVL22:
  59:src/kernel/PCB.cpp **** }
 313              		.loc 1 59 5 is_stmt 1
  59:src/kernel/PCB.cpp **** }
 314              		.loc 1 59 49 is_stmt 0
 315 01ac 83350900 		ld	a1,0(s2)
  59:src/kernel/PCB.cpp **** }
 316              		.loc 1 59 23
 317 01b0 93858504 		addi	a1,a1,72
 318 01b4 13858404 		addi	a0,s1,72
 319 01b8 97000000 		call	_ZN3PCB13contextSwitchEPNS_7ContextES1_@plt
 319      E7800000 
GAS LISTING /tmp/ccPjER0C.s 			page 9


 320              	.LVL23:
  60:src/kernel/PCB.cpp **** 
 321              		.loc 1 60 1
 322 01c0 83308101 		ld	ra,24(sp)
 323              		.cfi_remember_state
 324              		.cfi_restore 1
 325 01c4 03340101 		ld	s0,16(sp)
 326              		.cfi_restore 8
 327              		.cfi_def_cfa 2, 32
 328 01c8 83348100 		ld	s1,8(sp)
 329              		.cfi_restore 9
 330              	.LVL24:
 331 01cc 03390100 		ld	s2,0(sp)
 332              		.cfi_restore 18
 333 01d0 13010102 		addi	sp,sp,32
 334              		.cfi_def_cfa_offset 0
 335 01d4 67800000 		jr	ra
 336              	.LVL25:
 337              	.L17:
 338              		.cfi_restore_state
  51:src/kernel/PCB.cpp ****     else if(old->getState() == PCB::FINISHED) // TODO test it
 339              		.loc 1 51 9 is_stmt 1
  51:src/kernel/PCB.cpp ****     else if(old->getState() == PCB::FINISHED) // TODO test it
 340              		.loc 1 51 23 is_stmt 0
 341 01d8 13850400 		mv	a0,s1
 342 01dc 97000000 		call	_ZN9Scheduler3putEP3PCB@plt
 342      E7800000 
 343              	.LVL26:
 344 01e4 6FF05FFA 		j	.L15
 345              	.L18:
  53:src/kernel/PCB.cpp ****     PCB::running = Scheduler::get();
 346              		.loc 1 53 9 is_stmt 1
  53:src/kernel/PCB.cpp ****     PCB::running = Scheduler::get();
 347              		.loc 1 53 19 is_stmt 0
 348 01e8 E38004FA 		beqz	s1,.L15
  53:src/kernel/PCB.cpp ****     PCB::running = Scheduler::get();
 349              		.loc 1 53 16 discriminator 1
 350 01ec 13850400 		mv	a0,s1
 351 01f0 97000000 		call	_ZN3PCBD1Ev
 351      E7800000 
 352              	.LVL27:
 353 01f8 13850400 		mv	a0,s1
 354 01fc 97000000 		call	_ZN3PCBdlEPv
 354      E7800000 
 355              	.LVL28:
 356 0204 6FF05FF8 		j	.L15
 357              		.cfi_endproc
 358              	.LFE30:
 360              		.align	2
 361              		.globl	_ZN3PCB10initializeEv
 363              	_ZN3PCB10initializeEv:
 364              	.LFB36:
  76:src/kernel/PCB.cpp **** 
  77:src/kernel/PCB.cpp **** void PCB::initialize()
  78:src/kernel/PCB.cpp **** {
 365              		.loc 1 78 1 is_stmt 1
 366              		.cfi_startproc
GAS LISTING /tmp/ccPjER0C.s 			page 10


 367 0208 130101FE 		addi	sp,sp,-32
 368              		.cfi_def_cfa_offset 32
 369 020c 233C1100 		sd	ra,24(sp)
 370 0210 23388100 		sd	s0,16(sp)
 371 0214 23349100 		sd	s1,8(sp)
 372 0218 23302101 		sd	s2,0(sp)
 373              		.cfi_offset 1, -8
 374              		.cfi_offset 8, -16
 375              		.cfi_offset 9, -24
 376              		.cfi_offset 18, -32
 377 021c 13040102 		addi	s0,sp,32
 378              		.cfi_def_cfa 8, 0
  79:src/kernel/PCB.cpp ****     PCB* mainSystem = new PCB(0, 0, 0, 0);
 379              		.loc 1 79 5
 380              		.loc 1 79 41 is_stmt 0
 381 0220 13050006 		li	a0,96
 382 0224 97000000 		call	_ZN3PCBnwEm
 382      E7800000 
 383              	.LVL29:
 384 022c 93040500 		mv	s1,a0
 385 0230 630E0500 		beqz	a0,.L20
 386              		.loc 1 79 41 discriminator 1
 387 0234 13070000 		li	a4,0
 388 0238 93060000 		li	a3,0
 389 023c 13060000 		li	a2,0
 390 0240 93050000 		li	a1,0
 391 0244 97000000 		call	_ZN3PCBC1EPFvPvES0_S0_m
 391      E7800000 
 392              	.LVL30:
 393              	.L20:
  80:src/kernel/PCB.cpp ****     mainSystem->systemThread = true;
 394              		.loc 1 80 5 is_stmt 1 discriminator 4
 395              		.loc 1 80 30 is_stmt 0 discriminator 4
 396 024c 93071000 		li	a5,1
 397 0250 2380F400 		sb	a5,0(s1)
  81:src/kernel/PCB.cpp ****     PCB::running = mainSystem;
 398              		.loc 1 81 5 is_stmt 1 discriminator 4
 399              		.loc 1 81 18 is_stmt 0 discriminator 4
 400 0254 97070000 		sd	s1,.LANCHOR0,a5
 400      23B09700 
  82:src/kernel/PCB.cpp ****     PCB::running->setState(PCB::RUNNING);
 401              		.loc 1 82 5 is_stmt 1 discriminator 4
 402              	.LVL31:
 403              	.LBB20:
 404              	.LBB21:
 405              		.loc 2 33 29 discriminator 4
 406              		.loc 2 33 35 is_stmt 0 discriminator 4
 407 025c 93071000 		li	a5,1
 408 0260 23A0F404 		sw	a5,64(s1)
 409              	.LVL32:
 410              	.LBE21:
 411              	.LBE20:
  83:src/kernel/PCB.cpp ****     PCB::consolePCB = new PCB(&KConsole::sendCharactersToConsole, 0,
 412              		.loc 1 83 5 is_stmt 1 discriminator 4
  84:src/kernel/PCB.cpp ****                               kmalloc(DEFAULT_STACK_SIZE),
 413              		.loc 1 84 38 is_stmt 0 discriminator 4
 414 0264 37150000 		li	a0,4096
GAS LISTING /tmp/ccPjER0C.s 			page 11


 415 0268 97000000 		call	_Z7kmallocm@plt
 415      E7800000 
 416              	.LVL33:
 417 0270 13090500 		mv	s2,a0
  85:src/kernel/PCB.cpp **** //                              MemoryAllocator::kmalloc(DEFAULT_STACK_SIZE),
  86:src/kernel/PCB.cpp ****                               DEFAULT_TIME_SLICE);
 418              		.loc 1 86 49 discriminator 4
 419 0274 13050006 		li	a0,96
 420 0278 97000000 		call	_ZN3PCBnwEm
 420      E7800000 
 421              	.LVL34:
 422 0280 93040500 		mv	s1,a0
 423              	.LVL35:
 424 0284 63000502 		beqz	a0,.L21
 425              		.loc 1 86 49 discriminator 1
 426 0288 13072000 		li	a4,2
 427 028c 93060900 		mv	a3,s2
 428 0290 13060000 		li	a2,0
 429 0294 97050000 		la	a1,_ZN8KConsole23sendCharactersToConsoleEPv
 429      83B50500 
 430 029c 97000000 		call	_ZN3PCBC1EPFvPvES0_S0_m
 430      E7800000 
 431              	.LVL36:
 432              	.L21:
  83:src/kernel/PCB.cpp ****                               kmalloc(DEFAULT_STACK_SIZE),
 433              		.loc 1 83 21
 434 02a4 97070000 		lla	a5,.LANCHOR0
 434      93870700 
 435 02ac 23B49700 		sd	s1,8(a5)
  87:src/kernel/PCB.cpp ****     PCB::consolePCB->systemThread = true;
 436              		.loc 1 87 5 is_stmt 1
 437              		.loc 1 87 35 is_stmt 0
 438 02b0 13071000 		li	a4,1
 439 02b4 2380E400 		sb	a4,0(s1)
  88:src/kernel/PCB.cpp ****     PCB::consolePCB->start();
 440              		.loc 1 88 5 is_stmt 1
 441              		.loc 1 88 27 is_stmt 0
 442 02b8 03B58700 		ld	a0,8(a5)
 443 02bc 97000000 		call	_ZN3PCB5startEv
 443      E7800000 
 444              	.LVL37:
  89:src/kernel/PCB.cpp ****     PCB::userPCB = new PCB(&PCBWrapperUser::userMainWrapper, 0,
 445              		.loc 1 89 5 is_stmt 1
  90:src/kernel/PCB.cpp **** //                           kmalloc(DEFAULT_STACK_SIZE),
  91:src/kernel/PCB.cpp ****                            MemoryAllocator::kmalloc(DEFAULT_STACK_SIZE),
 446              		.loc 1 91 52 is_stmt 0
 447 02c4 37150000 		li	a0,4096
 448 02c8 97000000 		call	_ZN15MemoryAllocator7kmallocEm@plt
 448      E7800000 
 449              	.LVL38:
 450 02d0 13090500 		mv	s2,a0
  92:src/kernel/PCB.cpp ****                            DEFAULT_TIME_SLICE);
 451              		.loc 1 92 46
 452 02d4 13050006 		li	a0,96
 453 02d8 97000000 		call	_ZN3PCBnwEm
 453      E7800000 
 454              	.LVL39:
GAS LISTING /tmp/ccPjER0C.s 			page 12


 455 02e0 93040500 		mv	s1,a0
 456 02e4 63000502 		beqz	a0,.L22
 457              		.loc 1 92 46 discriminator 1
 458 02e8 13072000 		li	a4,2
 459 02ec 93060900 		mv	a3,s2
 460 02f0 13060000 		li	a2,0
 461 02f4 97050000 		la	a1,_ZN14PCBWrapperUser15userMainWrapperEPv
 461      83B50500 
 462 02fc 97000000 		call	_ZN3PCBC1EPFvPvES0_S0_m
 462      E7800000 
 463              	.LVL40:
 464              	.L22:
  89:src/kernel/PCB.cpp ****     PCB::userPCB = new PCB(&PCBWrapperUser::userMainWrapper, 0,
 465              		.loc 1 89 18
 466 0304 97070000 		sd	s1,.LANCHOR0+16,a5
 466      23B09700 
  93:src/kernel/PCB.cpp ****     PCB::userPCB->start();
 467              		.loc 1 93 5 is_stmt 1
 468              		.loc 1 93 24 is_stmt 0
 469 030c 13850400 		mv	a0,s1
 470 0310 97000000 		call	_ZN3PCB5startEv
 470      E7800000 
 471              	.LVL41:
  94:src/kernel/PCB.cpp **** }
 472              		.loc 1 94 1
 473 0318 83308101 		ld	ra,24(sp)
 474              		.cfi_restore 1
 475 031c 03340101 		ld	s0,16(sp)
 476              		.cfi_restore 8
 477              		.cfi_def_cfa 2, 32
 478 0320 83348100 		ld	s1,8(sp)
 479              		.cfi_restore 9
 480 0324 03390100 		ld	s2,0(sp)
 481              		.cfi_restore 18
 482 0328 13010102 		addi	sp,sp,32
 483              		.cfi_def_cfa_offset 0
 484 032c 67800000 		jr	ra
 485              		.cfi_endproc
 486              	.LFE36:
 488              		.align	2
 489              		.globl	_ZN3PCB10isFinishedEv
 491              	_ZN3PCB10isFinishedEv:
 492              	.LFB37:
  95:src/kernel/PCB.cpp **** 
  96:src/kernel/PCB.cpp **** bool PCB::isFinished()
  97:src/kernel/PCB.cpp **** {
 493              		.loc 1 97 1 is_stmt 1
 494              		.cfi_startproc
 495              	.LVL42:
 496 0330 130101FF 		addi	sp,sp,-16
 497              		.cfi_def_cfa_offset 16
 498 0334 23348100 		sd	s0,8(sp)
 499              		.cfi_offset 8, -8
 500 0338 13040101 		addi	s0,sp,16
 501              		.cfi_def_cfa 8, 0
  98:src/kernel/PCB.cpp ****     return state == PCB::FINISHED;
 502              		.loc 1 98 5
GAS LISTING /tmp/ccPjER0C.s 			page 13


 503              		.loc 1 98 12 is_stmt 0
 504 033c 03250504 		lw	a0,64(a0)
 505              	.LVL43:
 506              		.loc 1 98 26
 507 0340 1305D5FF 		addi	a0,a0,-3
  99:src/kernel/PCB.cpp **** }
 508              		.loc 1 99 1
 509 0344 13351500 		seqz	a0,a0
 510 0348 03348100 		ld	s0,8(sp)
 511              		.cfi_restore 8
 512              		.cfi_def_cfa 2, 16
 513 034c 13010101 		addi	sp,sp,16
 514              		.cfi_def_cfa_offset 0
 515 0350 67800000 		jr	ra
 516              		.cfi_endproc
 517              	.LFE37:
 519              		.align	2
 520              		.globl	_ZN3PCB17threadExitHandlerEv
 522              	_ZN3PCB17threadExitHandlerEv:
 523              	.LFB38:
 100:src/kernel/PCB.cpp **** 
 101:src/kernel/PCB.cpp **** void PCB::threadExitHandler()
 102:src/kernel/PCB.cpp **** {
 524              		.loc 1 102 1 is_stmt 1
 525              		.cfi_startproc
 526 0354 130101FF 		addi	sp,sp,-16
 527              		.cfi_def_cfa_offset 16
 528 0358 23341100 		sd	ra,8(sp)
 529 035c 23308100 		sd	s0,0(sp)
 530              		.cfi_offset 1, -8
 531              		.cfi_offset 8, -16
 532 0360 13040101 		addi	s0,sp,16
 533              		.cfi_def_cfa 8, 0
 103:src/kernel/PCB.cpp ****     PCB::timeSliceCounter = 0;
 534              		.loc 1 103 5
 535              		.loc 1 103 27 is_stmt 0
 536 0364 97070000 		lla	a5,.LANCHOR0
 536      93870700 
 537 036c 23BC0700 		sd	zero,24(a5)
 104:src/kernel/PCB.cpp ****     PCB::running->setState(PCB::FINISHED);
 538              		.loc 1 104 5 is_stmt 1
 539              		.loc 1 104 27 is_stmt 0
 540 0370 83B70700 		ld	a5,0(a5)
 541              	.LVL44:
 542              	.LBB22:
 543              	.LBB23:
 544              		.loc 2 33 29 is_stmt 1
 545              		.loc 2 33 35 is_stmt 0
 546 0374 13073000 		li	a4,3
 547 0378 23A0E704 		sw	a4,64(a5)
 548              	.LVL45:
 549              	.LBE23:
 550              	.LBE22:
 105:src/kernel/PCB.cpp ****     PCB::dispatch();
 551              		.loc 1 105 5 is_stmt 1
 552              		.loc 1 105 18 is_stmt 0
 553 037c 97000000 		call	_ZN3PCB8dispatchEv
GAS LISTING /tmp/ccPjER0C.s 			page 14


 553      E7800000 
 554              	.LVL46:
 106:src/kernel/PCB.cpp ****     __asm__ volatile("li a0, 0");
 555              		.loc 1 106 5 is_stmt 1
 556              		.loc 1 106 33 is_stmt 0
 557              	#APP
 558              	# 106 "src/kernel/PCB.cpp" 1
 107              	    Riscv::w_a0_sscratch();
 559              		li a0, 0
 560              	# 0 "" 2
 561              		.loc 1 107 5 is_stmt 1
 562              		.loc 1 107 25 is_stmt 0
 563              	#NO_APP
 564 0388 97000000 		call	_ZN5Riscv13w_a0_sscratchEv@plt
 564      E7800000 
 565              	.LVL47:
 108:src/kernel/PCB.cpp **** }
 566              		.loc 1 108 1
 567 0390 83308100 		ld	ra,8(sp)
 568              		.cfi_restore 1
 569 0394 03340100 		ld	s0,0(sp)
 570              		.cfi_restore 8
 571              		.cfi_def_cfa 2, 16
 572 0398 13010101 		addi	sp,sp,16
 573              		.cfi_def_cfa_offset 0
 574 039c 67800000 		jr	ra
 575              		.cfi_endproc
 576              	.LFE38:
 578              		.align	2
 579              		.globl	_ZN3PCB21threadDispatchHandlerEv
 581              	_ZN3PCB21threadDispatchHandlerEv:
 582              	.LFB39:
 109:src/kernel/PCB.cpp **** 
 110:src/kernel/PCB.cpp **** void PCB::threadDispatchHandler()
 111:src/kernel/PCB.cpp **** {
 583              		.loc 1 111 1 is_stmt 1
 584              		.cfi_startproc
 585 03a0 130101FF 		addi	sp,sp,-16
 586              		.cfi_def_cfa_offset 16
 587 03a4 23341100 		sd	ra,8(sp)
 588 03a8 23308100 		sd	s0,0(sp)
 589              		.cfi_offset 1, -8
 590              		.cfi_offset 8, -16
 591 03ac 13040101 		addi	s0,sp,16
 592              		.cfi_def_cfa 8, 0
 112:src/kernel/PCB.cpp ****     PCB::timeSliceCounter = 0;
 593              		.loc 1 112 5
 594              		.loc 1 112 27 is_stmt 0
 595 03b0 97070000 		sd	zero,.LANCHOR0+24,a5
 595      23B00700 
 113:src/kernel/PCB.cpp ****     PCB::dispatch();
 596              		.loc 1 113 5 is_stmt 1
 597              		.loc 1 113 18 is_stmt 0
 598 03b8 97000000 		call	_ZN3PCB8dispatchEv
 598      E7800000 
 599              	.LVL48:
 114:src/kernel/PCB.cpp **** }
GAS LISTING /tmp/ccPjER0C.s 			page 15


 600              		.loc 1 114 1
 601 03c0 83308100 		ld	ra,8(sp)
 602              		.cfi_restore 1
 603 03c4 03340100 		ld	s0,0(sp)
 604              		.cfi_restore 8
 605              		.cfi_def_cfa 2, 16
 606 03c8 13010101 		addi	sp,sp,16
 607              		.cfi_def_cfa_offset 0
 608 03cc 67800000 		jr	ra
 609              		.cfi_endproc
 610              	.LFE39:
 612              		.align	2
 613              		.globl	_ZN3PCB18threadSleepHandlerEv
 615              	_ZN3PCB18threadSleepHandlerEv:
 616              	.LFB40:
 115:src/kernel/PCB.cpp **** 
 116:src/kernel/PCB.cpp **** void PCB::threadSleepHandler()
 117:src/kernel/PCB.cpp **** {
 617              		.loc 1 117 1 is_stmt 1
 618              		.cfi_startproc
 619 03d0 130101FF 		addi	sp,sp,-16
 620              		.cfi_def_cfa_offset 16
 621 03d4 23341100 		sd	ra,8(sp)
 622 03d8 23308100 		sd	s0,0(sp)
 623              		.cfi_offset 1, -8
 624              		.cfi_offset 8, -16
 625 03dc 13040101 		addi	s0,sp,16
 626              		.cfi_def_cfa 8, 0
 118:src/kernel/PCB.cpp ****     uint64 time;
 627              		.loc 1 118 5
 119:src/kernel/PCB.cpp ****     __asm__ volatile("mv %0, a1" : "=r"(time));
 628              		.loc 1 119 5
 629              		.loc 1 119 47 is_stmt 0
 630              	#APP
 631              	# 119 "src/kernel/PCB.cpp" 1
 120              	    PCB::timeSliceCounter = 0;
 632              		mv a5, a1
 633              	# 0 "" 2
 634              	.LVL49:
 635              		.loc 1 120 5 is_stmt 1
 636              		.loc 1 120 27 is_stmt 0
 637              	#NO_APP
 638 03e4 17070000 		lla	a4,.LANCHOR0
 638      13070700 
 639 03ec 233C0700 		sd	zero,24(a4)
 121:src/kernel/PCB.cpp ****     PCB::running->setTimeToSleep(time + Riscv::totalTime);
 640              		.loc 1 121 5 is_stmt 1
 641              		.loc 1 121 33 is_stmt 0
 642 03f0 03370700 		ld	a4,0(a4)
 643 03f4 97060000 		la	a3,_ZN5Riscv9totalTimeE
 643      83B60600 
 644 03fc 83B60600 		ld	a3,0(a3)
 645 0400 B387D700 		add	a5,a5,a3
 646              	.LVL50:
 647              	.LBB24:
 648              	.LBB25:
  34:src/kernel/../../h/PCB.hpp ****     void setTimeToSleep(uint64 time) {timeToSleep = time;}
GAS LISTING /tmp/ccPjER0C.s 			page 16


 649              		.loc 2 34 39 is_stmt 1
 650              		.loc 2 34 51 is_stmt 0
 651 0404 2330F702 		sd	a5,32(a4)
 652              	.LVL51:
 653              	.LBE25:
 654              	.LBE24:
 122:src/kernel/PCB.cpp ****     SleepPCBList::insertSleepingPCB();
 655              		.loc 1 122 5 is_stmt 1
 656              		.loc 1 122 36 is_stmt 0
 657 0408 97000000 		call	_ZN12SleepPCBList17insertSleepingPCBEv@plt
 657      E7800000 
 658              	.LVL52:
 123:src/kernel/PCB.cpp ****     PCB::dispatch();
 659              		.loc 1 123 5 is_stmt 1
 660              		.loc 1 123 18 is_stmt 0
 661 0410 97000000 		call	_ZN3PCB8dispatchEv
 661      E7800000 
 662              	.LVL53:
 124:src/kernel/PCB.cpp ****     __asm__ volatile("li a0, 0x0");
 663              		.loc 1 124 5 is_stmt 1
 664              		.loc 1 124 35 is_stmt 0
 665              	#APP
 666              	# 124 "src/kernel/PCB.cpp" 1
 125              	    Riscv::w_a0_sscratch();
 667              		li a0, 0x0
 668              	# 0 "" 2
 669              		.loc 1 125 5 is_stmt 1
 670              		.loc 1 125 25 is_stmt 0
 671              	#NO_APP
 672 041c 97000000 		call	_ZN5Riscv13w_a0_sscratchEv@plt
 672      E7800000 
 673              	.LVL54:
 126:src/kernel/PCB.cpp **** }
 674              		.loc 1 126 1
 675 0424 83308100 		ld	ra,8(sp)
 676              		.cfi_restore 1
 677 0428 03340100 		ld	s0,0(sp)
 678              		.cfi_restore 8
 679              		.cfi_def_cfa 2, 16
 680 042c 13010101 		addi	sp,sp,16
 681              		.cfi_def_cfa_offset 0
 682 0430 67800000 		jr	ra
 683              		.cfi_endproc
 684              	.LFE40:
 686              		.align	2
 687              		.globl	_ZN3PCB19threadCreateHandlerEv
 689              	_ZN3PCB19threadCreateHandlerEv:
 690              	.LFB41:
 127:src/kernel/PCB.cpp **** 
 128:src/kernel/PCB.cpp **** void PCB::threadCreateHandler()
 129:src/kernel/PCB.cpp **** {
 691              		.loc 1 129 1 is_stmt 1
 692              		.cfi_startproc
 693 0434 130101FD 		addi	sp,sp,-48
 694              		.cfi_def_cfa_offset 48
 695 0438 23341102 		sd	ra,40(sp)
 696 043c 23308102 		sd	s0,32(sp)
GAS LISTING /tmp/ccPjER0C.s 			page 17


 697 0440 233C9100 		sd	s1,24(sp)
 698 0444 23382101 		sd	s2,16(sp)
 699 0448 23343101 		sd	s3,8(sp)
 700 044c 23304101 		sd	s4,0(sp)
 701              		.cfi_offset 1, -8
 702              		.cfi_offset 8, -16
 703              		.cfi_offset 9, -24
 704              		.cfi_offset 18, -32
 705              		.cfi_offset 19, -40
 706              		.cfi_offset 20, -48
 707 0450 13040103 		addi	s0,sp,48
 708              		.cfi_def_cfa 8, 0
 130:src/kernel/PCB.cpp ****     uint64 start_routine;
 709              		.loc 1 130 5
 131:src/kernel/PCB.cpp ****     uint64 args;
 710              		.loc 1 131 5
 132:src/kernel/PCB.cpp ****     PCB **threadHandle;
 711              		.loc 1 132 5
 133:src/kernel/PCB.cpp ****     __asm__ volatile("mv %0, a1" : "=r"(threadHandle));
 712              		.loc 1 133 5
 713              		.loc 1 133 55 is_stmt 0
 714              	#APP
 715              	# 133 "src/kernel/PCB.cpp" 1
 134              	    __asm__ volatile("mv %0, a2" : "=r"(start_routine));
 716              		mv s2, a1
 717              	# 0 "" 2
 718              	.LVL55:
 719              		.loc 1 134 5 is_stmt 1
 720              		.loc 1 134 56 is_stmt 0
 721              	# 134 "src/kernel/PCB.cpp" 1
 135              	    __asm__ volatile("mv %0, a3" : "=r"(args));
 722              		mv s3, a2
 723              	# 0 "" 2
 724              	.LVL56:
 725              		.loc 1 135 5 is_stmt 1
 726              		.loc 1 135 47 is_stmt 0
 727              	# 135 "src/kernel/PCB.cpp" 1
 136              	
 728              		mv s4, a3
 729              	# 0 "" 2
 730              	.LVL57:
 137:src/kernel/PCB.cpp ****     PCB *newPCB = new PCB((void (*)(void *)) start_routine, (void *) args,
 731              		.loc 1 137 5 is_stmt 1
 138:src/kernel/PCB.cpp ****                           //stack_space,
 139:src/kernel/PCB.cpp ****                           (void *) PCB::savedRegA4,
 140:src/kernel/PCB.cpp ****                           DEFAULT_TIME_SLICE);
 732              		.loc 1 140 45 is_stmt 0
 733              	#NO_APP
 734 0460 13050006 		li	a0,96
 735 0464 97000000 		call	_ZN3PCBnwEm
 735      E7800000 
 736              	.LVL58:
 737 046c 93040500 		mv	s1,a0
 738 0470 63000502 		beqz	a0,.L33
 739              		.loc 1 140 45 discriminator 1
 740 0474 13072000 		li	a4,2
 741 0478 97060000 		ld	a3,.LANCHOR0+32
GAS LISTING /tmp/ccPjER0C.s 			page 18


 741      83B60600 
 742 0480 13060A00 		mv	a2,s4
 743 0484 93850900 		mv	a1,s3
 744 0488 97000000 		call	_ZN3PCBC1EPFvPvES0_S0_m
 744      E7800000 
 745              	.LVL59:
 746              	.L33:
 141:src/kernel/PCB.cpp **** 
 142:src/kernel/PCB.cpp ****     (*threadHandle) = newPCB;
 747              		.loc 1 142 5 is_stmt 1 discriminator 4
 748              		.loc 1 142 21 is_stmt 0 discriminator 4
 749 0490 23309900 		sd	s1,0(s2)
 143:src/kernel/PCB.cpp **** 
 144:src/kernel/PCB.cpp ****     if (newPCB == nullptr) {
 750              		.loc 1 144 5 is_stmt 1 discriminator 4
 751 0494 638E0402 		beqz	s1,.L37
 145:src/kernel/PCB.cpp ****         __asm__ volatile("li a0, 0x01");
 146:src/kernel/PCB.cpp ****     }
 147:src/kernel/PCB.cpp ****     else
 148:src/kernel/PCB.cpp ****     {
 149:src/kernel/PCB.cpp ****         newPCB->start();
 752              		.loc 1 149 9
 753              		.loc 1 149 22 is_stmt 0
 754 0498 13850400 		mv	a0,s1
 755 049c 97000000 		call	_ZN3PCB5startEv
 755      E7800000 
 756              	.LVL60:
 150:src/kernel/PCB.cpp ****         __asm__ volatile("li a0, 0");
 757              		.loc 1 150 9 is_stmt 1
 758              		.loc 1 150 37 is_stmt 0
 759              	#APP
 760              	# 150 "src/kernel/PCB.cpp" 1
 151              	    }
 761              		li a0, 0
 762              	# 0 "" 2
 763              	#NO_APP
 764              	.L35:
 152:src/kernel/PCB.cpp ****     Riscv::w_a0_sscratch();
 765              		.loc 1 152 5 is_stmt 1
 766              		.loc 1 152 25 is_stmt 0
 767 04a8 97000000 		call	_ZN5Riscv13w_a0_sscratchEv@plt
 767      E7800000 
 768              	.LVL61:
 153:src/kernel/PCB.cpp **** }
 769              		.loc 1 153 1
 770 04b0 83308102 		ld	ra,40(sp)
 771              		.cfi_remember_state
 772              		.cfi_restore 1
 773 04b4 03340102 		ld	s0,32(sp)
 774              		.cfi_restore 8
 775              		.cfi_def_cfa 2, 48
 776 04b8 83348101 		ld	s1,24(sp)
 777              		.cfi_restore 9
 778              	.LVL62:
 779 04bc 03390101 		ld	s2,16(sp)
 780              		.cfi_restore 18
 781              	.LVL63:
GAS LISTING /tmp/ccPjER0C.s 			page 19


 782 04c0 83398100 		ld	s3,8(sp)
 783              		.cfi_restore 19
 784              	.LVL64:
 785 04c4 033A0100 		ld	s4,0(sp)
 786              		.cfi_restore 20
 787              	.LVL65:
 788 04c8 13010103 		addi	sp,sp,48
 789              		.cfi_def_cfa_offset 0
 790 04cc 67800000 		jr	ra
 791              	.LVL66:
 792              	.L37:
 793              		.cfi_restore_state
 145:src/kernel/PCB.cpp ****     }
 794              		.loc 1 145 9 is_stmt 1
 145:src/kernel/PCB.cpp ****     }
 795              		.loc 1 145 40 is_stmt 0
 796              	#APP
 797              	# 145 "src/kernel/PCB.cpp" 1
 798              		li a0, 0x01
 799              	# 0 "" 2
 800              	#NO_APP
 801 04d4 6FF05FFD 		j	.L35
 802              		.cfi_endproc
 803              	.LFE41:
 805              		.align	2
 806              		.globl	_ZN3PCB18threadStartHandlerEv
 808              	_ZN3PCB18threadStartHandlerEv:
 809              	.LFB42:
 154:src/kernel/PCB.cpp **** 
 155:src/kernel/PCB.cpp **** void PCB::threadStartHandler()
 156:src/kernel/PCB.cpp **** {
 810              		.loc 1 156 1 is_stmt 1
 811              		.cfi_startproc
 812 04d8 130101FF 		addi	sp,sp,-16
 813              		.cfi_def_cfa_offset 16
 814 04dc 23341100 		sd	ra,8(sp)
 815 04e0 23308100 		sd	s0,0(sp)
 816              		.cfi_offset 1, -8
 817              		.cfi_offset 8, -16
 818 04e4 13040101 		addi	s0,sp,16
 819              		.cfi_def_cfa 8, 0
 157:src/kernel/PCB.cpp ****     PCB* pcb;
 820              		.loc 1 157 5
 158:src/kernel/PCB.cpp ****     __asm__ volatile("mv %0, a1" : "=r"(pcb));
 821              		.loc 1 158 5
 822              		.loc 1 158 46 is_stmt 0
 823              	#APP
 824              	# 158 "src/kernel/PCB.cpp" 1
 159              	    if(pcb != nullptr)
 825              		mv a0, a1
 826              	# 0 "" 2
 827              	.LVL67:
 828              		.loc 1 159 5 is_stmt 1
 829              	#NO_APP
 830 04ec 63040502 		beqz	a0,.L39
 160:src/kernel/PCB.cpp ****     {
 161:src/kernel/PCB.cpp ****         pcb->start();
GAS LISTING /tmp/ccPjER0C.s 			page 20


 831              		.loc 1 161 9
 832              		.loc 1 161 19 is_stmt 0
 833 04f0 97000000 		call	_ZN3PCB5startEv
 833      E7800000 
 834              	.LVL68:
 162:src/kernel/PCB.cpp ****         __asm__ volatile("li a0, 0");
 835              		.loc 1 162 9 is_stmt 1
 836              		.loc 1 162 37 is_stmt 0
 837              	#APP
 838              	# 162 "src/kernel/PCB.cpp" 1
 163              	    }
 839              		li a0, 0
 840              	# 0 "" 2
 841              	#NO_APP
 842              	.L40:
 164:src/kernel/PCB.cpp ****     else
 165:src/kernel/PCB.cpp ****     {
 166:src/kernel/PCB.cpp ****         __asm__ volatile("li a0, 0x01");
 167:src/kernel/PCB.cpp ****     }
 168:src/kernel/PCB.cpp ****     Riscv::w_a0_sscratch();
 843              		.loc 1 168 5 is_stmt 1
 844              		.loc 1 168 25 is_stmt 0
 845 04fc 97000000 		call	_ZN5Riscv13w_a0_sscratchEv@plt
 845      E7800000 
 846              	.LVL69:
 169:src/kernel/PCB.cpp **** }
 847              		.loc 1 169 1
 848 0504 83308100 		ld	ra,8(sp)
 849              		.cfi_remember_state
 850              		.cfi_restore 1
 851 0508 03340100 		ld	s0,0(sp)
 852              		.cfi_restore 8
 853              		.cfi_def_cfa 2, 16
 854 050c 13010101 		addi	sp,sp,16
 855              		.cfi_def_cfa_offset 0
 856 0510 67800000 		jr	ra
 857              	.LVL70:
 858              	.L39:
 859              		.cfi_restore_state
 166:src/kernel/PCB.cpp ****     }
 860              		.loc 1 166 9 is_stmt 1
 166:src/kernel/PCB.cpp ****     }
 861              		.loc 1 166 40 is_stmt 0
 862              	#APP
 863              	# 166 "src/kernel/PCB.cpp" 1
 864              		li a0, 0x01
 865              	# 0 "" 2
 866              	#NO_APP
 867 0518 6FF05FFE 		j	.L40
 868              		.cfi_endproc
 869              	.LFE42:
 871              		.align	2
 872              		.globl	_ZN3PCB20threadMakePCBHandlerEv
 874              	_ZN3PCB20threadMakePCBHandlerEv:
 875              	.LFB43:
 170:src/kernel/PCB.cpp **** 
 171:src/kernel/PCB.cpp **** void PCB::threadMakePCBHandler()
GAS LISTING /tmp/ccPjER0C.s 			page 21


 172:src/kernel/PCB.cpp **** {
 876              		.loc 1 172 1 is_stmt 1
 877              		.cfi_startproc
 878 051c 130101FD 		addi	sp,sp,-48
 879              		.cfi_def_cfa_offset 48
 880 0520 23341102 		sd	ra,40(sp)
 881 0524 23308102 		sd	s0,32(sp)
 882 0528 233C9100 		sd	s1,24(sp)
 883 052c 23382101 		sd	s2,16(sp)
 884 0530 23343101 		sd	s3,8(sp)
 885 0534 23304101 		sd	s4,0(sp)
 886              		.cfi_offset 1, -8
 887              		.cfi_offset 8, -16
 888              		.cfi_offset 9, -24
 889              		.cfi_offset 18, -32
 890              		.cfi_offset 19, -40
 891              		.cfi_offset 20, -48
 892 0538 13040103 		addi	s0,sp,48
 893              		.cfi_def_cfa 8, 0
 173:src/kernel/PCB.cpp ****     uint64 start_routine;
 894              		.loc 1 173 5
 174:src/kernel/PCB.cpp ****     uint64 args;
 895              		.loc 1 174 5
 175:src/kernel/PCB.cpp ****     PCB **threadHandle;
 896              		.loc 1 175 5
 176:src/kernel/PCB.cpp ****     __asm__ volatile("mv %0, a1" : "=r"(threadHandle));
 897              		.loc 1 176 5
 898              		.loc 1 176 55 is_stmt 0
 899              	#APP
 900              	# 176 "src/kernel/PCB.cpp" 1
 177              	    __asm__ volatile("mv %0, a2" : "=r"(start_routine));
 901              		mv s2, a1
 902              	# 0 "" 2
 903              	.LVL71:
 904              		.loc 1 177 5 is_stmt 1
 905              		.loc 1 177 56 is_stmt 0
 906              	# 177 "src/kernel/PCB.cpp" 1
 178              	    __asm__ volatile("mv %0, a3" : "=r"(args));
 907              		mv s3, a2
 908              	# 0 "" 2
 909              	.LVL72:
 910              		.loc 1 178 5 is_stmt 1
 911              		.loc 1 178 47 is_stmt 0
 912              	# 178 "src/kernel/PCB.cpp" 1
 179              	
 913              		mv s4, a3
 914              	# 0 "" 2
 915              	.LVL73:
 180:src/kernel/PCB.cpp ****     PCB *newPCB = new PCB((void (*)(void *)) start_routine, (void *) args,
 916              		.loc 1 180 5 is_stmt 1
 181:src/kernel/PCB.cpp ****                           //stack_space,
 182:src/kernel/PCB.cpp ****                           (void *) PCB::savedRegA4,
 183:src/kernel/PCB.cpp ****                           DEFAULT_TIME_SLICE);
 917              		.loc 1 183 45 is_stmt 0
 918              	#NO_APP
 919 0548 13050006 		li	a0,96
 920 054c 97000000 		call	_ZN3PCBnwEm
GAS LISTING /tmp/ccPjER0C.s 			page 22


 920      E7800000 
 921              	.LVL74:
 922 0554 93040500 		mv	s1,a0
 923 0558 63000502 		beqz	a0,.L43
 924              		.loc 1 183 45 discriminator 1
 925 055c 13072000 		li	a4,2
 926 0560 97060000 		ld	a3,.LANCHOR0+32
 926      83B60600 
 927 0568 13060A00 		mv	a2,s4
 928 056c 93850900 		mv	a1,s3
 929 0570 97000000 		call	_ZN3PCBC1EPFvPvES0_S0_m
 929      E7800000 
 930              	.LVL75:
 931              	.L43:
 184:src/kernel/PCB.cpp **** 
 185:src/kernel/PCB.cpp ****     (*threadHandle) = newPCB;
 932              		.loc 1 185 5 is_stmt 1 discriminator 4
 933              		.loc 1 185 21 is_stmt 0 discriminator 4
 934 0578 23309900 		sd	s1,0(s2)
 186:src/kernel/PCB.cpp **** 
 187:src/kernel/PCB.cpp ****     if (newPCB == nullptr)
 935              		.loc 1 187 5 is_stmt 1 discriminator 4
 936 057c 63880402 		beqz	s1,.L47
 188:src/kernel/PCB.cpp ****     {
 189:src/kernel/PCB.cpp ****         __asm__ volatile("li a0, 0x01");
 190:src/kernel/PCB.cpp ****     }
 191:src/kernel/PCB.cpp ****     else
 192:src/kernel/PCB.cpp ****         __asm__ volatile("li a0, 0");
 937              		.loc 1 192 9
 938              		.loc 1 192 37 is_stmt 0
 939              	#APP
 940              	# 192 "src/kernel/PCB.cpp" 1
 193              	    Riscv::w_a0_sscratch();
 941              		li a0, 0
 942              	# 0 "" 2
 943              	#NO_APP
 944              	.L45:
 945              		.loc 1 193 5 is_stmt 1
 946              		.loc 1 193 25 is_stmt 0
 947 0584 97000000 		call	_ZN5Riscv13w_a0_sscratchEv@plt
 947      E7800000 
 948              	.LVL76:
 194:src/kernel/PCB.cpp **** }
 949              		.loc 1 194 1
 950 058c 83308102 		ld	ra,40(sp)
 951              		.cfi_remember_state
 952              		.cfi_restore 1
 953 0590 03340102 		ld	s0,32(sp)
 954              		.cfi_restore 8
 955              		.cfi_def_cfa 2, 48
 956 0594 83348101 		ld	s1,24(sp)
 957              		.cfi_restore 9
 958              	.LVL77:
 959 0598 03390101 		ld	s2,16(sp)
 960              		.cfi_restore 18
 961              	.LVL78:
 962 059c 83398100 		ld	s3,8(sp)
GAS LISTING /tmp/ccPjER0C.s 			page 23


 963              		.cfi_restore 19
 964              	.LVL79:
 965 05a0 033A0100 		ld	s4,0(sp)
 966              		.cfi_restore 20
 967              	.LVL80:
 968 05a4 13010103 		addi	sp,sp,48
 969              		.cfi_def_cfa_offset 0
 970 05a8 67800000 		jr	ra
 971              	.LVL81:
 972              	.L47:
 973              		.cfi_restore_state
 189:src/kernel/PCB.cpp ****     }
 974              		.loc 1 189 9 is_stmt 1
 189:src/kernel/PCB.cpp ****     }
 975              		.loc 1 189 40 is_stmt 0
 976              	#APP
 977              	# 189 "src/kernel/PCB.cpp" 1
 978              		li a0, 0x01
 979              	# 0 "" 2
 980              	#NO_APP
 981 05b0 6FF05FFD 		j	.L45
 982              		.cfi_endproc
 983              	.LFE43:
 985              		.align	2
 986              		.globl	_ZN3PCB19threadDelPCBHandlerEv
 988              	_ZN3PCB19threadDelPCBHandlerEv:
 989              	.LFB44:
 195:src/kernel/PCB.cpp **** 
 196:src/kernel/PCB.cpp **** void PCB::threadDelPCBHandler()
 197:src/kernel/PCB.cpp **** {
 990              		.loc 1 197 1 is_stmt 1
 991              		.cfi_startproc
 992 05b4 130101FE 		addi	sp,sp,-32
 993              		.cfi_def_cfa_offset 32
 994 05b8 233C1100 		sd	ra,24(sp)
 995 05bc 23388100 		sd	s0,16(sp)
 996 05c0 23349100 		sd	s1,8(sp)
 997              		.cfi_offset 1, -8
 998              		.cfi_offset 8, -16
 999              		.cfi_offset 9, -24
 1000 05c4 13040102 		addi	s0,sp,32
 1001              		.cfi_def_cfa 8, 0
 198:src/kernel/PCB.cpp ****     PCB* pcb;
 1002              		.loc 1 198 5
 199:src/kernel/PCB.cpp ****     __asm__ volatile("mv %0, a1" : "=r"(pcb));
 1003              		.loc 1 199 5
 1004              		.loc 1 199 46 is_stmt 0
 1005              	#APP
 1006              	# 199 "src/kernel/PCB.cpp" 1
 200              	    if(pcb != nullptr)
 1007              		mv s1, a1
 1008              	# 0 "" 2
 1009              	.LVL82:
 1010              		.loc 1 200 5 is_stmt 1
 1011              	#NO_APP
 1012 05cc 638E0402 		beqz	s1,.L49
 201:src/kernel/PCB.cpp ****     {
GAS LISTING /tmp/ccPjER0C.s 			page 24


 202:src/kernel/PCB.cpp ****         delete pcb;
 1013              		.loc 1 202 9 discriminator 1
 1014              		.loc 1 202 16 is_stmt 0 discriminator 1
 1015 05d0 13850400 		mv	a0,s1
 1016 05d4 97000000 		call	_ZN3PCBD1Ev
 1016      E7800000 
 1017              	.LVL83:
 1018 05dc 13850400 		mv	a0,s1
 1019 05e0 97000000 		call	_ZN3PCBdlEPv
 1019      E7800000 
 1020              	.LVL84:
 203:src/kernel/PCB.cpp ****         __asm__ volatile("li a0, 0x0");
 1021              		.loc 1 203 9 is_stmt 1 discriminator 1
 1022              		.loc 1 203 39 is_stmt 0 discriminator 1
 1023              	#APP
 1024              	# 203 "src/kernel/PCB.cpp" 1
 204              	    }
 1025              		li a0, 0x0
 1026              	# 0 "" 2
 1027              	#NO_APP
 1028              	.L50:
 205:src/kernel/PCB.cpp ****     else
 206:src/kernel/PCB.cpp ****     {
 207:src/kernel/PCB.cpp ****         __asm__ volatile("li a0, 0x1");
 208:src/kernel/PCB.cpp ****     }
 209:src/kernel/PCB.cpp ****     Riscv::w_a0_sscratch();
 1029              		.loc 1 209 5 is_stmt 1
 1030              		.loc 1 209 25 is_stmt 0
 1031 05ec 97000000 		call	_ZN5Riscv13w_a0_sscratchEv@plt
 1031      E7800000 
 1032              	.LVL85:
 210:src/kernel/PCB.cpp **** }
 1033              		.loc 1 210 1
 1034 05f4 83308101 		ld	ra,24(sp)
 1035              		.cfi_remember_state
 1036              		.cfi_restore 1
 1037 05f8 03340101 		ld	s0,16(sp)
 1038              		.cfi_restore 8
 1039              		.cfi_def_cfa 2, 32
 1040 05fc 83348100 		ld	s1,8(sp)
 1041              		.cfi_restore 9
 1042              	.LVL86:
 1043 0600 13010102 		addi	sp,sp,32
 1044              		.cfi_def_cfa_offset 0
 1045 0604 67800000 		jr	ra
 1046              	.LVL87:
 1047              	.L49:
 1048              		.cfi_restore_state
 207:src/kernel/PCB.cpp ****     }
 1049              		.loc 1 207 9 is_stmt 1
 207:src/kernel/PCB.cpp ****     }
 1050              		.loc 1 207 39 is_stmt 0
 1051              	#APP
 1052              	# 207 "src/kernel/PCB.cpp" 1
 1053              		li a0, 0x1
 1054              	# 0 "" 2
 1055              	#NO_APP
GAS LISTING /tmp/ccPjER0C.s 			page 25


 1056 060c 6FF01FFE 		j	.L50
 1057              		.cfi_endproc
 1058              	.LFE44:
 1060              		.globl	_ZN3PCB7userPCBE
 1061              		.globl	_ZN3PCB10consolePCBE
 1062              		.globl	_ZN3PCB10savedRegA4E
 1063              		.globl	_ZN3PCB16timeSliceCounterE
 1064              		.globl	_ZN3PCB7runningE
 1065              		.bss
 1066              		.align	3
 1067              		.set	.LANCHOR0,. + 0
 1070              	_ZN3PCB7runningE:
 1071 0000 00000000 		.zero	8
 1071      00000000 
 1074              	_ZN3PCB10consolePCBE:
 1075 0008 00000000 		.zero	8
 1075      00000000 
 1078              	_ZN3PCB7userPCBE:
 1079 0010 00000000 		.zero	8
 1079      00000000 
 1082              	_ZN3PCB16timeSliceCounterE:
 1083 0018 00000000 		.zero	8
 1083      00000000 
 1086              	_ZN3PCB10savedRegA4E:
 1087 0020 00000000 		.zero	8
 1087      00000000 
 1088              		.text
 1089              	.Letext0:
 1090              		.file 3 "src/kernel/../../h/../lib/hw.h"
 1091              		.file 4 "src/kernel/../../h/SleepPCBList.hpp"
 1092              		.file 5 "src/kernel/../../h/MemoryAllocator.hpp"
 1093              		.file 6 "src/kernel/../../h/Scheduler.hpp"
 1094              		.file 7 "src/kernel/../../h/slabAllocator.hpp"
 1095              		.file 8 "src/kernel/../../h/Riscv.hpp"
 1096              		.file 9 "src/kernel/../../h/syscall_c_kernel.hpp"
 5210              		.align	3
 5213              	DW.ref.__gxx_personality_v0:
 5214 0000 00000000 		.dword	__gxx_personality_v0
 5214      00000000 
 5215              		.ident	"GCC: (Ubuntu 9.4.0-1ubuntu1~20.04) 9.4.0"
 5216              		.section	.note.GNU-stack,"",@progbits
GAS LISTING /tmp/ccPjER0C.s 			page 26

