GAS LISTING /tmp/cctNXpE4.s 			page 1


   1              		.file	"Riscv.cpp"
   2              		.option pic
   3              		.option norelax
   4              		.text
   5              	.Ltext0:
   6              		.align	2
   7              		.globl	_ZN5Riscv17initVirtualMemoryEv
   9              	_ZN5Riscv17initVirtualMemoryEv:
  10              	.LFB27:
  11              		.file 1 "src/kernel/Riscv.cpp"
   1:src/kernel/Riscv.cpp **** //
   2:src/kernel/Riscv.cpp **** // Created by os on 4/27/22.
   3:src/kernel/Riscv.cpp **** //
   4:src/kernel/Riscv.cpp **** 
   5:src/kernel/Riscv.cpp **** #include "../../h/Riscv.hpp"
   6:src/kernel/Riscv.cpp **** #include "../../h/MemoryAllocator.hpp"
   7:src/kernel/Riscv.cpp **** #include "../../h/PCB.hpp"
   8:src/kernel/Riscv.cpp **** #include "../../h/syscall_cpp.hpp"
   9:src/kernel/Riscv.cpp **** #include "../../h/SleepPCBList.hpp"
  10:src/kernel/Riscv.cpp **** #include "../../h/KConsole.hpp"
  11:src/kernel/Riscv.cpp **** #include "../../h/Scheduler.hpp"
  12:src/kernel/Riscv.cpp **** #include "../../h/buddyTests.hpp"
  13:src/kernel/Riscv.cpp **** #include "../../h/slabTests.hpp"
  14:src/kernel/Riscv.cpp **** #include "../../h/PCBWrapperUser.hpp"
  15:src/kernel/Riscv.cpp **** #include "../../h/syscall_c_kernel.hpp"
  16:src/kernel/Riscv.cpp **** 
  17:src/kernel/Riscv.cpp **** #define USER_RX 0x1b
  18:src/kernel/Riscv.cpp **** #define USER_RW 0x17
  19:src/kernel/Riscv.cpp **** #define KERNEL_RX 0xb
  20:src/kernel/Riscv.cpp **** #define KERNEL_RW 0x7
  21:src/kernel/Riscv.cpp **** #define VMEM_V_BIT 0x1
  22:src/kernel/Riscv.cpp **** #define NUM_OF_ENTRIES 512
  23:src/kernel/Riscv.cpp **** 
  24:src/kernel/Riscv.cpp **** uint64 Riscv::totalTime = 0;
  25:src/kernel/Riscv.cpp **** bool Riscv::finishSystem = false;
  26:src/kernel/Riscv.cpp **** bool Riscv::kernelMainCalled = false;
  27:src/kernel/Riscv.cpp **** kmem_cache_t * Riscv::pcbCache = nullptr;
  28:src/kernel/Riscv.cpp **** kmem_cache_t * Riscv::semaphoreCache = nullptr;
  29:src/kernel/Riscv.cpp **** void* Riscv::mainPMT = nullptr;
  30:src/kernel/Riscv.cpp **** size_t Riscv::programStartAddr = 0x80000000;
  31:src/kernel/Riscv.cpp **** extern char *userTextStart;
  32:src/kernel/Riscv.cpp **** extern char *userDataStart;
  33:src/kernel/Riscv.cpp **** extern char *kernelTextStart;
  34:src/kernel/Riscv.cpp **** extern char *kernelDataStart;
  35:src/kernel/Riscv.cpp **** 
  36:src/kernel/Riscv.cpp **** void Riscv::initVirtualMemory()
  37:src/kernel/Riscv.cpp **** {
  12              		.loc 1 37 1
  13              		.cfi_startproc
  14 0000 130101FF 		addi	sp,sp,-16
  15              		.cfi_def_cfa_offset 16
  16 0004 23348100 		sd	s0,8(sp)
  17              		.cfi_offset 8, -8
  18 0008 13040101 		addi	s0,sp,16
  19              		.cfi_def_cfa 8, 0
  38:src/kernel/Riscv.cpp ****     //size_t addr = (size_t)getNextBlockAddr((size_t)HEAP_START_ADDR);
  39:src/kernel/Riscv.cpp **** 
GAS LISTING /tmp/cctNXpE4.s 			page 2


  40:src/kernel/Riscv.cpp ****     //size_t pmtSize = (1 << 9);
  41:src/kernel/Riscv.cpp ****     //size_t descSize = 64;
  42:src/kernel/Riscv.cpp ****     //size_t
  43:src/kernel/Riscv.cpp **** }
  20              		.loc 1 43 1 is_stmt 0
  21 000c 03348100 		ld	s0,8(sp)
  22              		.cfi_restore 8
  23              		.cfi_def_cfa 2, 16
  24 0010 13010101 		addi	sp,sp,16
  25              		.cfi_def_cfa_offset 0
  26 0014 67800000 		jr	ra
  27              		.cfi_endproc
  28              	.LFE27:
  30              		.align	2
  31              		.globl	_ZN5Riscv16enableInterruptsEv
  33              	_ZN5Riscv16enableInterruptsEv:
  34              	.LFB32:
  44:src/kernel/Riscv.cpp **** 
  45:src/kernel/Riscv.cpp **** void Riscv::setVirtualAddrRange(size_t startAddr, size_t endAddr, int permission)
  46:src/kernel/Riscv.cpp **** {
  47:src/kernel/Riscv.cpp ****     for(size_t i = startAddr; i < endAddr; i+=BLOCK_NUM_OF_BYTES)
  48:src/kernel/Riscv.cpp ****     {
  49:src/kernel/Riscv.cpp ****         setVirtualAddr(i, VMEM_V_BIT, permission);
  50:src/kernel/Riscv.cpp ****     }
  51:src/kernel/Riscv.cpp **** 
  52:src/kernel/Riscv.cpp **** }
  53:src/kernel/Riscv.cpp **** void Riscv::initSystem()
  54:src/kernel/Riscv.cpp **** {
  55:src/kernel/Riscv.cpp ****     w_stvec((uint64)&Riscv::supervisorTrap);
  56:src/kernel/Riscv.cpp **** 
  57:src/kernel/Riscv.cpp ****     size_t heapStartBlock = getBlockAddr((size_t)HEAP_START_ADDR);
  58:src/kernel/Riscv.cpp **** 
  59:src/kernel/Riscv.cpp ****     size_t numOfBlocks = 4096 + 1;
  60:src/kernel/Riscv.cpp **** 
  61:src/kernel/Riscv.cpp ****     void* newStartAddr = (void*)(heapStartBlock + numOfBlocks*BLOCK_NUM_OF_BYTES);
  62:src/kernel/Riscv.cpp ****     MemoryAllocator::initMemory(newStartAddr);
  63:src/kernel/Riscv.cpp **** 
  64:src/kernel/Riscv.cpp ****     kmem_init((void*)HEAP_START_ADDR, numOfBlocks);
  65:src/kernel/Riscv.cpp ****     pcbCache = kmem_cache_create("Cache of PCBs", sizeof(PCB), nullptr, nullptr);
  66:src/kernel/Riscv.cpp ****     semaphoreCache = kmem_cache_create("Cache of KSemaphore", sizeof(KSemaphore), nullptr, nullptr)
  67:src/kernel/Riscv.cpp **** 
  68:src/kernel/Riscv.cpp ****     PCB::initialize();
  69:src/kernel/Riscv.cpp ****     KConsole::initialize();
  70:src/kernel/Riscv.cpp **** 
  71:src/kernel/Riscv.cpp ****     mainPMT = buddy_alloc(1);
  72:src/kernel/Riscv.cpp ****     for(size_t i = 0; i < NUM_OF_ENTRIES;i++)
  73:src/kernel/Riscv.cpp ****         ((size_t*)mainPMT)[i] = 0;
  74:src/kernel/Riscv.cpp **** 
  75:src/kernel/Riscv.cpp ****     KConsole::trapPrintStringInt("main PMT ", (size_t)mainPMT,16);
  76:src/kernel/Riscv.cpp **** 
  77:src/kernel/Riscv.cpp ****     uint64 kTextStart = (uint64)(&kernelTextStart);
  78:src/kernel/Riscv.cpp ****     uint64 kDataStart = (uint64)(&kernelDataStart);
  79:src/kernel/Riscv.cpp ****     uint64 uTextStart = (uint64)(&userTextStart);
  80:src/kernel/Riscv.cpp ****     uint64 uDataStart = (uint64)(&userDataStart);
  81:src/kernel/Riscv.cpp **** 
  82:src/kernel/Riscv.cpp ****     setVirtualAddrRange(programStartAddr, kTextStart, KERNEL_RX); // before kernel instructions
  83:src/kernel/Riscv.cpp ****     setVirtualAddrRange(kTextStart, kDataStart,KERNEL_RX); // kernel instructions
GAS LISTING /tmp/cctNXpE4.s 			page 3


  84:src/kernel/Riscv.cpp ****     setVirtualAddrRange((size_t)(&kernelDataStart), uTextStart, KERNEL_RW); // kernel data
  85:src/kernel/Riscv.cpp ****     setVirtualAddrRange((size_t)(&userTextStart), uDataStart, USER_RX); //user instructions
  86:src/kernel/Riscv.cpp ****     setVirtualAddrRange((size_t)(&userDataStart), (size_t)HEAP_START_ADDR, USER_RW); // user data
  87:src/kernel/Riscv.cpp ****     setVirtualAddrRange((size_t)HEAP_START_ADDR, (size_t)newStartAddr, KERNEL_RW); // kernel heap d
  88:src/kernel/Riscv.cpp ****     setVirtualAddrRange((size_t)newStartAddr, (size_t)HEAP_END_ADDR + 1,USER_RW); // user heap data
  89:src/kernel/Riscv.cpp **** 
  90:src/kernel/Riscv.cpp ****     setVirtualAddr((size_t)CONSOLE_RX_DATA,0x1,0xf);
  91:src/kernel/Riscv.cpp ****     setVirtualAddr((size_t)CONSOLE_TX_DATA,0x1,0xf);
  92:src/kernel/Riscv.cpp ****     setVirtualAddr((size_t)CONSOLE_STATUS,0x1,0xf);
  93:src/kernel/Riscv.cpp ****     setVirtualAddr(0xc201004,0x1,0xf);
  94:src/kernel/Riscv.cpp **** 
  95:src/kernel/Riscv.cpp ****     Riscv::ms_sstatus(1<<18);
  96:src/kernel/Riscv.cpp ****     size_t satp = ((size_t)1 << 63) | ((size_t)mainPMT >> 12);
  97:src/kernel/Riscv.cpp ****     __asm__ volatile("csrw satp, %0" : :"r"(satp));
  98:src/kernel/Riscv.cpp **** }
  99:src/kernel/Riscv.cpp **** 
 100:src/kernel/Riscv.cpp **** void Riscv::kernelMain()
 101:src/kernel/Riscv.cpp **** {
 102:src/kernel/Riscv.cpp ****     if(kernelMainCalled) return;
 103:src/kernel/Riscv.cpp ****     kernelMainCalled = true;
 104:src/kernel/Riscv.cpp **** 
 105:src/kernel/Riscv.cpp ****     initSystem();
 106:src/kernel/Riscv.cpp **** 
 107:src/kernel/Riscv.cpp ****     testOS2();
 108:src/kernel/Riscv.cpp **** 
 109:src/kernel/Riscv.cpp ****     //enableInterrupts();
 110:src/kernel/Riscv.cpp **** 
 111:src/kernel/Riscv.cpp ****     //while(!PCB::userPCB->isFinished())
 112:src/kernel/Riscv.cpp ****     //{
 113:src/kernel/Riscv.cpp ****     //    thread_dispatch_kernel();
 114:src/kernel/Riscv.cpp ****     //}
 115:src/kernel/Riscv.cpp **** 
 116:src/kernel/Riscv.cpp ****     endSystem();
 117:src/kernel/Riscv.cpp **** }
 118:src/kernel/Riscv.cpp **** 
 119:src/kernel/Riscv.cpp **** void Riscv::endSystem()
 120:src/kernel/Riscv.cpp **** {
 121:src/kernel/Riscv.cpp ****     disableInterrupts();
 122:src/kernel/Riscv.cpp ****     finishSystem = true;
 123:src/kernel/Riscv.cpp ****     PCB* pcb = 0;
 124:src/kernel/Riscv.cpp ****     while(true)
 125:src/kernel/Riscv.cpp ****     {
 126:src/kernel/Riscv.cpp ****         pcb = Scheduler::get();
 127:src/kernel/Riscv.cpp ****         if(pcb == 0) break;
 128:src/kernel/Riscv.cpp ****     }
 129:src/kernel/Riscv.cpp ****     Scheduler::put(PCB::consolePCB);
 130:src/kernel/Riscv.cpp ****     KConsole::pendingGetc = 0;
 131:src/kernel/Riscv.cpp ****     enableInterrupts();
 132:src/kernel/Riscv.cpp ****     while(!PCB::consolePCB->isFinished())
 133:src/kernel/Riscv.cpp ****     {
 134:src/kernel/Riscv.cpp ****         thread_dispatch_kernel();
 135:src/kernel/Riscv.cpp ****     }
 136:src/kernel/Riscv.cpp ****     disableInterrupts();
 137:src/kernel/Riscv.cpp **** }
 138:src/kernel/Riscv.cpp **** 
 139:src/kernel/Riscv.cpp **** void Riscv::enableInterrupts() {
  35              		.loc 1 139 32 is_stmt 1
GAS LISTING /tmp/cctNXpE4.s 			page 4


  36              		.cfi_startproc
  37 0018 130101FF 		addi	sp,sp,-16
  38              		.cfi_def_cfa_offset 16
  39 001c 23348100 		sd	s0,8(sp)
  40              		.cfi_offset 8, -8
  41 0020 13040101 		addi	s0,sp,16
  42              		.cfi_def_cfa 8, 0
 140:src/kernel/Riscv.cpp ****     ms_sstatus(Riscv::SSTATUS_SIE);
  43              		.loc 1 140 5
  44              	.LVL0:
  45              	.LBB41:
  46              	.LBB42:
  47              		.file 2 "src/kernel/../../h/Riscv.hpp"
   1:src/kernel/../../h/Riscv.hpp **** //
   2:src/kernel/../../h/Riscv.hpp **** // Created by os on 4/27/22.
   3:src/kernel/../../h/Riscv.hpp **** //
   4:src/kernel/../../h/Riscv.hpp **** 
   5:src/kernel/../../h/Riscv.hpp **** #ifndef PROJECT_BASE_V1_0_RISCV_HPP
   6:src/kernel/../../h/Riscv.hpp **** #define PROJECT_BASE_V1_0_RISCV_HPP
   7:src/kernel/../../h/Riscv.hpp **** 
   8:src/kernel/../../h/Riscv.hpp **** #include "../lib/hw.h"
   9:src/kernel/../../h/Riscv.hpp **** #include "../src/user/test/userMain.hpp"
  10:src/kernel/../../h/Riscv.hpp **** #include "slabAllocator.hpp"
  11:src/kernel/../../h/Riscv.hpp **** 
  12:src/kernel/../../h/Riscv.hpp **** class Riscv
  13:src/kernel/../../h/Riscv.hpp **** {
  14:src/kernel/../../h/Riscv.hpp **** public:
  15:src/kernel/../../h/Riscv.hpp ****     static void kernelMain();
  16:src/kernel/../../h/Riscv.hpp **** private:
  17:src/kernel/../../h/Riscv.hpp ****     static bool kernelMainCalled;
  18:src/kernel/../../h/Riscv.hpp ****     static void changePrivMode();
  19:src/kernel/../../h/Riscv.hpp **** 
  20:src/kernel/../../h/Riscv.hpp ****     static void* mainPMT;
  21:src/kernel/../../h/Riscv.hpp **** 
  22:src/kernel/../../h/Riscv.hpp ****     static void addVirtualAddr(size_t addr);
  23:src/kernel/../../h/Riscv.hpp ****     static void addVirtualAddrInstr(size_t addr);
  24:src/kernel/../../h/Riscv.hpp ****     static void setVirtualAddr(size_t addr, size_t mask, size_t maskLeaf);
  25:src/kernel/../../h/Riscv.hpp **** 
  26:src/kernel/../../h/Riscv.hpp ****     static void initVirtualMemory();
  27:src/kernel/../../h/Riscv.hpp **** 
  28:src/kernel/../../h/Riscv.hpp ****     static void setVirtualAddrRange(size_t startAddr, size_t endAddr, int permission);
  29:src/kernel/../../h/Riscv.hpp **** 
  30:src/kernel/../../h/Riscv.hpp ****     static void initSystem();
  31:src/kernel/../../h/Riscv.hpp ****     static void endSystem();
  32:src/kernel/../../h/Riscv.hpp **** 
  33:src/kernel/../../h/Riscv.hpp ****     static void enableInterrupts();
  34:src/kernel/../../h/Riscv.hpp **** 
  35:src/kernel/../../h/Riscv.hpp ****     static void disableTimerInterrupts();
  36:src/kernel/../../h/Riscv.hpp **** 
  37:src/kernel/../../h/Riscv.hpp ****     static void disableInterrupts();
  38:src/kernel/../../h/Riscv.hpp **** 
  39:src/kernel/../../h/Riscv.hpp ****     static void pushRegisters();
  40:src/kernel/../../h/Riscv.hpp ****     static void popRegisters();
  41:src/kernel/../../h/Riscv.hpp **** 
  42:src/kernel/../../h/Riscv.hpp ****     static uint64 r_scause();
  43:src/kernel/../../h/Riscv.hpp ****     static void w_scause(uint64 scause);
  44:src/kernel/../../h/Riscv.hpp **** 
GAS LISTING /tmp/cctNXpE4.s 			page 5


  45:src/kernel/../../h/Riscv.hpp ****     static uint64 r_sepc();
  46:src/kernel/../../h/Riscv.hpp ****     static void w_sepc(uint64 sepc);
  47:src/kernel/../../h/Riscv.hpp **** 
  48:src/kernel/../../h/Riscv.hpp ****     static uint64 r_stvec();
  49:src/kernel/../../h/Riscv.hpp ****     static void w_stvec(uint64 stvec);
  50:src/kernel/../../h/Riscv.hpp **** 
  51:src/kernel/../../h/Riscv.hpp ****     static uint64 r_stval();
  52:src/kernel/../../h/Riscv.hpp ****     static void w_stval(uint64 stval);
  53:src/kernel/../../h/Riscv.hpp **** 
  54:src/kernel/../../h/Riscv.hpp ****     static bool finishSystem;
  55:src/kernel/../../h/Riscv.hpp **** 
  56:src/kernel/../../h/Riscv.hpp ****     enum BitMaskSip
  57:src/kernel/../../h/Riscv.hpp ****     {
  58:src/kernel/../../h/Riscv.hpp ****         SIP_SSIP = (1 << 1),
  59:src/kernel/../../h/Riscv.hpp ****         SIP_STIP = (1 << 5),
  60:src/kernel/../../h/Riscv.hpp ****         SIP_SEIP = (1 << 9),
  61:src/kernel/../../h/Riscv.hpp ****     };
  62:src/kernel/../../h/Riscv.hpp **** 
  63:src/kernel/../../h/Riscv.hpp ****     static void ms_sip(uint64 mask);
  64:src/kernel/../../h/Riscv.hpp **** 
  65:src/kernel/../../h/Riscv.hpp ****     static void mc_sip(uint64 mask);
  66:src/kernel/../../h/Riscv.hpp **** 
  67:src/kernel/../../h/Riscv.hpp ****     static uint64 r_sip();
  68:src/kernel/../../h/Riscv.hpp **** 
  69:src/kernel/../../h/Riscv.hpp ****     static void w_sip(uint64 sip);
  70:src/kernel/../../h/Riscv.hpp **** 
  71:src/kernel/../../h/Riscv.hpp ****     enum BitMaskSstatus
  72:src/kernel/../../h/Riscv.hpp ****     {
  73:src/kernel/../../h/Riscv.hpp ****         SSTATUS_SIE = (1 << 1),
  74:src/kernel/../../h/Riscv.hpp ****         SSTATUS_SPIE = (1 << 5),
  75:src/kernel/../../h/Riscv.hpp ****         SSTATUS_SPP = (1 << 8),
  76:src/kernel/../../h/Riscv.hpp ****     };
  77:src/kernel/../../h/Riscv.hpp **** 
  78:src/kernel/../../h/Riscv.hpp ****     static void w_a0_sscratch();
  79:src/kernel/../../h/Riscv.hpp **** 
  80:src/kernel/../../h/Riscv.hpp ****     static void ms_sstatus(uint64 mask);
  81:src/kernel/../../h/Riscv.hpp **** 
  82:src/kernel/../../h/Riscv.hpp ****     static void mc_sstatus(uint64 mask);
  83:src/kernel/../../h/Riscv.hpp **** 
  84:src/kernel/../../h/Riscv.hpp ****     static void mc_sie(uint64 mask);
  85:src/kernel/../../h/Riscv.hpp **** 
  86:src/kernel/../../h/Riscv.hpp ****     static void ms_sie(uint64 mask);
  87:src/kernel/../../h/Riscv.hpp **** 
  88:src/kernel/../../h/Riscv.hpp ****     static uint64 r_sstatus();
  89:src/kernel/../../h/Riscv.hpp **** 
  90:src/kernel/../../h/Riscv.hpp ****     static void w_sstatus(uint64 sstatus);
  91:src/kernel/../../h/Riscv.hpp **** 
  92:src/kernel/../../h/Riscv.hpp ****     static uint64 r_sie();
  93:src/kernel/../../h/Riscv.hpp ****     static void w_sie(uint64 sie);
  94:src/kernel/../../h/Riscv.hpp ****     static void popSppSpie();
  95:src/kernel/../../h/Riscv.hpp **** 
  96:src/kernel/../../h/Riscv.hpp ****     static void supervisorTrap();
  97:src/kernel/../../h/Riscv.hpp ****     static void handleSupervisorTrap();
  98:src/kernel/../../h/Riscv.hpp **** 
  99:src/kernel/../../h/Riscv.hpp ****     static const uint64 bntOne = 1UL << 63;;
 100:src/kernel/../../h/Riscv.hpp ****     static const uint64 bntZero = 0UL;
 101:src/kernel/../../h/Riscv.hpp ****     static const uint64 timerInterrupt = bntOne + 1UL;
GAS LISTING /tmp/cctNXpE4.s 			page 6


 102:src/kernel/../../h/Riscv.hpp ****     static const uint64 hwInterrupt = bntOne + 9UL;
 103:src/kernel/../../h/Riscv.hpp ****     static const uint64 operationInterrupt = bntZero + 2UL;
 104:src/kernel/../../h/Riscv.hpp ****     static const uint64 addrReadInterrupt = bntZero + 5UL;
 105:src/kernel/../../h/Riscv.hpp ****     static const uint64 addrWriteInterrupt = bntZero + 7UL;
 106:src/kernel/../../h/Riscv.hpp ****     static const uint64 ecallUserInterrupt = bntZero + 8UL;
 107:src/kernel/../../h/Riscv.hpp ****     static const uint64 ecallSystemInterupt = bntZero + 9UL;
 108:src/kernel/../../h/Riscv.hpp **** 
 109:src/kernel/../../h/Riscv.hpp ****     static uint64 totalTime;
 110:src/kernel/../../h/Riscv.hpp **** 
 111:src/kernel/../../h/Riscv.hpp ****     static kmem_cache_t * pcbCache;
 112:src/kernel/../../h/Riscv.hpp ****     static kmem_cache_t* semaphoreCache;
 113:src/kernel/../../h/Riscv.hpp **** 
 114:src/kernel/../../h/Riscv.hpp ****     static size_t programStartAddr;
 115:src/kernel/../../h/Riscv.hpp **** 
 116:src/kernel/../../h/Riscv.hpp ****     friend class PCB;
 117:src/kernel/../../h/Riscv.hpp ****     friend class Scheduler;
 118:src/kernel/../../h/Riscv.hpp ****     friend class SleepPCBList;
 119:src/kernel/../../h/Riscv.hpp ****     friend class KSemaphore;
 120:src/kernel/../../h/Riscv.hpp ****     friend class KConsole;
 121:src/kernel/../../h/Riscv.hpp ****     friend class MemoryAllocator;
 122:src/kernel/../../h/Riscv.hpp **** };
 123:src/kernel/../../h/Riscv.hpp **** 
 124:src/kernel/../../h/Riscv.hpp **** inline void Riscv::mc_sie(uint64 mask)
 125:src/kernel/../../h/Riscv.hpp **** {
 126:src/kernel/../../h/Riscv.hpp ****     __asm__ volatile("csrc sie, %0" : :"r"(mask));
 127:src/kernel/../../h/Riscv.hpp **** }
 128:src/kernel/../../h/Riscv.hpp **** 
 129:src/kernel/../../h/Riscv.hpp **** inline uint64 Riscv::r_scause() {
 130:src/kernel/../../h/Riscv.hpp ****     uint64 volatile scause;
 131:src/kernel/../../h/Riscv.hpp ****     __asm__ volatile("csrr %0, scause" : "=r"(scause));
 132:src/kernel/../../h/Riscv.hpp ****     return scause;
 133:src/kernel/../../h/Riscv.hpp **** }
 134:src/kernel/../../h/Riscv.hpp **** 
 135:src/kernel/../../h/Riscv.hpp **** inline void Riscv::w_scause(uint64 scause) {
 136:src/kernel/../../h/Riscv.hpp ****     __asm__ volatile("csrw scause, %0" : :"r"(scause));
 137:src/kernel/../../h/Riscv.hpp **** }
 138:src/kernel/../../h/Riscv.hpp **** 
 139:src/kernel/../../h/Riscv.hpp **** inline uint64 Riscv::r_sepc() {
 140:src/kernel/../../h/Riscv.hpp ****     uint64 volatile sepc;
 141:src/kernel/../../h/Riscv.hpp ****     __asm__ volatile("csrr %0, sepc" : "=r"(sepc));
 142:src/kernel/../../h/Riscv.hpp ****     return sepc;
 143:src/kernel/../../h/Riscv.hpp **** }
 144:src/kernel/../../h/Riscv.hpp **** 
 145:src/kernel/../../h/Riscv.hpp **** inline void Riscv::w_sepc(uint64 sepc) {
 146:src/kernel/../../h/Riscv.hpp ****     __asm__ volatile("csrw sepc, %0" : :"r"(sepc));
 147:src/kernel/../../h/Riscv.hpp **** }
 148:src/kernel/../../h/Riscv.hpp **** 
 149:src/kernel/../../h/Riscv.hpp **** inline uint64 Riscv::r_stvec() {
 150:src/kernel/../../h/Riscv.hpp ****     uint64 volatile stvec;
 151:src/kernel/../../h/Riscv.hpp ****     __asm__ volatile("csrr %0, stvec" : "=r"(stvec));
 152:src/kernel/../../h/Riscv.hpp ****     return stvec;
 153:src/kernel/../../h/Riscv.hpp **** }
 154:src/kernel/../../h/Riscv.hpp **** 
 155:src/kernel/../../h/Riscv.hpp **** inline void Riscv::w_stvec(uint64 stvec) {
 156:src/kernel/../../h/Riscv.hpp ****     __asm__ volatile("csrw stvec, %0" : :"r"(stvec));
 157:src/kernel/../../h/Riscv.hpp **** }
 158:src/kernel/../../h/Riscv.hpp **** 
GAS LISTING /tmp/cctNXpE4.s 			page 7


 159:src/kernel/../../h/Riscv.hpp **** inline uint64 Riscv::r_stval() {
 160:src/kernel/../../h/Riscv.hpp ****     uint64 volatile stval;
 161:src/kernel/../../h/Riscv.hpp ****     __asm__ volatile("csrr %0, stval" : "=r"(stval));
 162:src/kernel/../../h/Riscv.hpp ****     return stval;
 163:src/kernel/../../h/Riscv.hpp **** }
 164:src/kernel/../../h/Riscv.hpp **** 
 165:src/kernel/../../h/Riscv.hpp **** inline void Riscv::w_sie(uint64 sie)
 166:src/kernel/../../h/Riscv.hpp **** {
 167:src/kernel/../../h/Riscv.hpp ****     __asm__ volatile("csrw sie, %0" : :"r"(sie));
 168:src/kernel/../../h/Riscv.hpp **** }
 169:src/kernel/../../h/Riscv.hpp **** 
 170:src/kernel/../../h/Riscv.hpp **** inline void Riscv::w_stval(uint64 stval) {
 171:src/kernel/../../h/Riscv.hpp ****     __asm__ volatile("csrw stval, %0" : :"r"(stval));
 172:src/kernel/../../h/Riscv.hpp **** }
 173:src/kernel/../../h/Riscv.hpp **** 
 174:src/kernel/../../h/Riscv.hpp **** inline void Riscv::ms_sip(uint64 mask) {
 175:src/kernel/../../h/Riscv.hpp ****     __asm__ volatile("csrs sip, %0" : :"r"(mask));
 176:src/kernel/../../h/Riscv.hpp **** }
 177:src/kernel/../../h/Riscv.hpp **** 
 178:src/kernel/../../h/Riscv.hpp **** inline void Riscv::mc_sip(uint64 mask) {
 179:src/kernel/../../h/Riscv.hpp ****     __asm__ volatile("csrc sip, %0" : :"r"(mask));
 180:src/kernel/../../h/Riscv.hpp **** }
 181:src/kernel/../../h/Riscv.hpp **** 
 182:src/kernel/../../h/Riscv.hpp **** inline uint64 Riscv::r_sie()
 183:src/kernel/../../h/Riscv.hpp **** {
 184:src/kernel/../../h/Riscv.hpp ****     uint64 volatile sie;
 185:src/kernel/../../h/Riscv.hpp ****     __asm__ volatile("csrr %0, sip" : "=r"(sie));
 186:src/kernel/../../h/Riscv.hpp ****     return sie;
 187:src/kernel/../../h/Riscv.hpp **** }
 188:src/kernel/../../h/Riscv.hpp **** 
 189:src/kernel/../../h/Riscv.hpp **** inline void Riscv::ms_sie(uint64 mask)
 190:src/kernel/../../h/Riscv.hpp **** {
 191:src/kernel/../../h/Riscv.hpp ****     __asm__ volatile("csrs sie, %0" : :"r"(mask));
 192:src/kernel/../../h/Riscv.hpp **** }
 193:src/kernel/../../h/Riscv.hpp **** 
 194:src/kernel/../../h/Riscv.hpp **** inline uint64 Riscv::r_sip() {
 195:src/kernel/../../h/Riscv.hpp ****     uint64 volatile sip;
 196:src/kernel/../../h/Riscv.hpp ****     __asm__ volatile("csrr %0, sip" : "=r"(sip));
 197:src/kernel/../../h/Riscv.hpp ****     return sip;
 198:src/kernel/../../h/Riscv.hpp **** }
 199:src/kernel/../../h/Riscv.hpp **** 
 200:src/kernel/../../h/Riscv.hpp **** inline void Riscv::w_sip(uint64 sip) {
 201:src/kernel/../../h/Riscv.hpp ****     __asm__ volatile("csrw sip, %0" : :"r"(sip));
 202:src/kernel/../../h/Riscv.hpp **** }
 203:src/kernel/../../h/Riscv.hpp **** 
 204:src/kernel/../../h/Riscv.hpp **** inline void Riscv::ms_sstatus(uint64 mask) {
 205:src/kernel/../../h/Riscv.hpp ****     __asm__ volatile("csrs sstatus, %0" : :"r"(mask));
  48              		.loc 2 205 5
  49              		.loc 2 205 54 is_stmt 0
  50 0024 93072000 		li	a5,2
  51              	#APP
  52              	# 205 "src/kernel/../../h/Riscv.hpp" 1
 206              	}
  53              		csrs sstatus, a5
  54              	# 0 "" 2
  55              	.LVL1:
  56              	#NO_APP
GAS LISTING /tmp/cctNXpE4.s 			page 8


  57              	.LBE42:
  58              	.LBE41:
 141:src/kernel/Riscv.cpp **** }
  59              		.loc 1 141 1
  60 002c 03348100 		ld	s0,8(sp)
  61              		.cfi_restore 8
  62              		.cfi_def_cfa 2, 16
  63 0030 13010101 		addi	sp,sp,16
  64              		.cfi_def_cfa_offset 0
  65 0034 67800000 		jr	ra
  66              		.cfi_endproc
  67              	.LFE32:
  69              		.align	2
  70              		.globl	_ZN5Riscv17disableInterruptsEv
  72              	_ZN5Riscv17disableInterruptsEv:
  73              	.LFB33:
 142:src/kernel/Riscv.cpp **** 
 143:src/kernel/Riscv.cpp **** void Riscv::disableInterrupts()
 144:src/kernel/Riscv.cpp **** {
  74              		.loc 1 144 1 is_stmt 1
  75              		.cfi_startproc
  76 0038 130101FF 		addi	sp,sp,-16
  77              		.cfi_def_cfa_offset 16
  78 003c 23348100 		sd	s0,8(sp)
  79              		.cfi_offset 8, -8
  80 0040 13040101 		addi	s0,sp,16
  81              		.cfi_def_cfa 8, 0
 145:src/kernel/Riscv.cpp ****     mc_sstatus(Riscv::SSTATUS_SIE);
  82              		.loc 1 145 5
  83              	.LVL2:
  84              	.LBB43:
  85              	.LBB44:
 207:src/kernel/../../h/Riscv.hpp **** 
 208:src/kernel/../../h/Riscv.hpp **** inline void Riscv::mc_sstatus(uint64 mask) {
 209:src/kernel/../../h/Riscv.hpp ****     __asm__ volatile("csrc sstatus, %0" : :"r"(mask));
  86              		.loc 2 209 5
  87              		.loc 2 209 54 is_stmt 0
  88 0044 93072000 		li	a5,2
  89              	#APP
  90              	# 209 "src/kernel/../../h/Riscv.hpp" 1
 210              	}
  91              		csrc sstatus, a5
  92              	# 0 "" 2
  93              	.LVL3:
  94              	#NO_APP
  95              	.LBE44:
  96              	.LBE43:
 146:src/kernel/Riscv.cpp **** }
  97              		.loc 1 146 1
  98 004c 03348100 		ld	s0,8(sp)
  99              		.cfi_restore 8
 100              		.cfi_def_cfa 2, 16
 101 0050 13010101 		addi	sp,sp,16
 102              		.cfi_def_cfa_offset 0
 103 0054 67800000 		jr	ra
 104              		.cfi_endproc
 105              	.LFE33:
GAS LISTING /tmp/cctNXpE4.s 			page 9


 107              		.align	2
 108              		.globl	_ZN5Riscv9endSystemEv
 110              	_ZN5Riscv9endSystemEv:
 111              	.LFB31:
 120:src/kernel/Riscv.cpp ****     disableInterrupts();
 112              		.loc 1 120 1 is_stmt 1
 113              		.cfi_startproc
 114 0058 130101FF 		addi	sp,sp,-16
 115              		.cfi_def_cfa_offset 16
 116 005c 23341100 		sd	ra,8(sp)
 117 0060 23308100 		sd	s0,0(sp)
 118              		.cfi_offset 1, -8
 119              		.cfi_offset 8, -16
 120 0064 13040101 		addi	s0,sp,16
 121              		.cfi_def_cfa 8, 0
 121:src/kernel/Riscv.cpp ****     finishSystem = true;
 122              		.loc 1 121 5
 121:src/kernel/Riscv.cpp ****     finishSystem = true;
 123              		.loc 1 121 22 is_stmt 0
 124 0068 97000000 		call	_ZN5Riscv17disableInterruptsEv
 124      E7800000 
 125              	.LVL4:
 122:src/kernel/Riscv.cpp ****     PCB* pcb = 0;
 126              		.loc 1 122 5 is_stmt 1
 122:src/kernel/Riscv.cpp ****     PCB* pcb = 0;
 127              		.loc 1 122 18 is_stmt 0
 128 0070 93071000 		li	a5,1
 129 0074 17070000 		sb	a5,.LANCHOR0,a4
 129      2300F700 
 123:src/kernel/Riscv.cpp ****     while(true)
 130              		.loc 1 123 5 is_stmt 1
 131              	.LVL5:
 132              	.L8:
 124:src/kernel/Riscv.cpp ****     {
 133              		.loc 1 124 5
 126:src/kernel/Riscv.cpp ****         if(pcb == 0) break;
 134              		.loc 1 126 9
 126:src/kernel/Riscv.cpp ****         if(pcb == 0) break;
 135              		.loc 1 126 29 is_stmt 0
 136 007c 97000000 		call	_ZN9Scheduler3getEv@plt
 136      E7800000 
 137              	.LVL6:
 127:src/kernel/Riscv.cpp ****     }
 138              		.loc 1 127 9 is_stmt 1
 139 0084 E31C05FE 		bnez	a0,.L8
 129:src/kernel/Riscv.cpp ****     KConsole::pendingGetc = 0;
 140              		.loc 1 129 5
 129:src/kernel/Riscv.cpp ****     KConsole::pendingGetc = 0;
 141              		.loc 1 129 19 is_stmt 0
 142 0088 97070000 		la	a5,_ZN3PCB10consolePCBE
 142      83B70700 
 143 0090 03B50700 		ld	a0,0(a5)
 144              	.LVL7:
 145 0094 97000000 		call	_ZN9Scheduler3putEP3PCB@plt
 145      E7800000 
 146              	.LVL8:
 130:src/kernel/Riscv.cpp ****     enableInterrupts();
GAS LISTING /tmp/cctNXpE4.s 			page 10


 147              		.loc 1 130 5 is_stmt 1
 130:src/kernel/Riscv.cpp ****     enableInterrupts();
 148              		.loc 1 130 27 is_stmt 0
 149 009c 97070000 		la	a5,_ZN8KConsole11pendingGetcE
 149      83B70700 
 150 00a4 23B00700 		sd	zero,0(a5)
 131:src/kernel/Riscv.cpp ****     while(!PCB::consolePCB->isFinished())
 151              		.loc 1 131 5 is_stmt 1
 131:src/kernel/Riscv.cpp ****     while(!PCB::consolePCB->isFinished())
 152              		.loc 1 131 21 is_stmt 0
 153 00a8 97000000 		call	_ZN5Riscv16enableInterruptsEv
 153      E7800000 
 154              	.LVL9:
 155              	.L10:
 132:src/kernel/Riscv.cpp ****     {
 156              		.loc 1 132 5 is_stmt 1
 132:src/kernel/Riscv.cpp ****     {
 157              		.loc 1 132 11
 132:src/kernel/Riscv.cpp ****     {
 158              		.loc 1 132 39 is_stmt 0
 159 00b0 97070000 		la	a5,_ZN3PCB10consolePCBE
 159      83B70700 
 160 00b8 03B50700 		ld	a0,0(a5)
 161 00bc 97000000 		call	_ZN3PCB10isFinishedEv@plt
 161      E7800000 
 162              	.LVL10:
 132:src/kernel/Riscv.cpp ****     {
 163              		.loc 1 132 11
 164 00c4 63180500 		bnez	a0,.L9
 134:src/kernel/Riscv.cpp ****     }
 165              		.loc 1 134 9 is_stmt 1
 134:src/kernel/Riscv.cpp ****     }
 166              		.loc 1 134 31 is_stmt 0
 167 00c8 97000000 		call	_Z22thread_dispatch_kernelv@plt
 167      E7800000 
 168              	.LVL11:
 132:src/kernel/Riscv.cpp ****     {
 169              		.loc 1 132 5
 170 00d0 6FF01FFE 		j	.L10
 171              	.L9:
 136:src/kernel/Riscv.cpp **** }
 172              		.loc 1 136 5 is_stmt 1
 136:src/kernel/Riscv.cpp **** }
 173              		.loc 1 136 22 is_stmt 0
 174 00d4 97000000 		call	_ZN5Riscv17disableInterruptsEv
 174      E7800000 
 175              	.LVL12:
 137:src/kernel/Riscv.cpp **** 
 176              		.loc 1 137 1
 177 00dc 83308100 		ld	ra,8(sp)
 178              		.cfi_restore 1
 179 00e0 03340100 		ld	s0,0(sp)
 180              		.cfi_restore 8
 181              		.cfi_def_cfa 2, 16
 182 00e4 13010101 		addi	sp,sp,16
 183              		.cfi_def_cfa_offset 0
 184 00e8 67800000 		jr	ra
GAS LISTING /tmp/cctNXpE4.s 			page 11


 185              		.cfi_endproc
 186              	.LFE31:
 188              		.align	2
 189              		.globl	_ZN5Riscv10popSppSpieEv
 191              	_ZN5Riscv10popSppSpieEv:
 192              	.LFB34:
 147:src/kernel/Riscv.cpp **** 
 148:src/kernel/Riscv.cpp **** void Riscv::popSppSpie()
 149:src/kernel/Riscv.cpp **** {
 193              		.loc 1 149 1 is_stmt 1
 194              		.cfi_startproc
 195 00ec 130101FF 		addi	sp,sp,-16
 196              		.cfi_def_cfa_offset 16
 197 00f0 23348100 		sd	s0,8(sp)
 198              		.cfi_offset 8, -8
 199 00f4 13040101 		addi	s0,sp,16
 200              		.cfi_def_cfa 8, 0
 150:src/kernel/Riscv.cpp ****     if(PCB::running->systemThread) {
 201              		.loc 1 150 5
 202              	.LBB45:
 203              		.loc 1 150 22 is_stmt 0
 204 00f8 97070000 		la	a5,_ZN3PCB7runningE
 204      83B70700 
 205 0100 83B70700 		ld	a5,0(a5)
 206 0104 03C70700 		lbu	a4,0(a5)
 207              		.loc 1 150 5
 208 0108 630C0700 		beqz	a4,.L13
 151:src/kernel/Riscv.cpp ****         __asm__ volatile ("csrw sepc, ra");
 209              		.loc 1 151 9 is_stmt 1
 210              		.loc 1 151 43 is_stmt 0
 211              	#APP
 212              	# 151 "src/kernel/Riscv.cpp" 1
 152              	        __asm__ volatile ("sret");
 213              		csrw sepc, ra
 214              	# 0 "" 2
 215              		.loc 1 152 9 is_stmt 1
 216              		.loc 1 152 34 is_stmt 0
 217              	# 152 "src/kernel/Riscv.cpp" 1
 153              	    }
 218              		sret
 219              	# 0 "" 2
 220              	#NO_APP
 221              	.L12:
 222              	.LBE45:
 154:src/kernel/Riscv.cpp ****     else
 155:src/kernel/Riscv.cpp ****     {
 156:src/kernel/Riscv.cpp ****         size_t ra = (size_t)&PCBWrapperUser::wrapperUser;
 157:src/kernel/Riscv.cpp ****         __asm__ volatile("mv a0, %0"::"r"((size_t)PCB::running->body));
 158:src/kernel/Riscv.cpp ****         __asm__ volatile("mv a1, %0"::"r"((size_t)PCB::running->args));
 159:src/kernel/Riscv.cpp ****         __asm__ volatile("csrw sepc, %0"::"r"(ra));
 160:src/kernel/Riscv.cpp ****         __asm__ volatile ("sret");
 161:src/kernel/Riscv.cpp ****     }
 162:src/kernel/Riscv.cpp **** }
 223              		.loc 1 162 1
 224 0114 03348100 		ld	s0,8(sp)
 225              		.cfi_remember_state
 226              		.cfi_restore 8
GAS LISTING /tmp/cctNXpE4.s 			page 12


 227              		.cfi_def_cfa 2, 16
 228 0118 13010101 		addi	sp,sp,16
 229              		.cfi_def_cfa_offset 0
 230 011c 67800000 		jr	ra
 231              	.L13:
 232              		.cfi_restore_state
 233              	.LBB47:
 234              	.LBB46:
 156:src/kernel/Riscv.cpp ****         __asm__ volatile("mv a0, %0"::"r"((size_t)PCB::running->body));
 235              		.loc 1 156 9 is_stmt 1
 236              	.LVL13:
 157:src/kernel/Riscv.cpp ****         __asm__ volatile("mv a1, %0"::"r"((size_t)PCB::running->args));
 237              		.loc 1 157 9
 157:src/kernel/Riscv.cpp ****         __asm__ volatile("mv a1, %0"::"r"((size_t)PCB::running->args));
 238              		.loc 1 157 65 is_stmt 0
 239 0120 03B78702 		ld	a4,40(a5)
 157:src/kernel/Riscv.cpp ****         __asm__ volatile("mv a1, %0"::"r"((size_t)PCB::running->args));
 240              		.loc 1 157 71
 241              	#APP
 242              	# 157 "src/kernel/Riscv.cpp" 1
 158:src/kernel/Riscv.cpp ****         __asm__ volatile("csrw sepc, %0"::"r"(ra));
 243              		mv a0, a4
 244              	# 0 "" 2
 245              		.loc 1 158 9 is_stmt 1
 158:src/kernel/Riscv.cpp ****         __asm__ volatile("csrw sepc, %0"::"r"(ra));
 246              		.loc 1 158 65 is_stmt 0
 247              	#NO_APP
 248 0128 83B70703 		ld	a5,48(a5)
 158:src/kernel/Riscv.cpp ****         __asm__ volatile("csrw sepc, %0"::"r"(ra));
 249              		.loc 1 158 71
 250              	#APP
 251              	# 158 "src/kernel/Riscv.cpp" 1
 159:src/kernel/Riscv.cpp ****         __asm__ volatile ("sret");
 252              		mv a1, a5
 253              	# 0 "" 2
 254              		.loc 1 159 9 is_stmt 1
 159:src/kernel/Riscv.cpp ****         __asm__ volatile ("sret");
 255              		.loc 1 159 51 is_stmt 0
 256              	#NO_APP
 257 0130 97070000 		la	a5,_ZN14PCBWrapperUser11wrapperUserEPFvPvES0_
 257      83B70700 
 258              	#APP
 259              	# 159 "src/kernel/Riscv.cpp" 1
 160:src/kernel/Riscv.cpp ****     }
 260              		csrw sepc, a5
 261              	# 0 "" 2
 262              		.loc 1 160 9 is_stmt 1
 160:src/kernel/Riscv.cpp ****     }
 263              		.loc 1 160 34 is_stmt 0
 264              	# 160 "src/kernel/Riscv.cpp" 1
 265              		sret
 266              	# 0 "" 2
 267              	#NO_APP
 268              	.LBE46:
 269              	.LBE47:
 270              		.loc 1 162 1
 271 0140 6FF05FFD 		j	.L12
GAS LISTING /tmp/cctNXpE4.s 			page 13


 272              		.cfi_endproc
 273              	.LFE34:
 275              		.align	2
 276              		.globl	_ZN5Riscv14setVirtualAddrEmmm
 278              	_ZN5Riscv14setVirtualAddrEmmm:
 279              	.LFB35:
 163:src/kernel/Riscv.cpp **** 
 164:src/kernel/Riscv.cpp **** void Riscv::setVirtualAddr(size_t addr, size_t mask, size_t maskLeaf)
 165:src/kernel/Riscv.cpp **** {
 280              		.loc 1 165 1 is_stmt 1
 281              		.cfi_startproc
 282              	.LVL14:
 283 0144 130101FB 		addi	sp,sp,-80
 284              		.cfi_def_cfa_offset 80
 285 0148 23341104 		sd	ra,72(sp)
 286 014c 23308104 		sd	s0,64(sp)
 287 0150 233C9102 		sd	s1,56(sp)
 288 0154 23382103 		sd	s2,48(sp)
 289 0158 23343103 		sd	s3,40(sp)
 290 015c 23304103 		sd	s4,32(sp)
 291 0160 233C5101 		sd	s5,24(sp)
 292 0164 23386101 		sd	s6,16(sp)
 293 0168 23347101 		sd	s7,8(sp)
 294              		.cfi_offset 1, -8
 295              		.cfi_offset 8, -16
 296              		.cfi_offset 9, -24
 297              		.cfi_offset 18, -32
 298              		.cfi_offset 19, -40
 299              		.cfi_offset 20, -48
 300              		.cfi_offset 21, -56
 301              		.cfi_offset 22, -64
 302              		.cfi_offset 23, -72
 303 016c 13040105 		addi	s0,sp,80
 304              		.cfi_def_cfa 8, 0
 305 0170 93890500 		mv	s3,a1
 306 0174 130A0600 		mv	s4,a2
 166:src/kernel/Riscv.cpp ****     size_t l2 = addr >> 30;
 307              		.loc 1 166 5
 308              		.loc 1 166 12 is_stmt 0
 309 0178 935BE501 		srli	s7,a0,30
 310              	.LVL15:
 167:src/kernel/Riscv.cpp ****     size_t l1 = (addr >> 21) & (0x1ff);
 311              		.loc 1 167 5 is_stmt 1
 312              		.loc 1 167 23 is_stmt 0
 313 017c 135B5501 		srli	s6,a0,21
 314              		.loc 1 167 12
 315 0180 137BFB1F 		andi	s6,s6,511
 316              	.LVL16:
 168:src/kernel/Riscv.cpp ****     size_t l0 = (addr >> 12) & (0x1ff);
 317              		.loc 1 168 5 is_stmt 1
 318              		.loc 1 168 23 is_stmt 0
 319 0184 9354C500 		srli	s1,a0,12
 320              		.loc 1 168 12
 321 0188 13F9F41F 		andi	s2,s1,511
 322              	.LVL17:
 169:src/kernel/Riscv.cpp ****     size_t pmt2Desc = ((size_t*)mainPMT)[l2];
 323              		.loc 1 169 5 is_stmt 1
GAS LISTING /tmp/cctNXpE4.s 			page 14


 324              		.loc 1 169 44 is_stmt 0
 325 018c 939B3B00 		slli	s7,s7,3
 326              	.LVL18:
 327 0190 97070000 		ld	a5,.LANCHOR0+8
 327      83B70700 
 328 0198 B3877701 		add	a5,a5,s7
 329              		.loc 1 169 12
 330 019c 03B50700 		ld	a0,0(a5)
 331              	.LVL19:
 170:src/kernel/Riscv.cpp ****     void* pmt1 = nullptr;
 332              		.loc 1 170 5 is_stmt 1
 171:src/kernel/Riscv.cpp ****     if(pmt2Desc == 0)
 333              		.loc 1 171 5
 334              	.LBB48:
 335 01a0 63060506 		beqz	a0,.L27
 172:src/kernel/Riscv.cpp ****     {
 173:src/kernel/Riscv.cpp ****         pmt1 = buddy_alloc(1);
 174:src/kernel/Riscv.cpp ****         for(int i = 0; i < NUM_OF_ENTRIES;i++)
 175:src/kernel/Riscv.cpp ****         {
 176:src/kernel/Riscv.cpp ****             ((size_t*)pmt1)[i] = 0;
 177:src/kernel/Riscv.cpp ****         }
 178:src/kernel/Riscv.cpp ****         size_t newDesc = (((size_t)pmt1 >> 12) << 10) | mask;
 179:src/kernel/Riscv.cpp ****         ((size_t*)mainPMT)[l2] = newDesc;
 180:src/kernel/Riscv.cpp ****     }
 181:src/kernel/Riscv.cpp ****     else
 182:src/kernel/Riscv.cpp ****     {
 183:src/kernel/Riscv.cpp ****         pmt1 = (void*)((pmt2Desc >> 10) << 12);
 336              		.loc 1 183 9
 337              		.loc 1 183 34 is_stmt 0
 338 01a4 1355A500 		srli	a0,a0,10
 339              	.LVL20:
 340              		.loc 1 183 41
 341 01a8 1315C500 		slli	a0,a0,12
 342              	.LVL21:
 343              	.L20:
 344              	.LBE48:
 184:src/kernel/Riscv.cpp ****     }
 185:src/kernel/Riscv.cpp ****     size_t pmt1Desc = ((size_t*)pmt1)[l1];
 345              		.loc 1 185 5 is_stmt 1
 346              		.loc 1 185 41 is_stmt 0
 347 01ac 931A3B00 		slli	s5,s6,3
 348 01b0 B30A5501 		add	s5,a0,s5
 349              		.loc 1 185 12
 350 01b4 03B50A00 		ld	a0,0(s5)
 351              	.LVL22:
 186:src/kernel/Riscv.cpp ****     void* pmt0 = nullptr;
 352              		.loc 1 186 5 is_stmt 1
 187:src/kernel/Riscv.cpp ****     if(pmt1Desc == 0)
 353              		.loc 1 187 5
 354              	.LBB51:
 355 01b8 6300050A 		beqz	a0,.L28
 188:src/kernel/Riscv.cpp ****     {
 189:src/kernel/Riscv.cpp ****         pmt0 = buddy_alloc(1);
 190:src/kernel/Riscv.cpp ****         for(int i = 0; i < NUM_OF_ENTRIES;i++)
 191:src/kernel/Riscv.cpp ****         {
 192:src/kernel/Riscv.cpp ****             ((size_t*)pmt0)[i] = 0;
 193:src/kernel/Riscv.cpp ****         }
GAS LISTING /tmp/cctNXpE4.s 			page 15


 194:src/kernel/Riscv.cpp ****         size_t newDesc = (((size_t)pmt0 >> 12) << 10) | mask;
 195:src/kernel/Riscv.cpp ****         ((size_t*)pmt1)[l1] = newDesc;
 196:src/kernel/Riscv.cpp ****     }
 197:src/kernel/Riscv.cpp ****     else
 198:src/kernel/Riscv.cpp ****     {
 199:src/kernel/Riscv.cpp ****         pmt0 = (void*)((pmt1Desc >> 10) << 12);
 356              		.loc 1 199 9
 357              		.loc 1 199 34 is_stmt 0
 358 01bc 1355A500 		srli	a0,a0,10
 359              	.LVL23:
 360              		.loc 1 199 41
 361 01c0 1315C500 		slli	a0,a0,12
 362              	.LVL24:
 363              	.L24:
 364              	.LBE51:
 200:src/kernel/Riscv.cpp ****     }
 201:src/kernel/Riscv.cpp **** 
 202:src/kernel/Riscv.cpp ****     size_t pmt0Desc = ((size_t*)pmt0)[l0];
 365              		.loc 1 202 5 is_stmt 1
 366              		.loc 1 202 41 is_stmt 0
 367 01c4 13193900 		slli	s2,s2,3
 368              	.LVL25:
 369 01c8 33052501 		add	a0,a0,s2
 370              	.LVL26:
 371              		.loc 1 202 12
 372 01cc 83370500 		ld	a5,0(a0)
 373              	.LVL27:
 203:src/kernel/Riscv.cpp ****     if(pmt0Desc == 0)
 374              		.loc 1 203 5 is_stmt 1
 375 01d0 63980700 		bnez	a5,.L16
 204:src/kernel/Riscv.cpp ****     {
 205:src/kernel/Riscv.cpp ****         ((size_t*)pmt0)[l0] = ((addr >> 12) << 10) | maskLeaf;
 376              		.loc 1 205 9
 377              		.loc 1 205 45 is_stmt 0
 378 01d4 9394A400 		slli	s1,s1,10
 379              	.LVL28:
 380              		.loc 1 205 52
 381 01d8 33EA4401 		or	s4,s1,s4
 382              	.LVL29:
 383              		.loc 1 205 29
 384 01dc 23304501 		sd	s4,0(a0)
 385              	.L16:
 206:src/kernel/Riscv.cpp ****     }
 207:src/kernel/Riscv.cpp **** }
 386              		.loc 1 207 1
 387 01e0 83308104 		ld	ra,72(sp)
 388              		.cfi_remember_state
 389              		.cfi_restore 1
 390 01e4 03340104 		ld	s0,64(sp)
 391              		.cfi_restore 8
 392              		.cfi_def_cfa 2, 80
 393 01e8 83348103 		ld	s1,56(sp)
 394              		.cfi_restore 9
 395 01ec 03390103 		ld	s2,48(sp)
 396              		.cfi_restore 18
 397 01f0 83398102 		ld	s3,40(sp)
 398              		.cfi_restore 19
GAS LISTING /tmp/cctNXpE4.s 			page 16


 399 01f4 033A0102 		ld	s4,32(sp)
 400              		.cfi_restore 20
 401 01f8 833A8101 		ld	s5,24(sp)
 402              		.cfi_restore 21
 403 01fc 033B0101 		ld	s6,16(sp)
 404              		.cfi_restore 22
 405              	.LVL30:
 406 0200 833B8100 		ld	s7,8(sp)
 407              		.cfi_restore 23
 408 0204 13010105 		addi	sp,sp,80
 409              		.cfi_def_cfa_offset 0
 410 0208 67800000 		jr	ra
 411              	.LVL31:
 412              	.L27:
 413              		.cfi_restore_state
 414              	.LBB54:
 415              	.LBB49:
 173:src/kernel/Riscv.cpp ****         for(int i = 0; i < NUM_OF_ENTRIES;i++)
 416              		.loc 1 173 9 is_stmt 1
 173:src/kernel/Riscv.cpp ****         for(int i = 0; i < NUM_OF_ENTRIES;i++)
 417              		.loc 1 173 27 is_stmt 0
 418 020c 13051000 		li	a0,1
 419              	.LVL32:
 420 0210 97000000 		call	_Z11buddy_allocm@plt
 420      E7800000 
 421              	.LVL33:
 174:src/kernel/Riscv.cpp ****         {
 422              		.loc 1 174 9 is_stmt 1
 423              	.LBB50:
 174:src/kernel/Riscv.cpp ****         {
 424              		.loc 1 174 17 is_stmt 0
 425 0218 93070000 		li	a5,0
 426              	.LVL34:
 427              	.L19:
 174:src/kernel/Riscv.cpp ****         {
 428              		.loc 1 174 26 is_stmt 1 discriminator 3
 429 021c 1307F01F 		li	a4,511
 430 0220 634CF700 		bgt	a5,a4,.L18
 176:src/kernel/Riscv.cpp ****         }
 431              		.loc 1 176 13 discriminator 2
 176:src/kernel/Riscv.cpp ****         }
 432              		.loc 1 176 30 is_stmt 0 discriminator 2
 433 0224 13973700 		slli	a4,a5,3
 434 0228 3307E500 		add	a4,a0,a4
 176:src/kernel/Riscv.cpp ****         }
 435              		.loc 1 176 32 discriminator 2
 436 022c 23300700 		sd	zero,0(a4)
 174:src/kernel/Riscv.cpp ****         {
 437              		.loc 1 174 9 is_stmt 1 discriminator 2
 438 0230 9B871700 		addiw	a5,a5,1
 439              	.LVL35:
 440 0234 6FF09FFE 		j	.L19
 441              	.LVL36:
 442              	.L18:
 443              	.LBE50:
 178:src/kernel/Riscv.cpp ****         ((size_t*)mainPMT)[l2] = newDesc;
 444              		.loc 1 178 9
GAS LISTING /tmp/cctNXpE4.s 			page 17


 178:src/kernel/Riscv.cpp ****         ((size_t*)mainPMT)[l2] = newDesc;
 445              		.loc 1 178 41 is_stmt 0
 446 0238 9357C500 		srli	a5,a0,12
 447              	.LVL37:
 178:src/kernel/Riscv.cpp ****         ((size_t*)mainPMT)[l2] = newDesc;
 448              		.loc 1 178 48
 449 023c 9397A700 		slli	a5,a5,10
 178:src/kernel/Riscv.cpp ****         ((size_t*)mainPMT)[l2] = newDesc;
 450              		.loc 1 178 16
 451 0240 B3E73701 		or	a5,a5,s3
 452              	.LVL38:
 179:src/kernel/Riscv.cpp ****     }
 453              		.loc 1 179 9 is_stmt 1
 179:src/kernel/Riscv.cpp ****     }
 454              		.loc 1 179 10 is_stmt 0
 455 0244 17070000 		ld	a4,.LANCHOR0+8
 455      03370700 
 179:src/kernel/Riscv.cpp ****     }
 456              		.loc 1 179 30
 457 024c B30B7701 		add	s7,a4,s7
 179:src/kernel/Riscv.cpp ****     }
 458              		.loc 1 179 32
 459 0250 23B0FB00 		sd	a5,0(s7)
 460              	.LBE49:
 461 0254 6FF09FF5 		j	.L20
 462              	.LVL39:
 463              	.L28:
 464              	.LBE54:
 465              	.LBB55:
 466              	.LBB52:
 189:src/kernel/Riscv.cpp ****         for(int i = 0; i < NUM_OF_ENTRIES;i++)
 467              		.loc 1 189 9 is_stmt 1
 189:src/kernel/Riscv.cpp ****         for(int i = 0; i < NUM_OF_ENTRIES;i++)
 468              		.loc 1 189 27 is_stmt 0
 469 0258 13051000 		li	a0,1
 470              	.LVL40:
 471 025c 97000000 		call	_Z11buddy_allocm@plt
 471      E7800000 
 472              	.LVL41:
 190:src/kernel/Riscv.cpp ****         {
 473              		.loc 1 190 9 is_stmt 1
 474              	.LBB53:
 190:src/kernel/Riscv.cpp ****         {
 475              		.loc 1 190 17 is_stmt 0
 476 0264 93070000 		li	a5,0
 477              	.LVL42:
 478              	.L23:
 190:src/kernel/Riscv.cpp ****         {
 479              		.loc 1 190 26 is_stmt 1 discriminator 3
 480 0268 1307F01F 		li	a4,511
 481 026c 634CF700 		bgt	a5,a4,.L22
 192:src/kernel/Riscv.cpp ****         }
 482              		.loc 1 192 13 discriminator 2
 192:src/kernel/Riscv.cpp ****         }
 483              		.loc 1 192 30 is_stmt 0 discriminator 2
 484 0270 13973700 		slli	a4,a5,3
 485 0274 3307E500 		add	a4,a0,a4
GAS LISTING /tmp/cctNXpE4.s 			page 18


 192:src/kernel/Riscv.cpp ****         }
 486              		.loc 1 192 32 discriminator 2
 487 0278 23300700 		sd	zero,0(a4)
 190:src/kernel/Riscv.cpp ****         {
 488              		.loc 1 190 9 is_stmt 1 discriminator 2
 489 027c 9B871700 		addiw	a5,a5,1
 490              	.LVL43:
 491 0280 6FF09FFE 		j	.L23
 492              	.LVL44:
 493              	.L22:
 494              	.LBE53:
 194:src/kernel/Riscv.cpp ****         ((size_t*)pmt1)[l1] = newDesc;
 495              		.loc 1 194 9
 194:src/kernel/Riscv.cpp ****         ((size_t*)pmt1)[l1] = newDesc;
 496              		.loc 1 194 41 is_stmt 0
 497 0284 9357C500 		srli	a5,a0,12
 498              	.LVL45:
 194:src/kernel/Riscv.cpp ****         ((size_t*)pmt1)[l1] = newDesc;
 499              		.loc 1 194 48
 500 0288 9397A700 		slli	a5,a5,10
 194:src/kernel/Riscv.cpp ****         ((size_t*)pmt1)[l1] = newDesc;
 501              		.loc 1 194 16
 502 028c B3E93701 		or	s3,a5,s3
 503              	.LVL46:
 195:src/kernel/Riscv.cpp ****     }
 504              		.loc 1 195 9 is_stmt 1
 195:src/kernel/Riscv.cpp ****     }
 505              		.loc 1 195 29 is_stmt 0
 506 0290 23B03A01 		sd	s3,0(s5)
 507              	.LBE52:
 508 0294 6FF01FF3 		j	.L24
 509              	.LBE55:
 510              		.cfi_endproc
 511              	.LFE35:
 513              		.align	2
 514              		.globl	_ZN5Riscv19setVirtualAddrRangeEmmi
 516              	_ZN5Riscv19setVirtualAddrRangeEmmi:
 517              	.LFB28:
  46:src/kernel/Riscv.cpp ****     for(size_t i = startAddr; i < endAddr; i+=BLOCK_NUM_OF_BYTES)
 518              		.loc 1 46 1 is_stmt 1
 519              		.cfi_startproc
 520              	.LVL47:
 521 0298 130101FD 		addi	sp,sp,-48
 522              		.cfi_def_cfa_offset 48
 523 029c 23341102 		sd	ra,40(sp)
 524 02a0 23308102 		sd	s0,32(sp)
 525 02a4 233C9100 		sd	s1,24(sp)
 526 02a8 23382101 		sd	s2,16(sp)
 527 02ac 23343101 		sd	s3,8(sp)
 528              		.cfi_offset 1, -8
 529              		.cfi_offset 8, -16
 530              		.cfi_offset 9, -24
 531              		.cfi_offset 18, -32
 532              		.cfi_offset 19, -40
 533 02b0 13040103 		addi	s0,sp,48
 534              		.cfi_def_cfa 8, 0
 535 02b4 93040500 		mv	s1,a0
GAS LISTING /tmp/cctNXpE4.s 			page 19


 536 02b8 13890500 		mv	s2,a1
 537 02bc 93090600 		mv	s3,a2
  47:src/kernel/Riscv.cpp ****     {
 538              		.loc 1 47 5
 539              	.LVL48:
 540              	.L31:
 541              	.LBB56:
  47:src/kernel/Riscv.cpp ****     {
 542              		.loc 1 47 33 discriminator 3
 543 02c0 63F22403 		bgeu	s1,s2,.L29
  49:src/kernel/Riscv.cpp ****     }
 544              		.loc 1 49 9 discriminator 2
  49:src/kernel/Riscv.cpp ****     }
 545              		.loc 1 49 23 is_stmt 0 discriminator 2
 546 02c4 13860900 		mv	a2,s3
 547 02c8 93051000 		li	a1,1
 548 02cc 13850400 		mv	a0,s1
 549 02d0 97000000 		call	_ZN5Riscv14setVirtualAddrEmmm
 549      E7800000 
 550              	.LVL49:
  47:src/kernel/Riscv.cpp ****     {
 551              		.loc 1 47 5 is_stmt 1 discriminator 2
  47:src/kernel/Riscv.cpp ****     {
 552              		.loc 1 47 45 is_stmt 0 discriminator 2
 553 02d8 B7170000 		li	a5,4096
 554 02dc B384F400 		add	s1,s1,a5
 555              	.LVL50:
  47:src/kernel/Riscv.cpp ****     {
 556              		.loc 1 47 5 discriminator 2
 557 02e0 6FF01FFE 		j	.L31
 558              	.L29:
 559              	.LBE56:
  52:src/kernel/Riscv.cpp **** void Riscv::initSystem()
 560              		.loc 1 52 1
 561 02e4 83308102 		ld	ra,40(sp)
 562              		.cfi_restore 1
 563 02e8 03340102 		ld	s0,32(sp)
 564              		.cfi_restore 8
 565              		.cfi_def_cfa 2, 48
 566 02ec 83348101 		ld	s1,24(sp)
 567              		.cfi_restore 9
 568              	.LVL51:
 569 02f0 03390101 		ld	s2,16(sp)
 570              		.cfi_restore 18
 571              	.LVL52:
 572 02f4 83398100 		ld	s3,8(sp)
 573              		.cfi_restore 19
 574 02f8 13010103 		addi	sp,sp,48
 575              		.cfi_def_cfa_offset 0
 576 02fc 67800000 		jr	ra
 577              		.cfi_endproc
 578              	.LFE28:
 580              		.section	.rodata.str1.8,"aMS",@progbits,1
 581              		.align	3
 582              	.LC0:
 583 0000 43616368 		.string	"Cache of PCBs"
 583      65206F66 
GAS LISTING /tmp/cctNXpE4.s 			page 20


 583      20504342 
 583      7300
 584 000e 0000     		.align	3
 585              	.LC1:
 586 0010 43616368 		.string	"Cache of KSemaphore"
 586      65206F66 
 586      204B5365 
 586      6D617068 
 586      6F726500 
 587 0024 00000000 		.align	3
 588              	.LC2:
 589 0028 6D61696E 		.string	"main PMT "
 589      20504D54 
 589      2000
 590              		.text
 591              		.align	2
 592              		.globl	_ZN5Riscv10initSystemEv
 594              	_ZN5Riscv10initSystemEv:
 595              	.LFB29:
  54:src/kernel/Riscv.cpp ****     w_stvec((uint64)&Riscv::supervisorTrap);
 596              		.loc 1 54 1 is_stmt 1
 597              		.cfi_startproc
 598 0300 130101FC 		addi	sp,sp,-64
 599              		.cfi_def_cfa_offset 64
 600 0304 233C1102 		sd	ra,56(sp)
 601 0308 23388102 		sd	s0,48(sp)
 602 030c 23349102 		sd	s1,40(sp)
 603 0310 23302103 		sd	s2,32(sp)
 604 0314 233C3101 		sd	s3,24(sp)
 605 0318 23384101 		sd	s4,16(sp)
 606 031c 23345101 		sd	s5,8(sp)
 607 0320 23306101 		sd	s6,0(sp)
 608              		.cfi_offset 1, -8
 609              		.cfi_offset 8, -16
 610              		.cfi_offset 9, -24
 611              		.cfi_offset 18, -32
 612              		.cfi_offset 19, -40
 613              		.cfi_offset 20, -48
 614              		.cfi_offset 21, -56
 615              		.cfi_offset 22, -64
 616 0324 13040104 		addi	s0,sp,64
 617              		.cfi_def_cfa 8, 0
  55:src/kernel/Riscv.cpp **** 
 618              		.loc 1 55 5
  55:src/kernel/Riscv.cpp **** 
 619              		.loc 1 55 12 is_stmt 0
 620 0328 97070000 		la	a5,_ZN5Riscv14supervisorTrapEv
 620      83B70700 
 621              	.LVL53:
 622              	.LBB57:
 623              	.LBB58:
 156:src/kernel/../../h/Riscv.hpp **** }
 624              		.loc 2 156 5 is_stmt 1
 156:src/kernel/../../h/Riscv.hpp **** }
 625              		.loc 2 156 53 is_stmt 0
 626              	#APP
 627              	# 156 "src/kernel/../../h/Riscv.hpp" 1
GAS LISTING /tmp/cctNXpE4.s 			page 21


 628              		csrw stvec, a5
 629              	# 0 "" 2
 630              	.LVL54:
 631              	#NO_APP
 632              	.LBE58:
 633              	.LBE57:
  57:src/kernel/Riscv.cpp **** 
 634              		.loc 1 57 5 is_stmt 1
  57:src/kernel/Riscv.cpp **** 
 635              		.loc 1 57 41 is_stmt 0
 636 0334 17090000 		la	s2,HEAP_START_ADDR
 636      03390900 
 637 033c 03350900 		ld	a0,0(s2)
 638 0340 97000000 		call	_Z12getBlockAddrm@plt
 638      E7800000 
 639              	.LVL55:
  59:src/kernel/Riscv.cpp **** 
 640              		.loc 1 59 5 is_stmt 1
  61:src/kernel/Riscv.cpp ****     MemoryAllocator::initMemory(newStartAddr);
 641              		.loc 1 61 5
  61:src/kernel/Riscv.cpp ****     MemoryAllocator::initMemory(newStartAddr);
 642              		.loc 1 61 49 is_stmt 0
 643 0348 B7170001 		li	a5,16781312
 644 034c B304F500 		add	s1,a0,a5
 645              	.LVL56:
  62:src/kernel/Riscv.cpp **** 
 646              		.loc 1 62 5 is_stmt 1
  62:src/kernel/Riscv.cpp **** 
 647              		.loc 1 62 32 is_stmt 0
 648 0350 13850400 		mv	a0,s1
 649              	.LVL57:
 650 0354 97000000 		call	_ZN15MemoryAllocator10initMemoryEPv@plt
 650      E7800000 
 651              	.LVL58:
  64:src/kernel/Riscv.cpp ****     pcbCache = kmem_cache_create("Cache of PCBs", sizeof(PCB), nullptr, nullptr);
 652              		.loc 1 64 5 is_stmt 1
  64:src/kernel/Riscv.cpp ****     pcbCache = kmem_cache_create("Cache of PCBs", sizeof(PCB), nullptr, nullptr);
 653              		.loc 1 64 14 is_stmt 0
 654 035c B7150000 		li	a1,4096
 655 0360 93851500 		addi	a1,a1,1
 656 0364 03350900 		ld	a0,0(s2)
 657 0368 97000000 		call	_Z9kmem_initPvi@plt
 657      E7800000 
 658              	.LVL59:
  65:src/kernel/Riscv.cpp ****     semaphoreCache = kmem_cache_create("Cache of KSemaphore", sizeof(KSemaphore), nullptr, nullptr)
 659              		.loc 1 65 5 is_stmt 1
  65:src/kernel/Riscv.cpp ****     semaphoreCache = kmem_cache_create("Cache of KSemaphore", sizeof(KSemaphore), nullptr, nullptr)
 660              		.loc 1 65 33 is_stmt 0
 661 0370 93060000 		li	a3,0
 662 0374 13060000 		li	a2,0
 663 0378 93050006 		li	a1,96
 664 037c 17050000 		lla	a0,.LC0
 664      13050500 
 665 0384 97000000 		call	_Z17kmem_cache_createPKcmPFvPvES3_@plt
 665      E7800000 
 666              	.LVL60:
  65:src/kernel/Riscv.cpp ****     semaphoreCache = kmem_cache_create("Cache of KSemaphore", sizeof(KSemaphore), nullptr, nullptr)
GAS LISTING /tmp/cctNXpE4.s 			page 22


 667              		.loc 1 65 14
 668 038c 17090000 		lla	s2,.LANCHOR0
 668      13090900 
 669 0394 2338A900 		sd	a0,16(s2)
  66:src/kernel/Riscv.cpp **** 
 670              		.loc 1 66 5 is_stmt 1
  66:src/kernel/Riscv.cpp **** 
 671              		.loc 1 66 39 is_stmt 0
 672 0398 93060000 		li	a3,0
 673 039c 13060000 		li	a2,0
 674 03a0 93058001 		li	a1,24
 675 03a4 17050000 		lla	a0,.LC1
 675      13050500 
 676 03ac 97000000 		call	_Z17kmem_cache_createPKcmPFvPvES3_@plt
 676      E7800000 
 677              	.LVL61:
  66:src/kernel/Riscv.cpp **** 
 678              		.loc 1 66 20
 679 03b4 233CA900 		sd	a0,24(s2)
  68:src/kernel/Riscv.cpp ****     KConsole::initialize();
 680              		.loc 1 68 5 is_stmt 1
  68:src/kernel/Riscv.cpp ****     KConsole::initialize();
 681              		.loc 1 68 20 is_stmt 0
 682 03b8 97000000 		call	_ZN3PCB10initializeEv@plt
 682      E7800000 
 683              	.LVL62:
  69:src/kernel/Riscv.cpp **** 
 684              		.loc 1 69 5 is_stmt 1
  69:src/kernel/Riscv.cpp **** 
 685              		.loc 1 69 25 is_stmt 0
 686 03c0 97000000 		call	_ZN8KConsole10initializeEv@plt
 686      E7800000 
 687              	.LVL63:
  71:src/kernel/Riscv.cpp ****     for(size_t i = 0; i < NUM_OF_ENTRIES;i++)
 688              		.loc 1 71 5 is_stmt 1
  71:src/kernel/Riscv.cpp ****     for(size_t i = 0; i < NUM_OF_ENTRIES;i++)
 689              		.loc 1 71 26 is_stmt 0
 690 03c8 13051000 		li	a0,1
 691 03cc 97000000 		call	_Z11buddy_allocm@plt
 691      E7800000 
 692              	.LVL64:
  71:src/kernel/Riscv.cpp ****     for(size_t i = 0; i < NUM_OF_ENTRIES;i++)
 693              		.loc 1 71 13
 694 03d4 2334A900 		sd	a0,8(s2)
  72:src/kernel/Riscv.cpp ****         ((size_t*)mainPMT)[i] = 0;
 695              		.loc 1 72 5 is_stmt 1
 696              	.LVL65:
 697              	.LBB59:
  72:src/kernel/Riscv.cpp ****         ((size_t*)mainPMT)[i] = 0;
 698              		.loc 1 72 16 is_stmt 0
 699 03d8 93070000 		li	a5,0
 700              	.LVL66:
 701              	.L35:
  72:src/kernel/Riscv.cpp ****         ((size_t*)mainPMT)[i] = 0;
 702              		.loc 1 72 25 is_stmt 1 discriminator 3
 703 03dc 1307F01F 		li	a4,511
 704 03e0 6360F702 		bgtu	a5,a4,.L34
GAS LISTING /tmp/cctNXpE4.s 			page 23


  73:src/kernel/Riscv.cpp **** 
 705              		.loc 1 73 9 discriminator 2
  73:src/kernel/Riscv.cpp **** 
 706              		.loc 1 73 29 is_stmt 0 discriminator 2
 707 03e4 93963700 		slli	a3,a5,3
 708 03e8 17070000 		ld	a4,.LANCHOR0+8
 708      03370700 
 709 03f0 3307D700 		add	a4,a4,a3
  73:src/kernel/Riscv.cpp **** 
 710              		.loc 1 73 31 discriminator 2
 711 03f4 23300700 		sd	zero,0(a4)
  72:src/kernel/Riscv.cpp ****         ((size_t*)mainPMT)[i] = 0;
 712              		.loc 1 72 5 is_stmt 1 discriminator 2
 713 03f8 93871700 		addi	a5,a5,1
 714              	.LVL67:
 715 03fc 6FF01FFE 		j	.L35
 716              	.L34:
 717              	.LBE59:
  75:src/kernel/Riscv.cpp **** 
 718              		.loc 1 75 5
  75:src/kernel/Riscv.cpp **** 
 719              		.loc 1 75 33 is_stmt 0
 720 0400 17090000 		lla	s2,.LANCHOR0
 720      13090900 
 721 0408 13060001 		li	a2,16
 722 040c 83358900 		ld	a1,8(s2)
 723 0410 17050000 		lla	a0,.LC2
 723      13050500 
 724 0418 97000000 		call	_ZN8KConsole18trapPrintStringIntEPKcmi@plt
 724      E7800000 
 725              	.LVL68:
  77:src/kernel/Riscv.cpp ****     uint64 kDataStart = (uint64)(&kernelDataStart);
 726              		.loc 1 77 5 is_stmt 1
  77:src/kernel/Riscv.cpp ****     uint64 kDataStart = (uint64)(&kernelDataStart);
 727              		.loc 1 77 12 is_stmt 0
 728 0420 170B0000 		la	s6,kernelTextStart
 728      033B0B00 
 729              	.LVL69:
  78:src/kernel/Riscv.cpp ****     uint64 uTextStart = (uint64)(&userTextStart);
 730              		.loc 1 78 5 is_stmt 1
  78:src/kernel/Riscv.cpp ****     uint64 uTextStart = (uint64)(&userTextStart);
 731              		.loc 1 78 12 is_stmt 0
 732 0428 970A0000 		la	s5,kernelDataStart
 732      83BA0A00 
 733              	.LVL70:
  79:src/kernel/Riscv.cpp ****     uint64 uDataStart = (uint64)(&userDataStart);
 734              		.loc 1 79 5 is_stmt 1
  79:src/kernel/Riscv.cpp ****     uint64 uDataStart = (uint64)(&userDataStart);
 735              		.loc 1 79 12 is_stmt 0
 736 0430 97090000 		la	s3,userTextStart
 736      83B90900 
 737              	.LVL71:
  80:src/kernel/Riscv.cpp **** 
 738              		.loc 1 80 5 is_stmt 1
  80:src/kernel/Riscv.cpp **** 
 739              		.loc 1 80 12 is_stmt 0
 740 0438 170A0000 		la	s4,userDataStart
GAS LISTING /tmp/cctNXpE4.s 			page 24


 740      033A0A00 
 741              	.LVL72:
  82:src/kernel/Riscv.cpp ****     setVirtualAddrRange(kTextStart, kDataStart,KERNEL_RX); // kernel instructions
 742              		.loc 1 82 5 is_stmt 1
  82:src/kernel/Riscv.cpp ****     setVirtualAddrRange(kTextStart, kDataStart,KERNEL_RX); // kernel instructions
 743              		.loc 1 82 24 is_stmt 0
 744 0440 1306B000 		li	a2,11
 745 0444 93050B00 		mv	a1,s6
 746 0448 17050000 		ld	a0,.LANCHOR1
 746      03350500 
 747 0450 97000000 		call	_ZN5Riscv19setVirtualAddrRangeEmmi
 747      E7800000 
 748              	.LVL73:
  83:src/kernel/Riscv.cpp ****     setVirtualAddrRange((size_t)(&kernelDataStart), uTextStart, KERNEL_RW); // kernel data
 749              		.loc 1 83 5 is_stmt 1
  83:src/kernel/Riscv.cpp ****     setVirtualAddrRange((size_t)(&kernelDataStart), uTextStart, KERNEL_RW); // kernel data
 750              		.loc 1 83 24 is_stmt 0
 751 0458 1306B000 		li	a2,11
 752 045c 93850A00 		mv	a1,s5
 753 0460 13050B00 		mv	a0,s6
 754 0464 97000000 		call	_ZN5Riscv19setVirtualAddrRangeEmmi
 754      E7800000 
 755              	.LVL74:
  84:src/kernel/Riscv.cpp ****     setVirtualAddrRange((size_t)(&userTextStart), uDataStart, USER_RX); //user instructions
 756              		.loc 1 84 5 is_stmt 1
  84:src/kernel/Riscv.cpp ****     setVirtualAddrRange((size_t)(&userTextStart), uDataStart, USER_RX); //user instructions
 757              		.loc 1 84 24 is_stmt 0
 758 046c 13067000 		li	a2,7
 759 0470 93850900 		mv	a1,s3
 760 0474 13850A00 		mv	a0,s5
 761 0478 97000000 		call	_ZN5Riscv19setVirtualAddrRangeEmmi
 761      E7800000 
 762              	.LVL75:
  85:src/kernel/Riscv.cpp ****     setVirtualAddrRange((size_t)(&userDataStart), (size_t)HEAP_START_ADDR, USER_RW); // user data
 763              		.loc 1 85 5 is_stmt 1
  85:src/kernel/Riscv.cpp ****     setVirtualAddrRange((size_t)(&userDataStart), (size_t)HEAP_START_ADDR, USER_RW); // user data
 764              		.loc 1 85 24 is_stmt 0
 765 0480 1306B001 		li	a2,27
 766 0484 93050A00 		mv	a1,s4
 767 0488 13850900 		mv	a0,s3
 768 048c 97000000 		call	_ZN5Riscv19setVirtualAddrRangeEmmi
 768      E7800000 
 769              	.LVL76:
  86:src/kernel/Riscv.cpp ****     setVirtualAddrRange((size_t)HEAP_START_ADDR, (size_t)newStartAddr, KERNEL_RW); // kernel heap d
 770              		.loc 1 86 5 is_stmt 1
  86:src/kernel/Riscv.cpp ****     setVirtualAddrRange((size_t)HEAP_START_ADDR, (size_t)newStartAddr, KERNEL_RW); // kernel heap d
 771              		.loc 1 86 24 is_stmt 0
 772 0494 97090000 		la	s3,HEAP_START_ADDR
 772      83B90900 
 773 049c 13067001 		li	a2,23
 774 04a0 83B50900 		ld	a1,0(s3)
 775 04a4 13050A00 		mv	a0,s4
 776 04a8 97000000 		call	_ZN5Riscv19setVirtualAddrRangeEmmi
 776      E7800000 
 777              	.LVL77:
  87:src/kernel/Riscv.cpp ****     setVirtualAddrRange((size_t)newStartAddr, (size_t)HEAP_END_ADDR + 1,USER_RW); // user heap data
 778              		.loc 1 87 5 is_stmt 1
GAS LISTING /tmp/cctNXpE4.s 			page 25


  87:src/kernel/Riscv.cpp ****     setVirtualAddrRange((size_t)newStartAddr, (size_t)HEAP_END_ADDR + 1,USER_RW); // user heap data
 779              		.loc 1 87 24 is_stmt 0
 780 04b0 13067000 		li	a2,7
 781 04b4 93850400 		mv	a1,s1
 782 04b8 03B50900 		ld	a0,0(s3)
 783 04bc 97000000 		call	_ZN5Riscv19setVirtualAddrRangeEmmi
 783      E7800000 
 784              	.LVL78:
  88:src/kernel/Riscv.cpp **** 
 785              		.loc 1 88 5 is_stmt 1
  88:src/kernel/Riscv.cpp **** 
 786              		.loc 1 88 24 is_stmt 0
 787 04c4 97070000 		la	a5,HEAP_END_ADDR
 787      83B70700 
 788 04cc 83B50700 		ld	a1,0(a5)
 789 04d0 13067001 		li	a2,23
 790 04d4 93851500 		addi	a1,a1,1
 791 04d8 13850400 		mv	a0,s1
 792 04dc 97000000 		call	_ZN5Riscv19setVirtualAddrRangeEmmi
 792      E7800000 
 793              	.LVL79:
  90:src/kernel/Riscv.cpp ****     setVirtualAddr((size_t)CONSOLE_TX_DATA,0x1,0xf);
 794              		.loc 1 90 5 is_stmt 1
  90:src/kernel/Riscv.cpp ****     setVirtualAddr((size_t)CONSOLE_TX_DATA,0x1,0xf);
 795              		.loc 1 90 19 is_stmt 0
 796 04e4 1306F000 		li	a2,15
 797 04e8 93051000 		li	a1,1
 798 04ec 97070000 		la	a5,CONSOLE_RX_DATA
 798      83B70700 
 799 04f4 03B50700 		ld	a0,0(a5)
 800 04f8 97000000 		call	_ZN5Riscv14setVirtualAddrEmmm
 800      E7800000 
 801              	.LVL80:
  91:src/kernel/Riscv.cpp ****     setVirtualAddr((size_t)CONSOLE_STATUS,0x1,0xf);
 802              		.loc 1 91 5 is_stmt 1
  91:src/kernel/Riscv.cpp ****     setVirtualAddr((size_t)CONSOLE_STATUS,0x1,0xf);
 803              		.loc 1 91 19 is_stmt 0
 804 0500 1306F000 		li	a2,15
 805 0504 93051000 		li	a1,1
 806 0508 97070000 		la	a5,CONSOLE_TX_DATA
 806      83B70700 
 807 0510 03B50700 		ld	a0,0(a5)
 808 0514 97000000 		call	_ZN5Riscv14setVirtualAddrEmmm
 808      E7800000 
 809              	.LVL81:
  92:src/kernel/Riscv.cpp ****     setVirtualAddr(0xc201004,0x1,0xf);
 810              		.loc 1 92 5 is_stmt 1
  92:src/kernel/Riscv.cpp ****     setVirtualAddr(0xc201004,0x1,0xf);
 811              		.loc 1 92 19 is_stmt 0
 812 051c 1306F000 		li	a2,15
 813 0520 93051000 		li	a1,1
 814 0524 97070000 		la	a5,CONSOLE_STATUS
 814      83B70700 
 815 052c 03B50700 		ld	a0,0(a5)
 816 0530 97000000 		call	_ZN5Riscv14setVirtualAddrEmmm
 816      E7800000 
 817              	.LVL82:
GAS LISTING /tmp/cctNXpE4.s 			page 26


  93:src/kernel/Riscv.cpp **** 
 818              		.loc 1 93 5 is_stmt 1
  93:src/kernel/Riscv.cpp **** 
 819              		.loc 1 93 19 is_stmt 0
 820 0538 1306F000 		li	a2,15
 821 053c 93051000 		li	a1,1
 822 0540 3715200C 		li	a0,203427840
 823 0544 13054500 		addi	a0,a0,4
 824 0548 97000000 		call	_ZN5Riscv14setVirtualAddrEmmm
 824      E7800000 
 825              	.LVL83:
  95:src/kernel/Riscv.cpp ****     size_t satp = ((size_t)1 << 63) | ((size_t)mainPMT >> 12);
 826              		.loc 1 95 5 is_stmt 1
 827              	.LBB60:
 828              	.LBB61:
 205:src/kernel/../../h/Riscv.hpp **** }
 829              		.loc 2 205 5
 205:src/kernel/../../h/Riscv.hpp **** }
 830              		.loc 2 205 54 is_stmt 0
 831 0550 B7070400 		li	a5,262144
 832              	#APP
 833              	# 205 "src/kernel/../../h/Riscv.hpp" 1
 834              		csrs sstatus, a5
 835              	# 0 "" 2
 836              	.LVL84:
 837              	#NO_APP
 838              	.LBE61:
 839              	.LBE60:
  96:src/kernel/Riscv.cpp ****     __asm__ volatile("csrw satp, %0" : :"r"(satp));
 840              		.loc 1 96 5 is_stmt 1
  96:src/kernel/Riscv.cpp ****     __asm__ volatile("csrw satp, %0" : :"r"(satp));
 841              		.loc 1 96 56 is_stmt 0
 842 0558 83378900 		ld	a5,8(s2)
 843 055c 93D7C700 		srli	a5,a5,12
  96:src/kernel/Riscv.cpp ****     __asm__ volatile("csrw satp, %0" : :"r"(satp));
 844              		.loc 1 96 12
 845 0560 1307F0FF 		li	a4,-1
 846 0564 1317F703 		slli	a4,a4,63
 847 0568 B3E7E700 		or	a5,a5,a4
 848              	.LVL85:
  97:src/kernel/Riscv.cpp **** }
 849              		.loc 1 97 5 is_stmt 1
  97:src/kernel/Riscv.cpp **** }
 850              		.loc 1 97 51 is_stmt 0
 851              	#APP
 852              	# 97 "src/kernel/Riscv.cpp" 1
  98:src/kernel/Riscv.cpp **** 
 853              		csrw satp, a5
 854              	# 0 "" 2
 855              		.loc 1 98 1
 856              	#NO_APP
 857 0570 83308103 		ld	ra,56(sp)
 858              		.cfi_restore 1
 859 0574 03340103 		ld	s0,48(sp)
 860              		.cfi_restore 8
 861              		.cfi_def_cfa 2, 64
 862 0578 83348102 		ld	s1,40(sp)
GAS LISTING /tmp/cctNXpE4.s 			page 27


 863              		.cfi_restore 9
 864              	.LVL86:
 865 057c 03390102 		ld	s2,32(sp)
 866              		.cfi_restore 18
 867 0580 83398101 		ld	s3,24(sp)
 868              		.cfi_restore 19
 869 0584 033A0101 		ld	s4,16(sp)
 870              		.cfi_restore 20
 871 0588 833A8100 		ld	s5,8(sp)
 872              		.cfi_restore 21
 873 058c 033B0100 		ld	s6,0(sp)
 874              		.cfi_restore 22
 875 0590 13010104 		addi	sp,sp,64
 876              		.cfi_def_cfa_offset 0
 877 0594 67800000 		jr	ra
 878              		.cfi_endproc
 879              	.LFE29:
 881              		.align	2
 882              		.globl	_ZN5Riscv10kernelMainEv
 884              	_ZN5Riscv10kernelMainEv:
 885              	.LFB30:
 101:src/kernel/Riscv.cpp ****     if(kernelMainCalled) return;
 886              		.loc 1 101 1 is_stmt 1
 887              		.cfi_startproc
 102:src/kernel/Riscv.cpp ****     kernelMainCalled = true;
 888              		.loc 1 102 5
 889 0598 97070000 		lbu	a5,.LANCHOR0+32
 889      83C70700 
 890 05a0 63840700 		beqz	a5,.L43
 891 05a4 67800000 		ret
 892              	.L43:
 101:src/kernel/Riscv.cpp ****     if(kernelMainCalled) return;
 893              		.loc 1 101 1 is_stmt 0
 894 05a8 130101FF 		addi	sp,sp,-16
 895              		.cfi_def_cfa_offset 16
 896 05ac 23341100 		sd	ra,8(sp)
 897 05b0 23308100 		sd	s0,0(sp)
 898              		.cfi_offset 1, -8
 899              		.cfi_offset 8, -16
 900 05b4 13040101 		addi	s0,sp,16
 901              		.cfi_def_cfa 8, 0
 103:src/kernel/Riscv.cpp **** 
 902              		.loc 1 103 5 is_stmt 1
 103:src/kernel/Riscv.cpp **** 
 903              		.loc 1 103 22 is_stmt 0
 904 05b8 93071000 		li	a5,1
 905 05bc 17070000 		sb	a5,.LANCHOR0+32,a4
 905      2300F700 
 105:src/kernel/Riscv.cpp **** 
 906              		.loc 1 105 5 is_stmt 1
 105:src/kernel/Riscv.cpp **** 
 907              		.loc 1 105 15 is_stmt 0
 908 05c4 97000000 		call	_ZN5Riscv10initSystemEv
 908      E7800000 
 909              	.LVL87:
 107:src/kernel/Riscv.cpp **** 
 910              		.loc 1 107 5 is_stmt 1
GAS LISTING /tmp/cctNXpE4.s 			page 28


 107:src/kernel/Riscv.cpp **** 
 911              		.loc 1 107 12 is_stmt 0
 912 05cc 97000000 		call	_Z7testOS2v@plt
 912      E7800000 
 913              	.LVL88:
 116:src/kernel/Riscv.cpp **** }
 914              		.loc 1 116 5 is_stmt 1
 116:src/kernel/Riscv.cpp **** }
 915              		.loc 1 116 14 is_stmt 0
 916 05d4 97000000 		call	_ZN5Riscv9endSystemEv
 916      E7800000 
 917              	.LVL89:
 117:src/kernel/Riscv.cpp **** 
 918              		.loc 1 117 1
 919 05dc 83308100 		ld	ra,8(sp)
 920              		.cfi_restore 1
 921 05e0 03340100 		ld	s0,0(sp)
 922              		.cfi_restore 8
 923              		.cfi_def_cfa 2, 16
 924 05e4 13010101 		addi	sp,sp,16
 925              		.cfi_def_cfa_offset 0
 926 05e8 67800000 		jr	ra
 927              		.cfi_endproc
 928              	.LFE30:
 930              		.align	2
 931              		.globl	_ZN5Riscv14addVirtualAddrEm
 933              	_ZN5Riscv14addVirtualAddrEm:
 934              	.LFB36:
 208:src/kernel/Riscv.cpp **** 
 209:src/kernel/Riscv.cpp **** void Riscv::addVirtualAddr(size_t addr)
 210:src/kernel/Riscv.cpp **** {
 935              		.loc 1 210 1 is_stmt 1
 936              		.cfi_startproc
 937              	.LVL90:
 938 05ec 130101FF 		addi	sp,sp,-16
 939              		.cfi_def_cfa_offset 16
 940 05f0 23341100 		sd	ra,8(sp)
 941 05f4 23308100 		sd	s0,0(sp)
 942              		.cfi_offset 1, -8
 943              		.cfi_offset 8, -16
 944 05f8 13040101 		addi	s0,sp,16
 945              		.cfi_def_cfa 8, 0
 211:src/kernel/Riscv.cpp ****     setVirtualAddr(addr, 0x1, 0xf);
 946              		.loc 1 211 5
 947              		.loc 1 211 19 is_stmt 0
 948 05fc 1306F000 		li	a2,15
 949 0600 93051000 		li	a1,1
 950 0604 97000000 		call	_ZN5Riscv14setVirtualAddrEmmm
 950      E7800000 
 951              	.LVL91:
 212:src/kernel/Riscv.cpp **** }
 952              		.loc 1 212 1
 953 060c 83308100 		ld	ra,8(sp)
 954              		.cfi_restore 1
 955 0610 03340100 		ld	s0,0(sp)
 956              		.cfi_restore 8
 957              		.cfi_def_cfa 2, 16
GAS LISTING /tmp/cctNXpE4.s 			page 29


 958 0614 13010101 		addi	sp,sp,16
 959              		.cfi_def_cfa_offset 0
 960 0618 67800000 		jr	ra
 961              		.cfi_endproc
 962              	.LFE36:
 964              		.align	2
 965              		.globl	_ZN5Riscv19addVirtualAddrInstrEm
 967              	_ZN5Riscv19addVirtualAddrInstrEm:
 968              	.LFB37:
 213:src/kernel/Riscv.cpp **** 
 214:src/kernel/Riscv.cpp **** void Riscv::addVirtualAddrInstr(size_t addr)
 215:src/kernel/Riscv.cpp **** {
 969              		.loc 1 215 1 is_stmt 1
 970              		.cfi_startproc
 971              	.LVL92:
 972 061c 130101FF 		addi	sp,sp,-16
 973              		.cfi_def_cfa_offset 16
 974 0620 23341100 		sd	ra,8(sp)
 975 0624 23308100 		sd	s0,0(sp)
 976              		.cfi_offset 1, -8
 977              		.cfi_offset 8, -16
 978 0628 13040101 		addi	s0,sp,16
 979              		.cfi_def_cfa 8, 0
 216:src/kernel/Riscv.cpp ****     setVirtualAddr(addr, 0x1, 0xf);
 980              		.loc 1 216 5
 981              		.loc 1 216 19 is_stmt 0
 982 062c 1306F000 		li	a2,15
 983 0630 93051000 		li	a1,1
 984 0634 97000000 		call	_ZN5Riscv14setVirtualAddrEmmm
 984      E7800000 
 985              	.LVL93:
 217:src/kernel/Riscv.cpp **** }
 986              		.loc 1 217 1
 987 063c 83308100 		ld	ra,8(sp)
 988              		.cfi_restore 1
 989 0640 03340100 		ld	s0,0(sp)
 990              		.cfi_restore 8
 991              		.cfi_def_cfa 2, 16
 992 0644 13010101 		addi	sp,sp,16
 993              		.cfi_def_cfa_offset 0
 994 0648 67800000 		jr	ra
 995              		.cfi_endproc
 996              	.LFE37:
 998              		.align	2
 999              		.globl	_ZN5Riscv22disableTimerInterruptsEv
 1001              	_ZN5Riscv22disableTimerInterruptsEv:
 1002              	.LFB38:
 218:src/kernel/Riscv.cpp **** 
 219:src/kernel/Riscv.cpp **** void Riscv::disableTimerInterrupts()
 220:src/kernel/Riscv.cpp **** {
 1003              		.loc 1 220 1 is_stmt 1
 1004              		.cfi_startproc
 1005 064c 130101FF 		addi	sp,sp,-16
 1006              		.cfi_def_cfa_offset 16
 1007 0650 23348100 		sd	s0,8(sp)
 1008              		.cfi_offset 8, -8
 1009 0654 13040101 		addi	s0,sp,16
GAS LISTING /tmp/cctNXpE4.s 			page 30


 1010              		.cfi_def_cfa 8, 0
 221:src/kernel/Riscv.cpp ****     uint64 x = 0x2;
 1011              		.loc 1 221 5
 1012              	.LVL94:
 222:src/kernel/Riscv.cpp ****     __asm__ volatile("csrc sie, %0"::"r"(x));
 1013              		.loc 1 222 5
 1014              		.loc 1 222 45 is_stmt 0
 1015 0658 93072000 		li	a5,2
 1016              	#APP
 1017              	# 222 "src/kernel/Riscv.cpp" 1
 223              	}
 1018              		csrc sie, a5
 1019              	# 0 "" 2
 1020              		.loc 1 223 1
 1021              	#NO_APP
 1022 0660 03348100 		ld	s0,8(sp)
 1023              		.cfi_restore 8
 1024              		.cfi_def_cfa 2, 16
 1025 0664 13010101 		addi	sp,sp,16
 1026              		.cfi_def_cfa_offset 0
 1027 0668 67800000 		jr	ra
 1028              		.cfi_endproc
 1029              	.LFE38:
 1031              		.align	2
 1032              		.globl	_ZN5Riscv13w_a0_sscratchEv
 1034              	_ZN5Riscv13w_a0_sscratchEv:
 1035              	.LFB39:
 224:src/kernel/Riscv.cpp **** 
 225:src/kernel/Riscv.cpp **** void Riscv::w_a0_sscratch()
 226:src/kernel/Riscv.cpp **** {
 1036              		.loc 1 226 1 is_stmt 1
 1037              		.cfi_startproc
 1038 066c 130101FF 		addi	sp,sp,-16
 1039              		.cfi_def_cfa_offset 16
 1040 0670 23348100 		sd	s0,8(sp)
 1041              		.cfi_offset 8, -8
 1042 0674 13040101 		addi	s0,sp,16
 1043              		.cfi_def_cfa 8, 0
 227:src/kernel/Riscv.cpp ****     uint64 a1Temp;
 1044              		.loc 1 227 5
 228:src/kernel/Riscv.cpp ****     __asm__ volatile("mv %0, a1":"=r"(a1Temp));
 1045              		.loc 1 228 5
 1046              		.loc 1 228 47 is_stmt 0
 1047              	#APP
 1048              	# 228 "src/kernel/Riscv.cpp" 1
 229              	    __asm__ volatile("mv a1, %0"::"r"(PCB::running->sscratch));
 1049              		mv a5, a1
 1050              	# 0 "" 2
 1051              	.LVL95:
 1052              		.loc 1 229 5 is_stmt 1
 1053              		.loc 1 229 53 is_stmt 0
 1054              	#NO_APP
 1055 067c 17070000 		la	a4,_ZN3PCB7runningE
 1055      03370700 
 1056 0684 03370700 		ld	a4,0(a4)
 1057 0688 03370701 		ld	a4,16(a4)
 1058              		.loc 1 229 63
GAS LISTING /tmp/cctNXpE4.s 			page 31


 1059              	#APP
 1060              	# 229 "src/kernel/Riscv.cpp" 1
 230              	    __asm__ volatile("sd a0, 80(a1)");
 1061              		mv a1, a4
 1062              	# 0 "" 2
 1063              		.loc 1 230 5 is_stmt 1
 1064              		.loc 1 230 38 is_stmt 0
 1065              	# 230 "src/kernel/Riscv.cpp" 1
 231              	    __asm__ volatile("mv a1,%0"::"r"(a1Temp));
 1066              		sd a0, 80(a1)
 1067              	# 0 "" 2
 1068              		.loc 1 231 5 is_stmt 1
 1069              		.loc 1 231 46 is_stmt 0
 1070              	# 231 "src/kernel/Riscv.cpp" 1
 232              	}
 1071              		mv a1,a5
 1072              	# 0 "" 2
 1073              		.loc 1 232 1
 1074              	#NO_APP
 1075 0698 03348100 		ld	s0,8(sp)
 1076              		.cfi_restore 8
 1077              		.cfi_def_cfa 2, 16
 1078 069c 13010101 		addi	sp,sp,16
 1079              		.cfi_def_cfa_offset 0
 1080 06a0 67800000 		jr	ra
 1081              		.cfi_endproc
 1082              	.LFE39:
 1084              		.align	2
 1085              		.globl	_ZN5Riscv14changePrivModeEv
 1087              	_ZN5Riscv14changePrivModeEv:
 1088              	.LFB40:
 233:src/kernel/Riscv.cpp **** 
 234:src/kernel/Riscv.cpp **** void Riscv::changePrivMode()
 235:src/kernel/Riscv.cpp **** {
 1089              		.loc 1 235 1 is_stmt 1
 1090              		.cfi_startproc
 1091 06a4 130101FF 		addi	sp,sp,-16
 1092              		.cfi_def_cfa_offset 16
 1093 06a8 23348100 		sd	s0,8(sp)
 1094              		.cfi_offset 8, -8
 1095 06ac 13040101 		addi	s0,sp,16
 1096              		.cfi_def_cfa 8, 0
 236:src/kernel/Riscv.cpp ****     if(PCB::running->systemThread)
 1097              		.loc 1 236 5
 1098              		.loc 1 236 22 is_stmt 0
 1099 06b0 97070000 		la	a5,_ZN3PCB7runningE
 1099      83B70700 
 1100 06b8 83B70700 		ld	a5,0(a5)
 1101 06bc 83C70700 		lbu	a5,0(a5)
 1102              		.loc 1 236 5
 1103 06c0 638C0700 		beqz	a5,.L53
 237:src/kernel/Riscv.cpp ****         Riscv::ms_sstatus(Riscv::SSTATUS_SPP);
 1104              		.loc 1 237 9 is_stmt 1
 1105              	.LVL96:
 1106              	.LBB62:
 1107              	.LBB63:
 205:src/kernel/../../h/Riscv.hpp **** }
GAS LISTING /tmp/cctNXpE4.s 			page 32


 1108              		.loc 2 205 5
 205:src/kernel/../../h/Riscv.hpp **** }
 1109              		.loc 2 205 54 is_stmt 0
 1110 06c4 93070010 		li	a5,256
 1111              	#APP
 1112              	# 205 "src/kernel/../../h/Riscv.hpp" 1
 1113              		csrs sstatus, a5
 1114              	# 0 "" 2
 1115              	.LVL97:
 1116              	#NO_APP
 1117              	.L52:
 1118              	.LBE63:
 1119              	.LBE62:
 238:src/kernel/Riscv.cpp ****     else
 239:src/kernel/Riscv.cpp ****         Riscv::mc_sstatus(Riscv::SSTATUS_SPP);
 240:src/kernel/Riscv.cpp **** }
 1120              		.loc 1 240 1
 1121 06cc 03348100 		ld	s0,8(sp)
 1122              		.cfi_remember_state
 1123              		.cfi_restore 8
 1124              		.cfi_def_cfa 2, 16
 1125 06d0 13010101 		addi	sp,sp,16
 1126              		.cfi_def_cfa_offset 0
 1127 06d4 67800000 		jr	ra
 1128              	.L53:
 1129              		.cfi_restore_state
 239:src/kernel/Riscv.cpp **** }
 1130              		.loc 1 239 9 is_stmt 1
 1131              	.LVL98:
 1132              	.LBB64:
 1133              	.LBB65:
 209:src/kernel/../../h/Riscv.hpp **** }
 1134              		.loc 2 209 5
 209:src/kernel/../../h/Riscv.hpp **** }
 1135              		.loc 2 209 54 is_stmt 0
 1136 06d8 93070010 		li	a5,256
 1137              	#APP
 1138              	# 209 "src/kernel/../../h/Riscv.hpp" 1
 1139              		csrc sstatus, a5
 1140              	# 0 "" 2
 1141              	.LVL99:
 1142              	#NO_APP
 1143              	.LBE65:
 1144              	.LBE64:
 1145              		.loc 1 240 1
 1146 06e0 6FF0DFFE 		j	.L52
 1147              		.cfi_endproc
 1148              	.LFE40:
 1150              		.align	2
 1151              		.globl	_ZN5Riscv20handleSupervisorTrapEv
 1153              	_ZN5Riscv20handleSupervisorTrapEv:
 1154              	.LFB41:
 241:src/kernel/Riscv.cpp **** 
 242:src/kernel/Riscv.cpp **** void Riscv::handleSupervisorTrap()
 243:src/kernel/Riscv.cpp **** {
 1155              		.loc 1 243 1 is_stmt 1
 1156              		.cfi_startproc
GAS LISTING /tmp/cctNXpE4.s 			page 33


 1157 06e4 130101F9 		addi	sp,sp,-112
 1158              		.cfi_def_cfa_offset 112
 1159 06e8 23341106 		sd	ra,104(sp)
 1160 06ec 23308106 		sd	s0,96(sp)
 1161 06f0 233C9104 		sd	s1,88(sp)
 1162              		.cfi_offset 1, -8
 1163              		.cfi_offset 8, -16
 1164              		.cfi_offset 9, -24
 1165 06f4 13040107 		addi	s0,sp,112
 1166              		.cfi_def_cfa 8, 0
 244:src/kernel/Riscv.cpp ****     __asm__ volatile("mv %0, a4" : "=r"(PCB::savedRegA4));
 1167              		.loc 1 244 5
 1168              		.loc 1 244 58 is_stmt 0
 1169              	#APP
 1170              	# 244 "src/kernel/Riscv.cpp" 1
 245              	    __asm__ volatile("csrr %0, sscratch":"=r"(PCB::running->sscratch));
 1171              		mv a4, a4
 1172              	# 0 "" 2
 1173              	#NO_APP
 1174 06fc 97070000 		la	a5,_ZN3PCB10savedRegA4E
 1174      83B70700 
 1175 0704 23B0E700 		sd	a4,0(a5)
 1176              		.loc 1 245 5 is_stmt 1
 1177              		.loc 1 245 61 is_stmt 0
 1178 0708 97070000 		la	a5,_ZN3PCB7runningE
 1178      83B70700 
 1179 0710 83B70700 		ld	a5,0(a5)
 1180              		.loc 1 245 71
 1181              	#APP
 1182              	# 245 "src/kernel/Riscv.cpp" 1
 246              	
 1183              		csrr a4, sscratch
 1184              	# 0 "" 2
 1185              	#NO_APP
 1186 0718 23B8E700 		sd	a4,16(a5)
 247:src/kernel/Riscv.cpp ****     uint64 scause = Riscv::r_scause();
 1187              		.loc 1 247 5 is_stmt 1
 1188              	.LBB66:
 1189              	.LBB67:
 130:src/kernel/../../h/Riscv.hpp ****     __asm__ volatile("csrr %0, scause" : "=r"(scause));
 1190              		.loc 2 130 5
 131:src/kernel/../../h/Riscv.hpp ****     return scause;
 1191              		.loc 2 131 5
 131:src/kernel/../../h/Riscv.hpp ****     return scause;
 1192              		.loc 2 131 55 is_stmt 0
 1193              	#APP
 1194              	# 131 "src/kernel/../../h/Riscv.hpp" 1
 1195              		csrr a5, scause
 1196              	# 0 "" 2
 1197              	#NO_APP
 1198 0720 233CF4FA 		sd	a5,-72(s0)
 132:src/kernel/../../h/Riscv.hpp **** }
 1199              		.loc 2 132 5 is_stmt 1
 132:src/kernel/../../h/Riscv.hpp **** }
 1200              		.loc 2 132 12 is_stmt 0
 1201 0724 833784FB 		ld	a5,-72(s0)
 1202              	.LVL100:
GAS LISTING /tmp/cctNXpE4.s 			page 34


 1203              	.LBE67:
 1204              	.LBE66:
 248:src/kernel/Riscv.cpp **** 
 249:src/kernel/Riscv.cpp ****     static const size_t storePF = 15;
 1205              		.loc 1 249 5 is_stmt 1
 250:src/kernel/Riscv.cpp ****     static const size_t loadPF = 13;
 1206              		.loc 1 250 5
 251:src/kernel/Riscv.cpp ****     static const size_t instrPF = 12;
 1207              		.loc 1 251 5
 252:src/kernel/Riscv.cpp **** 
 253:src/kernel/Riscv.cpp ****     switch(scause)
 1208              		.loc 1 253 5
 1209              	.LBB68:
 1210 0728 1307F000 		li	a4,15
 1211 072c 6368F702 		bgtu	a5,a4,.L57
 1212 0730 13072000 		li	a4,2
 1213 0734 63E8E710 		bltu	a5,a4,.L56
 1214 0738 1307F000 		li	a4,15
 1215 073c 6364F710 		bgtu	a5,a4,.L56
 1216 0740 93972700 		slli	a5,a5,2
 1217              	.LVL101:
 1218 0744 17070000 		lla	a4,.L60
 1218      13070700 
 1219 074c B387E700 		add	a5,a5,a4
 1220 0750 83A70700 		lw	a5,0(a5)
 1221 0754 B387E700 		add	a5,a5,a4
 1222 0758 67800700 		jr	a5
 1223              		.section	.rodata
 1224              		.align	2
 1225              		.align	2
 1226              	.L60:
 1227 0000 00000000 		.word	.L56-.L60
 1228 0004 00000000 		.word	.L56-.L60
 1229 0008 00000000 		.word	.L66-.L60
 1230 000c 00000000 		.word	.L56-.L60
 1231 0010 00000000 		.word	.L56-.L60
 1232 0014 00000000 		.word	.L65-.L60
 1233 0018 00000000 		.word	.L56-.L60
 1234 001c 00000000 		.word	.L64-.L60
 1235 0020 00000000 		.word	.L63-.L60
 1236 0024 00000000 		.word	.L63-.L60
 1237 0028 00000000 		.word	.L56-.L60
 1238 002c 00000000 		.word	.L56-.L60
 1239 0030 00000000 		.word	.L62-.L60
 1240 0034 00000000 		.word	.L61-.L60
 1241 0038 00000000 		.word	.L56-.L60
 1242 003c 00000000 		.word	.L59-.L60
 1243              		.text
 1244              	.LVL102:
 1245              	.L57:
 1246 075c 1307F0FF 		li	a4,-1
 1247 0760 1317F703 		slli	a4,a4,63
 1248 0764 13071700 		addi	a4,a4,1
 1249 0768 638AE704 		beq	a5,a4,.L67
 1250 076c 1307F0FF 		li	a4,-1
 1251 0770 1317F703 		slli	a4,a4,63
 1252 0774 13079700 		addi	a4,a4,9
GAS LISTING /tmp/cctNXpE4.s 			page 35


 1253 0778 6396E70C 		bne	a5,a4,.L56
 1254              	.LBB69:
 254:src/kernel/Riscv.cpp ****     {
 255:src/kernel/Riscv.cpp ****         case storePF:
 256:src/kernel/Riscv.cpp ****         {
 257:src/kernel/Riscv.cpp ****             //size_t addrPF = 0;
 258:src/kernel/Riscv.cpp ****             //__asm__ volatile("csrr %0, stval":"=r"(addrPF));
 259:src/kernel/Riscv.cpp ****             //addVirtualAddr(addrPF);
 260:src/kernel/Riscv.cpp ****             PCB::threadExitHandler();
 261:src/kernel/Riscv.cpp ****             break;
 262:src/kernel/Riscv.cpp ****         }
 263:src/kernel/Riscv.cpp ****         case loadPF:
 264:src/kernel/Riscv.cpp ****         {
 265:src/kernel/Riscv.cpp ****             PCB::threadExitHandler();
 266:src/kernel/Riscv.cpp ****             break;
 267:src/kernel/Riscv.cpp ****         }
 268:src/kernel/Riscv.cpp ****         case instrPF:
 269:src/kernel/Riscv.cpp ****         {
 270:src/kernel/Riscv.cpp ****             PCB::threadExitHandler();
 271:src/kernel/Riscv.cpp ****             break;
 272:src/kernel/Riscv.cpp ****         }
 273:src/kernel/Riscv.cpp ****         case timerInterrupt:
 274:src/kernel/Riscv.cpp ****         {
 275:src/kernel/Riscv.cpp ****             //KConsole::trapPrintString("timerInterrupt\n");
 276:src/kernel/Riscv.cpp ****             uint64 volatile sepc = Riscv::r_sepc();
 277:src/kernel/Riscv.cpp ****             uint64 volatile sstatus = Riscv::r_sstatus();
 278:src/kernel/Riscv.cpp ****             mc_sip(Riscv::SIP_SSIP);
 279:src/kernel/Riscv.cpp ****             //static uint64 total = 0;
 280:src/kernel/Riscv.cpp ****             totalTime++;
 281:src/kernel/Riscv.cpp ****             //KConsole::trapPrintInt(totalTime);
 282:src/kernel/Riscv.cpp **** 
 283:src/kernel/Riscv.cpp ****             PCB::timeSliceCounter++;
 284:src/kernel/Riscv.cpp ****             SleepPCBList::tryToWakePCBs();
 285:src/kernel/Riscv.cpp ****             if (PCB::timeSliceCounter >= PCB::running->getTimeSlice())
 286:src/kernel/Riscv.cpp ****             {
 287:src/kernel/Riscv.cpp ****                 PCB::timeSliceCounter = 0;
 288:src/kernel/Riscv.cpp ****                 PCB::dispatch();
 289:src/kernel/Riscv.cpp ****             }
 290:src/kernel/Riscv.cpp **** 
 291:src/kernel/Riscv.cpp ****             Riscv::w_sstatus(sstatus);
 292:src/kernel/Riscv.cpp ****             Riscv::w_sepc(sepc);
 293:src/kernel/Riscv.cpp ****             changePrivMode();
 294:src/kernel/Riscv.cpp ****             break;
 295:src/kernel/Riscv.cpp ****         }
 296:src/kernel/Riscv.cpp ****         case hwInterrupt:
 1255              		.loc 1 296 9
 297:src/kernel/Riscv.cpp ****         {
 1256              		.loc 1 297 9
 298:src/kernel/Riscv.cpp ****             KConsole::getCharactersFromConsole();
 1257              		.loc 1 298 13
 1258              		.loc 1 298 47 is_stmt 0
 1259 077c 97000000 		call	_ZN8KConsole24getCharactersFromConsoleEv@plt
 1259      E7800000 
 1260              	.LVL103:
 299:src/kernel/Riscv.cpp ****             plic_complete(plic_claim());
 1261              		.loc 1 299 13 is_stmt 1
 1262              		.loc 1 299 26 is_stmt 0
GAS LISTING /tmp/cctNXpE4.s 			page 36


 1263 0784 97000000 		call	plic_claim@plt
 1263      E7800000 
 1264              	.LVL104:
 1265 078c 97000000 		call	plic_complete@plt
 1265      E7800000 
 1266              	.LVL105:
 300:src/kernel/Riscv.cpp ****             break;
 1267              		.loc 1 300 13 is_stmt 1
 1268 0794 6F00000B 		j	.L56
 1269              	.L59:
 255:src/kernel/Riscv.cpp ****         {
 1270              		.loc 1 255 9
 256:src/kernel/Riscv.cpp ****             //size_t addrPF = 0;
 1271              		.loc 1 256 9
 260:src/kernel/Riscv.cpp ****             break;
 1272              		.loc 1 260 13
 260:src/kernel/Riscv.cpp ****             break;
 1273              		.loc 1 260 35 is_stmt 0
 1274 0798 97000000 		call	_ZN3PCB17threadExitHandlerEv@plt
 1274      E7800000 
 1275              	.LVL106:
 261:src/kernel/Riscv.cpp ****         }
 1276              		.loc 1 261 13 is_stmt 1
 1277 07a0 6F00400A 		j	.L56
 1278              	.L61:
 263:src/kernel/Riscv.cpp ****         {
 1279              		.loc 1 263 9
 264:src/kernel/Riscv.cpp ****             PCB::threadExitHandler();
 1280              		.loc 1 264 9
 265:src/kernel/Riscv.cpp ****             break;
 1281              		.loc 1 265 13
 265:src/kernel/Riscv.cpp ****             break;
 1282              		.loc 1 265 35 is_stmt 0
 1283 07a4 97000000 		call	_ZN3PCB17threadExitHandlerEv@plt
 1283      E7800000 
 1284              	.LVL107:
 266:src/kernel/Riscv.cpp ****         }
 1285              		.loc 1 266 13 is_stmt 1
 1286 07ac 6F008009 		j	.L56
 1287              	.L62:
 268:src/kernel/Riscv.cpp ****         {
 1288              		.loc 1 268 9
 269:src/kernel/Riscv.cpp ****             PCB::threadExitHandler();
 1289              		.loc 1 269 9
 270:src/kernel/Riscv.cpp ****             break;
 1290              		.loc 1 270 13
 270:src/kernel/Riscv.cpp ****             break;
 1291              		.loc 1 270 35 is_stmt 0
 1292 07b0 97000000 		call	_ZN3PCB17threadExitHandlerEv@plt
 1292      E7800000 
 1293              	.LVL108:
 271:src/kernel/Riscv.cpp ****         }
 1294              		.loc 1 271 13 is_stmt 1
 1295 07b8 6F00C008 		j	.L56
 1296              	.LVL109:
 1297              	.L67:
 273:src/kernel/Riscv.cpp ****         {
GAS LISTING /tmp/cctNXpE4.s 			page 37


 1298              		.loc 1 273 9
 274:src/kernel/Riscv.cpp ****             //KConsole::trapPrintString("timerInterrupt\n");
 1299              		.loc 1 274 9
 1300              	.LBB70:
 276:src/kernel/Riscv.cpp ****             uint64 volatile sstatus = Riscv::r_sstatus();
 1301              		.loc 1 276 13
 1302              	.LBB71:
 1303              	.LBB72:
 140:src/kernel/../../h/Riscv.hpp ****     __asm__ volatile("csrr %0, sepc" : "=r"(sepc));
 1304              		.loc 2 140 5
 141:src/kernel/../../h/Riscv.hpp ****     return sepc;
 1305              		.loc 2 141 5
 141:src/kernel/../../h/Riscv.hpp ****     return sepc;
 1306              		.loc 2 141 51 is_stmt 0
 1307              	#APP
 1308              	# 141 "src/kernel/../../h/Riscv.hpp" 1
 1309              		csrr a5, sepc
 1310              	# 0 "" 2
 1311              	.LVL110:
 1312              	#NO_APP
 1313 07c0 2334F4FC 		sd	a5,-56(s0)
 142:src/kernel/../../h/Riscv.hpp **** }
 1314              		.loc 2 142 5 is_stmt 1
 142:src/kernel/../../h/Riscv.hpp **** }
 1315              		.loc 2 142 12 is_stmt 0
 1316 07c4 833784FC 		ld	a5,-56(s0)
 1317              	.LBE72:
 1318              	.LBE71:
 276:src/kernel/Riscv.cpp ****             uint64 volatile sstatus = Riscv::r_sstatus();
 1319              		.loc 1 276 50
 1320 07c8 233CF4F8 		sd	a5,-104(s0)
 277:src/kernel/Riscv.cpp ****             mc_sip(Riscv::SIP_SSIP);
 1321              		.loc 1 277 13 is_stmt 1
 1322              	.LBB73:
 1323              	.LBB74:
 211:src/kernel/../../h/Riscv.hpp **** 
 212:src/kernel/../../h/Riscv.hpp **** inline uint64 Riscv::r_sstatus() {
 213:src/kernel/../../h/Riscv.hpp ****     uint64 volatile sstatus;
 1324              		.loc 2 213 5
 214:src/kernel/../../h/Riscv.hpp ****     __asm__ volatile("csrr %0, sstatus" : "=r"(sstatus));
 1325              		.loc 2 214 5
 1326              		.loc 2 214 57 is_stmt 0
 1327              	#APP
 1328              	# 214 "src/kernel/../../h/Riscv.hpp" 1
 215              	    return sstatus;
 1329              		csrr a5, sstatus
 1330              	# 0 "" 2
 1331              	#NO_APP
 1332 07d0 2330F4FC 		sd	a5,-64(s0)
 1333              		.loc 2 215 5 is_stmt 1
 1334              		.loc 2 215 12 is_stmt 0
 1335 07d4 833704FC 		ld	a5,-64(s0)
 1336              	.LBE74:
 1337              	.LBE73:
 277:src/kernel/Riscv.cpp ****             mc_sip(Riscv::SIP_SSIP);
 1338              		.loc 1 277 56
 1339 07d8 2330F4FA 		sd	a5,-96(s0)
GAS LISTING /tmp/cctNXpE4.s 			page 38


 278:src/kernel/Riscv.cpp ****             //static uint64 total = 0;
 1340              		.loc 1 278 13 is_stmt 1
 1341              	.LVL111:
 1342              	.LBB75:
 1343              	.LBB76:
 179:src/kernel/../../h/Riscv.hpp **** }
 1344              		.loc 2 179 5
 179:src/kernel/../../h/Riscv.hpp **** }
 1345              		.loc 2 179 50 is_stmt 0
 1346 07dc 93072000 		li	a5,2
 1347              	#APP
 1348              	# 179 "src/kernel/../../h/Riscv.hpp" 1
 1349              		csrc sip, a5
 1350              	# 0 "" 2
 1351              	.LVL112:
 1352              	#NO_APP
 1353              	.LBE76:
 1354              	.LBE75:
 280:src/kernel/Riscv.cpp ****             //KConsole::trapPrintInt(totalTime);
 1355              		.loc 1 280 13 is_stmt 1
 280:src/kernel/Riscv.cpp ****             //KConsole::trapPrintInt(totalTime);
 1356              		.loc 1 280 22 is_stmt 0
 1357 07e4 17070000 		lla	a4,.LANCHOR0
 1357      13070700 
 1358 07ec 83378702 		ld	a5,40(a4)
 1359 07f0 93871700 		addi	a5,a5,1
 1360 07f4 2334F702 		sd	a5,40(a4)
 283:src/kernel/Riscv.cpp ****             SleepPCBList::tryToWakePCBs();
 1361              		.loc 1 283 13 is_stmt 1
 283:src/kernel/Riscv.cpp ****             SleepPCBList::tryToWakePCBs();
 1362              		.loc 1 283 34 is_stmt 0
 1363 07f8 97040000 		la	s1,_ZN3PCB16timeSliceCounterE
 1363      83B40400 
 1364 0800 83B70400 		ld	a5,0(s1)
 1365 0804 93871700 		addi	a5,a5,1
 1366 0808 23B0F400 		sd	a5,0(s1)
 284:src/kernel/Riscv.cpp ****             if (PCB::timeSliceCounter >= PCB::running->getTimeSlice())
 1367              		.loc 1 284 13 is_stmt 1
 284:src/kernel/Riscv.cpp ****             if (PCB::timeSliceCounter >= PCB::running->getTimeSlice())
 1368              		.loc 1 284 40 is_stmt 0
 1369 080c 97000000 		call	_ZN12SleepPCBList13tryToWakePCBsEv@plt
 1369      E7800000 
 1370              	.LVL113:
 285:src/kernel/Riscv.cpp ****             {
 1371              		.loc 1 285 13 is_stmt 1
 285:src/kernel/Riscv.cpp ****             {
 1372              		.loc 1 285 68 is_stmt 0
 1373 0814 97070000 		la	a5,_ZN3PCB7runningE
 1373      83B70700 
 1374 081c 83B70700 		ld	a5,0(a5)
 1375              	.LVL114:
 1376              	.LBB77:
 1377              	.LBB78:
 1378              		.file 3 "src/kernel/../../h/PCB.hpp"
   1:src/kernel/../../h/PCB.hpp **** //
   2:src/kernel/../../h/PCB.hpp **** // Created by os on 4/27/22.
   3:src/kernel/../../h/PCB.hpp **** //
GAS LISTING /tmp/cctNXpE4.s 			page 39


   4:src/kernel/../../h/PCB.hpp **** 
   5:src/kernel/../../h/PCB.hpp **** #ifndef PROJECT_BASE_V1_0_PCB_HPP
   6:src/kernel/../../h/PCB.hpp **** #define PROJECT_BASE_V1_0_PCB_HPP
   7:src/kernel/../../h/PCB.hpp **** 
   8:src/kernel/../../h/PCB.hpp **** #include "../lib/hw.h"
   9:src/kernel/../../h/PCB.hpp **** 
  10:src/kernel/../../h/PCB.hpp **** class PCB
  11:src/kernel/../../h/PCB.hpp **** {
  12:src/kernel/../../h/PCB.hpp **** private:
  13:src/kernel/../../h/PCB.hpp ****     static uint64 savedRegA4;
  14:src/kernel/../../h/PCB.hpp **** 
  15:src/kernel/../../h/PCB.hpp ****     using Body = void (*)(void*);
  16:src/kernel/../../h/PCB.hpp **** 
  17:src/kernel/../../h/PCB.hpp ****     PCB(Body body,  void* args, void* stack_space, uint64 timeSlice);
  18:src/kernel/../../h/PCB.hpp ****     ~PCB();
  19:src/kernel/../../h/PCB.hpp **** 
  20:src/kernel/../../h/PCB.hpp ****     void start();
  21:src/kernel/../../h/PCB.hpp ****     static void dispatch();
  22:src/kernel/../../h/PCB.hpp **** 
  23:src/kernel/../../h/PCB.hpp ****     static PCB* running;
  24:src/kernel/../../h/PCB.hpp **** 
  25:src/kernel/../../h/PCB.hpp ****     static uint64 timeSliceCounter;
  26:src/kernel/../../h/PCB.hpp ****     uint64 getTimeSlice() { return timeSlice;}
 1379              		.loc 3 26 29 is_stmt 1
 1380              		.loc 3 26 36 is_stmt 0
 1381 0820 83B78701 		ld	a5,24(a5)
 1382              	.LVL115:
 1383              	.LBE78:
 1384              	.LBE77:
 285:src/kernel/Riscv.cpp ****             {
 1385              		.loc 1 285 39
 1386 0824 03B70400 		ld	a4,0(s1)
 285:src/kernel/Riscv.cpp ****             {
 1387              		.loc 1 285 13
 1388 0828 6378F702 		bgeu	a4,a5,.L89
 1389              	.L69:
 291:src/kernel/Riscv.cpp ****             Riscv::w_sepc(sepc);
 1390              		.loc 1 291 13 is_stmt 1
 291:src/kernel/Riscv.cpp ****             Riscv::w_sepc(sepc);
 1391              		.loc 1 291 29 is_stmt 0
 1392 082c 833704FA 		ld	a5,-96(s0)
 1393              	.LVL116:
 1394              	.LBB79:
 1395              	.LBB80:
 216:src/kernel/../../h/Riscv.hpp **** }
 217:src/kernel/../../h/Riscv.hpp **** 
 218:src/kernel/../../h/Riscv.hpp **** inline void Riscv::w_sstatus(uint64 sstatus) {
 219:src/kernel/../../h/Riscv.hpp ****     __asm__ volatile("csrw sstatus, %0" : :"r"(sstatus));
 1396              		.loc 2 219 5 is_stmt 1
 1397              		.loc 2 219 57 is_stmt 0
 1398              	#APP
 1399              	# 219 "src/kernel/../../h/Riscv.hpp" 1
 220              	}
 1400              		csrw sstatus, a5
 1401              	# 0 "" 2
 1402              	.LVL117:
 1403              	#NO_APP
GAS LISTING /tmp/cctNXpE4.s 			page 40


 1404              	.LBE80:
 1405              	.LBE79:
 292:src/kernel/Riscv.cpp ****             changePrivMode();
 1406              		.loc 1 292 13 is_stmt 1
 292:src/kernel/Riscv.cpp ****             changePrivMode();
 1407              		.loc 1 292 26 is_stmt 0
 1408 0834 833784F9 		ld	a5,-104(s0)
 1409              	.LVL118:
 1410              	.LBB81:
 1411              	.LBB82:
 146:src/kernel/../../h/Riscv.hpp **** }
 1412              		.loc 2 146 5 is_stmt 1
 146:src/kernel/../../h/Riscv.hpp **** }
 1413              		.loc 2 146 51 is_stmt 0
 1414              	#APP
 1415              	# 146 "src/kernel/../../h/Riscv.hpp" 1
 1416              		csrw sepc, a5
 1417              	# 0 "" 2
 1418              	.LVL119:
 1419              	#NO_APP
 1420              	.LBE82:
 1421              	.LBE81:
 293:src/kernel/Riscv.cpp ****             break;
 1422              		.loc 1 293 13 is_stmt 1
 293:src/kernel/Riscv.cpp ****             break;
 1423              		.loc 1 293 27 is_stmt 0
 1424 083c 97000000 		call	_ZN5Riscv14changePrivModeEv
 1424      E7800000 
 1425              	.LVL120:
 294:src/kernel/Riscv.cpp ****         }
 1426              		.loc 1 294 13 is_stmt 1
 1427              	.L56:
 1428              	.LBE70:
 1429              	.LBE69:
 1430              	.LBE68:
 301:src/kernel/Riscv.cpp ****         }
 302:src/kernel/Riscv.cpp ****         case operationInterrupt:
 303:src/kernel/Riscv.cpp ****         {
 304:src/kernel/Riscv.cpp ****             PCB::threadExitHandler();
 305:src/kernel/Riscv.cpp ****             break;
 306:src/kernel/Riscv.cpp ****         }
 307:src/kernel/Riscv.cpp ****         case addrReadInterrupt:
 308:src/kernel/Riscv.cpp ****         {
 309:src/kernel/Riscv.cpp ****             PCB::threadExitHandler();
 310:src/kernel/Riscv.cpp ****             break;
 311:src/kernel/Riscv.cpp ****         }
 312:src/kernel/Riscv.cpp ****         case addrWriteInterrupt:
 313:src/kernel/Riscv.cpp ****         {
 314:src/kernel/Riscv.cpp ****             PCB::threadExitHandler();
 315:src/kernel/Riscv.cpp ****             break;
 316:src/kernel/Riscv.cpp ****         }
 317:src/kernel/Riscv.cpp ****         case ecallSystemInterupt:
 318:src/kernel/Riscv.cpp ****         case ecallUserInterrupt:
 319:src/kernel/Riscv.cpp ****         {
 320:src/kernel/Riscv.cpp ****             uint64 operation;
 321:src/kernel/Riscv.cpp ****             __asm__ volatile("mv %0, a0" :  "=r"(operation));
 322:src/kernel/Riscv.cpp **** 
GAS LISTING /tmp/cctNXpE4.s 			page 41


 323:src/kernel/Riscv.cpp ****             uint64 volatile sepc = Riscv::r_sepc() + 4;
 324:src/kernel/Riscv.cpp ****             uint64 volatile sstatus = Riscv::r_sstatus();
 325:src/kernel/Riscv.cpp **** 
 326:src/kernel/Riscv.cpp ****             switch(operation)
 327:src/kernel/Riscv.cpp ****             {
 328:src/kernel/Riscv.cpp ****                 case MemoryAllocator::MEM_ALLOC:
 329:src/kernel/Riscv.cpp ****                     MemoryAllocator::memAllocHandler();
 330:src/kernel/Riscv.cpp ****                     break;
 331:src/kernel/Riscv.cpp ****                 case MemoryAllocator::MEM_FREE:
 332:src/kernel/Riscv.cpp ****                     MemoryAllocator::memFreeHandler();
 333:src/kernel/Riscv.cpp ****                     break;
 334:src/kernel/Riscv.cpp ****                 case PCB::THREAD_MAKE_PCB:
 335:src/kernel/Riscv.cpp ****                     PCB::threadMakePCBHandler();
 336:src/kernel/Riscv.cpp ****                     break;
 337:src/kernel/Riscv.cpp ****                 case PCB::THREAD_CREATE:
 338:src/kernel/Riscv.cpp ****                     PCB::threadCreateHandler();
 339:src/kernel/Riscv.cpp ****                     break;
 340:src/kernel/Riscv.cpp ****                 case PCB::THREAD_START:
 341:src/kernel/Riscv.cpp ****                     PCB::threadStartHandler();
 342:src/kernel/Riscv.cpp ****                     break;
 343:src/kernel/Riscv.cpp ****                 case PCB::THREAD_DISPATCH:
 344:src/kernel/Riscv.cpp ****                     PCB::threadDispatchHandler();
 345:src/kernel/Riscv.cpp ****                     break;
 346:src/kernel/Riscv.cpp ****                 case PCB::THREAD_EXIT:
 347:src/kernel/Riscv.cpp ****                     PCB::threadExitHandler();
 348:src/kernel/Riscv.cpp ****                     break;
 349:src/kernel/Riscv.cpp ****                 case PCB::TIME_SLEEP:
 350:src/kernel/Riscv.cpp ****                     PCB::threadSleepHandler();
 351:src/kernel/Riscv.cpp ****                     break;
 352:src/kernel/Riscv.cpp ****                 case PCB::THREAD_DEL_PCB:
 353:src/kernel/Riscv.cpp ****                     PCB::threadDelPCBHandler();
 354:src/kernel/Riscv.cpp ****                     break;
 355:src/kernel/Riscv.cpp ****                 case KSemaphore::SEM_OPEN:
 356:src/kernel/Riscv.cpp ****                     KSemaphore::semOpenHandler();
 357:src/kernel/Riscv.cpp ****                     break;
 358:src/kernel/Riscv.cpp ****                 case KSemaphore::SEM_WAIT:
 359:src/kernel/Riscv.cpp ****                     KSemaphore::semWaitHandler();
 360:src/kernel/Riscv.cpp ****                     break;
 361:src/kernel/Riscv.cpp ****                 case KSemaphore::SEM_SIGNAL:
 362:src/kernel/Riscv.cpp ****                     KSemaphore::semSignalHandler();
 363:src/kernel/Riscv.cpp ****                     break;
 364:src/kernel/Riscv.cpp ****                 case KSemaphore::SEM_CLOSE:
 365:src/kernel/Riscv.cpp ****                     KSemaphore::semCloseHandler();
 366:src/kernel/Riscv.cpp ****                     break;
 367:src/kernel/Riscv.cpp ****                 case KConsole::CONSOLE_GETC:
 368:src/kernel/Riscv.cpp ****                     KConsole::getcHandler();
 369:src/kernel/Riscv.cpp ****                     break;
 370:src/kernel/Riscv.cpp ****                 case KConsole::CONSOLE_PUTC:
 371:src/kernel/Riscv.cpp ****                     KConsole::putcHandler();
 372:src/kernel/Riscv.cpp ****                     break;
 373:src/kernel/Riscv.cpp ****                 case KConsole::CONSOLE_GET_CHAR:
 374:src/kernel/Riscv.cpp ****                     KConsole::getCharHandler();
 375:src/kernel/Riscv.cpp ****                     break;
 376:src/kernel/Riscv.cpp ****             }
 377:src/kernel/Riscv.cpp **** 
 378:src/kernel/Riscv.cpp ****             Riscv::w_sstatus(sstatus);
 379:src/kernel/Riscv.cpp ****             Riscv::w_sepc(sepc);
GAS LISTING /tmp/cctNXpE4.s 			page 42


 380:src/kernel/Riscv.cpp ****             changePrivMode();
 381:src/kernel/Riscv.cpp ****             break;
 382:src/kernel/Riscv.cpp ****         }
 383:src/kernel/Riscv.cpp ****     }
 384:src/kernel/Riscv.cpp **** }
 1431              		.loc 1 384 1 is_stmt 0
 1432 0844 83308106 		ld	ra,104(sp)
 1433              		.cfi_remember_state
 1434              		.cfi_restore 1
 1435 0848 03340106 		ld	s0,96(sp)
 1436              		.cfi_restore 8
 1437              		.cfi_def_cfa 2, 112
 1438 084c 83348105 		ld	s1,88(sp)
 1439              		.cfi_restore 9
 1440 0850 13010107 		addi	sp,sp,112
 1441              		.cfi_def_cfa_offset 0
 1442 0854 67800000 		jr	ra
 1443              	.L89:
 1444              		.cfi_restore_state
 1445              	.LBB96:
 1446              	.LBB94:
 1447              	.LBB83:
 287:src/kernel/Riscv.cpp ****                 PCB::dispatch();
 1448              		.loc 1 287 17 is_stmt 1
 287:src/kernel/Riscv.cpp ****                 PCB::dispatch();
 1449              		.loc 1 287 39 is_stmt 0
 1450 0858 23B00400 		sd	zero,0(s1)
 288:src/kernel/Riscv.cpp ****             }
 1451              		.loc 1 288 17 is_stmt 1
 288:src/kernel/Riscv.cpp ****             }
 1452              		.loc 1 288 30 is_stmt 0
 1453 085c 97000000 		call	_ZN3PCB8dispatchEv@plt
 1453      E7800000 
 1454              	.LVL121:
 1455 0864 6FF09FFC 		j	.L69
 1456              	.L66:
 1457              	.LBE83:
 302:src/kernel/Riscv.cpp ****         {
 1458              		.loc 1 302 9 is_stmt 1
 303:src/kernel/Riscv.cpp ****             PCB::threadExitHandler();
 1459              		.loc 1 303 9
 304:src/kernel/Riscv.cpp ****             break;
 1460              		.loc 1 304 13
 304:src/kernel/Riscv.cpp ****             break;
 1461              		.loc 1 304 35 is_stmt 0
 1462 0868 97000000 		call	_ZN3PCB17threadExitHandlerEv@plt
 1462      E7800000 
 1463              	.LVL122:
 305:src/kernel/Riscv.cpp ****         }
 1464              		.loc 1 305 13 is_stmt 1
 1465 0870 6FF05FFD 		j	.L56
 1466              	.L65:
 307:src/kernel/Riscv.cpp ****         {
 1467              		.loc 1 307 9
 308:src/kernel/Riscv.cpp ****             PCB::threadExitHandler();
 1468              		.loc 1 308 9
 309:src/kernel/Riscv.cpp ****             break;
GAS LISTING /tmp/cctNXpE4.s 			page 43


 1469              		.loc 1 309 13
 309:src/kernel/Riscv.cpp ****             break;
 1470              		.loc 1 309 35 is_stmt 0
 1471 0874 97000000 		call	_ZN3PCB17threadExitHandlerEv@plt
 1471      E7800000 
 1472              	.LVL123:
 310:src/kernel/Riscv.cpp ****         }
 1473              		.loc 1 310 13 is_stmt 1
 1474 087c 6FF09FFC 		j	.L56
 1475              	.L64:
 312:src/kernel/Riscv.cpp ****         {
 1476              		.loc 1 312 9
 313:src/kernel/Riscv.cpp ****             PCB::threadExitHandler();
 1477              		.loc 1 313 9
 314:src/kernel/Riscv.cpp ****             break;
 1478              		.loc 1 314 13
 314:src/kernel/Riscv.cpp ****             break;
 1479              		.loc 1 314 35 is_stmt 0
 1480 0880 97000000 		call	_ZN3PCB17threadExitHandlerEv@plt
 1480      E7800000 
 1481              	.LVL124:
 315:src/kernel/Riscv.cpp ****         }
 1482              		.loc 1 315 13 is_stmt 1
 1483 0888 6FF0DFFB 		j	.L56
 1484              	.L63:
 317:src/kernel/Riscv.cpp ****         case ecallUserInterrupt:
 1485              		.loc 1 317 9
 318:src/kernel/Riscv.cpp ****         {
 1486              		.loc 1 318 9
 319:src/kernel/Riscv.cpp ****             uint64 operation;
 1487              		.loc 1 319 9
 1488              	.LBB84:
 320:src/kernel/Riscv.cpp ****             __asm__ volatile("mv %0, a0" :  "=r"(operation));
 1489              		.loc 1 320 13
 321:src/kernel/Riscv.cpp **** 
 1490              		.loc 1 321 13
 321:src/kernel/Riscv.cpp **** 
 1491              		.loc 1 321 61 is_stmt 0
 1492              	#APP
 1493              	# 321 "src/kernel/Riscv.cpp" 1
 1494              		mv a5, a0
 1495              	# 0 "" 2
 1496              	.LVL125:
 323:src/kernel/Riscv.cpp ****             uint64 volatile sstatus = Riscv::r_sstatus();
 1497              		.loc 1 323 13 is_stmt 1
 1498              	#NO_APP
 1499              	.LBB85:
 1500              	.LBB86:
 140:src/kernel/../../h/Riscv.hpp ****     __asm__ volatile("csrr %0, sepc" : "=r"(sepc));
 1501              		.loc 2 140 5
 141:src/kernel/../../h/Riscv.hpp ****     return sepc;
 1502              		.loc 2 141 5
 141:src/kernel/../../h/Riscv.hpp ****     return sepc;
 1503              		.loc 2 141 51 is_stmt 0
 1504              	#APP
 1505              	# 141 "src/kernel/../../h/Riscv.hpp" 1
 1506              		csrr a4, sepc
GAS LISTING /tmp/cctNXpE4.s 			page 44


 1507              	# 0 "" 2
 1508              	#NO_APP
 1509 0894 233CE4FC 		sd	a4,-40(s0)
 142:src/kernel/../../h/Riscv.hpp **** }
 1510              		.loc 2 142 5 is_stmt 1
 142:src/kernel/../../h/Riscv.hpp **** }
 1511              		.loc 2 142 12 is_stmt 0
 1512 0898 033784FD 		ld	a4,-40(s0)
 1513              	.LBE86:
 1514              	.LBE85:
 323:src/kernel/Riscv.cpp ****             uint64 volatile sstatus = Riscv::r_sstatus();
 1515              		.loc 1 323 52
 1516 089c 13074700 		addi	a4,a4,4
 323:src/kernel/Riscv.cpp ****             uint64 volatile sstatus = Riscv::r_sstatus();
 1517              		.loc 1 323 54
 1518 08a0 2334E4FA 		sd	a4,-88(s0)
 324:src/kernel/Riscv.cpp **** 
 1519              		.loc 1 324 13 is_stmt 1
 1520              	.LBB87:
 1521              	.LBB88:
 213:src/kernel/../../h/Riscv.hpp ****     __asm__ volatile("csrr %0, sstatus" : "=r"(sstatus));
 1522              		.loc 2 213 5
 214:src/kernel/../../h/Riscv.hpp ****     return sstatus;
 1523              		.loc 2 214 5
 214:src/kernel/../../h/Riscv.hpp ****     return sstatus;
 1524              		.loc 2 214 57 is_stmt 0
 1525              	#APP
 1526              	# 214 "src/kernel/../../h/Riscv.hpp" 1
 1527              		csrr a4, sstatus
 1528              	# 0 "" 2
 1529              	#NO_APP
 1530 08a8 2338E4FC 		sd	a4,-48(s0)
 215:src/kernel/../../h/Riscv.hpp **** }
 1531              		.loc 2 215 5 is_stmt 1
 215:src/kernel/../../h/Riscv.hpp **** }
 1532              		.loc 2 215 12 is_stmt 0
 1533 08ac 033704FD 		ld	a4,-48(s0)
 1534              	.LBE88:
 1535              	.LBE87:
 324:src/kernel/Riscv.cpp **** 
 1536              		.loc 1 324 56
 1537 08b0 2338E4FA 		sd	a4,-80(s0)
 326:src/kernel/Riscv.cpp ****             {
 1538              		.loc 1 326 13 is_stmt 1
 1539 08b4 13073004 		li	a4,67
 1540 08b8 6364F702 		bgtu	a5,a4,.L70
 1541 08bc 93972700 		slli	a5,a5,2
 1542              	.LVL126:
 1543 08c0 17070000 		lla	a4,.L72
 1543      13070700 
 1544 08c8 B387E700 		add	a5,a5,a4
 1545 08cc 83A70700 		lw	a5,0(a5)
 1546 08d0 B387E700 		add	a5,a5,a4
 1547 08d4 67800700 		jr	a5
 1548              		.section	.rodata
 1549              		.align	2
 1550              		.align	2
GAS LISTING /tmp/cctNXpE4.s 			page 45


 1551              	.L72:
 1552 0040 00000000 		.word	.L70-.L72
 1553 0044 00000000 		.word	.L87-.L72
 1554 0048 00000000 		.word	.L86-.L72
 1555 004c 00000000 		.word	.L70-.L72
 1556 0050 00000000 		.word	.L70-.L72
 1557 0054 00000000 		.word	.L70-.L72
 1558 0058 00000000 		.word	.L70-.L72
 1559 005c 00000000 		.word	.L70-.L72
 1560 0060 00000000 		.word	.L70-.L72
 1561 0064 00000000 		.word	.L70-.L72
 1562 0068 00000000 		.word	.L70-.L72
 1563 006c 00000000 		.word	.L70-.L72
 1564 0070 00000000 		.word	.L70-.L72
 1565 0074 00000000 		.word	.L70-.L72
 1566 0078 00000000 		.word	.L70-.L72
 1567 007c 00000000 		.word	.L70-.L72
 1568 0080 00000000 		.word	.L70-.L72
 1569 0084 00000000 		.word	.L85-.L72
 1570 0088 00000000 		.word	.L84-.L72
 1571 008c 00000000 		.word	.L83-.L72
 1572 0090 00000000 		.word	.L82-.L72
 1573 0094 00000000 		.word	.L81-.L72
 1574 0098 00000000 		.word	.L80-.L72
 1575 009c 00000000 		.word	.L70-.L72
 1576 00a0 00000000 		.word	.L70-.L72
 1577 00a4 00000000 		.word	.L70-.L72
 1578 00a8 00000000 		.word	.L70-.L72
 1579 00ac 00000000 		.word	.L70-.L72
 1580 00b0 00000000 		.word	.L70-.L72
 1581 00b4 00000000 		.word	.L70-.L72
 1582 00b8 00000000 		.word	.L70-.L72
 1583 00bc 00000000 		.word	.L70-.L72
 1584 00c0 00000000 		.word	.L70-.L72
 1585 00c4 00000000 		.word	.L79-.L72
 1586 00c8 00000000 		.word	.L78-.L72
 1587 00cc 00000000 		.word	.L77-.L72
 1588 00d0 00000000 		.word	.L76-.L72
 1589 00d4 00000000 		.word	.L70-.L72
 1590 00d8 00000000 		.word	.L70-.L72
 1591 00dc 00000000 		.word	.L70-.L72
 1592 00e0 00000000 		.word	.L70-.L72
 1593 00e4 00000000 		.word	.L70-.L72
 1594 00e8 00000000 		.word	.L70-.L72
 1595 00ec 00000000 		.word	.L70-.L72
 1596 00f0 00000000 		.word	.L70-.L72
 1597 00f4 00000000 		.word	.L70-.L72
 1598 00f8 00000000 		.word	.L70-.L72
 1599 00fc 00000000 		.word	.L70-.L72
 1600 0100 00000000 		.word	.L70-.L72
 1601 0104 00000000 		.word	.L75-.L72
 1602 0108 00000000 		.word	.L70-.L72
 1603 010c 00000000 		.word	.L70-.L72
 1604 0110 00000000 		.word	.L70-.L72
 1605 0114 00000000 		.word	.L70-.L72
 1606 0118 00000000 		.word	.L70-.L72
 1607 011c 00000000 		.word	.L70-.L72
GAS LISTING /tmp/cctNXpE4.s 			page 46


 1608 0120 00000000 		.word	.L70-.L72
 1609 0124 00000000 		.word	.L70-.L72
 1610 0128 00000000 		.word	.L70-.L72
 1611 012c 00000000 		.word	.L70-.L72
 1612 0130 00000000 		.word	.L70-.L72
 1613 0134 00000000 		.word	.L70-.L72
 1614 0138 00000000 		.word	.L70-.L72
 1615 013c 00000000 		.word	.L70-.L72
 1616 0140 00000000 		.word	.L70-.L72
 1617 0144 00000000 		.word	.L74-.L72
 1618 0148 00000000 		.word	.L73-.L72
 1619 014c 00000000 		.word	.L71-.L72
 1620              		.text
 1621              	.L87:
 328:src/kernel/Riscv.cpp ****                     MemoryAllocator::memAllocHandler();
 1622              		.loc 1 328 17
 329:src/kernel/Riscv.cpp ****                     break;
 1623              		.loc 1 329 21
 329:src/kernel/Riscv.cpp ****                     break;
 1624              		.loc 1 329 53 is_stmt 0
 1625 08d8 97000000 		call	_ZN15MemoryAllocator15memAllocHandlerEv@plt
 1625      E7800000 
 1626              	.LVL127:
 330:src/kernel/Riscv.cpp ****                 case MemoryAllocator::MEM_FREE:
 1627              		.loc 1 330 21 is_stmt 1
 1628              	.L70:
 378:src/kernel/Riscv.cpp ****             Riscv::w_sepc(sepc);
 1629              		.loc 1 378 13
 378:src/kernel/Riscv.cpp ****             Riscv::w_sepc(sepc);
 1630              		.loc 1 378 29 is_stmt 0
 1631 08e0 833704FB 		ld	a5,-80(s0)
 1632              	.LVL128:
 1633              	.LBB89:
 1634              	.LBB90:
 219:src/kernel/../../h/Riscv.hpp **** }
 1635              		.loc 2 219 5 is_stmt 1
 219:src/kernel/../../h/Riscv.hpp **** }
 1636              		.loc 2 219 57 is_stmt 0
 1637              	#APP
 1638              	# 219 "src/kernel/../../h/Riscv.hpp" 1
 1639              		csrw sstatus, a5
 1640              	# 0 "" 2
 1641              	.LVL129:
 1642              	#NO_APP
 1643              	.LBE90:
 1644              	.LBE89:
 379:src/kernel/Riscv.cpp ****             changePrivMode();
 1645              		.loc 1 379 13 is_stmt 1
 379:src/kernel/Riscv.cpp ****             changePrivMode();
 1646              		.loc 1 379 26 is_stmt 0
 1647 08e8 833784FA 		ld	a5,-88(s0)
 1648              	.LVL130:
 1649              	.LBB91:
 1650              	.LBB92:
 146:src/kernel/../../h/Riscv.hpp **** }
 1651              		.loc 2 146 5 is_stmt 1
 146:src/kernel/../../h/Riscv.hpp **** }
GAS LISTING /tmp/cctNXpE4.s 			page 47


 1652              		.loc 2 146 51 is_stmt 0
 1653              	#APP
 1654              	# 146 "src/kernel/../../h/Riscv.hpp" 1
 1655              		csrw sepc, a5
 1656              	# 0 "" 2
 1657              	.LVL131:
 1658              	#NO_APP
 1659              	.LBE92:
 1660              	.LBE91:
 380:src/kernel/Riscv.cpp ****             break;
 1661              		.loc 1 380 13 is_stmt 1
 380:src/kernel/Riscv.cpp ****             break;
 1662              		.loc 1 380 27 is_stmt 0
 1663 08f0 97000000 		call	_ZN5Riscv14changePrivModeEv
 1663      E7800000 
 1664              	.LVL132:
 381:src/kernel/Riscv.cpp ****         }
 1665              		.loc 1 381 13 is_stmt 1
 1666              	.LBE84:
 1667              	.LBE94:
 1668              	.LBE96:
 1669              		.loc 1 384 1 is_stmt 0
 1670 08f8 6FF0DFF4 		j	.L56
 1671              	.L86:
 1672              	.LBB97:
 1673              	.LBB95:
 1674              	.LBB93:
 331:src/kernel/Riscv.cpp ****                     MemoryAllocator::memFreeHandler();
 1675              		.loc 1 331 17 is_stmt 1
 332:src/kernel/Riscv.cpp ****                     break;
 1676              		.loc 1 332 21
 332:src/kernel/Riscv.cpp ****                     break;
 1677              		.loc 1 332 52 is_stmt 0
 1678 08fc 97000000 		call	_ZN15MemoryAllocator14memFreeHandlerEv@plt
 1678      E7800000 
 1679              	.LVL133:
 333:src/kernel/Riscv.cpp ****                 case PCB::THREAD_MAKE_PCB:
 1680              		.loc 1 333 21 is_stmt 1
 1681 0904 6FF0DFFD 		j	.L70
 1682              	.L82:
 334:src/kernel/Riscv.cpp ****                     PCB::threadMakePCBHandler();
 1683              		.loc 1 334 17
 335:src/kernel/Riscv.cpp ****                     break;
 1684              		.loc 1 335 21
 335:src/kernel/Riscv.cpp ****                     break;
 1685              		.loc 1 335 46 is_stmt 0
 1686 0908 97000000 		call	_ZN3PCB20threadMakePCBHandlerEv@plt
 1686      E7800000 
 1687              	.LVL134:
 336:src/kernel/Riscv.cpp ****                 case PCB::THREAD_CREATE:
 1688              		.loc 1 336 21 is_stmt 1
 1689 0910 6FF01FFD 		j	.L70
 1690              	.L85:
 337:src/kernel/Riscv.cpp ****                     PCB::threadCreateHandler();
 1691              		.loc 1 337 17
 338:src/kernel/Riscv.cpp ****                     break;
 1692              		.loc 1 338 21
GAS LISTING /tmp/cctNXpE4.s 			page 48


 338:src/kernel/Riscv.cpp ****                     break;
 1693              		.loc 1 338 45 is_stmt 0
 1694 0914 97000000 		call	_ZN3PCB19threadCreateHandlerEv@plt
 1694      E7800000 
 1695              	.LVL135:
 339:src/kernel/Riscv.cpp ****                 case PCB::THREAD_START:
 1696              		.loc 1 339 21 is_stmt 1
 1697 091c 6FF05FFC 		j	.L70
 1698              	.L81:
 340:src/kernel/Riscv.cpp ****                     PCB::threadStartHandler();
 1699              		.loc 1 340 17
 341:src/kernel/Riscv.cpp ****                     break;
 1700              		.loc 1 341 21
 341:src/kernel/Riscv.cpp ****                     break;
 1701              		.loc 1 341 44 is_stmt 0
 1702 0920 97000000 		call	_ZN3PCB18threadStartHandlerEv@plt
 1702      E7800000 
 1703              	.LVL136:
 342:src/kernel/Riscv.cpp ****                 case PCB::THREAD_DISPATCH:
 1704              		.loc 1 342 21 is_stmt 1
 1705 0928 6FF09FFB 		j	.L70
 1706              	.L83:
 343:src/kernel/Riscv.cpp ****                     PCB::threadDispatchHandler();
 1707              		.loc 1 343 17
 344:src/kernel/Riscv.cpp ****                     break;
 1708              		.loc 1 344 21
 344:src/kernel/Riscv.cpp ****                     break;
 1709              		.loc 1 344 47 is_stmt 0
 1710 092c 97000000 		call	_ZN3PCB21threadDispatchHandlerEv@plt
 1710      E7800000 
 1711              	.LVL137:
 345:src/kernel/Riscv.cpp ****                 case PCB::THREAD_EXIT:
 1712              		.loc 1 345 21 is_stmt 1
 1713 0934 6FF0DFFA 		j	.L70
 1714              	.L84:
 346:src/kernel/Riscv.cpp ****                     PCB::threadExitHandler();
 1715              		.loc 1 346 17
 347:src/kernel/Riscv.cpp ****                     break;
 1716              		.loc 1 347 21
 347:src/kernel/Riscv.cpp ****                     break;
 1717              		.loc 1 347 43 is_stmt 0
 1718 0938 97000000 		call	_ZN3PCB17threadExitHandlerEv@plt
 1718      E7800000 
 1719              	.LVL138:
 348:src/kernel/Riscv.cpp ****                 case PCB::TIME_SLEEP:
 1720              		.loc 1 348 21 is_stmt 1
 1721 0940 6FF01FFA 		j	.L70
 1722              	.L75:
 349:src/kernel/Riscv.cpp ****                     PCB::threadSleepHandler();
 1723              		.loc 1 349 17
 350:src/kernel/Riscv.cpp ****                     break;
 1724              		.loc 1 350 21
 350:src/kernel/Riscv.cpp ****                     break;
 1725              		.loc 1 350 44 is_stmt 0
 1726 0944 97000000 		call	_ZN3PCB18threadSleepHandlerEv@plt
 1726      E7800000 
 1727              	.LVL139:
GAS LISTING /tmp/cctNXpE4.s 			page 49


 351:src/kernel/Riscv.cpp ****                 case PCB::THREAD_DEL_PCB:
 1728              		.loc 1 351 21 is_stmt 1
 1729 094c 6FF05FF9 		j	.L70
 1730              	.L80:
 352:src/kernel/Riscv.cpp ****                     PCB::threadDelPCBHandler();
 1731              		.loc 1 352 17
 353:src/kernel/Riscv.cpp ****                     break;
 1732              		.loc 1 353 21
 353:src/kernel/Riscv.cpp ****                     break;
 1733              		.loc 1 353 45 is_stmt 0
 1734 0950 97000000 		call	_ZN3PCB19threadDelPCBHandlerEv@plt
 1734      E7800000 
 1735              	.LVL140:
 354:src/kernel/Riscv.cpp ****                 case KSemaphore::SEM_OPEN:
 1736              		.loc 1 354 21 is_stmt 1
 1737 0958 6FF09FF8 		j	.L70
 1738              	.L79:
 355:src/kernel/Riscv.cpp ****                     KSemaphore::semOpenHandler();
 1739              		.loc 1 355 17
 356:src/kernel/Riscv.cpp ****                     break;
 1740              		.loc 1 356 21
 356:src/kernel/Riscv.cpp ****                     break;
 1741              		.loc 1 356 47 is_stmt 0
 1742 095c 97000000 		call	_ZN10KSemaphore14semOpenHandlerEv@plt
 1742      E7800000 
 1743              	.LVL141:
 357:src/kernel/Riscv.cpp ****                 case KSemaphore::SEM_WAIT:
 1744              		.loc 1 357 21 is_stmt 1
 1745 0964 6FF0DFF7 		j	.L70
 1746              	.L77:
 358:src/kernel/Riscv.cpp ****                     KSemaphore::semWaitHandler();
 1747              		.loc 1 358 17
 359:src/kernel/Riscv.cpp ****                     break;
 1748              		.loc 1 359 21
 359:src/kernel/Riscv.cpp ****                     break;
 1749              		.loc 1 359 47 is_stmt 0
 1750 0968 97000000 		call	_ZN10KSemaphore14semWaitHandlerEv@plt
 1750      E7800000 
 1751              	.LVL142:
 360:src/kernel/Riscv.cpp ****                 case KSemaphore::SEM_SIGNAL:
 1752              		.loc 1 360 21 is_stmt 1
 1753 0970 6FF01FF7 		j	.L70
 1754              	.L76:
 361:src/kernel/Riscv.cpp ****                     KSemaphore::semSignalHandler();
 1755              		.loc 1 361 17
 362:src/kernel/Riscv.cpp ****                     break;
 1756              		.loc 1 362 21
 362:src/kernel/Riscv.cpp ****                     break;
 1757              		.loc 1 362 49 is_stmt 0
 1758 0974 97000000 		call	_ZN10KSemaphore16semSignalHandlerEv@plt
 1758      E7800000 
 1759              	.LVL143:
 363:src/kernel/Riscv.cpp ****                 case KSemaphore::SEM_CLOSE:
 1760              		.loc 1 363 21 is_stmt 1
 1761 097c 6FF05FF6 		j	.L70
 1762              	.L78:
 364:src/kernel/Riscv.cpp ****                     KSemaphore::semCloseHandler();
GAS LISTING /tmp/cctNXpE4.s 			page 50


 1763              		.loc 1 364 17
 365:src/kernel/Riscv.cpp ****                     break;
 1764              		.loc 1 365 21
 365:src/kernel/Riscv.cpp ****                     break;
 1765              		.loc 1 365 48 is_stmt 0
 1766 0980 97000000 		call	_ZN10KSemaphore15semCloseHandlerEv@plt
 1766      E7800000 
 1767              	.LVL144:
 366:src/kernel/Riscv.cpp ****                 case KConsole::CONSOLE_GETC:
 1768              		.loc 1 366 21 is_stmt 1
 1769 0988 6FF09FF5 		j	.L70
 1770              	.L74:
 367:src/kernel/Riscv.cpp ****                     KConsole::getcHandler();
 1771              		.loc 1 367 17
 368:src/kernel/Riscv.cpp ****                     break;
 1772              		.loc 1 368 21
 368:src/kernel/Riscv.cpp ****                     break;
 1773              		.loc 1 368 42 is_stmt 0
 1774 098c 97000000 		call	_ZN8KConsole11getcHandlerEv@plt
 1774      E7800000 
 1775              	.LVL145:
 369:src/kernel/Riscv.cpp ****                 case KConsole::CONSOLE_PUTC:
 1776              		.loc 1 369 21 is_stmt 1
 1777 0994 6FF0DFF4 		j	.L70
 1778              	.L73:
 370:src/kernel/Riscv.cpp ****                     KConsole::putcHandler();
 1779              		.loc 1 370 17
 371:src/kernel/Riscv.cpp ****                     break;
 1780              		.loc 1 371 21
 371:src/kernel/Riscv.cpp ****                     break;
 1781              		.loc 1 371 42 is_stmt 0
 1782 0998 97000000 		call	_ZN8KConsole11putcHandlerEv@plt
 1782      E7800000 
 1783              	.LVL146:
 372:src/kernel/Riscv.cpp ****                 case KConsole::CONSOLE_GET_CHAR:
 1784              		.loc 1 372 21 is_stmt 1
 1785 09a0 6FF01FF4 		j	.L70
 1786              	.L71:
 373:src/kernel/Riscv.cpp ****                     KConsole::getCharHandler();
 1787              		.loc 1 373 17
 374:src/kernel/Riscv.cpp ****                     break;
 1788              		.loc 1 374 21
 374:src/kernel/Riscv.cpp ****                     break;
 1789              		.loc 1 374 45 is_stmt 0
 1790 09a4 97000000 		call	_ZN8KConsole14getCharHandlerEv@plt
 1790      E7800000 
 1791              	.LVL147:
 375:src/kernel/Riscv.cpp ****             }
 1792              		.loc 1 375 21 is_stmt 1
 1793 09ac 6FF05FF3 		j	.L70
 1794              	.LBE93:
 1795              	.LBE95:
 1796              	.LBE97:
 1797              		.cfi_endproc
 1798              	.LFE41:
 1800              		.globl	_ZN5Riscv16programStartAddrE
 1801              		.globl	_ZN5Riscv7mainPMTE
GAS LISTING /tmp/cctNXpE4.s 			page 51


 1802              		.globl	_ZN5Riscv14semaphoreCacheE
 1803              		.globl	_ZN5Riscv8pcbCacheE
 1804              		.globl	_ZN5Riscv16kernelMainCalledE
 1805              		.globl	_ZN5Riscv12finishSystemE
 1806              		.globl	_ZN5Riscv9totalTimeE
 1807              		.data
 1808              		.align	3
 1809              		.set	.LANCHOR1,. + 0
 1812              	_ZN5Riscv16programStartAddrE:
 1813 0000 00000080 		.dword	2147483648
 1813      00000000 
 1814              		.bss
 1815              		.align	3
 1816              		.set	.LANCHOR0,. + 0
 1819              	_ZN5Riscv12finishSystemE:
 1820 0000 00       		.zero	1
 1821 0001 00000000 		.zero	7
 1821      000000
 1824              	_ZN5Riscv7mainPMTE:
 1825 0008 00000000 		.zero	8
 1825      00000000 
 1828              	_ZN5Riscv8pcbCacheE:
 1829 0010 00000000 		.zero	8
 1829      00000000 
 1832              	_ZN5Riscv14semaphoreCacheE:
 1833 0018 00000000 		.zero	8
 1833      00000000 
 1836              	_ZN5Riscv16kernelMainCalledE:
 1837 0020 00       		.zero	1
 1838 0021 00000000 		.zero	7
 1838      000000
 1841              	_ZN5Riscv9totalTimeE:
 1842 0028 00000000 		.zero	8
 1842      00000000 
 1843              		.text
 1844              	.Letext0:
 1845              		.file 4 "src/kernel/../../h/../lib/hw.h"
 1846              		.file 5 "src/kernel/../../h/slabAllocator.hpp"
 1847              		.file 6 "src/kernel/../../h/MemoryAllocator.hpp"
 1848              		.file 7 "src/kernel/../../h/SleepPCBList.hpp"
 1849              		.file 8 "src/kernel/../../h/KSemaphore.hpp"
 1850              		.file 9 "src/kernel/../../h/KConsole.hpp"
 1851              		.file 10 "src/kernel/../../h/Scheduler.hpp"
 1852              		.file 11 "src/kernel/../../h/buddyAllocator.hpp"
 1853              		.file 12 "src/kernel/../../h/syscall_c_kernel.hpp"
 1854              		.file 13 "src/kernel/../../h/slabTests.hpp"
GAS LISTING /tmp/cctNXpE4.s 			page 52


DEFINED SYMBOLS
                            *ABS*:0000000000000000 Riscv.cpp
     /tmp/cctNXpE4.s:9      .text:0000000000000000 _ZN5Riscv17initVirtualMemoryEv
     /tmp/cctNXpE4.s:13     .text:0000000000000000 .L0 
     /tmp/cctNXpE4.s:14     .text:0000000000000000 .L0 
     /tmp/cctNXpE4.s:15     .text:0000000000000004 .L0 
     /tmp/cctNXpE4.s:17     .text:0000000000000008 .L0 
     /tmp/cctNXpE4.s:19     .text:000000000000000c .L0 
     /tmp/cctNXpE4.s:21     .text:000000000000000c .L0 
     /tmp/cctNXpE4.s:22     .text:0000000000000010 .L0 
     /tmp/cctNXpE4.s:23     .text:0000000000000010 .L0 
     /tmp/cctNXpE4.s:25     .text:0000000000000014 .L0 
     /tmp/cctNXpE4.s:27     .text:0000000000000018 .L0 
     /tmp/cctNXpE4.s:33     .text:0000000000000018 _ZN5Riscv16enableInterruptsEv
     /tmp/cctNXpE4.s:36     .text:0000000000000018 .L0 
     /tmp/cctNXpE4.s:37     .text:0000000000000018 .L0 
     /tmp/cctNXpE4.s:38     .text:000000000000001c .L0 
     /tmp/cctNXpE4.s:40     .text:0000000000000020 .L0 
     /tmp/cctNXpE4.s:42     .text:0000000000000024 .L0 
     /tmp/cctNXpE4.s:48     .text:0000000000000024 .L0 
     /tmp/cctNXpE4.s:49     .text:0000000000000024 .L0 
     /tmp/cctNXpE4.s:50     .text:0000000000000024 .L0 
     /tmp/cctNXpE4.s:60     .text:000000000000002c .L0 
     /tmp/cctNXpE4.s:61     .text:0000000000000030 .L0 
     /tmp/cctNXpE4.s:62     .text:0000000000000030 .L0 
     /tmp/cctNXpE4.s:64     .text:0000000000000034 .L0 
     /tmp/cctNXpE4.s:66     .text:0000000000000038 .L0 
     /tmp/cctNXpE4.s:72     .text:0000000000000038 _ZN5Riscv17disableInterruptsEv
     /tmp/cctNXpE4.s:75     .text:0000000000000038 .L0 
     /tmp/cctNXpE4.s:76     .text:0000000000000038 .L0 
     /tmp/cctNXpE4.s:77     .text:000000000000003c .L0 
     /tmp/cctNXpE4.s:79     .text:0000000000000040 .L0 
     /tmp/cctNXpE4.s:81     .text:0000000000000044 .L0 
     /tmp/cctNXpE4.s:86     .text:0000000000000044 .L0 
     /tmp/cctNXpE4.s:87     .text:0000000000000044 .L0 
     /tmp/cctNXpE4.s:88     .text:0000000000000044 .L0 
     /tmp/cctNXpE4.s:98     .text:000000000000004c .L0 
     /tmp/cctNXpE4.s:99     .text:0000000000000050 .L0 
     /tmp/cctNXpE4.s:100    .text:0000000000000050 .L0 
     /tmp/cctNXpE4.s:102    .text:0000000000000054 .L0 
     /tmp/cctNXpE4.s:104    .text:0000000000000058 .L0 
     /tmp/cctNXpE4.s:110    .text:0000000000000058 _ZN5Riscv9endSystemEv
     /tmp/cctNXpE4.s:113    .text:0000000000000058 .L0 
     /tmp/cctNXpE4.s:114    .text:0000000000000058 .L0 
     /tmp/cctNXpE4.s:115    .text:000000000000005c .L0 
     /tmp/cctNXpE4.s:118    .text:0000000000000064 .L0 
     /tmp/cctNXpE4.s:119    .text:0000000000000064 .L0 
     /tmp/cctNXpE4.s:121    .text:0000000000000068 .L0 
     /tmp/cctNXpE4.s:123    .text:0000000000000068 .L0 
     /tmp/cctNXpE4.s:124    .text:0000000000000068 .L0 
     /tmp/cctNXpE4.s:127    .text:0000000000000070 .L0 
     /tmp/cctNXpE4.s:128    .text:0000000000000070 .L0 
     /tmp/cctNXpE4.s:133    .text:000000000000007c .L0 
     /tmp/cctNXpE4.s:134    .text:000000000000007c .L0 
     /tmp/cctNXpE4.s:135    .text:000000000000007c .L0 
     /tmp/cctNXpE4.s:136    .text:000000000000007c .L0 
     /tmp/cctNXpE4.s:139    .text:0000000000000084 .L0 
GAS LISTING /tmp/cctNXpE4.s 			page 53


     /tmp/cctNXpE4.s:141    .text:0000000000000088 .L0 
     /tmp/cctNXpE4.s:142    .text:0000000000000088 .L0 
     /tmp/cctNXpE4.s:148    .text:000000000000009c .L0 
     /tmp/cctNXpE4.s:149    .text:000000000000009c .L0 
     /tmp/cctNXpE4.s:152    .text:00000000000000a8 .L0 
     /tmp/cctNXpE4.s:153    .text:00000000000000a8 .L0 
     /tmp/cctNXpE4.s:157    .text:00000000000000b0 .L0 
     /tmp/cctNXpE4.s:158    .text:00000000000000b0 .L0 
     /tmp/cctNXpE4.s:159    .text:00000000000000b0 .L0 
     /tmp/cctNXpE4.s:164    .text:00000000000000c4 .L0 
     /tmp/cctNXpE4.s:166    .text:00000000000000c8 .L0 
     /tmp/cctNXpE4.s:167    .text:00000000000000c8 .L0 
     /tmp/cctNXpE4.s:170    .text:00000000000000d0 .L0 
     /tmp/cctNXpE4.s:173    .text:00000000000000d4 .L0 
     /tmp/cctNXpE4.s:174    .text:00000000000000d4 .L0 
     /tmp/cctNXpE4.s:177    .text:00000000000000dc .L0 
     /tmp/cctNXpE4.s:178    .text:00000000000000e0 .L0 
     /tmp/cctNXpE4.s:180    .text:00000000000000e4 .L0 
     /tmp/cctNXpE4.s:181    .text:00000000000000e4 .L0 
     /tmp/cctNXpE4.s:183    .text:00000000000000e8 .L0 
     /tmp/cctNXpE4.s:185    .text:00000000000000ec .L0 
     /tmp/cctNXpE4.s:191    .text:00000000000000ec _ZN5Riscv10popSppSpieEv
     /tmp/cctNXpE4.s:194    .text:00000000000000ec .L0 
     /tmp/cctNXpE4.s:195    .text:00000000000000ec .L0 
     /tmp/cctNXpE4.s:196    .text:00000000000000f0 .L0 
     /tmp/cctNXpE4.s:198    .text:00000000000000f4 .L0 
     /tmp/cctNXpE4.s:200    .text:00000000000000f8 .L0 
     /tmp/cctNXpE4.s:203    .text:00000000000000f8 .L0 
     /tmp/cctNXpE4.s:204    .text:00000000000000f8 .L0 
     /tmp/cctNXpE4.s:208    .text:0000000000000108 .L0 
     /tmp/cctNXpE4.s:210    .text:000000000000010c .L0 
src/kernel/Riscv.cpp:151    .text:000000000000010c .L0 
     /tmp/cctNXpE4.s:216    .text:0000000000000110 .L0 
src/kernel/Riscv.cpp:152    .text:0000000000000110 .L0 
     /tmp/cctNXpE4.s:224    .text:0000000000000114 .L0 
     /tmp/cctNXpE4.s:225    .text:0000000000000118 .L0 
     /tmp/cctNXpE4.s:226    .text:0000000000000118 .L0 
     /tmp/cctNXpE4.s:227    .text:0000000000000118 .L0 
     /tmp/cctNXpE4.s:229    .text:000000000000011c .L0 
     /tmp/cctNXpE4.s:232    .text:0000000000000120 .L0 
     /tmp/cctNXpE4.s:237    .text:0000000000000120 .L0 
     /tmp/cctNXpE4.s:238    .text:0000000000000120 .L0 
     /tmp/cctNXpE4.s:239    .text:0000000000000120 .L0 
src/kernel/Riscv.cpp:157    .text:0000000000000124 .L0 
     /tmp/cctNXpE4.s:246    .text:0000000000000128 .L0 
     /tmp/cctNXpE4.s:248    .text:0000000000000128 .L0 
src/kernel/Riscv.cpp:158    .text:000000000000012c .L0 
     /tmp/cctNXpE4.s:255    .text:0000000000000130 .L0 
     /tmp/cctNXpE4.s:257    .text:0000000000000130 .L0 
     /tmp/cctNXpE4.s:263    .text:000000000000013c .L0 
src/kernel/Riscv.cpp:160    .text:000000000000013c .L0 
     /tmp/cctNXpE4.s:271    .text:0000000000000140 .L0 
     /tmp/cctNXpE4.s:272    .text:0000000000000144 .L0 
     /tmp/cctNXpE4.s:278    .text:0000000000000144 _ZN5Riscv14setVirtualAddrEmmm
     /tmp/cctNXpE4.s:281    .text:0000000000000144 .L0 
     /tmp/cctNXpE4.s:283    .text:0000000000000144 .L0 
     /tmp/cctNXpE4.s:284    .text:0000000000000148 .L0 
GAS LISTING /tmp/cctNXpE4.s 			page 54


     /tmp/cctNXpE4.s:294    .text:000000000000016c .L0 
     /tmp/cctNXpE4.s:295    .text:000000000000016c .L0 
     /tmp/cctNXpE4.s:296    .text:000000000000016c .L0 
     /tmp/cctNXpE4.s:297    .text:000000000000016c .L0 
     /tmp/cctNXpE4.s:298    .text:000000000000016c .L0 
     /tmp/cctNXpE4.s:299    .text:000000000000016c .L0 
     /tmp/cctNXpE4.s:300    .text:000000000000016c .L0 
     /tmp/cctNXpE4.s:301    .text:000000000000016c .L0 
     /tmp/cctNXpE4.s:302    .text:000000000000016c .L0 
     /tmp/cctNXpE4.s:304    .text:0000000000000170 .L0 
     /tmp/cctNXpE4.s:308    .text:0000000000000178 .L0 
     /tmp/cctNXpE4.s:309    .text:0000000000000178 .L0 
     /tmp/cctNXpE4.s:312    .text:000000000000017c .L0 
     /tmp/cctNXpE4.s:313    .text:000000000000017c .L0 
     /tmp/cctNXpE4.s:315    .text:0000000000000180 .L0 
     /tmp/cctNXpE4.s:318    .text:0000000000000184 .L0 
     /tmp/cctNXpE4.s:319    .text:0000000000000184 .L0 
     /tmp/cctNXpE4.s:321    .text:0000000000000188 .L0 
     /tmp/cctNXpE4.s:324    .text:000000000000018c .L0 
     /tmp/cctNXpE4.s:325    .text:000000000000018c .L0 
     /tmp/cctNXpE4.s:330    .text:000000000000019c .L0 
     /tmp/cctNXpE4.s:333    .text:00000000000001a0 .L0 
     /tmp/cctNXpE4.s:335    .text:00000000000001a0 .L0 
     /tmp/cctNXpE4.s:337    .text:00000000000001a4 .L0 
     /tmp/cctNXpE4.s:338    .text:00000000000001a4 .L0 
     /tmp/cctNXpE4.s:341    .text:00000000000001a8 .L0 
     /tmp/cctNXpE4.s:346    .text:00000000000001ac .L0 
     /tmp/cctNXpE4.s:347    .text:00000000000001ac .L0 
     /tmp/cctNXpE4.s:350    .text:00000000000001b4 .L0 
     /tmp/cctNXpE4.s:353    .text:00000000000001b8 .L0 
     /tmp/cctNXpE4.s:355    .text:00000000000001b8 .L0 
     /tmp/cctNXpE4.s:357    .text:00000000000001bc .L0 
     /tmp/cctNXpE4.s:358    .text:00000000000001bc .L0 
     /tmp/cctNXpE4.s:361    .text:00000000000001c0 .L0 
     /tmp/cctNXpE4.s:366    .text:00000000000001c4 .L0 
     /tmp/cctNXpE4.s:367    .text:00000000000001c4 .L0 
     /tmp/cctNXpE4.s:372    .text:00000000000001cc .L0 
     /tmp/cctNXpE4.s:375    .text:00000000000001d0 .L0 
     /tmp/cctNXpE4.s:377    .text:00000000000001d4 .L0 
     /tmp/cctNXpE4.s:378    .text:00000000000001d4 .L0 
     /tmp/cctNXpE4.s:381    .text:00000000000001d8 .L0 
     /tmp/cctNXpE4.s:384    .text:00000000000001dc .L0 
     /tmp/cctNXpE4.s:387    .text:00000000000001e0 .L0 
     /tmp/cctNXpE4.s:388    .text:00000000000001e4 .L0 
     /tmp/cctNXpE4.s:389    .text:00000000000001e4 .L0 
     /tmp/cctNXpE4.s:391    .text:00000000000001e8 .L0 
     /tmp/cctNXpE4.s:392    .text:00000000000001e8 .L0 
     /tmp/cctNXpE4.s:394    .text:00000000000001ec .L0 
     /tmp/cctNXpE4.s:396    .text:00000000000001f0 .L0 
     /tmp/cctNXpE4.s:398    .text:00000000000001f4 .L0 
     /tmp/cctNXpE4.s:400    .text:00000000000001f8 .L0 
     /tmp/cctNXpE4.s:402    .text:00000000000001fc .L0 
     /tmp/cctNXpE4.s:404    .text:0000000000000200 .L0 
     /tmp/cctNXpE4.s:407    .text:0000000000000204 .L0 
     /tmp/cctNXpE4.s:409    .text:0000000000000208 .L0 
     /tmp/cctNXpE4.s:413    .text:000000000000020c .L0 
     /tmp/cctNXpE4.s:417    .text:000000000000020c .L0 
GAS LISTING /tmp/cctNXpE4.s 			page 55


     /tmp/cctNXpE4.s:418    .text:000000000000020c .L0 
     /tmp/cctNXpE4.s:424    .text:0000000000000218 .L0 
     /tmp/cctNXpE4.s:425    .text:0000000000000218 .L0 
     /tmp/cctNXpE4.s:429    .text:000000000000021c .L0 
     /tmp/cctNXpE4.s:432    .text:0000000000000224 .L0 
     /tmp/cctNXpE4.s:433    .text:0000000000000224 .L0 
     /tmp/cctNXpE4.s:436    .text:000000000000022c .L0 
     /tmp/cctNXpE4.s:438    .text:0000000000000230 .L0 
     /tmp/cctNXpE4.s:445    .text:0000000000000238 .L0 
     /tmp/cctNXpE4.s:446    .text:0000000000000238 .L0 
     /tmp/cctNXpE4.s:449    .text:000000000000023c .L0 
     /tmp/cctNXpE4.s:451    .text:0000000000000240 .L0 
     /tmp/cctNXpE4.s:454    .text:0000000000000244 .L0 
     /tmp/cctNXpE4.s:455    .text:0000000000000244 .L0 
     /tmp/cctNXpE4.s:457    .text:000000000000024c .L0 
     /tmp/cctNXpE4.s:459    .text:0000000000000250 .L0 
     /tmp/cctNXpE4.s:468    .text:0000000000000258 .L0 
     /tmp/cctNXpE4.s:469    .text:0000000000000258 .L0 
     /tmp/cctNXpE4.s:475    .text:0000000000000264 .L0 
     /tmp/cctNXpE4.s:476    .text:0000000000000264 .L0 
     /tmp/cctNXpE4.s:480    .text:0000000000000268 .L0 
     /tmp/cctNXpE4.s:483    .text:0000000000000270 .L0 
     /tmp/cctNXpE4.s:484    .text:0000000000000270 .L0 
     /tmp/cctNXpE4.s:487    .text:0000000000000278 .L0 
     /tmp/cctNXpE4.s:489    .text:000000000000027c .L0 
     /tmp/cctNXpE4.s:496    .text:0000000000000284 .L0 
     /tmp/cctNXpE4.s:497    .text:0000000000000284 .L0 
     /tmp/cctNXpE4.s:500    .text:0000000000000288 .L0 
     /tmp/cctNXpE4.s:502    .text:000000000000028c .L0 
     /tmp/cctNXpE4.s:505    .text:0000000000000290 .L0 
     /tmp/cctNXpE4.s:506    .text:0000000000000290 .L0 
     /tmp/cctNXpE4.s:510    .text:0000000000000298 .L0 
     /tmp/cctNXpE4.s:516    .text:0000000000000298 _ZN5Riscv19setVirtualAddrRangeEmmi
     /tmp/cctNXpE4.s:519    .text:0000000000000298 .L0 
     /tmp/cctNXpE4.s:521    .text:0000000000000298 .L0 
     /tmp/cctNXpE4.s:522    .text:000000000000029c .L0 
     /tmp/cctNXpE4.s:528    .text:00000000000002b0 .L0 
     /tmp/cctNXpE4.s:529    .text:00000000000002b0 .L0 
     /tmp/cctNXpE4.s:530    .text:00000000000002b0 .L0 
     /tmp/cctNXpE4.s:531    .text:00000000000002b0 .L0 
     /tmp/cctNXpE4.s:532    .text:00000000000002b0 .L0 
     /tmp/cctNXpE4.s:534    .text:00000000000002b4 .L0 
     /tmp/cctNXpE4.s:542    .text:00000000000002c0 .L0 
     /tmp/cctNXpE4.s:543    .text:00000000000002c0 .L0 
     /tmp/cctNXpE4.s:545    .text:00000000000002c4 .L0 
     /tmp/cctNXpE4.s:546    .text:00000000000002c4 .L0 
     /tmp/cctNXpE4.s:552    .text:00000000000002d8 .L0 
     /tmp/cctNXpE4.s:553    .text:00000000000002d8 .L0 
     /tmp/cctNXpE4.s:557    .text:00000000000002e0 .L0 
     /tmp/cctNXpE4.s:561    .text:00000000000002e4 .L0 
     /tmp/cctNXpE4.s:562    .text:00000000000002e8 .L0 
     /tmp/cctNXpE4.s:564    .text:00000000000002ec .L0 
     /tmp/cctNXpE4.s:565    .text:00000000000002ec .L0 
     /tmp/cctNXpE4.s:567    .text:00000000000002f0 .L0 
     /tmp/cctNXpE4.s:570    .text:00000000000002f4 .L0 
     /tmp/cctNXpE4.s:573    .text:00000000000002f8 .L0 
     /tmp/cctNXpE4.s:575    .text:00000000000002fc .L0 
GAS LISTING /tmp/cctNXpE4.s 			page 56


     /tmp/cctNXpE4.s:577    .text:0000000000000300 .L0 
     /tmp/cctNXpE4.s:594    .text:0000000000000300 _ZN5Riscv10initSystemEv
     /tmp/cctNXpE4.s:597    .text:0000000000000300 .L0 
     /tmp/cctNXpE4.s:598    .text:0000000000000300 .L0 
     /tmp/cctNXpE4.s:599    .text:0000000000000304 .L0 
     /tmp/cctNXpE4.s:608    .text:0000000000000324 .L0 
     /tmp/cctNXpE4.s:609    .text:0000000000000324 .L0 
     /tmp/cctNXpE4.s:610    .text:0000000000000324 .L0 
     /tmp/cctNXpE4.s:611    .text:0000000000000324 .L0 
     /tmp/cctNXpE4.s:612    .text:0000000000000324 .L0 
     /tmp/cctNXpE4.s:613    .text:0000000000000324 .L0 
     /tmp/cctNXpE4.s:614    .text:0000000000000324 .L0 
     /tmp/cctNXpE4.s:615    .text:0000000000000324 .L0 
     /tmp/cctNXpE4.s:617    .text:0000000000000328 .L0 
     /tmp/cctNXpE4.s:619    .text:0000000000000328 .L0 
     /tmp/cctNXpE4.s:620    .text:0000000000000328 .L0 
     /tmp/cctNXpE4.s:625    .text:0000000000000330 .L0 
src/kernel/../../h/Riscv.hpp:156    .text:0000000000000330 .L0 
     /tmp/cctNXpE4.s:635    .text:0000000000000334 .L0 
     /tmp/cctNXpE4.s:636    .text:0000000000000334 .L0 
     /tmp/cctNXpE4.s:641    .text:0000000000000348 .L0 
     /tmp/cctNXpE4.s:642    .text:0000000000000348 .L0 
     /tmp/cctNXpE4.s:643    .text:0000000000000348 .L0 
     /tmp/cctNXpE4.s:647    .text:0000000000000350 .L0 
     /tmp/cctNXpE4.s:648    .text:0000000000000350 .L0 
     /tmp/cctNXpE4.s:653    .text:000000000000035c .L0 
     /tmp/cctNXpE4.s:654    .text:000000000000035c .L0 
     /tmp/cctNXpE4.s:660    .text:0000000000000370 .L0 
     /tmp/cctNXpE4.s:661    .text:0000000000000370 .L0 
     /tmp/cctNXpE4.s:668    .text:000000000000038c .L0 
     /tmp/cctNXpE4.s:671    .text:0000000000000398 .L0 
     /tmp/cctNXpE4.s:672    .text:0000000000000398 .L0 
     /tmp/cctNXpE4.s:679    .text:00000000000003b4 .L0 
     /tmp/cctNXpE4.s:681    .text:00000000000003b8 .L0 
     /tmp/cctNXpE4.s:682    .text:00000000000003b8 .L0 
     /tmp/cctNXpE4.s:685    .text:00000000000003c0 .L0 
     /tmp/cctNXpE4.s:686    .text:00000000000003c0 .L0 
     /tmp/cctNXpE4.s:689    .text:00000000000003c8 .L0 
     /tmp/cctNXpE4.s:690    .text:00000000000003c8 .L0 
     /tmp/cctNXpE4.s:694    .text:00000000000003d4 .L0 
     /tmp/cctNXpE4.s:698    .text:00000000000003d8 .L0 
     /tmp/cctNXpE4.s:699    .text:00000000000003d8 .L0 
     /tmp/cctNXpE4.s:703    .text:00000000000003dc .L0 
     /tmp/cctNXpE4.s:706    .text:00000000000003e4 .L0 
     /tmp/cctNXpE4.s:707    .text:00000000000003e4 .L0 
     /tmp/cctNXpE4.s:711    .text:00000000000003f4 .L0 
     /tmp/cctNXpE4.s:713    .text:00000000000003f8 .L0 
     /tmp/cctNXpE4.s:719    .text:0000000000000400 .L0 
     /tmp/cctNXpE4.s:720    .text:0000000000000400 .L0 
     /tmp/cctNXpE4.s:727    .text:0000000000000420 .L0 
     /tmp/cctNXpE4.s:728    .text:0000000000000420 .L0 
     /tmp/cctNXpE4.s:731    .text:0000000000000428 .L0 
     /tmp/cctNXpE4.s:732    .text:0000000000000428 .L0 
     /tmp/cctNXpE4.s:735    .text:0000000000000430 .L0 
     /tmp/cctNXpE4.s:736    .text:0000000000000430 .L0 
     /tmp/cctNXpE4.s:739    .text:0000000000000438 .L0 
     /tmp/cctNXpE4.s:740    .text:0000000000000438 .L0 
GAS LISTING /tmp/cctNXpE4.s 			page 57


     /tmp/cctNXpE4.s:743    .text:0000000000000440 .L0 
     /tmp/cctNXpE4.s:744    .text:0000000000000440 .L0 
     /tmp/cctNXpE4.s:750    .text:0000000000000458 .L0 
     /tmp/cctNXpE4.s:751    .text:0000000000000458 .L0 
     /tmp/cctNXpE4.s:757    .text:000000000000046c .L0 
     /tmp/cctNXpE4.s:758    .text:000000000000046c .L0 
     /tmp/cctNXpE4.s:764    .text:0000000000000480 .L0 
     /tmp/cctNXpE4.s:765    .text:0000000000000480 .L0 
     /tmp/cctNXpE4.s:771    .text:0000000000000494 .L0 
     /tmp/cctNXpE4.s:772    .text:0000000000000494 .L0 
     /tmp/cctNXpE4.s:779    .text:00000000000004b0 .L0 
     /tmp/cctNXpE4.s:780    .text:00000000000004b0 .L0 
     /tmp/cctNXpE4.s:786    .text:00000000000004c4 .L0 
     /tmp/cctNXpE4.s:787    .text:00000000000004c4 .L0 
     /tmp/cctNXpE4.s:795    .text:00000000000004e4 .L0 
     /tmp/cctNXpE4.s:796    .text:00000000000004e4 .L0 
     /tmp/cctNXpE4.s:803    .text:0000000000000500 .L0 
     /tmp/cctNXpE4.s:804    .text:0000000000000500 .L0 
     /tmp/cctNXpE4.s:811    .text:000000000000051c .L0 
     /tmp/cctNXpE4.s:812    .text:000000000000051c .L0 
     /tmp/cctNXpE4.s:819    .text:0000000000000538 .L0 
     /tmp/cctNXpE4.s:820    .text:0000000000000538 .L0 
     /tmp/cctNXpE4.s:829    .text:0000000000000550 .L0 
     /tmp/cctNXpE4.s:830    .text:0000000000000550 .L0 
     /tmp/cctNXpE4.s:831    .text:0000000000000550 .L0 
     /tmp/cctNXpE4.s:841    .text:0000000000000558 .L0 
     /tmp/cctNXpE4.s:842    .text:0000000000000558 .L0 
     /tmp/cctNXpE4.s:845    .text:0000000000000560 .L0 
     /tmp/cctNXpE4.s:850    .text:000000000000056c .L0 
src/kernel/Riscv.cpp:97     .text:000000000000056c .L0 
     /tmp/cctNXpE4.s:857    .text:0000000000000570 .L0 
     /tmp/cctNXpE4.s:858    .text:0000000000000574 .L0 
     /tmp/cctNXpE4.s:860    .text:0000000000000578 .L0 
     /tmp/cctNXpE4.s:861    .text:0000000000000578 .L0 
     /tmp/cctNXpE4.s:863    .text:000000000000057c .L0 
     /tmp/cctNXpE4.s:866    .text:0000000000000580 .L0 
     /tmp/cctNXpE4.s:868    .text:0000000000000584 .L0 
     /tmp/cctNXpE4.s:870    .text:0000000000000588 .L0 
     /tmp/cctNXpE4.s:872    .text:000000000000058c .L0 
     /tmp/cctNXpE4.s:874    .text:0000000000000590 .L0 
     /tmp/cctNXpE4.s:876    .text:0000000000000594 .L0 
     /tmp/cctNXpE4.s:878    .text:0000000000000598 .L0 
     /tmp/cctNXpE4.s:884    .text:0000000000000598 _ZN5Riscv10kernelMainEv
     /tmp/cctNXpE4.s:887    .text:0000000000000598 .L0 
     /tmp/cctNXpE4.s:888    .text:0000000000000598 .L0 
     /tmp/cctNXpE4.s:889    .text:0000000000000598 .L0 
     /tmp/cctNXpE4.s:894    .text:00000000000005a8 .L0 
     /tmp/cctNXpE4.s:895    .text:00000000000005ac .L0 
     /tmp/cctNXpE4.s:898    .text:00000000000005b4 .L0 
     /tmp/cctNXpE4.s:899    .text:00000000000005b4 .L0 
     /tmp/cctNXpE4.s:901    .text:00000000000005b8 .L0 
     /tmp/cctNXpE4.s:903    .text:00000000000005b8 .L0 
     /tmp/cctNXpE4.s:904    .text:00000000000005b8 .L0 
     /tmp/cctNXpE4.s:907    .text:00000000000005c4 .L0 
     /tmp/cctNXpE4.s:908    .text:00000000000005c4 .L0 
     /tmp/cctNXpE4.s:911    .text:00000000000005cc .L0 
     /tmp/cctNXpE4.s:912    .text:00000000000005cc .L0 
GAS LISTING /tmp/cctNXpE4.s 			page 58


     /tmp/cctNXpE4.s:915    .text:00000000000005d4 .L0 
     /tmp/cctNXpE4.s:916    .text:00000000000005d4 .L0 
     /tmp/cctNXpE4.s:919    .text:00000000000005dc .L0 
     /tmp/cctNXpE4.s:920    .text:00000000000005e0 .L0 
     /tmp/cctNXpE4.s:922    .text:00000000000005e4 .L0 
     /tmp/cctNXpE4.s:923    .text:00000000000005e4 .L0 
     /tmp/cctNXpE4.s:925    .text:00000000000005e8 .L0 
     /tmp/cctNXpE4.s:927    .text:00000000000005ec .L0 
     /tmp/cctNXpE4.s:933    .text:00000000000005ec _ZN5Riscv14addVirtualAddrEm
     /tmp/cctNXpE4.s:936    .text:00000000000005ec .L0 
     /tmp/cctNXpE4.s:938    .text:00000000000005ec .L0 
     /tmp/cctNXpE4.s:939    .text:00000000000005f0 .L0 
     /tmp/cctNXpE4.s:942    .text:00000000000005f8 .L0 
     /tmp/cctNXpE4.s:943    .text:00000000000005f8 .L0 
     /tmp/cctNXpE4.s:945    .text:00000000000005fc .L0 
     /tmp/cctNXpE4.s:947    .text:00000000000005fc .L0 
     /tmp/cctNXpE4.s:948    .text:00000000000005fc .L0 
     /tmp/cctNXpE4.s:953    .text:000000000000060c .L0 
     /tmp/cctNXpE4.s:954    .text:0000000000000610 .L0 
     /tmp/cctNXpE4.s:956    .text:0000000000000614 .L0 
     /tmp/cctNXpE4.s:957    .text:0000000000000614 .L0 
     /tmp/cctNXpE4.s:959    .text:0000000000000618 .L0 
     /tmp/cctNXpE4.s:961    .text:000000000000061c .L0 
     /tmp/cctNXpE4.s:967    .text:000000000000061c _ZN5Riscv19addVirtualAddrInstrEm
     /tmp/cctNXpE4.s:970    .text:000000000000061c .L0 
     /tmp/cctNXpE4.s:972    .text:000000000000061c .L0 
     /tmp/cctNXpE4.s:973    .text:0000000000000620 .L0 
     /tmp/cctNXpE4.s:976    .text:0000000000000628 .L0 
     /tmp/cctNXpE4.s:977    .text:0000000000000628 .L0 
     /tmp/cctNXpE4.s:979    .text:000000000000062c .L0 
     /tmp/cctNXpE4.s:981    .text:000000000000062c .L0 
     /tmp/cctNXpE4.s:982    .text:000000000000062c .L0 
     /tmp/cctNXpE4.s:987    .text:000000000000063c .L0 
     /tmp/cctNXpE4.s:988    .text:0000000000000640 .L0 
     /tmp/cctNXpE4.s:990    .text:0000000000000644 .L0 
     /tmp/cctNXpE4.s:991    .text:0000000000000644 .L0 
     /tmp/cctNXpE4.s:993    .text:0000000000000648 .L0 
     /tmp/cctNXpE4.s:995    .text:000000000000064c .L0 
     /tmp/cctNXpE4.s:1001   .text:000000000000064c _ZN5Riscv22disableTimerInterruptsEv
     /tmp/cctNXpE4.s:1004   .text:000000000000064c .L0 
     /tmp/cctNXpE4.s:1005   .text:000000000000064c .L0 
     /tmp/cctNXpE4.s:1006   .text:0000000000000650 .L0 
     /tmp/cctNXpE4.s:1008   .text:0000000000000654 .L0 
     /tmp/cctNXpE4.s:1010   .text:0000000000000658 .L0 
     /tmp/cctNXpE4.s:1013   .text:0000000000000658 .L0 
     /tmp/cctNXpE4.s:1014   .text:0000000000000658 .L0 
     /tmp/cctNXpE4.s:1015   .text:0000000000000658 .L0 
     /tmp/cctNXpE4.s:1022   .text:0000000000000660 .L0 
     /tmp/cctNXpE4.s:1023   .text:0000000000000664 .L0 
     /tmp/cctNXpE4.s:1024   .text:0000000000000664 .L0 
     /tmp/cctNXpE4.s:1026   .text:0000000000000668 .L0 
     /tmp/cctNXpE4.s:1028   .text:000000000000066c .L0 
     /tmp/cctNXpE4.s:1034   .text:000000000000066c _ZN5Riscv13w_a0_sscratchEv
     /tmp/cctNXpE4.s:1037   .text:000000000000066c .L0 
     /tmp/cctNXpE4.s:1038   .text:000000000000066c .L0 
     /tmp/cctNXpE4.s:1039   .text:0000000000000670 .L0 
     /tmp/cctNXpE4.s:1041   .text:0000000000000674 .L0 
GAS LISTING /tmp/cctNXpE4.s 			page 59


     /tmp/cctNXpE4.s:1043   .text:0000000000000678 .L0 
     /tmp/cctNXpE4.s:1045   .text:0000000000000678 .L0 
     /tmp/cctNXpE4.s:1046   .text:0000000000000678 .L0 
src/kernel/Riscv.cpp:228    .text:0000000000000678 .L0 
     /tmp/cctNXpE4.s:1053   .text:000000000000067c .L0 
     /tmp/cctNXpE4.s:1055   .text:000000000000067c .L0 
src/kernel/Riscv.cpp:229    .text:000000000000068c .L0 
     /tmp/cctNXpE4.s:1064   .text:0000000000000690 .L0 
src/kernel/Riscv.cpp:230    .text:0000000000000690 .L0 
     /tmp/cctNXpE4.s:1069   .text:0000000000000694 .L0 
src/kernel/Riscv.cpp:231    .text:0000000000000694 .L0 
     /tmp/cctNXpE4.s:1075   .text:0000000000000698 .L0 
     /tmp/cctNXpE4.s:1076   .text:000000000000069c .L0 
     /tmp/cctNXpE4.s:1077   .text:000000000000069c .L0 
     /tmp/cctNXpE4.s:1079   .text:00000000000006a0 .L0 
     /tmp/cctNXpE4.s:1081   .text:00000000000006a4 .L0 
     /tmp/cctNXpE4.s:1087   .text:00000000000006a4 _ZN5Riscv14changePrivModeEv
     /tmp/cctNXpE4.s:1090   .text:00000000000006a4 .L0 
     /tmp/cctNXpE4.s:1091   .text:00000000000006a4 .L0 
     /tmp/cctNXpE4.s:1092   .text:00000000000006a8 .L0 
     /tmp/cctNXpE4.s:1094   .text:00000000000006ac .L0 
     /tmp/cctNXpE4.s:1096   .text:00000000000006b0 .L0 
     /tmp/cctNXpE4.s:1098   .text:00000000000006b0 .L0 
     /tmp/cctNXpE4.s:1099   .text:00000000000006b0 .L0 
     /tmp/cctNXpE4.s:1103   .text:00000000000006c0 .L0 
     /tmp/cctNXpE4.s:1108   .text:00000000000006c4 .L0 
     /tmp/cctNXpE4.s:1109   .text:00000000000006c4 .L0 
     /tmp/cctNXpE4.s:1110   .text:00000000000006c4 .L0 
     /tmp/cctNXpE4.s:1121   .text:00000000000006cc .L0 
     /tmp/cctNXpE4.s:1122   .text:00000000000006d0 .L0 
     /tmp/cctNXpE4.s:1123   .text:00000000000006d0 .L0 
     /tmp/cctNXpE4.s:1124   .text:00000000000006d0 .L0 
     /tmp/cctNXpE4.s:1126   .text:00000000000006d4 .L0 
     /tmp/cctNXpE4.s:1129   .text:00000000000006d8 .L0 
     /tmp/cctNXpE4.s:1134   .text:00000000000006d8 .L0 
     /tmp/cctNXpE4.s:1135   .text:00000000000006d8 .L0 
     /tmp/cctNXpE4.s:1136   .text:00000000000006d8 .L0 
     /tmp/cctNXpE4.s:1146   .text:00000000000006e0 .L0 
     /tmp/cctNXpE4.s:1147   .text:00000000000006e4 .L0 
     /tmp/cctNXpE4.s:1153   .text:00000000000006e4 _ZN5Riscv20handleSupervisorTrapEv
     /tmp/cctNXpE4.s:1156   .text:00000000000006e4 .L0 
     /tmp/cctNXpE4.s:1157   .text:00000000000006e4 .L0 
     /tmp/cctNXpE4.s:1158   .text:00000000000006e8 .L0 
     /tmp/cctNXpE4.s:1162   .text:00000000000006f4 .L0 
     /tmp/cctNXpE4.s:1163   .text:00000000000006f4 .L0 
     /tmp/cctNXpE4.s:1164   .text:00000000000006f4 .L0 
     /tmp/cctNXpE4.s:1166   .text:00000000000006f8 .L0 
     /tmp/cctNXpE4.s:1168   .text:00000000000006f8 .L0 
src/kernel/Riscv.cpp:244    .text:00000000000006f8 .L0 
     /tmp/cctNXpE4.s:1177   .text:0000000000000708 .L0 
     /tmp/cctNXpE4.s:1178   .text:0000000000000708 .L0 
src/kernel/Riscv.cpp:245    .text:0000000000000714 .L0 
     /tmp/cctNXpE4.s:1190   .text:000000000000071c .L0 
     /tmp/cctNXpE4.s:1191   .text:000000000000071c .L0 
     /tmp/cctNXpE4.s:1192   .text:000000000000071c .L0 
src/kernel/../../h/Riscv.hpp:131    .text:000000000000071c .L0 
     /tmp/cctNXpE4.s:1200   .text:0000000000000724 .L0 
GAS LISTING /tmp/cctNXpE4.s 			page 60


     /tmp/cctNXpE4.s:1201   .text:0000000000000724 .L0 
     /tmp/cctNXpE4.s:1206   .text:0000000000000728 .L0 
     /tmp/cctNXpE4.s:1207   .text:0000000000000728 .L0 
     /tmp/cctNXpE4.s:1208   .text:0000000000000728 .L0 
     /tmp/cctNXpE4.s:1210   .text:0000000000000728 .L0 
     /tmp/cctNXpE4.s:1256   .text:000000000000077c .L0 
     /tmp/cctNXpE4.s:1257   .text:000000000000077c .L0 
     /tmp/cctNXpE4.s:1258   .text:000000000000077c .L0 
     /tmp/cctNXpE4.s:1259   .text:000000000000077c .L0 
     /tmp/cctNXpE4.s:1262   .text:0000000000000784 .L0 
     /tmp/cctNXpE4.s:1263   .text:0000000000000784 .L0 
     /tmp/cctNXpE4.s:1268   .text:0000000000000794 .L0 
     /tmp/cctNXpE4.s:1271   .text:0000000000000798 .L0 
     /tmp/cctNXpE4.s:1272   .text:0000000000000798 .L0 
     /tmp/cctNXpE4.s:1273   .text:0000000000000798 .L0 
     /tmp/cctNXpE4.s:1274   .text:0000000000000798 .L0 
     /tmp/cctNXpE4.s:1277   .text:00000000000007a0 .L0 
     /tmp/cctNXpE4.s:1280   .text:00000000000007a4 .L0 
     /tmp/cctNXpE4.s:1281   .text:00000000000007a4 .L0 
     /tmp/cctNXpE4.s:1282   .text:00000000000007a4 .L0 
     /tmp/cctNXpE4.s:1283   .text:00000000000007a4 .L0 
     /tmp/cctNXpE4.s:1286   .text:00000000000007ac .L0 
     /tmp/cctNXpE4.s:1289   .text:00000000000007b0 .L0 
     /tmp/cctNXpE4.s:1290   .text:00000000000007b0 .L0 
     /tmp/cctNXpE4.s:1291   .text:00000000000007b0 .L0 
     /tmp/cctNXpE4.s:1292   .text:00000000000007b0 .L0 
     /tmp/cctNXpE4.s:1295   .text:00000000000007b8 .L0 
     /tmp/cctNXpE4.s:1299   .text:00000000000007bc .L0 
     /tmp/cctNXpE4.s:1301   .text:00000000000007bc .L0 
     /tmp/cctNXpE4.s:1304   .text:00000000000007bc .L0 
     /tmp/cctNXpE4.s:1305   .text:00000000000007bc .L0 
     /tmp/cctNXpE4.s:1306   .text:00000000000007bc .L0 
src/kernel/../../h/Riscv.hpp:141    .text:00000000000007bc .L0 
     /tmp/cctNXpE4.s:1315   .text:00000000000007c4 .L0 
     /tmp/cctNXpE4.s:1316   .text:00000000000007c4 .L0 
     /tmp/cctNXpE4.s:1320   .text:00000000000007c8 .L0 
     /tmp/cctNXpE4.s:1324   .text:00000000000007cc .L0 
     /tmp/cctNXpE4.s:1325   .text:00000000000007cc .L0 
     /tmp/cctNXpE4.s:1326   .text:00000000000007cc .L0 
src/kernel/../../h/Riscv.hpp:214    .text:00000000000007cc .L0 
     /tmp/cctNXpE4.s:1334   .text:00000000000007d4 .L0 
     /tmp/cctNXpE4.s:1335   .text:00000000000007d4 .L0 
     /tmp/cctNXpE4.s:1339   .text:00000000000007d8 .L0 
     /tmp/cctNXpE4.s:1344   .text:00000000000007dc .L0 
     /tmp/cctNXpE4.s:1345   .text:00000000000007dc .L0 
     /tmp/cctNXpE4.s:1346   .text:00000000000007dc .L0 
     /tmp/cctNXpE4.s:1356   .text:00000000000007e4 .L0 
     /tmp/cctNXpE4.s:1357   .text:00000000000007e4 .L0 
     /tmp/cctNXpE4.s:1362   .text:00000000000007f8 .L0 
     /tmp/cctNXpE4.s:1363   .text:00000000000007f8 .L0 
     /tmp/cctNXpE4.s:1368   .text:000000000000080c .L0 
     /tmp/cctNXpE4.s:1369   .text:000000000000080c .L0 
     /tmp/cctNXpE4.s:1372   .text:0000000000000814 .L0 
     /tmp/cctNXpE4.s:1373   .text:0000000000000814 .L0 
     /tmp/cctNXpE4.s:1380   .text:0000000000000820 .L0 
     /tmp/cctNXpE4.s:1381   .text:0000000000000820 .L0 
     /tmp/cctNXpE4.s:1386   .text:0000000000000824 .L0 
GAS LISTING /tmp/cctNXpE4.s 			page 61


     /tmp/cctNXpE4.s:1388   .text:0000000000000828 .L0 
     /tmp/cctNXpE4.s:1391   .text:000000000000082c .L0 
     /tmp/cctNXpE4.s:1392   .text:000000000000082c .L0 
     /tmp/cctNXpE4.s:1397   .text:0000000000000830 .L0 
src/kernel/../../h/Riscv.hpp:219    .text:0000000000000830 .L0 
     /tmp/cctNXpE4.s:1407   .text:0000000000000834 .L0 
     /tmp/cctNXpE4.s:1408   .text:0000000000000834 .L0 
     /tmp/cctNXpE4.s:1413   .text:0000000000000838 .L0 
src/kernel/../../h/Riscv.hpp:146    .text:0000000000000838 .L0 
     /tmp/cctNXpE4.s:1423   .text:000000000000083c .L0 
     /tmp/cctNXpE4.s:1424   .text:000000000000083c .L0 
     /tmp/cctNXpE4.s:1431   .text:0000000000000844 .L0 
     /tmp/cctNXpE4.s:1432   .text:0000000000000844 .L0 
     /tmp/cctNXpE4.s:1433   .text:0000000000000848 .L0 
     /tmp/cctNXpE4.s:1434   .text:0000000000000848 .L0 
     /tmp/cctNXpE4.s:1436   .text:000000000000084c .L0 
     /tmp/cctNXpE4.s:1437   .text:000000000000084c .L0 
     /tmp/cctNXpE4.s:1439   .text:0000000000000850 .L0 
     /tmp/cctNXpE4.s:1441   .text:0000000000000854 .L0 
     /tmp/cctNXpE4.s:1444   .text:0000000000000858 .L0 
     /tmp/cctNXpE4.s:1449   .text:0000000000000858 .L0 
     /tmp/cctNXpE4.s:1450   .text:0000000000000858 .L0 
     /tmp/cctNXpE4.s:1452   .text:000000000000085c .L0 
     /tmp/cctNXpE4.s:1453   .text:000000000000085c .L0 
     /tmp/cctNXpE4.s:1459   .text:0000000000000868 .L0 
     /tmp/cctNXpE4.s:1460   .text:0000000000000868 .L0 
     /tmp/cctNXpE4.s:1461   .text:0000000000000868 .L0 
     /tmp/cctNXpE4.s:1462   .text:0000000000000868 .L0 
     /tmp/cctNXpE4.s:1465   .text:0000000000000870 .L0 
     /tmp/cctNXpE4.s:1468   .text:0000000000000874 .L0 
     /tmp/cctNXpE4.s:1469   .text:0000000000000874 .L0 
     /tmp/cctNXpE4.s:1470   .text:0000000000000874 .L0 
     /tmp/cctNXpE4.s:1471   .text:0000000000000874 .L0 
     /tmp/cctNXpE4.s:1474   .text:000000000000087c .L0 
     /tmp/cctNXpE4.s:1477   .text:0000000000000880 .L0 
     /tmp/cctNXpE4.s:1478   .text:0000000000000880 .L0 
     /tmp/cctNXpE4.s:1479   .text:0000000000000880 .L0 
     /tmp/cctNXpE4.s:1480   .text:0000000000000880 .L0 
     /tmp/cctNXpE4.s:1483   .text:0000000000000888 .L0 
     /tmp/cctNXpE4.s:1486   .text:000000000000088c .L0 
     /tmp/cctNXpE4.s:1487   .text:000000000000088c .L0 
     /tmp/cctNXpE4.s:1489   .text:000000000000088c .L0 
     /tmp/cctNXpE4.s:1490   .text:000000000000088c .L0 
     /tmp/cctNXpE4.s:1491   .text:000000000000088c .L0 
src/kernel/Riscv.cpp:321    .text:000000000000088c .L0 
     /tmp/cctNXpE4.s:1501   .text:0000000000000890 .L0 
     /tmp/cctNXpE4.s:1502   .text:0000000000000890 .L0 
     /tmp/cctNXpE4.s:1503   .text:0000000000000890 .L0 
src/kernel/../../h/Riscv.hpp:141    .text:0000000000000890 .L0 
     /tmp/cctNXpE4.s:1511   .text:0000000000000898 .L0 
     /tmp/cctNXpE4.s:1512   .text:0000000000000898 .L0 
     /tmp/cctNXpE4.s:1516   .text:000000000000089c .L0 
     /tmp/cctNXpE4.s:1518   .text:00000000000008a0 .L0 
     /tmp/cctNXpE4.s:1522   .text:00000000000008a4 .L0 
     /tmp/cctNXpE4.s:1523   .text:00000000000008a4 .L0 
     /tmp/cctNXpE4.s:1524   .text:00000000000008a4 .L0 
src/kernel/../../h/Riscv.hpp:214    .text:00000000000008a4 .L0 
GAS LISTING /tmp/cctNXpE4.s 			page 62


     /tmp/cctNXpE4.s:1532   .text:00000000000008ac .L0 
     /tmp/cctNXpE4.s:1533   .text:00000000000008ac .L0 
     /tmp/cctNXpE4.s:1537   .text:00000000000008b0 .L0 
     /tmp/cctNXpE4.s:1539   .text:00000000000008b4 .L0 
     /tmp/cctNXpE4.s:1623   .text:00000000000008d8 .L0 
     /tmp/cctNXpE4.s:1624   .text:00000000000008d8 .L0 
     /tmp/cctNXpE4.s:1625   .text:00000000000008d8 .L0 
     /tmp/cctNXpE4.s:1629   .text:00000000000008e0 .L0 
     /tmp/cctNXpE4.s:1630   .text:00000000000008e0 .L0 
     /tmp/cctNXpE4.s:1631   .text:00000000000008e0 .L0 
     /tmp/cctNXpE4.s:1636   .text:00000000000008e4 .L0 
src/kernel/../../h/Riscv.hpp:219    .text:00000000000008e4 .L0 
     /tmp/cctNXpE4.s:1646   .text:00000000000008e8 .L0 
     /tmp/cctNXpE4.s:1647   .text:00000000000008e8 .L0 
     /tmp/cctNXpE4.s:1652   .text:00000000000008ec .L0 
src/kernel/../../h/Riscv.hpp:146    .text:00000000000008ec .L0 
     /tmp/cctNXpE4.s:1662   .text:00000000000008f0 .L0 
     /tmp/cctNXpE4.s:1663   .text:00000000000008f0 .L0 
     /tmp/cctNXpE4.s:1669   .text:00000000000008f8 .L0 
     /tmp/cctNXpE4.s:1670   .text:00000000000008f8 .L0 
     /tmp/cctNXpE4.s:1676   .text:00000000000008fc .L0 
     /tmp/cctNXpE4.s:1677   .text:00000000000008fc .L0 
     /tmp/cctNXpE4.s:1678   .text:00000000000008fc .L0 
     /tmp/cctNXpE4.s:1681   .text:0000000000000904 .L0 
     /tmp/cctNXpE4.s:1684   .text:0000000000000908 .L0 
     /tmp/cctNXpE4.s:1685   .text:0000000000000908 .L0 
     /tmp/cctNXpE4.s:1686   .text:0000000000000908 .L0 
     /tmp/cctNXpE4.s:1689   .text:0000000000000910 .L0 
     /tmp/cctNXpE4.s:1692   .text:0000000000000914 .L0 
     /tmp/cctNXpE4.s:1693   .text:0000000000000914 .L0 
     /tmp/cctNXpE4.s:1694   .text:0000000000000914 .L0 
     /tmp/cctNXpE4.s:1697   .text:000000000000091c .L0 
     /tmp/cctNXpE4.s:1700   .text:0000000000000920 .L0 
     /tmp/cctNXpE4.s:1701   .text:0000000000000920 .L0 
     /tmp/cctNXpE4.s:1702   .text:0000000000000920 .L0 
     /tmp/cctNXpE4.s:1705   .text:0000000000000928 .L0 
     /tmp/cctNXpE4.s:1708   .text:000000000000092c .L0 
     /tmp/cctNXpE4.s:1709   .text:000000000000092c .L0 
     /tmp/cctNXpE4.s:1710   .text:000000000000092c .L0 
     /tmp/cctNXpE4.s:1713   .text:0000000000000934 .L0 
     /tmp/cctNXpE4.s:1716   .text:0000000000000938 .L0 
     /tmp/cctNXpE4.s:1717   .text:0000000000000938 .L0 
     /tmp/cctNXpE4.s:1718   .text:0000000000000938 .L0 
     /tmp/cctNXpE4.s:1721   .text:0000000000000940 .L0 
     /tmp/cctNXpE4.s:1724   .text:0000000000000944 .L0 
     /tmp/cctNXpE4.s:1725   .text:0000000000000944 .L0 
     /tmp/cctNXpE4.s:1726   .text:0000000000000944 .L0 
     /tmp/cctNXpE4.s:1729   .text:000000000000094c .L0 
     /tmp/cctNXpE4.s:1732   .text:0000000000000950 .L0 
     /tmp/cctNXpE4.s:1733   .text:0000000000000950 .L0 
     /tmp/cctNXpE4.s:1734   .text:0000000000000950 .L0 
     /tmp/cctNXpE4.s:1737   .text:0000000000000958 .L0 
     /tmp/cctNXpE4.s:1740   .text:000000000000095c .L0 
     /tmp/cctNXpE4.s:1741   .text:000000000000095c .L0 
     /tmp/cctNXpE4.s:1742   .text:000000000000095c .L0 
     /tmp/cctNXpE4.s:1745   .text:0000000000000964 .L0 
     /tmp/cctNXpE4.s:1748   .text:0000000000000968 .L0 
GAS LISTING /tmp/cctNXpE4.s 			page 63


     /tmp/cctNXpE4.s:1749   .text:0000000000000968 .L0 
     /tmp/cctNXpE4.s:1750   .text:0000000000000968 .L0 
     /tmp/cctNXpE4.s:1753   .text:0000000000000970 .L0 
     /tmp/cctNXpE4.s:1756   .text:0000000000000974 .L0 
     /tmp/cctNXpE4.s:1757   .text:0000000000000974 .L0 
     /tmp/cctNXpE4.s:1758   .text:0000000000000974 .L0 
     /tmp/cctNXpE4.s:1761   .text:000000000000097c .L0 
     /tmp/cctNXpE4.s:1764   .text:0000000000000980 .L0 
     /tmp/cctNXpE4.s:1765   .text:0000000000000980 .L0 
     /tmp/cctNXpE4.s:1766   .text:0000000000000980 .L0 
     /tmp/cctNXpE4.s:1769   .text:0000000000000988 .L0 
     /tmp/cctNXpE4.s:1772   .text:000000000000098c .L0 
     /tmp/cctNXpE4.s:1773   .text:000000000000098c .L0 
     /tmp/cctNXpE4.s:1774   .text:000000000000098c .L0 
     /tmp/cctNXpE4.s:1777   .text:0000000000000994 .L0 
     /tmp/cctNXpE4.s:1780   .text:0000000000000998 .L0 
     /tmp/cctNXpE4.s:1781   .text:0000000000000998 .L0 
     /tmp/cctNXpE4.s:1782   .text:0000000000000998 .L0 
     /tmp/cctNXpE4.s:1785   .text:00000000000009a0 .L0 
     /tmp/cctNXpE4.s:1788   .text:00000000000009a4 .L0 
     /tmp/cctNXpE4.s:1789   .text:00000000000009a4 .L0 
     /tmp/cctNXpE4.s:1790   .text:00000000000009a4 .L0 
     /tmp/cctNXpE4.s:1793   .text:00000000000009ac .L0 
     /tmp/cctNXpE4.s:1797   .text:00000000000009b0 .L0 
     /tmp/cctNXpE4.s:1812   .data:0000000000000000 _ZN5Riscv16programStartAddrE
     /tmp/cctNXpE4.s:1824   .bss:0000000000000008 _ZN5Riscv7mainPMTE
     /tmp/cctNXpE4.s:1832   .bss:0000000000000018 _ZN5Riscv14semaphoreCacheE
     /tmp/cctNXpE4.s:1828   .bss:0000000000000010 _ZN5Riscv8pcbCacheE
     /tmp/cctNXpE4.s:1836   .bss:0000000000000020 _ZN5Riscv16kernelMainCalledE
     /tmp/cctNXpE4.s:1819   .bss:0000000000000000 _ZN5Riscv12finishSystemE
     /tmp/cctNXpE4.s:1841   .bss:0000000000000028 _ZN5Riscv9totalTimeE
     /tmp/cctNXpE4.s:1809   .data:0000000000000000 .LANCHOR1
     /tmp/cctNXpE4.s:1816   .bss:0000000000000000 .LANCHOR0
     /tmp/cctNXpE4.s:1855   .text:00000000000009b0 .L0 
     /tmp/cctNXpE4.s:129    .text:0000000000000074 .L0 
     /tmp/cctNXpE4.s:142    .text:0000000000000088 .L0 
     /tmp/cctNXpE4.s:149    .text:000000000000009c .L0 
     /tmp/cctNXpE4.s:159    .text:00000000000000b0 .L0 
     /tmp/cctNXpE4.s:204    .text:00000000000000f8 .L0 
     /tmp/cctNXpE4.s:257    .text:0000000000000130 .L0 
     /tmp/cctNXpE4.s:327    .text:0000000000000190 .L0 
     /tmp/cctNXpE4.s:455    .text:0000000000000244 .L0 
     /tmp/cctNXpE4.s:620    .text:0000000000000328 .L0 
     /tmp/cctNXpE4.s:636    .text:0000000000000334 .L0 
     /tmp/cctNXpE4.s:582    .rodata.str1.8:0000000000000000 .LC0
     /tmp/cctNXpE4.s:664    .text:000000000000037c .L0 
     /tmp/cctNXpE4.s:668    .text:000000000000038c .L0 
     /tmp/cctNXpE4.s:585    .rodata.str1.8:0000000000000010 .LC1
     /tmp/cctNXpE4.s:675    .text:00000000000003a4 .L0 
     /tmp/cctNXpE4.s:708    .text:00000000000003e8 .L0 
     /tmp/cctNXpE4.s:720    .text:0000000000000400 .L0 
     /tmp/cctNXpE4.s:588    .rodata.str1.8:0000000000000028 .LC2
     /tmp/cctNXpE4.s:723    .text:0000000000000410 .L0 
     /tmp/cctNXpE4.s:728    .text:0000000000000420 .L0 
     /tmp/cctNXpE4.s:732    .text:0000000000000428 .L0 
     /tmp/cctNXpE4.s:736    .text:0000000000000430 .L0 
     /tmp/cctNXpE4.s:740    .text:0000000000000438 .L0 
GAS LISTING /tmp/cctNXpE4.s 			page 64


     /tmp/cctNXpE4.s:746    .text:0000000000000448 .L0 
     /tmp/cctNXpE4.s:772    .text:0000000000000494 .L0 
     /tmp/cctNXpE4.s:787    .text:00000000000004c4 .L0 
     /tmp/cctNXpE4.s:798    .text:00000000000004ec .L0 
     /tmp/cctNXpE4.s:806    .text:0000000000000508 .L0 
     /tmp/cctNXpE4.s:814    .text:0000000000000524 .L0 
     /tmp/cctNXpE4.s:889    .text:0000000000000598 .L0 
     /tmp/cctNXpE4.s:905    .text:00000000000005bc .L0 
     /tmp/cctNXpE4.s:1055   .text:000000000000067c .L0 
     /tmp/cctNXpE4.s:1099   .text:00000000000006b0 .L0 
     /tmp/cctNXpE4.s:1174   .text:00000000000006fc .L0 
     /tmp/cctNXpE4.s:1178   .text:0000000000000708 .L0 
     /tmp/cctNXpE4.s:1226   .rodata:0000000000000000 .L60
     /tmp/cctNXpE4.s:1218   .text:0000000000000744 .L0 
     /tmp/cctNXpE4.s:1357   .text:00000000000007e4 .L0 
     /tmp/cctNXpE4.s:1363   .text:00000000000007f8 .L0 
     /tmp/cctNXpE4.s:1373   .text:0000000000000814 .L0 
     /tmp/cctNXpE4.s:1551   .rodata:0000000000000040 .L72
     /tmp/cctNXpE4.s:1543   .text:00000000000008c0 .L0 
     /tmp/cctNXpE4.s:132    .text:000000000000007c .L8
     /tmp/cctNXpE4.s:171    .text:00000000000000d4 .L9
     /tmp/cctNXpE4.s:155    .text:00000000000000b0 .L10
     /tmp/cctNXpE4.s:231    .text:0000000000000120 .L13
     /tmp/cctNXpE4.s:221    .text:0000000000000114 .L12
     /tmp/cctNXpE4.s:412    .text:000000000000020c .L27
     /tmp/cctNXpE4.s:463    .text:0000000000000258 .L28
     /tmp/cctNXpE4.s:385    .text:00000000000001e0 .L16
     /tmp/cctNXpE4.s:442    .text:0000000000000238 .L18
     /tmp/cctNXpE4.s:427    .text:000000000000021c .L19
     /tmp/cctNXpE4.s:343    .text:00000000000001ac .L20
     /tmp/cctNXpE4.s:493    .text:0000000000000284 .L22
     /tmp/cctNXpE4.s:478    .text:0000000000000268 .L23
     /tmp/cctNXpE4.s:363    .text:00000000000001c4 .L24
     /tmp/cctNXpE4.s:558    .text:00000000000002e4 .L29
     /tmp/cctNXpE4.s:540    .text:00000000000002c0 .L31
     /tmp/cctNXpE4.s:716    .text:0000000000000400 .L34
     /tmp/cctNXpE4.s:701    .text:00000000000003dc .L35
     /tmp/cctNXpE4.s:892    .text:00000000000005a8 .L43
     /tmp/cctNXpE4.s:1128   .text:00000000000006d8 .L53
     /tmp/cctNXpE4.s:1117   .text:00000000000006cc .L52
     /tmp/cctNXpE4.s:1245   .text:000000000000075c .L57
     /tmp/cctNXpE4.s:1427   .text:0000000000000844 .L56
     /tmp/cctNXpE4.s:1297   .text:00000000000007bc .L67
     /tmp/cctNXpE4.s:1443   .text:0000000000000858 .L89
     /tmp/cctNXpE4.s:1389   .text:000000000000082c .L69
     /tmp/cctNXpE4.s:1628   .text:00000000000008e0 .L70
     /tmp/cctNXpE4.s:1456   .text:0000000000000868 .L66
     /tmp/cctNXpE4.s:1466   .text:0000000000000874 .L65
     /tmp/cctNXpE4.s:1475   .text:0000000000000880 .L64
     /tmp/cctNXpE4.s:1484   .text:000000000000088c .L63
     /tmp/cctNXpE4.s:1287   .text:00000000000007b0 .L62
     /tmp/cctNXpE4.s:1278   .text:00000000000007a4 .L61
     /tmp/cctNXpE4.s:1269   .text:0000000000000798 .L59
     /tmp/cctNXpE4.s:1621   .text:00000000000008d8 .L87
     /tmp/cctNXpE4.s:1671   .text:00000000000008fc .L86
     /tmp/cctNXpE4.s:1690   .text:0000000000000914 .L85
     /tmp/cctNXpE4.s:1714   .text:0000000000000938 .L84
GAS LISTING /tmp/cctNXpE4.s 			page 65


     /tmp/cctNXpE4.s:1706   .text:000000000000092c .L83
     /tmp/cctNXpE4.s:1682   .text:0000000000000908 .L82
     /tmp/cctNXpE4.s:1698   .text:0000000000000920 .L81
     /tmp/cctNXpE4.s:1730   .text:0000000000000950 .L80
     /tmp/cctNXpE4.s:1738   .text:000000000000095c .L79
     /tmp/cctNXpE4.s:1762   .text:0000000000000980 .L78
     /tmp/cctNXpE4.s:1746   .text:0000000000000968 .L77
     /tmp/cctNXpE4.s:1754   .text:0000000000000974 .L76
     /tmp/cctNXpE4.s:1722   .text:0000000000000944 .L75
     /tmp/cctNXpE4.s:1770   .text:000000000000098c .L74
     /tmp/cctNXpE4.s:1778   .text:0000000000000998 .L73
     /tmp/cctNXpE4.s:1786   .text:00000000000009a4 .L71
     /tmp/cctNXpE4.s:5187   .debug_abbrev:0000000000000000 .Ldebug_abbrev0
     /tmp/cctNXpE4.s:7564   .debug_str:000000000000164b .LASF378
     /tmp/cctNXpE4.s:7186   .debug_str:0000000000000a33 .LASF379
     /tmp/cctNXpE4.s:7168   .debug_str:0000000000000969 .LASF380
     /tmp/cctNXpE4.s:5      .text:0000000000000000 .Ltext0
     /tmp/cctNXpE4.s:1844   .text:00000000000009b0 .Letext0
     /tmp/cctNXpE4.s:6890   .debug_line:0000000000000000 .Ldebug_line0
     /tmp/cctNXpE4.s:6944   .debug_str:000000000000018b .LASF0
     /tmp/cctNXpE4.s:7598   .debug_str:0000000000001871 .LASF1
     /tmp/cctNXpE4.s:7522   .debug_str:00000000000014fb .LASF2
     /tmp/cctNXpE4.s:7466   .debug_str:000000000000131d .LASF4
     /tmp/cctNXpE4.s:7484   .debug_str:00000000000013ba .LASF3
     /tmp/cctNXpE4.s:7122   .debug_str:00000000000007fd .LASF5
     /tmp/cctNXpE4.s:7206   .debug_str:0000000000000aca .LASF6
     /tmp/cctNXpE4.s:7396   .debug_str:0000000000001127 .LASF7
     /tmp/cctNXpE4.s:6980   .debug_str:00000000000002aa .LASF8
     /tmp/cctNXpE4.s:7582   .debug_str:00000000000017e2 .LASF9
     /tmp/cctNXpE4.s:7126   .debug_str:000000000000081a .LASF10
     /tmp/cctNXpE4.s:7610   .debug_str:00000000000018de .LASF11
     /tmp/cctNXpE4.s:7044   .debug_str:0000000000000525 .LASF12
     /tmp/cctNXpE4.s:7244   .debug_str:0000000000000c3b .LASF13
     /tmp/cctNXpE4.s:7134   .debug_str:0000000000000852 .LASF14
     /tmp/cctNXpE4.s:7450   .debug_str:00000000000012bf .LASF15
     /tmp/cctNXpE4.s:7142   .debug_str:00000000000008b1 .LASF16
     /tmp/cctNXpE4.s:7104   .debug_str:0000000000000757 .LASF17
     /tmp/cctNXpE4.s:7228   .debug_str:0000000000000b7b .LASF18
     /tmp/cctNXpE4.s:7226   .debug_str:0000000000000b6e .LASF381
     /tmp/cctNXpE4.s:7024   .debug_str:0000000000000467 .LASF120
     /tmp/cctNXpE4.s:7154   .debug_str:0000000000000911 .LASF22
     /tmp/cctNXpE4.s:7118   .debug_str:00000000000007e7 .LASF19
     /tmp/cctNXpE4.s:7418   .debug_str:00000000000011fd .LASF20
     /tmp/cctNXpE4.s:7462   .debug_str:000000000000130a .LASF21
     /tmp/cctNXpE4.s:7214   .debug_str:0000000000000b04 .LASF23
     /tmp/cctNXpE4.s:7574   .debug_str:000000000000177a .LASF24
     /tmp/cctNXpE4.s:6934   .debug_str:000000000000011d .LASF25
     /tmp/cctNXpE4.s:7160   .debug_str:0000000000000936 .LASF26
     /tmp/cctNXpE4.s:7438   .debug_str:0000000000001274 .LASF55
     /tmp/cctNXpE4.s:6940   .debug_str:000000000000016b .LASF57
     /tmp/cctNXpE4.s:7520   .debug_str:00000000000014ea .LASF27
     /tmp/cctNXpE4.s:7276   .debug_str:0000000000000d4f .LASF35
     /tmp/cctNXpE4.s:7548   .debug_str:00000000000015d0 .LASF37
     /tmp/cctNXpE4.s:7440   .debug_str:000000000000127f .LASF28
     /tmp/cctNXpE4.s:6950   .debug_str:00000000000001a2 .LASF29
     /tmp/cctNXpE4.s:7538   .debug_str:000000000000156c .LASF31
     /tmp/cctNXpE4.s:6930   .debug_str:00000000000000f1 .LASF30
GAS LISTING /tmp/cctNXpE4.s 			page 66


     /tmp/cctNXpE4.s:7474   .debug_str:0000000000001374 .LASF32
     /tmp/cctNXpE4.s:7630   .debug_str:0000000000001996 .LASF33
     /tmp/cctNXpE4.s:7368   .debug_str:0000000000001054 .LASF34
     /tmp/cctNXpE4.s:7444   .debug_str:000000000000128f .LASF36
     /tmp/cctNXpE4.s:7188   .debug_str:0000000000000a48 .LASF38
     /tmp/cctNXpE4.s:7498   .debug_str:0000000000001419 .LASF39
     /tmp/cctNXpE4.s:7284   .debug_str:0000000000000dc1 .LASF40
     /tmp/cctNXpE4.s:7392   .debug_str:0000000000001117 .LASF41
     /tmp/cctNXpE4.s:7546   .debug_str:00000000000015b8 .LASF42
     /tmp/cctNXpE4.s:7552   .debug_str:0000000000001601 .LASF43
     /tmp/cctNXpE4.s:7124   .debug_str:0000000000000804 .LASF44
     /tmp/cctNXpE4.s:7666   .debug_str:0000000000001aba .LASF45
     /tmp/cctNXpE4.s:7406   .debug_str:0000000000001177 .LASF46
     /tmp/cctNXpE4.s:6958   .debug_str:00000000000001e0 .LASF47
     /tmp/cctNXpE4.s:7580   .debug_str:00000000000017be .LASF48
     /tmp/cctNXpE4.s:7198   .debug_str:0000000000000a9f .LASF49
     /tmp/cctNXpE4.s:7262   .debug_str:0000000000000cb9 .LASF50
     /tmp/cctNXpE4.s:7026   .debug_str:000000000000046d .LASF51
     /tmp/cctNXpE4.s:7270   .debug_str:0000000000000d17 .LASF52
     /tmp/cctNXpE4.s:7232   .debug_str:0000000000000b98 .LASF53
     /tmp/cctNXpE4.s:7544   .debug_str:000000000000159e .LASF54
     /tmp/cctNXpE4.s:7638   .debug_str:00000000000019d1 .LASF56
     /tmp/cctNXpE4.s:7572   .debug_str:0000000000001765 .LASF58
     /tmp/cctNXpE4.s:7434   .debug_str:0000000000001265 .LASF59
     /tmp/cctNXpE4.s:6974   .debug_str:0000000000000275 .LASF60
     /tmp/cctNXpE4.s:7070   .debug_str:0000000000000626 .LASF61
     /tmp/cctNXpE4.s:7152   .debug_str:00000000000008fe .LASF62
     /tmp/cctNXpE4.s:7116   .debug_str:00000000000007e0 .LASF63
     /tmp/cctNXpE4.s:6968   .debug_str:0000000000000250 .LASF64
     /tmp/cctNXpE4.s:7602   .debug_str:00000000000018a2 .LASF65
     /tmp/cctNXpE4.s:7446   .debug_str:00000000000012a1 .LASF66
     /tmp/cctNXpE4.s:7442   .debug_str:0000000000001287 .LASF67
     /tmp/cctNXpE4.s:7020   .debug_str:0000000000000449 .LASF68
     /tmp/cctNXpE4.s:7384   .debug_str:00000000000010ce .LASF69
     /tmp/cctNXpE4.s:6900   .debug_str:0000000000000030 .LASF70
     /tmp/cctNXpE4.s:7254   .debug_str:0000000000000c7c .LASF71
     /tmp/cctNXpE4.s:7216   .debug_str:0000000000000b13 .LASF72
     /tmp/cctNXpE4.s:7554   .debug_str:000000000000160b .LASF73
     /tmp/cctNXpE4.s:7632   .debug_str:00000000000019a5 .LASF74
     /tmp/cctNXpE4.s:7324   .debug_str:0000000000000f1e .LASF75
     /tmp/cctNXpE4.s:7210   .debug_str:0000000000000aea .LASF76
     /tmp/cctNXpE4.s:7518   .debug_str:00000000000014d7 .LASF77
     /tmp/cctNXpE4.s:7286   .debug_str:0000000000000de4 .LASF78
     /tmp/cctNXpE4.s:7624   .debug_str:0000000000001967 .LASF79
     /tmp/cctNXpE4.s:7488   .debug_str:00000000000013d9 .LASF80
     /tmp/cctNXpE4.s:7370   .debug_str:0000000000001072 .LASF81
     /tmp/cctNXpE4.s:7656   .debug_str:0000000000001a66 .LASF82
     /tmp/cctNXpE4.s:7608   .debug_str:00000000000018c3 .LASF83
     /tmp/cctNXpE4.s:7412   .debug_str:00000000000011bf .LASF84
     /tmp/cctNXpE4.s:7042   .debug_str:000000000000050d .LASF85
     /tmp/cctNXpE4.s:6970   .debug_str:0000000000000263 .LASF86
     /tmp/cctNXpE4.s:7654   .debug_str:0000000000001a4e .LASF87
     /tmp/cctNXpE4.s:7202   .debug_str:0000000000000ab6 .LASF88
     /tmp/cctNXpE4.s:7064   .debug_str:00000000000005eb .LASF89
     /tmp/cctNXpE4.s:7524   .debug_str:0000000000001509 .LASF90
     /tmp/cctNXpE4.s:7172   .debug_str:00000000000009a1 .LASF91
     /tmp/cctNXpE4.s:7130   .debug_str:0000000000000835 .LASF92
GAS LISTING /tmp/cctNXpE4.s 			page 67


     /tmp/cctNXpE4.s:7088   .debug_str:00000000000006d7 .LASF93
     /tmp/cctNXpE4.s:7464   .debug_str:0000000000001313 .LASF94
     /tmp/cctNXpE4.s:7224   .debug_str:0000000000000b58 .LASF95
     /tmp/cctNXpE4.s:7182   .debug_str:0000000000000a1b .LASF96
     /tmp/cctNXpE4.s:7314   .debug_str:0000000000000eca .LASF97
     /tmp/cctNXpE4.s:7476   .debug_str:0000000000001395 .LASF98
     /tmp/cctNXpE4.s:7102   .debug_str:0000000000000745 .LASF99
     /tmp/cctNXpE4.s:7398   .debug_str:000000000000113a .LASF100
     /tmp/cctNXpE4.s:7566   .debug_str:000000000000171b .LASF101
     /tmp/cctNXpE4.s:7422   .debug_str:0000000000001211 .LASF102
     /tmp/cctNXpE4.s:7046   .debug_str:0000000000000534 .LASF103
     /tmp/cctNXpE4.s:6952   .debug_str:00000000000001b1 .LASF104
     /tmp/cctNXpE4.s:7240   .debug_str:0000000000000bea .LASF105
     /tmp/cctNXpE4.s:6914   .debug_str:0000000000000084 .LASF106
     /tmp/cctNXpE4.s:7516   .debug_str:00000000000014cf .LASF107
     /tmp/cctNXpE4.s:7334   .debug_str:0000000000000f5b .LASF108
     /tmp/cctNXpE4.s:7378   .debug_str:00000000000010aa .LASF109
     /tmp/cctNXpE4.s:7212   .debug_str:0000000000000af1 .LASF110
     /tmp/cctNXpE4.s:7380   .debug_str:00000000000010b6 .LASF111
     /tmp/cctNXpE4.s:6918   .debug_str:0000000000000097 .LASF112
     /tmp/cctNXpE4.s:7062   .debug_str:00000000000005d8 .LASF113
     /tmp/cctNXpE4.s:7004   .debug_str:000000000000039f .LASF114
     /tmp/cctNXpE4.s:7482   .debug_str:00000000000013b0 .LASF115
     /tmp/cctNXpE4.s:7218   .debug_str:0000000000000b27 .LASF116
     /tmp/cctNXpE4.s:7562   .debug_str:000000000000163c .LASF117
     /tmp/cctNXpE4.s:7252   .debug_str:0000000000000c6b .LASF118
     /tmp/cctNXpE4.s:7274   .debug_str:0000000000000d4a .LASF119
     /tmp/cctNXpE4.s:7642   .debug_str:00000000000019ea .LASF121
     /tmp/cctNXpE4.s:7106   .debug_str:000000000000076d .LASF128
     /tmp/cctNXpE4.s:7298   .debug_str:0000000000000e33 .LASF122
     /tmp/cctNXpE4.s:6948   .debug_str:000000000000019d .LASF123
     /tmp/cctNXpE4.s:7532   .debug_str:0000000000001547 .LASF124
     /tmp/cctNXpE4.s:7110   .debug_str:000000000000078d .LASF126
     /tmp/cctNXpE4.s:7234   .debug_str:0000000000000ba5 .LASF125
     /tmp/cctNXpE4.s:7416   .debug_str:00000000000011df .LASF127
     /tmp/cctNXpE4.s:7328   .debug_str:0000000000000f42 .LASF129
     /tmp/cctNXpE4.s:7346   .debug_str:0000000000000fad .LASF130
     /tmp/cctNXpE4.s:7312   .debug_str:0000000000000eb7 .LASF131
     /tmp/cctNXpE4.s:7622   .debug_str:000000000000195e .LASF132
     /tmp/cctNXpE4.s:7100   .debug_str:000000000000073b .LASF133
     /tmp/cctNXpE4.s:6902   .debug_str:0000000000000044 .LASF134
     /tmp/cctNXpE4.s:7352   .debug_str:0000000000000fd3 .LASF136
     /tmp/cctNXpE4.s:6906   .debug_str:0000000000000059 .LASF135
     /tmp/cctNXpE4.s:6986   .debug_str:00000000000002df .LASF137
     /tmp/cctNXpE4.s:7542   .debug_str:0000000000001593 .LASF138
     /tmp/cctNXpE4.s:7258   .debug_str:0000000000000c8d .LASF139
     /tmp/cctNXpE4.s:7508   .debug_str:0000000000001484 .LASF140
     /tmp/cctNXpE4.s:7074   .debug_str:0000000000000645 .LASF141
     /tmp/cctNXpE4.s:7468   .debug_str:0000000000001324 .LASF142
     /tmp/cctNXpE4.s:7034   .debug_str:00000000000004ba .LASF143
     /tmp/cctNXpE4.s:7052   .debug_str:000000000000057e .LASF144
     /tmp/cctNXpE4.s:7386   .debug_str:00000000000010d6 .LASF145
     /tmp/cctNXpE4.s:7492   .debug_str:00000000000013f1 .LASF146
     /tmp/cctNXpE4.s:7140   .debug_str:0000000000000887 .LASF147
     /tmp/cctNXpE4.s:7640   .debug_str:00000000000019da .LASF148
     /tmp/cctNXpE4.s:7662   .debug_str:0000000000001a89 .LASF149
     /tmp/cctNXpE4.s:6892   .debug_str:0000000000000000 .LASF150
GAS LISTING /tmp/cctNXpE4.s 			page 68


     /tmp/cctNXpE4.s:7310   .debug_str:0000000000000e90 .LASF151
     /tmp/cctNXpE4.s:6988   .debug_str:0000000000000300 .LASF382
     /tmp/cctNXpE4.s:7242   .debug_str:0000000000000c0c .LASF383
     /tmp/cctNXpE4.s:6984   .debug_str:00000000000002d9 .LASF152
     /tmp/cctNXpE4.s:7268   .debug_str:0000000000000d11 .LASF153
     /tmp/cctNXpE4.s:7340   .debug_str:0000000000000f83 .LASF154
     /tmp/cctNXpE4.s:7494   .debug_str:0000000000001402 .LASF155
     /tmp/cctNXpE4.s:7196   .debug_str:0000000000000a96 .LASF156
     /tmp/cctNXpE4.s:7176   .debug_str:00000000000009dd .LASF157
     /tmp/cctNXpE4.s:7658   .debug_str:0000000000001a74 .LASF158
     /tmp/cctNXpE4.s:7390   .debug_str:000000000000110f .LASF159
     /tmp/cctNXpE4.s:7096   .debug_str:000000000000072d .LASF160
     /tmp/cctNXpE4.s:7586   .debug_str:00000000000017f5 .LASF161
     /tmp/cctNXpE4.s:7272   .debug_str:0000000000000d32 .LASF384
     /tmp/cctNXpE4.s:7584   .debug_str:00000000000017f0 .LASF162
     /tmp/cctNXpE4.s:7144   .debug_str:00000000000008c7 .LASF163
     /tmp/cctNXpE4.s:7128   .debug_str:0000000000000829 .LASF164
     /tmp/cctNXpE4.s:7456   .debug_str:00000000000012ef .LASF165
     /tmp/cctNXpE4.s:7220   .debug_str:0000000000000b30 .LASF166
     /tmp/cctNXpE4.s:7250   .debug_str:0000000000000c62 .LASF167
     /tmp/cctNXpE4.s:7190   .debug_str:0000000000000a67 .LASF168
     /tmp/cctNXpE4.s:7634   .debug_str:00000000000019ac .LASF169
     /tmp/cctNXpE4.s:7534   .debug_str:000000000000154f .LASF170
     /tmp/cctNXpE4.s:7012   .debug_str:00000000000003f5 .LASF171
     /tmp/cctNXpE4.s:7222   .debug_str:0000000000000b40 .LASF172
     /tmp/cctNXpE4.s:7348   .debug_str:0000000000000fbb .LASF173
     /tmp/cctNXpE4.s:6978   .debug_str:000000000000029e .LASF174
     /tmp/cctNXpE4.s:7342   .debug_str:0000000000000f8b .LASF175
     /tmp/cctNXpE4.s:7404   .debug_str:000000000000116a .LASF176
     /tmp/cctNXpE4.s:7360   .debug_str:0000000000001031 .LASF177
     /tmp/cctNXpE4.s:6998   .debug_str:000000000000036d .LASF178
     /tmp/cctNXpE4.s:7428   .debug_str:0000000000001239 .LASF179
     /tmp/cctNXpE4.s:6920   .debug_str:00000000000000aa .LASF180
     /tmp/cctNXpE4.s:7248   .debug_str:0000000000000c53 .LASF181
     /tmp/cctNXpE4.s:7170   .debug_str:0000000000000987 .LASF182
     /tmp/cctNXpE4.s:7410   .debug_str:00000000000011b0 .LASF183
     /tmp/cctNXpE4.s:7282   .debug_str:0000000000000da7 .LASF184
     /tmp/cctNXpE4.s:7530   .debug_str:0000000000001539 .LASF185
     /tmp/cctNXpE4.s:7536   .debug_str:0000000000001560 .LASF186
     /tmp/cctNXpE4.s:7424   .debug_str:0000000000001220 .LASF187
     /tmp/cctNXpE4.s:7076   .debug_str:000000000000067a .LASF188
     /tmp/cctNXpE4.s:7120   .debug_str:00000000000007f0 .LASF189
     /tmp/cctNXpE4.s:7628   .debug_str:0000000000001987 .LASF190
     /tmp/cctNXpE4.s:6904   .debug_str:000000000000004e .LASF191
     /tmp/cctNXpE4.s:7204   .debug_str:0000000000000abd .LASF192
     /tmp/cctNXpE4.s:7420   .debug_str:0000000000001206 .LASF193
     /tmp/cctNXpE4.s:7556   .debug_str:0000000000001618 .LASF194
     /tmp/cctNXpE4.s:7194   .debug_str:0000000000000a8b .LASF195
     /tmp/cctNXpE4.s:6964   .debug_str:000000000000022b .LASF196
     /tmp/cctNXpE4.s:7560   .debug_str:0000000000001634 .LASF197
     /tmp/cctNXpE4.s:7308   .debug_str:0000000000000e7c .LASF198
     /tmp/cctNXpE4.s:6982   .debug_str:00000000000002ba .LASF199
     /tmp/cctNXpE4.s:7432   .debug_str:0000000000001253 .LASF200
     /tmp/cctNXpE4.s:7636   .debug_str:00000000000019b4 .LASF201
     /tmp/cctNXpE4.s:7302   .debug_str:0000000000000e45 .LASF202
     /tmp/cctNXpE4.s:7616   .debug_str:0000000000001916 .LASF203
     /tmp/cctNXpE4.s:7054   .debug_str:0000000000000593 .LASF204
GAS LISTING /tmp/cctNXpE4.s 			page 69


     /tmp/cctNXpE4.s:7600   .debug_str:0000000000001884 .LASF205
     /tmp/cctNXpE4.s:7506   .debug_str:0000000000001471 .LASF206
     /tmp/cctNXpE4.s:6938   .debug_str:000000000000014d .LASF207
     /tmp/cctNXpE4.s:7550   .debug_str:00000000000015ec .LASF208
     /tmp/cctNXpE4.s:7644   .debug_str:00000000000019fa .LASF209
     /tmp/cctNXpE4.s:7306   .debug_str:0000000000000e68 .LASF210
     /tmp/cctNXpE4.s:7592   .debug_str:000000000000181b .LASF211
     /tmp/cctNXpE4.s:7006   .debug_str:00000000000003b3 .LASF212
     /tmp/cctNXpE4.s:7362   .debug_str:000000000000103a .LASF213
     /tmp/cctNXpE4.s:6994   .debug_str:0000000000000355 .LASF214
     /tmp/cctNXpE4.s:7022   .debug_str:000000000000045d .LASF215
     /tmp/cctNXpE4.s:7510   .debug_str:000000000000149f .LASF216
     /tmp/cctNXpE4.s:7568   .debug_str:0000000000001733 .LASF217
     /tmp/cctNXpE4.s:7578   .debug_str:0000000000001796 .LASF218
     /tmp/cctNXpE4.s:7372   .debug_str:0000000000001084 .LASF219
     /tmp/cctNXpE4.s:6990   .debug_str:0000000000000312 .LASF220
     /tmp/cctNXpE4.s:7290   .debug_str:0000000000000df3 .LASF221
     /tmp/cctNXpE4.s:7650   .debug_str:0000000000001a2f .LASF222
     /tmp/cctNXpE4.s:7504   .debug_str:000000000000146c .LASF223
     /tmp/cctNXpE4.s:7376   .debug_str:00000000000010a5 .LASF224
     /tmp/cctNXpE4.s:6954   .debug_str:00000000000001c6 .LASF225
     /tmp/cctNXpE4.s:7558   .debug_str:000000000000162e .LASF226
     /tmp/cctNXpE4.s:7338   .debug_str:0000000000000f7b .LASF227
     /tmp/cctNXpE4.s:7192   .debug_str:0000000000000a7a .LASF228
     /tmp/cctNXpE4.s:7200   .debug_str:0000000000000ab1 .LASF229
     /tmp/cctNXpE4.s:7304   .debug_str:0000000000000e5b .LASF230
     /tmp/cctNXpE4.s:6996   .debug_str:000000000000035d .LASF231
     /tmp/cctNXpE4.s:7614   .debug_str:0000000000001904 .LASF232
     /tmp/cctNXpE4.s:7472   .debug_str:000000000000134d .LASF233
     /tmp/cctNXpE4.s:7626   .debug_str:0000000000001979 .LASF234
     /tmp/cctNXpE4.s:7178   .debug_str:00000000000009e5 .LASF235
     /tmp/cctNXpE4.s:7350   .debug_str:0000000000000fc8 .LASF236
     /tmp/cctNXpE4.s:7086   .debug_str:00000000000006c3 .LASF237
     /tmp/cctNXpE4.s:7162   .debug_str:0000000000000942 .LASF238
     /tmp/cctNXpE4.s:6976   .debug_str:000000000000028a .LASF239
     /tmp/cctNXpE4.s:7332   .debug_str:0000000000000f56 .LASF240
     /tmp/cctNXpE4.s:7264   .debug_str:0000000000000cd8 .LASF241
     /tmp/cctNXpE4.s:6926   .debug_str:00000000000000db .LASF242
     /tmp/cctNXpE4.s:7084   .debug_str:00000000000006aa .LASF243
     /tmp/cctNXpE4.s:7374   .debug_str:0000000000001099 .LASF244
     /tmp/cctNXpE4.s:7514   .debug_str:00000000000014c3 .LASF245
     /tmp/cctNXpE4.s:7604   .debug_str:00000000000018aa .LASF246
     /tmp/cctNXpE4.s:7400   .debug_str:0000000000001145 .LASF247
     /tmp/cctNXpE4.s:7256   .debug_str:0000000000000c84 .LASF248
     /tmp/cctNXpE4.s:7458   .debug_str:00000000000012f5 .LASF249
     /tmp/cctNXpE4.s:7292   .debug_str:0000000000000dfa .LASF250
     /tmp/cctNXpE4.s:7460   .debug_str:00000000000012ff .LASF251
     /tmp/cctNXpE4.s:6966   .debug_str:0000000000000241 .LASF252
     /tmp/cctNXpE4.s:7090   .debug_str:00000000000006ed .LASF253
     /tmp/cctNXpE4.s:7620   .debug_str:000000000000194f .LASF254
     /tmp/cctNXpE4.s:7354   .debug_str:0000000000000ff4 .LASF255
     /tmp/cctNXpE4.s:7326   .debug_str:0000000000000f31 .LASF256
     /tmp/cctNXpE4.s:7236   .debug_str:0000000000000bab .LASF257
     /tmp/cctNXpE4.s:7596   .debug_str:0000000000001861 .LASF258
     /tmp/cctNXpE4.s:6936   .debug_str:000000000000012a .LASF259
     /tmp/cctNXpE4.s:7436   .debug_str:000000000000126e .LASF260
     /tmp/cctNXpE4.s:6932   .debug_str:0000000000000105 .LASF261
GAS LISTING /tmp/cctNXpE4.s 			page 70


     /tmp/cctNXpE4.s:6942   .debug_str:0000000000000183 .LASF262
     /tmp/cctNXpE4.s:7066   .debug_str:00000000000005fe .LASF263
     /tmp/cctNXpE4.s:7402   .debug_str:000000000000115a .LASF264
     /tmp/cctNXpE4.s:7114   .debug_str:00000000000007bd .LASF265
     /tmp/cctNXpE4.s:7180   .debug_str:0000000000000a08 .LASF266
     /tmp/cctNXpE4.s:7280   .debug_str:0000000000000d81 .LASF267
     /tmp/cctNXpE4.s:7496   .debug_str:000000000000140c .LASF268
     /tmp/cctNXpE4.s:7570   .debug_str:0000000000001741 .LASF269
     /tmp/cctNXpE4.s:7288   .debug_str:0000000000000dea .LASF270
     /tmp/cctNXpE4.s:7588   .debug_str:0000000000001800 .LASF271
     /tmp/cctNXpE4.s:7014   .debug_str:0000000000000402 .LASF272
     /tmp/cctNXpE4.s:7150   .debug_str:00000000000008f1 .LASF273
     /tmp/cctNXpE4.s:7452   .debug_str:00000000000012cb .LASF274
     /tmp/cctNXpE4.s:7470   .debug_str:000000000000133a .LASF275
     /tmp/cctNXpE4.s:7594   .debug_str:000000000000183a .LASF276
     /tmp/cctNXpE4.s:7164   .debug_str:000000000000094e .LASF277
     /tmp/cctNXpE4.s:7108   .debug_str:0000000000000779 .LASF278
     /tmp/cctNXpE4.s:6922   .debug_str:00000000000000c6 .LASF279
     /tmp/cctNXpE4.s:7028   .debug_str:000000000000047b .LASF280
     /tmp/cctNXpE4.s:7366   .debug_str:000000000000104a .LASF281
     /tmp/cctNXpE4.s:6924   .debug_str:00000000000000d0 .LASF282
     /tmp/cctNXpE4.s:7136   .debug_str:0000000000000862 .LASF283
     /tmp/cctNXpE4.s:6908   .debug_str:0000000000000062 .LASF284
     /tmp/cctNXpE4.s:7082   .debug_str:000000000000069e .LASF285
     /tmp/cctNXpE4.s:7528   .debug_str:000000000000152c .LASF286
     /tmp/cctNXpE4.s:7080   .debug_str:0000000000000692 .LASF287
     /tmp/cctNXpE4.s:7480   .debug_str:00000000000013a4 .LASF288
     /tmp/cctNXpE4.s:7030   .debug_str:0000000000000486 .LASF289
     /tmp/cctNXpE4.s:7266   .debug_str:0000000000000cef .LASF290
     /tmp/cctNXpE4.s:7184   .debug_str:0000000000000a21 .LASF291
     /tmp/cctNXpE4.s:7500   .debug_str:000000000000142d .LASF292
     /tmp/cctNXpE4.s:7092   .debug_str:000000000000070f .LASF293
     /tmp/cctNXpE4.s:7032   .debug_str:0000000000000498 .LASF294
     /tmp/cctNXpE4.s:7132   .debug_str:000000000000083f .LASF295
     /tmp/cctNXpE4.s:7050   .debug_str:000000000000055b .LASF296
     /tmp/cctNXpE4.s:7000   .debug_str:0000000000000380 .LASF297
     /tmp/cctNXpE4.s:7278   .debug_str:0000000000000d5e .LASF298
     /tmp/cctNXpE4.s:7408   .debug_str:0000000000001195 .LASF299
     /tmp/cctNXpE4.s:7036   .debug_str:00000000000004e8 .LASF300
     /tmp/cctNXpE4.s:7294   .debug_str:0000000000000e03 .LASF301
     /tmp/cctNXpE4.s:7018   .debug_str:0000000000000430 .LASF302
     /tmp/cctNXpE4.s:7174   .debug_str:00000000000009b4 .LASF303
     /tmp/cctNXpE4.s:7512   .debug_str:00000000000014ab .LASF304
     /tmp/cctNXpE4.s:7010   .debug_str:00000000000003cc .LASF305
     /tmp/cctNXpE4.s:7112   .debug_str:00000000000007ac .LASF306
     /tmp/cctNXpE4.s:7344   .debug_str:0000000000000f9b .LASF307
     /tmp/cctNXpE4.s:6910   .debug_str:000000000000006d .LASF308
     /tmp/cctNXpE4.s:7300   .debug_str:0000000000000e38 .LASF309
     /tmp/cctNXpE4.s:7296   .debug_str:0000000000000e22 .LASF310
     /tmp/cctNXpE4.s:7002   .debug_str:0000000000000393 .LASF311
     /tmp/cctNXpE4.s:7526   .debug_str:0000000000001510 .LASF312
     /tmp/cctNXpE4.s:7660   .debug_str:0000000000001a7d .LASF313
     /tmp/cctNXpE4.s:7148   .debug_str:00000000000008d5 .LASF314
     /tmp/cctNXpE4.s:7448   .debug_str:00000000000012b5 .LASF315
     /tmp/cctNXpE4.s:7072   .debug_str:000000000000062d .LASF385
     /tmp/cctNXpE4.s:7356   .debug_str:0000000000001016 .LASF386
     /tmp/cctNXpE4.s:7156   .debug_str:000000000000091c .LASF316
GAS LISTING /tmp/cctNXpE4.s 			page 71


     /tmp/cctNXpE4.s:7056   .debug_str:00000000000005a6 .LASF317
     /tmp/cctNXpE4.s:7098   .debug_str:0000000000000733 .LASF318
     /tmp/cctNXpE4.s:7618   .debug_str:0000000000001937 .LASF319
     /tmp/cctNXpE4.s:7382   .debug_str:00000000000010c8 .LASF320
     /tmp/cctNXpE4.s:7322   .debug_str:0000000000000f08 .LASF321
     /tmp/cctNXpE4.s:7430   .debug_str:0000000000001242 .LASF322
     /tmp/cctNXpE4.s:7336   .debug_str:0000000000000f6a .LASF323
     /tmp/cctNXpE4.s:7414   .debug_str:00000000000011ca .LASF324
     /tmp/cctNXpE4.s:7060   .debug_str:00000000000005bf .LASF325
     /tmp/cctNXpE4.s:7316   .debug_str:0000000000000edc .LASF326
     /tmp/cctNXpE4.s:6894   .debug_str:000000000000000f .LASF327
     /tmp/cctNXpE4.s:7238   .debug_str:0000000000000bcf .LASF328
     /tmp/cctNXpE4.s:7612   .debug_str:00000000000018f1 .LASF329
     /tmp/cctNXpE4.s:7502   .debug_str:000000000000144f .LASF330
     /tmp/cctNXpE4.s:7646   .debug_str:0000000000001a1a .LASF331
     /tmp/cctNXpE4.s:7068   .debug_str:0000000000000618 .LASF332
     /tmp/cctNXpE4.s:7576   .debug_str:0000000000001786 .LASF333
     /tmp/cctNXpE4.s:7008   .debug_str:00000000000003bc .LASF334
     /tmp/cctNXpE4.s:1154   .text:00000000000006e4 .LFB41
     /tmp/cctNXpE4.s:1798   .text:00000000000009b0 .LFE41
     /tmp/cctNXpE4.s:7358   .debug_str:000000000000102a .LASF335
     /tmp/cctNXpE4.s:6352   .debug_loc:0000000000000000 .LLST29
     /tmp/cctNXpE4.s:7078   .debug_str:000000000000068a .LASF336
     /tmp/cctNXpE4.s:6972   .debug_str:000000000000026e .LASF337
     /tmp/cctNXpE4.s:6898   .debug_str:0000000000000028 .LASF338
     /tmp/cctNXpE4.s:6876   .debug_ranges:0000000000000000 .Ldebug_ranges0
     /tmp/cctNXpE4.s:7394   .debug_str:0000000000001122 .LASF339
     /tmp/cctNXpE4.s:7246   .debug_str:0000000000000c4b .LASF340
     /tmp/cctNXpE4.s:1302   .text:00000000000007bc .LBB71
     /tmp/cctNXpE4.s:1318   .text:00000000000007c8 .LBE71
     /tmp/cctNXpE4.s:1322   .text:00000000000007cc .LBB73
     /tmp/cctNXpE4.s:1337   .text:00000000000007d8 .LBE73
     /tmp/cctNXpE4.s:1342   .text:00000000000007dc .LBB75
     /tmp/cctNXpE4.s:1354   .text:00000000000007e4 .LBE75
     /tmp/cctNXpE4.s:6367   .debug_loc:0000000000000049 .LLST30
     /tmp/cctNXpE4.s:1376   .text:0000000000000820 .LBB77
     /tmp/cctNXpE4.s:1384   .text:0000000000000824 .LBE77
     /tmp/cctNXpE4.s:6375   .debug_loc:000000000000006d .LLST31
     /tmp/cctNXpE4.s:1394   .text:0000000000000830 .LBB79
     /tmp/cctNXpE4.s:1405   .text:0000000000000834 .LBE79
     /tmp/cctNXpE4.s:6382   .debug_loc:0000000000000090 .LLST32
     /tmp/cctNXpE4.s:1410   .text:0000000000000838 .LBB81
     /tmp/cctNXpE4.s:1421   .text:000000000000083c .LBE81
     /tmp/cctNXpE4.s:6389   .debug_loc:00000000000000b3 .LLST33
     /tmp/cctNXpE4.s:1370   .text:0000000000000814 .LVL113
     /tmp/cctNXpE4.s:1425   .text:0000000000000844 .LVL120
     /tmp/cctNXpE4.s:1454   .text:0000000000000864 .LVL121
     /tmp/cctNXpE4.s:6912   .debug_str:000000000000007a .LASF341
     /tmp/cctNXpE4.s:6396   .debug_loc:00000000000000d6 .LLST34
     /tmp/cctNXpE4.s:1499   .text:0000000000000890 .LBB85
     /tmp/cctNXpE4.s:1514   .text:000000000000089c .LBE85
     /tmp/cctNXpE4.s:1520   .text:00000000000008a4 .LBB87
     /tmp/cctNXpE4.s:1535   .text:00000000000008b0 .LBE87
     /tmp/cctNXpE4.s:1633   .text:00000000000008e4 .LBB89
     /tmp/cctNXpE4.s:1644   .text:00000000000008e8 .LBE89
     /tmp/cctNXpE4.s:6403   .debug_loc:00000000000000f9 .LLST35
     /tmp/cctNXpE4.s:1649   .text:00000000000008ec .LBB91
GAS LISTING /tmp/cctNXpE4.s 			page 72


     /tmp/cctNXpE4.s:1660   .text:00000000000008f0 .LBE91
     /tmp/cctNXpE4.s:6410   .debug_loc:000000000000011c .LLST36
     /tmp/cctNXpE4.s:1626   .text:00000000000008e0 .LVL127
     /tmp/cctNXpE4.s:1664   .text:00000000000008f8 .LVL132
     /tmp/cctNXpE4.s:1679   .text:0000000000000904 .LVL133
     /tmp/cctNXpE4.s:1687   .text:0000000000000910 .LVL134
     /tmp/cctNXpE4.s:1695   .text:000000000000091c .LVL135
     /tmp/cctNXpE4.s:1703   .text:0000000000000928 .LVL136
     /tmp/cctNXpE4.s:1711   .text:0000000000000934 .LVL137
     /tmp/cctNXpE4.s:1719   .text:0000000000000940 .LVL138
     /tmp/cctNXpE4.s:1727   .text:000000000000094c .LVL139
     /tmp/cctNXpE4.s:1735   .text:0000000000000958 .LVL140
     /tmp/cctNXpE4.s:1743   .text:0000000000000964 .LVL141
     /tmp/cctNXpE4.s:1751   .text:0000000000000970 .LVL142
     /tmp/cctNXpE4.s:1759   .text:000000000000097c .LVL143
     /tmp/cctNXpE4.s:1767   .text:0000000000000988 .LVL144
     /tmp/cctNXpE4.s:1775   .text:0000000000000994 .LVL145
     /tmp/cctNXpE4.s:1783   .text:00000000000009a0 .LVL146
     /tmp/cctNXpE4.s:1791   .text:00000000000009ac .LVL147
     /tmp/cctNXpE4.s:1188   .text:000000000000071c .LBB66
     /tmp/cctNXpE4.s:1204   .text:0000000000000728 .LBE66
     /tmp/cctNXpE4.s:1260   .text:0000000000000784 .LVL103
     /tmp/cctNXpE4.s:1264   .text:000000000000078c .LVL104
     /tmp/cctNXpE4.s:1266   .text:0000000000000794 .LVL105
     /tmp/cctNXpE4.s:1275   .text:00000000000007a0 .LVL106
     /tmp/cctNXpE4.s:1284   .text:00000000000007ac .LVL107
     /tmp/cctNXpE4.s:1293   .text:00000000000007b8 .LVL108
     /tmp/cctNXpE4.s:1463   .text:0000000000000870 .LVL122
     /tmp/cctNXpE4.s:1472   .text:000000000000087c .LVL123
     /tmp/cctNXpE4.s:1481   .text:0000000000000888 .LVL124
     /tmp/cctNXpE4.s:1088   .text:00000000000006a4 .LFB40
     /tmp/cctNXpE4.s:1148   .text:00000000000006e4 .LFE40
     /tmp/cctNXpE4.s:1106   .text:00000000000006c4 .LBB62
     /tmp/cctNXpE4.s:1119   .text:00000000000006cc .LBE62
     /tmp/cctNXpE4.s:6417   .debug_loc:000000000000013f .LLST27
     /tmp/cctNXpE4.s:1132   .text:00000000000006d8 .LBB64
     /tmp/cctNXpE4.s:1144   .text:00000000000006e0 .LBE64
     /tmp/cctNXpE4.s:6426   .debug_loc:0000000000000165 .LLST28
     /tmp/cctNXpE4.s:1035   .text:000000000000066c .LFB39
     /tmp/cctNXpE4.s:1082   .text:00000000000006a4 .LFE39
     /tmp/cctNXpE4.s:7648   .debug_str:0000000000001a28 .LASF342
     /tmp/cctNXpE4.s:1002   .text:000000000000064c .LFB38
     /tmp/cctNXpE4.s:1029   .text:000000000000066c .LFE38
     /tmp/cctNXpE4.s:968    .text:000000000000061c .LFB37
     /tmp/cctNXpE4.s:996    .text:000000000000064c .LFE37
     /tmp/cctNXpE4.s:7454   .debug_str:00000000000012ea .LASF343
     /tmp/cctNXpE4.s:6435   .debug_loc:000000000000018b .LLST26
     /tmp/cctNXpE4.s:985    .text:000000000000063c .LVL93
     /tmp/cctNXpE4.s:934    .text:00000000000005ec .LFB36
     /tmp/cctNXpE4.s:962    .text:000000000000061c .LFE36
     /tmp/cctNXpE4.s:6449   .debug_loc:00000000000001c4 .LLST25
     /tmp/cctNXpE4.s:951    .text:000000000000060c .LVL91
     /tmp/cctNXpE4.s:279    .text:0000000000000144 .LFB35
     /tmp/cctNXpE4.s:511    .text:0000000000000298 .LFE35
     /tmp/cctNXpE4.s:6463   .debug_loc:00000000000001fd .LLST3
     /tmp/cctNXpE4.s:7318   .debug_str:0000000000000ef9 .LASF344
     /tmp/cctNXpE4.s:6477   .debug_loc:0000000000000236 .LLST4
GAS LISTING /tmp/cctNXpE4.s 			page 73


     /tmp/cctNXpE4.s:7478   .debug_str:000000000000139b .LASF345
     /tmp/cctNXpE4.s:6510   .debug_loc:00000000000002be .LLST5
     /tmp/cctNXpE4.s:6536   .debug_loc:0000000000000330 .LLST6
     /tmp/cctNXpE4.s:6560   .debug_loc:0000000000000382 .LLST7
     /tmp/cctNXpE4.s:6583   .debug_loc:00000000000003d4 .LLST8
     /tmp/cctNXpE4.s:7426   .debug_str:0000000000001230 .LASF346
     /tmp/cctNXpE4.s:6615   .debug_loc:000000000000043f .LLST9
     /tmp/cctNXpE4.s:6946   .debug_str:0000000000000198 .LASF347
     /tmp/cctNXpE4.s:6636   .debug_loc:000000000000049d .LLST10
     /tmp/cctNXpE4.s:7664   .debug_str:0000000000001ab1 .LASF348
     /tmp/cctNXpE4.s:6657   .debug_loc:00000000000004fb .LLST11
     /tmp/cctNXpE4.s:7606   .debug_str:00000000000018be .LASF349
     /tmp/cctNXpE4.s:6678   .debug_loc:0000000000000559 .LLST12
     /tmp/cctNXpE4.s:7146   .debug_str:00000000000008cc .LASF350
     /tmp/cctNXpE4.s:6699   .debug_loc:00000000000005b7 .LLST13
     /tmp/cctNXpE4.s:415    .text:000000000000020c .LBB49
     /tmp/cctNXpE4.s:460    .text:0000000000000254 .LBE49
     /tmp/cctNXpE4.s:7166   .debug_str:0000000000000961 .LASF351
     /tmp/cctNXpE4.s:6706   .debug_loc:00000000000005da .LLST14
     /tmp/cctNXpE4.s:423    .text:0000000000000218 .LBB50
     /tmp/cctNXpE4.s:443    .text:0000000000000238 .LBE50
     /tmp/cctNXpE4.s:6713   .debug_loc:00000000000005fd .LLST15
     /tmp/cctNXpE4.s:421    .text:0000000000000218 .LVL33
     /tmp/cctNXpE4.s:466    .text:0000000000000258 .LBB52
     /tmp/cctNXpE4.s:507    .text:0000000000000294 .LBE52
     /tmp/cctNXpE4.s:474    .text:0000000000000264 .LBB53
     /tmp/cctNXpE4.s:494    .text:0000000000000284 .LBE53
     /tmp/cctNXpE4.s:6729   .debug_loc:0000000000000647 .LLST16
     /tmp/cctNXpE4.s:472    .text:0000000000000264 .LVL41
     /tmp/cctNXpE4.s:192    .text:00000000000000ec .LFB34
     /tmp/cctNXpE4.s:273    .text:0000000000000144 .LFE34
     /tmp/cctNXpE4.s:234    .text:0000000000000120 .LBB46
     /tmp/cctNXpE4.s:268    .text:0000000000000140 .LBE46
     /tmp/cctNXpE4.s:73     .text:0000000000000038 .LFB33
     /tmp/cctNXpE4.s:105    .text:0000000000000058 .LFE33
     /tmp/cctNXpE4.s:84     .text:0000000000000044 .LBB43
     /tmp/cctNXpE4.s:96     .text:000000000000004c .LBE43
     /tmp/cctNXpE4.s:6745   .debug_loc:0000000000000691 .LLST1
     /tmp/cctNXpE4.s:34     .text:0000000000000018 .LFB32
     /tmp/cctNXpE4.s:67     .text:0000000000000038 .LFE32
     /tmp/cctNXpE4.s:45     .text:0000000000000024 .LBB41
     /tmp/cctNXpE4.s:58     .text:000000000000002c .LBE41
     /tmp/cctNXpE4.s:6753   .debug_loc:00000000000006b5 .LLST0
     /tmp/cctNXpE4.s:111    .text:0000000000000058 .LFB31
     /tmp/cctNXpE4.s:186    .text:00000000000000ec .LFE31
     /tmp/cctNXpE4.s:6761   .debug_loc:00000000000006d9 .LLST2
     /tmp/cctNXpE4.s:125    .text:0000000000000070 .LVL4
     /tmp/cctNXpE4.s:137    .text:0000000000000084 .LVL6
     /tmp/cctNXpE4.s:146    .text:000000000000009c .LVL8
     /tmp/cctNXpE4.s:154    .text:00000000000000b0 .LVL9
     /tmp/cctNXpE4.s:162    .text:00000000000000c4 .LVL10
     /tmp/cctNXpE4.s:168    .text:00000000000000d0 .LVL11
     /tmp/cctNXpE4.s:175    .text:00000000000000dc .LVL12
     /tmp/cctNXpE4.s:885    .text:0000000000000598 .LFB30
     /tmp/cctNXpE4.s:928    .text:00000000000005ec .LFE30
     /tmp/cctNXpE4.s:909    .text:00000000000005cc .LVL87
     /tmp/cctNXpE4.s:913    .text:00000000000005d4 .LVL88
GAS LISTING /tmp/cctNXpE4.s 			page 74


     /tmp/cctNXpE4.s:917    .text:00000000000005dc .LVL89
     /tmp/cctNXpE4.s:595    .text:0000000000000300 .LFB29
     /tmp/cctNXpE4.s:879    .text:0000000000000598 .LFE29
     /tmp/cctNXpE4.s:6928   .debug_str:00000000000000e2 .LASF352
     /tmp/cctNXpE4.s:6768   .debug_loc:00000000000006fc .LLST21
     /tmp/cctNXpE4.s:7016   .debug_str:0000000000000424 .LASF353
     /tmp/cctNXpE4.s:7486   .debug_str:00000000000013cc .LASF354
     /tmp/cctNXpE4.s:6781   .debug_loc:0000000000000737 .LLST22
     /tmp/cctNXpE4.s:7330   .debug_str:0000000000000f4b .LASF355
     /tmp/cctNXpE4.s:7540   .debug_str:0000000000001588 .LASF356
     /tmp/cctNXpE4.s:7040   .debug_str:0000000000000502 .LASF357
     /tmp/cctNXpE4.s:7048   .debug_str:0000000000000550 .LASF358
     /tmp/cctNXpE4.s:6896   .debug_str:0000000000000023 .LASF359
     /tmp/cctNXpE4.s:697    .text:00000000000003d8 .LBB59
     /tmp/cctNXpE4.s:717    .text:0000000000000400 .LBE59
     /tmp/cctNXpE4.s:6788   .debug_loc:000000000000075a .LLST23
     /tmp/cctNXpE4.s:622    .text:0000000000000330 .LBB57
     /tmp/cctNXpE4.s:633    .text:0000000000000334 .LBE57
     /tmp/cctNXpE4.s:827    .text:0000000000000550 .LBB60
     /tmp/cctNXpE4.s:839    .text:0000000000000558 .LBE60
     /tmp/cctNXpE4.s:6800   .debug_loc:0000000000000791 .LLST24
     /tmp/cctNXpE4.s:639    .text:0000000000000348 .LVL55
     /tmp/cctNXpE4.s:651    .text:000000000000035c .LVL58
     /tmp/cctNXpE4.s:658    .text:0000000000000370 .LVL59
     /tmp/cctNXpE4.s:666    .text:000000000000038c .LVL60
     /tmp/cctNXpE4.s:677    .text:00000000000003b4 .LVL61
     /tmp/cctNXpE4.s:683    .text:00000000000003c0 .LVL62
     /tmp/cctNXpE4.s:687    .text:00000000000003c8 .LVL63
     /tmp/cctNXpE4.s:692    .text:00000000000003d4 .LVL64
     /tmp/cctNXpE4.s:725    .text:0000000000000420 .LVL68
     /tmp/cctNXpE4.s:748    .text:0000000000000458 .LVL73
     /tmp/cctNXpE4.s:755    .text:000000000000046c .LVL74
     /tmp/cctNXpE4.s:762    .text:0000000000000480 .LVL75
     /tmp/cctNXpE4.s:769    .text:0000000000000494 .LVL76
     /tmp/cctNXpE4.s:777    .text:00000000000004b0 .LVL77
     /tmp/cctNXpE4.s:784    .text:00000000000004c4 .LVL78
     /tmp/cctNXpE4.s:793    .text:00000000000004e4 .LVL79
     /tmp/cctNXpE4.s:801    .text:0000000000000500 .LVL80
     /tmp/cctNXpE4.s:809    .text:000000000000051c .LVL81
     /tmp/cctNXpE4.s:817    .text:0000000000000538 .LVL82
     /tmp/cctNXpE4.s:825    .text:0000000000000550 .LVL83
     /tmp/cctNXpE4.s:517    .text:0000000000000298 .LFB28
     /tmp/cctNXpE4.s:578    .text:0000000000000300 .LFE28
     /tmp/cctNXpE4.s:7388   .debug_str:0000000000001105 .LASF360
     /tmp/cctNXpE4.s:6810   .debug_loc:00000000000007b7 .LLST17
     /tmp/cctNXpE4.s:7158   .debug_str:000000000000092e .LASF361
     /tmp/cctNXpE4.s:6824   .debug_loc:00000000000007f0 .LLST18
     /tmp/cctNXpE4.s:7038   .debug_str:00000000000004f7 .LASF362
     /tmp/cctNXpE4.s:6842   .debug_loc:000000000000083c .LLST19
     /tmp/cctNXpE4.s:541    .text:00000000000002c0 .LBB56
     /tmp/cctNXpE4.s:559    .text:00000000000002e4 .LBE56
     /tmp/cctNXpE4.s:6856   .debug_loc:0000000000000875 .LLST20
     /tmp/cctNXpE4.s:550    .text:00000000000002d8 .LVL49
     /tmp/cctNXpE4.s:10     .text:0000000000000000 .LFB27
     /tmp/cctNXpE4.s:28     .text:0000000000000018 .LFE27
     /tmp/cctNXpE4.s:7364   .debug_str:0000000000001045 .LASF387
     /tmp/cctNXpE4.s:7058   .debug_str:00000000000005b9 .LASF363
GAS LISTING /tmp/cctNXpE4.s 			page 75


     /tmp/cctNXpE4.s:7590   .debug_str:0000000000001810 .LASF364
     /tmp/cctNXpE4.s:7652   .debug_str:0000000000001a40 .LASF365
     /tmp/cctNXpE4.s:6960   .debug_str:00000000000001f7 .LASF366
     /tmp/cctNXpE4.s:7094   .debug_str:0000000000000721 .LASF367
     /tmp/cctNXpE4.s:7138   .debug_str:000000000000086b .LASF368
     /tmp/cctNXpE4.s:6992   .debug_str:000000000000033e .LASF369
     /tmp/cctNXpE4.s:6916   .debug_str:000000000000008b .LASF370
     /tmp/cctNXpE4.s:7260   .debug_str:0000000000000cb1 .LASF371
     /tmp/cctNXpE4.s:7490   .debug_str:00000000000013df .LASF372
     /tmp/cctNXpE4.s:7208   .debug_str:0000000000000add .LASF373
     /tmp/cctNXpE4.s:7230   .debug_str:0000000000000b88 .LASF374
     /tmp/cctNXpE4.s:7320   .debug_str:0000000000000efe .LASF375
     /tmp/cctNXpE4.s:6962   .debug_str:0000000000000208 .LASF376
     /tmp/cctNXpE4.s:6956   .debug_str:00000000000001ce .LASF377
     /tmp/cctNXpE4.s:1202   .text:0000000000000728 .LVL100
     /tmp/cctNXpE4.s:1217   .text:0000000000000744 .LVL101
     /tmp/cctNXpE4.s:1244   .text:000000000000075c .LVL102
     /tmp/cctNXpE4.s:1296   .text:00000000000007bc .LVL109
     /tmp/cctNXpE4.s:1311   .text:00000000000007c0 .LVL110
     /tmp/cctNXpE4.s:1341   .text:00000000000007dc .LVL111
     /tmp/cctNXpE4.s:1351   .text:00000000000007e4 .LVL112
     /tmp/cctNXpE4.s:1375   .text:0000000000000820 .LVL114
     /tmp/cctNXpE4.s:1382   .text:0000000000000824 .LVL115
     /tmp/cctNXpE4.s:1393   .text:0000000000000830 .LVL116
     /tmp/cctNXpE4.s:1402   .text:0000000000000834 .LVL117
     /tmp/cctNXpE4.s:1409   .text:0000000000000838 .LVL118
     /tmp/cctNXpE4.s:1418   .text:000000000000083c .LVL119
     /tmp/cctNXpE4.s:1496   .text:0000000000000890 .LVL125
     /tmp/cctNXpE4.s:1542   .text:00000000000008c0 .LVL126
     /tmp/cctNXpE4.s:1632   .text:00000000000008e4 .LVL128
     /tmp/cctNXpE4.s:1641   .text:00000000000008e8 .LVL129
     /tmp/cctNXpE4.s:1648   .text:00000000000008ec .LVL130
     /tmp/cctNXpE4.s:1657   .text:00000000000008f0 .LVL131
     /tmp/cctNXpE4.s:1105   .text:00000000000006c4 .LVL96
     /tmp/cctNXpE4.s:1115   .text:00000000000006cc .LVL97
     /tmp/cctNXpE4.s:1131   .text:00000000000006d8 .LVL98
     /tmp/cctNXpE4.s:1141   .text:00000000000006e0 .LVL99
     /tmp/cctNXpE4.s:971    .text:000000000000061c .LVL92
     /tmp/cctNXpE4.s:937    .text:00000000000005ec .LVL90
     /tmp/cctNXpE4.s:282    .text:0000000000000144 .LVL14
     /tmp/cctNXpE4.s:331    .text:00000000000001a0 .LVL19
     /tmp/cctNXpE4.s:342    .text:00000000000001ac .LVL21
     /tmp/cctNXpE4.s:362    .text:00000000000001c4 .LVL24
     /tmp/cctNXpE4.s:411    .text:000000000000020c .LVL31
     /tmp/cctNXpE4.s:503    .text:0000000000000290 .LVL46
     /tmp/cctNXpE4.s:382    .text:00000000000001dc .LVL29
     /tmp/cctNXpE4.s:310    .text:000000000000017c .LVL15
     /tmp/cctNXpE4.s:326    .text:0000000000000190 .LVL18
     /tmp/cctNXpE4.s:316    .text:0000000000000184 .LVL16
     /tmp/cctNXpE4.s:405    .text:0000000000000200 .LVL30
     /tmp/cctNXpE4.s:322    .text:000000000000018c .LVL17
     /tmp/cctNXpE4.s:368    .text:00000000000001c8 .LVL25
     /tmp/cctNXpE4.s:379    .text:00000000000001d8 .LVL28
     /tmp/cctNXpE4.s:339    .text:00000000000001a8 .LVL20
     /tmp/cctNXpE4.s:419    .text:0000000000000210 .LVL32
     /tmp/cctNXpE4.s:351    .text:00000000000001b8 .LVL22
     /tmp/cctNXpE4.s:462    .text:0000000000000258 .LVL39
GAS LISTING /tmp/cctNXpE4.s 			page 76


     /tmp/cctNXpE4.s:359    .text:00000000000001c0 .LVL23
     /tmp/cctNXpE4.s:470    .text:000000000000025c .LVL40
     /tmp/cctNXpE4.s:370    .text:00000000000001cc .LVL26
     /tmp/cctNXpE4.s:373    .text:00000000000001d0 .LVL27
     /tmp/cctNXpE4.s:452    .text:0000000000000244 .LVL38
     /tmp/cctNXpE4.s:426    .text:000000000000021c .LVL34
     /tmp/cctNXpE4.s:439    .text:0000000000000234 .LVL35
     /tmp/cctNXpE4.s:441    .text:0000000000000238 .LVL36
     /tmp/cctNXpE4.s:447    .text:000000000000023c .LVL37
     /tmp/cctNXpE4.s:477    .text:0000000000000268 .LVL42
     /tmp/cctNXpE4.s:490    .text:0000000000000280 .LVL43
     /tmp/cctNXpE4.s:492    .text:0000000000000284 .LVL44
     /tmp/cctNXpE4.s:498    .text:0000000000000288 .LVL45
     /tmp/cctNXpE4.s:83     .text:0000000000000044 .LVL2
     /tmp/cctNXpE4.s:93     .text:000000000000004c .LVL3
     /tmp/cctNXpE4.s:44     .text:0000000000000024 .LVL0
     /tmp/cctNXpE4.s:55     .text:000000000000002c .LVL1
     /tmp/cctNXpE4.s:144    .text:0000000000000094 .LVL7
     /tmp/cctNXpE4.s:649    .text:0000000000000354 .LVL57
     /tmp/cctNXpE4.s:864    .text:000000000000057c .LVL86
     /tmp/cctNXpE4.s:645    .text:0000000000000350 .LVL56
     /tmp/cctNXpE4.s:696    .text:00000000000003d8 .LVL65
     /tmp/cctNXpE4.s:700    .text:00000000000003dc .LVL66
     /tmp/cctNXpE4.s:836    .text:0000000000000558 .LVL84
     /tmp/cctNXpE4.s:520    .text:0000000000000298 .LVL47
     /tmp/cctNXpE4.s:539    .text:00000000000002c0 .LVL48
     /tmp/cctNXpE4.s:571    .text:00000000000002f4 .LVL52
     /tmp/cctNXpE4.s:568    .text:00000000000002f0 .LVL51
     /tmp/cctNXpE4.s:1856   .debug_info:0000000000000000 .Ldebug_info0
     /tmp/cctNXpE4.s:1300   .text:00000000000007bc .LBB70
     /tmp/cctNXpE4.s:1428   .text:0000000000000844 .LBE70
     /tmp/cctNXpE4.s:1447   .text:0000000000000858 .LBB83
     /tmp/cctNXpE4.s:1457   .text:0000000000000868 .LBE83
     /tmp/cctNXpE4.s:1488   .text:000000000000088c .LBB84
     /tmp/cctNXpE4.s:1666   .text:00000000000008f8 .LBE84
     /tmp/cctNXpE4.s:1674   .text:00000000000008fc .LBB93
     /tmp/cctNXpE4.s:1794   .text:00000000000009b0 .LBE93

UNDEFINED SYMBOLS
_ZN9Scheduler3getEv
_ZN3PCB10consolePCBE
_ZN9Scheduler3putEP3PCB
_ZN8KConsole11pendingGetcE
_ZN3PCB10isFinishedEv
_Z22thread_dispatch_kernelv
_ZN3PCB7runningE
_ZN14PCBWrapperUser11wrapperUserEPFvPvES0_
_Z11buddy_allocm
_ZN5Riscv14supervisorTrapEv
HEAP_START_ADDR
_Z12getBlockAddrm
_ZN15MemoryAllocator10initMemoryEPv
_Z9kmem_initPvi
_Z17kmem_cache_createPKcmPFvPvES3_
_ZN3PCB10initializeEv
_ZN8KConsole10initializeEv
_ZN8KConsole18trapPrintStringIntEPKcmi
GAS LISTING /tmp/cctNXpE4.s 			page 77


kernelTextStart
kernelDataStart
userTextStart
userDataStart
HEAP_END_ADDR
CONSOLE_RX_DATA
CONSOLE_TX_DATA
CONSOLE_STATUS
_Z7testOS2v
_ZN3PCB10savedRegA4E
_ZN8KConsole24getCharactersFromConsoleEv
plic_claim
plic_complete
_ZN3PCB17threadExitHandlerEv
_ZN3PCB16timeSliceCounterE
_ZN12SleepPCBList13tryToWakePCBsEv
_ZN3PCB8dispatchEv
_ZN15MemoryAllocator15memAllocHandlerEv
_ZN15MemoryAllocator14memFreeHandlerEv
_ZN3PCB20threadMakePCBHandlerEv
_ZN3PCB19threadCreateHandlerEv
_ZN3PCB18threadStartHandlerEv
_ZN3PCB21threadDispatchHandlerEv
_ZN3PCB18threadSleepHandlerEv
_ZN3PCB19threadDelPCBHandlerEv
_ZN10KSemaphore14semOpenHandlerEv
_ZN10KSemaphore14semWaitHandlerEv
_ZN10KSemaphore16semSignalHandlerEv
_ZN10KSemaphore15semCloseHandlerEv
_ZN8KConsole11getcHandlerEv
_ZN8KConsole11putcHandlerEv
_ZN8KConsole14getCharHandlerEv
