GAS LISTING /tmp/ccTG7hDV.s 			page 1


   1              		.file	"Riscv.cpp"
   2              		.option pic
   3              		.option norelax
   4              		.text
   5              	.Ltext0:
   6              		.align	2
   7              		.globl	_ZN5Riscv17initVirtualMemoryEv
   9              	_ZN5Riscv17initVirtualMemoryEv:
  10              	.LFB27:
  11              		.file 1 "src/kernel/Riscv.cpp"
   1:src/kernel/Riscv.cpp **** //
   2:src/kernel/Riscv.cpp **** // Created by os on 4/27/22.
   3:src/kernel/Riscv.cpp **** //
   4:src/kernel/Riscv.cpp **** 
   5:src/kernel/Riscv.cpp **** #include "../../h/Riscv.hpp"
   6:src/kernel/Riscv.cpp **** #include "../../h/MemoryAllocator.hpp"
   7:src/kernel/Riscv.cpp **** #include "../../h/PCB.hpp"
   8:src/kernel/Riscv.cpp **** #include "../../h/syscall_cpp.hpp"
   9:src/kernel/Riscv.cpp **** #include "../../h/SleepPCBList.hpp"
  10:src/kernel/Riscv.cpp **** #include "../../h/KConsole.hpp"
  11:src/kernel/Riscv.cpp **** #include "../../h/Scheduler.hpp"
  12:src/kernel/Riscv.cpp **** #include "../../h/buddyTests.hpp"
  13:src/kernel/Riscv.cpp **** #include "../../h/slabTests.hpp"
  14:src/kernel/Riscv.cpp **** #include "../../h/PCBWrapperUser.hpp"
  15:src/kernel/Riscv.cpp **** #include "../../h/syscall_c_kernel.hpp"
  16:src/kernel/Riscv.cpp **** 
  17:src/kernel/Riscv.cpp **** #define USER_RX 0x1b
  18:src/kernel/Riscv.cpp **** #define USER_RW 0x17
  19:src/kernel/Riscv.cpp **** #define KERNEL_RX 0xb
  20:src/kernel/Riscv.cpp **** #define KERNEL_RW 0x7
  21:src/kernel/Riscv.cpp **** #define VMEM_V_BIT 0x1
  22:src/kernel/Riscv.cpp **** #define NUM_OF_ENTRIES 512
  23:src/kernel/Riscv.cpp **** 
  24:src/kernel/Riscv.cpp **** uint64 Riscv::totalTime = 0;
  25:src/kernel/Riscv.cpp **** bool Riscv::finishSystem = false;
  26:src/kernel/Riscv.cpp **** bool Riscv::kernelMainCalled = false;
  27:src/kernel/Riscv.cpp **** kmem_cache_t * Riscv::pcbCache = nullptr;
  28:src/kernel/Riscv.cpp **** kmem_cache_t * Riscv::semaphoreCache = nullptr;
  29:src/kernel/Riscv.cpp **** void* Riscv::mainPMT = nullptr;
  30:src/kernel/Riscv.cpp **** void* Riscv::riscvBuddy = nullptr;
  31:src/kernel/Riscv.cpp **** size_t Riscv::programStartAddr = 0x80000000;
  32:src/kernel/Riscv.cpp **** extern char *userTextStart;
  33:src/kernel/Riscv.cpp **** extern char *userDataStart;
  34:src/kernel/Riscv.cpp **** extern char *kernelTextStart;
  35:src/kernel/Riscv.cpp **** extern char *kernelDataStart;
  36:src/kernel/Riscv.cpp **** 
  37:src/kernel/Riscv.cpp **** void Riscv::initVirtualMemory()
  38:src/kernel/Riscv.cpp **** {
  12              		.loc 1 38 1
  13              		.cfi_startproc
  14 0000 130101FF 		addi	sp,sp,-16
  15              		.cfi_def_cfa_offset 16
  16 0004 23348100 		sd	s0,8(sp)
  17              		.cfi_offset 8, -8
  18 0008 13040101 		addi	s0,sp,16
  19              		.cfi_def_cfa 8, 0
  39:src/kernel/Riscv.cpp ****     //size_t addr = (size_t)getNextBlockAddr((size_t)HEAP_START_ADDR);
GAS LISTING /tmp/ccTG7hDV.s 			page 2


  40:src/kernel/Riscv.cpp **** 
  41:src/kernel/Riscv.cpp ****     //size_t pmtSize = (1 << 9);
  42:src/kernel/Riscv.cpp ****     //size_t descSize = 64;
  43:src/kernel/Riscv.cpp ****     //size_t
  44:src/kernel/Riscv.cpp **** }
  20              		.loc 1 44 1 is_stmt 0
  21 000c 03348100 		ld	s0,8(sp)
  22              		.cfi_restore 8
  23              		.cfi_def_cfa 2, 16
  24 0010 13010101 		addi	sp,sp,16
  25              		.cfi_def_cfa_offset 0
  26 0014 67800000 		jr	ra
  27              		.cfi_endproc
  28              	.LFE27:
  30              		.align	2
  31              		.globl	_ZN5Riscv16enableInterruptsEv
  33              	_ZN5Riscv16enableInterruptsEv:
  34              	.LFB32:
  45:src/kernel/Riscv.cpp **** 
  46:src/kernel/Riscv.cpp **** void Riscv::setVirtualAddrRange(size_t startAddr, size_t endAddr, int permission)
  47:src/kernel/Riscv.cpp **** {
  48:src/kernel/Riscv.cpp ****     for(size_t i = startAddr; i < endAddr; i+=BLOCK_NUM_OF_BYTES)
  49:src/kernel/Riscv.cpp ****     {
  50:src/kernel/Riscv.cpp ****         setVirtualAddr(i, VMEM_V_BIT, permission);
  51:src/kernel/Riscv.cpp ****     }
  52:src/kernel/Riscv.cpp **** 
  53:src/kernel/Riscv.cpp **** }
  54:src/kernel/Riscv.cpp **** void Riscv::initSystem()
  55:src/kernel/Riscv.cpp **** {
  56:src/kernel/Riscv.cpp ****     w_stvec((uint64)&Riscv::supervisorTrap);
  57:src/kernel/Riscv.cpp **** 
  58:src/kernel/Riscv.cpp ****     riscvBuddy = (void*)getBlockAddr((size_t)HEAP_START_ADDR);
  59:src/kernel/Riscv.cpp ****     size_t heapStartBlock = getBlockAddr((size_t)HEAP_START_ADDR);
  60:src/kernel/Riscv.cpp **** 
  61:src/kernel/Riscv.cpp ****     size_t numOfBlocks = 4096 + 1;
  62:src/kernel/Riscv.cpp **** 
  63:src/kernel/Riscv.cpp ****     void* newStartAddr = (void*)(heapStartBlock + numOfBlocks*BLOCK_NUM_OF_BYTES);
  64:src/kernel/Riscv.cpp ****     MemoryAllocator::initMemory(newStartAddr);
  65:src/kernel/Riscv.cpp **** 
  66:src/kernel/Riscv.cpp ****     kmem_init((void*)HEAP_START_ADDR, numOfBlocks);
  67:src/kernel/Riscv.cpp ****     pcbCache = kmem_cache_create("Cache of PCBs", sizeof(PCB), nullptr, nullptr);
  68:src/kernel/Riscv.cpp ****     semaphoreCache = kmem_cache_create("Cache of KSemaphore", sizeof(KSemaphore), nullptr, nullptr)
  69:src/kernel/Riscv.cpp **** 
  70:src/kernel/Riscv.cpp ****     PCB::initialize();
  71:src/kernel/Riscv.cpp ****     KConsole::initialize();
  72:src/kernel/Riscv.cpp **** 
  73:src/kernel/Riscv.cpp ****     mainPMT = buddy_alloc((buddyAllocator*)riscvBuddy, 1);
  74:src/kernel/Riscv.cpp ****     for(size_t i = 0; i < NUM_OF_ENTRIES;i++)
  75:src/kernel/Riscv.cpp ****         ((size_t*)mainPMT)[i] = 0;
  76:src/kernel/Riscv.cpp **** 
  77:src/kernel/Riscv.cpp ****     KConsole::trapPrintStringInt("main PMT ", (size_t)mainPMT,16);
  78:src/kernel/Riscv.cpp **** 
  79:src/kernel/Riscv.cpp ****     uint64 kTextStart = (uint64)(&kernelTextStart);
  80:src/kernel/Riscv.cpp ****     uint64 kDataStart = (uint64)(&kernelDataStart);
  81:src/kernel/Riscv.cpp ****     uint64 uTextStart = (uint64)(&userTextStart);
  82:src/kernel/Riscv.cpp ****     uint64 uDataStart = (uint64)(&userDataStart);
  83:src/kernel/Riscv.cpp **** 
GAS LISTING /tmp/ccTG7hDV.s 			page 3


  84:src/kernel/Riscv.cpp ****     setVirtualAddrRange(programStartAddr, kTextStart, KERNEL_RX); // before kernel instructions
  85:src/kernel/Riscv.cpp ****     setVirtualAddrRange(kTextStart, kDataStart,KERNEL_RX); // kernel instructions
  86:src/kernel/Riscv.cpp ****     setVirtualAddrRange((size_t)(&kernelDataStart), uTextStart, KERNEL_RW); // kernel data
  87:src/kernel/Riscv.cpp ****     setVirtualAddrRange((size_t)(&userTextStart), uDataStart, USER_RX); //user instructions
  88:src/kernel/Riscv.cpp ****     setVirtualAddrRange((size_t)(&userDataStart), (size_t)HEAP_START_ADDR, USER_RW); // user data
  89:src/kernel/Riscv.cpp ****     setVirtualAddrRange((size_t)HEAP_START_ADDR, (size_t)newStartAddr, KERNEL_RW); // kernel heap d
  90:src/kernel/Riscv.cpp ****     setVirtualAddrRange((size_t)newStartAddr, (size_t)HEAP_END_ADDR + 1,USER_RW); // user heap data
  91:src/kernel/Riscv.cpp **** 
  92:src/kernel/Riscv.cpp ****     setVirtualAddr((size_t)CONSOLE_RX_DATA,0x1,0xf);
  93:src/kernel/Riscv.cpp ****     setVirtualAddr((size_t)CONSOLE_TX_DATA,0x1,0xf);
  94:src/kernel/Riscv.cpp ****     setVirtualAddr((size_t)CONSOLE_STATUS,0x1,0xf);
  95:src/kernel/Riscv.cpp ****     setVirtualAddr(0xc201004,0x1,0xf);
  96:src/kernel/Riscv.cpp **** 
  97:src/kernel/Riscv.cpp ****     Riscv::ms_sstatus(1<<18);
  98:src/kernel/Riscv.cpp ****     size_t satp = ((size_t)1 << 63) | ((size_t)mainPMT >> 12);
  99:src/kernel/Riscv.cpp ****     __asm__ volatile("csrw satp, %0" : :"r"(satp));
 100:src/kernel/Riscv.cpp **** }
 101:src/kernel/Riscv.cpp **** 
 102:src/kernel/Riscv.cpp **** void Riscv::kernelMain()
 103:src/kernel/Riscv.cpp **** {
 104:src/kernel/Riscv.cpp ****     if(kernelMainCalled) return;
 105:src/kernel/Riscv.cpp ****     kernelMainCalled = true;
 106:src/kernel/Riscv.cpp **** 
 107:src/kernel/Riscv.cpp ****     initSystem();
 108:src/kernel/Riscv.cpp **** 
 109:src/kernel/Riscv.cpp ****     //testOS2();
 110:src/kernel/Riscv.cpp **** 
 111:src/kernel/Riscv.cpp ****     enableInterrupts();
 112:src/kernel/Riscv.cpp **** 
 113:src/kernel/Riscv.cpp ****     while(!PCB::userPCB->isFinished())
 114:src/kernel/Riscv.cpp ****     {
 115:src/kernel/Riscv.cpp ****         thread_dispatch_kernel();
 116:src/kernel/Riscv.cpp ****     }
 117:src/kernel/Riscv.cpp **** 
 118:src/kernel/Riscv.cpp ****     endSystem();
 119:src/kernel/Riscv.cpp **** }
 120:src/kernel/Riscv.cpp **** 
 121:src/kernel/Riscv.cpp **** void Riscv::endSystem()
 122:src/kernel/Riscv.cpp **** {
 123:src/kernel/Riscv.cpp ****     disableInterrupts();
 124:src/kernel/Riscv.cpp ****     finishSystem = true;
 125:src/kernel/Riscv.cpp ****     PCB* pcb = 0;
 126:src/kernel/Riscv.cpp ****     while(true)
 127:src/kernel/Riscv.cpp ****     {
 128:src/kernel/Riscv.cpp ****         pcb = Scheduler::get();
 129:src/kernel/Riscv.cpp ****         if(pcb == 0) break;
 130:src/kernel/Riscv.cpp ****     }
 131:src/kernel/Riscv.cpp ****     Scheduler::put(PCB::consolePCB);
 132:src/kernel/Riscv.cpp ****     KConsole::pendingGetc = 0;
 133:src/kernel/Riscv.cpp ****     enableInterrupts();
 134:src/kernel/Riscv.cpp ****     while(!PCB::consolePCB->isFinished())
 135:src/kernel/Riscv.cpp ****     {
 136:src/kernel/Riscv.cpp ****         thread_dispatch_kernel();
 137:src/kernel/Riscv.cpp ****     }
 138:src/kernel/Riscv.cpp ****     disableInterrupts();
 139:src/kernel/Riscv.cpp **** }
 140:src/kernel/Riscv.cpp **** 
GAS LISTING /tmp/ccTG7hDV.s 			page 4


 141:src/kernel/Riscv.cpp **** void Riscv::enableInterrupts() {
  35              		.loc 1 141 32 is_stmt 1
  36              		.cfi_startproc
  37 0018 130101FF 		addi	sp,sp,-16
  38              		.cfi_def_cfa_offset 16
  39 001c 23348100 		sd	s0,8(sp)
  40              		.cfi_offset 8, -8
  41 0020 13040101 		addi	s0,sp,16
  42              		.cfi_def_cfa 8, 0
 142:src/kernel/Riscv.cpp ****     ms_sstatus(Riscv::SSTATUS_SIE);
  43              		.loc 1 142 5
  44              	.LVL0:
  45              	.LBB44:
  46              	.LBB45:
  47              		.file 2 "src/kernel/../../h/Riscv.hpp"
   1:src/kernel/../../h/Riscv.hpp **** //
   2:src/kernel/../../h/Riscv.hpp **** // Created by os on 4/27/22.
   3:src/kernel/../../h/Riscv.hpp **** //
   4:src/kernel/../../h/Riscv.hpp **** 
   5:src/kernel/../../h/Riscv.hpp **** #ifndef PROJECT_BASE_V1_0_RISCV_HPP
   6:src/kernel/../../h/Riscv.hpp **** #define PROJECT_BASE_V1_0_RISCV_HPP
   7:src/kernel/../../h/Riscv.hpp **** 
   8:src/kernel/../../h/Riscv.hpp **** #include "../lib/hw.h"
   9:src/kernel/../../h/Riscv.hpp **** #include "../src/user/test/userMain.hpp"
  10:src/kernel/../../h/Riscv.hpp **** #include "slabAllocator.hpp"
  11:src/kernel/../../h/Riscv.hpp **** 
  12:src/kernel/../../h/Riscv.hpp **** class Riscv
  13:src/kernel/../../h/Riscv.hpp **** {
  14:src/kernel/../../h/Riscv.hpp **** public:
  15:src/kernel/../../h/Riscv.hpp ****     static void kernelMain();
  16:src/kernel/../../h/Riscv.hpp **** private:
  17:src/kernel/../../h/Riscv.hpp ****     static bool kernelMainCalled;
  18:src/kernel/../../h/Riscv.hpp ****     static void changePrivMode();
  19:src/kernel/../../h/Riscv.hpp **** 
  20:src/kernel/../../h/Riscv.hpp ****     static void* mainPMT;
  21:src/kernel/../../h/Riscv.hpp ****     static void* riscvBuddy;
  22:src/kernel/../../h/Riscv.hpp **** 
  23:src/kernel/../../h/Riscv.hpp ****     static void addVirtualAddr(size_t addr);
  24:src/kernel/../../h/Riscv.hpp ****     static void addVirtualAddrInstr(size_t addr);
  25:src/kernel/../../h/Riscv.hpp ****     static void setVirtualAddr(size_t addr, size_t mask, size_t maskLeaf);
  26:src/kernel/../../h/Riscv.hpp **** 
  27:src/kernel/../../h/Riscv.hpp ****     static void initVirtualMemory();
  28:src/kernel/../../h/Riscv.hpp **** 
  29:src/kernel/../../h/Riscv.hpp ****     static void setVirtualAddrRange(size_t startAddr, size_t endAddr, int permission);
  30:src/kernel/../../h/Riscv.hpp **** 
  31:src/kernel/../../h/Riscv.hpp ****     static void initSystem();
  32:src/kernel/../../h/Riscv.hpp ****     static void endSystem();
  33:src/kernel/../../h/Riscv.hpp **** 
  34:src/kernel/../../h/Riscv.hpp ****     static void enableInterrupts();
  35:src/kernel/../../h/Riscv.hpp **** 
  36:src/kernel/../../h/Riscv.hpp ****     static void disableTimerInterrupts();
  37:src/kernel/../../h/Riscv.hpp **** 
  38:src/kernel/../../h/Riscv.hpp ****     static void disableInterrupts();
  39:src/kernel/../../h/Riscv.hpp **** 
  40:src/kernel/../../h/Riscv.hpp ****     static void pushRegisters();
  41:src/kernel/../../h/Riscv.hpp ****     static void popRegisters();
  42:src/kernel/../../h/Riscv.hpp **** 
GAS LISTING /tmp/ccTG7hDV.s 			page 5


  43:src/kernel/../../h/Riscv.hpp ****     static uint64 r_scause();
  44:src/kernel/../../h/Riscv.hpp ****     static void w_scause(uint64 scause);
  45:src/kernel/../../h/Riscv.hpp **** 
  46:src/kernel/../../h/Riscv.hpp ****     static uint64 r_sepc();
  47:src/kernel/../../h/Riscv.hpp ****     static void w_sepc(uint64 sepc);
  48:src/kernel/../../h/Riscv.hpp **** 
  49:src/kernel/../../h/Riscv.hpp ****     static uint64 r_stvec();
  50:src/kernel/../../h/Riscv.hpp ****     static void w_stvec(uint64 stvec);
  51:src/kernel/../../h/Riscv.hpp **** 
  52:src/kernel/../../h/Riscv.hpp ****     static uint64 r_stval();
  53:src/kernel/../../h/Riscv.hpp ****     static void w_stval(uint64 stval);
  54:src/kernel/../../h/Riscv.hpp **** 
  55:src/kernel/../../h/Riscv.hpp ****     static bool finishSystem;
  56:src/kernel/../../h/Riscv.hpp **** 
  57:src/kernel/../../h/Riscv.hpp ****     enum BitMaskSip
  58:src/kernel/../../h/Riscv.hpp ****     {
  59:src/kernel/../../h/Riscv.hpp ****         SIP_SSIP = (1 << 1),
  60:src/kernel/../../h/Riscv.hpp ****         SIP_STIP = (1 << 5),
  61:src/kernel/../../h/Riscv.hpp ****         SIP_SEIP = (1 << 9),
  62:src/kernel/../../h/Riscv.hpp ****     };
  63:src/kernel/../../h/Riscv.hpp **** 
  64:src/kernel/../../h/Riscv.hpp ****     static void ms_sip(uint64 mask);
  65:src/kernel/../../h/Riscv.hpp **** 
  66:src/kernel/../../h/Riscv.hpp ****     static void mc_sip(uint64 mask);
  67:src/kernel/../../h/Riscv.hpp **** 
  68:src/kernel/../../h/Riscv.hpp ****     static uint64 r_sip();
  69:src/kernel/../../h/Riscv.hpp **** 
  70:src/kernel/../../h/Riscv.hpp ****     static void w_sip(uint64 sip);
  71:src/kernel/../../h/Riscv.hpp **** 
  72:src/kernel/../../h/Riscv.hpp ****     enum BitMaskSstatus
  73:src/kernel/../../h/Riscv.hpp ****     {
  74:src/kernel/../../h/Riscv.hpp ****         SSTATUS_SIE = (1 << 1),
  75:src/kernel/../../h/Riscv.hpp ****         SSTATUS_SPIE = (1 << 5),
  76:src/kernel/../../h/Riscv.hpp ****         SSTATUS_SPP = (1 << 8),
  77:src/kernel/../../h/Riscv.hpp ****     };
  78:src/kernel/../../h/Riscv.hpp **** 
  79:src/kernel/../../h/Riscv.hpp ****     static void w_a0_sscratch();
  80:src/kernel/../../h/Riscv.hpp **** 
  81:src/kernel/../../h/Riscv.hpp ****     static void ms_sstatus(uint64 mask);
  82:src/kernel/../../h/Riscv.hpp **** 
  83:src/kernel/../../h/Riscv.hpp ****     static void mc_sstatus(uint64 mask);
  84:src/kernel/../../h/Riscv.hpp **** 
  85:src/kernel/../../h/Riscv.hpp ****     static void mc_sie(uint64 mask);
  86:src/kernel/../../h/Riscv.hpp **** 
  87:src/kernel/../../h/Riscv.hpp ****     static void ms_sie(uint64 mask);
  88:src/kernel/../../h/Riscv.hpp **** 
  89:src/kernel/../../h/Riscv.hpp ****     static uint64 r_sstatus();
  90:src/kernel/../../h/Riscv.hpp **** 
  91:src/kernel/../../h/Riscv.hpp ****     static void w_sstatus(uint64 sstatus);
  92:src/kernel/../../h/Riscv.hpp **** 
  93:src/kernel/../../h/Riscv.hpp ****     static uint64 r_sie();
  94:src/kernel/../../h/Riscv.hpp ****     static void w_sie(uint64 sie);
  95:src/kernel/../../h/Riscv.hpp ****     static void popSppSpie();
  96:src/kernel/../../h/Riscv.hpp **** 
  97:src/kernel/../../h/Riscv.hpp ****     static void supervisorTrap();
  98:src/kernel/../../h/Riscv.hpp ****     static void handleSupervisorTrap();
  99:src/kernel/../../h/Riscv.hpp **** 
GAS LISTING /tmp/ccTG7hDV.s 			page 6


 100:src/kernel/../../h/Riscv.hpp ****     static const uint64 bntOne = 1UL << 63;;
 101:src/kernel/../../h/Riscv.hpp ****     static const uint64 bntZero = 0UL;
 102:src/kernel/../../h/Riscv.hpp ****     static const uint64 timerInterrupt = bntOne + 1UL;
 103:src/kernel/../../h/Riscv.hpp ****     static const uint64 hwInterrupt = bntOne + 9UL;
 104:src/kernel/../../h/Riscv.hpp ****     static const uint64 operationInterrupt = bntZero + 2UL;
 105:src/kernel/../../h/Riscv.hpp ****     static const uint64 addrReadInterrupt = bntZero + 5UL;
 106:src/kernel/../../h/Riscv.hpp ****     static const uint64 addrWriteInterrupt = bntZero + 7UL;
 107:src/kernel/../../h/Riscv.hpp ****     static const uint64 ecallUserInterrupt = bntZero + 8UL;
 108:src/kernel/../../h/Riscv.hpp ****     static const uint64 ecallSystemInterupt = bntZero + 9UL;
 109:src/kernel/../../h/Riscv.hpp **** 
 110:src/kernel/../../h/Riscv.hpp ****     static uint64 totalTime;
 111:src/kernel/../../h/Riscv.hpp **** 
 112:src/kernel/../../h/Riscv.hpp ****     static kmem_cache_t * pcbCache;
 113:src/kernel/../../h/Riscv.hpp ****     static kmem_cache_t* semaphoreCache;
 114:src/kernel/../../h/Riscv.hpp **** 
 115:src/kernel/../../h/Riscv.hpp ****     static size_t programStartAddr;
 116:src/kernel/../../h/Riscv.hpp **** 
 117:src/kernel/../../h/Riscv.hpp ****     friend class PCB;
 118:src/kernel/../../h/Riscv.hpp ****     friend class Scheduler;
 119:src/kernel/../../h/Riscv.hpp ****     friend class SleepPCBList;
 120:src/kernel/../../h/Riscv.hpp ****     friend class KSemaphore;
 121:src/kernel/../../h/Riscv.hpp ****     friend class KConsole;
 122:src/kernel/../../h/Riscv.hpp ****     friend class MemoryAllocator;
 123:src/kernel/../../h/Riscv.hpp **** };
 124:src/kernel/../../h/Riscv.hpp **** 
 125:src/kernel/../../h/Riscv.hpp **** inline void Riscv::mc_sie(uint64 mask)
 126:src/kernel/../../h/Riscv.hpp **** {
 127:src/kernel/../../h/Riscv.hpp ****     __asm__ volatile("csrc sie, %0" : :"r"(mask));
 128:src/kernel/../../h/Riscv.hpp **** }
 129:src/kernel/../../h/Riscv.hpp **** 
 130:src/kernel/../../h/Riscv.hpp **** inline uint64 Riscv::r_scause() {
 131:src/kernel/../../h/Riscv.hpp ****     uint64 volatile scause;
 132:src/kernel/../../h/Riscv.hpp ****     __asm__ volatile("csrr %0, scause" : "=r"(scause));
 133:src/kernel/../../h/Riscv.hpp ****     return scause;
 134:src/kernel/../../h/Riscv.hpp **** }
 135:src/kernel/../../h/Riscv.hpp **** 
 136:src/kernel/../../h/Riscv.hpp **** inline void Riscv::w_scause(uint64 scause) {
 137:src/kernel/../../h/Riscv.hpp ****     __asm__ volatile("csrw scause, %0" : :"r"(scause));
 138:src/kernel/../../h/Riscv.hpp **** }
 139:src/kernel/../../h/Riscv.hpp **** 
 140:src/kernel/../../h/Riscv.hpp **** inline uint64 Riscv::r_sepc() {
 141:src/kernel/../../h/Riscv.hpp ****     uint64 volatile sepc;
 142:src/kernel/../../h/Riscv.hpp ****     __asm__ volatile("csrr %0, sepc" : "=r"(sepc));
 143:src/kernel/../../h/Riscv.hpp ****     return sepc;
 144:src/kernel/../../h/Riscv.hpp **** }
 145:src/kernel/../../h/Riscv.hpp **** 
 146:src/kernel/../../h/Riscv.hpp **** inline void Riscv::w_sepc(uint64 sepc) {
 147:src/kernel/../../h/Riscv.hpp ****     __asm__ volatile("csrw sepc, %0" : :"r"(sepc));
 148:src/kernel/../../h/Riscv.hpp **** }
 149:src/kernel/../../h/Riscv.hpp **** 
 150:src/kernel/../../h/Riscv.hpp **** inline uint64 Riscv::r_stvec() {
 151:src/kernel/../../h/Riscv.hpp ****     uint64 volatile stvec;
 152:src/kernel/../../h/Riscv.hpp ****     __asm__ volatile("csrr %0, stvec" : "=r"(stvec));
 153:src/kernel/../../h/Riscv.hpp ****     return stvec;
 154:src/kernel/../../h/Riscv.hpp **** }
 155:src/kernel/../../h/Riscv.hpp **** 
 156:src/kernel/../../h/Riscv.hpp **** inline void Riscv::w_stvec(uint64 stvec) {
GAS LISTING /tmp/ccTG7hDV.s 			page 7


 157:src/kernel/../../h/Riscv.hpp ****     __asm__ volatile("csrw stvec, %0" : :"r"(stvec));
 158:src/kernel/../../h/Riscv.hpp **** }
 159:src/kernel/../../h/Riscv.hpp **** 
 160:src/kernel/../../h/Riscv.hpp **** inline uint64 Riscv::r_stval() {
 161:src/kernel/../../h/Riscv.hpp ****     uint64 volatile stval;
 162:src/kernel/../../h/Riscv.hpp ****     __asm__ volatile("csrr %0, stval" : "=r"(stval));
 163:src/kernel/../../h/Riscv.hpp ****     return stval;
 164:src/kernel/../../h/Riscv.hpp **** }
 165:src/kernel/../../h/Riscv.hpp **** 
 166:src/kernel/../../h/Riscv.hpp **** inline void Riscv::w_sie(uint64 sie)
 167:src/kernel/../../h/Riscv.hpp **** {
 168:src/kernel/../../h/Riscv.hpp ****     __asm__ volatile("csrw sie, %0" : :"r"(sie));
 169:src/kernel/../../h/Riscv.hpp **** }
 170:src/kernel/../../h/Riscv.hpp **** 
 171:src/kernel/../../h/Riscv.hpp **** inline void Riscv::w_stval(uint64 stval) {
 172:src/kernel/../../h/Riscv.hpp ****     __asm__ volatile("csrw stval, %0" : :"r"(stval));
 173:src/kernel/../../h/Riscv.hpp **** }
 174:src/kernel/../../h/Riscv.hpp **** 
 175:src/kernel/../../h/Riscv.hpp **** inline void Riscv::ms_sip(uint64 mask) {
 176:src/kernel/../../h/Riscv.hpp ****     __asm__ volatile("csrs sip, %0" : :"r"(mask));
 177:src/kernel/../../h/Riscv.hpp **** }
 178:src/kernel/../../h/Riscv.hpp **** 
 179:src/kernel/../../h/Riscv.hpp **** inline void Riscv::mc_sip(uint64 mask) {
 180:src/kernel/../../h/Riscv.hpp ****     __asm__ volatile("csrc sip, %0" : :"r"(mask));
 181:src/kernel/../../h/Riscv.hpp **** }
 182:src/kernel/../../h/Riscv.hpp **** 
 183:src/kernel/../../h/Riscv.hpp **** inline uint64 Riscv::r_sie()
 184:src/kernel/../../h/Riscv.hpp **** {
 185:src/kernel/../../h/Riscv.hpp ****     uint64 volatile sie;
 186:src/kernel/../../h/Riscv.hpp ****     __asm__ volatile("csrr %0, sip" : "=r"(sie));
 187:src/kernel/../../h/Riscv.hpp ****     return sie;
 188:src/kernel/../../h/Riscv.hpp **** }
 189:src/kernel/../../h/Riscv.hpp **** 
 190:src/kernel/../../h/Riscv.hpp **** inline void Riscv::ms_sie(uint64 mask)
 191:src/kernel/../../h/Riscv.hpp **** {
 192:src/kernel/../../h/Riscv.hpp ****     __asm__ volatile("csrs sie, %0" : :"r"(mask));
 193:src/kernel/../../h/Riscv.hpp **** }
 194:src/kernel/../../h/Riscv.hpp **** 
 195:src/kernel/../../h/Riscv.hpp **** inline uint64 Riscv::r_sip() {
 196:src/kernel/../../h/Riscv.hpp ****     uint64 volatile sip;
 197:src/kernel/../../h/Riscv.hpp ****     __asm__ volatile("csrr %0, sip" : "=r"(sip));
 198:src/kernel/../../h/Riscv.hpp ****     return sip;
 199:src/kernel/../../h/Riscv.hpp **** }
 200:src/kernel/../../h/Riscv.hpp **** 
 201:src/kernel/../../h/Riscv.hpp **** inline void Riscv::w_sip(uint64 sip) {
 202:src/kernel/../../h/Riscv.hpp ****     __asm__ volatile("csrw sip, %0" : :"r"(sip));
 203:src/kernel/../../h/Riscv.hpp **** }
 204:src/kernel/../../h/Riscv.hpp **** 
 205:src/kernel/../../h/Riscv.hpp **** inline void Riscv::ms_sstatus(uint64 mask) {
 206:src/kernel/../../h/Riscv.hpp ****     __asm__ volatile("csrs sstatus, %0" : :"r"(mask));
  48              		.loc 2 206 5
  49              		.loc 2 206 54 is_stmt 0
  50 0024 93072000 		li	a5,2
  51              	#APP
  52              	# 206 "src/kernel/../../h/Riscv.hpp" 1
 207              	}
  53              		csrs sstatus, a5
GAS LISTING /tmp/ccTG7hDV.s 			page 8


  54              	# 0 "" 2
  55              	.LVL1:
  56              	#NO_APP
  57              	.LBE45:
  58              	.LBE44:
 143:src/kernel/Riscv.cpp **** }
  59              		.loc 1 143 1
  60 002c 03348100 		ld	s0,8(sp)
  61              		.cfi_restore 8
  62              		.cfi_def_cfa 2, 16
  63 0030 13010101 		addi	sp,sp,16
  64              		.cfi_def_cfa_offset 0
  65 0034 67800000 		jr	ra
  66              		.cfi_endproc
  67              	.LFE32:
  69              		.align	2
  70              		.globl	_ZN5Riscv17disableInterruptsEv
  72              	_ZN5Riscv17disableInterruptsEv:
  73              	.LFB33:
 144:src/kernel/Riscv.cpp **** 
 145:src/kernel/Riscv.cpp **** void Riscv::disableInterrupts()
 146:src/kernel/Riscv.cpp **** {
  74              		.loc 1 146 1 is_stmt 1
  75              		.cfi_startproc
  76 0038 130101FF 		addi	sp,sp,-16
  77              		.cfi_def_cfa_offset 16
  78 003c 23348100 		sd	s0,8(sp)
  79              		.cfi_offset 8, -8
  80 0040 13040101 		addi	s0,sp,16
  81              		.cfi_def_cfa 8, 0
 147:src/kernel/Riscv.cpp ****     mc_sstatus(Riscv::SSTATUS_SIE);
  82              		.loc 1 147 5
  83              	.LVL2:
  84              	.LBB46:
  85              	.LBB47:
 208:src/kernel/../../h/Riscv.hpp **** 
 209:src/kernel/../../h/Riscv.hpp **** inline void Riscv::mc_sstatus(uint64 mask) {
 210:src/kernel/../../h/Riscv.hpp ****     __asm__ volatile("csrc sstatus, %0" : :"r"(mask));
  86              		.loc 2 210 5
  87              		.loc 2 210 54 is_stmt 0
  88 0044 93072000 		li	a5,2
  89              	#APP
  90              	# 210 "src/kernel/../../h/Riscv.hpp" 1
 211              	}
  91              		csrc sstatus, a5
  92              	# 0 "" 2
  93              	.LVL3:
  94              	#NO_APP
  95              	.LBE47:
  96              	.LBE46:
 148:src/kernel/Riscv.cpp **** }
  97              		.loc 1 148 1
  98 004c 03348100 		ld	s0,8(sp)
  99              		.cfi_restore 8
 100              		.cfi_def_cfa 2, 16
 101 0050 13010101 		addi	sp,sp,16
 102              		.cfi_def_cfa_offset 0
GAS LISTING /tmp/ccTG7hDV.s 			page 9


 103 0054 67800000 		jr	ra
 104              		.cfi_endproc
 105              	.LFE33:
 107              		.align	2
 108              		.globl	_ZN5Riscv9endSystemEv
 110              	_ZN5Riscv9endSystemEv:
 111              	.LFB31:
 122:src/kernel/Riscv.cpp ****     disableInterrupts();
 112              		.loc 1 122 1 is_stmt 1
 113              		.cfi_startproc
 114 0058 130101FF 		addi	sp,sp,-16
 115              		.cfi_def_cfa_offset 16
 116 005c 23341100 		sd	ra,8(sp)
 117 0060 23308100 		sd	s0,0(sp)
 118              		.cfi_offset 1, -8
 119              		.cfi_offset 8, -16
 120 0064 13040101 		addi	s0,sp,16
 121              		.cfi_def_cfa 8, 0
 123:src/kernel/Riscv.cpp ****     finishSystem = true;
 122              		.loc 1 123 5
 123:src/kernel/Riscv.cpp ****     finishSystem = true;
 123              		.loc 1 123 22 is_stmt 0
 124 0068 97000000 		call	_ZN5Riscv17disableInterruptsEv
 124      E7800000 
 125              	.LVL4:
 124:src/kernel/Riscv.cpp ****     PCB* pcb = 0;
 126              		.loc 1 124 5 is_stmt 1
 124:src/kernel/Riscv.cpp ****     PCB* pcb = 0;
 127              		.loc 1 124 18 is_stmt 0
 128 0070 93071000 		li	a5,1
 129 0074 17070000 		sb	a5,.LANCHOR0,a4
 129      2300F700 
 125:src/kernel/Riscv.cpp ****     while(true)
 130              		.loc 1 125 5 is_stmt 1
 131              	.LVL5:
 132              	.L8:
 126:src/kernel/Riscv.cpp ****     {
 133              		.loc 1 126 5
 128:src/kernel/Riscv.cpp ****         if(pcb == 0) break;
 134              		.loc 1 128 9
 128:src/kernel/Riscv.cpp ****         if(pcb == 0) break;
 135              		.loc 1 128 29 is_stmt 0
 136 007c 97000000 		call	_ZN9Scheduler3getEv@plt
 136      E7800000 
 137              	.LVL6:
 129:src/kernel/Riscv.cpp ****     }
 138              		.loc 1 129 9 is_stmt 1
 139 0084 E31C05FE 		bnez	a0,.L8
 131:src/kernel/Riscv.cpp ****     KConsole::pendingGetc = 0;
 140              		.loc 1 131 5
 131:src/kernel/Riscv.cpp ****     KConsole::pendingGetc = 0;
 141              		.loc 1 131 19 is_stmt 0
 142 0088 97070000 		la	a5,_ZN3PCB10consolePCBE
 142      83B70700 
 143 0090 03B50700 		ld	a0,0(a5)
 144              	.LVL7:
 145 0094 97000000 		call	_ZN9Scheduler3putEP3PCB@plt
GAS LISTING /tmp/ccTG7hDV.s 			page 10


 145      E7800000 
 146              	.LVL8:
 132:src/kernel/Riscv.cpp ****     enableInterrupts();
 147              		.loc 1 132 5 is_stmt 1
 132:src/kernel/Riscv.cpp ****     enableInterrupts();
 148              		.loc 1 132 27 is_stmt 0
 149 009c 97070000 		la	a5,_ZN8KConsole11pendingGetcE
 149      83B70700 
 150 00a4 23B00700 		sd	zero,0(a5)
 133:src/kernel/Riscv.cpp ****     while(!PCB::consolePCB->isFinished())
 151              		.loc 1 133 5 is_stmt 1
 133:src/kernel/Riscv.cpp ****     while(!PCB::consolePCB->isFinished())
 152              		.loc 1 133 21 is_stmt 0
 153 00a8 97000000 		call	_ZN5Riscv16enableInterruptsEv
 153      E7800000 
 154              	.LVL9:
 155              	.L10:
 134:src/kernel/Riscv.cpp ****     {
 156              		.loc 1 134 5 is_stmt 1
 134:src/kernel/Riscv.cpp ****     {
 157              		.loc 1 134 11
 134:src/kernel/Riscv.cpp ****     {
 158              		.loc 1 134 39 is_stmt 0
 159 00b0 97070000 		la	a5,_ZN3PCB10consolePCBE
 159      83B70700 
 160 00b8 03B50700 		ld	a0,0(a5)
 161 00bc 97000000 		call	_ZN3PCB10isFinishedEv@plt
 161      E7800000 
 162              	.LVL10:
 134:src/kernel/Riscv.cpp ****     {
 163              		.loc 1 134 11
 164 00c4 63180500 		bnez	a0,.L9
 136:src/kernel/Riscv.cpp ****     }
 165              		.loc 1 136 9 is_stmt 1
 136:src/kernel/Riscv.cpp ****     }
 166              		.loc 1 136 31 is_stmt 0
 167 00c8 97000000 		call	_Z22thread_dispatch_kernelv@plt
 167      E7800000 
 168              	.LVL11:
 134:src/kernel/Riscv.cpp ****     {
 169              		.loc 1 134 5
 170 00d0 6FF01FFE 		j	.L10
 171              	.L9:
 138:src/kernel/Riscv.cpp **** }
 172              		.loc 1 138 5 is_stmt 1
 138:src/kernel/Riscv.cpp **** }
 173              		.loc 1 138 22 is_stmt 0
 174 00d4 97000000 		call	_ZN5Riscv17disableInterruptsEv
 174      E7800000 
 175              	.LVL12:
 139:src/kernel/Riscv.cpp **** 
 176              		.loc 1 139 1
 177 00dc 83308100 		ld	ra,8(sp)
 178              		.cfi_restore 1
 179 00e0 03340100 		ld	s0,0(sp)
 180              		.cfi_restore 8
 181              		.cfi_def_cfa 2, 16
GAS LISTING /tmp/ccTG7hDV.s 			page 11


 182 00e4 13010101 		addi	sp,sp,16
 183              		.cfi_def_cfa_offset 0
 184 00e8 67800000 		jr	ra
 185              		.cfi_endproc
 186              	.LFE31:
 188              		.align	2
 189              		.globl	_ZN5Riscv10popSppSpieEv
 191              	_ZN5Riscv10popSppSpieEv:
 192              	.LFB34:
 149:src/kernel/Riscv.cpp **** 
 150:src/kernel/Riscv.cpp **** void Riscv::popSppSpie()
 151:src/kernel/Riscv.cpp **** {
 193              		.loc 1 151 1 is_stmt 1
 194              		.cfi_startproc
 195 00ec 130101FF 		addi	sp,sp,-16
 196              		.cfi_def_cfa_offset 16
 197 00f0 23348100 		sd	s0,8(sp)
 198              		.cfi_offset 8, -8
 199 00f4 13040101 		addi	s0,sp,16
 200              		.cfi_def_cfa 8, 0
 152:src/kernel/Riscv.cpp ****     if(PCB::running->systemThread) {
 201              		.loc 1 152 5
 202              	.LBB48:
 203              		.loc 1 152 22 is_stmt 0
 204 00f8 97070000 		la	a5,_ZN3PCB7runningE
 204      83B70700 
 205 0100 83B70700 		ld	a5,0(a5)
 206 0104 03C70700 		lbu	a4,0(a5)
 207              		.loc 1 152 5
 208 0108 630C0700 		beqz	a4,.L13
 153:src/kernel/Riscv.cpp ****         __asm__ volatile ("csrw sepc, ra");
 209              		.loc 1 153 9 is_stmt 1
 210              		.loc 1 153 43 is_stmt 0
 211              	#APP
 212              	# 153 "src/kernel/Riscv.cpp" 1
 154              	        __asm__ volatile ("sret");
 213              		csrw sepc, ra
 214              	# 0 "" 2
 215              		.loc 1 154 9 is_stmt 1
 216              		.loc 1 154 34 is_stmt 0
 217              	# 154 "src/kernel/Riscv.cpp" 1
 155              	    }
 218              		sret
 219              	# 0 "" 2
 220              	#NO_APP
 221              	.L12:
 222              	.LBE48:
 156:src/kernel/Riscv.cpp ****     else
 157:src/kernel/Riscv.cpp ****     {
 158:src/kernel/Riscv.cpp ****         size_t ra = (size_t)&PCBWrapperUser::wrapperUser;
 159:src/kernel/Riscv.cpp ****         __asm__ volatile("mv a0, %0"::"r"((size_t)PCB::running->body));
 160:src/kernel/Riscv.cpp ****         __asm__ volatile("mv a1, %0"::"r"((size_t)PCB::running->args));
 161:src/kernel/Riscv.cpp ****         __asm__ volatile("csrw sepc, %0"::"r"(ra));
 162:src/kernel/Riscv.cpp ****         __asm__ volatile ("sret");
 163:src/kernel/Riscv.cpp ****     }
 164:src/kernel/Riscv.cpp **** }
 223              		.loc 1 164 1
GAS LISTING /tmp/ccTG7hDV.s 			page 12


 224 0114 03348100 		ld	s0,8(sp)
 225              		.cfi_remember_state
 226              		.cfi_restore 8
 227              		.cfi_def_cfa 2, 16
 228 0118 13010101 		addi	sp,sp,16
 229              		.cfi_def_cfa_offset 0
 230 011c 67800000 		jr	ra
 231              	.L13:
 232              		.cfi_restore_state
 233              	.LBB50:
 234              	.LBB49:
 158:src/kernel/Riscv.cpp ****         __asm__ volatile("mv a0, %0"::"r"((size_t)PCB::running->body));
 235              		.loc 1 158 9 is_stmt 1
 236              	.LVL13:
 159:src/kernel/Riscv.cpp ****         __asm__ volatile("mv a1, %0"::"r"((size_t)PCB::running->args));
 237              		.loc 1 159 9
 159:src/kernel/Riscv.cpp ****         __asm__ volatile("mv a1, %0"::"r"((size_t)PCB::running->args));
 238              		.loc 1 159 65 is_stmt 0
 239 0120 03B78702 		ld	a4,40(a5)
 159:src/kernel/Riscv.cpp ****         __asm__ volatile("mv a1, %0"::"r"((size_t)PCB::running->args));
 240              		.loc 1 159 71
 241              	#APP
 242              	# 159 "src/kernel/Riscv.cpp" 1
 160:src/kernel/Riscv.cpp ****         __asm__ volatile("csrw sepc, %0"::"r"(ra));
 243              		mv a0, a4
 244              	# 0 "" 2
 245              		.loc 1 160 9 is_stmt 1
 160:src/kernel/Riscv.cpp ****         __asm__ volatile("csrw sepc, %0"::"r"(ra));
 246              		.loc 1 160 65 is_stmt 0
 247              	#NO_APP
 248 0128 83B70703 		ld	a5,48(a5)
 160:src/kernel/Riscv.cpp ****         __asm__ volatile("csrw sepc, %0"::"r"(ra));
 249              		.loc 1 160 71
 250              	#APP
 251              	# 160 "src/kernel/Riscv.cpp" 1
 161:src/kernel/Riscv.cpp ****         __asm__ volatile ("sret");
 252              		mv a1, a5
 253              	# 0 "" 2
 254              		.loc 1 161 9 is_stmt 1
 161:src/kernel/Riscv.cpp ****         __asm__ volatile ("sret");
 255              		.loc 1 161 51 is_stmt 0
 256              	#NO_APP
 257 0130 97070000 		la	a5,_ZN14PCBWrapperUser11wrapperUserEPFvPvES0_
 257      83B70700 
 258              	#APP
 259              	# 161 "src/kernel/Riscv.cpp" 1
 162:src/kernel/Riscv.cpp ****     }
 260              		csrw sepc, a5
 261              	# 0 "" 2
 262              		.loc 1 162 9 is_stmt 1
 162:src/kernel/Riscv.cpp ****     }
 263              		.loc 1 162 34 is_stmt 0
 264              	# 162 "src/kernel/Riscv.cpp" 1
 265              		sret
 266              	# 0 "" 2
 267              	#NO_APP
 268              	.LBE49:
GAS LISTING /tmp/ccTG7hDV.s 			page 13


 269              	.LBE50:
 270              		.loc 1 164 1
 271 0140 6FF05FFD 		j	.L12
 272              		.cfi_endproc
 273              	.LFE34:
 275              		.align	2
 276              		.globl	_ZN5Riscv14setVirtualAddrEmmm
 278              	_ZN5Riscv14setVirtualAddrEmmm:
 279              	.LFB35:
 165:src/kernel/Riscv.cpp **** 
 166:src/kernel/Riscv.cpp **** void Riscv::setVirtualAddr(size_t addr, size_t mask, size_t maskLeaf)
 167:src/kernel/Riscv.cpp **** {
 280              		.loc 1 167 1 is_stmt 1
 281              		.cfi_startproc
 282              	.LVL14:
 283 0144 130101FB 		addi	sp,sp,-80
 284              		.cfi_def_cfa_offset 80
 285 0148 23341104 		sd	ra,72(sp)
 286 014c 23308104 		sd	s0,64(sp)
 287 0150 233C9102 		sd	s1,56(sp)
 288 0154 23382103 		sd	s2,48(sp)
 289 0158 23343103 		sd	s3,40(sp)
 290 015c 23304103 		sd	s4,32(sp)
 291 0160 233C5101 		sd	s5,24(sp)
 292 0164 23386101 		sd	s6,16(sp)
 293 0168 23347101 		sd	s7,8(sp)
 294              		.cfi_offset 1, -8
 295              		.cfi_offset 8, -16
 296              		.cfi_offset 9, -24
 297              		.cfi_offset 18, -32
 298              		.cfi_offset 19, -40
 299              		.cfi_offset 20, -48
 300              		.cfi_offset 21, -56
 301              		.cfi_offset 22, -64
 302              		.cfi_offset 23, -72
 303 016c 13040105 		addi	s0,sp,80
 304              		.cfi_def_cfa 8, 0
 305 0170 93890500 		mv	s3,a1
 306 0174 130A0600 		mv	s4,a2
 168:src/kernel/Riscv.cpp ****     size_t l2 = addr >> 30;
 307              		.loc 1 168 5
 308              		.loc 1 168 12 is_stmt 0
 309 0178 935BE501 		srli	s7,a0,30
 310              	.LVL15:
 169:src/kernel/Riscv.cpp ****     size_t l1 = (addr >> 21) & (0x1ff);
 311              		.loc 1 169 5 is_stmt 1
 312              		.loc 1 169 23 is_stmt 0
 313 017c 135B5501 		srli	s6,a0,21
 314              		.loc 1 169 12
 315 0180 137BFB1F 		andi	s6,s6,511
 316              	.LVL16:
 170:src/kernel/Riscv.cpp ****     size_t l0 = (addr >> 12) & (0x1ff);
 317              		.loc 1 170 5 is_stmt 1
 318              		.loc 1 170 23 is_stmt 0
 319 0184 9354C500 		srli	s1,a0,12
 320              		.loc 1 170 12
 321 0188 13F9F41F 		andi	s2,s1,511
GAS LISTING /tmp/ccTG7hDV.s 			page 14


 322              	.LVL17:
 171:src/kernel/Riscv.cpp ****     size_t pmt2Desc = ((size_t*)mainPMT)[l2];
 323              		.loc 1 171 5 is_stmt 1
 324              		.loc 1 171 44 is_stmt 0
 325 018c 939B3B00 		slli	s7,s7,3
 326              	.LVL18:
 327 0190 97070000 		ld	a5,.LANCHOR0+8
 327      83B70700 
 328 0198 B3877701 		add	a5,a5,s7
 329              		.loc 1 171 12
 330 019c 03B50700 		ld	a0,0(a5)
 331              	.LVL19:
 172:src/kernel/Riscv.cpp ****     void* pmt1 = nullptr;
 332              		.loc 1 172 5 is_stmt 1
 173:src/kernel/Riscv.cpp ****     if(pmt2Desc == 0)
 333              		.loc 1 173 5
 334              	.LBB51:
 335 01a0 63060506 		beqz	a0,.L27
 174:src/kernel/Riscv.cpp ****     {
 175:src/kernel/Riscv.cpp ****         pmt1 = buddy_alloc((buddyAllocator*)riscvBuddy, 1);
 176:src/kernel/Riscv.cpp ****         for(int i = 0; i < NUM_OF_ENTRIES;i++)
 177:src/kernel/Riscv.cpp ****         {
 178:src/kernel/Riscv.cpp ****             ((size_t*)pmt1)[i] = 0;
 179:src/kernel/Riscv.cpp ****         }
 180:src/kernel/Riscv.cpp ****         size_t newDesc = (((size_t)pmt1 >> 12) << 10) | mask;
 181:src/kernel/Riscv.cpp ****         ((size_t*)mainPMT)[l2] = newDesc;
 182:src/kernel/Riscv.cpp ****     }
 183:src/kernel/Riscv.cpp ****     else
 184:src/kernel/Riscv.cpp ****     {
 185:src/kernel/Riscv.cpp ****         pmt1 = (void*)((pmt2Desc >> 10) << 12);
 336              		.loc 1 185 9
 337              		.loc 1 185 34 is_stmt 0
 338 01a4 1355A500 		srli	a0,a0,10
 339              	.LVL20:
 340              		.loc 1 185 41
 341 01a8 1315C500 		slli	a0,a0,12
 342              	.LVL21:
 343              	.L20:
 344              	.LBE51:
 186:src/kernel/Riscv.cpp ****     }
 187:src/kernel/Riscv.cpp ****     size_t pmt1Desc = ((size_t*)pmt1)[l1];
 345              		.loc 1 187 5 is_stmt 1
 346              		.loc 1 187 41 is_stmt 0
 347 01ac 931A3B00 		slli	s5,s6,3
 348 01b0 B30A5501 		add	s5,a0,s5
 349              		.loc 1 187 12
 350 01b4 03B50A00 		ld	a0,0(s5)
 351              	.LVL22:
 188:src/kernel/Riscv.cpp ****     void* pmt0 = nullptr;
 352              		.loc 1 188 5 is_stmt 1
 189:src/kernel/Riscv.cpp ****     if(pmt1Desc == 0)
 353              		.loc 1 189 5
 354              	.LBB54:
 355 01b8 6304050A 		beqz	a0,.L28
 190:src/kernel/Riscv.cpp ****     {
 191:src/kernel/Riscv.cpp ****         pmt0 = buddy_alloc((buddyAllocator*)riscvBuddy, 1);
 192:src/kernel/Riscv.cpp ****         for(int i = 0; i < NUM_OF_ENTRIES;i++)
GAS LISTING /tmp/ccTG7hDV.s 			page 15


 193:src/kernel/Riscv.cpp ****         {
 194:src/kernel/Riscv.cpp ****             ((size_t*)pmt0)[i] = 0;
 195:src/kernel/Riscv.cpp ****         }
 196:src/kernel/Riscv.cpp ****         size_t newDesc = (((size_t)pmt0 >> 12) << 10) | mask;
 197:src/kernel/Riscv.cpp ****         ((size_t*)pmt1)[l1] = newDesc;
 198:src/kernel/Riscv.cpp ****     }
 199:src/kernel/Riscv.cpp ****     else
 200:src/kernel/Riscv.cpp ****     {
 201:src/kernel/Riscv.cpp ****         pmt0 = (void*)((pmt1Desc >> 10) << 12);
 356              		.loc 1 201 9
 357              		.loc 1 201 34 is_stmt 0
 358 01bc 1355A500 		srli	a0,a0,10
 359              	.LVL23:
 360              		.loc 1 201 41
 361 01c0 1315C500 		slli	a0,a0,12
 362              	.LVL24:
 363              	.L24:
 364              	.LBE54:
 202:src/kernel/Riscv.cpp ****     }
 203:src/kernel/Riscv.cpp **** 
 204:src/kernel/Riscv.cpp ****     size_t pmt0Desc = ((size_t*)pmt0)[l0];
 365              		.loc 1 204 5 is_stmt 1
 366              		.loc 1 204 41 is_stmt 0
 367 01c4 13193900 		slli	s2,s2,3
 368              	.LVL25:
 369 01c8 33052501 		add	a0,a0,s2
 370              	.LVL26:
 371              		.loc 1 204 12
 372 01cc 83370500 		ld	a5,0(a0)
 373              	.LVL27:
 205:src/kernel/Riscv.cpp ****     if(pmt0Desc == 0)
 374              		.loc 1 205 5 is_stmt 1
 375 01d0 63980700 		bnez	a5,.L16
 206:src/kernel/Riscv.cpp ****     {
 207:src/kernel/Riscv.cpp ****         ((size_t*)pmt0)[l0] = ((addr >> 12) << 10) | maskLeaf;
 376              		.loc 1 207 9
 377              		.loc 1 207 45 is_stmt 0
 378 01d4 9394A400 		slli	s1,s1,10
 379              	.LVL28:
 380              		.loc 1 207 52
 381 01d8 33EA4401 		or	s4,s1,s4
 382              	.LVL29:
 383              		.loc 1 207 29
 384 01dc 23304501 		sd	s4,0(a0)
 385              	.L16:
 208:src/kernel/Riscv.cpp ****     }
 209:src/kernel/Riscv.cpp **** }
 386              		.loc 1 209 1
 387 01e0 83308104 		ld	ra,72(sp)
 388              		.cfi_remember_state
 389              		.cfi_restore 1
 390 01e4 03340104 		ld	s0,64(sp)
 391              		.cfi_restore 8
 392              		.cfi_def_cfa 2, 80
 393 01e8 83348103 		ld	s1,56(sp)
 394              		.cfi_restore 9
 395 01ec 03390103 		ld	s2,48(sp)
GAS LISTING /tmp/ccTG7hDV.s 			page 16


 396              		.cfi_restore 18
 397 01f0 83398102 		ld	s3,40(sp)
 398              		.cfi_restore 19
 399 01f4 033A0102 		ld	s4,32(sp)
 400              		.cfi_restore 20
 401 01f8 833A8101 		ld	s5,24(sp)
 402              		.cfi_restore 21
 403 01fc 033B0101 		ld	s6,16(sp)
 404              		.cfi_restore 22
 405              	.LVL30:
 406 0200 833B8100 		ld	s7,8(sp)
 407              		.cfi_restore 23
 408 0204 13010105 		addi	sp,sp,80
 409              		.cfi_def_cfa_offset 0
 410 0208 67800000 		jr	ra
 411              	.LVL31:
 412              	.L27:
 413              		.cfi_restore_state
 414              	.LBB57:
 415              	.LBB52:
 175:src/kernel/Riscv.cpp ****         for(int i = 0; i < NUM_OF_ENTRIES;i++)
 416              		.loc 1 175 9 is_stmt 1
 175:src/kernel/Riscv.cpp ****         for(int i = 0; i < NUM_OF_ENTRIES;i++)
 417              		.loc 1 175 27 is_stmt 0
 418 020c 93051000 		li	a1,1
 419              	.LVL32:
 420 0210 17050000 		ld	a0,.LANCHOR0+16
 420      03350500 
 421              	.LVL33:
 422 0218 97000000 		call	_Z11buddy_allocP14buddyAllocatorm@plt
 422      E7800000 
 423              	.LVL34:
 176:src/kernel/Riscv.cpp ****         {
 424              		.loc 1 176 9 is_stmt 1
 425              	.LBB53:
 176:src/kernel/Riscv.cpp ****         {
 426              		.loc 1 176 17 is_stmt 0
 427 0220 93070000 		li	a5,0
 428              	.LVL35:
 429              	.L19:
 176:src/kernel/Riscv.cpp ****         {
 430              		.loc 1 176 26 is_stmt 1 discriminator 3
 431 0224 1307F01F 		li	a4,511
 432 0228 634CF700 		bgt	a5,a4,.L18
 178:src/kernel/Riscv.cpp ****         }
 433              		.loc 1 178 13 discriminator 2
 178:src/kernel/Riscv.cpp ****         }
 434              		.loc 1 178 30 is_stmt 0 discriminator 2
 435 022c 13973700 		slli	a4,a5,3
 436 0230 3307E500 		add	a4,a0,a4
 178:src/kernel/Riscv.cpp ****         }
 437              		.loc 1 178 32 discriminator 2
 438 0234 23300700 		sd	zero,0(a4)
 176:src/kernel/Riscv.cpp ****         {
 439              		.loc 1 176 9 is_stmt 1 discriminator 2
 440 0238 9B871700 		addiw	a5,a5,1
 441              	.LVL36:
GAS LISTING /tmp/ccTG7hDV.s 			page 17


 442 023c 6FF09FFE 		j	.L19
 443              	.LVL37:
 444              	.L18:
 445              	.LBE53:
 180:src/kernel/Riscv.cpp ****         ((size_t*)mainPMT)[l2] = newDesc;
 446              		.loc 1 180 9
 180:src/kernel/Riscv.cpp ****         ((size_t*)mainPMT)[l2] = newDesc;
 447              		.loc 1 180 41 is_stmt 0
 448 0240 9357C500 		srli	a5,a0,12
 449              	.LVL38:
 180:src/kernel/Riscv.cpp ****         ((size_t*)mainPMT)[l2] = newDesc;
 450              		.loc 1 180 48
 451 0244 9397A700 		slli	a5,a5,10
 180:src/kernel/Riscv.cpp ****         ((size_t*)mainPMT)[l2] = newDesc;
 452              		.loc 1 180 16
 453 0248 B3E73701 		or	a5,a5,s3
 454              	.LVL39:
 181:src/kernel/Riscv.cpp ****     }
 455              		.loc 1 181 9 is_stmt 1
 181:src/kernel/Riscv.cpp ****     }
 456              		.loc 1 181 10 is_stmt 0
 457 024c 17070000 		ld	a4,.LANCHOR0+8
 457      03370700 
 181:src/kernel/Riscv.cpp ****     }
 458              		.loc 1 181 30
 459 0254 B30B7701 		add	s7,a4,s7
 181:src/kernel/Riscv.cpp ****     }
 460              		.loc 1 181 32
 461 0258 23B0FB00 		sd	a5,0(s7)
 462              	.LBE52:
 463 025c 6FF01FF5 		j	.L20
 464              	.LVL40:
 465              	.L28:
 466              	.LBE57:
 467              	.LBB58:
 468              	.LBB55:
 191:src/kernel/Riscv.cpp ****         for(int i = 0; i < NUM_OF_ENTRIES;i++)
 469              		.loc 1 191 9 is_stmt 1
 191:src/kernel/Riscv.cpp ****         for(int i = 0; i < NUM_OF_ENTRIES;i++)
 470              		.loc 1 191 27 is_stmt 0
 471 0260 93051000 		li	a1,1
 472 0264 17050000 		ld	a0,.LANCHOR0+16
 472      03350500 
 473              	.LVL41:
 474 026c 97000000 		call	_Z11buddy_allocP14buddyAllocatorm@plt
 474      E7800000 
 475              	.LVL42:
 192:src/kernel/Riscv.cpp ****         {
 476              		.loc 1 192 9 is_stmt 1
 477              	.LBB56:
 192:src/kernel/Riscv.cpp ****         {
 478              		.loc 1 192 17 is_stmt 0
 479 0274 93070000 		li	a5,0
 480              	.LVL43:
 481              	.L23:
 192:src/kernel/Riscv.cpp ****         {
 482              		.loc 1 192 26 is_stmt 1 discriminator 3
GAS LISTING /tmp/ccTG7hDV.s 			page 18


 483 0278 1307F01F 		li	a4,511
 484 027c 634CF700 		bgt	a5,a4,.L22
 194:src/kernel/Riscv.cpp ****         }
 485              		.loc 1 194 13 discriminator 2
 194:src/kernel/Riscv.cpp ****         }
 486              		.loc 1 194 30 is_stmt 0 discriminator 2
 487 0280 13973700 		slli	a4,a5,3
 488 0284 3307E500 		add	a4,a0,a4
 194:src/kernel/Riscv.cpp ****         }
 489              		.loc 1 194 32 discriminator 2
 490 0288 23300700 		sd	zero,0(a4)
 192:src/kernel/Riscv.cpp ****         {
 491              		.loc 1 192 9 is_stmt 1 discriminator 2
 492 028c 9B871700 		addiw	a5,a5,1
 493              	.LVL44:
 494 0290 6FF09FFE 		j	.L23
 495              	.LVL45:
 496              	.L22:
 497              	.LBE56:
 196:src/kernel/Riscv.cpp ****         ((size_t*)pmt1)[l1] = newDesc;
 498              		.loc 1 196 9
 196:src/kernel/Riscv.cpp ****         ((size_t*)pmt1)[l1] = newDesc;
 499              		.loc 1 196 41 is_stmt 0
 500 0294 9357C500 		srli	a5,a0,12
 501              	.LVL46:
 196:src/kernel/Riscv.cpp ****         ((size_t*)pmt1)[l1] = newDesc;
 502              		.loc 1 196 48
 503 0298 9397A700 		slli	a5,a5,10
 196:src/kernel/Riscv.cpp ****         ((size_t*)pmt1)[l1] = newDesc;
 504              		.loc 1 196 16
 505 029c B3E93701 		or	s3,a5,s3
 506              	.LVL47:
 197:src/kernel/Riscv.cpp ****     }
 507              		.loc 1 197 9 is_stmt 1
 197:src/kernel/Riscv.cpp ****     }
 508              		.loc 1 197 29 is_stmt 0
 509 02a0 23B03A01 		sd	s3,0(s5)
 510              	.LBE55:
 511 02a4 6FF01FF2 		j	.L24
 512              	.LBE58:
 513              		.cfi_endproc
 514              	.LFE35:
 516              		.align	2
 517              		.globl	_ZN5Riscv19setVirtualAddrRangeEmmi
 519              	_ZN5Riscv19setVirtualAddrRangeEmmi:
 520              	.LFB28:
  47:src/kernel/Riscv.cpp ****     for(size_t i = startAddr; i < endAddr; i+=BLOCK_NUM_OF_BYTES)
 521              		.loc 1 47 1 is_stmt 1
 522              		.cfi_startproc
 523              	.LVL48:
 524 02a8 130101FD 		addi	sp,sp,-48
 525              		.cfi_def_cfa_offset 48
 526 02ac 23341102 		sd	ra,40(sp)
 527 02b0 23308102 		sd	s0,32(sp)
 528 02b4 233C9100 		sd	s1,24(sp)
 529 02b8 23382101 		sd	s2,16(sp)
 530 02bc 23343101 		sd	s3,8(sp)
GAS LISTING /tmp/ccTG7hDV.s 			page 19


 531              		.cfi_offset 1, -8
 532              		.cfi_offset 8, -16
 533              		.cfi_offset 9, -24
 534              		.cfi_offset 18, -32
 535              		.cfi_offset 19, -40
 536 02c0 13040103 		addi	s0,sp,48
 537              		.cfi_def_cfa 8, 0
 538 02c4 93040500 		mv	s1,a0
 539 02c8 13890500 		mv	s2,a1
 540 02cc 93090600 		mv	s3,a2
  48:src/kernel/Riscv.cpp ****     {
 541              		.loc 1 48 5
 542              	.LVL49:
 543              	.L31:
 544              	.LBB59:
  48:src/kernel/Riscv.cpp ****     {
 545              		.loc 1 48 33 discriminator 3
 546 02d0 63F22403 		bgeu	s1,s2,.L29
  50:src/kernel/Riscv.cpp ****     }
 547              		.loc 1 50 9 discriminator 2
  50:src/kernel/Riscv.cpp ****     }
 548              		.loc 1 50 23 is_stmt 0 discriminator 2
 549 02d4 13860900 		mv	a2,s3
 550 02d8 93051000 		li	a1,1
 551 02dc 13850400 		mv	a0,s1
 552 02e0 97000000 		call	_ZN5Riscv14setVirtualAddrEmmm
 552      E7800000 
 553              	.LVL50:
  48:src/kernel/Riscv.cpp ****     {
 554              		.loc 1 48 5 is_stmt 1 discriminator 2
  48:src/kernel/Riscv.cpp ****     {
 555              		.loc 1 48 45 is_stmt 0 discriminator 2
 556 02e8 B7170000 		li	a5,4096
 557 02ec B384F400 		add	s1,s1,a5
 558              	.LVL51:
  48:src/kernel/Riscv.cpp ****     {
 559              		.loc 1 48 5 discriminator 2
 560 02f0 6FF01FFE 		j	.L31
 561              	.L29:
 562              	.LBE59:
  53:src/kernel/Riscv.cpp **** void Riscv::initSystem()
 563              		.loc 1 53 1
 564 02f4 83308102 		ld	ra,40(sp)
 565              		.cfi_restore 1
 566 02f8 03340102 		ld	s0,32(sp)
 567              		.cfi_restore 8
 568              		.cfi_def_cfa 2, 48
 569 02fc 83348101 		ld	s1,24(sp)
 570              		.cfi_restore 9
 571              	.LVL52:
 572 0300 03390101 		ld	s2,16(sp)
 573              		.cfi_restore 18
 574              	.LVL53:
 575 0304 83398100 		ld	s3,8(sp)
 576              		.cfi_restore 19
 577 0308 13010103 		addi	sp,sp,48
 578              		.cfi_def_cfa_offset 0
GAS LISTING /tmp/ccTG7hDV.s 			page 20


 579 030c 67800000 		jr	ra
 580              		.cfi_endproc
 581              	.LFE28:
 583              		.section	.rodata.str1.8,"aMS",@progbits,1
 584              		.align	3
 585              	.LC0:
 586 0000 43616368 		.string	"Cache of PCBs"
 586      65206F66 
 586      20504342 
 586      7300
 587 000e 0000     		.align	3
 588              	.LC1:
 589 0010 43616368 		.string	"Cache of KSemaphore"
 589      65206F66 
 589      204B5365 
 589      6D617068 
 589      6F726500 
 590 0024 00000000 		.align	3
 591              	.LC2:
 592 0028 6D61696E 		.string	"main PMT "
 592      20504D54 
 592      2000
 593              		.text
 594              		.align	2
 595              		.globl	_ZN5Riscv10initSystemEv
 597              	_ZN5Riscv10initSystemEv:
 598              	.LFB29:
  55:src/kernel/Riscv.cpp ****     w_stvec((uint64)&Riscv::supervisorTrap);
 599              		.loc 1 55 1 is_stmt 1
 600              		.cfi_startproc
 601 0310 130101FC 		addi	sp,sp,-64
 602              		.cfi_def_cfa_offset 64
 603 0314 233C1102 		sd	ra,56(sp)
 604 0318 23388102 		sd	s0,48(sp)
 605 031c 23349102 		sd	s1,40(sp)
 606 0320 23302103 		sd	s2,32(sp)
 607 0324 233C3101 		sd	s3,24(sp)
 608 0328 23384101 		sd	s4,16(sp)
 609 032c 23345101 		sd	s5,8(sp)
 610 0330 23306101 		sd	s6,0(sp)
 611              		.cfi_offset 1, -8
 612              		.cfi_offset 8, -16
 613              		.cfi_offset 9, -24
 614              		.cfi_offset 18, -32
 615              		.cfi_offset 19, -40
 616              		.cfi_offset 20, -48
 617              		.cfi_offset 21, -56
 618              		.cfi_offset 22, -64
 619 0334 13040104 		addi	s0,sp,64
 620              		.cfi_def_cfa 8, 0
  56:src/kernel/Riscv.cpp **** 
 621              		.loc 1 56 5
  56:src/kernel/Riscv.cpp **** 
 622              		.loc 1 56 12 is_stmt 0
 623 0338 97070000 		la	a5,_ZN5Riscv14supervisorTrapEv
 623      83B70700 
 624              	.LVL54:
GAS LISTING /tmp/ccTG7hDV.s 			page 21


 625              	.LBB60:
 626              	.LBB61:
 157:src/kernel/../../h/Riscv.hpp **** }
 627              		.loc 2 157 5 is_stmt 1
 157:src/kernel/../../h/Riscv.hpp **** }
 628              		.loc 2 157 53 is_stmt 0
 629              	#APP
 630              	# 157 "src/kernel/../../h/Riscv.hpp" 1
 631              		csrw stvec, a5
 632              	# 0 "" 2
 633              	.LVL55:
 634              	#NO_APP
 635              	.LBE61:
 636              	.LBE60:
  58:src/kernel/Riscv.cpp ****     size_t heapStartBlock = getBlockAddr((size_t)HEAP_START_ADDR);
 637              		.loc 1 58 5 is_stmt 1
  58:src/kernel/Riscv.cpp ****     size_t heapStartBlock = getBlockAddr((size_t)HEAP_START_ADDR);
 638              		.loc 1 58 37 is_stmt 0
 639 0344 97090000 		la	s3,HEAP_START_ADDR
 639      83B90900 
 640 034c 03B50900 		ld	a0,0(s3)
 641 0350 97000000 		call	_Z12getBlockAddrm@plt
 641      E7800000 
 642              	.LVL56:
  58:src/kernel/Riscv.cpp ****     size_t heapStartBlock = getBlockAddr((size_t)HEAP_START_ADDR);
 643              		.loc 1 58 16
 644 0358 17090000 		lla	s2,.LANCHOR0
 644      13090900 
 645 0360 2338A900 		sd	a0,16(s2)
  59:src/kernel/Riscv.cpp **** 
 646              		.loc 1 59 5 is_stmt 1
  59:src/kernel/Riscv.cpp **** 
 647              		.loc 1 59 41 is_stmt 0
 648 0364 03B50900 		ld	a0,0(s3)
 649 0368 97000000 		call	_Z12getBlockAddrm@plt
 649      E7800000 
 650              	.LVL57:
  61:src/kernel/Riscv.cpp **** 
 651              		.loc 1 61 5 is_stmt 1
  63:src/kernel/Riscv.cpp ****     MemoryAllocator::initMemory(newStartAddr);
 652              		.loc 1 63 5
  63:src/kernel/Riscv.cpp ****     MemoryAllocator::initMemory(newStartAddr);
 653              		.loc 1 63 49 is_stmt 0
 654 0370 B7170001 		li	a5,16781312
 655 0374 B304F500 		add	s1,a0,a5
 656              	.LVL58:
  64:src/kernel/Riscv.cpp **** 
 657              		.loc 1 64 5 is_stmt 1
  64:src/kernel/Riscv.cpp **** 
 658              		.loc 1 64 32 is_stmt 0
 659 0378 13850400 		mv	a0,s1
 660              	.LVL59:
 661 037c 97000000 		call	_ZN15MemoryAllocator10initMemoryEPv@plt
 661      E7800000 
 662              	.LVL60:
  66:src/kernel/Riscv.cpp ****     pcbCache = kmem_cache_create("Cache of PCBs", sizeof(PCB), nullptr, nullptr);
 663              		.loc 1 66 5 is_stmt 1
GAS LISTING /tmp/ccTG7hDV.s 			page 22


  66:src/kernel/Riscv.cpp ****     pcbCache = kmem_cache_create("Cache of PCBs", sizeof(PCB), nullptr, nullptr);
 664              		.loc 1 66 14 is_stmt 0
 665 0384 B7150000 		li	a1,4096
 666 0388 93851500 		addi	a1,a1,1
 667 038c 03B50900 		ld	a0,0(s3)
 668 0390 97000000 		call	_Z9kmem_initPvi@plt
 668      E7800000 
 669              	.LVL61:
  67:src/kernel/Riscv.cpp ****     semaphoreCache = kmem_cache_create("Cache of KSemaphore", sizeof(KSemaphore), nullptr, nullptr)
 670              		.loc 1 67 5 is_stmt 1
  67:src/kernel/Riscv.cpp ****     semaphoreCache = kmem_cache_create("Cache of KSemaphore", sizeof(KSemaphore), nullptr, nullptr)
 671              		.loc 1 67 33 is_stmt 0
 672 0398 93060000 		li	a3,0
 673 039c 13060000 		li	a2,0
 674 03a0 93050006 		li	a1,96
 675 03a4 17050000 		lla	a0,.LC0
 675      13050500 
 676 03ac 97000000 		call	_Z17kmem_cache_createPKcmPFvPvES3_@plt
 676      E7800000 
 677              	.LVL62:
  67:src/kernel/Riscv.cpp ****     semaphoreCache = kmem_cache_create("Cache of KSemaphore", sizeof(KSemaphore), nullptr, nullptr)
 678              		.loc 1 67 14
 679 03b4 233CA900 		sd	a0,24(s2)
  68:src/kernel/Riscv.cpp **** 
 680              		.loc 1 68 5 is_stmt 1
  68:src/kernel/Riscv.cpp **** 
 681              		.loc 1 68 39 is_stmt 0
 682 03b8 93060000 		li	a3,0
 683 03bc 13060000 		li	a2,0
 684 03c0 93058001 		li	a1,24
 685 03c4 17050000 		lla	a0,.LC1
 685      13050500 
 686 03cc 97000000 		call	_Z17kmem_cache_createPKcmPFvPvES3_@plt
 686      E7800000 
 687              	.LVL63:
  68:src/kernel/Riscv.cpp **** 
 688              		.loc 1 68 20
 689 03d4 2330A902 		sd	a0,32(s2)
  70:src/kernel/Riscv.cpp ****     KConsole::initialize();
 690              		.loc 1 70 5 is_stmt 1
  70:src/kernel/Riscv.cpp ****     KConsole::initialize();
 691              		.loc 1 70 20 is_stmt 0
 692 03d8 97000000 		call	_ZN3PCB10initializeEv@plt
 692      E7800000 
 693              	.LVL64:
  71:src/kernel/Riscv.cpp **** 
 694              		.loc 1 71 5 is_stmt 1
  71:src/kernel/Riscv.cpp **** 
 695              		.loc 1 71 25 is_stmt 0
 696 03e0 97000000 		call	_ZN8KConsole10initializeEv@plt
 696      E7800000 
 697              	.LVL65:
  73:src/kernel/Riscv.cpp ****     for(size_t i = 0; i < NUM_OF_ENTRIES;i++)
 698              		.loc 1 73 5 is_stmt 1
  73:src/kernel/Riscv.cpp ****     for(size_t i = 0; i < NUM_OF_ENTRIES;i++)
 699              		.loc 1 73 26 is_stmt 0
 700 03e8 93051000 		li	a1,1
GAS LISTING /tmp/ccTG7hDV.s 			page 23


 701 03ec 03350901 		ld	a0,16(s2)
 702 03f0 97000000 		call	_Z11buddy_allocP14buddyAllocatorm@plt
 702      E7800000 
 703              	.LVL66:
  73:src/kernel/Riscv.cpp ****     for(size_t i = 0; i < NUM_OF_ENTRIES;i++)
 704              		.loc 1 73 13
 705 03f8 2334A900 		sd	a0,8(s2)
  74:src/kernel/Riscv.cpp ****         ((size_t*)mainPMT)[i] = 0;
 706              		.loc 1 74 5 is_stmt 1
 707              	.LVL67:
 708              	.LBB62:
  74:src/kernel/Riscv.cpp ****         ((size_t*)mainPMT)[i] = 0;
 709              		.loc 1 74 16 is_stmt 0
 710 03fc 93070000 		li	a5,0
 711              	.LVL68:
 712              	.L35:
  74:src/kernel/Riscv.cpp ****         ((size_t*)mainPMT)[i] = 0;
 713              		.loc 1 74 25 is_stmt 1 discriminator 3
 714 0400 1307F01F 		li	a4,511
 715 0404 6360F702 		bgtu	a5,a4,.L34
  75:src/kernel/Riscv.cpp **** 
 716              		.loc 1 75 9 discriminator 2
  75:src/kernel/Riscv.cpp **** 
 717              		.loc 1 75 29 is_stmt 0 discriminator 2
 718 0408 93963700 		slli	a3,a5,3
 719 040c 17070000 		ld	a4,.LANCHOR0+8
 719      03370700 
 720 0414 3307D700 		add	a4,a4,a3
  75:src/kernel/Riscv.cpp **** 
 721              		.loc 1 75 31 discriminator 2
 722 0418 23300700 		sd	zero,0(a4)
  74:src/kernel/Riscv.cpp ****         ((size_t*)mainPMT)[i] = 0;
 723              		.loc 1 74 5 is_stmt 1 discriminator 2
 724 041c 93871700 		addi	a5,a5,1
 725              	.LVL69:
 726 0420 6FF01FFE 		j	.L35
 727              	.L34:
 728              	.LBE62:
  77:src/kernel/Riscv.cpp **** 
 729              		.loc 1 77 5
  77:src/kernel/Riscv.cpp **** 
 730              		.loc 1 77 33 is_stmt 0
 731 0424 17090000 		lla	s2,.LANCHOR0
 731      13090900 
 732 042c 13060001 		li	a2,16
 733 0430 83358900 		ld	a1,8(s2)
 734 0434 17050000 		lla	a0,.LC2
 734      13050500 
 735 043c 97000000 		call	_ZN8KConsole18trapPrintStringIntEPKcmi@plt
 735      E7800000 
 736              	.LVL70:
  79:src/kernel/Riscv.cpp ****     uint64 kDataStart = (uint64)(&kernelDataStart);
 737              		.loc 1 79 5 is_stmt 1
  79:src/kernel/Riscv.cpp ****     uint64 kDataStart = (uint64)(&kernelDataStart);
 738              		.loc 1 79 12 is_stmt 0
 739 0444 170B0000 		la	s6,kernelTextStart
 739      033B0B00 
GAS LISTING /tmp/ccTG7hDV.s 			page 24


 740              	.LVL71:
  80:src/kernel/Riscv.cpp ****     uint64 uTextStart = (uint64)(&userTextStart);
 741              		.loc 1 80 5 is_stmt 1
  80:src/kernel/Riscv.cpp ****     uint64 uTextStart = (uint64)(&userTextStart);
 742              		.loc 1 80 12 is_stmt 0
 743 044c 970A0000 		la	s5,kernelDataStart
 743      83BA0A00 
 744              	.LVL72:
  81:src/kernel/Riscv.cpp ****     uint64 uDataStart = (uint64)(&userDataStart);
 745              		.loc 1 81 5 is_stmt 1
  81:src/kernel/Riscv.cpp ****     uint64 uDataStart = (uint64)(&userDataStart);
 746              		.loc 1 81 12 is_stmt 0
 747 0454 97090000 		la	s3,userTextStart
 747      83B90900 
 748              	.LVL73:
  82:src/kernel/Riscv.cpp **** 
 749              		.loc 1 82 5 is_stmt 1
  82:src/kernel/Riscv.cpp **** 
 750              		.loc 1 82 12 is_stmt 0
 751 045c 170A0000 		la	s4,userDataStart
 751      033A0A00 
 752              	.LVL74:
  84:src/kernel/Riscv.cpp ****     setVirtualAddrRange(kTextStart, kDataStart,KERNEL_RX); // kernel instructions
 753              		.loc 1 84 5 is_stmt 1
  84:src/kernel/Riscv.cpp ****     setVirtualAddrRange(kTextStart, kDataStart,KERNEL_RX); // kernel instructions
 754              		.loc 1 84 24 is_stmt 0
 755 0464 1306B000 		li	a2,11
 756 0468 93050B00 		mv	a1,s6
 757 046c 17050000 		ld	a0,.LANCHOR1
 757      03350500 
 758 0474 97000000 		call	_ZN5Riscv19setVirtualAddrRangeEmmi
 758      E7800000 
 759              	.LVL75:
  85:src/kernel/Riscv.cpp ****     setVirtualAddrRange((size_t)(&kernelDataStart), uTextStart, KERNEL_RW); // kernel data
 760              		.loc 1 85 5 is_stmt 1
  85:src/kernel/Riscv.cpp ****     setVirtualAddrRange((size_t)(&kernelDataStart), uTextStart, KERNEL_RW); // kernel data
 761              		.loc 1 85 24 is_stmt 0
 762 047c 1306B000 		li	a2,11
 763 0480 93850A00 		mv	a1,s5
 764 0484 13050B00 		mv	a0,s6
 765 0488 97000000 		call	_ZN5Riscv19setVirtualAddrRangeEmmi
 765      E7800000 
 766              	.LVL76:
  86:src/kernel/Riscv.cpp ****     setVirtualAddrRange((size_t)(&userTextStart), uDataStart, USER_RX); //user instructions
 767              		.loc 1 86 5 is_stmt 1
  86:src/kernel/Riscv.cpp ****     setVirtualAddrRange((size_t)(&userTextStart), uDataStart, USER_RX); //user instructions
 768              		.loc 1 86 24 is_stmt 0
 769 0490 13067000 		li	a2,7
 770 0494 93850900 		mv	a1,s3
 771 0498 13850A00 		mv	a0,s5
 772 049c 97000000 		call	_ZN5Riscv19setVirtualAddrRangeEmmi
 772      E7800000 
 773              	.LVL77:
  87:src/kernel/Riscv.cpp ****     setVirtualAddrRange((size_t)(&userDataStart), (size_t)HEAP_START_ADDR, USER_RW); // user data
 774              		.loc 1 87 5 is_stmt 1
  87:src/kernel/Riscv.cpp ****     setVirtualAddrRange((size_t)(&userDataStart), (size_t)HEAP_START_ADDR, USER_RW); // user data
 775              		.loc 1 87 24 is_stmt 0
GAS LISTING /tmp/ccTG7hDV.s 			page 25


 776 04a4 1306B001 		li	a2,27
 777 04a8 93050A00 		mv	a1,s4
 778 04ac 13850900 		mv	a0,s3
 779 04b0 97000000 		call	_ZN5Riscv19setVirtualAddrRangeEmmi
 779      E7800000 
 780              	.LVL78:
  88:src/kernel/Riscv.cpp ****     setVirtualAddrRange((size_t)HEAP_START_ADDR, (size_t)newStartAddr, KERNEL_RW); // kernel heap d
 781              		.loc 1 88 5 is_stmt 1
  88:src/kernel/Riscv.cpp ****     setVirtualAddrRange((size_t)HEAP_START_ADDR, (size_t)newStartAddr, KERNEL_RW); // kernel heap d
 782              		.loc 1 88 24 is_stmt 0
 783 04b8 97090000 		la	s3,HEAP_START_ADDR
 783      83B90900 
 784 04c0 13067001 		li	a2,23
 785 04c4 83B50900 		ld	a1,0(s3)
 786 04c8 13050A00 		mv	a0,s4
 787 04cc 97000000 		call	_ZN5Riscv19setVirtualAddrRangeEmmi
 787      E7800000 
 788              	.LVL79:
  89:src/kernel/Riscv.cpp ****     setVirtualAddrRange((size_t)newStartAddr, (size_t)HEAP_END_ADDR + 1,USER_RW); // user heap data
 789              		.loc 1 89 5 is_stmt 1
  89:src/kernel/Riscv.cpp ****     setVirtualAddrRange((size_t)newStartAddr, (size_t)HEAP_END_ADDR + 1,USER_RW); // user heap data
 790              		.loc 1 89 24 is_stmt 0
 791 04d4 13067000 		li	a2,7
 792 04d8 93850400 		mv	a1,s1
 793 04dc 03B50900 		ld	a0,0(s3)
 794 04e0 97000000 		call	_ZN5Riscv19setVirtualAddrRangeEmmi
 794      E7800000 
 795              	.LVL80:
  90:src/kernel/Riscv.cpp **** 
 796              		.loc 1 90 5 is_stmt 1
  90:src/kernel/Riscv.cpp **** 
 797              		.loc 1 90 24 is_stmt 0
 798 04e8 97070000 		la	a5,HEAP_END_ADDR
 798      83B70700 
 799 04f0 83B50700 		ld	a1,0(a5)
 800 04f4 13067001 		li	a2,23
 801 04f8 93851500 		addi	a1,a1,1
 802 04fc 13850400 		mv	a0,s1
 803 0500 97000000 		call	_ZN5Riscv19setVirtualAddrRangeEmmi
 803      E7800000 
 804              	.LVL81:
  92:src/kernel/Riscv.cpp ****     setVirtualAddr((size_t)CONSOLE_TX_DATA,0x1,0xf);
 805              		.loc 1 92 5 is_stmt 1
  92:src/kernel/Riscv.cpp ****     setVirtualAddr((size_t)CONSOLE_TX_DATA,0x1,0xf);
 806              		.loc 1 92 19 is_stmt 0
 807 0508 1306F000 		li	a2,15
 808 050c 93051000 		li	a1,1
 809 0510 97070000 		la	a5,CONSOLE_RX_DATA
 809      83B70700 
 810 0518 03B50700 		ld	a0,0(a5)
 811 051c 97000000 		call	_ZN5Riscv14setVirtualAddrEmmm
 811      E7800000 
 812              	.LVL82:
  93:src/kernel/Riscv.cpp ****     setVirtualAddr((size_t)CONSOLE_STATUS,0x1,0xf);
 813              		.loc 1 93 5 is_stmt 1
  93:src/kernel/Riscv.cpp ****     setVirtualAddr((size_t)CONSOLE_STATUS,0x1,0xf);
 814              		.loc 1 93 19 is_stmt 0
GAS LISTING /tmp/ccTG7hDV.s 			page 26


 815 0524 1306F000 		li	a2,15
 816 0528 93051000 		li	a1,1
 817 052c 97070000 		la	a5,CONSOLE_TX_DATA
 817      83B70700 
 818 0534 03B50700 		ld	a0,0(a5)
 819 0538 97000000 		call	_ZN5Riscv14setVirtualAddrEmmm
 819      E7800000 
 820              	.LVL83:
  94:src/kernel/Riscv.cpp ****     setVirtualAddr(0xc201004,0x1,0xf);
 821              		.loc 1 94 5 is_stmt 1
  94:src/kernel/Riscv.cpp ****     setVirtualAddr(0xc201004,0x1,0xf);
 822              		.loc 1 94 19 is_stmt 0
 823 0540 1306F000 		li	a2,15
 824 0544 93051000 		li	a1,1
 825 0548 97070000 		la	a5,CONSOLE_STATUS
 825      83B70700 
 826 0550 03B50700 		ld	a0,0(a5)
 827 0554 97000000 		call	_ZN5Riscv14setVirtualAddrEmmm
 827      E7800000 
 828              	.LVL84:
  95:src/kernel/Riscv.cpp **** 
 829              		.loc 1 95 5 is_stmt 1
  95:src/kernel/Riscv.cpp **** 
 830              		.loc 1 95 19 is_stmt 0
 831 055c 1306F000 		li	a2,15
 832 0560 93051000 		li	a1,1
 833 0564 3715200C 		li	a0,203427840
 834 0568 13054500 		addi	a0,a0,4
 835 056c 97000000 		call	_ZN5Riscv14setVirtualAddrEmmm
 835      E7800000 
 836              	.LVL85:
  97:src/kernel/Riscv.cpp ****     size_t satp = ((size_t)1 << 63) | ((size_t)mainPMT >> 12);
 837              		.loc 1 97 5 is_stmt 1
 838              	.LBB63:
 839              	.LBB64:
 206:src/kernel/../../h/Riscv.hpp **** }
 840              		.loc 2 206 5
 206:src/kernel/../../h/Riscv.hpp **** }
 841              		.loc 2 206 54 is_stmt 0
 842 0574 B7070400 		li	a5,262144
 843              	#APP
 844              	# 206 "src/kernel/../../h/Riscv.hpp" 1
 845              		csrs sstatus, a5
 846              	# 0 "" 2
 847              	.LVL86:
 848              	#NO_APP
 849              	.LBE64:
 850              	.LBE63:
  98:src/kernel/Riscv.cpp ****     __asm__ volatile("csrw satp, %0" : :"r"(satp));
 851              		.loc 1 98 5 is_stmt 1
  98:src/kernel/Riscv.cpp ****     __asm__ volatile("csrw satp, %0" : :"r"(satp));
 852              		.loc 1 98 56 is_stmt 0
 853 057c 83378900 		ld	a5,8(s2)
 854 0580 93D7C700 		srli	a5,a5,12
  98:src/kernel/Riscv.cpp ****     __asm__ volatile("csrw satp, %0" : :"r"(satp));
 855              		.loc 1 98 12
 856 0584 1307F0FF 		li	a4,-1
GAS LISTING /tmp/ccTG7hDV.s 			page 27


 857 0588 1317F703 		slli	a4,a4,63
 858 058c B3E7E700 		or	a5,a5,a4
 859              	.LVL87:
  99:src/kernel/Riscv.cpp **** }
 860              		.loc 1 99 5 is_stmt 1
  99:src/kernel/Riscv.cpp **** }
 861              		.loc 1 99 51 is_stmt 0
 862              	#APP
 863              	# 99 "src/kernel/Riscv.cpp" 1
 100:src/kernel/Riscv.cpp **** 
 864              		csrw satp, a5
 865              	# 0 "" 2
 866              		.loc 1 100 1
 867              	#NO_APP
 868 0594 83308103 		ld	ra,56(sp)
 869              		.cfi_restore 1
 870 0598 03340103 		ld	s0,48(sp)
 871              		.cfi_restore 8
 872              		.cfi_def_cfa 2, 64
 873 059c 83348102 		ld	s1,40(sp)
 874              		.cfi_restore 9
 875              	.LVL88:
 876 05a0 03390102 		ld	s2,32(sp)
 877              		.cfi_restore 18
 878 05a4 83398101 		ld	s3,24(sp)
 879              		.cfi_restore 19
 880 05a8 033A0101 		ld	s4,16(sp)
 881              		.cfi_restore 20
 882 05ac 833A8100 		ld	s5,8(sp)
 883              		.cfi_restore 21
 884 05b0 033B0100 		ld	s6,0(sp)
 885              		.cfi_restore 22
 886 05b4 13010104 		addi	sp,sp,64
 887              		.cfi_def_cfa_offset 0
 888 05b8 67800000 		jr	ra
 889              		.cfi_endproc
 890              	.LFE29:
 892              		.align	2
 893              		.globl	_ZN5Riscv10kernelMainEv
 895              	_ZN5Riscv10kernelMainEv:
 896              	.LFB30:
 103:src/kernel/Riscv.cpp ****     if(kernelMainCalled) return;
 897              		.loc 1 103 1 is_stmt 1
 898              		.cfi_startproc
 104:src/kernel/Riscv.cpp ****     kernelMainCalled = true;
 899              		.loc 1 104 5
 900 05bc 97070000 		lbu	a5,.LANCHOR0+40
 900      83C70700 
 901 05c4 63840700 		beqz	a5,.L45
 902 05c8 67800000 		ret
 903              	.L45:
 103:src/kernel/Riscv.cpp ****     if(kernelMainCalled) return;
 904              		.loc 1 103 1 is_stmt 0
 905 05cc 130101FF 		addi	sp,sp,-16
 906              		.cfi_def_cfa_offset 16
 907 05d0 23341100 		sd	ra,8(sp)
 908 05d4 23308100 		sd	s0,0(sp)
GAS LISTING /tmp/ccTG7hDV.s 			page 28


 909              		.cfi_offset 1, -8
 910              		.cfi_offset 8, -16
 911 05d8 13040101 		addi	s0,sp,16
 912              		.cfi_def_cfa 8, 0
 105:src/kernel/Riscv.cpp **** 
 913              		.loc 1 105 5 is_stmt 1
 105:src/kernel/Riscv.cpp **** 
 914              		.loc 1 105 22 is_stmt 0
 915 05dc 93071000 		li	a5,1
 916 05e0 17070000 		sb	a5,.LANCHOR0+40,a4
 916      2300F700 
 107:src/kernel/Riscv.cpp **** 
 917              		.loc 1 107 5 is_stmt 1
 107:src/kernel/Riscv.cpp **** 
 918              		.loc 1 107 15 is_stmt 0
 919 05e8 97000000 		call	_ZN5Riscv10initSystemEv
 919      E7800000 
 920              	.LVL89:
 111:src/kernel/Riscv.cpp **** 
 921              		.loc 1 111 5 is_stmt 1
 111:src/kernel/Riscv.cpp **** 
 922              		.loc 1 111 21 is_stmt 0
 923 05f0 97000000 		call	_ZN5Riscv16enableInterruptsEv
 923      E7800000 
 924              	.LVL90:
 925              	.L40:
 113:src/kernel/Riscv.cpp ****     {
 926              		.loc 1 113 5 is_stmt 1
 113:src/kernel/Riscv.cpp ****     {
 927              		.loc 1 113 11
 113:src/kernel/Riscv.cpp ****     {
 928              		.loc 1 113 36 is_stmt 0
 929 05f8 97070000 		la	a5,_ZN3PCB7userPCBE
 929      83B70700 
 930 0600 03B50700 		ld	a0,0(a5)
 931 0604 97000000 		call	_ZN3PCB10isFinishedEv@plt
 931      E7800000 
 932              	.LVL91:
 113:src/kernel/Riscv.cpp ****     {
 933              		.loc 1 113 11
 934 060c 63180500 		bnez	a0,.L39
 115:src/kernel/Riscv.cpp ****     }
 935              		.loc 1 115 9 is_stmt 1
 115:src/kernel/Riscv.cpp ****     }
 936              		.loc 1 115 31 is_stmt 0
 937 0610 97000000 		call	_Z22thread_dispatch_kernelv@plt
 937      E7800000 
 938              	.LVL92:
 113:src/kernel/Riscv.cpp ****     {
 939              		.loc 1 113 5
 940 0618 6FF01FFE 		j	.L40
 941              	.L39:
 118:src/kernel/Riscv.cpp **** }
 942              		.loc 1 118 5 is_stmt 1
 118:src/kernel/Riscv.cpp **** }
 943              		.loc 1 118 14 is_stmt 0
 944 061c 97000000 		call	_ZN5Riscv9endSystemEv
GAS LISTING /tmp/ccTG7hDV.s 			page 29


 944      E7800000 
 945              	.LVL93:
 119:src/kernel/Riscv.cpp **** 
 946              		.loc 1 119 1
 947 0624 83308100 		ld	ra,8(sp)
 948              		.cfi_restore 1
 949 0628 03340100 		ld	s0,0(sp)
 950              		.cfi_restore 8
 951              		.cfi_def_cfa 2, 16
 952 062c 13010101 		addi	sp,sp,16
 953              		.cfi_def_cfa_offset 0
 954 0630 67800000 		jr	ra
 955              		.cfi_endproc
 956              	.LFE30:
 958              		.align	2
 959              		.globl	_ZN5Riscv14addVirtualAddrEm
 961              	_ZN5Riscv14addVirtualAddrEm:
 962              	.LFB36:
 210:src/kernel/Riscv.cpp **** 
 211:src/kernel/Riscv.cpp **** void Riscv::addVirtualAddr(size_t addr)
 212:src/kernel/Riscv.cpp **** {
 963              		.loc 1 212 1 is_stmt 1
 964              		.cfi_startproc
 965              	.LVL94:
 966 0634 130101FF 		addi	sp,sp,-16
 967              		.cfi_def_cfa_offset 16
 968 0638 23341100 		sd	ra,8(sp)
 969 063c 23308100 		sd	s0,0(sp)
 970              		.cfi_offset 1, -8
 971              		.cfi_offset 8, -16
 972 0640 13040101 		addi	s0,sp,16
 973              		.cfi_def_cfa 8, 0
 213:src/kernel/Riscv.cpp ****     setVirtualAddr(addr, 0x1, 0xf);
 974              		.loc 1 213 5
 975              		.loc 1 213 19 is_stmt 0
 976 0644 1306F000 		li	a2,15
 977 0648 93051000 		li	a1,1
 978 064c 97000000 		call	_ZN5Riscv14setVirtualAddrEmmm
 978      E7800000 
 979              	.LVL95:
 214:src/kernel/Riscv.cpp **** }
 980              		.loc 1 214 1
 981 0654 83308100 		ld	ra,8(sp)
 982              		.cfi_restore 1
 983 0658 03340100 		ld	s0,0(sp)
 984              		.cfi_restore 8
 985              		.cfi_def_cfa 2, 16
 986 065c 13010101 		addi	sp,sp,16
 987              		.cfi_def_cfa_offset 0
 988 0660 67800000 		jr	ra
 989              		.cfi_endproc
 990              	.LFE36:
 992              		.align	2
 993              		.globl	_ZN5Riscv19addVirtualAddrInstrEm
 995              	_ZN5Riscv19addVirtualAddrInstrEm:
 996              	.LFB37:
 215:src/kernel/Riscv.cpp **** 
GAS LISTING /tmp/ccTG7hDV.s 			page 30


 216:src/kernel/Riscv.cpp **** void Riscv::addVirtualAddrInstr(size_t addr)
 217:src/kernel/Riscv.cpp **** {
 997              		.loc 1 217 1 is_stmt 1
 998              		.cfi_startproc
 999              	.LVL96:
 1000 0664 130101FF 		addi	sp,sp,-16
 1001              		.cfi_def_cfa_offset 16
 1002 0668 23341100 		sd	ra,8(sp)
 1003 066c 23308100 		sd	s0,0(sp)
 1004              		.cfi_offset 1, -8
 1005              		.cfi_offset 8, -16
 1006 0670 13040101 		addi	s0,sp,16
 1007              		.cfi_def_cfa 8, 0
 218:src/kernel/Riscv.cpp ****     setVirtualAddr(addr, 0x1, 0xf);
 1008              		.loc 1 218 5
 1009              		.loc 1 218 19 is_stmt 0
 1010 0674 1306F000 		li	a2,15
 1011 0678 93051000 		li	a1,1
 1012 067c 97000000 		call	_ZN5Riscv14setVirtualAddrEmmm
 1012      E7800000 
 1013              	.LVL97:
 219:src/kernel/Riscv.cpp **** }
 1014              		.loc 1 219 1
 1015 0684 83308100 		ld	ra,8(sp)
 1016              		.cfi_restore 1
 1017 0688 03340100 		ld	s0,0(sp)
 1018              		.cfi_restore 8
 1019              		.cfi_def_cfa 2, 16
 1020 068c 13010101 		addi	sp,sp,16
 1021              		.cfi_def_cfa_offset 0
 1022 0690 67800000 		jr	ra
 1023              		.cfi_endproc
 1024              	.LFE37:
 1026              		.align	2
 1027              		.globl	_ZN5Riscv22disableTimerInterruptsEv
 1029              	_ZN5Riscv22disableTimerInterruptsEv:
 1030              	.LFB38:
 220:src/kernel/Riscv.cpp **** 
 221:src/kernel/Riscv.cpp **** void Riscv::disableTimerInterrupts()
 222:src/kernel/Riscv.cpp **** {
 1031              		.loc 1 222 1 is_stmt 1
 1032              		.cfi_startproc
 1033 0694 130101FF 		addi	sp,sp,-16
 1034              		.cfi_def_cfa_offset 16
 1035 0698 23348100 		sd	s0,8(sp)
 1036              		.cfi_offset 8, -8
 1037 069c 13040101 		addi	s0,sp,16
 1038              		.cfi_def_cfa 8, 0
 223:src/kernel/Riscv.cpp ****     uint64 x = 0x2;
 1039              		.loc 1 223 5
 1040              	.LVL98:
 224:src/kernel/Riscv.cpp ****     __asm__ volatile("csrc sie, %0"::"r"(x));
 1041              		.loc 1 224 5
 1042              		.loc 1 224 45 is_stmt 0
 1043 06a0 93072000 		li	a5,2
 1044              	#APP
 1045              	# 224 "src/kernel/Riscv.cpp" 1
GAS LISTING /tmp/ccTG7hDV.s 			page 31


 225              	}
 1046              		csrc sie, a5
 1047              	# 0 "" 2
 1048              		.loc 1 225 1
 1049              	#NO_APP
 1050 06a8 03348100 		ld	s0,8(sp)
 1051              		.cfi_restore 8
 1052              		.cfi_def_cfa 2, 16
 1053 06ac 13010101 		addi	sp,sp,16
 1054              		.cfi_def_cfa_offset 0
 1055 06b0 67800000 		jr	ra
 1056              		.cfi_endproc
 1057              	.LFE38:
 1059              		.align	2
 1060              		.globl	_ZN5Riscv13w_a0_sscratchEv
 1062              	_ZN5Riscv13w_a0_sscratchEv:
 1063              	.LFB39:
 226:src/kernel/Riscv.cpp **** 
 227:src/kernel/Riscv.cpp **** void Riscv::w_a0_sscratch()
 228:src/kernel/Riscv.cpp **** {
 1064              		.loc 1 228 1 is_stmt 1
 1065              		.cfi_startproc
 1066 06b4 130101FF 		addi	sp,sp,-16
 1067              		.cfi_def_cfa_offset 16
 1068 06b8 23348100 		sd	s0,8(sp)
 1069              		.cfi_offset 8, -8
 1070 06bc 13040101 		addi	s0,sp,16
 1071              		.cfi_def_cfa 8, 0
 229:src/kernel/Riscv.cpp ****     uint64 a1Temp;
 1072              		.loc 1 229 5
 230:src/kernel/Riscv.cpp ****     __asm__ volatile("mv %0, a1":"=r"(a1Temp));
 1073              		.loc 1 230 5
 1074              		.loc 1 230 47 is_stmt 0
 1075              	#APP
 1076              	# 230 "src/kernel/Riscv.cpp" 1
 231              	    __asm__ volatile("mv a1, %0"::"r"(PCB::running->sscratch));
 1077              		mv a5, a1
 1078              	# 0 "" 2
 1079              	.LVL99:
 1080              		.loc 1 231 5 is_stmt 1
 1081              		.loc 1 231 53 is_stmt 0
 1082              	#NO_APP
 1083 06c4 17070000 		la	a4,_ZN3PCB7runningE
 1083      03370700 
 1084 06cc 03370700 		ld	a4,0(a4)
 1085 06d0 03370701 		ld	a4,16(a4)
 1086              		.loc 1 231 63
 1087              	#APP
 1088              	# 231 "src/kernel/Riscv.cpp" 1
 232              	    __asm__ volatile("sd a0, 80(a1)");
 1089              		mv a1, a4
 1090              	# 0 "" 2
 1091              		.loc 1 232 5 is_stmt 1
 1092              		.loc 1 232 38 is_stmt 0
 1093              	# 232 "src/kernel/Riscv.cpp" 1
 233              	    __asm__ volatile("mv a1,%0"::"r"(a1Temp));
 1094              		sd a0, 80(a1)
GAS LISTING /tmp/ccTG7hDV.s 			page 32


 1095              	# 0 "" 2
 1096              		.loc 1 233 5 is_stmt 1
 1097              		.loc 1 233 46 is_stmt 0
 1098              	# 233 "src/kernel/Riscv.cpp" 1
 234              	}
 1099              		mv a1,a5
 1100              	# 0 "" 2
 1101              		.loc 1 234 1
 1102              	#NO_APP
 1103 06e0 03348100 		ld	s0,8(sp)
 1104              		.cfi_restore 8
 1105              		.cfi_def_cfa 2, 16
 1106 06e4 13010101 		addi	sp,sp,16
 1107              		.cfi_def_cfa_offset 0
 1108 06e8 67800000 		jr	ra
 1109              		.cfi_endproc
 1110              	.LFE39:
 1112              		.align	2
 1113              		.globl	_ZN5Riscv14changePrivModeEv
 1115              	_ZN5Riscv14changePrivModeEv:
 1116              	.LFB40:
 235:src/kernel/Riscv.cpp **** 
 236:src/kernel/Riscv.cpp **** void Riscv::changePrivMode()
 237:src/kernel/Riscv.cpp **** {
 1117              		.loc 1 237 1 is_stmt 1
 1118              		.cfi_startproc
 1119 06ec 130101FF 		addi	sp,sp,-16
 1120              		.cfi_def_cfa_offset 16
 1121 06f0 23348100 		sd	s0,8(sp)
 1122              		.cfi_offset 8, -8
 1123 06f4 13040101 		addi	s0,sp,16
 1124              		.cfi_def_cfa 8, 0
 238:src/kernel/Riscv.cpp ****     if(PCB::running->systemThread)
 1125              		.loc 1 238 5
 1126              		.loc 1 238 22 is_stmt 0
 1127 06f8 97070000 		la	a5,_ZN3PCB7runningE
 1127      83B70700 
 1128 0700 83B70700 		ld	a5,0(a5)
 1129 0704 83C70700 		lbu	a5,0(a5)
 1130              		.loc 1 238 5
 1131 0708 638C0700 		beqz	a5,.L55
 239:src/kernel/Riscv.cpp ****         Riscv::ms_sstatus(Riscv::SSTATUS_SPP);
 1132              		.loc 1 239 9 is_stmt 1
 1133              	.LVL100:
 1134              	.LBB65:
 1135              	.LBB66:
 206:src/kernel/../../h/Riscv.hpp **** }
 1136              		.loc 2 206 5
 206:src/kernel/../../h/Riscv.hpp **** }
 1137              		.loc 2 206 54 is_stmt 0
 1138 070c 93070010 		li	a5,256
 1139              	#APP
 1140              	# 206 "src/kernel/../../h/Riscv.hpp" 1
 1141              		csrs sstatus, a5
 1142              	# 0 "" 2
 1143              	.LVL101:
 1144              	#NO_APP
GAS LISTING /tmp/ccTG7hDV.s 			page 33


 1145              	.L54:
 1146              	.LBE66:
 1147              	.LBE65:
 240:src/kernel/Riscv.cpp ****     else
 241:src/kernel/Riscv.cpp ****         Riscv::mc_sstatus(Riscv::SSTATUS_SPP);
 242:src/kernel/Riscv.cpp **** }
 1148              		.loc 1 242 1
 1149 0714 03348100 		ld	s0,8(sp)
 1150              		.cfi_remember_state
 1151              		.cfi_restore 8
 1152              		.cfi_def_cfa 2, 16
 1153 0718 13010101 		addi	sp,sp,16
 1154              		.cfi_def_cfa_offset 0
 1155 071c 67800000 		jr	ra
 1156              	.L55:
 1157              		.cfi_restore_state
 241:src/kernel/Riscv.cpp **** }
 1158              		.loc 1 241 9 is_stmt 1
 1159              	.LVL102:
 1160              	.LBB67:
 1161              	.LBB68:
 210:src/kernel/../../h/Riscv.hpp **** }
 1162              		.loc 2 210 5
 210:src/kernel/../../h/Riscv.hpp **** }
 1163              		.loc 2 210 54 is_stmt 0
 1164 0720 93070010 		li	a5,256
 1165              	#APP
 1166              	# 210 "src/kernel/../../h/Riscv.hpp" 1
 1167              		csrc sstatus, a5
 1168              	# 0 "" 2
 1169              	.LVL103:
 1170              	#NO_APP
 1171              	.LBE68:
 1172              	.LBE67:
 1173              		.loc 1 242 1
 1174 0728 6FF0DFFE 		j	.L54
 1175              		.cfi_endproc
 1176              	.LFE40:
 1178              		.align	2
 1179              		.globl	_ZN5Riscv20handleSupervisorTrapEv
 1181              	_ZN5Riscv20handleSupervisorTrapEv:
 1182              	.LFB41:
 243:src/kernel/Riscv.cpp **** 
 244:src/kernel/Riscv.cpp **** void Riscv::handleSupervisorTrap()
 245:src/kernel/Riscv.cpp **** {
 1183              		.loc 1 245 1 is_stmt 1
 1184              		.cfi_startproc
 1185 072c 130101F9 		addi	sp,sp,-112
 1186              		.cfi_def_cfa_offset 112
 1187 0730 23341106 		sd	ra,104(sp)
 1188 0734 23308106 		sd	s0,96(sp)
 1189 0738 233C9104 		sd	s1,88(sp)
 1190              		.cfi_offset 1, -8
 1191              		.cfi_offset 8, -16
 1192              		.cfi_offset 9, -24
 1193 073c 13040107 		addi	s0,sp,112
 1194              		.cfi_def_cfa 8, 0
GAS LISTING /tmp/ccTG7hDV.s 			page 34


 246:src/kernel/Riscv.cpp ****     __asm__ volatile("mv %0, a4" : "=r"(PCB::savedRegA4));
 1195              		.loc 1 246 5
 1196              		.loc 1 246 58 is_stmt 0
 1197              	#APP
 1198              	# 246 "src/kernel/Riscv.cpp" 1
 247              	    __asm__ volatile("csrr %0, sscratch":"=r"(PCB::running->sscratch));
 1199              		mv a4, a4
 1200              	# 0 "" 2
 1201              	#NO_APP
 1202 0744 97070000 		la	a5,_ZN3PCB10savedRegA4E
 1202      83B70700 
 1203 074c 23B0E700 		sd	a4,0(a5)
 1204              		.loc 1 247 5 is_stmt 1
 1205              		.loc 1 247 61 is_stmt 0
 1206 0750 97070000 		la	a5,_ZN3PCB7runningE
 1206      83B70700 
 1207 0758 83B70700 		ld	a5,0(a5)
 1208              		.loc 1 247 71
 1209              	#APP
 1210              	# 247 "src/kernel/Riscv.cpp" 1
 248              	
 1211              		csrr a4, sscratch
 1212              	# 0 "" 2
 1213              	#NO_APP
 1214 0760 23B8E700 		sd	a4,16(a5)
 249:src/kernel/Riscv.cpp ****     uint64 scause = Riscv::r_scause();
 1215              		.loc 1 249 5 is_stmt 1
 1216              	.LBB69:
 1217              	.LBB70:
 131:src/kernel/../../h/Riscv.hpp ****     __asm__ volatile("csrr %0, scause" : "=r"(scause));
 1218              		.loc 2 131 5
 132:src/kernel/../../h/Riscv.hpp ****     return scause;
 1219              		.loc 2 132 5
 132:src/kernel/../../h/Riscv.hpp ****     return scause;
 1220              		.loc 2 132 55 is_stmt 0
 1221              	#APP
 1222              	# 132 "src/kernel/../../h/Riscv.hpp" 1
 1223              		csrr a5, scause
 1224              	# 0 "" 2
 1225              	#NO_APP
 1226 0768 233CF4FA 		sd	a5,-72(s0)
 133:src/kernel/../../h/Riscv.hpp **** }
 1227              		.loc 2 133 5 is_stmt 1
 133:src/kernel/../../h/Riscv.hpp **** }
 1228              		.loc 2 133 12 is_stmt 0
 1229 076c 833784FB 		ld	a5,-72(s0)
 1230              	.LVL104:
 1231              	.LBE70:
 1232              	.LBE69:
 250:src/kernel/Riscv.cpp **** 
 251:src/kernel/Riscv.cpp ****     static const size_t storePF = 15;
 1233              		.loc 1 251 5 is_stmt 1
 252:src/kernel/Riscv.cpp ****     static const size_t loadPF = 13;
 1234              		.loc 1 252 5
 253:src/kernel/Riscv.cpp ****     static const size_t instrPF = 12;
 1235              		.loc 1 253 5
 254:src/kernel/Riscv.cpp **** 
GAS LISTING /tmp/ccTG7hDV.s 			page 35


 255:src/kernel/Riscv.cpp ****     switch(scause)
 1236              		.loc 1 255 5
 1237              	.LBB71:
 1238 0770 1307F000 		li	a4,15
 1239 0774 6368F702 		bgtu	a5,a4,.L59
 1240 0778 13072000 		li	a4,2
 1241 077c 63E8E710 		bltu	a5,a4,.L58
 1242 0780 1307F000 		li	a4,15
 1243 0784 6364F710 		bgtu	a5,a4,.L58
 1244 0788 93972700 		slli	a5,a5,2
 1245              	.LVL105:
 1246 078c 17070000 		lla	a4,.L62
 1246      13070700 
 1247 0794 B387E700 		add	a5,a5,a4
 1248 0798 83A70700 		lw	a5,0(a5)
 1249 079c B387E700 		add	a5,a5,a4
 1250 07a0 67800700 		jr	a5
 1251              		.section	.rodata
 1252              		.align	2
 1253              		.align	2
 1254              	.L62:
 1255 0000 00000000 		.word	.L58-.L62
 1256 0004 00000000 		.word	.L58-.L62
 1257 0008 00000000 		.word	.L68-.L62
 1258 000c 00000000 		.word	.L58-.L62
 1259 0010 00000000 		.word	.L58-.L62
 1260 0014 00000000 		.word	.L67-.L62
 1261 0018 00000000 		.word	.L58-.L62
 1262 001c 00000000 		.word	.L66-.L62
 1263 0020 00000000 		.word	.L65-.L62
 1264 0024 00000000 		.word	.L65-.L62
 1265 0028 00000000 		.word	.L58-.L62
 1266 002c 00000000 		.word	.L58-.L62
 1267 0030 00000000 		.word	.L64-.L62
 1268 0034 00000000 		.word	.L63-.L62
 1269 0038 00000000 		.word	.L58-.L62
 1270 003c 00000000 		.word	.L61-.L62
 1271              		.text
 1272              	.LVL106:
 1273              	.L59:
 1274 07a4 1307F0FF 		li	a4,-1
 1275 07a8 1317F703 		slli	a4,a4,63
 1276 07ac 13071700 		addi	a4,a4,1
 1277 07b0 638AE704 		beq	a5,a4,.L69
 1278 07b4 1307F0FF 		li	a4,-1
 1279 07b8 1317F703 		slli	a4,a4,63
 1280 07bc 13079700 		addi	a4,a4,9
 1281 07c0 6396E70C 		bne	a5,a4,.L58
 1282              	.LBB72:
 256:src/kernel/Riscv.cpp ****     {
 257:src/kernel/Riscv.cpp ****         case storePF:
 258:src/kernel/Riscv.cpp ****         {
 259:src/kernel/Riscv.cpp ****             size_t addrPF = 0;
 260:src/kernel/Riscv.cpp ****             __asm__ volatile("csrr %0, stval":"=r"(addrPF));
 261:src/kernel/Riscv.cpp ****             addVirtualAddr(addrPF);
 262:src/kernel/Riscv.cpp ****         }
 263:src/kernel/Riscv.cpp ****         case loadPF:
GAS LISTING /tmp/ccTG7hDV.s 			page 36


 264:src/kernel/Riscv.cpp ****         {
 265:src/kernel/Riscv.cpp ****             size_t addrPF = 0;
 266:src/kernel/Riscv.cpp ****             __asm__ volatile("csrr %0, stval":"=r"(addrPF));
 267:src/kernel/Riscv.cpp ****             addVirtualAddr(addrPF);
 268:src/kernel/Riscv.cpp ****         }
 269:src/kernel/Riscv.cpp ****         case instrPF:
 270:src/kernel/Riscv.cpp ****         {
 271:src/kernel/Riscv.cpp ****             //KConsole::trapPrintString("instr PF\n");
 272:src/kernel/Riscv.cpp ****             size_t addrPF = 0;
 273:src/kernel/Riscv.cpp ****             __asm__ volatile("csrr %0, stval":"=r"(addrPF));
 274:src/kernel/Riscv.cpp ****             addVirtualAddrInstr(addrPF);
 275:src/kernel/Riscv.cpp ****         }
 276:src/kernel/Riscv.cpp ****         case timerInterrupt:
 277:src/kernel/Riscv.cpp ****         {
 278:src/kernel/Riscv.cpp ****             //KConsole::trapPrintString("timerInterrupt\n");
 279:src/kernel/Riscv.cpp ****             uint64 volatile sepc = Riscv::r_sepc();
 280:src/kernel/Riscv.cpp ****             uint64 volatile sstatus = Riscv::r_sstatus();
 281:src/kernel/Riscv.cpp ****             mc_sip(Riscv::SIP_SSIP);
 282:src/kernel/Riscv.cpp ****             //static uint64 total = 0;
 283:src/kernel/Riscv.cpp ****             totalTime++;
 284:src/kernel/Riscv.cpp ****             //KConsole::trapPrintInt(totalTime);
 285:src/kernel/Riscv.cpp **** 
 286:src/kernel/Riscv.cpp ****             PCB::timeSliceCounter++;
 287:src/kernel/Riscv.cpp ****             SleepPCBList::tryToWakePCBs();
 288:src/kernel/Riscv.cpp ****             if (PCB::timeSliceCounter >= PCB::running->getTimeSlice())
 289:src/kernel/Riscv.cpp ****             {
 290:src/kernel/Riscv.cpp ****                 PCB::timeSliceCounter = 0;
 291:src/kernel/Riscv.cpp ****                 PCB::dispatch();
 292:src/kernel/Riscv.cpp ****             }
 293:src/kernel/Riscv.cpp **** 
 294:src/kernel/Riscv.cpp ****             Riscv::w_sstatus(sstatus);
 295:src/kernel/Riscv.cpp ****             Riscv::w_sepc(sepc);
 296:src/kernel/Riscv.cpp ****             changePrivMode();
 297:src/kernel/Riscv.cpp ****             break;
 298:src/kernel/Riscv.cpp ****         }
 299:src/kernel/Riscv.cpp ****         case hwInterrupt:
 1283              		.loc 1 299 9
 300:src/kernel/Riscv.cpp ****         {
 1284              		.loc 1 300 9
 301:src/kernel/Riscv.cpp ****             KConsole::getCharactersFromConsole();
 1285              		.loc 1 301 13
 1286              		.loc 1 301 47 is_stmt 0
 1287 07c4 97000000 		call	_ZN8KConsole24getCharactersFromConsoleEv@plt
 1287      E7800000 
 1288              	.LVL107:
 302:src/kernel/Riscv.cpp ****             plic_complete(plic_claim());
 1289              		.loc 1 302 13 is_stmt 1
 1290              		.loc 1 302 26 is_stmt 0
 1291 07cc 97000000 		call	plic_claim@plt
 1291      E7800000 
 1292              	.LVL108:
 1293 07d4 97000000 		call	plic_complete@plt
 1293      E7800000 
 1294              	.LVL109:
 303:src/kernel/Riscv.cpp ****             break;
 1295              		.loc 1 303 13 is_stmt 1
 1296 07dc 6F00000B 		j	.L58
GAS LISTING /tmp/ccTG7hDV.s 			page 37


 1297              	.L61:
 257:src/kernel/Riscv.cpp ****         {
 1298              		.loc 1 257 9
 258:src/kernel/Riscv.cpp ****             size_t addrPF = 0;
 1299              		.loc 1 258 9
 1300              	.LBB73:
 259:src/kernel/Riscv.cpp ****             __asm__ volatile("csrr %0, stval":"=r"(addrPF));
 1301              		.loc 1 259 13
 1302              	.LVL110:
 260:src/kernel/Riscv.cpp ****             addVirtualAddr(addrPF);
 1303              		.loc 1 260 13
 260:src/kernel/Riscv.cpp ****             addVirtualAddr(addrPF);
 1304              		.loc 1 260 60 is_stmt 0
 1305              	#APP
 1306              	# 260 "src/kernel/Riscv.cpp" 1
 1307              		csrr a0, stval
 1308              	# 0 "" 2
 1309              	.LVL111:
 261:src/kernel/Riscv.cpp ****         }
 1310              		.loc 1 261 13 is_stmt 1
 261:src/kernel/Riscv.cpp ****         }
 1311              		.loc 1 261 27 is_stmt 0
 1312              	#NO_APP
 1313 07e4 97000000 		call	_ZN5Riscv14addVirtualAddrEm
 1313      E7800000 
 1314              	.LVL112:
 1315              	.L63:
 1316              	.LBE73:
 263:src/kernel/Riscv.cpp ****         {
 1317              		.loc 1 263 9 is_stmt 1
 264:src/kernel/Riscv.cpp ****             size_t addrPF = 0;
 1318              		.loc 1 264 9
 1319              	.LBB74:
 265:src/kernel/Riscv.cpp ****             __asm__ volatile("csrr %0, stval":"=r"(addrPF));
 1320              		.loc 1 265 13
 266:src/kernel/Riscv.cpp ****             addVirtualAddr(addrPF);
 1321              		.loc 1 266 13
 266:src/kernel/Riscv.cpp ****             addVirtualAddr(addrPF);
 1322              		.loc 1 266 60 is_stmt 0
 1323              	#APP
 1324              	# 266 "src/kernel/Riscv.cpp" 1
 1325              		csrr a0, stval
 1326              	# 0 "" 2
 1327              	.LVL113:
 267:src/kernel/Riscv.cpp ****         }
 1328              		.loc 1 267 13 is_stmt 1
 267:src/kernel/Riscv.cpp ****         }
 1329              		.loc 1 267 27 is_stmt 0
 1330              	#NO_APP
 1331 07f0 97000000 		call	_ZN5Riscv14addVirtualAddrEm
 1331      E7800000 
 1332              	.LVL114:
 1333              	.L64:
 1334              	.LBE74:
 269:src/kernel/Riscv.cpp ****         {
 1335              		.loc 1 269 9 is_stmt 1
 270:src/kernel/Riscv.cpp ****             //KConsole::trapPrintString("instr PF\n");
GAS LISTING /tmp/ccTG7hDV.s 			page 38


 1336              		.loc 1 270 9
 1337              	.LBB75:
 272:src/kernel/Riscv.cpp ****             __asm__ volatile("csrr %0, stval":"=r"(addrPF));
 1338              		.loc 1 272 13
 273:src/kernel/Riscv.cpp ****             addVirtualAddrInstr(addrPF);
 1339              		.loc 1 273 13
 273:src/kernel/Riscv.cpp ****             addVirtualAddrInstr(addrPF);
 1340              		.loc 1 273 60 is_stmt 0
 1341              	#APP
 1342              	# 273 "src/kernel/Riscv.cpp" 1
 1343              		csrr a0, stval
 1344              	# 0 "" 2
 1345              	.LVL115:
 274:src/kernel/Riscv.cpp ****         }
 1346              		.loc 1 274 13 is_stmt 1
 274:src/kernel/Riscv.cpp ****         }
 1347              		.loc 1 274 32 is_stmt 0
 1348              	#NO_APP
 1349 07fc 97000000 		call	_ZN5Riscv19addVirtualAddrInstrEm
 1349      E7800000 
 1350              	.LVL116:
 1351              	.L69:
 1352              	.LBE75:
 276:src/kernel/Riscv.cpp ****         {
 1353              		.loc 1 276 9 is_stmt 1
 277:src/kernel/Riscv.cpp ****             //KConsole::trapPrintString("timerInterrupt\n");
 1354              		.loc 1 277 9
 1355              	.LBB76:
 279:src/kernel/Riscv.cpp ****             uint64 volatile sstatus = Riscv::r_sstatus();
 1356              		.loc 1 279 13
 1357              	.LBB77:
 1358              	.LBB78:
 141:src/kernel/../../h/Riscv.hpp ****     __asm__ volatile("csrr %0, sepc" : "=r"(sepc));
 1359              		.loc 2 141 5
 142:src/kernel/../../h/Riscv.hpp ****     return sepc;
 1360              		.loc 2 142 5
 142:src/kernel/../../h/Riscv.hpp ****     return sepc;
 1361              		.loc 2 142 51 is_stmt 0
 1362              	#APP
 1363              	# 142 "src/kernel/../../h/Riscv.hpp" 1
 1364              		csrr a5, sepc
 1365              	# 0 "" 2
 1366              	#NO_APP
 1367 0808 2334F4FC 		sd	a5,-56(s0)
 143:src/kernel/../../h/Riscv.hpp **** }
 1368              		.loc 2 143 5 is_stmt 1
 143:src/kernel/../../h/Riscv.hpp **** }
 1369              		.loc 2 143 12 is_stmt 0
 1370 080c 833784FC 		ld	a5,-56(s0)
 1371              	.LBE78:
 1372              	.LBE77:
 279:src/kernel/Riscv.cpp ****             uint64 volatile sstatus = Riscv::r_sstatus();
 1373              		.loc 1 279 50
 1374 0810 233CF4F8 		sd	a5,-104(s0)
 280:src/kernel/Riscv.cpp ****             mc_sip(Riscv::SIP_SSIP);
 1375              		.loc 1 280 13 is_stmt 1
 1376              	.LBB79:
GAS LISTING /tmp/ccTG7hDV.s 			page 39


 1377              	.LBB80:
 212:src/kernel/../../h/Riscv.hpp **** 
 213:src/kernel/../../h/Riscv.hpp **** inline uint64 Riscv::r_sstatus() {
 214:src/kernel/../../h/Riscv.hpp ****     uint64 volatile sstatus;
 1378              		.loc 2 214 5
 215:src/kernel/../../h/Riscv.hpp ****     __asm__ volatile("csrr %0, sstatus" : "=r"(sstatus));
 1379              		.loc 2 215 5
 1380              		.loc 2 215 57 is_stmt 0
 1381              	#APP
 1382              	# 215 "src/kernel/../../h/Riscv.hpp" 1
 216              	    return sstatus;
 1383              		csrr a5, sstatus
 1384              	# 0 "" 2
 1385              	#NO_APP
 1386 0818 2330F4FC 		sd	a5,-64(s0)
 1387              		.loc 2 216 5 is_stmt 1
 1388              		.loc 2 216 12 is_stmt 0
 1389 081c 833704FC 		ld	a5,-64(s0)
 1390              	.LBE80:
 1391              	.LBE79:
 280:src/kernel/Riscv.cpp ****             mc_sip(Riscv::SIP_SSIP);
 1392              		.loc 1 280 56
 1393 0820 2330F4FA 		sd	a5,-96(s0)
 281:src/kernel/Riscv.cpp ****             //static uint64 total = 0;
 1394              		.loc 1 281 13 is_stmt 1
 1395              	.LVL117:
 1396              	.LBB81:
 1397              	.LBB82:
 180:src/kernel/../../h/Riscv.hpp **** }
 1398              		.loc 2 180 5
 180:src/kernel/../../h/Riscv.hpp **** }
 1399              		.loc 2 180 50 is_stmt 0
 1400 0824 93072000 		li	a5,2
 1401              	#APP
 1402              	# 180 "src/kernel/../../h/Riscv.hpp" 1
 1403              		csrc sip, a5
 1404              	# 0 "" 2
 1405              	.LVL118:
 1406              	#NO_APP
 1407              	.LBE82:
 1408              	.LBE81:
 283:src/kernel/Riscv.cpp ****             //KConsole::trapPrintInt(totalTime);
 1409              		.loc 1 283 13 is_stmt 1
 283:src/kernel/Riscv.cpp ****             //KConsole::trapPrintInt(totalTime);
 1410              		.loc 1 283 22 is_stmt 0
 1411 082c 17070000 		lla	a4,.LANCHOR0
 1411      13070700 
 1412 0834 83370703 		ld	a5,48(a4)
 1413 0838 93871700 		addi	a5,a5,1
 1414 083c 2338F702 		sd	a5,48(a4)
 286:src/kernel/Riscv.cpp ****             SleepPCBList::tryToWakePCBs();
 1415              		.loc 1 286 13 is_stmt 1
 286:src/kernel/Riscv.cpp ****             SleepPCBList::tryToWakePCBs();
 1416              		.loc 1 286 34 is_stmt 0
 1417 0840 97040000 		la	s1,_ZN3PCB16timeSliceCounterE
 1417      83B40400 
 1418 0848 83B70400 		ld	a5,0(s1)
GAS LISTING /tmp/ccTG7hDV.s 			page 40


 1419 084c 93871700 		addi	a5,a5,1
 1420 0850 23B0F400 		sd	a5,0(s1)
 287:src/kernel/Riscv.cpp ****             if (PCB::timeSliceCounter >= PCB::running->getTimeSlice())
 1421              		.loc 1 287 13 is_stmt 1
 287:src/kernel/Riscv.cpp ****             if (PCB::timeSliceCounter >= PCB::running->getTimeSlice())
 1422              		.loc 1 287 40 is_stmt 0
 1423 0854 97000000 		call	_ZN12SleepPCBList13tryToWakePCBsEv@plt
 1423      E7800000 
 1424              	.LVL119:
 288:src/kernel/Riscv.cpp ****             {
 1425              		.loc 1 288 13 is_stmt 1
 288:src/kernel/Riscv.cpp ****             {
 1426              		.loc 1 288 68 is_stmt 0
 1427 085c 97070000 		la	a5,_ZN3PCB7runningE
 1427      83B70700 
 1428 0864 83B70700 		ld	a5,0(a5)
 1429              	.LVL120:
 1430              	.LBB83:
 1431              	.LBB84:
 1432              		.file 3 "src/kernel/../../h/PCB.hpp"
   1:src/kernel/../../h/PCB.hpp **** //
   2:src/kernel/../../h/PCB.hpp **** // Created by os on 4/27/22.
   3:src/kernel/../../h/PCB.hpp **** //
   4:src/kernel/../../h/PCB.hpp **** 
   5:src/kernel/../../h/PCB.hpp **** #ifndef PROJECT_BASE_V1_0_PCB_HPP
   6:src/kernel/../../h/PCB.hpp **** #define PROJECT_BASE_V1_0_PCB_HPP
   7:src/kernel/../../h/PCB.hpp **** 
   8:src/kernel/../../h/PCB.hpp **** #include "../lib/hw.h"
   9:src/kernel/../../h/PCB.hpp **** 
  10:src/kernel/../../h/PCB.hpp **** class PCB
  11:src/kernel/../../h/PCB.hpp **** {
  12:src/kernel/../../h/PCB.hpp **** private:
  13:src/kernel/../../h/PCB.hpp ****     static uint64 savedRegA4;
  14:src/kernel/../../h/PCB.hpp **** 
  15:src/kernel/../../h/PCB.hpp ****     using Body = void (*)(void*);
  16:src/kernel/../../h/PCB.hpp **** 
  17:src/kernel/../../h/PCB.hpp ****     PCB(Body body,  void* args, void* stack_space, uint64 timeSlice);
  18:src/kernel/../../h/PCB.hpp ****     ~PCB();
  19:src/kernel/../../h/PCB.hpp **** 
  20:src/kernel/../../h/PCB.hpp ****     void start();
  21:src/kernel/../../h/PCB.hpp ****     static void dispatch();
  22:src/kernel/../../h/PCB.hpp **** 
  23:src/kernel/../../h/PCB.hpp ****     static PCB* running;
  24:src/kernel/../../h/PCB.hpp **** 
  25:src/kernel/../../h/PCB.hpp ****     static uint64 timeSliceCounter;
  26:src/kernel/../../h/PCB.hpp ****     uint64 getTimeSlice() { return timeSlice;}
 1433              		.loc 3 26 29 is_stmt 1
 1434              		.loc 3 26 36 is_stmt 0
 1435 0868 83B78701 		ld	a5,24(a5)
 1436              	.LVL121:
 1437              	.LBE84:
 1438              	.LBE83:
 288:src/kernel/Riscv.cpp ****             {
 1439              		.loc 1 288 39
 1440 086c 03B70400 		ld	a4,0(s1)
 288:src/kernel/Riscv.cpp ****             {
 1441              		.loc 1 288 13
GAS LISTING /tmp/ccTG7hDV.s 			page 41


 1442 0870 6378F702 		bgeu	a4,a5,.L91
 1443              	.L71:
 294:src/kernel/Riscv.cpp ****             Riscv::w_sepc(sepc);
 1444              		.loc 1 294 13 is_stmt 1
 294:src/kernel/Riscv.cpp ****             Riscv::w_sepc(sepc);
 1445              		.loc 1 294 29 is_stmt 0
 1446 0874 833704FA 		ld	a5,-96(s0)
 1447              	.LVL122:
 1448              	.LBB85:
 1449              	.LBB86:
 217:src/kernel/../../h/Riscv.hpp **** }
 218:src/kernel/../../h/Riscv.hpp **** 
 219:src/kernel/../../h/Riscv.hpp **** inline void Riscv::w_sstatus(uint64 sstatus) {
 220:src/kernel/../../h/Riscv.hpp ****     __asm__ volatile("csrw sstatus, %0" : :"r"(sstatus));
 1450              		.loc 2 220 5 is_stmt 1
 1451              		.loc 2 220 57 is_stmt 0
 1452              	#APP
 1453              	# 220 "src/kernel/../../h/Riscv.hpp" 1
 221              	}
 1454              		csrw sstatus, a5
 1455              	# 0 "" 2
 1456              	.LVL123:
 1457              	#NO_APP
 1458              	.LBE86:
 1459              	.LBE85:
 295:src/kernel/Riscv.cpp ****             changePrivMode();
 1460              		.loc 1 295 13 is_stmt 1
 295:src/kernel/Riscv.cpp ****             changePrivMode();
 1461              		.loc 1 295 26 is_stmt 0
 1462 087c 833784F9 		ld	a5,-104(s0)
 1463              	.LVL124:
 1464              	.LBB87:
 1465              	.LBB88:
 147:src/kernel/../../h/Riscv.hpp **** }
 1466              		.loc 2 147 5 is_stmt 1
 147:src/kernel/../../h/Riscv.hpp **** }
 1467              		.loc 2 147 51 is_stmt 0
 1468              	#APP
 1469              	# 147 "src/kernel/../../h/Riscv.hpp" 1
 1470              		csrw sepc, a5
 1471              	# 0 "" 2
 1472              	.LVL125:
 1473              	#NO_APP
 1474              	.LBE88:
 1475              	.LBE87:
 296:src/kernel/Riscv.cpp ****             break;
 1476              		.loc 1 296 13 is_stmt 1
 296:src/kernel/Riscv.cpp ****             break;
 1477              		.loc 1 296 27 is_stmt 0
 1478 0884 97000000 		call	_ZN5Riscv14changePrivModeEv
 1478      E7800000 
 1479              	.LVL126:
 297:src/kernel/Riscv.cpp ****         }
 1480              		.loc 1 297 13 is_stmt 1
 1481              	.L58:
 1482              	.LBE76:
 1483              	.LBE72:
GAS LISTING /tmp/ccTG7hDV.s 			page 42


 1484              	.LBE71:
 304:src/kernel/Riscv.cpp ****         }
 305:src/kernel/Riscv.cpp ****         case operationInterrupt:
 306:src/kernel/Riscv.cpp ****         {
 307:src/kernel/Riscv.cpp ****             PCB::threadExitHandler();
 308:src/kernel/Riscv.cpp ****             break;
 309:src/kernel/Riscv.cpp ****         }
 310:src/kernel/Riscv.cpp ****         case addrReadInterrupt:
 311:src/kernel/Riscv.cpp ****         {
 312:src/kernel/Riscv.cpp ****             PCB::threadExitHandler();
 313:src/kernel/Riscv.cpp ****             break;
 314:src/kernel/Riscv.cpp ****         }
 315:src/kernel/Riscv.cpp ****         case addrWriteInterrupt:
 316:src/kernel/Riscv.cpp ****         {
 317:src/kernel/Riscv.cpp ****             PCB::threadExitHandler();
 318:src/kernel/Riscv.cpp ****             break;
 319:src/kernel/Riscv.cpp ****         }
 320:src/kernel/Riscv.cpp ****         case ecallSystemInterupt:
 321:src/kernel/Riscv.cpp ****         case ecallUserInterrupt:
 322:src/kernel/Riscv.cpp ****         {
 323:src/kernel/Riscv.cpp ****             uint64 operation;
 324:src/kernel/Riscv.cpp ****             __asm__ volatile("mv %0, a0" :  "=r"(operation));
 325:src/kernel/Riscv.cpp **** 
 326:src/kernel/Riscv.cpp ****             uint64 volatile sepc = Riscv::r_sepc() + 4;
 327:src/kernel/Riscv.cpp ****             uint64 volatile sstatus = Riscv::r_sstatus();
 328:src/kernel/Riscv.cpp **** 
 329:src/kernel/Riscv.cpp ****             switch(operation)
 330:src/kernel/Riscv.cpp ****             {
 331:src/kernel/Riscv.cpp ****                 case MemoryAllocator::MEM_ALLOC:
 332:src/kernel/Riscv.cpp ****                     MemoryAllocator::memAllocHandler();
 333:src/kernel/Riscv.cpp ****                     break;
 334:src/kernel/Riscv.cpp ****                 case MemoryAllocator::MEM_FREE:
 335:src/kernel/Riscv.cpp ****                     MemoryAllocator::memFreeHandler();
 336:src/kernel/Riscv.cpp ****                     break;
 337:src/kernel/Riscv.cpp ****                 case PCB::THREAD_MAKE_PCB:
 338:src/kernel/Riscv.cpp ****                     PCB::threadMakePCBHandler();
 339:src/kernel/Riscv.cpp ****                     break;
 340:src/kernel/Riscv.cpp ****                 case PCB::THREAD_CREATE:
 341:src/kernel/Riscv.cpp ****                     PCB::threadCreateHandler();
 342:src/kernel/Riscv.cpp ****                     break;
 343:src/kernel/Riscv.cpp ****                 case PCB::THREAD_START:
 344:src/kernel/Riscv.cpp ****                     PCB::threadStartHandler();
 345:src/kernel/Riscv.cpp ****                     break;
 346:src/kernel/Riscv.cpp ****                 case PCB::THREAD_DISPATCH:
 347:src/kernel/Riscv.cpp ****                     PCB::threadDispatchHandler();
 348:src/kernel/Riscv.cpp ****                     break;
 349:src/kernel/Riscv.cpp ****                 case PCB::THREAD_EXIT:
 350:src/kernel/Riscv.cpp ****                     PCB::threadExitHandler();
 351:src/kernel/Riscv.cpp ****                     break;
 352:src/kernel/Riscv.cpp ****                 case PCB::TIME_SLEEP:
 353:src/kernel/Riscv.cpp ****                     PCB::threadSleepHandler();
 354:src/kernel/Riscv.cpp ****                     break;
 355:src/kernel/Riscv.cpp ****                 case PCB::THREAD_DEL_PCB:
 356:src/kernel/Riscv.cpp ****                     PCB::threadDelPCBHandler();
 357:src/kernel/Riscv.cpp ****                     break;
 358:src/kernel/Riscv.cpp ****                 case KSemaphore::SEM_OPEN:
 359:src/kernel/Riscv.cpp ****                     KSemaphore::semOpenHandler();
GAS LISTING /tmp/ccTG7hDV.s 			page 43


 360:src/kernel/Riscv.cpp ****                     break;
 361:src/kernel/Riscv.cpp ****                 case KSemaphore::SEM_WAIT:
 362:src/kernel/Riscv.cpp ****                     KSemaphore::semWaitHandler();
 363:src/kernel/Riscv.cpp ****                     break;
 364:src/kernel/Riscv.cpp ****                 case KSemaphore::SEM_SIGNAL:
 365:src/kernel/Riscv.cpp ****                     KSemaphore::semSignalHandler();
 366:src/kernel/Riscv.cpp ****                     break;
 367:src/kernel/Riscv.cpp ****                 case KSemaphore::SEM_CLOSE:
 368:src/kernel/Riscv.cpp ****                     KSemaphore::semCloseHandler();
 369:src/kernel/Riscv.cpp ****                     break;
 370:src/kernel/Riscv.cpp ****                 case KConsole::CONSOLE_GETC:
 371:src/kernel/Riscv.cpp ****                     KConsole::getcHandler();
 372:src/kernel/Riscv.cpp ****                     break;
 373:src/kernel/Riscv.cpp ****                 case KConsole::CONSOLE_PUTC:
 374:src/kernel/Riscv.cpp ****                     KConsole::putcHandler();
 375:src/kernel/Riscv.cpp ****                     break;
 376:src/kernel/Riscv.cpp ****                 case KConsole::CONSOLE_GET_CHAR:
 377:src/kernel/Riscv.cpp ****                     KConsole::getCharHandler();
 378:src/kernel/Riscv.cpp ****                     break;
 379:src/kernel/Riscv.cpp ****             }
 380:src/kernel/Riscv.cpp **** 
 381:src/kernel/Riscv.cpp ****             Riscv::w_sstatus(sstatus);
 382:src/kernel/Riscv.cpp ****             Riscv::w_sepc(sepc);
 383:src/kernel/Riscv.cpp ****             changePrivMode();
 384:src/kernel/Riscv.cpp ****             break;
 385:src/kernel/Riscv.cpp ****         }
 386:src/kernel/Riscv.cpp ****     }
 387:src/kernel/Riscv.cpp **** }
 1485              		.loc 1 387 1 is_stmt 0
 1486 088c 83308106 		ld	ra,104(sp)
 1487              		.cfi_remember_state
 1488              		.cfi_restore 1
 1489 0890 03340106 		ld	s0,96(sp)
 1490              		.cfi_restore 8
 1491              		.cfi_def_cfa 2, 112
 1492 0894 83348105 		ld	s1,88(sp)
 1493              		.cfi_restore 9
 1494 0898 13010107 		addi	sp,sp,112
 1495              		.cfi_def_cfa_offset 0
 1496 089c 67800000 		jr	ra
 1497              	.L91:
 1498              		.cfi_restore_state
 1499              	.LBB102:
 1500              	.LBB100:
 1501              	.LBB89:
 290:src/kernel/Riscv.cpp ****                 PCB::dispatch();
 1502              		.loc 1 290 17 is_stmt 1
 290:src/kernel/Riscv.cpp ****                 PCB::dispatch();
 1503              		.loc 1 290 39 is_stmt 0
 1504 08a0 23B00400 		sd	zero,0(s1)
 291:src/kernel/Riscv.cpp ****             }
 1505              		.loc 1 291 17 is_stmt 1
 291:src/kernel/Riscv.cpp ****             }
 1506              		.loc 1 291 30 is_stmt 0
 1507 08a4 97000000 		call	_ZN3PCB8dispatchEv@plt
 1507      E7800000 
 1508              	.LVL127:
GAS LISTING /tmp/ccTG7hDV.s 			page 44


 1509 08ac 6FF09FFC 		j	.L71
 1510              	.L68:
 1511              	.LBE89:
 305:src/kernel/Riscv.cpp ****         {
 1512              		.loc 1 305 9 is_stmt 1
 306:src/kernel/Riscv.cpp ****             PCB::threadExitHandler();
 1513              		.loc 1 306 9
 307:src/kernel/Riscv.cpp ****             break;
 1514              		.loc 1 307 13
 307:src/kernel/Riscv.cpp ****             break;
 1515              		.loc 1 307 35 is_stmt 0
 1516 08b0 97000000 		call	_ZN3PCB17threadExitHandlerEv@plt
 1516      E7800000 
 1517              	.LVL128:
 308:src/kernel/Riscv.cpp ****         }
 1518              		.loc 1 308 13 is_stmt 1
 1519 08b8 6FF05FFD 		j	.L58
 1520              	.L67:
 310:src/kernel/Riscv.cpp ****         {
 1521              		.loc 1 310 9
 311:src/kernel/Riscv.cpp ****             PCB::threadExitHandler();
 1522              		.loc 1 311 9
 312:src/kernel/Riscv.cpp ****             break;
 1523              		.loc 1 312 13
 312:src/kernel/Riscv.cpp ****             break;
 1524              		.loc 1 312 35 is_stmt 0
 1525 08bc 97000000 		call	_ZN3PCB17threadExitHandlerEv@plt
 1525      E7800000 
 1526              	.LVL129:
 313:src/kernel/Riscv.cpp ****         }
 1527              		.loc 1 313 13 is_stmt 1
 1528 08c4 6FF09FFC 		j	.L58
 1529              	.L66:
 315:src/kernel/Riscv.cpp ****         {
 1530              		.loc 1 315 9
 316:src/kernel/Riscv.cpp ****             PCB::threadExitHandler();
 1531              		.loc 1 316 9
 317:src/kernel/Riscv.cpp ****             break;
 1532              		.loc 1 317 13
 317:src/kernel/Riscv.cpp ****             break;
 1533              		.loc 1 317 35 is_stmt 0
 1534 08c8 97000000 		call	_ZN3PCB17threadExitHandlerEv@plt
 1534      E7800000 
 1535              	.LVL130:
 318:src/kernel/Riscv.cpp ****         }
 1536              		.loc 1 318 13 is_stmt 1
 1537 08d0 6FF0DFFB 		j	.L58
 1538              	.L65:
 320:src/kernel/Riscv.cpp ****         case ecallUserInterrupt:
 1539              		.loc 1 320 9
 321:src/kernel/Riscv.cpp ****         {
 1540              		.loc 1 321 9
 322:src/kernel/Riscv.cpp ****             uint64 operation;
 1541              		.loc 1 322 9
 1542              	.LBB90:
 323:src/kernel/Riscv.cpp ****             __asm__ volatile("mv %0, a0" :  "=r"(operation));
 1543              		.loc 1 323 13
GAS LISTING /tmp/ccTG7hDV.s 			page 45


 324:src/kernel/Riscv.cpp **** 
 1544              		.loc 1 324 13
 324:src/kernel/Riscv.cpp **** 
 1545              		.loc 1 324 61 is_stmt 0
 1546              	#APP
 1547              	# 324 "src/kernel/Riscv.cpp" 1
 1548              		mv a5, a0
 1549              	# 0 "" 2
 1550              	.LVL131:
 326:src/kernel/Riscv.cpp ****             uint64 volatile sstatus = Riscv::r_sstatus();
 1551              		.loc 1 326 13 is_stmt 1
 1552              	#NO_APP
 1553              	.LBB91:
 1554              	.LBB92:
 141:src/kernel/../../h/Riscv.hpp ****     __asm__ volatile("csrr %0, sepc" : "=r"(sepc));
 1555              		.loc 2 141 5
 142:src/kernel/../../h/Riscv.hpp ****     return sepc;
 1556              		.loc 2 142 5
 142:src/kernel/../../h/Riscv.hpp ****     return sepc;
 1557              		.loc 2 142 51 is_stmt 0
 1558              	#APP
 1559              	# 142 "src/kernel/../../h/Riscv.hpp" 1
 1560              		csrr a4, sepc
 1561              	# 0 "" 2
 1562              	#NO_APP
 1563 08dc 233CE4FC 		sd	a4,-40(s0)
 143:src/kernel/../../h/Riscv.hpp **** }
 1564              		.loc 2 143 5 is_stmt 1
 143:src/kernel/../../h/Riscv.hpp **** }
 1565              		.loc 2 143 12 is_stmt 0
 1566 08e0 033784FD 		ld	a4,-40(s0)
 1567              	.LBE92:
 1568              	.LBE91:
 326:src/kernel/Riscv.cpp ****             uint64 volatile sstatus = Riscv::r_sstatus();
 1569              		.loc 1 326 52
 1570 08e4 13074700 		addi	a4,a4,4
 326:src/kernel/Riscv.cpp ****             uint64 volatile sstatus = Riscv::r_sstatus();
 1571              		.loc 1 326 54
 1572 08e8 2334E4FA 		sd	a4,-88(s0)
 327:src/kernel/Riscv.cpp **** 
 1573              		.loc 1 327 13 is_stmt 1
 1574              	.LBB93:
 1575              	.LBB94:
 214:src/kernel/../../h/Riscv.hpp ****     __asm__ volatile("csrr %0, sstatus" : "=r"(sstatus));
 1576              		.loc 2 214 5
 215:src/kernel/../../h/Riscv.hpp ****     return sstatus;
 1577              		.loc 2 215 5
 215:src/kernel/../../h/Riscv.hpp ****     return sstatus;
 1578              		.loc 2 215 57 is_stmt 0
 1579              	#APP
 1580              	# 215 "src/kernel/../../h/Riscv.hpp" 1
 1581              		csrr a4, sstatus
 1582              	# 0 "" 2
 1583              	#NO_APP
 1584 08f0 2338E4FC 		sd	a4,-48(s0)
 216:src/kernel/../../h/Riscv.hpp **** }
 1585              		.loc 2 216 5 is_stmt 1
GAS LISTING /tmp/ccTG7hDV.s 			page 46


 216:src/kernel/../../h/Riscv.hpp **** }
 1586              		.loc 2 216 12 is_stmt 0
 1587 08f4 033704FD 		ld	a4,-48(s0)
 1588              	.LBE94:
 1589              	.LBE93:
 327:src/kernel/Riscv.cpp **** 
 1590              		.loc 1 327 56
 1591 08f8 2338E4FA 		sd	a4,-80(s0)
 329:src/kernel/Riscv.cpp ****             {
 1592              		.loc 1 329 13 is_stmt 1
 1593 08fc 13073004 		li	a4,67
 1594 0900 6364F702 		bgtu	a5,a4,.L72
 1595 0904 93972700 		slli	a5,a5,2
 1596              	.LVL132:
 1597 0908 17070000 		lla	a4,.L74
 1597      13070700 
 1598 0910 B387E700 		add	a5,a5,a4
 1599 0914 83A70700 		lw	a5,0(a5)
 1600 0918 B387E700 		add	a5,a5,a4
 1601 091c 67800700 		jr	a5
 1602              		.section	.rodata
 1603              		.align	2
 1604              		.align	2
 1605              	.L74:
 1606 0040 00000000 		.word	.L72-.L74
 1607 0044 00000000 		.word	.L89-.L74
 1608 0048 00000000 		.word	.L88-.L74
 1609 004c 00000000 		.word	.L72-.L74
 1610 0050 00000000 		.word	.L72-.L74
 1611 0054 00000000 		.word	.L72-.L74
 1612 0058 00000000 		.word	.L72-.L74
 1613 005c 00000000 		.word	.L72-.L74
 1614 0060 00000000 		.word	.L72-.L74
 1615 0064 00000000 		.word	.L72-.L74
 1616 0068 00000000 		.word	.L72-.L74
 1617 006c 00000000 		.word	.L72-.L74
 1618 0070 00000000 		.word	.L72-.L74
 1619 0074 00000000 		.word	.L72-.L74
 1620 0078 00000000 		.word	.L72-.L74
 1621 007c 00000000 		.word	.L72-.L74
 1622 0080 00000000 		.word	.L72-.L74
 1623 0084 00000000 		.word	.L87-.L74
 1624 0088 00000000 		.word	.L86-.L74
 1625 008c 00000000 		.word	.L85-.L74
 1626 0090 00000000 		.word	.L84-.L74
 1627 0094 00000000 		.word	.L83-.L74
 1628 0098 00000000 		.word	.L82-.L74
 1629 009c 00000000 		.word	.L72-.L74
 1630 00a0 00000000 		.word	.L72-.L74
 1631 00a4 00000000 		.word	.L72-.L74
 1632 00a8 00000000 		.word	.L72-.L74
 1633 00ac 00000000 		.word	.L72-.L74
 1634 00b0 00000000 		.word	.L72-.L74
 1635 00b4 00000000 		.word	.L72-.L74
 1636 00b8 00000000 		.word	.L72-.L74
 1637 00bc 00000000 		.word	.L72-.L74
 1638 00c0 00000000 		.word	.L72-.L74
GAS LISTING /tmp/ccTG7hDV.s 			page 47


 1639 00c4 00000000 		.word	.L81-.L74
 1640 00c8 00000000 		.word	.L80-.L74
 1641 00cc 00000000 		.word	.L79-.L74
 1642 00d0 00000000 		.word	.L78-.L74
 1643 00d4 00000000 		.word	.L72-.L74
 1644 00d8 00000000 		.word	.L72-.L74
 1645 00dc 00000000 		.word	.L72-.L74
 1646 00e0 00000000 		.word	.L72-.L74
 1647 00e4 00000000 		.word	.L72-.L74
 1648 00e8 00000000 		.word	.L72-.L74
 1649 00ec 00000000 		.word	.L72-.L74
 1650 00f0 00000000 		.word	.L72-.L74
 1651 00f4 00000000 		.word	.L72-.L74
 1652 00f8 00000000 		.word	.L72-.L74
 1653 00fc 00000000 		.word	.L72-.L74
 1654 0100 00000000 		.word	.L72-.L74
 1655 0104 00000000 		.word	.L77-.L74
 1656 0108 00000000 		.word	.L72-.L74
 1657 010c 00000000 		.word	.L72-.L74
 1658 0110 00000000 		.word	.L72-.L74
 1659 0114 00000000 		.word	.L72-.L74
 1660 0118 00000000 		.word	.L72-.L74
 1661 011c 00000000 		.word	.L72-.L74
 1662 0120 00000000 		.word	.L72-.L74
 1663 0124 00000000 		.word	.L72-.L74
 1664 0128 00000000 		.word	.L72-.L74
 1665 012c 00000000 		.word	.L72-.L74
 1666 0130 00000000 		.word	.L72-.L74
 1667 0134 00000000 		.word	.L72-.L74
 1668 0138 00000000 		.word	.L72-.L74
 1669 013c 00000000 		.word	.L72-.L74
 1670 0140 00000000 		.word	.L72-.L74
 1671 0144 00000000 		.word	.L76-.L74
 1672 0148 00000000 		.word	.L75-.L74
 1673 014c 00000000 		.word	.L73-.L74
 1674              		.text
 1675              	.L89:
 331:src/kernel/Riscv.cpp ****                     MemoryAllocator::memAllocHandler();
 1676              		.loc 1 331 17
 332:src/kernel/Riscv.cpp ****                     break;
 1677              		.loc 1 332 21
 332:src/kernel/Riscv.cpp ****                     break;
 1678              		.loc 1 332 53 is_stmt 0
 1679 0920 97000000 		call	_ZN15MemoryAllocator15memAllocHandlerEv@plt
 1679      E7800000 
 1680              	.LVL133:
 333:src/kernel/Riscv.cpp ****                 case MemoryAllocator::MEM_FREE:
 1681              		.loc 1 333 21 is_stmt 1
 1682              	.L72:
 381:src/kernel/Riscv.cpp ****             Riscv::w_sepc(sepc);
 1683              		.loc 1 381 13
 381:src/kernel/Riscv.cpp ****             Riscv::w_sepc(sepc);
 1684              		.loc 1 381 29 is_stmt 0
 1685 0928 833704FB 		ld	a5,-80(s0)
 1686              	.LVL134:
 1687              	.LBB95:
 1688              	.LBB96:
GAS LISTING /tmp/ccTG7hDV.s 			page 48


 220:src/kernel/../../h/Riscv.hpp **** }
 1689              		.loc 2 220 5 is_stmt 1
 220:src/kernel/../../h/Riscv.hpp **** }
 1690              		.loc 2 220 57 is_stmt 0
 1691              	#APP
 1692              	# 220 "src/kernel/../../h/Riscv.hpp" 1
 1693              		csrw sstatus, a5
 1694              	# 0 "" 2
 1695              	.LVL135:
 1696              	#NO_APP
 1697              	.LBE96:
 1698              	.LBE95:
 382:src/kernel/Riscv.cpp ****             changePrivMode();
 1699              		.loc 1 382 13 is_stmt 1
 382:src/kernel/Riscv.cpp ****             changePrivMode();
 1700              		.loc 1 382 26 is_stmt 0
 1701 0930 833784FA 		ld	a5,-88(s0)
 1702              	.LVL136:
 1703              	.LBB97:
 1704              	.LBB98:
 147:src/kernel/../../h/Riscv.hpp **** }
 1705              		.loc 2 147 5 is_stmt 1
 147:src/kernel/../../h/Riscv.hpp **** }
 1706              		.loc 2 147 51 is_stmt 0
 1707              	#APP
 1708              	# 147 "src/kernel/../../h/Riscv.hpp" 1
 1709              		csrw sepc, a5
 1710              	# 0 "" 2
 1711              	.LVL137:
 1712              	#NO_APP
 1713              	.LBE98:
 1714              	.LBE97:
 383:src/kernel/Riscv.cpp ****             break;
 1715              		.loc 1 383 13 is_stmt 1
 383:src/kernel/Riscv.cpp ****             break;
 1716              		.loc 1 383 27 is_stmt 0
 1717 0938 97000000 		call	_ZN5Riscv14changePrivModeEv
 1717      E7800000 
 1718              	.LVL138:
 384:src/kernel/Riscv.cpp ****         }
 1719              		.loc 1 384 13 is_stmt 1
 1720              	.LBE90:
 1721              	.LBE100:
 1722              	.LBE102:
 1723              		.loc 1 387 1 is_stmt 0
 1724 0940 6FF0DFF4 		j	.L58
 1725              	.L88:
 1726              	.LBB103:
 1727              	.LBB101:
 1728              	.LBB99:
 334:src/kernel/Riscv.cpp ****                     MemoryAllocator::memFreeHandler();
 1729              		.loc 1 334 17 is_stmt 1
 335:src/kernel/Riscv.cpp ****                     break;
 1730              		.loc 1 335 21
 335:src/kernel/Riscv.cpp ****                     break;
 1731              		.loc 1 335 52 is_stmt 0
 1732 0944 97000000 		call	_ZN15MemoryAllocator14memFreeHandlerEv@plt
GAS LISTING /tmp/ccTG7hDV.s 			page 49


 1732      E7800000 
 1733              	.LVL139:
 336:src/kernel/Riscv.cpp ****                 case PCB::THREAD_MAKE_PCB:
 1734              		.loc 1 336 21 is_stmt 1
 1735 094c 6FF0DFFD 		j	.L72
 1736              	.L84:
 337:src/kernel/Riscv.cpp ****                     PCB::threadMakePCBHandler();
 1737              		.loc 1 337 17
 338:src/kernel/Riscv.cpp ****                     break;
 1738              		.loc 1 338 21
 338:src/kernel/Riscv.cpp ****                     break;
 1739              		.loc 1 338 46 is_stmt 0
 1740 0950 97000000 		call	_ZN3PCB20threadMakePCBHandlerEv@plt
 1740      E7800000 
 1741              	.LVL140:
 339:src/kernel/Riscv.cpp ****                 case PCB::THREAD_CREATE:
 1742              		.loc 1 339 21 is_stmt 1
 1743 0958 6FF01FFD 		j	.L72
 1744              	.L87:
 340:src/kernel/Riscv.cpp ****                     PCB::threadCreateHandler();
 1745              		.loc 1 340 17
 341:src/kernel/Riscv.cpp ****                     break;
 1746              		.loc 1 341 21
 341:src/kernel/Riscv.cpp ****                     break;
 1747              		.loc 1 341 45 is_stmt 0
 1748 095c 97000000 		call	_ZN3PCB19threadCreateHandlerEv@plt
 1748      E7800000 
 1749              	.LVL141:
 342:src/kernel/Riscv.cpp ****                 case PCB::THREAD_START:
 1750              		.loc 1 342 21 is_stmt 1
 1751 0964 6FF05FFC 		j	.L72
 1752              	.L83:
 343:src/kernel/Riscv.cpp ****                     PCB::threadStartHandler();
 1753              		.loc 1 343 17
 344:src/kernel/Riscv.cpp ****                     break;
 1754              		.loc 1 344 21
 344:src/kernel/Riscv.cpp ****                     break;
 1755              		.loc 1 344 44 is_stmt 0
 1756 0968 97000000 		call	_ZN3PCB18threadStartHandlerEv@plt
 1756      E7800000 
 1757              	.LVL142:
 345:src/kernel/Riscv.cpp ****                 case PCB::THREAD_DISPATCH:
 1758              		.loc 1 345 21 is_stmt 1
 1759 0970 6FF09FFB 		j	.L72
 1760              	.L85:
 346:src/kernel/Riscv.cpp ****                     PCB::threadDispatchHandler();
 1761              		.loc 1 346 17
 347:src/kernel/Riscv.cpp ****                     break;
 1762              		.loc 1 347 21
 347:src/kernel/Riscv.cpp ****                     break;
 1763              		.loc 1 347 47 is_stmt 0
 1764 0974 97000000 		call	_ZN3PCB21threadDispatchHandlerEv@plt
 1764      E7800000 
 1765              	.LVL143:
 348:src/kernel/Riscv.cpp ****                 case PCB::THREAD_EXIT:
 1766              		.loc 1 348 21 is_stmt 1
 1767 097c 6FF0DFFA 		j	.L72
GAS LISTING /tmp/ccTG7hDV.s 			page 50


 1768              	.L86:
 349:src/kernel/Riscv.cpp ****                     PCB::threadExitHandler();
 1769              		.loc 1 349 17
 350:src/kernel/Riscv.cpp ****                     break;
 1770              		.loc 1 350 21
 350:src/kernel/Riscv.cpp ****                     break;
 1771              		.loc 1 350 43 is_stmt 0
 1772 0980 97000000 		call	_ZN3PCB17threadExitHandlerEv@plt
 1772      E7800000 
 1773              	.LVL144:
 351:src/kernel/Riscv.cpp ****                 case PCB::TIME_SLEEP:
 1774              		.loc 1 351 21 is_stmt 1
 1775 0988 6FF01FFA 		j	.L72
 1776              	.L77:
 352:src/kernel/Riscv.cpp ****                     PCB::threadSleepHandler();
 1777              		.loc 1 352 17
 353:src/kernel/Riscv.cpp ****                     break;
 1778              		.loc 1 353 21
 353:src/kernel/Riscv.cpp ****                     break;
 1779              		.loc 1 353 44 is_stmt 0
 1780 098c 97000000 		call	_ZN3PCB18threadSleepHandlerEv@plt
 1780      E7800000 
 1781              	.LVL145:
 354:src/kernel/Riscv.cpp ****                 case PCB::THREAD_DEL_PCB:
 1782              		.loc 1 354 21 is_stmt 1
 1783 0994 6FF05FF9 		j	.L72
 1784              	.L82:
 355:src/kernel/Riscv.cpp ****                     PCB::threadDelPCBHandler();
 1785              		.loc 1 355 17
 356:src/kernel/Riscv.cpp ****                     break;
 1786              		.loc 1 356 21
 356:src/kernel/Riscv.cpp ****                     break;
 1787              		.loc 1 356 45 is_stmt 0
 1788 0998 97000000 		call	_ZN3PCB19threadDelPCBHandlerEv@plt
 1788      E7800000 
 1789              	.LVL146:
 357:src/kernel/Riscv.cpp ****                 case KSemaphore::SEM_OPEN:
 1790              		.loc 1 357 21 is_stmt 1
 1791 09a0 6FF09FF8 		j	.L72
 1792              	.L81:
 358:src/kernel/Riscv.cpp ****                     KSemaphore::semOpenHandler();
 1793              		.loc 1 358 17
 359:src/kernel/Riscv.cpp ****                     break;
 1794              		.loc 1 359 21
 359:src/kernel/Riscv.cpp ****                     break;
 1795              		.loc 1 359 47 is_stmt 0
 1796 09a4 97000000 		call	_ZN10KSemaphore14semOpenHandlerEv@plt
 1796      E7800000 
 1797              	.LVL147:
 360:src/kernel/Riscv.cpp ****                 case KSemaphore::SEM_WAIT:
 1798              		.loc 1 360 21 is_stmt 1
 1799 09ac 6FF0DFF7 		j	.L72
 1800              	.L79:
 361:src/kernel/Riscv.cpp ****                     KSemaphore::semWaitHandler();
 1801              		.loc 1 361 17
 362:src/kernel/Riscv.cpp ****                     break;
 1802              		.loc 1 362 21
GAS LISTING /tmp/ccTG7hDV.s 			page 51


 362:src/kernel/Riscv.cpp ****                     break;
 1803              		.loc 1 362 47 is_stmt 0
 1804 09b0 97000000 		call	_ZN10KSemaphore14semWaitHandlerEv@plt
 1804      E7800000 
 1805              	.LVL148:
 363:src/kernel/Riscv.cpp ****                 case KSemaphore::SEM_SIGNAL:
 1806              		.loc 1 363 21 is_stmt 1
 1807 09b8 6FF01FF7 		j	.L72
 1808              	.L78:
 364:src/kernel/Riscv.cpp ****                     KSemaphore::semSignalHandler();
 1809              		.loc 1 364 17
 365:src/kernel/Riscv.cpp ****                     break;
 1810              		.loc 1 365 21
 365:src/kernel/Riscv.cpp ****                     break;
 1811              		.loc 1 365 49 is_stmt 0
 1812 09bc 97000000 		call	_ZN10KSemaphore16semSignalHandlerEv@plt
 1812      E7800000 
 1813              	.LVL149:
 366:src/kernel/Riscv.cpp ****                 case KSemaphore::SEM_CLOSE:
 1814              		.loc 1 366 21 is_stmt 1
 1815 09c4 6FF05FF6 		j	.L72
 1816              	.L80:
 367:src/kernel/Riscv.cpp ****                     KSemaphore::semCloseHandler();
 1817              		.loc 1 367 17
 368:src/kernel/Riscv.cpp ****                     break;
 1818              		.loc 1 368 21
 368:src/kernel/Riscv.cpp ****                     break;
 1819              		.loc 1 368 48 is_stmt 0
 1820 09c8 97000000 		call	_ZN10KSemaphore15semCloseHandlerEv@plt
 1820      E7800000 
 1821              	.LVL150:
 369:src/kernel/Riscv.cpp ****                 case KConsole::CONSOLE_GETC:
 1822              		.loc 1 369 21 is_stmt 1
 1823 09d0 6FF09FF5 		j	.L72
 1824              	.L76:
 370:src/kernel/Riscv.cpp ****                     KConsole::getcHandler();
 1825              		.loc 1 370 17
 371:src/kernel/Riscv.cpp ****                     break;
 1826              		.loc 1 371 21
 371:src/kernel/Riscv.cpp ****                     break;
 1827              		.loc 1 371 42 is_stmt 0
 1828 09d4 97000000 		call	_ZN8KConsole11getcHandlerEv@plt
 1828      E7800000 
 1829              	.LVL151:
 372:src/kernel/Riscv.cpp ****                 case KConsole::CONSOLE_PUTC:
 1830              		.loc 1 372 21 is_stmt 1
 1831 09dc 6FF0DFF4 		j	.L72
 1832              	.L75:
 373:src/kernel/Riscv.cpp ****                     KConsole::putcHandler();
 1833              		.loc 1 373 17
 374:src/kernel/Riscv.cpp ****                     break;
 1834              		.loc 1 374 21
 374:src/kernel/Riscv.cpp ****                     break;
 1835              		.loc 1 374 42 is_stmt 0
 1836 09e0 97000000 		call	_ZN8KConsole11putcHandlerEv@plt
 1836      E7800000 
 1837              	.LVL152:
GAS LISTING /tmp/ccTG7hDV.s 			page 52


 375:src/kernel/Riscv.cpp ****                 case KConsole::CONSOLE_GET_CHAR:
 1838              		.loc 1 375 21 is_stmt 1
 1839 09e8 6FF01FF4 		j	.L72
 1840              	.L73:
 376:src/kernel/Riscv.cpp ****                     KConsole::getCharHandler();
 1841              		.loc 1 376 17
 377:src/kernel/Riscv.cpp ****                     break;
 1842              		.loc 1 377 21
 377:src/kernel/Riscv.cpp ****                     break;
 1843              		.loc 1 377 45 is_stmt 0
 1844 09ec 97000000 		call	_ZN8KConsole14getCharHandlerEv@plt
 1844      E7800000 
 1845              	.LVL153:
 378:src/kernel/Riscv.cpp ****             }
 1846              		.loc 1 378 21 is_stmt 1
 1847 09f4 6FF05FF3 		j	.L72
 1848              	.LBE99:
 1849              	.LBE101:
 1850              	.LBE103:
 1851              		.cfi_endproc
 1852              	.LFE41:
 1854              		.globl	_ZN5Riscv16programStartAddrE
 1855              		.globl	_ZN5Riscv10riscvBuddyE
 1856              		.globl	_ZN5Riscv7mainPMTE
 1857              		.globl	_ZN5Riscv14semaphoreCacheE
 1858              		.globl	_ZN5Riscv8pcbCacheE
 1859              		.globl	_ZN5Riscv16kernelMainCalledE
 1860              		.globl	_ZN5Riscv12finishSystemE
 1861              		.globl	_ZN5Riscv9totalTimeE
 1862              		.data
 1863              		.align	3
 1864              		.set	.LANCHOR1,. + 0
 1867              	_ZN5Riscv16programStartAddrE:
 1868 0000 00000080 		.dword	2147483648
 1868      00000000 
 1869              		.bss
 1870              		.align	3
 1871              		.set	.LANCHOR0,. + 0
 1874              	_ZN5Riscv12finishSystemE:
 1875 0000 00       		.zero	1
 1876 0001 00000000 		.zero	7
 1876      000000
 1879              	_ZN5Riscv7mainPMTE:
 1880 0008 00000000 		.zero	8
 1880      00000000 
 1883              	_ZN5Riscv10riscvBuddyE:
 1884 0010 00000000 		.zero	8
 1884      00000000 
 1887              	_ZN5Riscv8pcbCacheE:
 1888 0018 00000000 		.zero	8
 1888      00000000 
 1891              	_ZN5Riscv14semaphoreCacheE:
 1892 0020 00000000 		.zero	8
 1892      00000000 
 1895              	_ZN5Riscv16kernelMainCalledE:
 1896 0028 00       		.zero	1
 1897 0029 00000000 		.zero	7
GAS LISTING /tmp/ccTG7hDV.s 			page 53


 1897      000000
 1900              	_ZN5Riscv9totalTimeE:
 1901 0030 00000000 		.zero	8
 1901      00000000 
 1902              		.text
 1903              	.Letext0:
 1904              		.file 4 "src/kernel/../../h/../lib/hw.h"
 1905              		.file 5 "src/kernel/../../h/slabAllocator.hpp"
 1906              		.file 6 "src/kernel/../../h/MemoryAllocator.hpp"
 1907              		.file 7 "src/kernel/../../h/SleepPCBList.hpp"
 1908              		.file 8 "src/kernel/../../h/KSemaphore.hpp"
 1909              		.file 9 "src/kernel/../../h/KConsole.hpp"
 1910              		.file 10 "src/kernel/../../h/Scheduler.hpp"
 1911              		.file 11 "src/kernel/../../h/buddyAllocator.hpp"
 1912              		.file 12 "src/kernel/../../h/syscall_c_kernel.hpp"
GAS LISTING /tmp/ccTG7hDV.s 			page 54


DEFINED SYMBOLS
                            *ABS*:0000000000000000 Riscv.cpp
     /tmp/ccTG7hDV.s:9      .text:0000000000000000 _ZN5Riscv17initVirtualMemoryEv
     /tmp/ccTG7hDV.s:13     .text:0000000000000000 .L0 
     /tmp/ccTG7hDV.s:14     .text:0000000000000000 .L0 
     /tmp/ccTG7hDV.s:15     .text:0000000000000004 .L0 
     /tmp/ccTG7hDV.s:17     .text:0000000000000008 .L0 
     /tmp/ccTG7hDV.s:19     .text:000000000000000c .L0 
     /tmp/ccTG7hDV.s:21     .text:000000000000000c .L0 
     /tmp/ccTG7hDV.s:22     .text:0000000000000010 .L0 
     /tmp/ccTG7hDV.s:23     .text:0000000000000010 .L0 
     /tmp/ccTG7hDV.s:25     .text:0000000000000014 .L0 
     /tmp/ccTG7hDV.s:27     .text:0000000000000018 .L0 
     /tmp/ccTG7hDV.s:33     .text:0000000000000018 _ZN5Riscv16enableInterruptsEv
     /tmp/ccTG7hDV.s:36     .text:0000000000000018 .L0 
     /tmp/ccTG7hDV.s:37     .text:0000000000000018 .L0 
     /tmp/ccTG7hDV.s:38     .text:000000000000001c .L0 
     /tmp/ccTG7hDV.s:40     .text:0000000000000020 .L0 
     /tmp/ccTG7hDV.s:42     .text:0000000000000024 .L0 
     /tmp/ccTG7hDV.s:48     .text:0000000000000024 .L0 
     /tmp/ccTG7hDV.s:49     .text:0000000000000024 .L0 
     /tmp/ccTG7hDV.s:50     .text:0000000000000024 .L0 
     /tmp/ccTG7hDV.s:60     .text:000000000000002c .L0 
     /tmp/ccTG7hDV.s:61     .text:0000000000000030 .L0 
     /tmp/ccTG7hDV.s:62     .text:0000000000000030 .L0 
     /tmp/ccTG7hDV.s:64     .text:0000000000000034 .L0 
     /tmp/ccTG7hDV.s:66     .text:0000000000000038 .L0 
     /tmp/ccTG7hDV.s:72     .text:0000000000000038 _ZN5Riscv17disableInterruptsEv
     /tmp/ccTG7hDV.s:75     .text:0000000000000038 .L0 
     /tmp/ccTG7hDV.s:76     .text:0000000000000038 .L0 
     /tmp/ccTG7hDV.s:77     .text:000000000000003c .L0 
     /tmp/ccTG7hDV.s:79     .text:0000000000000040 .L0 
     /tmp/ccTG7hDV.s:81     .text:0000000000000044 .L0 
     /tmp/ccTG7hDV.s:86     .text:0000000000000044 .L0 
     /tmp/ccTG7hDV.s:87     .text:0000000000000044 .L0 
     /tmp/ccTG7hDV.s:88     .text:0000000000000044 .L0 
     /tmp/ccTG7hDV.s:98     .text:000000000000004c .L0 
     /tmp/ccTG7hDV.s:99     .text:0000000000000050 .L0 
     /tmp/ccTG7hDV.s:100    .text:0000000000000050 .L0 
     /tmp/ccTG7hDV.s:102    .text:0000000000000054 .L0 
     /tmp/ccTG7hDV.s:104    .text:0000000000000058 .L0 
     /tmp/ccTG7hDV.s:110    .text:0000000000000058 _ZN5Riscv9endSystemEv
     /tmp/ccTG7hDV.s:113    .text:0000000000000058 .L0 
     /tmp/ccTG7hDV.s:114    .text:0000000000000058 .L0 
     /tmp/ccTG7hDV.s:115    .text:000000000000005c .L0 
     /tmp/ccTG7hDV.s:118    .text:0000000000000064 .L0 
     /tmp/ccTG7hDV.s:119    .text:0000000000000064 .L0 
     /tmp/ccTG7hDV.s:121    .text:0000000000000068 .L0 
     /tmp/ccTG7hDV.s:123    .text:0000000000000068 .L0 
     /tmp/ccTG7hDV.s:124    .text:0000000000000068 .L0 
     /tmp/ccTG7hDV.s:127    .text:0000000000000070 .L0 
     /tmp/ccTG7hDV.s:128    .text:0000000000000070 .L0 
     /tmp/ccTG7hDV.s:133    .text:000000000000007c .L0 
     /tmp/ccTG7hDV.s:134    .text:000000000000007c .L0 
     /tmp/ccTG7hDV.s:135    .text:000000000000007c .L0 
     /tmp/ccTG7hDV.s:136    .text:000000000000007c .L0 
     /tmp/ccTG7hDV.s:139    .text:0000000000000084 .L0 
GAS LISTING /tmp/ccTG7hDV.s 			page 55


     /tmp/ccTG7hDV.s:141    .text:0000000000000088 .L0 
     /tmp/ccTG7hDV.s:142    .text:0000000000000088 .L0 
     /tmp/ccTG7hDV.s:148    .text:000000000000009c .L0 
     /tmp/ccTG7hDV.s:149    .text:000000000000009c .L0 
     /tmp/ccTG7hDV.s:152    .text:00000000000000a8 .L0 
     /tmp/ccTG7hDV.s:153    .text:00000000000000a8 .L0 
     /tmp/ccTG7hDV.s:157    .text:00000000000000b0 .L0 
     /tmp/ccTG7hDV.s:158    .text:00000000000000b0 .L0 
     /tmp/ccTG7hDV.s:159    .text:00000000000000b0 .L0 
     /tmp/ccTG7hDV.s:164    .text:00000000000000c4 .L0 
     /tmp/ccTG7hDV.s:166    .text:00000000000000c8 .L0 
     /tmp/ccTG7hDV.s:167    .text:00000000000000c8 .L0 
     /tmp/ccTG7hDV.s:170    .text:00000000000000d0 .L0 
     /tmp/ccTG7hDV.s:173    .text:00000000000000d4 .L0 
     /tmp/ccTG7hDV.s:174    .text:00000000000000d4 .L0 
     /tmp/ccTG7hDV.s:177    .text:00000000000000dc .L0 
     /tmp/ccTG7hDV.s:178    .text:00000000000000e0 .L0 
     /tmp/ccTG7hDV.s:180    .text:00000000000000e4 .L0 
     /tmp/ccTG7hDV.s:181    .text:00000000000000e4 .L0 
     /tmp/ccTG7hDV.s:183    .text:00000000000000e8 .L0 
     /tmp/ccTG7hDV.s:185    .text:00000000000000ec .L0 
     /tmp/ccTG7hDV.s:191    .text:00000000000000ec _ZN5Riscv10popSppSpieEv
     /tmp/ccTG7hDV.s:194    .text:00000000000000ec .L0 
     /tmp/ccTG7hDV.s:195    .text:00000000000000ec .L0 
     /tmp/ccTG7hDV.s:196    .text:00000000000000f0 .L0 
     /tmp/ccTG7hDV.s:198    .text:00000000000000f4 .L0 
     /tmp/ccTG7hDV.s:200    .text:00000000000000f8 .L0 
     /tmp/ccTG7hDV.s:203    .text:00000000000000f8 .L0 
     /tmp/ccTG7hDV.s:204    .text:00000000000000f8 .L0 
     /tmp/ccTG7hDV.s:208    .text:0000000000000108 .L0 
     /tmp/ccTG7hDV.s:210    .text:000000000000010c .L0 
src/kernel/Riscv.cpp:153    .text:000000000000010c .L0 
     /tmp/ccTG7hDV.s:216    .text:0000000000000110 .L0 
src/kernel/Riscv.cpp:154    .text:0000000000000110 .L0 
     /tmp/ccTG7hDV.s:224    .text:0000000000000114 .L0 
     /tmp/ccTG7hDV.s:225    .text:0000000000000118 .L0 
     /tmp/ccTG7hDV.s:226    .text:0000000000000118 .L0 
     /tmp/ccTG7hDV.s:227    .text:0000000000000118 .L0 
     /tmp/ccTG7hDV.s:229    .text:000000000000011c .L0 
     /tmp/ccTG7hDV.s:232    .text:0000000000000120 .L0 
     /tmp/ccTG7hDV.s:237    .text:0000000000000120 .L0 
     /tmp/ccTG7hDV.s:238    .text:0000000000000120 .L0 
     /tmp/ccTG7hDV.s:239    .text:0000000000000120 .L0 
src/kernel/Riscv.cpp:159    .text:0000000000000124 .L0 
     /tmp/ccTG7hDV.s:246    .text:0000000000000128 .L0 
     /tmp/ccTG7hDV.s:248    .text:0000000000000128 .L0 
src/kernel/Riscv.cpp:160    .text:000000000000012c .L0 
     /tmp/ccTG7hDV.s:255    .text:0000000000000130 .L0 
     /tmp/ccTG7hDV.s:257    .text:0000000000000130 .L0 
     /tmp/ccTG7hDV.s:263    .text:000000000000013c .L0 
src/kernel/Riscv.cpp:162    .text:000000000000013c .L0 
     /tmp/ccTG7hDV.s:271    .text:0000000000000140 .L0 
     /tmp/ccTG7hDV.s:272    .text:0000000000000144 .L0 
     /tmp/ccTG7hDV.s:278    .text:0000000000000144 _ZN5Riscv14setVirtualAddrEmmm
     /tmp/ccTG7hDV.s:281    .text:0000000000000144 .L0 
     /tmp/ccTG7hDV.s:283    .text:0000000000000144 .L0 
     /tmp/ccTG7hDV.s:284    .text:0000000000000148 .L0 
GAS LISTING /tmp/ccTG7hDV.s 			page 56


     /tmp/ccTG7hDV.s:294    .text:000000000000016c .L0 
     /tmp/ccTG7hDV.s:295    .text:000000000000016c .L0 
     /tmp/ccTG7hDV.s:296    .text:000000000000016c .L0 
     /tmp/ccTG7hDV.s:297    .text:000000000000016c .L0 
     /tmp/ccTG7hDV.s:298    .text:000000000000016c .L0 
     /tmp/ccTG7hDV.s:299    .text:000000000000016c .L0 
     /tmp/ccTG7hDV.s:300    .text:000000000000016c .L0 
     /tmp/ccTG7hDV.s:301    .text:000000000000016c .L0 
     /tmp/ccTG7hDV.s:302    .text:000000000000016c .L0 
     /tmp/ccTG7hDV.s:304    .text:0000000000000170 .L0 
     /tmp/ccTG7hDV.s:308    .text:0000000000000178 .L0 
     /tmp/ccTG7hDV.s:309    .text:0000000000000178 .L0 
     /tmp/ccTG7hDV.s:312    .text:000000000000017c .L0 
     /tmp/ccTG7hDV.s:313    .text:000000000000017c .L0 
     /tmp/ccTG7hDV.s:315    .text:0000000000000180 .L0 
     /tmp/ccTG7hDV.s:318    .text:0000000000000184 .L0 
     /tmp/ccTG7hDV.s:319    .text:0000000000000184 .L0 
     /tmp/ccTG7hDV.s:321    .text:0000000000000188 .L0 
     /tmp/ccTG7hDV.s:324    .text:000000000000018c .L0 
     /tmp/ccTG7hDV.s:325    .text:000000000000018c .L0 
     /tmp/ccTG7hDV.s:330    .text:000000000000019c .L0 
     /tmp/ccTG7hDV.s:333    .text:00000000000001a0 .L0 
     /tmp/ccTG7hDV.s:335    .text:00000000000001a0 .L0 
     /tmp/ccTG7hDV.s:337    .text:00000000000001a4 .L0 
     /tmp/ccTG7hDV.s:338    .text:00000000000001a4 .L0 
     /tmp/ccTG7hDV.s:341    .text:00000000000001a8 .L0 
     /tmp/ccTG7hDV.s:346    .text:00000000000001ac .L0 
     /tmp/ccTG7hDV.s:347    .text:00000000000001ac .L0 
     /tmp/ccTG7hDV.s:350    .text:00000000000001b4 .L0 
     /tmp/ccTG7hDV.s:353    .text:00000000000001b8 .L0 
     /tmp/ccTG7hDV.s:355    .text:00000000000001b8 .L0 
     /tmp/ccTG7hDV.s:357    .text:00000000000001bc .L0 
     /tmp/ccTG7hDV.s:358    .text:00000000000001bc .L0 
     /tmp/ccTG7hDV.s:361    .text:00000000000001c0 .L0 
     /tmp/ccTG7hDV.s:366    .text:00000000000001c4 .L0 
     /tmp/ccTG7hDV.s:367    .text:00000000000001c4 .L0 
     /tmp/ccTG7hDV.s:372    .text:00000000000001cc .L0 
     /tmp/ccTG7hDV.s:375    .text:00000000000001d0 .L0 
     /tmp/ccTG7hDV.s:377    .text:00000000000001d4 .L0 
     /tmp/ccTG7hDV.s:378    .text:00000000000001d4 .L0 
     /tmp/ccTG7hDV.s:381    .text:00000000000001d8 .L0 
     /tmp/ccTG7hDV.s:384    .text:00000000000001dc .L0 
     /tmp/ccTG7hDV.s:387    .text:00000000000001e0 .L0 
     /tmp/ccTG7hDV.s:388    .text:00000000000001e4 .L0 
     /tmp/ccTG7hDV.s:389    .text:00000000000001e4 .L0 
     /tmp/ccTG7hDV.s:391    .text:00000000000001e8 .L0 
     /tmp/ccTG7hDV.s:392    .text:00000000000001e8 .L0 
     /tmp/ccTG7hDV.s:394    .text:00000000000001ec .L0 
     /tmp/ccTG7hDV.s:396    .text:00000000000001f0 .L0 
     /tmp/ccTG7hDV.s:398    .text:00000000000001f4 .L0 
     /tmp/ccTG7hDV.s:400    .text:00000000000001f8 .L0 
     /tmp/ccTG7hDV.s:402    .text:00000000000001fc .L0 
     /tmp/ccTG7hDV.s:404    .text:0000000000000200 .L0 
     /tmp/ccTG7hDV.s:407    .text:0000000000000204 .L0 
     /tmp/ccTG7hDV.s:409    .text:0000000000000208 .L0 
     /tmp/ccTG7hDV.s:413    .text:000000000000020c .L0 
     /tmp/ccTG7hDV.s:417    .text:000000000000020c .L0 
GAS LISTING /tmp/ccTG7hDV.s 			page 57


     /tmp/ccTG7hDV.s:418    .text:000000000000020c .L0 
     /tmp/ccTG7hDV.s:426    .text:0000000000000220 .L0 
     /tmp/ccTG7hDV.s:427    .text:0000000000000220 .L0 
     /tmp/ccTG7hDV.s:431    .text:0000000000000224 .L0 
     /tmp/ccTG7hDV.s:434    .text:000000000000022c .L0 
     /tmp/ccTG7hDV.s:435    .text:000000000000022c .L0 
     /tmp/ccTG7hDV.s:438    .text:0000000000000234 .L0 
     /tmp/ccTG7hDV.s:440    .text:0000000000000238 .L0 
     /tmp/ccTG7hDV.s:447    .text:0000000000000240 .L0 
     /tmp/ccTG7hDV.s:448    .text:0000000000000240 .L0 
     /tmp/ccTG7hDV.s:451    .text:0000000000000244 .L0 
     /tmp/ccTG7hDV.s:453    .text:0000000000000248 .L0 
     /tmp/ccTG7hDV.s:456    .text:000000000000024c .L0 
     /tmp/ccTG7hDV.s:457    .text:000000000000024c .L0 
     /tmp/ccTG7hDV.s:459    .text:0000000000000254 .L0 
     /tmp/ccTG7hDV.s:461    .text:0000000000000258 .L0 
     /tmp/ccTG7hDV.s:470    .text:0000000000000260 .L0 
     /tmp/ccTG7hDV.s:471    .text:0000000000000260 .L0 
     /tmp/ccTG7hDV.s:478    .text:0000000000000274 .L0 
     /tmp/ccTG7hDV.s:479    .text:0000000000000274 .L0 
     /tmp/ccTG7hDV.s:483    .text:0000000000000278 .L0 
     /tmp/ccTG7hDV.s:486    .text:0000000000000280 .L0 
     /tmp/ccTG7hDV.s:487    .text:0000000000000280 .L0 
     /tmp/ccTG7hDV.s:490    .text:0000000000000288 .L0 
     /tmp/ccTG7hDV.s:492    .text:000000000000028c .L0 
     /tmp/ccTG7hDV.s:499    .text:0000000000000294 .L0 
     /tmp/ccTG7hDV.s:500    .text:0000000000000294 .L0 
     /tmp/ccTG7hDV.s:503    .text:0000000000000298 .L0 
     /tmp/ccTG7hDV.s:505    .text:000000000000029c .L0 
     /tmp/ccTG7hDV.s:508    .text:00000000000002a0 .L0 
     /tmp/ccTG7hDV.s:509    .text:00000000000002a0 .L0 
     /tmp/ccTG7hDV.s:513    .text:00000000000002a8 .L0 
     /tmp/ccTG7hDV.s:519    .text:00000000000002a8 _ZN5Riscv19setVirtualAddrRangeEmmi
     /tmp/ccTG7hDV.s:522    .text:00000000000002a8 .L0 
     /tmp/ccTG7hDV.s:524    .text:00000000000002a8 .L0 
     /tmp/ccTG7hDV.s:525    .text:00000000000002ac .L0 
     /tmp/ccTG7hDV.s:531    .text:00000000000002c0 .L0 
     /tmp/ccTG7hDV.s:532    .text:00000000000002c0 .L0 
     /tmp/ccTG7hDV.s:533    .text:00000000000002c0 .L0 
     /tmp/ccTG7hDV.s:534    .text:00000000000002c0 .L0 
     /tmp/ccTG7hDV.s:535    .text:00000000000002c0 .L0 
     /tmp/ccTG7hDV.s:537    .text:00000000000002c4 .L0 
     /tmp/ccTG7hDV.s:545    .text:00000000000002d0 .L0 
     /tmp/ccTG7hDV.s:546    .text:00000000000002d0 .L0 
     /tmp/ccTG7hDV.s:548    .text:00000000000002d4 .L0 
     /tmp/ccTG7hDV.s:549    .text:00000000000002d4 .L0 
     /tmp/ccTG7hDV.s:555    .text:00000000000002e8 .L0 
     /tmp/ccTG7hDV.s:556    .text:00000000000002e8 .L0 
     /tmp/ccTG7hDV.s:560    .text:00000000000002f0 .L0 
     /tmp/ccTG7hDV.s:564    .text:00000000000002f4 .L0 
     /tmp/ccTG7hDV.s:565    .text:00000000000002f8 .L0 
     /tmp/ccTG7hDV.s:567    .text:00000000000002fc .L0 
     /tmp/ccTG7hDV.s:568    .text:00000000000002fc .L0 
     /tmp/ccTG7hDV.s:570    .text:0000000000000300 .L0 
     /tmp/ccTG7hDV.s:573    .text:0000000000000304 .L0 
     /tmp/ccTG7hDV.s:576    .text:0000000000000308 .L0 
     /tmp/ccTG7hDV.s:578    .text:000000000000030c .L0 
GAS LISTING /tmp/ccTG7hDV.s 			page 58


     /tmp/ccTG7hDV.s:580    .text:0000000000000310 .L0 
     /tmp/ccTG7hDV.s:597    .text:0000000000000310 _ZN5Riscv10initSystemEv
     /tmp/ccTG7hDV.s:600    .text:0000000000000310 .L0 
     /tmp/ccTG7hDV.s:601    .text:0000000000000310 .L0 
     /tmp/ccTG7hDV.s:602    .text:0000000000000314 .L0 
     /tmp/ccTG7hDV.s:611    .text:0000000000000334 .L0 
     /tmp/ccTG7hDV.s:612    .text:0000000000000334 .L0 
     /tmp/ccTG7hDV.s:613    .text:0000000000000334 .L0 
     /tmp/ccTG7hDV.s:614    .text:0000000000000334 .L0 
     /tmp/ccTG7hDV.s:615    .text:0000000000000334 .L0 
     /tmp/ccTG7hDV.s:616    .text:0000000000000334 .L0 
     /tmp/ccTG7hDV.s:617    .text:0000000000000334 .L0 
     /tmp/ccTG7hDV.s:618    .text:0000000000000334 .L0 
     /tmp/ccTG7hDV.s:620    .text:0000000000000338 .L0 
     /tmp/ccTG7hDV.s:622    .text:0000000000000338 .L0 
     /tmp/ccTG7hDV.s:623    .text:0000000000000338 .L0 
     /tmp/ccTG7hDV.s:628    .text:0000000000000340 .L0 
src/kernel/../../h/Riscv.hpp:157    .text:0000000000000340 .L0 
     /tmp/ccTG7hDV.s:638    .text:0000000000000344 .L0 
     /tmp/ccTG7hDV.s:639    .text:0000000000000344 .L0 
     /tmp/ccTG7hDV.s:644    .text:0000000000000358 .L0 
     /tmp/ccTG7hDV.s:647    .text:0000000000000364 .L0 
     /tmp/ccTG7hDV.s:648    .text:0000000000000364 .L0 
     /tmp/ccTG7hDV.s:652    .text:0000000000000370 .L0 
     /tmp/ccTG7hDV.s:653    .text:0000000000000370 .L0 
     /tmp/ccTG7hDV.s:654    .text:0000000000000370 .L0 
     /tmp/ccTG7hDV.s:658    .text:0000000000000378 .L0 
     /tmp/ccTG7hDV.s:659    .text:0000000000000378 .L0 
     /tmp/ccTG7hDV.s:664    .text:0000000000000384 .L0 
     /tmp/ccTG7hDV.s:665    .text:0000000000000384 .L0 
     /tmp/ccTG7hDV.s:671    .text:0000000000000398 .L0 
     /tmp/ccTG7hDV.s:672    .text:0000000000000398 .L0 
     /tmp/ccTG7hDV.s:679    .text:00000000000003b4 .L0 
     /tmp/ccTG7hDV.s:681    .text:00000000000003b8 .L0 
     /tmp/ccTG7hDV.s:682    .text:00000000000003b8 .L0 
     /tmp/ccTG7hDV.s:689    .text:00000000000003d4 .L0 
     /tmp/ccTG7hDV.s:691    .text:00000000000003d8 .L0 
     /tmp/ccTG7hDV.s:692    .text:00000000000003d8 .L0 
     /tmp/ccTG7hDV.s:695    .text:00000000000003e0 .L0 
     /tmp/ccTG7hDV.s:696    .text:00000000000003e0 .L0 
     /tmp/ccTG7hDV.s:699    .text:00000000000003e8 .L0 
     /tmp/ccTG7hDV.s:700    .text:00000000000003e8 .L0 
     /tmp/ccTG7hDV.s:705    .text:00000000000003f8 .L0 
     /tmp/ccTG7hDV.s:709    .text:00000000000003fc .L0 
     /tmp/ccTG7hDV.s:710    .text:00000000000003fc .L0 
     /tmp/ccTG7hDV.s:714    .text:0000000000000400 .L0 
     /tmp/ccTG7hDV.s:717    .text:0000000000000408 .L0 
     /tmp/ccTG7hDV.s:718    .text:0000000000000408 .L0 
     /tmp/ccTG7hDV.s:722    .text:0000000000000418 .L0 
     /tmp/ccTG7hDV.s:724    .text:000000000000041c .L0 
     /tmp/ccTG7hDV.s:730    .text:0000000000000424 .L0 
     /tmp/ccTG7hDV.s:731    .text:0000000000000424 .L0 
     /tmp/ccTG7hDV.s:738    .text:0000000000000444 .L0 
     /tmp/ccTG7hDV.s:739    .text:0000000000000444 .L0 
     /tmp/ccTG7hDV.s:742    .text:000000000000044c .L0 
     /tmp/ccTG7hDV.s:743    .text:000000000000044c .L0 
     /tmp/ccTG7hDV.s:746    .text:0000000000000454 .L0 
GAS LISTING /tmp/ccTG7hDV.s 			page 59


     /tmp/ccTG7hDV.s:747    .text:0000000000000454 .L0 
     /tmp/ccTG7hDV.s:750    .text:000000000000045c .L0 
     /tmp/ccTG7hDV.s:751    .text:000000000000045c .L0 
     /tmp/ccTG7hDV.s:754    .text:0000000000000464 .L0 
     /tmp/ccTG7hDV.s:755    .text:0000000000000464 .L0 
     /tmp/ccTG7hDV.s:761    .text:000000000000047c .L0 
     /tmp/ccTG7hDV.s:762    .text:000000000000047c .L0 
     /tmp/ccTG7hDV.s:768    .text:0000000000000490 .L0 
     /tmp/ccTG7hDV.s:769    .text:0000000000000490 .L0 
     /tmp/ccTG7hDV.s:775    .text:00000000000004a4 .L0 
     /tmp/ccTG7hDV.s:776    .text:00000000000004a4 .L0 
     /tmp/ccTG7hDV.s:782    .text:00000000000004b8 .L0 
     /tmp/ccTG7hDV.s:783    .text:00000000000004b8 .L0 
     /tmp/ccTG7hDV.s:790    .text:00000000000004d4 .L0 
     /tmp/ccTG7hDV.s:791    .text:00000000000004d4 .L0 
     /tmp/ccTG7hDV.s:797    .text:00000000000004e8 .L0 
     /tmp/ccTG7hDV.s:798    .text:00000000000004e8 .L0 
     /tmp/ccTG7hDV.s:806    .text:0000000000000508 .L0 
     /tmp/ccTG7hDV.s:807    .text:0000000000000508 .L0 
     /tmp/ccTG7hDV.s:814    .text:0000000000000524 .L0 
     /tmp/ccTG7hDV.s:815    .text:0000000000000524 .L0 
     /tmp/ccTG7hDV.s:822    .text:0000000000000540 .L0 
     /tmp/ccTG7hDV.s:823    .text:0000000000000540 .L0 
     /tmp/ccTG7hDV.s:830    .text:000000000000055c .L0 
     /tmp/ccTG7hDV.s:831    .text:000000000000055c .L0 
     /tmp/ccTG7hDV.s:840    .text:0000000000000574 .L0 
     /tmp/ccTG7hDV.s:841    .text:0000000000000574 .L0 
     /tmp/ccTG7hDV.s:842    .text:0000000000000574 .L0 
     /tmp/ccTG7hDV.s:852    .text:000000000000057c .L0 
     /tmp/ccTG7hDV.s:853    .text:000000000000057c .L0 
     /tmp/ccTG7hDV.s:856    .text:0000000000000584 .L0 
     /tmp/ccTG7hDV.s:861    .text:0000000000000590 .L0 
src/kernel/Riscv.cpp:99     .text:0000000000000590 .L0 
     /tmp/ccTG7hDV.s:868    .text:0000000000000594 .L0 
     /tmp/ccTG7hDV.s:869    .text:0000000000000598 .L0 
     /tmp/ccTG7hDV.s:871    .text:000000000000059c .L0 
     /tmp/ccTG7hDV.s:872    .text:000000000000059c .L0 
     /tmp/ccTG7hDV.s:874    .text:00000000000005a0 .L0 
     /tmp/ccTG7hDV.s:877    .text:00000000000005a4 .L0 
     /tmp/ccTG7hDV.s:879    .text:00000000000005a8 .L0 
     /tmp/ccTG7hDV.s:881    .text:00000000000005ac .L0 
     /tmp/ccTG7hDV.s:883    .text:00000000000005b0 .L0 
     /tmp/ccTG7hDV.s:885    .text:00000000000005b4 .L0 
     /tmp/ccTG7hDV.s:887    .text:00000000000005b8 .L0 
     /tmp/ccTG7hDV.s:889    .text:00000000000005bc .L0 
     /tmp/ccTG7hDV.s:895    .text:00000000000005bc _ZN5Riscv10kernelMainEv
     /tmp/ccTG7hDV.s:898    .text:00000000000005bc .L0 
     /tmp/ccTG7hDV.s:899    .text:00000000000005bc .L0 
     /tmp/ccTG7hDV.s:900    .text:00000000000005bc .L0 
     /tmp/ccTG7hDV.s:905    .text:00000000000005cc .L0 
     /tmp/ccTG7hDV.s:906    .text:00000000000005d0 .L0 
     /tmp/ccTG7hDV.s:909    .text:00000000000005d8 .L0 
     /tmp/ccTG7hDV.s:910    .text:00000000000005d8 .L0 
     /tmp/ccTG7hDV.s:912    .text:00000000000005dc .L0 
     /tmp/ccTG7hDV.s:914    .text:00000000000005dc .L0 
     /tmp/ccTG7hDV.s:915    .text:00000000000005dc .L0 
     /tmp/ccTG7hDV.s:918    .text:00000000000005e8 .L0 
GAS LISTING /tmp/ccTG7hDV.s 			page 60


     /tmp/ccTG7hDV.s:919    .text:00000000000005e8 .L0 
     /tmp/ccTG7hDV.s:922    .text:00000000000005f0 .L0 
     /tmp/ccTG7hDV.s:923    .text:00000000000005f0 .L0 
     /tmp/ccTG7hDV.s:927    .text:00000000000005f8 .L0 
     /tmp/ccTG7hDV.s:928    .text:00000000000005f8 .L0 
     /tmp/ccTG7hDV.s:929    .text:00000000000005f8 .L0 
     /tmp/ccTG7hDV.s:934    .text:000000000000060c .L0 
     /tmp/ccTG7hDV.s:936    .text:0000000000000610 .L0 
     /tmp/ccTG7hDV.s:937    .text:0000000000000610 .L0 
     /tmp/ccTG7hDV.s:940    .text:0000000000000618 .L0 
     /tmp/ccTG7hDV.s:943    .text:000000000000061c .L0 
     /tmp/ccTG7hDV.s:944    .text:000000000000061c .L0 
     /tmp/ccTG7hDV.s:947    .text:0000000000000624 .L0 
     /tmp/ccTG7hDV.s:948    .text:0000000000000628 .L0 
     /tmp/ccTG7hDV.s:950    .text:000000000000062c .L0 
     /tmp/ccTG7hDV.s:951    .text:000000000000062c .L0 
     /tmp/ccTG7hDV.s:953    .text:0000000000000630 .L0 
     /tmp/ccTG7hDV.s:955    .text:0000000000000634 .L0 
     /tmp/ccTG7hDV.s:961    .text:0000000000000634 _ZN5Riscv14addVirtualAddrEm
     /tmp/ccTG7hDV.s:964    .text:0000000000000634 .L0 
     /tmp/ccTG7hDV.s:966    .text:0000000000000634 .L0 
     /tmp/ccTG7hDV.s:967    .text:0000000000000638 .L0 
     /tmp/ccTG7hDV.s:970    .text:0000000000000640 .L0 
     /tmp/ccTG7hDV.s:971    .text:0000000000000640 .L0 
     /tmp/ccTG7hDV.s:973    .text:0000000000000644 .L0 
     /tmp/ccTG7hDV.s:975    .text:0000000000000644 .L0 
     /tmp/ccTG7hDV.s:976    .text:0000000000000644 .L0 
     /tmp/ccTG7hDV.s:981    .text:0000000000000654 .L0 
     /tmp/ccTG7hDV.s:982    .text:0000000000000658 .L0 
     /tmp/ccTG7hDV.s:984    .text:000000000000065c .L0 
     /tmp/ccTG7hDV.s:985    .text:000000000000065c .L0 
     /tmp/ccTG7hDV.s:987    .text:0000000000000660 .L0 
     /tmp/ccTG7hDV.s:989    .text:0000000000000664 .L0 
     /tmp/ccTG7hDV.s:995    .text:0000000000000664 _ZN5Riscv19addVirtualAddrInstrEm
     /tmp/ccTG7hDV.s:998    .text:0000000000000664 .L0 
     /tmp/ccTG7hDV.s:1000   .text:0000000000000664 .L0 
     /tmp/ccTG7hDV.s:1001   .text:0000000000000668 .L0 
     /tmp/ccTG7hDV.s:1004   .text:0000000000000670 .L0 
     /tmp/ccTG7hDV.s:1005   .text:0000000000000670 .L0 
     /tmp/ccTG7hDV.s:1007   .text:0000000000000674 .L0 
     /tmp/ccTG7hDV.s:1009   .text:0000000000000674 .L0 
     /tmp/ccTG7hDV.s:1010   .text:0000000000000674 .L0 
     /tmp/ccTG7hDV.s:1015   .text:0000000000000684 .L0 
     /tmp/ccTG7hDV.s:1016   .text:0000000000000688 .L0 
     /tmp/ccTG7hDV.s:1018   .text:000000000000068c .L0 
     /tmp/ccTG7hDV.s:1019   .text:000000000000068c .L0 
     /tmp/ccTG7hDV.s:1021   .text:0000000000000690 .L0 
     /tmp/ccTG7hDV.s:1023   .text:0000000000000694 .L0 
     /tmp/ccTG7hDV.s:1029   .text:0000000000000694 _ZN5Riscv22disableTimerInterruptsEv
     /tmp/ccTG7hDV.s:1032   .text:0000000000000694 .L0 
     /tmp/ccTG7hDV.s:1033   .text:0000000000000694 .L0 
     /tmp/ccTG7hDV.s:1034   .text:0000000000000698 .L0 
     /tmp/ccTG7hDV.s:1036   .text:000000000000069c .L0 
     /tmp/ccTG7hDV.s:1038   .text:00000000000006a0 .L0 
     /tmp/ccTG7hDV.s:1041   .text:00000000000006a0 .L0 
     /tmp/ccTG7hDV.s:1042   .text:00000000000006a0 .L0 
     /tmp/ccTG7hDV.s:1043   .text:00000000000006a0 .L0 
GAS LISTING /tmp/ccTG7hDV.s 			page 61


     /tmp/ccTG7hDV.s:1050   .text:00000000000006a8 .L0 
     /tmp/ccTG7hDV.s:1051   .text:00000000000006ac .L0 
     /tmp/ccTG7hDV.s:1052   .text:00000000000006ac .L0 
     /tmp/ccTG7hDV.s:1054   .text:00000000000006b0 .L0 
     /tmp/ccTG7hDV.s:1056   .text:00000000000006b4 .L0 
     /tmp/ccTG7hDV.s:1062   .text:00000000000006b4 _ZN5Riscv13w_a0_sscratchEv
     /tmp/ccTG7hDV.s:1065   .text:00000000000006b4 .L0 
     /tmp/ccTG7hDV.s:1066   .text:00000000000006b4 .L0 
     /tmp/ccTG7hDV.s:1067   .text:00000000000006b8 .L0 
     /tmp/ccTG7hDV.s:1069   .text:00000000000006bc .L0 
     /tmp/ccTG7hDV.s:1071   .text:00000000000006c0 .L0 
     /tmp/ccTG7hDV.s:1073   .text:00000000000006c0 .L0 
     /tmp/ccTG7hDV.s:1074   .text:00000000000006c0 .L0 
src/kernel/Riscv.cpp:230    .text:00000000000006c0 .L0 
     /tmp/ccTG7hDV.s:1081   .text:00000000000006c4 .L0 
     /tmp/ccTG7hDV.s:1083   .text:00000000000006c4 .L0 
src/kernel/Riscv.cpp:231    .text:00000000000006d4 .L0 
     /tmp/ccTG7hDV.s:1092   .text:00000000000006d8 .L0 
src/kernel/Riscv.cpp:232    .text:00000000000006d8 .L0 
     /tmp/ccTG7hDV.s:1097   .text:00000000000006dc .L0 
src/kernel/Riscv.cpp:233    .text:00000000000006dc .L0 
     /tmp/ccTG7hDV.s:1103   .text:00000000000006e0 .L0 
     /tmp/ccTG7hDV.s:1104   .text:00000000000006e4 .L0 
     /tmp/ccTG7hDV.s:1105   .text:00000000000006e4 .L0 
     /tmp/ccTG7hDV.s:1107   .text:00000000000006e8 .L0 
     /tmp/ccTG7hDV.s:1109   .text:00000000000006ec .L0 
     /tmp/ccTG7hDV.s:1115   .text:00000000000006ec _ZN5Riscv14changePrivModeEv
     /tmp/ccTG7hDV.s:1118   .text:00000000000006ec .L0 
     /tmp/ccTG7hDV.s:1119   .text:00000000000006ec .L0 
     /tmp/ccTG7hDV.s:1120   .text:00000000000006f0 .L0 
     /tmp/ccTG7hDV.s:1122   .text:00000000000006f4 .L0 
     /tmp/ccTG7hDV.s:1124   .text:00000000000006f8 .L0 
     /tmp/ccTG7hDV.s:1126   .text:00000000000006f8 .L0 
     /tmp/ccTG7hDV.s:1127   .text:00000000000006f8 .L0 
     /tmp/ccTG7hDV.s:1131   .text:0000000000000708 .L0 
     /tmp/ccTG7hDV.s:1136   .text:000000000000070c .L0 
     /tmp/ccTG7hDV.s:1137   .text:000000000000070c .L0 
     /tmp/ccTG7hDV.s:1138   .text:000000000000070c .L0 
     /tmp/ccTG7hDV.s:1149   .text:0000000000000714 .L0 
     /tmp/ccTG7hDV.s:1150   .text:0000000000000718 .L0 
     /tmp/ccTG7hDV.s:1151   .text:0000000000000718 .L0 
     /tmp/ccTG7hDV.s:1152   .text:0000000000000718 .L0 
     /tmp/ccTG7hDV.s:1154   .text:000000000000071c .L0 
     /tmp/ccTG7hDV.s:1157   .text:0000000000000720 .L0 
     /tmp/ccTG7hDV.s:1162   .text:0000000000000720 .L0 
     /tmp/ccTG7hDV.s:1163   .text:0000000000000720 .L0 
     /tmp/ccTG7hDV.s:1164   .text:0000000000000720 .L0 
     /tmp/ccTG7hDV.s:1174   .text:0000000000000728 .L0 
     /tmp/ccTG7hDV.s:1175   .text:000000000000072c .L0 
     /tmp/ccTG7hDV.s:1181   .text:000000000000072c _ZN5Riscv20handleSupervisorTrapEv
     /tmp/ccTG7hDV.s:1184   .text:000000000000072c .L0 
     /tmp/ccTG7hDV.s:1185   .text:000000000000072c .L0 
     /tmp/ccTG7hDV.s:1186   .text:0000000000000730 .L0 
     /tmp/ccTG7hDV.s:1190   .text:000000000000073c .L0 
     /tmp/ccTG7hDV.s:1191   .text:000000000000073c .L0 
     /tmp/ccTG7hDV.s:1192   .text:000000000000073c .L0 
     /tmp/ccTG7hDV.s:1194   .text:0000000000000740 .L0 
GAS LISTING /tmp/ccTG7hDV.s 			page 62


     /tmp/ccTG7hDV.s:1196   .text:0000000000000740 .L0 
src/kernel/Riscv.cpp:246    .text:0000000000000740 .L0 
     /tmp/ccTG7hDV.s:1205   .text:0000000000000750 .L0 
     /tmp/ccTG7hDV.s:1206   .text:0000000000000750 .L0 
src/kernel/Riscv.cpp:247    .text:000000000000075c .L0 
     /tmp/ccTG7hDV.s:1218   .text:0000000000000764 .L0 
     /tmp/ccTG7hDV.s:1219   .text:0000000000000764 .L0 
     /tmp/ccTG7hDV.s:1220   .text:0000000000000764 .L0 
src/kernel/../../h/Riscv.hpp:132    .text:0000000000000764 .L0 
     /tmp/ccTG7hDV.s:1228   .text:000000000000076c .L0 
     /tmp/ccTG7hDV.s:1229   .text:000000000000076c .L0 
     /tmp/ccTG7hDV.s:1234   .text:0000000000000770 .L0 
     /tmp/ccTG7hDV.s:1235   .text:0000000000000770 .L0 
     /tmp/ccTG7hDV.s:1236   .text:0000000000000770 .L0 
     /tmp/ccTG7hDV.s:1238   .text:0000000000000770 .L0 
     /tmp/ccTG7hDV.s:1284   .text:00000000000007c4 .L0 
     /tmp/ccTG7hDV.s:1285   .text:00000000000007c4 .L0 
     /tmp/ccTG7hDV.s:1286   .text:00000000000007c4 .L0 
     /tmp/ccTG7hDV.s:1287   .text:00000000000007c4 .L0 
     /tmp/ccTG7hDV.s:1290   .text:00000000000007cc .L0 
     /tmp/ccTG7hDV.s:1291   .text:00000000000007cc .L0 
     /tmp/ccTG7hDV.s:1296   .text:00000000000007dc .L0 
     /tmp/ccTG7hDV.s:1299   .text:00000000000007e0 .L0 
     /tmp/ccTG7hDV.s:1301   .text:00000000000007e0 .L0 
     /tmp/ccTG7hDV.s:1303   .text:00000000000007e0 .L0 
     /tmp/ccTG7hDV.s:1304   .text:00000000000007e0 .L0 
src/kernel/Riscv.cpp:260    .text:00000000000007e0 .L0 
     /tmp/ccTG7hDV.s:1311   .text:00000000000007e4 .L0 
     /tmp/ccTG7hDV.s:1313   .text:00000000000007e4 .L0 
     /tmp/ccTG7hDV.s:1318   .text:00000000000007ec .L0 
     /tmp/ccTG7hDV.s:1320   .text:00000000000007ec .L0 
     /tmp/ccTG7hDV.s:1321   .text:00000000000007ec .L0 
     /tmp/ccTG7hDV.s:1322   .text:00000000000007ec .L0 
src/kernel/Riscv.cpp:266    .text:00000000000007ec .L0 
     /tmp/ccTG7hDV.s:1329   .text:00000000000007f0 .L0 
     /tmp/ccTG7hDV.s:1331   .text:00000000000007f0 .L0 
     /tmp/ccTG7hDV.s:1336   .text:00000000000007f8 .L0 
     /tmp/ccTG7hDV.s:1338   .text:00000000000007f8 .L0 
     /tmp/ccTG7hDV.s:1339   .text:00000000000007f8 .L0 
     /tmp/ccTG7hDV.s:1340   .text:00000000000007f8 .L0 
src/kernel/Riscv.cpp:273    .text:00000000000007f8 .L0 
     /tmp/ccTG7hDV.s:1347   .text:00000000000007fc .L0 
     /tmp/ccTG7hDV.s:1349   .text:00000000000007fc .L0 
     /tmp/ccTG7hDV.s:1354   .text:0000000000000804 .L0 
     /tmp/ccTG7hDV.s:1356   .text:0000000000000804 .L0 
     /tmp/ccTG7hDV.s:1359   .text:0000000000000804 .L0 
     /tmp/ccTG7hDV.s:1360   .text:0000000000000804 .L0 
     /tmp/ccTG7hDV.s:1361   .text:0000000000000804 .L0 
src/kernel/../../h/Riscv.hpp:142    .text:0000000000000804 .L0 
     /tmp/ccTG7hDV.s:1369   .text:000000000000080c .L0 
     /tmp/ccTG7hDV.s:1370   .text:000000000000080c .L0 
     /tmp/ccTG7hDV.s:1374   .text:0000000000000810 .L0 
     /tmp/ccTG7hDV.s:1378   .text:0000000000000814 .L0 
     /tmp/ccTG7hDV.s:1379   .text:0000000000000814 .L0 
     /tmp/ccTG7hDV.s:1380   .text:0000000000000814 .L0 
src/kernel/../../h/Riscv.hpp:215    .text:0000000000000814 .L0 
     /tmp/ccTG7hDV.s:1388   .text:000000000000081c .L0 
GAS LISTING /tmp/ccTG7hDV.s 			page 63


     /tmp/ccTG7hDV.s:1389   .text:000000000000081c .L0 
     /tmp/ccTG7hDV.s:1393   .text:0000000000000820 .L0 
     /tmp/ccTG7hDV.s:1398   .text:0000000000000824 .L0 
     /tmp/ccTG7hDV.s:1399   .text:0000000000000824 .L0 
     /tmp/ccTG7hDV.s:1400   .text:0000000000000824 .L0 
     /tmp/ccTG7hDV.s:1410   .text:000000000000082c .L0 
     /tmp/ccTG7hDV.s:1411   .text:000000000000082c .L0 
     /tmp/ccTG7hDV.s:1416   .text:0000000000000840 .L0 
     /tmp/ccTG7hDV.s:1417   .text:0000000000000840 .L0 
     /tmp/ccTG7hDV.s:1422   .text:0000000000000854 .L0 
     /tmp/ccTG7hDV.s:1423   .text:0000000000000854 .L0 
     /tmp/ccTG7hDV.s:1426   .text:000000000000085c .L0 
     /tmp/ccTG7hDV.s:1427   .text:000000000000085c .L0 
     /tmp/ccTG7hDV.s:1434   .text:0000000000000868 .L0 
     /tmp/ccTG7hDV.s:1435   .text:0000000000000868 .L0 
     /tmp/ccTG7hDV.s:1440   .text:000000000000086c .L0 
     /tmp/ccTG7hDV.s:1442   .text:0000000000000870 .L0 
     /tmp/ccTG7hDV.s:1445   .text:0000000000000874 .L0 
     /tmp/ccTG7hDV.s:1446   .text:0000000000000874 .L0 
     /tmp/ccTG7hDV.s:1451   .text:0000000000000878 .L0 
src/kernel/../../h/Riscv.hpp:220    .text:0000000000000878 .L0 
     /tmp/ccTG7hDV.s:1461   .text:000000000000087c .L0 
     /tmp/ccTG7hDV.s:1462   .text:000000000000087c .L0 
     /tmp/ccTG7hDV.s:1467   .text:0000000000000880 .L0 
src/kernel/../../h/Riscv.hpp:147    .text:0000000000000880 .L0 
     /tmp/ccTG7hDV.s:1477   .text:0000000000000884 .L0 
     /tmp/ccTG7hDV.s:1478   .text:0000000000000884 .L0 
     /tmp/ccTG7hDV.s:1485   .text:000000000000088c .L0 
     /tmp/ccTG7hDV.s:1486   .text:000000000000088c .L0 
     /tmp/ccTG7hDV.s:1487   .text:0000000000000890 .L0 
     /tmp/ccTG7hDV.s:1488   .text:0000000000000890 .L0 
     /tmp/ccTG7hDV.s:1490   .text:0000000000000894 .L0 
     /tmp/ccTG7hDV.s:1491   .text:0000000000000894 .L0 
     /tmp/ccTG7hDV.s:1493   .text:0000000000000898 .L0 
     /tmp/ccTG7hDV.s:1495   .text:000000000000089c .L0 
     /tmp/ccTG7hDV.s:1498   .text:00000000000008a0 .L0 
     /tmp/ccTG7hDV.s:1503   .text:00000000000008a0 .L0 
     /tmp/ccTG7hDV.s:1504   .text:00000000000008a0 .L0 
     /tmp/ccTG7hDV.s:1506   .text:00000000000008a4 .L0 
     /tmp/ccTG7hDV.s:1507   .text:00000000000008a4 .L0 
     /tmp/ccTG7hDV.s:1513   .text:00000000000008b0 .L0 
     /tmp/ccTG7hDV.s:1514   .text:00000000000008b0 .L0 
     /tmp/ccTG7hDV.s:1515   .text:00000000000008b0 .L0 
     /tmp/ccTG7hDV.s:1516   .text:00000000000008b0 .L0 
     /tmp/ccTG7hDV.s:1519   .text:00000000000008b8 .L0 
     /tmp/ccTG7hDV.s:1522   .text:00000000000008bc .L0 
     /tmp/ccTG7hDV.s:1523   .text:00000000000008bc .L0 
     /tmp/ccTG7hDV.s:1524   .text:00000000000008bc .L0 
     /tmp/ccTG7hDV.s:1525   .text:00000000000008bc .L0 
     /tmp/ccTG7hDV.s:1528   .text:00000000000008c4 .L0 
     /tmp/ccTG7hDV.s:1531   .text:00000000000008c8 .L0 
     /tmp/ccTG7hDV.s:1532   .text:00000000000008c8 .L0 
     /tmp/ccTG7hDV.s:1533   .text:00000000000008c8 .L0 
     /tmp/ccTG7hDV.s:1534   .text:00000000000008c8 .L0 
     /tmp/ccTG7hDV.s:1537   .text:00000000000008d0 .L0 
     /tmp/ccTG7hDV.s:1540   .text:00000000000008d4 .L0 
     /tmp/ccTG7hDV.s:1541   .text:00000000000008d4 .L0 
GAS LISTING /tmp/ccTG7hDV.s 			page 64


     /tmp/ccTG7hDV.s:1543   .text:00000000000008d4 .L0 
     /tmp/ccTG7hDV.s:1544   .text:00000000000008d4 .L0 
     /tmp/ccTG7hDV.s:1545   .text:00000000000008d4 .L0 
src/kernel/Riscv.cpp:324    .text:00000000000008d4 .L0 
     /tmp/ccTG7hDV.s:1555   .text:00000000000008d8 .L0 
     /tmp/ccTG7hDV.s:1556   .text:00000000000008d8 .L0 
     /tmp/ccTG7hDV.s:1557   .text:00000000000008d8 .L0 
src/kernel/../../h/Riscv.hpp:142    .text:00000000000008d8 .L0 
     /tmp/ccTG7hDV.s:1565   .text:00000000000008e0 .L0 
     /tmp/ccTG7hDV.s:1566   .text:00000000000008e0 .L0 
     /tmp/ccTG7hDV.s:1570   .text:00000000000008e4 .L0 
     /tmp/ccTG7hDV.s:1572   .text:00000000000008e8 .L0 
     /tmp/ccTG7hDV.s:1576   .text:00000000000008ec .L0 
     /tmp/ccTG7hDV.s:1577   .text:00000000000008ec .L0 
     /tmp/ccTG7hDV.s:1578   .text:00000000000008ec .L0 
src/kernel/../../h/Riscv.hpp:215    .text:00000000000008ec .L0 
     /tmp/ccTG7hDV.s:1586   .text:00000000000008f4 .L0 
     /tmp/ccTG7hDV.s:1587   .text:00000000000008f4 .L0 
     /tmp/ccTG7hDV.s:1591   .text:00000000000008f8 .L0 
     /tmp/ccTG7hDV.s:1593   .text:00000000000008fc .L0 
     /tmp/ccTG7hDV.s:1677   .text:0000000000000920 .L0 
     /tmp/ccTG7hDV.s:1678   .text:0000000000000920 .L0 
     /tmp/ccTG7hDV.s:1679   .text:0000000000000920 .L0 
     /tmp/ccTG7hDV.s:1683   .text:0000000000000928 .L0 
     /tmp/ccTG7hDV.s:1684   .text:0000000000000928 .L0 
     /tmp/ccTG7hDV.s:1685   .text:0000000000000928 .L0 
     /tmp/ccTG7hDV.s:1690   .text:000000000000092c .L0 
src/kernel/../../h/Riscv.hpp:220    .text:000000000000092c .L0 
     /tmp/ccTG7hDV.s:1700   .text:0000000000000930 .L0 
     /tmp/ccTG7hDV.s:1701   .text:0000000000000930 .L0 
     /tmp/ccTG7hDV.s:1706   .text:0000000000000934 .L0 
src/kernel/../../h/Riscv.hpp:147    .text:0000000000000934 .L0 
     /tmp/ccTG7hDV.s:1716   .text:0000000000000938 .L0 
     /tmp/ccTG7hDV.s:1717   .text:0000000000000938 .L0 
     /tmp/ccTG7hDV.s:1723   .text:0000000000000940 .L0 
     /tmp/ccTG7hDV.s:1724   .text:0000000000000940 .L0 
     /tmp/ccTG7hDV.s:1730   .text:0000000000000944 .L0 
     /tmp/ccTG7hDV.s:1731   .text:0000000000000944 .L0 
     /tmp/ccTG7hDV.s:1732   .text:0000000000000944 .L0 
     /tmp/ccTG7hDV.s:1735   .text:000000000000094c .L0 
     /tmp/ccTG7hDV.s:1738   .text:0000000000000950 .L0 
     /tmp/ccTG7hDV.s:1739   .text:0000000000000950 .L0 
     /tmp/ccTG7hDV.s:1740   .text:0000000000000950 .L0 
     /tmp/ccTG7hDV.s:1743   .text:0000000000000958 .L0 
     /tmp/ccTG7hDV.s:1746   .text:000000000000095c .L0 
     /tmp/ccTG7hDV.s:1747   .text:000000000000095c .L0 
     /tmp/ccTG7hDV.s:1748   .text:000000000000095c .L0 
     /tmp/ccTG7hDV.s:1751   .text:0000000000000964 .L0 
     /tmp/ccTG7hDV.s:1754   .text:0000000000000968 .L0 
     /tmp/ccTG7hDV.s:1755   .text:0000000000000968 .L0 
     /tmp/ccTG7hDV.s:1756   .text:0000000000000968 .L0 
     /tmp/ccTG7hDV.s:1759   .text:0000000000000970 .L0 
     /tmp/ccTG7hDV.s:1762   .text:0000000000000974 .L0 
     /tmp/ccTG7hDV.s:1763   .text:0000000000000974 .L0 
     /tmp/ccTG7hDV.s:1764   .text:0000000000000974 .L0 
     /tmp/ccTG7hDV.s:1767   .text:000000000000097c .L0 
     /tmp/ccTG7hDV.s:1770   .text:0000000000000980 .L0 
GAS LISTING /tmp/ccTG7hDV.s 			page 65


     /tmp/ccTG7hDV.s:1771   .text:0000000000000980 .L0 
     /tmp/ccTG7hDV.s:1772   .text:0000000000000980 .L0 
     /tmp/ccTG7hDV.s:1775   .text:0000000000000988 .L0 
     /tmp/ccTG7hDV.s:1778   .text:000000000000098c .L0 
     /tmp/ccTG7hDV.s:1779   .text:000000000000098c .L0 
     /tmp/ccTG7hDV.s:1780   .text:000000000000098c .L0 
     /tmp/ccTG7hDV.s:1783   .text:0000000000000994 .L0 
     /tmp/ccTG7hDV.s:1786   .text:0000000000000998 .L0 
     /tmp/ccTG7hDV.s:1787   .text:0000000000000998 .L0 
     /tmp/ccTG7hDV.s:1788   .text:0000000000000998 .L0 
     /tmp/ccTG7hDV.s:1791   .text:00000000000009a0 .L0 
     /tmp/ccTG7hDV.s:1794   .text:00000000000009a4 .L0 
     /tmp/ccTG7hDV.s:1795   .text:00000000000009a4 .L0 
     /tmp/ccTG7hDV.s:1796   .text:00000000000009a4 .L0 
     /tmp/ccTG7hDV.s:1799   .text:00000000000009ac .L0 
     /tmp/ccTG7hDV.s:1802   .text:00000000000009b0 .L0 
     /tmp/ccTG7hDV.s:1803   .text:00000000000009b0 .L0 
     /tmp/ccTG7hDV.s:1804   .text:00000000000009b0 .L0 
     /tmp/ccTG7hDV.s:1807   .text:00000000000009b8 .L0 
     /tmp/ccTG7hDV.s:1810   .text:00000000000009bc .L0 
     /tmp/ccTG7hDV.s:1811   .text:00000000000009bc .L0 
     /tmp/ccTG7hDV.s:1812   .text:00000000000009bc .L0 
     /tmp/ccTG7hDV.s:1815   .text:00000000000009c4 .L0 
     /tmp/ccTG7hDV.s:1818   .text:00000000000009c8 .L0 
     /tmp/ccTG7hDV.s:1819   .text:00000000000009c8 .L0 
     /tmp/ccTG7hDV.s:1820   .text:00000000000009c8 .L0 
     /tmp/ccTG7hDV.s:1823   .text:00000000000009d0 .L0 
     /tmp/ccTG7hDV.s:1826   .text:00000000000009d4 .L0 
     /tmp/ccTG7hDV.s:1827   .text:00000000000009d4 .L0 
     /tmp/ccTG7hDV.s:1828   .text:00000000000009d4 .L0 
     /tmp/ccTG7hDV.s:1831   .text:00000000000009dc .L0 
     /tmp/ccTG7hDV.s:1834   .text:00000000000009e0 .L0 
     /tmp/ccTG7hDV.s:1835   .text:00000000000009e0 .L0 
     /tmp/ccTG7hDV.s:1836   .text:00000000000009e0 .L0 
     /tmp/ccTG7hDV.s:1839   .text:00000000000009e8 .L0 
     /tmp/ccTG7hDV.s:1842   .text:00000000000009ec .L0 
     /tmp/ccTG7hDV.s:1843   .text:00000000000009ec .L0 
     /tmp/ccTG7hDV.s:1844   .text:00000000000009ec .L0 
     /tmp/ccTG7hDV.s:1847   .text:00000000000009f4 .L0 
     /tmp/ccTG7hDV.s:1851   .text:00000000000009f8 .L0 
     /tmp/ccTG7hDV.s:1867   .data:0000000000000000 _ZN5Riscv16programStartAddrE
     /tmp/ccTG7hDV.s:1883   .bss:0000000000000010 _ZN5Riscv10riscvBuddyE
     /tmp/ccTG7hDV.s:1879   .bss:0000000000000008 _ZN5Riscv7mainPMTE
     /tmp/ccTG7hDV.s:1891   .bss:0000000000000020 _ZN5Riscv14semaphoreCacheE
     /tmp/ccTG7hDV.s:1887   .bss:0000000000000018 _ZN5Riscv8pcbCacheE
     /tmp/ccTG7hDV.s:1895   .bss:0000000000000028 _ZN5Riscv16kernelMainCalledE
     /tmp/ccTG7hDV.s:1874   .bss:0000000000000000 _ZN5Riscv12finishSystemE
     /tmp/ccTG7hDV.s:1900   .bss:0000000000000030 _ZN5Riscv9totalTimeE
     /tmp/ccTG7hDV.s:1864   .data:0000000000000000 .LANCHOR1
     /tmp/ccTG7hDV.s:1871   .bss:0000000000000000 .LANCHOR0
     /tmp/ccTG7hDV.s:1913   .text:00000000000009f8 .L0 
     /tmp/ccTG7hDV.s:129    .text:0000000000000074 .L0 
     /tmp/ccTG7hDV.s:142    .text:0000000000000088 .L0 
     /tmp/ccTG7hDV.s:149    .text:000000000000009c .L0 
     /tmp/ccTG7hDV.s:159    .text:00000000000000b0 .L0 
     /tmp/ccTG7hDV.s:204    .text:00000000000000f8 .L0 
     /tmp/ccTG7hDV.s:257    .text:0000000000000130 .L0 
GAS LISTING /tmp/ccTG7hDV.s 			page 66


     /tmp/ccTG7hDV.s:327    .text:0000000000000190 .L0 
     /tmp/ccTG7hDV.s:420    .text:0000000000000210 .L0 
     /tmp/ccTG7hDV.s:457    .text:000000000000024c .L0 
     /tmp/ccTG7hDV.s:472    .text:0000000000000264 .L0 
     /tmp/ccTG7hDV.s:623    .text:0000000000000338 .L0 
     /tmp/ccTG7hDV.s:639    .text:0000000000000344 .L0 
     /tmp/ccTG7hDV.s:644    .text:0000000000000358 .L0 
     /tmp/ccTG7hDV.s:585    .rodata.str1.8:0000000000000000 .LC0
     /tmp/ccTG7hDV.s:675    .text:00000000000003a4 .L0 
     /tmp/ccTG7hDV.s:588    .rodata.str1.8:0000000000000010 .LC1
     /tmp/ccTG7hDV.s:685    .text:00000000000003c4 .L0 
     /tmp/ccTG7hDV.s:719    .text:000000000000040c .L0 
     /tmp/ccTG7hDV.s:731    .text:0000000000000424 .L0 
     /tmp/ccTG7hDV.s:591    .rodata.str1.8:0000000000000028 .LC2
     /tmp/ccTG7hDV.s:734    .text:0000000000000434 .L0 
     /tmp/ccTG7hDV.s:739    .text:0000000000000444 .L0 
     /tmp/ccTG7hDV.s:743    .text:000000000000044c .L0 
     /tmp/ccTG7hDV.s:747    .text:0000000000000454 .L0 
     /tmp/ccTG7hDV.s:751    .text:000000000000045c .L0 
     /tmp/ccTG7hDV.s:757    .text:000000000000046c .L0 
     /tmp/ccTG7hDV.s:783    .text:00000000000004b8 .L0 
     /tmp/ccTG7hDV.s:798    .text:00000000000004e8 .L0 
     /tmp/ccTG7hDV.s:809    .text:0000000000000510 .L0 
     /tmp/ccTG7hDV.s:817    .text:000000000000052c .L0 
     /tmp/ccTG7hDV.s:825    .text:0000000000000548 .L0 
     /tmp/ccTG7hDV.s:900    .text:00000000000005bc .L0 
     /tmp/ccTG7hDV.s:916    .text:00000000000005e0 .L0 
     /tmp/ccTG7hDV.s:929    .text:00000000000005f8 .L0 
     /tmp/ccTG7hDV.s:1083   .text:00000000000006c4 .L0 
     /tmp/ccTG7hDV.s:1127   .text:00000000000006f8 .L0 
     /tmp/ccTG7hDV.s:1202   .text:0000000000000744 .L0 
     /tmp/ccTG7hDV.s:1206   .text:0000000000000750 .L0 
     /tmp/ccTG7hDV.s:1254   .rodata:0000000000000000 .L62
     /tmp/ccTG7hDV.s:1246   .text:000000000000078c .L0 
     /tmp/ccTG7hDV.s:1411   .text:000000000000082c .L0 
     /tmp/ccTG7hDV.s:1417   .text:0000000000000840 .L0 
     /tmp/ccTG7hDV.s:1427   .text:000000000000085c .L0 
     /tmp/ccTG7hDV.s:1605   .rodata:0000000000000040 .L74
     /tmp/ccTG7hDV.s:1597   .text:0000000000000908 .L0 
     /tmp/ccTG7hDV.s:132    .text:000000000000007c .L8
     /tmp/ccTG7hDV.s:171    .text:00000000000000d4 .L9
     /tmp/ccTG7hDV.s:155    .text:00000000000000b0 .L10
     /tmp/ccTG7hDV.s:231    .text:0000000000000120 .L13
     /tmp/ccTG7hDV.s:221    .text:0000000000000114 .L12
     /tmp/ccTG7hDV.s:412    .text:000000000000020c .L27
     /tmp/ccTG7hDV.s:465    .text:0000000000000260 .L28
     /tmp/ccTG7hDV.s:385    .text:00000000000001e0 .L16
     /tmp/ccTG7hDV.s:444    .text:0000000000000240 .L18
     /tmp/ccTG7hDV.s:429    .text:0000000000000224 .L19
     /tmp/ccTG7hDV.s:343    .text:00000000000001ac .L20
     /tmp/ccTG7hDV.s:496    .text:0000000000000294 .L22
     /tmp/ccTG7hDV.s:481    .text:0000000000000278 .L23
     /tmp/ccTG7hDV.s:363    .text:00000000000001c4 .L24
     /tmp/ccTG7hDV.s:561    .text:00000000000002f4 .L29
     /tmp/ccTG7hDV.s:543    .text:00000000000002d0 .L31
     /tmp/ccTG7hDV.s:727    .text:0000000000000424 .L34
     /tmp/ccTG7hDV.s:712    .text:0000000000000400 .L35
GAS LISTING /tmp/ccTG7hDV.s 			page 67


     /tmp/ccTG7hDV.s:903    .text:00000000000005cc .L45
     /tmp/ccTG7hDV.s:941    .text:000000000000061c .L39
     /tmp/ccTG7hDV.s:925    .text:00000000000005f8 .L40
     /tmp/ccTG7hDV.s:1156   .text:0000000000000720 .L55
     /tmp/ccTG7hDV.s:1145   .text:0000000000000714 .L54
     /tmp/ccTG7hDV.s:1273   .text:00000000000007a4 .L59
     /tmp/ccTG7hDV.s:1481   .text:000000000000088c .L58
     /tmp/ccTG7hDV.s:1351   .text:0000000000000804 .L69
     /tmp/ccTG7hDV.s:1497   .text:00000000000008a0 .L91
     /tmp/ccTG7hDV.s:1443   .text:0000000000000874 .L71
     /tmp/ccTG7hDV.s:1682   .text:0000000000000928 .L72
     /tmp/ccTG7hDV.s:1510   .text:00000000000008b0 .L68
     /tmp/ccTG7hDV.s:1520   .text:00000000000008bc .L67
     /tmp/ccTG7hDV.s:1529   .text:00000000000008c8 .L66
     /tmp/ccTG7hDV.s:1538   .text:00000000000008d4 .L65
     /tmp/ccTG7hDV.s:1333   .text:00000000000007f8 .L64
     /tmp/ccTG7hDV.s:1315   .text:00000000000007ec .L63
     /tmp/ccTG7hDV.s:1297   .text:00000000000007e0 .L61
     /tmp/ccTG7hDV.s:1675   .text:0000000000000920 .L89
     /tmp/ccTG7hDV.s:1725   .text:0000000000000944 .L88
     /tmp/ccTG7hDV.s:1744   .text:000000000000095c .L87
     /tmp/ccTG7hDV.s:1768   .text:0000000000000980 .L86
     /tmp/ccTG7hDV.s:1760   .text:0000000000000974 .L85
     /tmp/ccTG7hDV.s:1736   .text:0000000000000950 .L84
     /tmp/ccTG7hDV.s:1752   .text:0000000000000968 .L83
     /tmp/ccTG7hDV.s:1784   .text:0000000000000998 .L82
     /tmp/ccTG7hDV.s:1792   .text:00000000000009a4 .L81
     /tmp/ccTG7hDV.s:1816   .text:00000000000009c8 .L80
     /tmp/ccTG7hDV.s:1800   .text:00000000000009b0 .L79
     /tmp/ccTG7hDV.s:1808   .text:00000000000009bc .L78
     /tmp/ccTG7hDV.s:1776   .text:000000000000098c .L77
     /tmp/ccTG7hDV.s:1824   .text:00000000000009d4 .L76
     /tmp/ccTG7hDV.s:1832   .text:00000000000009e0 .L75
     /tmp/ccTG7hDV.s:1840   .text:00000000000009ec .L73
     /tmp/ccTG7hDV.s:5410   .debug_abbrev:0000000000000000 .Ldebug_abbrev0
     /tmp/ccTG7hDV.s:7861   .debug_str:00000000000016bc .LASF387
     /tmp/ccTG7hDV.s:7473   .debug_str:0000000000000a62 .LASF388
     /tmp/ccTG7hDV.s:7455   .debug_str:0000000000000998 .LASF389
     /tmp/ccTG7hDV.s:5      .text:0000000000000000 .Ltext0
     /tmp/ccTG7hDV.s:1903   .text:00000000000009f8 .Letext0
     /tmp/ccTG7hDV.s:7171   .debug_line:0000000000000000 .Ldebug_line0
     /tmp/ccTG7hDV.s:7229   .debug_str:00000000000001bb .LASF0
     /tmp/ccTG7hDV.s:7895   .debug_str:00000000000018e2 .LASF1
     /tmp/ccTG7hDV.s:7817   .debug_str:0000000000001566 .LASF2
     /tmp/ccTG7hDV.s:7761   .debug_str:0000000000001388 .LASF4
     /tmp/ccTG7hDV.s:7779   .debug_str:0000000000001425 .LASF3
     /tmp/ccTG7hDV.s:7405   .debug_str:0000000000000820 .LASF5
     /tmp/ccTG7hDV.s:7493   .debug_str:0000000000000af9 .LASF6
     /tmp/ccTG7hDV.s:7689   .debug_str:000000000000117b .LASF7
     /tmp/ccTG7hDV.s:7265   .debug_str:00000000000002d9 .LASF8
     /tmp/ccTG7hDV.s:7879   .debug_str:0000000000001853 .LASF9
     /tmp/ccTG7hDV.s:7409   .debug_str:000000000000083d .LASF10
     /tmp/ccTG7hDV.s:7909   .debug_str:0000000000001954 .LASF11
     /tmp/ccTG7hDV.s:7327   .debug_str:0000000000000548 .LASF12
     /tmp/ccTG7hDV.s:7531   .debug_str:0000000000000c6a .LASF13
     /tmp/ccTG7hDV.s:7417   .debug_str:0000000000000875 .LASF14
     /tmp/ccTG7hDV.s:7745   .debug_str:000000000000132a .LASF15
GAS LISTING /tmp/ccTG7hDV.s 			page 68


     /tmp/ccTG7hDV.s:7425   .debug_str:00000000000008d4 .LASF16
     /tmp/ccTG7hDV.s:7387   .debug_str:000000000000077a .LASF17
     /tmp/ccTG7hDV.s:7515   .debug_str:0000000000000baa .LASF18
     /tmp/ccTG7hDV.s:7513   .debug_str:0000000000000b9d .LASF390
     /tmp/ccTG7hDV.s:7307   .debug_str:000000000000048a .LASF121
     /tmp/ccTG7hDV.s:7437   .debug_str:0000000000000934 .LASF22
     /tmp/ccTG7hDV.s:7401   .debug_str:000000000000080a .LASF19
     /tmp/ccTG7hDV.s:7713   .debug_str:0000000000001268 .LASF20
     /tmp/ccTG7hDV.s:7757   .debug_str:0000000000001375 .LASF21
     /tmp/ccTG7hDV.s:7501   .debug_str:0000000000000b33 .LASF23
     /tmp/ccTG7hDV.s:7871   .debug_str:00000000000017eb .LASF24
     /tmp/ccTG7hDV.s:7219   .debug_str:000000000000014d .LASF25
     /tmp/ccTG7hDV.s:7443   .debug_str:0000000000000959 .LASF26
     /tmp/ccTG7hDV.s:7733   .debug_str:00000000000012df .LASF56
     /tmp/ccTG7hDV.s:7225   .debug_str:000000000000019b .LASF58
     /tmp/ccTG7hDV.s:7815   .debug_str:0000000000001555 .LASF27
     /tmp/ccTG7hDV.s:7563   .debug_str:0000000000000d81 .LASF36
     /tmp/ccTG7hDV.s:7845   .debug_str:0000000000001641 .LASF38
     /tmp/ccTG7hDV.s:7735   .debug_str:00000000000012ea .LASF28
     /tmp/ccTG7hDV.s:7677   .debug_str:000000000000113e .LASF29
     /tmp/ccTG7hDV.s:7235   .debug_str:00000000000001d9 .LASF30
     /tmp/ccTG7hDV.s:7833   .debug_str:00000000000015d7 .LASF32
     /tmp/ccTG7hDV.s:7215   .debug_str:0000000000000121 .LASF31
     /tmp/ccTG7hDV.s:7769   .debug_str:00000000000013df .LASF33
     /tmp/ccTG7hDV.s:7929   .debug_str:0000000000001a0c .LASF34
     /tmp/ccTG7hDV.s:7657   .debug_str:000000000000108d .LASF35
     /tmp/ccTG7hDV.s:7739   .debug_str:00000000000012fa .LASF37
     /tmp/ccTG7hDV.s:7475   .debug_str:0000000000000a77 .LASF39
     /tmp/ccTG7hDV.s:7793   .debug_str:0000000000001484 .LASF40
     /tmp/ccTG7hDV.s:7571   .debug_str:0000000000000df3 .LASF41
     /tmp/ccTG7hDV.s:7683   .debug_str:000000000000115b .LASF42
     /tmp/ccTG7hDV.s:7843   .debug_str:0000000000001629 .LASF43
     /tmp/ccTG7hDV.s:7849   .debug_str:0000000000001672 .LASF44
     /tmp/ccTG7hDV.s:7407   .debug_str:0000000000000827 .LASF45
     /tmp/ccTG7hDV.s:7965   .debug_str:0000000000001b30 .LASF46
     /tmp/ccTG7hDV.s:7699   .debug_str:00000000000011cb .LASF47
     /tmp/ccTG7hDV.s:7243   .debug_str:0000000000000217 .LASF48
     /tmp/ccTG7hDV.s:7877   .debug_str:000000000000182f .LASF49
     /tmp/ccTG7hDV.s:7485   .debug_str:0000000000000ace .LASF50
     /tmp/ccTG7hDV.s:7549   .debug_str:0000000000000ceb .LASF51
     /tmp/ccTG7hDV.s:7309   .debug_str:0000000000000490 .LASF52
     /tmp/ccTG7hDV.s:7557   .debug_str:0000000000000d49 .LASF53
     /tmp/ccTG7hDV.s:7519   .debug_str:0000000000000bc7 .LASF54
     /tmp/ccTG7hDV.s:7839   .debug_str:0000000000001609 .LASF55
     /tmp/ccTG7hDV.s:7937   .debug_str:0000000000001a47 .LASF57
     /tmp/ccTG7hDV.s:7869   .debug_str:00000000000017d6 .LASF59
     /tmp/ccTG7hDV.s:7729   .debug_str:00000000000012d0 .LASF60
     /tmp/ccTG7hDV.s:7259   .debug_str:00000000000002a4 .LASF61
     /tmp/ccTG7hDV.s:7353   .debug_str:0000000000000649 .LASF62
     /tmp/ccTG7hDV.s:7435   .debug_str:0000000000000921 .LASF63
     /tmp/ccTG7hDV.s:7399   .debug_str:0000000000000803 .LASF64
     /tmp/ccTG7hDV.s:7253   .debug_str:000000000000027f .LASF65
     /tmp/ccTG7hDV.s:7899   .debug_str:0000000000001913 .LASF66
     /tmp/ccTG7hDV.s:7741   .debug_str:000000000000130c .LASF67
     /tmp/ccTG7hDV.s:7737   .debug_str:00000000000012f2 .LASF68
     /tmp/ccTG7hDV.s:7303   .debug_str:000000000000046c .LASF69
     /tmp/ccTG7hDV.s:7673   .debug_str:0000000000001107 .LASF70
GAS LISTING /tmp/ccTG7hDV.s 			page 69


     /tmp/ccTG7hDV.s:7181   .debug_str:0000000000000030 .LASF71
     /tmp/ccTG7hDV.s:7543   .debug_str:0000000000000cb6 .LASF72
     /tmp/ccTG7hDV.s:7503   .debug_str:0000000000000b42 .LASF73
     /tmp/ccTG7hDV.s:7851   .debug_str:000000000000167c .LASF74
     /tmp/ccTG7hDV.s:7931   .debug_str:0000000000001a1b .LASF75
     /tmp/ccTG7hDV.s:7611   .debug_str:0000000000000f50 .LASF76
     /tmp/ccTG7hDV.s:7497   .debug_str:0000000000000b19 .LASF77
     /tmp/ccTG7hDV.s:7813   .debug_str:0000000000001542 .LASF78
     /tmp/ccTG7hDV.s:7573   .debug_str:0000000000000e16 .LASF79
     /tmp/ccTG7hDV.s:7923   .debug_str:00000000000019dd .LASF80
     /tmp/ccTG7hDV.s:7783   .debug_str:0000000000001444 .LASF81
     /tmp/ccTG7hDV.s:7659   .debug_str:00000000000010ab .LASF82
     /tmp/ccTG7hDV.s:7955   .debug_str:0000000000001adc .LASF83
     /tmp/ccTG7hDV.s:7907   .debug_str:0000000000001939 .LASF84
     /tmp/ccTG7hDV.s:7705   .debug_str:0000000000001213 .LASF85
     /tmp/ccTG7hDV.s:7325   .debug_str:0000000000000530 .LASF86
     /tmp/ccTG7hDV.s:7255   .debug_str:0000000000000292 .LASF87
     /tmp/ccTG7hDV.s:7953   .debug_str:0000000000001ac4 .LASF88
     /tmp/ccTG7hDV.s:7489   .debug_str:0000000000000ae5 .LASF89
     /tmp/ccTG7hDV.s:7347   .debug_str:000000000000060e .LASF90
     /tmp/ccTG7hDV.s:7819   .debug_str:0000000000001574 .LASF91
     /tmp/ccTG7hDV.s:7459   .debug_str:00000000000009d0 .LASF92
     /tmp/ccTG7hDV.s:7413   .debug_str:0000000000000858 .LASF93
     /tmp/ccTG7hDV.s:7371   .debug_str:00000000000006fa .LASF94
     /tmp/ccTG7hDV.s:7759   .debug_str:000000000000137e .LASF95
     /tmp/ccTG7hDV.s:7511   .debug_str:0000000000000b87 .LASF96
     /tmp/ccTG7hDV.s:7469   .debug_str:0000000000000a4a .LASF97
     /tmp/ccTG7hDV.s:7601   .debug_str:0000000000000efc .LASF98
     /tmp/ccTG7hDV.s:7771   .debug_str:0000000000001400 .LASF99
     /tmp/ccTG7hDV.s:7385   .debug_str:0000000000000768 .LASF100
     /tmp/ccTG7hDV.s:7691   .debug_str:000000000000118e .LASF101
     /tmp/ccTG7hDV.s:7863   .debug_str:000000000000178c .LASF102
     /tmp/ccTG7hDV.s:7717   .debug_str:000000000000127c .LASF103
     /tmp/ccTG7hDV.s:7329   .debug_str:0000000000000557 .LASF104
     /tmp/ccTG7hDV.s:7237   .debug_str:00000000000001e8 .LASF105
     /tmp/ccTG7hDV.s:7527   .debug_str:0000000000000c19 .LASF106
     /tmp/ccTG7hDV.s:7199   .debug_str:00000000000000b5 .LASF107
     /tmp/ccTG7hDV.s:7811   .debug_str:000000000000153a .LASF108
     /tmp/ccTG7hDV.s:7621   .debug_str:0000000000000f8d .LASF109
     /tmp/ccTG7hDV.s:7667   .debug_str:00000000000010e3 .LASF110
     /tmp/ccTG7hDV.s:7499   .debug_str:0000000000000b20 .LASF111
     /tmp/ccTG7hDV.s:7669   .debug_str:00000000000010ef .LASF112
     /tmp/ccTG7hDV.s:7201   .debug_str:00000000000000bc .LASF113
     /tmp/ccTG7hDV.s:7345   .debug_str:00000000000005fb .LASF114
     /tmp/ccTG7hDV.s:7289   .debug_str:00000000000003ce .LASF115
     /tmp/ccTG7hDV.s:7777   .debug_str:000000000000141b .LASF116
     /tmp/ccTG7hDV.s:7505   .debug_str:0000000000000b56 .LASF117
     /tmp/ccTG7hDV.s:7859   .debug_str:00000000000016ad .LASF118
     /tmp/ccTG7hDV.s:7541   .debug_str:0000000000000ca5 .LASF119
     /tmp/ccTG7hDV.s:7561   .debug_str:0000000000000d7c .LASF120
     /tmp/ccTG7hDV.s:7941   .debug_str:0000000000001a60 .LASF122
     /tmp/ccTG7hDV.s:7389   .debug_str:0000000000000790 .LASF129
     /tmp/ccTG7hDV.s:7585   .debug_str:0000000000000e65 .LASF123
     /tmp/ccTG7hDV.s:7233   .debug_str:00000000000001d4 .LASF124
     /tmp/ccTG7hDV.s:7827   .debug_str:00000000000015b2 .LASF125
     /tmp/ccTG7hDV.s:7393   .debug_str:00000000000007b0 .LASF127
     /tmp/ccTG7hDV.s:7521   .debug_str:0000000000000bd4 .LASF126
GAS LISTING /tmp/ccTG7hDV.s 			page 70


     /tmp/ccTG7hDV.s:7711   .debug_str:000000000000124a .LASF128
     /tmp/ccTG7hDV.s:7615   .debug_str:0000000000000f74 .LASF130
     /tmp/ccTG7hDV.s:7633   .debug_str:0000000000000fdf .LASF131
     /tmp/ccTG7hDV.s:7599   .debug_str:0000000000000ee9 .LASF132
     /tmp/ccTG7hDV.s:7921   .debug_str:00000000000019d4 .LASF133
     /tmp/ccTG7hDV.s:7383   .debug_str:000000000000075e .LASF134
     /tmp/ccTG7hDV.s:7183   .debug_str:0000000000000044 .LASF135
     /tmp/ccTG7hDV.s:7639   .debug_str:0000000000001005 .LASF137
     /tmp/ccTG7hDV.s:7189   .debug_str:0000000000000068 .LASF136
     /tmp/ccTG7hDV.s:7271   .debug_str:000000000000030e .LASF138
     /tmp/ccTG7hDV.s:7837   .debug_str:00000000000015fe .LASF139
     /tmp/ccTG7hDV.s:7547   .debug_str:0000000000000cc7 .LASF140
     /tmp/ccTG7hDV.s:7803   .debug_str:00000000000014ef .LASF141
     /tmp/ccTG7hDV.s:7357   .debug_str:0000000000000668 .LASF142
     /tmp/ccTG7hDV.s:7763   .debug_str:000000000000138f .LASF143
     /tmp/ccTG7hDV.s:7317   .debug_str:00000000000004dd .LASF144
     /tmp/ccTG7hDV.s:7335   .debug_str:00000000000005a1 .LASF145
     /tmp/ccTG7hDV.s:7675   .debug_str:000000000000110f .LASF146
     /tmp/ccTG7hDV.s:7787   .debug_str:000000000000145c .LASF147
     /tmp/ccTG7hDV.s:7423   .debug_str:00000000000008aa .LASF148
     /tmp/ccTG7hDV.s:7939   .debug_str:0000000000001a50 .LASF149
     /tmp/ccTG7hDV.s:7961   .debug_str:0000000000001aff .LASF150
     /tmp/ccTG7hDV.s:7173   .debug_str:0000000000000000 .LASF151
     /tmp/ccTG7hDV.s:7597   .debug_str:0000000000000ec2 .LASF152
     /tmp/ccTG7hDV.s:7273   .debug_str:000000000000032f .LASF391
     /tmp/ccTG7hDV.s:7529   .debug_str:0000000000000c3b .LASF392
     /tmp/ccTG7hDV.s:7269   .debug_str:0000000000000308 .LASF153
     /tmp/ccTG7hDV.s:7555   .debug_str:0000000000000d43 .LASF154
     /tmp/ccTG7hDV.s:7627   .debug_str:0000000000000fb5 .LASF155
     /tmp/ccTG7hDV.s:7789   .debug_str:000000000000146d .LASF156
     /tmp/ccTG7hDV.s:7483   .debug_str:0000000000000ac5 .LASF157
     /tmp/ccTG7hDV.s:7463   .debug_str:0000000000000a0c .LASF158
     /tmp/ccTG7hDV.s:7957   .debug_str:0000000000001aea .LASF159
     /tmp/ccTG7hDV.s:7681   .debug_str:0000000000001153 .LASF160
     /tmp/ccTG7hDV.s:7379   .debug_str:0000000000000750 .LASF161
     /tmp/ccTG7hDV.s:7883   .debug_str:0000000000001866 .LASF162
     /tmp/ccTG7hDV.s:7559   .debug_str:0000000000000d64 .LASF393
     /tmp/ccTG7hDV.s:7881   .debug_str:0000000000001861 .LASF163
     /tmp/ccTG7hDV.s:7427   .debug_str:00000000000008ea .LASF164
     /tmp/ccTG7hDV.s:7411   .debug_str:000000000000084c .LASF165
     /tmp/ccTG7hDV.s:7751   .debug_str:000000000000135a .LASF166
     /tmp/ccTG7hDV.s:7507   .debug_str:0000000000000b5f .LASF167
     /tmp/ccTG7hDV.s:7539   .debug_str:0000000000000c9c .LASF168
     /tmp/ccTG7hDV.s:7477   .debug_str:0000000000000a96 .LASF169
     /tmp/ccTG7hDV.s:7933   .debug_str:0000000000001a22 .LASF170
     /tmp/ccTG7hDV.s:7829   .debug_str:00000000000015ba .LASF171
     /tmp/ccTG7hDV.s:7297   .debug_str:0000000000000424 .LASF172
     /tmp/ccTG7hDV.s:7509   .debug_str:0000000000000b6f .LASF173
     /tmp/ccTG7hDV.s:7635   .debug_str:0000000000000fed .LASF174
     /tmp/ccTG7hDV.s:7263   .debug_str:00000000000002cd .LASF175
     /tmp/ccTG7hDV.s:7629   .debug_str:0000000000000fbd .LASF176
     /tmp/ccTG7hDV.s:7697   .debug_str:00000000000011be .LASF177
     /tmp/ccTG7hDV.s:7647   .debug_str:0000000000001063 .LASF178
     /tmp/ccTG7hDV.s:7283   .debug_str:000000000000039c .LASF179
     /tmp/ccTG7hDV.s:7723   .debug_str:00000000000012a4 .LASF180
     /tmp/ccTG7hDV.s:7203   .debug_str:00000000000000cf .LASF181
     /tmp/ccTG7hDV.s:7535   .debug_str:0000000000000c82 .LASF182
GAS LISTING /tmp/ccTG7hDV.s 			page 71


     /tmp/ccTG7hDV.s:7457   .debug_str:00000000000009b6 .LASF183
     /tmp/ccTG7hDV.s:7703   .debug_str:0000000000001204 .LASF184
     /tmp/ccTG7hDV.s:7569   .debug_str:0000000000000dd9 .LASF185
     /tmp/ccTG7hDV.s:7825   .debug_str:00000000000015a4 .LASF186
     /tmp/ccTG7hDV.s:7831   .debug_str:00000000000015cb .LASF187
     /tmp/ccTG7hDV.s:7719   .debug_str:000000000000128b .LASF188
     /tmp/ccTG7hDV.s:7359   .debug_str:000000000000069d .LASF189
     /tmp/ccTG7hDV.s:7403   .debug_str:0000000000000813 .LASF190
     /tmp/ccTG7hDV.s:7927   .debug_str:00000000000019fd .LASF191
     /tmp/ccTG7hDV.s:7187   .debug_str:000000000000005d .LASF192
     /tmp/ccTG7hDV.s:7491   .debug_str:0000000000000aec .LASF193
     /tmp/ccTG7hDV.s:7715   .debug_str:0000000000001271 .LASF194
     /tmp/ccTG7hDV.s:7853   .debug_str:0000000000001689 .LASF195
     /tmp/ccTG7hDV.s:7481   .debug_str:0000000000000aba .LASF196
     /tmp/ccTG7hDV.s:7247   .debug_str:0000000000000251 .LASF197
     /tmp/ccTG7hDV.s:7857   .debug_str:00000000000016a5 .LASF198
     /tmp/ccTG7hDV.s:7595   .debug_str:0000000000000eae .LASF199
     /tmp/ccTG7hDV.s:7267   .debug_str:00000000000002e9 .LASF200
     /tmp/ccTG7hDV.s:7727   .debug_str:00000000000012be .LASF201
     /tmp/ccTG7hDV.s:7935   .debug_str:0000000000001a2a .LASF202
     /tmp/ccTG7hDV.s:7589   .debug_str:0000000000000e77 .LASF203
     /tmp/ccTG7hDV.s:7915   .debug_str:000000000000198c .LASF204
     /tmp/ccTG7hDV.s:7337   .debug_str:00000000000005b6 .LASF205
     /tmp/ccTG7hDV.s:7897   .debug_str:00000000000018f5 .LASF206
     /tmp/ccTG7hDV.s:7801   .debug_str:00000000000014dc .LASF207
     /tmp/ccTG7hDV.s:7223   .debug_str:000000000000017d .LASF208
     /tmp/ccTG7hDV.s:7847   .debug_str:000000000000165d .LASF209
     /tmp/ccTG7hDV.s:7943   .debug_str:0000000000001a70 .LASF210
     /tmp/ccTG7hDV.s:7593   .debug_str:0000000000000e9a .LASF211
     /tmp/ccTG7hDV.s:7889   .debug_str:000000000000188c .LASF212
     /tmp/ccTG7hDV.s:7291   .debug_str:00000000000003e2 .LASF213
     /tmp/ccTG7hDV.s:7649   .debug_str:000000000000106c .LASF214
     /tmp/ccTG7hDV.s:7279   .debug_str:0000000000000384 .LASF215
     /tmp/ccTG7hDV.s:7305   .debug_str:0000000000000480 .LASF216
     /tmp/ccTG7hDV.s:7805   .debug_str:000000000000150a .LASF217
     /tmp/ccTG7hDV.s:7865   .debug_str:00000000000017a4 .LASF218
     /tmp/ccTG7hDV.s:7875   .debug_str:0000000000001807 .LASF219
     /tmp/ccTG7hDV.s:7661   .debug_str:00000000000010bd .LASF220
     /tmp/ccTG7hDV.s:7275   .debug_str:0000000000000341 .LASF221
     /tmp/ccTG7hDV.s:7577   .debug_str:0000000000000e25 .LASF222
     /tmp/ccTG7hDV.s:7949   .debug_str:0000000000001aa5 .LASF223
     /tmp/ccTG7hDV.s:7799   .debug_str:00000000000014d7 .LASF224
     /tmp/ccTG7hDV.s:7665   .debug_str:00000000000010de .LASF225
     /tmp/ccTG7hDV.s:7239   .debug_str:00000000000001fd .LASF226
     /tmp/ccTG7hDV.s:7855   .debug_str:000000000000169f .LASF227
     /tmp/ccTG7hDV.s:7625   .debug_str:0000000000000fad .LASF228
     /tmp/ccTG7hDV.s:7479   .debug_str:0000000000000aa9 .LASF229
     /tmp/ccTG7hDV.s:7487   .debug_str:0000000000000ae0 .LASF230
     /tmp/ccTG7hDV.s:7591   .debug_str:0000000000000e8d .LASF231
     /tmp/ccTG7hDV.s:7281   .debug_str:000000000000038c .LASF232
     /tmp/ccTG7hDV.s:7913   .debug_str:000000000000197a .LASF233
     /tmp/ccTG7hDV.s:7767   .debug_str:00000000000013b8 .LASF234
     /tmp/ccTG7hDV.s:7925   .debug_str:00000000000019ef .LASF235
     /tmp/ccTG7hDV.s:7465   .debug_str:0000000000000a14 .LASF236
     /tmp/ccTG7hDV.s:7637   .debug_str:0000000000000ffa .LASF237
     /tmp/ccTG7hDV.s:7369   .debug_str:00000000000006e6 .LASF238
     /tmp/ccTG7hDV.s:7445   .debug_str:0000000000000965 .LASF239
GAS LISTING /tmp/ccTG7hDV.s 			page 72


     /tmp/ccTG7hDV.s:7261   .debug_str:00000000000002b9 .LASF240
     /tmp/ccTG7hDV.s:7619   .debug_str:0000000000000f88 .LASF241
     /tmp/ccTG7hDV.s:7551   .debug_str:0000000000000d0a .LASF242
     /tmp/ccTG7hDV.s:7211   .debug_str:000000000000010b .LASF243
     /tmp/ccTG7hDV.s:7367   .debug_str:00000000000006cd .LASF244
     /tmp/ccTG7hDV.s:7663   .debug_str:00000000000010d2 .LASF245
     /tmp/ccTG7hDV.s:7809   .debug_str:000000000000152e .LASF246
     /tmp/ccTG7hDV.s:7901   .debug_str:000000000000191b .LASF247
     /tmp/ccTG7hDV.s:7693   .debug_str:0000000000001199 .LASF248
     /tmp/ccTG7hDV.s:7545   .debug_str:0000000000000cbe .LASF249
     /tmp/ccTG7hDV.s:7753   .debug_str:0000000000001360 .LASF250
     /tmp/ccTG7hDV.s:7579   .debug_str:0000000000000e2c .LASF251
     /tmp/ccTG7hDV.s:7755   .debug_str:000000000000136a .LASF252
     /tmp/ccTG7hDV.s:7249   .debug_str:0000000000000267 .LASF253
     /tmp/ccTG7hDV.s:7373   .debug_str:0000000000000710 .LASF254
     /tmp/ccTG7hDV.s:7919   .debug_str:00000000000019c5 .LASF255
     /tmp/ccTG7hDV.s:7641   .debug_str:0000000000001026 .LASF256
     /tmp/ccTG7hDV.s:7613   .debug_str:0000000000000f63 .LASF257
     /tmp/ccTG7hDV.s:7523   .debug_str:0000000000000bda .LASF258
     /tmp/ccTG7hDV.s:7893   .debug_str:00000000000018d2 .LASF259
     /tmp/ccTG7hDV.s:7221   .debug_str:000000000000015a .LASF260
     /tmp/ccTG7hDV.s:7731   .debug_str:00000000000012d9 .LASF261
     /tmp/ccTG7hDV.s:7217   .debug_str:0000000000000135 .LASF262
     /tmp/ccTG7hDV.s:7227   .debug_str:00000000000001b3 .LASF263
     /tmp/ccTG7hDV.s:7349   .debug_str:0000000000000621 .LASF264
     /tmp/ccTG7hDV.s:7695   .debug_str:00000000000011ae .LASF265
     /tmp/ccTG7hDV.s:7397   .debug_str:00000000000007e0 .LASF266
     /tmp/ccTG7hDV.s:7467   .debug_str:0000000000000a37 .LASF267
     /tmp/ccTG7hDV.s:7567   .debug_str:0000000000000db3 .LASF268
     /tmp/ccTG7hDV.s:7791   .debug_str:0000000000001477 .LASF269
     /tmp/ccTG7hDV.s:7867   .debug_str:00000000000017b2 .LASF270
     /tmp/ccTG7hDV.s:7575   .debug_str:0000000000000e1c .LASF271
     /tmp/ccTG7hDV.s:7885   .debug_str:0000000000001871 .LASF272
     /tmp/ccTG7hDV.s:7299   .debug_str:0000000000000431 .LASF273
     /tmp/ccTG7hDV.s:7433   .debug_str:0000000000000914 .LASF274
     /tmp/ccTG7hDV.s:7747   .debug_str:0000000000001336 .LASF275
     /tmp/ccTG7hDV.s:7765   .debug_str:00000000000013a5 .LASF276
     /tmp/ccTG7hDV.s:7891   .debug_str:00000000000018ab .LASF277
     /tmp/ccTG7hDV.s:7447   .debug_str:0000000000000971 .LASF278
     /tmp/ccTG7hDV.s:7391   .debug_str:000000000000079c .LASF279
     /tmp/ccTG7hDV.s:7205   .debug_str:00000000000000eb .LASF280
     /tmp/ccTG7hDV.s:7311   .debug_str:000000000000049e .LASF281
     /tmp/ccTG7hDV.s:7653   .debug_str:000000000000107c .LASF282
     /tmp/ccTG7hDV.s:7207   .debug_str:00000000000000f5 .LASF283
     /tmp/ccTG7hDV.s:7419   .debug_str:0000000000000885 .LASF284
     /tmp/ccTG7hDV.s:7191   .debug_str:0000000000000071 .LASF285
     /tmp/ccTG7hDV.s:7365   .debug_str:00000000000006c1 .LASF286
     /tmp/ccTG7hDV.s:7823   .debug_str:0000000000001597 .LASF287
     /tmp/ccTG7hDV.s:7363   .debug_str:00000000000006b5 .LASF288
     /tmp/ccTG7hDV.s:7775   .debug_str:000000000000140f .LASF289
     /tmp/ccTG7hDV.s:7313   .debug_str:00000000000004a9 .LASF290
     /tmp/ccTG7hDV.s:7553   .debug_str:0000000000000d21 .LASF291
     /tmp/ccTG7hDV.s:7471   .debug_str:0000000000000a50 .LASF292
     /tmp/ccTG7hDV.s:7795   .debug_str:0000000000001498 .LASF293
     /tmp/ccTG7hDV.s:7375   .debug_str:0000000000000732 .LASF294
     /tmp/ccTG7hDV.s:7315   .debug_str:00000000000004bb .LASF295
     /tmp/ccTG7hDV.s:7415   .debug_str:0000000000000862 .LASF296
GAS LISTING /tmp/ccTG7hDV.s 			page 73


     /tmp/ccTG7hDV.s:7333   .debug_str:000000000000057e .LASF297
     /tmp/ccTG7hDV.s:7285   .debug_str:00000000000003af .LASF298
     /tmp/ccTG7hDV.s:7565   .debug_str:0000000000000d90 .LASF299
     /tmp/ccTG7hDV.s:7701   .debug_str:00000000000011e9 .LASF300
     /tmp/ccTG7hDV.s:7319   .debug_str:000000000000050b .LASF301
     /tmp/ccTG7hDV.s:7581   .debug_str:0000000000000e35 .LASF302
     /tmp/ccTG7hDV.s:7301   .debug_str:0000000000000453 .LASF303
     /tmp/ccTG7hDV.s:7461   .debug_str:00000000000009e3 .LASF304
     /tmp/ccTG7hDV.s:7807   .debug_str:0000000000001516 .LASF305
     /tmp/ccTG7hDV.s:7295   .debug_str:00000000000003fb .LASF306
     /tmp/ccTG7hDV.s:7395   .debug_str:00000000000007cf .LASF307
     /tmp/ccTG7hDV.s:7631   .debug_str:0000000000000fcd .LASF308
     /tmp/ccTG7hDV.s:7193   .debug_str:000000000000007c .LASF309
     /tmp/ccTG7hDV.s:7587   .debug_str:0000000000000e6a .LASF310
     /tmp/ccTG7hDV.s:7583   .debug_str:0000000000000e54 .LASF311
     /tmp/ccTG7hDV.s:7287   .debug_str:00000000000003c2 .LASF312
     /tmp/ccTG7hDV.s:7821   .debug_str:000000000000157b .LASF313
     /tmp/ccTG7hDV.s:7959   .debug_str:0000000000001af3 .LASF314
     /tmp/ccTG7hDV.s:7431   .debug_str:00000000000008f8 .LASF315
     /tmp/ccTG7hDV.s:7743   .debug_str:0000000000001320 .LASF316
     /tmp/ccTG7hDV.s:7355   .debug_str:0000000000000650 .LASF394
     /tmp/ccTG7hDV.s:7643   .debug_str:0000000000001048 .LASF395
     /tmp/ccTG7hDV.s:7439   .debug_str:000000000000093f .LASF317
     /tmp/ccTG7hDV.s:7339   .debug_str:00000000000005c9 .LASF318
     /tmp/ccTG7hDV.s:7381   .debug_str:0000000000000756 .LASF319
     /tmp/ccTG7hDV.s:7917   .debug_str:00000000000019ad .LASF320
     /tmp/ccTG7hDV.s:7671   .debug_str:0000000000001101 .LASF321
     /tmp/ccTG7hDV.s:7609   .debug_str:0000000000000f3a .LASF322
     /tmp/ccTG7hDV.s:7725   .debug_str:00000000000012ad .LASF323
     /tmp/ccTG7hDV.s:7623   .debug_str:0000000000000f9c .LASF324
     /tmp/ccTG7hDV.s:7537   .debug_str:0000000000000c91 .LASF325
     /tmp/ccTG7hDV.s:7209   .debug_str:0000000000000100 .LASF326
     /tmp/ccTG7hDV.s:7841   .debug_str:0000000000001623 .LASF327
     /tmp/ccTG7hDV.s:7451   .debug_str:000000000000098c .LASF328
     /tmp/ccTG7hDV.s:7185   .debug_str:000000000000004e .LASF329
     /tmp/ccTG7hDV.s:7231   .debug_str:00000000000001c8 .LASF330
     /tmp/ccTG7hDV.s:7679   .debug_str:0000000000001149 .LASF331
     /tmp/ccTG7hDV.s:7685   .debug_str:0000000000001166 .LASF332
     /tmp/ccTG7hDV.s:7251   .debug_str:0000000000000276 .LASF333
     /tmp/ccTG7hDV.s:7453   .debug_str:0000000000000991 .LASF334
     /tmp/ccTG7hDV.s:7709   .debug_str:0000000000001235 .LASF335
     /tmp/ccTG7hDV.s:7343   .debug_str:00000000000005e2 .LASF336
     /tmp/ccTG7hDV.s:7603   .debug_str:0000000000000f0e .LASF337
     /tmp/ccTG7hDV.s:7175   .debug_str:000000000000000f .LASF338
     /tmp/ccTG7hDV.s:7525   .debug_str:0000000000000bfe .LASF339
     /tmp/ccTG7hDV.s:7911   .debug_str:0000000000001967 .LASF340
     /tmp/ccTG7hDV.s:7707   .debug_str:000000000000121e .LASF341
     /tmp/ccTG7hDV.s:7797   .debug_str:00000000000014ba .LASF342
     /tmp/ccTG7hDV.s:7945   .debug_str:0000000000001a90 .LASF343
     /tmp/ccTG7hDV.s:7351   .debug_str:000000000000063b .LASF344
     /tmp/ccTG7hDV.s:7873   .debug_str:00000000000017f7 .LASF345
     /tmp/ccTG7hDV.s:7293   .debug_str:00000000000003eb .LASF346
     /tmp/ccTG7hDV.s:1182   .text:000000000000072c .LFB41
     /tmp/ccTG7hDV.s:1852   .text:00000000000009f8 .LFE41
     /tmp/ccTG7hDV.s:7645   .debug_str:000000000000105c .LASF347
     /tmp/ccTG7hDV.s:6601   .debug_loc:0000000000000000 .LLST29
     /tmp/ccTG7hDV.s:7361   .debug_str:00000000000006ad .LASF348
GAS LISTING /tmp/ccTG7hDV.s 			page 74


     /tmp/ccTG7hDV.s:7257   .debug_str:000000000000029d .LASF349
     /tmp/ccTG7hDV.s:7179   .debug_str:0000000000000028 .LASF350
     /tmp/ccTG7hDV.s:1300   .text:00000000000007e0 .LBB73
     /tmp/ccTG7hDV.s:1316   .text:00000000000007ec .LBE73
     /tmp/ccTG7hDV.s:7655   .debug_str:0000000000001086 .LASF351
     /tmp/ccTG7hDV.s:6612   .debug_loc:0000000000000036 .LLST30
     /tmp/ccTG7hDV.s:1314   .text:00000000000007ec .LVL112
     /tmp/ccTG7hDV.s:1319   .text:00000000000007ec .LBB74
     /tmp/ccTG7hDV.s:1334   .text:00000000000007f8 .LBE74
     /tmp/ccTG7hDV.s:6624   .debug_loc:000000000000006d .LLST31
     /tmp/ccTG7hDV.s:1332   .text:00000000000007f8 .LVL114
     /tmp/ccTG7hDV.s:1337   .text:00000000000007f8 .LBB75
     /tmp/ccTG7hDV.s:1352   .text:0000000000000804 .LBE75
     /tmp/ccTG7hDV.s:6636   .debug_loc:00000000000000a4 .LLST32
     /tmp/ccTG7hDV.s:1350   .text:0000000000000804 .LVL116
     /tmp/ccTG7hDV.s:7157   .debug_ranges:0000000000000000 .Ldebug_ranges0
     /tmp/ccTG7hDV.s:7687   .debug_str:0000000000001176 .LASF352
     /tmp/ccTG7hDV.s:7533   .debug_str:0000000000000c7a .LASF353
     /tmp/ccTG7hDV.s:1357   .text:0000000000000804 .LBB77
     /tmp/ccTG7hDV.s:1372   .text:0000000000000810 .LBE77
     /tmp/ccTG7hDV.s:1376   .text:0000000000000814 .LBB79
     /tmp/ccTG7hDV.s:1391   .text:0000000000000820 .LBE79
     /tmp/ccTG7hDV.s:1396   .text:0000000000000824 .LBB81
     /tmp/ccTG7hDV.s:1408   .text:000000000000082c .LBE81
     /tmp/ccTG7hDV.s:6648   .debug_loc:00000000000000db .LLST33
     /tmp/ccTG7hDV.s:1430   .text:0000000000000868 .LBB83
     /tmp/ccTG7hDV.s:1438   .text:000000000000086c .LBE83
     /tmp/ccTG7hDV.s:6656   .debug_loc:00000000000000ff .LLST34
     /tmp/ccTG7hDV.s:1448   .text:0000000000000878 .LBB85
     /tmp/ccTG7hDV.s:1459   .text:000000000000087c .LBE85
     /tmp/ccTG7hDV.s:6663   .debug_loc:0000000000000122 .LLST35
     /tmp/ccTG7hDV.s:1464   .text:0000000000000880 .LBB87
     /tmp/ccTG7hDV.s:1475   .text:0000000000000884 .LBE87
     /tmp/ccTG7hDV.s:6670   .debug_loc:0000000000000145 .LLST36
     /tmp/ccTG7hDV.s:1424   .text:000000000000085c .LVL119
     /tmp/ccTG7hDV.s:1479   .text:000000000000088c .LVL126
     /tmp/ccTG7hDV.s:1508   .text:00000000000008ac .LVL127
     /tmp/ccTG7hDV.s:7195   .debug_str:0000000000000089 .LASF354
     /tmp/ccTG7hDV.s:6677   .debug_loc:0000000000000168 .LLST37
     /tmp/ccTG7hDV.s:1553   .text:00000000000008d8 .LBB91
     /tmp/ccTG7hDV.s:1568   .text:00000000000008e4 .LBE91
     /tmp/ccTG7hDV.s:1574   .text:00000000000008ec .LBB93
     /tmp/ccTG7hDV.s:1589   .text:00000000000008f8 .LBE93
     /tmp/ccTG7hDV.s:1687   .text:000000000000092c .LBB95
     /tmp/ccTG7hDV.s:1698   .text:0000000000000930 .LBE95
     /tmp/ccTG7hDV.s:6684   .debug_loc:000000000000018b .LLST38
     /tmp/ccTG7hDV.s:1703   .text:0000000000000934 .LBB97
     /tmp/ccTG7hDV.s:1714   .text:0000000000000938 .LBE97
     /tmp/ccTG7hDV.s:6691   .debug_loc:00000000000001ae .LLST39
     /tmp/ccTG7hDV.s:1680   .text:0000000000000928 .LVL133
     /tmp/ccTG7hDV.s:1718   .text:0000000000000940 .LVL138
     /tmp/ccTG7hDV.s:1733   .text:000000000000094c .LVL139
     /tmp/ccTG7hDV.s:1741   .text:0000000000000958 .LVL140
     /tmp/ccTG7hDV.s:1749   .text:0000000000000964 .LVL141
     /tmp/ccTG7hDV.s:1757   .text:0000000000000970 .LVL142
     /tmp/ccTG7hDV.s:1765   .text:000000000000097c .LVL143
     /tmp/ccTG7hDV.s:1773   .text:0000000000000988 .LVL144
GAS LISTING /tmp/ccTG7hDV.s 			page 75


     /tmp/ccTG7hDV.s:1781   .text:0000000000000994 .LVL145
     /tmp/ccTG7hDV.s:1789   .text:00000000000009a0 .LVL146
     /tmp/ccTG7hDV.s:1797   .text:00000000000009ac .LVL147
     /tmp/ccTG7hDV.s:1805   .text:00000000000009b8 .LVL148
     /tmp/ccTG7hDV.s:1813   .text:00000000000009c4 .LVL149
     /tmp/ccTG7hDV.s:1821   .text:00000000000009d0 .LVL150
     /tmp/ccTG7hDV.s:1829   .text:00000000000009dc .LVL151
     /tmp/ccTG7hDV.s:1837   .text:00000000000009e8 .LVL152
     /tmp/ccTG7hDV.s:1845   .text:00000000000009f4 .LVL153
     /tmp/ccTG7hDV.s:1216   .text:0000000000000764 .LBB69
     /tmp/ccTG7hDV.s:1232   .text:0000000000000770 .LBE69
     /tmp/ccTG7hDV.s:1288   .text:00000000000007cc .LVL107
     /tmp/ccTG7hDV.s:1292   .text:00000000000007d4 .LVL108
     /tmp/ccTG7hDV.s:1294   .text:00000000000007dc .LVL109
     /tmp/ccTG7hDV.s:1517   .text:00000000000008b8 .LVL128
     /tmp/ccTG7hDV.s:1526   .text:00000000000008c4 .LVL129
     /tmp/ccTG7hDV.s:1535   .text:00000000000008d0 .LVL130
     /tmp/ccTG7hDV.s:1116   .text:00000000000006ec .LFB40
     /tmp/ccTG7hDV.s:1176   .text:000000000000072c .LFE40
     /tmp/ccTG7hDV.s:1134   .text:000000000000070c .LBB65
     /tmp/ccTG7hDV.s:1147   .text:0000000000000714 .LBE65
     /tmp/ccTG7hDV.s:6698   .debug_loc:00000000000001d1 .LLST27
     /tmp/ccTG7hDV.s:1160   .text:0000000000000720 .LBB67
     /tmp/ccTG7hDV.s:1172   .text:0000000000000728 .LBE67
     /tmp/ccTG7hDV.s:6707   .debug_loc:00000000000001f7 .LLST28
     /tmp/ccTG7hDV.s:1063   .text:00000000000006b4 .LFB39
     /tmp/ccTG7hDV.s:1110   .text:00000000000006ec .LFE39
     /tmp/ccTG7hDV.s:7947   .debug_str:0000000000001a9e .LASF355
     /tmp/ccTG7hDV.s:1030   .text:0000000000000694 .LFB38
     /tmp/ccTG7hDV.s:1057   .text:00000000000006b4 .LFE38
     /tmp/ccTG7hDV.s:996    .text:0000000000000664 .LFB37
     /tmp/ccTG7hDV.s:1024   .text:0000000000000694 .LFE37
     /tmp/ccTG7hDV.s:7749   .debug_str:0000000000001355 .LASF356
     /tmp/ccTG7hDV.s:6716   .debug_loc:000000000000021d .LLST26
     /tmp/ccTG7hDV.s:1013   .text:0000000000000684 .LVL97
     /tmp/ccTG7hDV.s:962    .text:0000000000000634 .LFB36
     /tmp/ccTG7hDV.s:990    .text:0000000000000664 .LFE36
     /tmp/ccTG7hDV.s:6730   .debug_loc:0000000000000256 .LLST25
     /tmp/ccTG7hDV.s:979    .text:0000000000000654 .LVL95
     /tmp/ccTG7hDV.s:279    .text:0000000000000144 .LFB35
     /tmp/ccTG7hDV.s:514    .text:00000000000002a8 .LFE35
     /tmp/ccTG7hDV.s:6744   .debug_loc:000000000000028f .LLST3
     /tmp/ccTG7hDV.s:7605   .debug_str:0000000000000f2b .LASF357
     /tmp/ccTG7hDV.s:6758   .debug_loc:00000000000002c8 .LLST4
     /tmp/ccTG7hDV.s:7773   .debug_str:0000000000001406 .LASF358
     /tmp/ccTG7hDV.s:6791   .debug_loc:0000000000000350 .LLST5
     /tmp/ccTG7hDV.s:6817   .debug_loc:00000000000003c2 .LLST6
     /tmp/ccTG7hDV.s:6841   .debug_loc:0000000000000414 .LLST7
     /tmp/ccTG7hDV.s:6864   .debug_loc:0000000000000466 .LLST8
     /tmp/ccTG7hDV.s:7721   .debug_str:000000000000129b .LASF359
     /tmp/ccTG7hDV.s:6896   .debug_loc:00000000000004d1 .LLST9
     /tmp/ccTG7hDV.s:7905   .debug_str:0000000000001934 .LASF360
     /tmp/ccTG7hDV.s:6917   .debug_loc:000000000000052f .LLST10
     /tmp/ccTG7hDV.s:7963   .debug_str:0000000000001b27 .LASF361
     /tmp/ccTG7hDV.s:6938   .debug_loc:000000000000058d .LLST11
     /tmp/ccTG7hDV.s:7903   .debug_str:000000000000192f .LASF362
     /tmp/ccTG7hDV.s:6959   .debug_loc:00000000000005eb .LLST12
GAS LISTING /tmp/ccTG7hDV.s 			page 76


     /tmp/ccTG7hDV.s:7429   .debug_str:00000000000008ef .LASF363
     /tmp/ccTG7hDV.s:6980   .debug_loc:0000000000000649 .LLST13
     /tmp/ccTG7hDV.s:415    .text:000000000000020c .LBB52
     /tmp/ccTG7hDV.s:462    .text:000000000000025c .LBE52
     /tmp/ccTG7hDV.s:7449   .debug_str:0000000000000984 .LASF364
     /tmp/ccTG7hDV.s:6987   .debug_loc:000000000000066c .LLST14
     /tmp/ccTG7hDV.s:425    .text:0000000000000220 .LBB53
     /tmp/ccTG7hDV.s:445    .text:0000000000000240 .LBE53
     /tmp/ccTG7hDV.s:6994   .debug_loc:000000000000068f .LLST15
     /tmp/ccTG7hDV.s:423    .text:0000000000000220 .LVL34
     /tmp/ccTG7hDV.s:468    .text:0000000000000260 .LBB55
     /tmp/ccTG7hDV.s:510    .text:00000000000002a4 .LBE55
     /tmp/ccTG7hDV.s:477    .text:0000000000000274 .LBB56
     /tmp/ccTG7hDV.s:497    .text:0000000000000294 .LBE56
     /tmp/ccTG7hDV.s:7010   .debug_loc:00000000000006d9 .LLST16
     /tmp/ccTG7hDV.s:475    .text:0000000000000274 .LVL42
     /tmp/ccTG7hDV.s:192    .text:00000000000000ec .LFB34
     /tmp/ccTG7hDV.s:273    .text:0000000000000144 .LFE34
     /tmp/ccTG7hDV.s:234    .text:0000000000000120 .LBB49
     /tmp/ccTG7hDV.s:268    .text:0000000000000140 .LBE49
     /tmp/ccTG7hDV.s:73     .text:0000000000000038 .LFB33
     /tmp/ccTG7hDV.s:105    .text:0000000000000058 .LFE33
     /tmp/ccTG7hDV.s:84     .text:0000000000000044 .LBB46
     /tmp/ccTG7hDV.s:96     .text:000000000000004c .LBE46
     /tmp/ccTG7hDV.s:7026   .debug_loc:0000000000000723 .LLST1
     /tmp/ccTG7hDV.s:34     .text:0000000000000018 .LFB32
     /tmp/ccTG7hDV.s:67     .text:0000000000000038 .LFE32
     /tmp/ccTG7hDV.s:45     .text:0000000000000024 .LBB44
     /tmp/ccTG7hDV.s:58     .text:000000000000002c .LBE44
     /tmp/ccTG7hDV.s:7034   .debug_loc:0000000000000747 .LLST0
     /tmp/ccTG7hDV.s:111    .text:0000000000000058 .LFB31
     /tmp/ccTG7hDV.s:186    .text:00000000000000ec .LFE31
     /tmp/ccTG7hDV.s:7042   .debug_loc:000000000000076b .LLST2
     /tmp/ccTG7hDV.s:125    .text:0000000000000070 .LVL4
     /tmp/ccTG7hDV.s:137    .text:0000000000000084 .LVL6
     /tmp/ccTG7hDV.s:146    .text:000000000000009c .LVL8
     /tmp/ccTG7hDV.s:154    .text:00000000000000b0 .LVL9
     /tmp/ccTG7hDV.s:162    .text:00000000000000c4 .LVL10
     /tmp/ccTG7hDV.s:168    .text:00000000000000d0 .LVL11
     /tmp/ccTG7hDV.s:175    .text:00000000000000dc .LVL12
     /tmp/ccTG7hDV.s:896    .text:00000000000005bc .LFB30
     /tmp/ccTG7hDV.s:956    .text:0000000000000634 .LFE30
     /tmp/ccTG7hDV.s:920    .text:00000000000005f0 .LVL89
     /tmp/ccTG7hDV.s:924    .text:00000000000005f8 .LVL90
     /tmp/ccTG7hDV.s:932    .text:000000000000060c .LVL91
     /tmp/ccTG7hDV.s:938    .text:0000000000000618 .LVL92
     /tmp/ccTG7hDV.s:945    .text:0000000000000624 .LVL93
     /tmp/ccTG7hDV.s:598    .text:0000000000000310 .LFB29
     /tmp/ccTG7hDV.s:890    .text:00000000000005bc .LFE29
     /tmp/ccTG7hDV.s:7213   .debug_str:0000000000000112 .LASF365
     /tmp/ccTG7hDV.s:7049   .debug_loc:000000000000078e .LLST21
     /tmp/ccTG7hDV.s:7781   .debug_str:0000000000001437 .LASF366
     /tmp/ccTG7hDV.s:7062   .debug_loc:00000000000007c9 .LLST22
     /tmp/ccTG7hDV.s:7617   .debug_str:0000000000000f7d .LASF367
     /tmp/ccTG7hDV.s:7835   .debug_str:00000000000015f3 .LASF368
     /tmp/ccTG7hDV.s:7323   .debug_str:0000000000000525 .LASF369
     /tmp/ccTG7hDV.s:7331   .debug_str:0000000000000573 .LASF370
GAS LISTING /tmp/ccTG7hDV.s 			page 77


     /tmp/ccTG7hDV.s:7177   .debug_str:0000000000000023 .LASF371
     /tmp/ccTG7hDV.s:708    .text:00000000000003fc .LBB62
     /tmp/ccTG7hDV.s:728    .text:0000000000000424 .LBE62
     /tmp/ccTG7hDV.s:7069   .debug_loc:00000000000007ec .LLST23
     /tmp/ccTG7hDV.s:625    .text:0000000000000340 .LBB60
     /tmp/ccTG7hDV.s:636    .text:0000000000000344 .LBE60
     /tmp/ccTG7hDV.s:838    .text:0000000000000574 .LBB63
     /tmp/ccTG7hDV.s:850    .text:000000000000057c .LBE63
     /tmp/ccTG7hDV.s:7081   .debug_loc:0000000000000823 .LLST24
     /tmp/ccTG7hDV.s:642    .text:0000000000000358 .LVL56
     /tmp/ccTG7hDV.s:650    .text:0000000000000370 .LVL57
     /tmp/ccTG7hDV.s:662    .text:0000000000000384 .LVL60
     /tmp/ccTG7hDV.s:669    .text:0000000000000398 .LVL61
     /tmp/ccTG7hDV.s:677    .text:00000000000003b4 .LVL62
     /tmp/ccTG7hDV.s:687    .text:00000000000003d4 .LVL63
     /tmp/ccTG7hDV.s:693    .text:00000000000003e0 .LVL64
     /tmp/ccTG7hDV.s:697    .text:00000000000003e8 .LVL65
     /tmp/ccTG7hDV.s:703    .text:00000000000003f8 .LVL66
     /tmp/ccTG7hDV.s:736    .text:0000000000000444 .LVL70
     /tmp/ccTG7hDV.s:759    .text:000000000000047c .LVL75
     /tmp/ccTG7hDV.s:766    .text:0000000000000490 .LVL76
     /tmp/ccTG7hDV.s:773    .text:00000000000004a4 .LVL77
     /tmp/ccTG7hDV.s:780    .text:00000000000004b8 .LVL78
     /tmp/ccTG7hDV.s:788    .text:00000000000004d4 .LVL79
     /tmp/ccTG7hDV.s:795    .text:00000000000004e8 .LVL80
     /tmp/ccTG7hDV.s:804    .text:0000000000000508 .LVL81
     /tmp/ccTG7hDV.s:812    .text:0000000000000524 .LVL82
     /tmp/ccTG7hDV.s:820    .text:0000000000000540 .LVL83
     /tmp/ccTG7hDV.s:828    .text:000000000000055c .LVL84
     /tmp/ccTG7hDV.s:836    .text:0000000000000574 .LVL85
     /tmp/ccTG7hDV.s:520    .text:00000000000002a8 .LFB28
     /tmp/ccTG7hDV.s:581    .text:0000000000000310 .LFE28
     /tmp/ccTG7hDV.s:7091   .debug_loc:0000000000000849 .LLST17
     /tmp/ccTG7hDV.s:7441   .debug_str:0000000000000951 .LASF372
     /tmp/ccTG7hDV.s:7105   .debug_loc:0000000000000882 .LLST18
     /tmp/ccTG7hDV.s:7321   .debug_str:000000000000051a .LASF373
     /tmp/ccTG7hDV.s:7123   .debug_loc:00000000000008ce .LLST19
     /tmp/ccTG7hDV.s:544    .text:00000000000002d0 .LBB59
     /tmp/ccTG7hDV.s:562    .text:00000000000002f4 .LBE59
     /tmp/ccTG7hDV.s:7137   .debug_loc:0000000000000907 .LLST20
     /tmp/ccTG7hDV.s:553    .text:00000000000002e8 .LVL50
     /tmp/ccTG7hDV.s:10     .text:0000000000000000 .LFB27
     /tmp/ccTG7hDV.s:28     .text:0000000000000018 .LFE27
     /tmp/ccTG7hDV.s:7651   .debug_str:0000000000001077 .LASF396
     /tmp/ccTG7hDV.s:7341   .debug_str:00000000000005dc .LASF374
     /tmp/ccTG7hDV.s:7887   .debug_str:0000000000001881 .LASF375
     /tmp/ccTG7hDV.s:7951   .debug_str:0000000000001ab6 .LASF376
     /tmp/ccTG7hDV.s:7197   .debug_str:0000000000000093 .LASF377
     /tmp/ccTG7hDV.s:7377   .debug_str:0000000000000744 .LASF378
     /tmp/ccTG7hDV.s:7421   .debug_str:000000000000088e .LASF379
     /tmp/ccTG7hDV.s:7277   .debug_str:000000000000036d .LASF380
     /tmp/ccTG7hDV.s:7785   .debug_str:000000000000144a .LASF381
     /tmp/ccTG7hDV.s:7495   .debug_str:0000000000000b0c .LASF382
     /tmp/ccTG7hDV.s:7517   .debug_str:0000000000000bb7 .LASF383
     /tmp/ccTG7hDV.s:7607   .debug_str:0000000000000f30 .LASF384
     /tmp/ccTG7hDV.s:7245   .debug_str:000000000000022e .LASF385
     /tmp/ccTG7hDV.s:7241   .debug_str:0000000000000205 .LASF386
GAS LISTING /tmp/ccTG7hDV.s 			page 78


     /tmp/ccTG7hDV.s:1230   .text:0000000000000770 .LVL104
     /tmp/ccTG7hDV.s:1245   .text:000000000000078c .LVL105
     /tmp/ccTG7hDV.s:1272   .text:00000000000007a4 .LVL106
     /tmp/ccTG7hDV.s:1302   .text:00000000000007e0 .LVL110
     /tmp/ccTG7hDV.s:1309   .text:00000000000007e4 .LVL111
     /tmp/ccTG7hDV.s:1327   .text:00000000000007f0 .LVL113
     /tmp/ccTG7hDV.s:1345   .text:00000000000007fc .LVL115
     /tmp/ccTG7hDV.s:1395   .text:0000000000000824 .LVL117
     /tmp/ccTG7hDV.s:1405   .text:000000000000082c .LVL118
     /tmp/ccTG7hDV.s:1429   .text:0000000000000868 .LVL120
     /tmp/ccTG7hDV.s:1436   .text:000000000000086c .LVL121
     /tmp/ccTG7hDV.s:1447   .text:0000000000000878 .LVL122
     /tmp/ccTG7hDV.s:1456   .text:000000000000087c .LVL123
     /tmp/ccTG7hDV.s:1463   .text:0000000000000880 .LVL124
     /tmp/ccTG7hDV.s:1472   .text:0000000000000884 .LVL125
     /tmp/ccTG7hDV.s:1550   .text:00000000000008d8 .LVL131
     /tmp/ccTG7hDV.s:1596   .text:0000000000000908 .LVL132
     /tmp/ccTG7hDV.s:1686   .text:000000000000092c .LVL134
     /tmp/ccTG7hDV.s:1695   .text:0000000000000930 .LVL135
     /tmp/ccTG7hDV.s:1702   .text:0000000000000934 .LVL136
     /tmp/ccTG7hDV.s:1711   .text:0000000000000938 .LVL137
     /tmp/ccTG7hDV.s:1133   .text:000000000000070c .LVL100
     /tmp/ccTG7hDV.s:1143   .text:0000000000000714 .LVL101
     /tmp/ccTG7hDV.s:1159   .text:0000000000000720 .LVL102
     /tmp/ccTG7hDV.s:1169   .text:0000000000000728 .LVL103
     /tmp/ccTG7hDV.s:999    .text:0000000000000664 .LVL96
     /tmp/ccTG7hDV.s:965    .text:0000000000000634 .LVL94
     /tmp/ccTG7hDV.s:282    .text:0000000000000144 .LVL14
     /tmp/ccTG7hDV.s:331    .text:00000000000001a0 .LVL19
     /tmp/ccTG7hDV.s:342    .text:00000000000001ac .LVL21
     /tmp/ccTG7hDV.s:362    .text:00000000000001c4 .LVL24
     /tmp/ccTG7hDV.s:411    .text:000000000000020c .LVL31
     /tmp/ccTG7hDV.s:419    .text:0000000000000210 .LVL32
     /tmp/ccTG7hDV.s:506    .text:00000000000002a0 .LVL47
     /tmp/ccTG7hDV.s:382    .text:00000000000001dc .LVL29
     /tmp/ccTG7hDV.s:310    .text:000000000000017c .LVL15
     /tmp/ccTG7hDV.s:326    .text:0000000000000190 .LVL18
     /tmp/ccTG7hDV.s:316    .text:0000000000000184 .LVL16
     /tmp/ccTG7hDV.s:405    .text:0000000000000200 .LVL30
     /tmp/ccTG7hDV.s:322    .text:000000000000018c .LVL17
     /tmp/ccTG7hDV.s:368    .text:00000000000001c8 .LVL25
     /tmp/ccTG7hDV.s:379    .text:00000000000001d8 .LVL28
     /tmp/ccTG7hDV.s:339    .text:00000000000001a8 .LVL20
     /tmp/ccTG7hDV.s:421    .text:0000000000000218 .LVL33
     /tmp/ccTG7hDV.s:351    .text:00000000000001b8 .LVL22
     /tmp/ccTG7hDV.s:464    .text:0000000000000260 .LVL40
     /tmp/ccTG7hDV.s:359    .text:00000000000001c0 .LVL23
     /tmp/ccTG7hDV.s:473    .text:000000000000026c .LVL41
     /tmp/ccTG7hDV.s:370    .text:00000000000001cc .LVL26
     /tmp/ccTG7hDV.s:373    .text:00000000000001d0 .LVL27
     /tmp/ccTG7hDV.s:454    .text:000000000000024c .LVL39
     /tmp/ccTG7hDV.s:428    .text:0000000000000224 .LVL35
     /tmp/ccTG7hDV.s:441    .text:000000000000023c .LVL36
     /tmp/ccTG7hDV.s:443    .text:0000000000000240 .LVL37
     /tmp/ccTG7hDV.s:449    .text:0000000000000244 .LVL38
     /tmp/ccTG7hDV.s:480    .text:0000000000000278 .LVL43
     /tmp/ccTG7hDV.s:493    .text:0000000000000290 .LVL44
GAS LISTING /tmp/ccTG7hDV.s 			page 79


     /tmp/ccTG7hDV.s:495    .text:0000000000000294 .LVL45
     /tmp/ccTG7hDV.s:501    .text:0000000000000298 .LVL46
     /tmp/ccTG7hDV.s:83     .text:0000000000000044 .LVL2
     /tmp/ccTG7hDV.s:93     .text:000000000000004c .LVL3
     /tmp/ccTG7hDV.s:44     .text:0000000000000024 .LVL0
     /tmp/ccTG7hDV.s:55     .text:000000000000002c .LVL1
     /tmp/ccTG7hDV.s:144    .text:0000000000000094 .LVL7
     /tmp/ccTG7hDV.s:660    .text:000000000000037c .LVL59
     /tmp/ccTG7hDV.s:875    .text:00000000000005a0 .LVL88
     /tmp/ccTG7hDV.s:656    .text:0000000000000378 .LVL58
     /tmp/ccTG7hDV.s:707    .text:00000000000003fc .LVL67
     /tmp/ccTG7hDV.s:711    .text:0000000000000400 .LVL68
     /tmp/ccTG7hDV.s:847    .text:000000000000057c .LVL86
     /tmp/ccTG7hDV.s:523    .text:00000000000002a8 .LVL48
     /tmp/ccTG7hDV.s:542    .text:00000000000002d0 .LVL49
     /tmp/ccTG7hDV.s:574    .text:0000000000000304 .LVL53
     /tmp/ccTG7hDV.s:571    .text:0000000000000300 .LVL52
     /tmp/ccTG7hDV.s:1914   .debug_info:0000000000000000 .Ldebug_info0
     /tmp/ccTG7hDV.s:1355   .text:0000000000000804 .LBB76
     /tmp/ccTG7hDV.s:1482   .text:000000000000088c .LBE76
     /tmp/ccTG7hDV.s:1501   .text:00000000000008a0 .LBB89
     /tmp/ccTG7hDV.s:1511   .text:00000000000008b0 .LBE89
     /tmp/ccTG7hDV.s:1542   .text:00000000000008d4 .LBB90
     /tmp/ccTG7hDV.s:1720   .text:0000000000000940 .LBE90
     /tmp/ccTG7hDV.s:1728   .text:0000000000000944 .LBB99
     /tmp/ccTG7hDV.s:1848   .text:00000000000009f8 .LBE99

UNDEFINED SYMBOLS
_ZN9Scheduler3getEv
_ZN3PCB10consolePCBE
_ZN9Scheduler3putEP3PCB
_ZN8KConsole11pendingGetcE
_ZN3PCB10isFinishedEv
_Z22thread_dispatch_kernelv
_ZN3PCB7runningE
_ZN14PCBWrapperUser11wrapperUserEPFvPvES0_
_Z11buddy_allocP14buddyAllocatorm
_ZN5Riscv14supervisorTrapEv
HEAP_START_ADDR
_Z12getBlockAddrm
_ZN15MemoryAllocator10initMemoryEPv
_Z9kmem_initPvi
_Z17kmem_cache_createPKcmPFvPvES3_
_ZN3PCB10initializeEv
_ZN8KConsole10initializeEv
_ZN8KConsole18trapPrintStringIntEPKcmi
kernelTextStart
kernelDataStart
userTextStart
userDataStart
HEAP_END_ADDR
CONSOLE_RX_DATA
CONSOLE_TX_DATA
CONSOLE_STATUS
_ZN3PCB7userPCBE
_ZN3PCB10savedRegA4E
_ZN8KConsole24getCharactersFromConsoleEv
GAS LISTING /tmp/ccTG7hDV.s 			page 80


plic_claim
plic_complete
_ZN3PCB16timeSliceCounterE
_ZN12SleepPCBList13tryToWakePCBsEv
_ZN3PCB8dispatchEv
_ZN3PCB17threadExitHandlerEv
_ZN15MemoryAllocator15memAllocHandlerEv
_ZN15MemoryAllocator14memFreeHandlerEv
_ZN3PCB20threadMakePCBHandlerEv
_ZN3PCB19threadCreateHandlerEv
_ZN3PCB18threadStartHandlerEv
_ZN3PCB21threadDispatchHandlerEv
_ZN3PCB18threadSleepHandlerEv
_ZN3PCB19threadDelPCBHandlerEv
_ZN10KSemaphore14semOpenHandlerEv
_ZN10KSemaphore14semWaitHandlerEv
_ZN10KSemaphore16semSignalHandlerEv
_ZN10KSemaphore15semCloseHandlerEv
_ZN8KConsole11getcHandlerEv
_ZN8KConsole11putcHandlerEv
_ZN8KConsole14getCharHandlerEv
