GAS LISTING /tmp/ccNP9Bns.s 			page 1


   1              		.file	"Riscv.cpp"
   2              		.option pic
   3              		.option norelax
   4              		.text
   5              	.Ltext0:
   6              		.align	2
   7              		.globl	_ZN5Riscv20initMemoryAllocationEv
   9              	_ZN5Riscv20initMemoryAllocationEv:
  10              	.LFB27:
  11              		.file 1 "src/kernel/Riscv.cpp"
   1:src/kernel/Riscv.cpp **** //
   2:src/kernel/Riscv.cpp **** // Created by os on 4/27/22.
   3:src/kernel/Riscv.cpp **** //
   4:src/kernel/Riscv.cpp **** 
   5:src/kernel/Riscv.cpp **** #include "../../h/Riscv.hpp"
   6:src/kernel/Riscv.cpp **** #include "../../h/MemoryAllocator.hpp"
   7:src/kernel/Riscv.cpp **** #include "../../h/PCB.hpp"
   8:src/kernel/Riscv.cpp **** #include "../../h/syscall_cpp.hpp"
   9:src/kernel/Riscv.cpp **** #include "../../h/SleepPCBList.hpp"
  10:src/kernel/Riscv.cpp **** #include "../../h/KConsole.hpp"
  11:src/kernel/Riscv.cpp **** #include "../../h/Scheduler.hpp"
  12:src/kernel/Riscv.cpp **** #include "../../h/buddyTests.hpp"
  13:src/kernel/Riscv.cpp **** #include "../../h/slabTests.hpp"
  14:src/kernel/Riscv.cpp **** #include "../../h/PCBWrapperUser.hpp"
  15:src/kernel/Riscv.cpp **** #include "../../h/syscall_c_kernel.hpp"
  16:src/kernel/Riscv.cpp **** 
  17:src/kernel/Riscv.cpp **** uint64 Riscv::totalTime = 0;
  18:src/kernel/Riscv.cpp **** bool Riscv::finishSystem = false;
  19:src/kernel/Riscv.cpp **** bool Riscv::kernelMainCalled = false;
  20:src/kernel/Riscv.cpp **** kmem_cache_t * Riscv::pcbCache = nullptr;
  21:src/kernel/Riscv.cpp **** kmem_cache_t * Riscv::semaphoreCache = nullptr;
  22:src/kernel/Riscv.cpp **** void* Riscv::mainPMT = nullptr;
  23:src/kernel/Riscv.cpp **** void* Riscv::riscvBuddy = nullptr;
  24:src/kernel/Riscv.cpp **** extern char *kernelTextStart;
  25:src/kernel/Riscv.cpp **** extern char *kernelDataStart;
  26:src/kernel/Riscv.cpp **** extern char *userTextStart;
  27:src/kernel/Riscv.cpp **** extern char *etext;
  28:src/kernel/Riscv.cpp **** 
  29:src/kernel/Riscv.cpp **** void Riscv::initMemoryAllocation()
  30:src/kernel/Riscv.cpp **** {
  12              		.loc 1 30 1
  13              		.cfi_startproc
  14 0000 130101FF 		addi	sp,sp,-16
  15              		.cfi_def_cfa_offset 16
  16 0004 23341100 		sd	ra,8(sp)
  17 0008 23308100 		sd	s0,0(sp)
  18              		.cfi_offset 1, -8
  19              		.cfi_offset 8, -16
  20 000c 13040101 		addi	s0,sp,16
  21              		.cfi_def_cfa 8, 0
  31:src/kernel/Riscv.cpp ****     size_t totalNumOfBytes = (size_t)HEAP_END_ADDR - (size_t)HEAP_START_ADDR + 1;
  22              		.loc 1 31 5
  23              		.loc 1 31 52 is_stmt 0
  24 0010 97070000 		la	a5,HEAP_START_ADDR
  24      83B70700 
  25 0018 03B50700 		ld	a0,0(a5)
  26 001c 97070000 		la	a5,HEAP_END_ADDR
GAS LISTING /tmp/ccNP9Bns.s 			page 2


  26      83B70700 
  27 0024 83B70700 		ld	a5,0(a5)
  28 0028 B387A740 		sub	a5,a5,a0
  29              		.loc 1 31 12
  30 002c 93871700 		addi	a5,a5,1
  31              	.LVL0:
  32:src/kernel/Riscv.cpp ****     size_t bytesForKernel = totalNumOfBytes / 10; //TODO change this if needed
  32              		.loc 1 32 5 is_stmt 1
  33              		.loc 1 32 12 is_stmt 0
  34 0030 1307A000 		li	a4,10
  35 0034 B3D7E702 		divu	a5,a5,a4
  36              	.LVL1:
  33:src/kernel/Riscv.cpp ****     size_t numOfBlocks = (bytesForKernel + BLOCK_NUM_OF_BYTES - 1) / BLOCK_NUM_OF_BYTES;
  37              		.loc 1 33 5 is_stmt 1
  38              		.loc 1 33 63 is_stmt 0
  39 0038 37170000 		li	a4,4096
  40 003c 1307F7FF 		addi	a4,a4,-1
  41 0040 B387E700 		add	a5,a5,a4
  42              	.LVL2:
  34:src/kernel/Riscv.cpp **** 
  35:src/kernel/Riscv.cpp ****     void* newStartAddr = (void*)((size_t)HEAP_START_ADDR + numOfBlocks*BLOCK_NUM_OF_BYTES);
  43              		.loc 1 35 5 is_stmt 1
  44              		.loc 1 35 71 is_stmt 0
  45 0044 37F7FFFF 		li	a4,-4096
  46 0048 B3F7E700 		and	a5,a5,a4
  47              	.LVL3:
  36:src/kernel/Riscv.cpp ****     MemoryAllocator::initMemory(newStartAddr);
  48              		.loc 1 36 5 is_stmt 1
  49              		.loc 1 36 32 is_stmt 0
  50 004c 3305F500 		add	a0,a0,a5
  51              	.LVL4:
  52 0050 97000000 		call	_ZN15MemoryAllocator10initMemoryEPv@plt
  52      E7800000 
  53              	.LVL5:
  37:src/kernel/Riscv.cpp **** 
  38:src/kernel/Riscv.cpp ****     //kmem_init((void*)HEAP_START_ADDR, numOfBlocks);
  39:src/kernel/Riscv.cpp ****     //pcbCache = kmem_cache_create("Cache of PCBs", sizeof(PCB), nullptr, nullptr);
  40:src/kernel/Riscv.cpp ****     //semaphoreCache = kmem_cache_create("Cache of KSemaphore", sizeof(KSemaphore), nullptr, nullpt
  41:src/kernel/Riscv.cpp **** }
  54              		.loc 1 41 1
  55 0058 83308100 		ld	ra,8(sp)
  56              		.cfi_restore 1
  57 005c 03340100 		ld	s0,0(sp)
  58              		.cfi_restore 8
  59              		.cfi_def_cfa 2, 16
  60 0060 13010101 		addi	sp,sp,16
  61              		.cfi_def_cfa_offset 0
  62 0064 67800000 		jr	ra
  63              		.cfi_endproc
  64              	.LFE27:
  66              		.align	2
  67              		.globl	_ZN5Riscv17initVirtualMemoryEv
  69              	_ZN5Riscv17initVirtualMemoryEv:
  70              	.LFB28:
  42:src/kernel/Riscv.cpp **** 
  43:src/kernel/Riscv.cpp **** void Riscv::initVirtualMemory()
  44:src/kernel/Riscv.cpp **** {
GAS LISTING /tmp/ccNP9Bns.s 			page 3


  71              		.loc 1 44 1 is_stmt 1
  72              		.cfi_startproc
  73 0068 130101FF 		addi	sp,sp,-16
  74              		.cfi_def_cfa_offset 16
  75 006c 23348100 		sd	s0,8(sp)
  76              		.cfi_offset 8, -8
  77 0070 13040101 		addi	s0,sp,16
  78              		.cfi_def_cfa 8, 0
  45:src/kernel/Riscv.cpp ****     //size_t addr = (size_t)getNextBlockAddr((size_t)HEAP_START_ADDR);
  46:src/kernel/Riscv.cpp **** 
  47:src/kernel/Riscv.cpp ****     //size_t pmtSize = (1 << 9);
  48:src/kernel/Riscv.cpp ****     //size_t descSize = 64;
  49:src/kernel/Riscv.cpp ****     //size_t
  50:src/kernel/Riscv.cpp **** 
  51:src/kernel/Riscv.cpp **** }
  79              		.loc 1 51 1 is_stmt 0
  80 0074 03348100 		ld	s0,8(sp)
  81              		.cfi_restore 8
  82              		.cfi_def_cfa 2, 16
  83 0078 13010101 		addi	sp,sp,16
  84              		.cfi_def_cfa_offset 0
  85 007c 67800000 		jr	ra
  86              		.cfi_endproc
  87              	.LFE28:
  89              		.align	2
  90              		.globl	_ZN5Riscv16enableInterruptsEv
  92              	_ZN5Riscv16enableInterruptsEv:
  93              	.LFB31:
  52:src/kernel/Riscv.cpp **** 
  53:src/kernel/Riscv.cpp **** void Riscv::initSystem()
  54:src/kernel/Riscv.cpp **** {
  55:src/kernel/Riscv.cpp ****     w_stvec((uint64)&Riscv::supervisorTrap);
  56:src/kernel/Riscv.cpp **** 
  57:src/kernel/Riscv.cpp ****     riscvBuddy = (void*)getBlockAddr((size_t)HEAP_START_ADDR);
  58:src/kernel/Riscv.cpp ****     size_t heapStartBlock = getBlockAddr((size_t)HEAP_START_ADDR);
  59:src/kernel/Riscv.cpp **** 
  60:src/kernel/Riscv.cpp ****     size_t totalNumOfBytes = (size_t)HEAP_END_ADDR - (size_t)HEAP_START_ADDR + 1;
  61:src/kernel/Riscv.cpp ****     size_t bytesForKernel = totalNumOfBytes / 10; //TODO change this if needed
  62:src/kernel/Riscv.cpp ****     size_t numOfBlocks = (bytesForKernel + BLOCK_NUM_OF_BYTES - 1) / BLOCK_NUM_OF_BYTES;
  63:src/kernel/Riscv.cpp **** 
  64:src/kernel/Riscv.cpp ****     void* newStartAddr = (void*)(heapStartBlock + numOfBlocks*BLOCK_NUM_OF_BYTES);
  65:src/kernel/Riscv.cpp ****     MemoryAllocator::initMemory(newStartAddr);
  66:src/kernel/Riscv.cpp **** 
  67:src/kernel/Riscv.cpp ****     kmem_init((void*)HEAP_START_ADDR, numOfBlocks);
  68:src/kernel/Riscv.cpp ****     pcbCache = kmem_cache_create("Cache of PCBs", sizeof(PCB), nullptr, nullptr);
  69:src/kernel/Riscv.cpp ****     semaphoreCache = kmem_cache_create("Cache of KSemaphore", sizeof(KSemaphore), nullptr, nullptr)
  70:src/kernel/Riscv.cpp **** 
  71:src/kernel/Riscv.cpp ****     //initMemoryAllocation();
  72:src/kernel/Riscv.cpp ****     PCB::initialize();
  73:src/kernel/Riscv.cpp ****     KConsole::initialize();
  74:src/kernel/Riscv.cpp **** 
  75:src/kernel/Riscv.cpp ****     //KConsole::trapPrintStringInt("Buddy allocator: ", (size_t)riscvBuddy, 16);
  76:src/kernel/Riscv.cpp ****     //printSlabAllocatorInfo();
  77:src/kernel/Riscv.cpp ****     mainPMT = buddy_alloc((buddyAllocator*)riscvBuddy, 1);
  78:src/kernel/Riscv.cpp ****     for(size_t i = 0; i < (1 << 9);i++)
  79:src/kernel/Riscv.cpp ****         ((size_t*)mainPMT)[i] = 0;
  80:src/kernel/Riscv.cpp **** 
GAS LISTING /tmp/ccNP9Bns.s 			page 4


  81:src/kernel/Riscv.cpp ****     KConsole::trapPrintStringInt("main PMT ", (size_t)mainPMT,16);
  82:src/kernel/Riscv.cpp **** 
  83:src/kernel/Riscv.cpp ****     //printBuddyInfo((buddyAllocator*)riscvBuddy);
  84:src/kernel/Riscv.cpp **** 
  85:src/kernel/Riscv.cpp ****     //for(int i = 0; i < 20;i++)
  86:src/kernel/Riscv.cpp ****     //    buddy_alloc((buddyAllocator*)riscvBuddy, 1);
  87:src/kernel/Riscv.cpp **** 
  88:src/kernel/Riscv.cpp **** //    for(size_t addr = 0x80000000; addr < (size_t)HEAP_START_ADDR;addr++)
  89:src/kernel/Riscv.cpp **** //        addVirtualAddrInstr(addr);
  90:src/kernel/Riscv.cpp **** 
  91:src/kernel/Riscv.cpp ****     //printBuddyInfo((buddyAllocator*)riscvBuddy);
  92:src/kernel/Riscv.cpp **** 
  93:src/kernel/Riscv.cpp **** //    for(size_t addr = (size_t)HEAP_START_ADDR;addr < (size_t)HEAP_END_ADDR;addr+=4096)
  94:src/kernel/Riscv.cpp **** //        addVirtualAddr(addr);
  95:src/kernel/Riscv.cpp **** 
  96:src/kernel/Riscv.cpp ****     uint64 uTextStart = (uint64)(&userTextStart);
  97:src/kernel/Riscv.cpp ****     uint64 eText = (uint64)(&etext);
  98:src/kernel/Riscv.cpp ****     uint64 kTextStart = (uint64)(&kernelTextStart);
  99:src/kernel/Riscv.cpp ****     uint64 kDataStart = (uint64)(&kernelDataStart);
 100:src/kernel/Riscv.cpp **** 
 101:src/kernel/Riscv.cpp ****     for(uint64 i=0x80000000;i< uTextStart;i+=4096) {
 102:src/kernel/Riscv.cpp ****         setVirtualAddr(i, 0x1,0xb);
 103:src/kernel/Riscv.cpp ****     }
 104:src/kernel/Riscv.cpp **** 
 105:src/kernel/Riscv.cpp ****     for(uint64 i=uTextStart;i<eText;i+=4096) {
 106:src/kernel/Riscv.cpp ****         setVirtualAddr(i, 0x1,0xb);
 107:src/kernel/Riscv.cpp ****     }
 108:src/kernel/Riscv.cpp **** 
 109:src/kernel/Riscv.cpp ****     for(uint64 i = (uint64)(&etext); i<kTextStart;i+=4096){
 110:src/kernel/Riscv.cpp ****         setVirtualAddr(i, 0x1,0x7);
 111:src/kernel/Riscv.cpp ****     }
 112:src/kernel/Riscv.cpp **** 
 113:src/kernel/Riscv.cpp ****     for(uint64 i=(uint64)(&kernelTextStart);i<kDataStart;i+=4096) {
 114:src/kernel/Riscv.cpp ****         setVirtualAddr(i, 0x1,0x1b); //todo
 115:src/kernel/Riscv.cpp ****     }
 116:src/kernel/Riscv.cpp **** 
 117:src/kernel/Riscv.cpp ****     for(uint64 i=(uint64)&kernelDataStart;i<(uint64)HEAP_START_ADDR;i+=4096) {
 118:src/kernel/Riscv.cpp ****         setVirtualAddr(i, 0x1,0x17);
 119:src/kernel/Riscv.cpp ****     }
 120:src/kernel/Riscv.cpp **** 
 121:src/kernel/Riscv.cpp ****     for(uint64 i=(uint64)HEAP_START_ADDR;i<(uint64)newStartAddr;i+=4096) {
 122:src/kernel/Riscv.cpp ****         setVirtualAddr(i, 0x1,0x7);
 123:src/kernel/Riscv.cpp ****     }
 124:src/kernel/Riscv.cpp **** 
 125:src/kernel/Riscv.cpp ****     for(uint64 i = (uint64)newStartAddr;i<=(uint64)HEAP_END_ADDR;i+=4096){
 126:src/kernel/Riscv.cpp ****         setVirtualAddr(i, 0x1,0x17);
 127:src/kernel/Riscv.cpp ****     }
 128:src/kernel/Riscv.cpp **** 
 129:src/kernel/Riscv.cpp **** 
 130:src/kernel/Riscv.cpp ****     setVirtualAddr((size_t)CONSOLE_RX_DATA,0x1,0xf);
 131:src/kernel/Riscv.cpp ****     setVirtualAddr((size_t)CONSOLE_TX_DATA,0x1,0xf);
 132:src/kernel/Riscv.cpp ****     setVirtualAddr((size_t)CONSOLE_STATUS,0x1,0xf);
 133:src/kernel/Riscv.cpp ****     setVirtualAddr(0xc201004,0x1,0xf);
 134:src/kernel/Riscv.cpp **** 
 135:src/kernel/Riscv.cpp **** 
 136:src/kernel/Riscv.cpp ****     Riscv::ms_sstatus(1<<18);
 137:src/kernel/Riscv.cpp ****     size_t satp = ((size_t)1 << 63) | ((size_t)mainPMT >> 12);
GAS LISTING /tmp/ccNP9Bns.s 			page 5


 138:src/kernel/Riscv.cpp ****     __asm__ volatile("csrw satp, %0" : :"r"(satp));
 139:src/kernel/Riscv.cpp **** }
 140:src/kernel/Riscv.cpp **** 
 141:src/kernel/Riscv.cpp **** void Riscv::endSystem()
 142:src/kernel/Riscv.cpp **** {
 143:src/kernel/Riscv.cpp ****     disableInterrupts();
 144:src/kernel/Riscv.cpp ****     //__asm__ volatile("csrw satp, 0");
 145:src/kernel/Riscv.cpp ****     finishSystem = true;
 146:src/kernel/Riscv.cpp ****     PCB* pcb = 0;
 147:src/kernel/Riscv.cpp ****     while(true)
 148:src/kernel/Riscv.cpp ****     {
 149:src/kernel/Riscv.cpp ****         pcb = Scheduler::get();
 150:src/kernel/Riscv.cpp ****         if(pcb == 0) break;
 151:src/kernel/Riscv.cpp ****     }
 152:src/kernel/Riscv.cpp ****     Scheduler::put(PCB::consolePCB);
 153:src/kernel/Riscv.cpp ****     KConsole::pendingGetc = 0;
 154:src/kernel/Riscv.cpp ****     enableInterrupts();
 155:src/kernel/Riscv.cpp ****     while(!PCB::consolePCB->isFinished())
 156:src/kernel/Riscv.cpp ****     {
 157:src/kernel/Riscv.cpp ****         thread_dispatch_kernel();
 158:src/kernel/Riscv.cpp ****     }
 159:src/kernel/Riscv.cpp ****     disableInterrupts();
 160:src/kernel/Riscv.cpp **** }
 161:src/kernel/Riscv.cpp **** 
 162:src/kernel/Riscv.cpp **** void Riscv::enableInterrupts() {
  94              		.loc 1 162 32 is_stmt 1
  95              		.cfi_startproc
  96 0080 130101FF 		addi	sp,sp,-16
  97              		.cfi_def_cfa_offset 16
  98 0084 23348100 		sd	s0,8(sp)
  99              		.cfi_offset 8, -8
 100 0088 13040101 		addi	s0,sp,16
 101              		.cfi_def_cfa 8, 0
 163:src/kernel/Riscv.cpp ****     ms_sstatus(Riscv::SSTATUS_SIE);
 102              		.loc 1 163 5
 103              	.LVL6:
 104              	.LBB51:
 105              	.LBB52:
 106              		.file 2 "src/kernel/../../h/Riscv.hpp"
   1:src/kernel/../../h/Riscv.hpp **** //
   2:src/kernel/../../h/Riscv.hpp **** // Created by os on 4/27/22.
   3:src/kernel/../../h/Riscv.hpp **** //
   4:src/kernel/../../h/Riscv.hpp **** 
   5:src/kernel/../../h/Riscv.hpp **** #ifndef PROJECT_BASE_V1_0_RISCV_HPP
   6:src/kernel/../../h/Riscv.hpp **** #define PROJECT_BASE_V1_0_RISCV_HPP
   7:src/kernel/../../h/Riscv.hpp **** 
   8:src/kernel/../../h/Riscv.hpp **** #include "../lib/hw.h"
   9:src/kernel/../../h/Riscv.hpp **** #include "../src/user/test/userMain.hpp"
  10:src/kernel/../../h/Riscv.hpp **** #include "slabAllocator.hpp"
  11:src/kernel/../../h/Riscv.hpp **** 
  12:src/kernel/../../h/Riscv.hpp **** class Riscv
  13:src/kernel/../../h/Riscv.hpp **** {
  14:src/kernel/../../h/Riscv.hpp **** public:
  15:src/kernel/../../h/Riscv.hpp ****     static void kernelMain();
  16:src/kernel/../../h/Riscv.hpp **** private:
  17:src/kernel/../../h/Riscv.hpp ****     static bool kernelMainCalled;
  18:src/kernel/../../h/Riscv.hpp ****     static void changePrivMode();
GAS LISTING /tmp/ccNP9Bns.s 			page 6


  19:src/kernel/../../h/Riscv.hpp **** 
  20:src/kernel/../../h/Riscv.hpp ****     static void* mainPMT;
  21:src/kernel/../../h/Riscv.hpp ****     static void* riscvBuddy;
  22:src/kernel/../../h/Riscv.hpp **** 
  23:src/kernel/../../h/Riscv.hpp ****     static void addVirtualAddr(size_t addr);
  24:src/kernel/../../h/Riscv.hpp ****     static void addVirtualAddrInstr(size_t addr);
  25:src/kernel/../../h/Riscv.hpp ****     static void setVirtualAddr(size_t addr, size_t mask, size_t maskLeaf);
  26:src/kernel/../../h/Riscv.hpp **** 
  27:src/kernel/../../h/Riscv.hpp ****     static void initVirtualMemory();
  28:src/kernel/../../h/Riscv.hpp **** 
  29:src/kernel/../../h/Riscv.hpp ****     static void initSystem();
  30:src/kernel/../../h/Riscv.hpp ****     static void endSystem();
  31:src/kernel/../../h/Riscv.hpp ****     static void initMemoryAllocation();
  32:src/kernel/../../h/Riscv.hpp **** 
  33:src/kernel/../../h/Riscv.hpp ****     static void enableInterrupts();
  34:src/kernel/../../h/Riscv.hpp **** 
  35:src/kernel/../../h/Riscv.hpp ****     static void disableTimerInterrupts();
  36:src/kernel/../../h/Riscv.hpp **** 
  37:src/kernel/../../h/Riscv.hpp ****     static void disableInterrupts();
  38:src/kernel/../../h/Riscv.hpp **** 
  39:src/kernel/../../h/Riscv.hpp ****     static void pushRegisters();
  40:src/kernel/../../h/Riscv.hpp ****     static void popRegisters();
  41:src/kernel/../../h/Riscv.hpp **** 
  42:src/kernel/../../h/Riscv.hpp ****     static uint64 r_scause();
  43:src/kernel/../../h/Riscv.hpp ****     static void w_scause(uint64 scause);
  44:src/kernel/../../h/Riscv.hpp **** 
  45:src/kernel/../../h/Riscv.hpp ****     static uint64 r_sepc();
  46:src/kernel/../../h/Riscv.hpp ****     static void w_sepc(uint64 sepc);
  47:src/kernel/../../h/Riscv.hpp **** 
  48:src/kernel/../../h/Riscv.hpp ****     static uint64 r_stvec();
  49:src/kernel/../../h/Riscv.hpp ****     static void w_stvec(uint64 stvec);
  50:src/kernel/../../h/Riscv.hpp **** 
  51:src/kernel/../../h/Riscv.hpp ****     static uint64 r_stval();
  52:src/kernel/../../h/Riscv.hpp ****     static void w_stval(uint64 stval);
  53:src/kernel/../../h/Riscv.hpp **** 
  54:src/kernel/../../h/Riscv.hpp ****     static bool finishSystem;
  55:src/kernel/../../h/Riscv.hpp **** 
  56:src/kernel/../../h/Riscv.hpp ****     enum BitMaskSip
  57:src/kernel/../../h/Riscv.hpp ****     {
  58:src/kernel/../../h/Riscv.hpp ****         SIP_SSIP = (1 << 1),
  59:src/kernel/../../h/Riscv.hpp ****         SIP_STIP = (1 << 5),
  60:src/kernel/../../h/Riscv.hpp ****         SIP_SEIP = (1 << 9),
  61:src/kernel/../../h/Riscv.hpp ****     };
  62:src/kernel/../../h/Riscv.hpp **** 
  63:src/kernel/../../h/Riscv.hpp ****     static void ms_sip(uint64 mask);
  64:src/kernel/../../h/Riscv.hpp **** 
  65:src/kernel/../../h/Riscv.hpp ****     static void mc_sip(uint64 mask);
  66:src/kernel/../../h/Riscv.hpp **** 
  67:src/kernel/../../h/Riscv.hpp ****     static uint64 r_sip();
  68:src/kernel/../../h/Riscv.hpp **** 
  69:src/kernel/../../h/Riscv.hpp ****     static void w_sip(uint64 sip);
  70:src/kernel/../../h/Riscv.hpp **** 
  71:src/kernel/../../h/Riscv.hpp ****     enum BitMaskSstatus
  72:src/kernel/../../h/Riscv.hpp ****     {
  73:src/kernel/../../h/Riscv.hpp ****         SSTATUS_SIE = (1 << 1),
  74:src/kernel/../../h/Riscv.hpp ****         SSTATUS_SPIE = (1 << 5),
  75:src/kernel/../../h/Riscv.hpp ****         SSTATUS_SPP = (1 << 8),
GAS LISTING /tmp/ccNP9Bns.s 			page 7


  76:src/kernel/../../h/Riscv.hpp ****     };
  77:src/kernel/../../h/Riscv.hpp **** 
  78:src/kernel/../../h/Riscv.hpp ****     static void w_a0_sscratch();
  79:src/kernel/../../h/Riscv.hpp **** 
  80:src/kernel/../../h/Riscv.hpp ****     static void ms_sstatus(uint64 mask);
  81:src/kernel/../../h/Riscv.hpp **** 
  82:src/kernel/../../h/Riscv.hpp ****     static void mc_sstatus(uint64 mask);
  83:src/kernel/../../h/Riscv.hpp **** 
  84:src/kernel/../../h/Riscv.hpp ****     static void mc_sie(uint64 mask);
  85:src/kernel/../../h/Riscv.hpp **** 
  86:src/kernel/../../h/Riscv.hpp ****     static void ms_sie(uint64 mask);
  87:src/kernel/../../h/Riscv.hpp **** 
  88:src/kernel/../../h/Riscv.hpp ****     static uint64 r_sstatus();
  89:src/kernel/../../h/Riscv.hpp **** 
  90:src/kernel/../../h/Riscv.hpp ****     static void w_sstatus(uint64 sstatus);
  91:src/kernel/../../h/Riscv.hpp **** 
  92:src/kernel/../../h/Riscv.hpp ****     static uint64 r_sie();
  93:src/kernel/../../h/Riscv.hpp ****     static void w_sie(uint64 sie);
  94:src/kernel/../../h/Riscv.hpp ****     static void popSppSpie();
  95:src/kernel/../../h/Riscv.hpp **** 
  96:src/kernel/../../h/Riscv.hpp ****     static void supervisorTrap();
  97:src/kernel/../../h/Riscv.hpp ****     static void handleSupervisorTrap();
  98:src/kernel/../../h/Riscv.hpp **** 
  99:src/kernel/../../h/Riscv.hpp ****     static const uint64 bntOne = 1UL << 63;;
 100:src/kernel/../../h/Riscv.hpp ****     static const uint64 bntZero = 0UL;
 101:src/kernel/../../h/Riscv.hpp ****     static const uint64 timerInterrupt = bntOne + 1UL;
 102:src/kernel/../../h/Riscv.hpp ****     static const uint64 hwInterrupt = bntOne + 9UL;
 103:src/kernel/../../h/Riscv.hpp ****     static const uint64 operationInterrupt = bntZero + 2UL;
 104:src/kernel/../../h/Riscv.hpp ****     static const uint64 addrReadInterrupt = bntZero + 5UL;
 105:src/kernel/../../h/Riscv.hpp ****     static const uint64 addrWriteInterrupt = bntZero + 7UL;
 106:src/kernel/../../h/Riscv.hpp ****     static const uint64 ecallUserInterrupt = bntZero + 8UL;
 107:src/kernel/../../h/Riscv.hpp ****     static const uint64 ecallSystemInterupt = bntZero + 9UL;
 108:src/kernel/../../h/Riscv.hpp **** 
 109:src/kernel/../../h/Riscv.hpp ****     static uint64 totalTime;
 110:src/kernel/../../h/Riscv.hpp **** 
 111:src/kernel/../../h/Riscv.hpp ****     static kmem_cache_t * pcbCache;
 112:src/kernel/../../h/Riscv.hpp ****     static kmem_cache_t* semaphoreCache;
 113:src/kernel/../../h/Riscv.hpp **** 
 114:src/kernel/../../h/Riscv.hpp ****     friend class PCB;
 115:src/kernel/../../h/Riscv.hpp ****     friend class Scheduler;
 116:src/kernel/../../h/Riscv.hpp ****     friend class SleepPCBList;
 117:src/kernel/../../h/Riscv.hpp ****     friend class KSemaphore;
 118:src/kernel/../../h/Riscv.hpp ****     friend class KConsole;
 119:src/kernel/../../h/Riscv.hpp ****     friend class MemoryAllocator;
 120:src/kernel/../../h/Riscv.hpp **** };
 121:src/kernel/../../h/Riscv.hpp **** 
 122:src/kernel/../../h/Riscv.hpp **** inline void Riscv::mc_sie(uint64 mask)
 123:src/kernel/../../h/Riscv.hpp **** {
 124:src/kernel/../../h/Riscv.hpp ****     __asm__ volatile("csrc sie, %0" : :"r"(mask));
 125:src/kernel/../../h/Riscv.hpp **** }
 126:src/kernel/../../h/Riscv.hpp **** 
 127:src/kernel/../../h/Riscv.hpp **** inline uint64 Riscv::r_scause() {
 128:src/kernel/../../h/Riscv.hpp ****     uint64 volatile scause;
 129:src/kernel/../../h/Riscv.hpp ****     __asm__ volatile("csrr %0, scause" : "=r"(scause));
 130:src/kernel/../../h/Riscv.hpp ****     return scause;
 131:src/kernel/../../h/Riscv.hpp **** }
 132:src/kernel/../../h/Riscv.hpp **** 
GAS LISTING /tmp/ccNP9Bns.s 			page 8


 133:src/kernel/../../h/Riscv.hpp **** inline void Riscv::w_scause(uint64 scause) {
 134:src/kernel/../../h/Riscv.hpp ****     __asm__ volatile("csrw scause, %0" : :"r"(scause));
 135:src/kernel/../../h/Riscv.hpp **** }
 136:src/kernel/../../h/Riscv.hpp **** 
 137:src/kernel/../../h/Riscv.hpp **** inline uint64 Riscv::r_sepc() {
 138:src/kernel/../../h/Riscv.hpp ****     uint64 volatile sepc;
 139:src/kernel/../../h/Riscv.hpp ****     __asm__ volatile("csrr %0, sepc" : "=r"(sepc));
 140:src/kernel/../../h/Riscv.hpp ****     return sepc;
 141:src/kernel/../../h/Riscv.hpp **** }
 142:src/kernel/../../h/Riscv.hpp **** 
 143:src/kernel/../../h/Riscv.hpp **** inline void Riscv::w_sepc(uint64 sepc) {
 144:src/kernel/../../h/Riscv.hpp ****     __asm__ volatile("csrw sepc, %0" : :"r"(sepc));
 145:src/kernel/../../h/Riscv.hpp **** }
 146:src/kernel/../../h/Riscv.hpp **** 
 147:src/kernel/../../h/Riscv.hpp **** inline uint64 Riscv::r_stvec() {
 148:src/kernel/../../h/Riscv.hpp ****     uint64 volatile stvec;
 149:src/kernel/../../h/Riscv.hpp ****     __asm__ volatile("csrr %0, stvec" : "=r"(stvec));
 150:src/kernel/../../h/Riscv.hpp ****     return stvec;
 151:src/kernel/../../h/Riscv.hpp **** }
 152:src/kernel/../../h/Riscv.hpp **** 
 153:src/kernel/../../h/Riscv.hpp **** inline void Riscv::w_stvec(uint64 stvec) {
 154:src/kernel/../../h/Riscv.hpp ****     __asm__ volatile("csrw stvec, %0" : :"r"(stvec));
 155:src/kernel/../../h/Riscv.hpp **** }
 156:src/kernel/../../h/Riscv.hpp **** 
 157:src/kernel/../../h/Riscv.hpp **** inline uint64 Riscv::r_stval() {
 158:src/kernel/../../h/Riscv.hpp ****     uint64 volatile stval;
 159:src/kernel/../../h/Riscv.hpp ****     __asm__ volatile("csrr %0, stval" : "=r"(stval));
 160:src/kernel/../../h/Riscv.hpp ****     return stval;
 161:src/kernel/../../h/Riscv.hpp **** }
 162:src/kernel/../../h/Riscv.hpp **** 
 163:src/kernel/../../h/Riscv.hpp **** inline void Riscv::w_sie(uint64 sie)
 164:src/kernel/../../h/Riscv.hpp **** {
 165:src/kernel/../../h/Riscv.hpp ****     __asm__ volatile("csrw sie, %0" : :"r"(sie));
 166:src/kernel/../../h/Riscv.hpp **** }
 167:src/kernel/../../h/Riscv.hpp **** 
 168:src/kernel/../../h/Riscv.hpp **** inline void Riscv::w_stval(uint64 stval) {
 169:src/kernel/../../h/Riscv.hpp ****     __asm__ volatile("csrw stval, %0" : :"r"(stval));
 170:src/kernel/../../h/Riscv.hpp **** }
 171:src/kernel/../../h/Riscv.hpp **** 
 172:src/kernel/../../h/Riscv.hpp **** inline void Riscv::ms_sip(uint64 mask) {
 173:src/kernel/../../h/Riscv.hpp ****     __asm__ volatile("csrs sip, %0" : :"r"(mask));
 174:src/kernel/../../h/Riscv.hpp **** }
 175:src/kernel/../../h/Riscv.hpp **** 
 176:src/kernel/../../h/Riscv.hpp **** inline void Riscv::mc_sip(uint64 mask) {
 177:src/kernel/../../h/Riscv.hpp ****     __asm__ volatile("csrc sip, %0" : :"r"(mask));
 178:src/kernel/../../h/Riscv.hpp **** }
 179:src/kernel/../../h/Riscv.hpp **** 
 180:src/kernel/../../h/Riscv.hpp **** inline uint64 Riscv::r_sie()
 181:src/kernel/../../h/Riscv.hpp **** {
 182:src/kernel/../../h/Riscv.hpp ****     uint64 volatile sie;
 183:src/kernel/../../h/Riscv.hpp ****     __asm__ volatile("csrr %0, sip" : "=r"(sie));
 184:src/kernel/../../h/Riscv.hpp ****     return sie;
 185:src/kernel/../../h/Riscv.hpp **** }
 186:src/kernel/../../h/Riscv.hpp **** 
 187:src/kernel/../../h/Riscv.hpp **** inline void Riscv::ms_sie(uint64 mask)
 188:src/kernel/../../h/Riscv.hpp **** {
 189:src/kernel/../../h/Riscv.hpp ****     __asm__ volatile("csrs sie, %0" : :"r"(mask));
GAS LISTING /tmp/ccNP9Bns.s 			page 9


 190:src/kernel/../../h/Riscv.hpp **** }
 191:src/kernel/../../h/Riscv.hpp **** 
 192:src/kernel/../../h/Riscv.hpp **** inline uint64 Riscv::r_sip() {
 193:src/kernel/../../h/Riscv.hpp ****     uint64 volatile sip;
 194:src/kernel/../../h/Riscv.hpp ****     __asm__ volatile("csrr %0, sip" : "=r"(sip));
 195:src/kernel/../../h/Riscv.hpp ****     return sip;
 196:src/kernel/../../h/Riscv.hpp **** }
 197:src/kernel/../../h/Riscv.hpp **** 
 198:src/kernel/../../h/Riscv.hpp **** inline void Riscv::w_sip(uint64 sip) {
 199:src/kernel/../../h/Riscv.hpp ****     __asm__ volatile("csrw sip, %0" : :"r"(sip));
 200:src/kernel/../../h/Riscv.hpp **** }
 201:src/kernel/../../h/Riscv.hpp **** 
 202:src/kernel/../../h/Riscv.hpp **** inline void Riscv::ms_sstatus(uint64 mask) {
 203:src/kernel/../../h/Riscv.hpp ****     __asm__ volatile("csrs sstatus, %0" : :"r"(mask));
 107              		.loc 2 203 5
 108              		.loc 2 203 54 is_stmt 0
 109 008c 93072000 		li	a5,2
 110              	#APP
 111              	# 203 "src/kernel/../../h/Riscv.hpp" 1
 204              	}
 112              		csrs sstatus, a5
 113              	# 0 "" 2
 114              	.LVL7:
 115              	#NO_APP
 116              	.LBE52:
 117              	.LBE51:
 164:src/kernel/Riscv.cpp **** }
 118              		.loc 1 164 1
 119 0094 03348100 		ld	s0,8(sp)
 120              		.cfi_restore 8
 121              		.cfi_def_cfa 2, 16
 122 0098 13010101 		addi	sp,sp,16
 123              		.cfi_def_cfa_offset 0
 124 009c 67800000 		jr	ra
 125              		.cfi_endproc
 126              	.LFE31:
 128              		.align	2
 129              		.globl	_ZN5Riscv17disableInterruptsEv
 131              	_ZN5Riscv17disableInterruptsEv:
 132              	.LFB32:
 165:src/kernel/Riscv.cpp **** 
 166:src/kernel/Riscv.cpp **** void Riscv::disableInterrupts()
 167:src/kernel/Riscv.cpp **** {
 133              		.loc 1 167 1 is_stmt 1
 134              		.cfi_startproc
 135 00a0 130101FF 		addi	sp,sp,-16
 136              		.cfi_def_cfa_offset 16
 137 00a4 23348100 		sd	s0,8(sp)
 138              		.cfi_offset 8, -8
 139 00a8 13040101 		addi	s0,sp,16
 140              		.cfi_def_cfa 8, 0
 168:src/kernel/Riscv.cpp ****     mc_sstatus(Riscv::SSTATUS_SIE);
 141              		.loc 1 168 5
 142              	.LVL8:
 143              	.LBB53:
 144              	.LBB54:
 205:src/kernel/../../h/Riscv.hpp **** 
GAS LISTING /tmp/ccNP9Bns.s 			page 10


 206:src/kernel/../../h/Riscv.hpp **** inline void Riscv::mc_sstatus(uint64 mask) {
 207:src/kernel/../../h/Riscv.hpp ****     __asm__ volatile("csrc sstatus, %0" : :"r"(mask));
 145              		.loc 2 207 5
 146              		.loc 2 207 54 is_stmt 0
 147 00ac 93072000 		li	a5,2
 148              	#APP
 149              	# 207 "src/kernel/../../h/Riscv.hpp" 1
 208              	}
 150              		csrc sstatus, a5
 151              	# 0 "" 2
 152              	.LVL9:
 153              	#NO_APP
 154              	.LBE54:
 155              	.LBE53:
 169:src/kernel/Riscv.cpp **** }
 156              		.loc 1 169 1
 157 00b4 03348100 		ld	s0,8(sp)
 158              		.cfi_restore 8
 159              		.cfi_def_cfa 2, 16
 160 00b8 13010101 		addi	sp,sp,16
 161              		.cfi_def_cfa_offset 0
 162 00bc 67800000 		jr	ra
 163              		.cfi_endproc
 164              	.LFE32:
 166              		.align	2
 167              		.globl	_ZN5Riscv9endSystemEv
 169              	_ZN5Riscv9endSystemEv:
 170              	.LFB30:
 142:src/kernel/Riscv.cpp ****     disableInterrupts();
 171              		.loc 1 142 1 is_stmt 1
 172              		.cfi_startproc
 173 00c0 130101FF 		addi	sp,sp,-16
 174              		.cfi_def_cfa_offset 16
 175 00c4 23341100 		sd	ra,8(sp)
 176 00c8 23308100 		sd	s0,0(sp)
 177              		.cfi_offset 1, -8
 178              		.cfi_offset 8, -16
 179 00cc 13040101 		addi	s0,sp,16
 180              		.cfi_def_cfa 8, 0
 143:src/kernel/Riscv.cpp ****     //__asm__ volatile("csrw satp, 0");
 181              		.loc 1 143 5
 143:src/kernel/Riscv.cpp ****     //__asm__ volatile("csrw satp, 0");
 182              		.loc 1 143 22 is_stmt 0
 183 00d0 97000000 		call	_ZN5Riscv17disableInterruptsEv
 183      E7800000 
 184              	.LVL10:
 145:src/kernel/Riscv.cpp ****     PCB* pcb = 0;
 185              		.loc 1 145 5 is_stmt 1
 145:src/kernel/Riscv.cpp ****     PCB* pcb = 0;
 186              		.loc 1 145 18 is_stmt 0
 187 00d8 93071000 		li	a5,1
 188 00dc 17070000 		sb	a5,.LANCHOR0,a4
 188      2300F700 
 146:src/kernel/Riscv.cpp ****     while(true)
 189              		.loc 1 146 5 is_stmt 1
 190              	.LVL11:
 191              	.L10:
GAS LISTING /tmp/ccNP9Bns.s 			page 11


 147:src/kernel/Riscv.cpp ****     {
 192              		.loc 1 147 5
 149:src/kernel/Riscv.cpp ****         if(pcb == 0) break;
 193              		.loc 1 149 9
 149:src/kernel/Riscv.cpp ****         if(pcb == 0) break;
 194              		.loc 1 149 29 is_stmt 0
 195 00e4 97000000 		call	_ZN9Scheduler3getEv@plt
 195      E7800000 
 196              	.LVL12:
 150:src/kernel/Riscv.cpp ****     }
 197              		.loc 1 150 9 is_stmt 1
 198 00ec E31C05FE 		bnez	a0,.L10
 152:src/kernel/Riscv.cpp ****     KConsole::pendingGetc = 0;
 199              		.loc 1 152 5
 152:src/kernel/Riscv.cpp ****     KConsole::pendingGetc = 0;
 200              		.loc 1 152 19 is_stmt 0
 201 00f0 97070000 		la	a5,_ZN3PCB10consolePCBE
 201      83B70700 
 202 00f8 03B50700 		ld	a0,0(a5)
 203              	.LVL13:
 204 00fc 97000000 		call	_ZN9Scheduler3putEP3PCB@plt
 204      E7800000 
 205              	.LVL14:
 153:src/kernel/Riscv.cpp ****     enableInterrupts();
 206              		.loc 1 153 5 is_stmt 1
 153:src/kernel/Riscv.cpp ****     enableInterrupts();
 207              		.loc 1 153 27 is_stmt 0
 208 0104 97070000 		la	a5,_ZN8KConsole11pendingGetcE
 208      83B70700 
 209 010c 23B00700 		sd	zero,0(a5)
 154:src/kernel/Riscv.cpp ****     while(!PCB::consolePCB->isFinished())
 210              		.loc 1 154 5 is_stmt 1
 154:src/kernel/Riscv.cpp ****     while(!PCB::consolePCB->isFinished())
 211              		.loc 1 154 21 is_stmt 0
 212 0110 97000000 		call	_ZN5Riscv16enableInterruptsEv
 212      E7800000 
 213              	.LVL15:
 214              	.L12:
 155:src/kernel/Riscv.cpp ****     {
 215              		.loc 1 155 5 is_stmt 1
 155:src/kernel/Riscv.cpp ****     {
 216              		.loc 1 155 11
 155:src/kernel/Riscv.cpp ****     {
 217              		.loc 1 155 39 is_stmt 0
 218 0118 97070000 		la	a5,_ZN3PCB10consolePCBE
 218      83B70700 
 219 0120 03B50700 		ld	a0,0(a5)
 220 0124 97000000 		call	_ZN3PCB10isFinishedEv@plt
 220      E7800000 
 221              	.LVL16:
 155:src/kernel/Riscv.cpp ****     {
 222              		.loc 1 155 11
 223 012c 63180500 		bnez	a0,.L11
 157:src/kernel/Riscv.cpp ****     }
 224              		.loc 1 157 9 is_stmt 1
 157:src/kernel/Riscv.cpp ****     }
 225              		.loc 1 157 31 is_stmt 0
GAS LISTING /tmp/ccNP9Bns.s 			page 12


 226 0130 97000000 		call	_Z22thread_dispatch_kernelv@plt
 226      E7800000 
 227              	.LVL17:
 155:src/kernel/Riscv.cpp ****     {
 228              		.loc 1 155 5
 229 0138 6FF01FFE 		j	.L12
 230              	.L11:
 159:src/kernel/Riscv.cpp **** }
 231              		.loc 1 159 5 is_stmt 1
 159:src/kernel/Riscv.cpp **** }
 232              		.loc 1 159 22 is_stmt 0
 233 013c 97000000 		call	_ZN5Riscv17disableInterruptsEv
 233      E7800000 
 234              	.LVL18:
 160:src/kernel/Riscv.cpp **** 
 235              		.loc 1 160 1
 236 0144 83308100 		ld	ra,8(sp)
 237              		.cfi_restore 1
 238 0148 03340100 		ld	s0,0(sp)
 239              		.cfi_restore 8
 240              		.cfi_def_cfa 2, 16
 241 014c 13010101 		addi	sp,sp,16
 242              		.cfi_def_cfa_offset 0
 243 0150 67800000 		jr	ra
 244              		.cfi_endproc
 245              	.LFE30:
 247              		.align	2
 248              		.globl	_ZN5Riscv10popSppSpieEv
 250              	_ZN5Riscv10popSppSpieEv:
 251              	.LFB33:
 170:src/kernel/Riscv.cpp **** 
 171:src/kernel/Riscv.cpp **** void Riscv::popSppSpie()
 172:src/kernel/Riscv.cpp **** {
 252              		.loc 1 172 1 is_stmt 1
 253              		.cfi_startproc
 254 0154 130101FF 		addi	sp,sp,-16
 255              		.cfi_def_cfa_offset 16
 256 0158 23348100 		sd	s0,8(sp)
 257              		.cfi_offset 8, -8
 258 015c 13040101 		addi	s0,sp,16
 259              		.cfi_def_cfa 8, 0
 173:src/kernel/Riscv.cpp ****     if(PCB::running->systemThread) {
 260              		.loc 1 173 5
 261              	.LBB55:
 262              		.loc 1 173 22 is_stmt 0
 263 0160 97070000 		la	a5,_ZN3PCB7runningE
 263      83B70700 
 264 0168 83B70700 		ld	a5,0(a5)
 265 016c 03C70700 		lbu	a4,0(a5)
 266              		.loc 1 173 5
 267 0170 630C0700 		beqz	a4,.L15
 174:src/kernel/Riscv.cpp ****         __asm__ volatile ("csrw sepc, ra");
 268              		.loc 1 174 9 is_stmt 1
 269              		.loc 1 174 43 is_stmt 0
 270              	#APP
 271              	# 174 "src/kernel/Riscv.cpp" 1
 175              	        __asm__ volatile ("sret");
GAS LISTING /tmp/ccNP9Bns.s 			page 13


 272              		csrw sepc, ra
 273              	# 0 "" 2
 274              		.loc 1 175 9 is_stmt 1
 275              		.loc 1 175 34 is_stmt 0
 276              	# 175 "src/kernel/Riscv.cpp" 1
 176              	    }
 277              		sret
 278              	# 0 "" 2
 279              	#NO_APP
 280              	.L14:
 281              	.LBE55:
 177:src/kernel/Riscv.cpp ****     else
 178:src/kernel/Riscv.cpp ****     {
 179:src/kernel/Riscv.cpp ****         size_t ra = (size_t)&PCBWrapperUser::wrapperUser;
 180:src/kernel/Riscv.cpp ****         __asm__ volatile("mv a0, %0"::"r"((size_t)PCB::running->body));
 181:src/kernel/Riscv.cpp ****         __asm__ volatile("mv a1, %0"::"r"((size_t)PCB::running->args));
 182:src/kernel/Riscv.cpp ****         __asm__ volatile("csrw sepc, %0"::"r"(ra));
 183:src/kernel/Riscv.cpp ****         __asm__ volatile ("sret");
 184:src/kernel/Riscv.cpp ****     }
 185:src/kernel/Riscv.cpp **** }
 282              		.loc 1 185 1
 283 017c 03348100 		ld	s0,8(sp)
 284              		.cfi_remember_state
 285              		.cfi_restore 8
 286              		.cfi_def_cfa 2, 16
 287 0180 13010101 		addi	sp,sp,16
 288              		.cfi_def_cfa_offset 0
 289 0184 67800000 		jr	ra
 290              	.L15:
 291              		.cfi_restore_state
 292              	.LBB57:
 293              	.LBB56:
 179:src/kernel/Riscv.cpp ****         __asm__ volatile("mv a0, %0"::"r"((size_t)PCB::running->body));
 294              		.loc 1 179 9 is_stmt 1
 295              	.LVL19:
 180:src/kernel/Riscv.cpp ****         __asm__ volatile("mv a1, %0"::"r"((size_t)PCB::running->args));
 296              		.loc 1 180 9
 180:src/kernel/Riscv.cpp ****         __asm__ volatile("mv a1, %0"::"r"((size_t)PCB::running->args));
 297              		.loc 1 180 65 is_stmt 0
 298 0188 03B78702 		ld	a4,40(a5)
 180:src/kernel/Riscv.cpp ****         __asm__ volatile("mv a1, %0"::"r"((size_t)PCB::running->args));
 299              		.loc 1 180 71
 300              	#APP
 301              	# 180 "src/kernel/Riscv.cpp" 1
 181:src/kernel/Riscv.cpp ****         __asm__ volatile("csrw sepc, %0"::"r"(ra));
 302              		mv a0, a4
 303              	# 0 "" 2
 304              		.loc 1 181 9 is_stmt 1
 181:src/kernel/Riscv.cpp ****         __asm__ volatile("csrw sepc, %0"::"r"(ra));
 305              		.loc 1 181 65 is_stmt 0
 306              	#NO_APP
 307 0190 83B70703 		ld	a5,48(a5)
 181:src/kernel/Riscv.cpp ****         __asm__ volatile("csrw sepc, %0"::"r"(ra));
 308              		.loc 1 181 71
 309              	#APP
 310              	# 181 "src/kernel/Riscv.cpp" 1
 182:src/kernel/Riscv.cpp ****         __asm__ volatile ("sret");
GAS LISTING /tmp/ccNP9Bns.s 			page 14


 311              		mv a1, a5
 312              	# 0 "" 2
 313              		.loc 1 182 9 is_stmt 1
 182:src/kernel/Riscv.cpp ****         __asm__ volatile ("sret");
 314              		.loc 1 182 51 is_stmt 0
 315              	#NO_APP
 316 0198 97070000 		la	a5,_ZN14PCBWrapperUser11wrapperUserEPFvPvES0_
 316      83B70700 
 317              	#APP
 318              	# 182 "src/kernel/Riscv.cpp" 1
 183:src/kernel/Riscv.cpp ****     }
 319              		csrw sepc, a5
 320              	# 0 "" 2
 321              		.loc 1 183 9 is_stmt 1
 183:src/kernel/Riscv.cpp ****     }
 322              		.loc 1 183 34 is_stmt 0
 323              	# 183 "src/kernel/Riscv.cpp" 1
 324              		sret
 325              	# 0 "" 2
 326              	#NO_APP
 327              	.LBE56:
 328              	.LBE57:
 329              		.loc 1 185 1
 330 01a8 6FF05FFD 		j	.L14
 331              		.cfi_endproc
 332              	.LFE33:
 334              		.align	2
 335              		.globl	_ZN5Riscv14setVirtualAddrEmmm
 337              	_ZN5Riscv14setVirtualAddrEmmm:
 338              	.LFB34:
 186:src/kernel/Riscv.cpp **** 
 187:src/kernel/Riscv.cpp **** void Riscv::setVirtualAddr(size_t addr, size_t mask, size_t maskLeaf)
 188:src/kernel/Riscv.cpp **** {
 339              		.loc 1 188 1 is_stmt 1
 340              		.cfi_startproc
 341              	.LVL20:
 342 01ac 130101FB 		addi	sp,sp,-80
 343              		.cfi_def_cfa_offset 80
 344 01b0 23341104 		sd	ra,72(sp)
 345 01b4 23308104 		sd	s0,64(sp)
 346 01b8 233C9102 		sd	s1,56(sp)
 347 01bc 23382103 		sd	s2,48(sp)
 348 01c0 23343103 		sd	s3,40(sp)
 349 01c4 23304103 		sd	s4,32(sp)
 350 01c8 233C5101 		sd	s5,24(sp)
 351 01cc 23386101 		sd	s6,16(sp)
 352 01d0 23347101 		sd	s7,8(sp)
 353              		.cfi_offset 1, -8
 354              		.cfi_offset 8, -16
 355              		.cfi_offset 9, -24
 356              		.cfi_offset 18, -32
 357              		.cfi_offset 19, -40
 358              		.cfi_offset 20, -48
 359              		.cfi_offset 21, -56
 360              		.cfi_offset 22, -64
 361              		.cfi_offset 23, -72
 362 01d4 13040105 		addi	s0,sp,80
GAS LISTING /tmp/ccNP9Bns.s 			page 15


 363              		.cfi_def_cfa 8, 0
 364 01d8 93890500 		mv	s3,a1
 365 01dc 130A0600 		mv	s4,a2
 189:src/kernel/Riscv.cpp ****     size_t l2 = addr >> 30;
 366              		.loc 1 189 5
 367              		.loc 1 189 12 is_stmt 0
 368 01e0 935BE501 		srli	s7,a0,30
 369              	.LVL21:
 190:src/kernel/Riscv.cpp ****     size_t l1 = (addr >> 21) & (0x1ff);
 370              		.loc 1 190 5 is_stmt 1
 371              		.loc 1 190 23 is_stmt 0
 372 01e4 135B5501 		srli	s6,a0,21
 373              		.loc 1 190 12
 374 01e8 137BFB1F 		andi	s6,s6,511
 375              	.LVL22:
 191:src/kernel/Riscv.cpp ****     size_t l0 = (addr >> 12) & (0x1ff);
 376              		.loc 1 191 5 is_stmt 1
 377              		.loc 1 191 23 is_stmt 0
 378 01ec 9354C500 		srli	s1,a0,12
 379              		.loc 1 191 12
 380 01f0 13F9F41F 		andi	s2,s1,511
 381              	.LVL23:
 192:src/kernel/Riscv.cpp ****     //size_t offset = addr & 0xfff;
 193:src/kernel/Riscv.cpp ****     size_t pmt2Desc = ((size_t*)mainPMT)[l2];
 382              		.loc 1 193 5 is_stmt 1
 383              		.loc 1 193 44 is_stmt 0
 384 01f4 939B3B00 		slli	s7,s7,3
 385              	.LVL24:
 386 01f8 97070000 		ld	a5,.LANCHOR0+8
 386      83B70700 
 387 0200 B3877701 		add	a5,a5,s7
 388              		.loc 1 193 12
 389 0204 03B50700 		ld	a0,0(a5)
 390              	.LVL25:
 194:src/kernel/Riscv.cpp ****     void* pmt1 = nullptr;
 391              		.loc 1 194 5 is_stmt 1
 195:src/kernel/Riscv.cpp ****     if(pmt2Desc == 0)
 392              		.loc 1 195 5
 393              	.LBB58:
 394 0208 63060506 		beqz	a0,.L29
 196:src/kernel/Riscv.cpp ****     {
 197:src/kernel/Riscv.cpp ****         pmt1 = buddy_alloc((buddyAllocator*)riscvBuddy, 1);
 198:src/kernel/Riscv.cpp ****         for(int i = 0; i < (1 << 9);i++)
 199:src/kernel/Riscv.cpp ****         {
 200:src/kernel/Riscv.cpp ****             ((size_t*)pmt1)[i] = 0;
 201:src/kernel/Riscv.cpp ****         }
 202:src/kernel/Riscv.cpp ****         size_t newDesc = (((size_t)pmt1 >> 12) << 10) | mask;
 203:src/kernel/Riscv.cpp ****         ((size_t*)mainPMT)[l2] = newDesc;
 204:src/kernel/Riscv.cpp ****     }
 205:src/kernel/Riscv.cpp ****     else
 206:src/kernel/Riscv.cpp ****     {
 207:src/kernel/Riscv.cpp ****         pmt1 = (void*)((pmt2Desc >> 10) << 12);
 395              		.loc 1 207 9
 396              		.loc 1 207 34 is_stmt 0
 397 020c 1355A500 		srli	a0,a0,10
 398              	.LVL26:
 399              		.loc 1 207 41
GAS LISTING /tmp/ccNP9Bns.s 			page 16


 400 0210 1315C500 		slli	a0,a0,12
 401              	.LVL27:
 402              	.L22:
 403              	.LBE58:
 208:src/kernel/Riscv.cpp ****     }
 209:src/kernel/Riscv.cpp ****     size_t pmt1Desc = ((size_t*)pmt1)[l1];
 404              		.loc 1 209 5 is_stmt 1
 405              		.loc 1 209 41 is_stmt 0
 406 0214 931A3B00 		slli	s5,s6,3
 407 0218 B30A5501 		add	s5,a0,s5
 408              		.loc 1 209 12
 409 021c 03B50A00 		ld	a0,0(s5)
 410              	.LVL28:
 210:src/kernel/Riscv.cpp ****     void* pmt0 = nullptr;
 411              		.loc 1 210 5 is_stmt 1
 211:src/kernel/Riscv.cpp ****     if(pmt1Desc == 0)
 412              		.loc 1 211 5
 413              	.LBB61:
 414 0220 6304050A 		beqz	a0,.L30
 212:src/kernel/Riscv.cpp ****     {
 213:src/kernel/Riscv.cpp ****         pmt0 = buddy_alloc((buddyAllocator*)riscvBuddy, 1);
 214:src/kernel/Riscv.cpp ****         for(int i = 0; i < (1 << 9);i++)
 215:src/kernel/Riscv.cpp ****         {
 216:src/kernel/Riscv.cpp ****             ((size_t*)pmt0)[i] = 0;
 217:src/kernel/Riscv.cpp ****         }
 218:src/kernel/Riscv.cpp ****         size_t newDesc = (((size_t)pmt0 >> 12) << 10) | mask;
 219:src/kernel/Riscv.cpp ****         ((size_t*)pmt1)[l1] = newDesc;
 220:src/kernel/Riscv.cpp ****     }
 221:src/kernel/Riscv.cpp ****     else
 222:src/kernel/Riscv.cpp ****     {
 223:src/kernel/Riscv.cpp ****         pmt0 = (void*)((pmt1Desc >> 10) << 12);
 415              		.loc 1 223 9
 416              		.loc 1 223 34 is_stmt 0
 417 0224 1355A500 		srli	a0,a0,10
 418              	.LVL29:
 419              		.loc 1 223 41
 420 0228 1315C500 		slli	a0,a0,12
 421              	.LVL30:
 422              	.L26:
 423              	.LBE61:
 224:src/kernel/Riscv.cpp ****     }
 225:src/kernel/Riscv.cpp **** 
 226:src/kernel/Riscv.cpp ****     size_t pmt0Desc = ((size_t*)pmt0)[l0];
 424              		.loc 1 226 5 is_stmt 1
 425              		.loc 1 226 41 is_stmt 0
 426 022c 13193900 		slli	s2,s2,3
 427              	.LVL31:
 428 0230 33052501 		add	a0,a0,s2
 429              	.LVL32:
 430              		.loc 1 226 12
 431 0234 83370500 		ld	a5,0(a0)
 432              	.LVL33:
 227:src/kernel/Riscv.cpp ****     if(pmt0Desc == 0)
 433              		.loc 1 227 5 is_stmt 1
 434 0238 63980700 		bnez	a5,.L18
 228:src/kernel/Riscv.cpp ****     {
 229:src/kernel/Riscv.cpp ****         ((size_t*)pmt0)[l0] = ((addr >> 12) << 10) | maskLeaf;
GAS LISTING /tmp/ccNP9Bns.s 			page 17


 435              		.loc 1 229 9
 436              		.loc 1 229 45 is_stmt 0
 437 023c 9394A400 		slli	s1,s1,10
 438              	.LVL34:
 439              		.loc 1 229 52
 440 0240 33EA4401 		or	s4,s1,s4
 441              	.LVL35:
 442              		.loc 1 229 29
 443 0244 23304501 		sd	s4,0(a0)
 444              	.L18:
 230:src/kernel/Riscv.cpp ****     }
 231:src/kernel/Riscv.cpp **** }
 445              		.loc 1 231 1
 446 0248 83308104 		ld	ra,72(sp)
 447              		.cfi_remember_state
 448              		.cfi_restore 1
 449 024c 03340104 		ld	s0,64(sp)
 450              		.cfi_restore 8
 451              		.cfi_def_cfa 2, 80
 452 0250 83348103 		ld	s1,56(sp)
 453              		.cfi_restore 9
 454 0254 03390103 		ld	s2,48(sp)
 455              		.cfi_restore 18
 456 0258 83398102 		ld	s3,40(sp)
 457              		.cfi_restore 19
 458 025c 033A0102 		ld	s4,32(sp)
 459              		.cfi_restore 20
 460 0260 833A8101 		ld	s5,24(sp)
 461              		.cfi_restore 21
 462 0264 033B0101 		ld	s6,16(sp)
 463              		.cfi_restore 22
 464              	.LVL36:
 465 0268 833B8100 		ld	s7,8(sp)
 466              		.cfi_restore 23
 467 026c 13010105 		addi	sp,sp,80
 468              		.cfi_def_cfa_offset 0
 469 0270 67800000 		jr	ra
 470              	.LVL37:
 471              	.L29:
 472              		.cfi_restore_state
 473              	.LBB64:
 474              	.LBB59:
 197:src/kernel/Riscv.cpp ****         for(int i = 0; i < (1 << 9);i++)
 475              		.loc 1 197 9 is_stmt 1
 197:src/kernel/Riscv.cpp ****         for(int i = 0; i < (1 << 9);i++)
 476              		.loc 1 197 27 is_stmt 0
 477 0274 93051000 		li	a1,1
 478              	.LVL38:
 479 0278 17050000 		ld	a0,.LANCHOR0+16
 479      03350500 
 480              	.LVL39:
 481 0280 97000000 		call	_Z11buddy_allocP14buddyAllocatorm@plt
 481      E7800000 
 482              	.LVL40:
 198:src/kernel/Riscv.cpp ****         {
 483              		.loc 1 198 9 is_stmt 1
 484              	.LBB60:
GAS LISTING /tmp/ccNP9Bns.s 			page 18


 198:src/kernel/Riscv.cpp ****         {
 485              		.loc 1 198 17 is_stmt 0
 486 0288 93070000 		li	a5,0
 487              	.LVL41:
 488              	.L21:
 198:src/kernel/Riscv.cpp ****         {
 489              		.loc 1 198 26 is_stmt 1 discriminator 3
 490 028c 1307F01F 		li	a4,511
 491 0290 634CF700 		bgt	a5,a4,.L20
 200:src/kernel/Riscv.cpp ****         }
 492              		.loc 1 200 13 discriminator 2
 200:src/kernel/Riscv.cpp ****         }
 493              		.loc 1 200 30 is_stmt 0 discriminator 2
 494 0294 13973700 		slli	a4,a5,3
 495 0298 3307E500 		add	a4,a0,a4
 200:src/kernel/Riscv.cpp ****         }
 496              		.loc 1 200 32 discriminator 2
 497 029c 23300700 		sd	zero,0(a4)
 198:src/kernel/Riscv.cpp ****         {
 498              		.loc 1 198 9 is_stmt 1 discriminator 2
 499 02a0 9B871700 		addiw	a5,a5,1
 500              	.LVL42:
 501 02a4 6FF09FFE 		j	.L21
 502              	.LVL43:
 503              	.L20:
 504              	.LBE60:
 202:src/kernel/Riscv.cpp ****         ((size_t*)mainPMT)[l2] = newDesc;
 505              		.loc 1 202 9
 202:src/kernel/Riscv.cpp ****         ((size_t*)mainPMT)[l2] = newDesc;
 506              		.loc 1 202 41 is_stmt 0
 507 02a8 9357C500 		srli	a5,a0,12
 508              	.LVL44:
 202:src/kernel/Riscv.cpp ****         ((size_t*)mainPMT)[l2] = newDesc;
 509              		.loc 1 202 48
 510 02ac 9397A700 		slli	a5,a5,10
 202:src/kernel/Riscv.cpp ****         ((size_t*)mainPMT)[l2] = newDesc;
 511              		.loc 1 202 16
 512 02b0 B3E73701 		or	a5,a5,s3
 513              	.LVL45:
 203:src/kernel/Riscv.cpp ****     }
 514              		.loc 1 203 9 is_stmt 1
 203:src/kernel/Riscv.cpp ****     }
 515              		.loc 1 203 10 is_stmt 0
 516 02b4 17070000 		ld	a4,.LANCHOR0+8
 516      03370700 
 203:src/kernel/Riscv.cpp ****     }
 517              		.loc 1 203 30
 518 02bc B30B7701 		add	s7,a4,s7
 203:src/kernel/Riscv.cpp ****     }
 519              		.loc 1 203 32
 520 02c0 23B0FB00 		sd	a5,0(s7)
 521              	.LBE59:
 522 02c4 6FF01FF5 		j	.L22
 523              	.LVL46:
 524              	.L30:
 525              	.LBE64:
 526              	.LBB65:
GAS LISTING /tmp/ccNP9Bns.s 			page 19


 527              	.LBB62:
 213:src/kernel/Riscv.cpp ****         for(int i = 0; i < (1 << 9);i++)
 528              		.loc 1 213 9 is_stmt 1
 213:src/kernel/Riscv.cpp ****         for(int i = 0; i < (1 << 9);i++)
 529              		.loc 1 213 27 is_stmt 0
 530 02c8 93051000 		li	a1,1
 531 02cc 17050000 		ld	a0,.LANCHOR0+16
 531      03350500 
 532              	.LVL47:
 533 02d4 97000000 		call	_Z11buddy_allocP14buddyAllocatorm@plt
 533      E7800000 
 534              	.LVL48:
 214:src/kernel/Riscv.cpp ****         {
 535              		.loc 1 214 9 is_stmt 1
 536              	.LBB63:
 214:src/kernel/Riscv.cpp ****         {
 537              		.loc 1 214 17 is_stmt 0
 538 02dc 93070000 		li	a5,0
 539              	.LVL49:
 540              	.L25:
 214:src/kernel/Riscv.cpp ****         {
 541              		.loc 1 214 26 is_stmt 1 discriminator 3
 542 02e0 1307F01F 		li	a4,511
 543 02e4 634CF700 		bgt	a5,a4,.L24
 216:src/kernel/Riscv.cpp ****         }
 544              		.loc 1 216 13 discriminator 2
 216:src/kernel/Riscv.cpp ****         }
 545              		.loc 1 216 30 is_stmt 0 discriminator 2
 546 02e8 13973700 		slli	a4,a5,3
 547 02ec 3307E500 		add	a4,a0,a4
 216:src/kernel/Riscv.cpp ****         }
 548              		.loc 1 216 32 discriminator 2
 549 02f0 23300700 		sd	zero,0(a4)
 214:src/kernel/Riscv.cpp ****         {
 550              		.loc 1 214 9 is_stmt 1 discriminator 2
 551 02f4 9B871700 		addiw	a5,a5,1
 552              	.LVL50:
 553 02f8 6FF09FFE 		j	.L25
 554              	.LVL51:
 555              	.L24:
 556              	.LBE63:
 218:src/kernel/Riscv.cpp ****         ((size_t*)pmt1)[l1] = newDesc;
 557              		.loc 1 218 9
 218:src/kernel/Riscv.cpp ****         ((size_t*)pmt1)[l1] = newDesc;
 558              		.loc 1 218 41 is_stmt 0
 559 02fc 9357C500 		srli	a5,a0,12
 560              	.LVL52:
 218:src/kernel/Riscv.cpp ****         ((size_t*)pmt1)[l1] = newDesc;
 561              		.loc 1 218 48
 562 0300 9397A700 		slli	a5,a5,10
 218:src/kernel/Riscv.cpp ****         ((size_t*)pmt1)[l1] = newDesc;
 563              		.loc 1 218 16
 564 0304 B3E93701 		or	s3,a5,s3
 565              	.LVL53:
 219:src/kernel/Riscv.cpp ****     }
 566              		.loc 1 219 9 is_stmt 1
 219:src/kernel/Riscv.cpp ****     }
GAS LISTING /tmp/ccNP9Bns.s 			page 20


 567              		.loc 1 219 29 is_stmt 0
 568 0308 23B03A01 		sd	s3,0(s5)
 569              	.LBE62:
 570 030c 6FF01FF2 		j	.L26
 571              	.LBE65:
 572              		.cfi_endproc
 573              	.LFE34:
 575              		.section	.rodata.str1.8,"aMS",@progbits,1
 576              		.align	3
 577              	.LC0:
 578 0000 43616368 		.string	"Cache of PCBs"
 578      65206F66 
 578      20504342 
 578      7300
 579 000e 0000     		.align	3
 580              	.LC1:
 581 0010 43616368 		.string	"Cache of KSemaphore"
 581      65206F66 
 581      204B5365 
 581      6D617068 
 581      6F726500 
 582 0024 00000000 		.align	3
 583              	.LC2:
 584 0028 6D61696E 		.string	"main PMT "
 584      20504D54 
 584      2000
 585              		.text
 586              		.align	2
 587              		.globl	_ZN5Riscv10initSystemEv
 589              	_ZN5Riscv10initSystemEv:
 590              	.LFB29:
  54:src/kernel/Riscv.cpp ****     w_stvec((uint64)&Riscv::supervisorTrap);
 591              		.loc 1 54 1 is_stmt 1
 592              		.cfi_startproc
 593 0310 130101FC 		addi	sp,sp,-64
 594              		.cfi_def_cfa_offset 64
 595 0314 233C1102 		sd	ra,56(sp)
 596 0318 23388102 		sd	s0,48(sp)
 597 031c 23349102 		sd	s1,40(sp)
 598 0320 23302103 		sd	s2,32(sp)
 599 0324 233C3101 		sd	s3,24(sp)
 600 0328 23384101 		sd	s4,16(sp)
 601 032c 23345101 		sd	s5,8(sp)
 602 0330 23306101 		sd	s6,0(sp)
 603              		.cfi_offset 1, -8
 604              		.cfi_offset 8, -16
 605              		.cfi_offset 9, -24
 606              		.cfi_offset 18, -32
 607              		.cfi_offset 19, -40
 608              		.cfi_offset 20, -48
 609              		.cfi_offset 21, -56
 610              		.cfi_offset 22, -64
 611 0334 13040104 		addi	s0,sp,64
 612              		.cfi_def_cfa 8, 0
  55:src/kernel/Riscv.cpp **** 
 613              		.loc 1 55 5
  55:src/kernel/Riscv.cpp **** 
GAS LISTING /tmp/ccNP9Bns.s 			page 21


 614              		.loc 1 55 12 is_stmt 0
 615 0338 97070000 		la	a5,_ZN5Riscv14supervisorTrapEv
 615      83B70700 
 616              	.LVL54:
 617              	.LBB66:
 618              	.LBB67:
 154:src/kernel/../../h/Riscv.hpp **** }
 619              		.loc 2 154 5 is_stmt 1
 154:src/kernel/../../h/Riscv.hpp **** }
 620              		.loc 2 154 53 is_stmt 0
 621              	#APP
 622              	# 154 "src/kernel/../../h/Riscv.hpp" 1
 623              		csrw stvec, a5
 624              	# 0 "" 2
 625              	.LVL55:
 626              	#NO_APP
 627              	.LBE67:
 628              	.LBE66:
  57:src/kernel/Riscv.cpp ****     size_t heapStartBlock = getBlockAddr((size_t)HEAP_START_ADDR);
 629              		.loc 1 57 5 is_stmt 1
  57:src/kernel/Riscv.cpp ****     size_t heapStartBlock = getBlockAddr((size_t)HEAP_START_ADDR);
 630              		.loc 1 57 37 is_stmt 0
 631 0344 97090000 		la	s3,HEAP_START_ADDR
 631      83B90900 
 632 034c 03B50900 		ld	a0,0(s3)
 633 0350 97000000 		call	_Z12getBlockAddrm@plt
 633      E7800000 
 634              	.LVL56:
  57:src/kernel/Riscv.cpp ****     size_t heapStartBlock = getBlockAddr((size_t)HEAP_START_ADDR);
 635              		.loc 1 57 16
 636 0358 17090000 		lla	s2,.LANCHOR0
 636      13090900 
 637 0360 2338A900 		sd	a0,16(s2)
  58:src/kernel/Riscv.cpp **** 
 638              		.loc 1 58 5 is_stmt 1
  58:src/kernel/Riscv.cpp **** 
 639              		.loc 1 58 41 is_stmt 0
 640 0364 03B50900 		ld	a0,0(s3)
 641 0368 97000000 		call	_Z12getBlockAddrm@plt
 641      E7800000 
 642              	.LVL57:
  60:src/kernel/Riscv.cpp ****     size_t bytesForKernel = totalNumOfBytes / 10; //TODO change this if needed
 643              		.loc 1 60 5 is_stmt 1
  60:src/kernel/Riscv.cpp ****     size_t bytesForKernel = totalNumOfBytes / 10; //TODO change this if needed
 644              		.loc 1 60 52 is_stmt 0
 645 0370 97070000 		la	a5,HEAP_END_ADDR
 645      83B70700 
 646 0378 83B70700 		ld	a5,0(a5)
 647 037c 03B70900 		ld	a4,0(s3)
 648 0380 B387E740 		sub	a5,a5,a4
  60:src/kernel/Riscv.cpp ****     size_t bytesForKernel = totalNumOfBytes / 10; //TODO change this if needed
 649              		.loc 1 60 12
 650 0384 93871700 		addi	a5,a5,1
 651              	.LVL58:
  61:src/kernel/Riscv.cpp ****     size_t numOfBlocks = (bytesForKernel + BLOCK_NUM_OF_BYTES - 1) / BLOCK_NUM_OF_BYTES;
 652              		.loc 1 61 5 is_stmt 1
  61:src/kernel/Riscv.cpp ****     size_t numOfBlocks = (bytesForKernel + BLOCK_NUM_OF_BYTES - 1) / BLOCK_NUM_OF_BYTES;
GAS LISTING /tmp/ccNP9Bns.s 			page 22


 653              		.loc 1 61 12 is_stmt 0
 654 0388 1307A000 		li	a4,10
 655 038c B3D7E702 		divu	a5,a5,a4
 656              	.LVL59:
  62:src/kernel/Riscv.cpp **** 
 657              		.loc 1 62 5 is_stmt 1
  62:src/kernel/Riscv.cpp **** 
 658              		.loc 1 62 63 is_stmt 0
 659 0390 37170000 		li	a4,4096
 660 0394 1307F7FF 		addi	a4,a4,-1
 661 0398 B387E700 		add	a5,a5,a4
 662              	.LVL60:
  62:src/kernel/Riscv.cpp **** 
 663              		.loc 1 62 12
 664 039c 13DAC700 		srli	s4,a5,12
 665              	.LVL61:
  64:src/kernel/Riscv.cpp ****     MemoryAllocator::initMemory(newStartAddr);
 666              		.loc 1 64 5 is_stmt 1
  64:src/kernel/Riscv.cpp ****     MemoryAllocator::initMemory(newStartAddr);
 667              		.loc 1 64 62 is_stmt 0
 668 03a0 B7F4FFFF 		li	s1,-4096
 669 03a4 B3F79700 		and	a5,a5,s1
 670              	.LVL62:
  64:src/kernel/Riscv.cpp ****     MemoryAllocator::initMemory(newStartAddr);
 671              		.loc 1 64 49
 672 03a8 B384A700 		add	s1,a5,a0
 673              	.LVL63:
  65:src/kernel/Riscv.cpp **** 
 674              		.loc 1 65 5 is_stmt 1
  65:src/kernel/Riscv.cpp **** 
 675              		.loc 1 65 32 is_stmt 0
 676 03ac 13850400 		mv	a0,s1
 677              	.LVL64:
 678 03b0 97000000 		call	_ZN15MemoryAllocator10initMemoryEPv@plt
 678      E7800000 
 679              	.LVL65:
  67:src/kernel/Riscv.cpp ****     pcbCache = kmem_cache_create("Cache of PCBs", sizeof(PCB), nullptr, nullptr);
 680              		.loc 1 67 5 is_stmt 1
  67:src/kernel/Riscv.cpp ****     pcbCache = kmem_cache_create("Cache of PCBs", sizeof(PCB), nullptr, nullptr);
 681              		.loc 1 67 14 is_stmt 0
 682 03b8 9B050A00 		sext.w	a1,s4
 683 03bc 03B50900 		ld	a0,0(s3)
 684 03c0 97000000 		call	_Z9kmem_initPvi@plt
 684      E7800000 
 685              	.LVL66:
  68:src/kernel/Riscv.cpp ****     semaphoreCache = kmem_cache_create("Cache of KSemaphore", sizeof(KSemaphore), nullptr, nullptr)
 686              		.loc 1 68 5 is_stmt 1
  68:src/kernel/Riscv.cpp ****     semaphoreCache = kmem_cache_create("Cache of KSemaphore", sizeof(KSemaphore), nullptr, nullptr)
 687              		.loc 1 68 33 is_stmt 0
 688 03c8 93060000 		li	a3,0
 689 03cc 13060000 		li	a2,0
 690 03d0 93050006 		li	a1,96
 691 03d4 17050000 		lla	a0,.LC0
 691      13050500 
 692 03dc 97000000 		call	_Z17kmem_cache_createPKcmPFvPvES3_@plt
 692      E7800000 
 693              	.LVL67:
GAS LISTING /tmp/ccNP9Bns.s 			page 23


  68:src/kernel/Riscv.cpp ****     semaphoreCache = kmem_cache_create("Cache of KSemaphore", sizeof(KSemaphore), nullptr, nullptr)
 694              		.loc 1 68 14
 695 03e4 233CA900 		sd	a0,24(s2)
  69:src/kernel/Riscv.cpp **** 
 696              		.loc 1 69 5 is_stmt 1
  69:src/kernel/Riscv.cpp **** 
 697              		.loc 1 69 39 is_stmt 0
 698 03e8 93060000 		li	a3,0
 699 03ec 13060000 		li	a2,0
 700 03f0 93058001 		li	a1,24
 701 03f4 17050000 		lla	a0,.LC1
 701      13050500 
 702 03fc 97000000 		call	_Z17kmem_cache_createPKcmPFvPvES3_@plt
 702      E7800000 
 703              	.LVL68:
  69:src/kernel/Riscv.cpp **** 
 704              		.loc 1 69 20
 705 0404 2330A902 		sd	a0,32(s2)
  72:src/kernel/Riscv.cpp ****     KConsole::initialize();
 706              		.loc 1 72 5 is_stmt 1
  72:src/kernel/Riscv.cpp ****     KConsole::initialize();
 707              		.loc 1 72 20 is_stmt 0
 708 0408 97000000 		call	_ZN3PCB10initializeEv@plt
 708      E7800000 
 709              	.LVL69:
  73:src/kernel/Riscv.cpp **** 
 710              		.loc 1 73 5 is_stmt 1
  73:src/kernel/Riscv.cpp **** 
 711              		.loc 1 73 25 is_stmt 0
 712 0410 97000000 		call	_ZN8KConsole10initializeEv@plt
 712      E7800000 
 713              	.LVL70:
  77:src/kernel/Riscv.cpp ****     for(size_t i = 0; i < (1 << 9);i++)
 714              		.loc 1 77 5 is_stmt 1
  77:src/kernel/Riscv.cpp ****     for(size_t i = 0; i < (1 << 9);i++)
 715              		.loc 1 77 26 is_stmt 0
 716 0418 93051000 		li	a1,1
 717 041c 03350901 		ld	a0,16(s2)
 718 0420 97000000 		call	_Z11buddy_allocP14buddyAllocatorm@plt
 718      E7800000 
 719              	.LVL71:
  77:src/kernel/Riscv.cpp ****     for(size_t i = 0; i < (1 << 9);i++)
 720              		.loc 1 77 13
 721 0428 2334A900 		sd	a0,8(s2)
  78:src/kernel/Riscv.cpp ****         ((size_t*)mainPMT)[i] = 0;
 722              		.loc 1 78 5 is_stmt 1
 723              	.LVL72:
 724              	.LBB68:
  78:src/kernel/Riscv.cpp ****         ((size_t*)mainPMT)[i] = 0;
 725              		.loc 1 78 16 is_stmt 0
 726 042c 93070000 		li	a5,0
 727              	.LVL73:
 728              	.L33:
  78:src/kernel/Riscv.cpp ****         ((size_t*)mainPMT)[i] = 0;
 729              		.loc 1 78 25 is_stmt 1 discriminator 3
 730 0430 1307F01F 		li	a4,511
 731 0434 6360F702 		bgtu	a5,a4,.L32
GAS LISTING /tmp/ccNP9Bns.s 			page 24


  79:src/kernel/Riscv.cpp **** 
 732              		.loc 1 79 9 discriminator 2
  79:src/kernel/Riscv.cpp **** 
 733              		.loc 1 79 29 is_stmt 0 discriminator 2
 734 0438 93963700 		slli	a3,a5,3
 735 043c 17070000 		ld	a4,.LANCHOR0+8
 735      03370700 
 736 0444 3307D700 		add	a4,a4,a3
  79:src/kernel/Riscv.cpp **** 
 737              		.loc 1 79 31 discriminator 2
 738 0448 23300700 		sd	zero,0(a4)
  78:src/kernel/Riscv.cpp ****         ((size_t*)mainPMT)[i] = 0;
 739              		.loc 1 78 5 is_stmt 1 discriminator 2
 740 044c 93871700 		addi	a5,a5,1
 741              	.LVL74:
 742 0450 6FF01FFE 		j	.L33
 743              	.L32:
 744              	.LBE68:
  81:src/kernel/Riscv.cpp **** 
 745              		.loc 1 81 5
  81:src/kernel/Riscv.cpp **** 
 746              		.loc 1 81 33 is_stmt 0
 747 0454 13060001 		li	a2,16
 748 0458 97050000 		ld	a1,.LANCHOR0+8
 748      83B50500 
 749 0460 17050000 		lla	a0,.LC2
 749      13050500 
 750 0468 97000000 		call	_ZN8KConsole18trapPrintStringIntEPKcmi@plt
 750      E7800000 
 751              	.LVL75:
  96:src/kernel/Riscv.cpp ****     uint64 eText = (uint64)(&etext);
 752              		.loc 1 96 5 is_stmt 1
  96:src/kernel/Riscv.cpp ****     uint64 eText = (uint64)(&etext);
 753              		.loc 1 96 12 is_stmt 0
 754 0470 970A0000 		la	s5,userTextStart
 754      83BA0A00 
 755              	.LVL76:
  97:src/kernel/Riscv.cpp ****     uint64 kTextStart = (uint64)(&kernelTextStart);
 756              		.loc 1 97 5 is_stmt 1
  97:src/kernel/Riscv.cpp ****     uint64 kTextStart = (uint64)(&kernelTextStart);
 757              		.loc 1 97 12 is_stmt 0
 758 0478 170A0000 		la	s4,etext
 758      033A0A00 
 759              	.LVL77:
  98:src/kernel/Riscv.cpp ****     uint64 kDataStart = (uint64)(&kernelDataStart);
 760              		.loc 1 98 5 is_stmt 1
  98:src/kernel/Riscv.cpp ****     uint64 kDataStart = (uint64)(&kernelDataStart);
 761              		.loc 1 98 12 is_stmt 0
 762 0480 17090000 		la	s2,kernelTextStart
 762      03390900 
 763              	.LVL78:
  99:src/kernel/Riscv.cpp **** 
 764              		.loc 1 99 5 is_stmt 1
  99:src/kernel/Riscv.cpp **** 
 765              		.loc 1 99 12 is_stmt 0
 766 0488 97090000 		la	s3,kernelDataStart
 766      83B90900 
GAS LISTING /tmp/ccNP9Bns.s 			page 25


 767              	.LVL79:
 101:src/kernel/Riscv.cpp ****         setVirtualAddr(i, 0x1,0xb);
 768              		.loc 1 101 5 is_stmt 1
 769              	.LBB69:
 101:src/kernel/Riscv.cpp ****         setVirtualAddr(i, 0x1,0xb);
 770              		.loc 1 101 16 is_stmt 0
 771 0490 130B1000 		li	s6,1
 772 0494 131BFB01 		slli	s6,s6,31
 773              	.LVL80:
 774              	.L35:
 101:src/kernel/Riscv.cpp ****         setVirtualAddr(i, 0x1,0xb);
 775              		.loc 1 101 30 is_stmt 1 discriminator 3
 776 0498 63725B03 		bgeu	s6,s5,.L34
 102:src/kernel/Riscv.cpp ****     }
 777              		.loc 1 102 9 discriminator 2
 102:src/kernel/Riscv.cpp ****     }
 778              		.loc 1 102 23 is_stmt 0 discriminator 2
 779 049c 1306B000 		li	a2,11
 780 04a0 93051000 		li	a1,1
 781 04a4 13050B00 		mv	a0,s6
 782 04a8 97000000 		call	_ZN5Riscv14setVirtualAddrEmmm
 782      E7800000 
 783              	.LVL81:
 101:src/kernel/Riscv.cpp ****         setVirtualAddr(i, 0x1,0xb);
 784              		.loc 1 101 5 is_stmt 1 discriminator 2
 101:src/kernel/Riscv.cpp ****         setVirtualAddr(i, 0x1,0xb);
 785              		.loc 1 101 44 is_stmt 0 discriminator 2
 786 04b0 B7170000 		li	a5,4096
 787 04b4 330BFB00 		add	s6,s6,a5
 788              	.LVL82:
 101:src/kernel/Riscv.cpp ****         setVirtualAddr(i, 0x1,0xb);
 789              		.loc 1 101 5 discriminator 2
 790 04b8 6FF01FFE 		j	.L35
 791              	.L34:
 792              	.LVL83:
 793              	.LBE69:
 794              	.LBB70:
 105:src/kernel/Riscv.cpp ****         setVirtualAddr(i, 0x1,0xb);
 795              		.loc 1 105 30 is_stmt 1 discriminator 3
 796 04bc 63F24A03 		bgeu	s5,s4,.L36
 106:src/kernel/Riscv.cpp ****     }
 797              		.loc 1 106 9 discriminator 2
 106:src/kernel/Riscv.cpp ****     }
 798              		.loc 1 106 23 is_stmt 0 discriminator 2
 799 04c0 1306B000 		li	a2,11
 800 04c4 93051000 		li	a1,1
 801 04c8 13850A00 		mv	a0,s5
 802 04cc 97000000 		call	_ZN5Riscv14setVirtualAddrEmmm
 802      E7800000 
 803              	.LVL84:
 105:src/kernel/Riscv.cpp ****         setVirtualAddr(i, 0x1,0xb);
 804              		.loc 1 105 5 is_stmt 1 discriminator 2
 105:src/kernel/Riscv.cpp ****         setVirtualAddr(i, 0x1,0xb);
 805              		.loc 1 105 38 is_stmt 0 discriminator 2
 806 04d4 B7170000 		li	a5,4096
 807 04d8 B38AFA00 		add	s5,s5,a5
 808              	.LVL85:
GAS LISTING /tmp/ccNP9Bns.s 			page 26


 105:src/kernel/Riscv.cpp ****         setVirtualAddr(i, 0x1,0xb);
 809              		.loc 1 105 5 discriminator 2
 810 04dc 6FF01FFE 		j	.L34
 811              	.L36:
 812              	.LVL86:
 813              	.LBE70:
 814              	.LBB71:
 109:src/kernel/Riscv.cpp ****         setVirtualAddr(i, 0x1,0x7);
 815              		.loc 1 109 39 is_stmt 1 discriminator 3
 816 04e0 63722A03 		bgeu	s4,s2,.L37
 110:src/kernel/Riscv.cpp ****     }
 817              		.loc 1 110 9 discriminator 2
 110:src/kernel/Riscv.cpp ****     }
 818              		.loc 1 110 23 is_stmt 0 discriminator 2
 819 04e4 13067000 		li	a2,7
 820 04e8 93051000 		li	a1,1
 821 04ec 13050A00 		mv	a0,s4
 822 04f0 97000000 		call	_ZN5Riscv14setVirtualAddrEmmm
 822      E7800000 
 823              	.LVL87:
 109:src/kernel/Riscv.cpp ****         setVirtualAddr(i, 0x1,0x7);
 824              		.loc 1 109 5 is_stmt 1 discriminator 2
 109:src/kernel/Riscv.cpp ****         setVirtualAddr(i, 0x1,0x7);
 825              		.loc 1 109 52 is_stmt 0 discriminator 2
 826 04f8 B7170000 		li	a5,4096
 827 04fc 330AFA00 		add	s4,s4,a5
 828              	.LVL88:
 109:src/kernel/Riscv.cpp ****         setVirtualAddr(i, 0x1,0x7);
 829              		.loc 1 109 5 discriminator 2
 830 0500 6FF01FFE 		j	.L36
 831              	.L37:
 832              	.LVL89:
 833              	.LBE71:
 834              	.LBB72:
 113:src/kernel/Riscv.cpp ****         setVirtualAddr(i, 0x1,0x1b); //todo
 835              		.loc 1 113 46 is_stmt 1 discriminator 3
 836 0504 63723903 		bgeu	s2,s3,.L38
 114:src/kernel/Riscv.cpp ****     }
 837              		.loc 1 114 9 discriminator 2
 114:src/kernel/Riscv.cpp ****     }
 838              		.loc 1 114 23 is_stmt 0 discriminator 2
 839 0508 1306B001 		li	a2,27
 840 050c 93051000 		li	a1,1
 841 0510 13050900 		mv	a0,s2
 842 0514 97000000 		call	_ZN5Riscv14setVirtualAddrEmmm
 842      E7800000 
 843              	.LVL90:
 113:src/kernel/Riscv.cpp ****         setVirtualAddr(i, 0x1,0x1b); //todo
 844              		.loc 1 113 5 is_stmt 1 discriminator 2
 113:src/kernel/Riscv.cpp ****         setVirtualAddr(i, 0x1,0x1b); //todo
 845              		.loc 1 113 59 is_stmt 0 discriminator 2
 846 051c B7170000 		li	a5,4096
 847 0520 3309F900 		add	s2,s2,a5
 848              	.LVL91:
 113:src/kernel/Riscv.cpp ****         setVirtualAddr(i, 0x1,0x1b); //todo
 849              		.loc 1 113 5 discriminator 2
 850 0524 6FF01FFE 		j	.L37
GAS LISTING /tmp/ccNP9Bns.s 			page 27


 851              	.LVL92:
 852              	.L38:
 853              	.LBE72:
 854              	.LBB73:
 117:src/kernel/Riscv.cpp ****         setVirtualAddr(i, 0x1,0x17);
 855              		.loc 1 117 44 is_stmt 1 discriminator 3
 856 0528 97070000 		la	a5,HEAP_START_ADDR
 856      83B70700 
 857 0530 03B90700 		ld	s2,0(a5)
 858 0534 63F02905 		bleu	s2,s3,.L39
 118:src/kernel/Riscv.cpp ****     }
 859              		.loc 1 118 9 discriminator 2
 118:src/kernel/Riscv.cpp ****     }
 860              		.loc 1 118 23 is_stmt 0 discriminator 2
 861 0538 13067001 		li	a2,23
 862 053c 93051000 		li	a1,1
 863 0540 13850900 		mv	a0,s3
 864 0544 97000000 		call	_ZN5Riscv14setVirtualAddrEmmm
 864      E7800000 
 865              	.LVL93:
 117:src/kernel/Riscv.cpp ****         setVirtualAddr(i, 0x1,0x17);
 866              		.loc 1 117 5 is_stmt 1 discriminator 2
 117:src/kernel/Riscv.cpp ****         setVirtualAddr(i, 0x1,0x17);
 867              		.loc 1 117 70 is_stmt 0 discriminator 2
 868 054c B7170000 		li	a5,4096
 869 0550 B389F900 		add	s3,s3,a5
 870              	.LVL94:
 117:src/kernel/Riscv.cpp ****         setVirtualAddr(i, 0x1,0x17);
 871              		.loc 1 117 5 discriminator 2
 872 0554 6FF05FFD 		j	.L38
 873              	.LVL95:
 874              	.L43:
 875              	.LBE73:
 876              	.LBB74:
 122:src/kernel/Riscv.cpp ****     }
 877              		.loc 1 122 9 is_stmt 1 discriminator 2
 122:src/kernel/Riscv.cpp ****     }
 878              		.loc 1 122 23 is_stmt 0 discriminator 2
 879 0558 13067000 		li	a2,7
 880 055c 93051000 		li	a1,1
 881 0560 13050900 		mv	a0,s2
 882 0564 97000000 		call	_ZN5Riscv14setVirtualAddrEmmm
 882      E7800000 
 883              	.LVL96:
 121:src/kernel/Riscv.cpp ****         setVirtualAddr(i, 0x1,0x7);
 884              		.loc 1 121 5 is_stmt 1 discriminator 2
 121:src/kernel/Riscv.cpp ****         setVirtualAddr(i, 0x1,0x7);
 885              		.loc 1 121 66 is_stmt 0 discriminator 2
 886 056c B7170000 		li	a5,4096
 887 0570 3309F900 		add	s2,s2,a5
 888              	.LVL97:
 889              	.L39:
 121:src/kernel/Riscv.cpp ****         setVirtualAddr(i, 0x1,0x7);
 890              		.loc 1 121 43 is_stmt 1 discriminator 3
 891 0574 E36299FE 		bgtu	s1,s2,.L43
 892              	.LVL98:
 893              	.L40:
GAS LISTING /tmp/ccNP9Bns.s 			page 28


 894              	.LBE74:
 895              	.LBB75:
 125:src/kernel/Riscv.cpp ****         setVirtualAddr(i, 0x1,0x17);
 896              		.loc 1 125 42 discriminator 3
 897 0578 97070000 		la	a5,HEAP_END_ADDR
 897      83B70700 
 898 0580 83B70700 		ld	a5,0(a5)
 899 0584 63E29702 		bltu	a5,s1,.L41
 126:src/kernel/Riscv.cpp ****     }
 900              		.loc 1 126 9 discriminator 2
 126:src/kernel/Riscv.cpp ****     }
 901              		.loc 1 126 23 is_stmt 0 discriminator 2
 902 0588 13067001 		li	a2,23
 903 058c 93051000 		li	a1,1
 904 0590 13850400 		mv	a0,s1
 905 0594 97000000 		call	_ZN5Riscv14setVirtualAddrEmmm
 905      E7800000 
 906              	.LVL99:
 125:src/kernel/Riscv.cpp ****         setVirtualAddr(i, 0x1,0x17);
 907              		.loc 1 125 5 is_stmt 1 discriminator 2
 125:src/kernel/Riscv.cpp ****         setVirtualAddr(i, 0x1,0x17);
 908              		.loc 1 125 67 is_stmt 0 discriminator 2
 909 059c B7170000 		li	a5,4096
 910 05a0 B384F400 		add	s1,s1,a5
 911              	.LVL100:
 125:src/kernel/Riscv.cpp ****         setVirtualAddr(i, 0x1,0x17);
 912              		.loc 1 125 5 discriminator 2
 913 05a4 6FF05FFD 		j	.L40
 914              	.L41:
 915              	.LBE75:
 130:src/kernel/Riscv.cpp ****     setVirtualAddr((size_t)CONSOLE_TX_DATA,0x1,0xf);
 916              		.loc 1 130 5 is_stmt 1
 130:src/kernel/Riscv.cpp ****     setVirtualAddr((size_t)CONSOLE_TX_DATA,0x1,0xf);
 917              		.loc 1 130 19 is_stmt 0
 918 05a8 1306F000 		li	a2,15
 919 05ac 93051000 		li	a1,1
 920 05b0 97070000 		la	a5,CONSOLE_RX_DATA
 920      83B70700 
 921 05b8 03B50700 		ld	a0,0(a5)
 922 05bc 97000000 		call	_ZN5Riscv14setVirtualAddrEmmm
 922      E7800000 
 923              	.LVL101:
 131:src/kernel/Riscv.cpp ****     setVirtualAddr((size_t)CONSOLE_STATUS,0x1,0xf);
 924              		.loc 1 131 5 is_stmt 1
 131:src/kernel/Riscv.cpp ****     setVirtualAddr((size_t)CONSOLE_STATUS,0x1,0xf);
 925              		.loc 1 131 19 is_stmt 0
 926 05c4 1306F000 		li	a2,15
 927 05c8 93051000 		li	a1,1
 928 05cc 97070000 		la	a5,CONSOLE_TX_DATA
 928      83B70700 
 929 05d4 03B50700 		ld	a0,0(a5)
 930 05d8 97000000 		call	_ZN5Riscv14setVirtualAddrEmmm
 930      E7800000 
 931              	.LVL102:
 132:src/kernel/Riscv.cpp ****     setVirtualAddr(0xc201004,0x1,0xf);
 932              		.loc 1 132 5 is_stmt 1
 132:src/kernel/Riscv.cpp ****     setVirtualAddr(0xc201004,0x1,0xf);
GAS LISTING /tmp/ccNP9Bns.s 			page 29


 933              		.loc 1 132 19 is_stmt 0
 934 05e0 1306F000 		li	a2,15
 935 05e4 93051000 		li	a1,1
 936 05e8 97070000 		la	a5,CONSOLE_STATUS
 936      83B70700 
 937 05f0 03B50700 		ld	a0,0(a5)
 938 05f4 97000000 		call	_ZN5Riscv14setVirtualAddrEmmm
 938      E7800000 
 939              	.LVL103:
 133:src/kernel/Riscv.cpp **** 
 940              		.loc 1 133 5 is_stmt 1
 133:src/kernel/Riscv.cpp **** 
 941              		.loc 1 133 19 is_stmt 0
 942 05fc 1306F000 		li	a2,15
 943 0600 93051000 		li	a1,1
 944 0604 3715200C 		li	a0,203427840
 945 0608 13054500 		addi	a0,a0,4
 946 060c 97000000 		call	_ZN5Riscv14setVirtualAddrEmmm
 946      E7800000 
 947              	.LVL104:
 136:src/kernel/Riscv.cpp ****     size_t satp = ((size_t)1 << 63) | ((size_t)mainPMT >> 12);
 948              		.loc 1 136 5 is_stmt 1
 949              	.LBB76:
 950              	.LBB77:
 203:src/kernel/../../h/Riscv.hpp **** }
 951              		.loc 2 203 5
 203:src/kernel/../../h/Riscv.hpp **** }
 952              		.loc 2 203 54 is_stmt 0
 953 0614 B7070400 		li	a5,262144
 954              	#APP
 955              	# 203 "src/kernel/../../h/Riscv.hpp" 1
 956              		csrs sstatus, a5
 957              	# 0 "" 2
 958              	.LVL105:
 959              	#NO_APP
 960              	.LBE77:
 961              	.LBE76:
 137:src/kernel/Riscv.cpp ****     __asm__ volatile("csrw satp, %0" : :"r"(satp));
 962              		.loc 1 137 5 is_stmt 1
 137:src/kernel/Riscv.cpp ****     __asm__ volatile("csrw satp, %0" : :"r"(satp));
 963              		.loc 1 137 56 is_stmt 0
 964 061c 97070000 		ld	a5,.LANCHOR0+8
 964      83B70700 
 965 0624 93D7C700 		srli	a5,a5,12
 137:src/kernel/Riscv.cpp ****     __asm__ volatile("csrw satp, %0" : :"r"(satp));
 966              		.loc 1 137 12
 967 0628 1307F0FF 		li	a4,-1
 968 062c 1317F703 		slli	a4,a4,63
 969 0630 B3E7E700 		or	a5,a5,a4
 970              	.LVL106:
 138:src/kernel/Riscv.cpp **** }
 971              		.loc 1 138 5 is_stmt 1
 138:src/kernel/Riscv.cpp **** }
 972              		.loc 1 138 51 is_stmt 0
 973              	#APP
 974              	# 138 "src/kernel/Riscv.cpp" 1
 139:src/kernel/Riscv.cpp **** 
GAS LISTING /tmp/ccNP9Bns.s 			page 30


 975              		csrw satp, a5
 976              	# 0 "" 2
 977              		.loc 1 139 1
 978              	#NO_APP
 979 0638 83308103 		ld	ra,56(sp)
 980              		.cfi_restore 1
 981 063c 03340103 		ld	s0,48(sp)
 982              		.cfi_restore 8
 983              		.cfi_def_cfa 2, 64
 984 0640 83348102 		ld	s1,40(sp)
 985              		.cfi_restore 9
 986              	.LVL107:
 987 0644 03390102 		ld	s2,32(sp)
 988              		.cfi_restore 18
 989              	.LVL108:
 990 0648 83398101 		ld	s3,24(sp)
 991              		.cfi_restore 19
 992              	.LVL109:
 993 064c 033A0101 		ld	s4,16(sp)
 994              		.cfi_restore 20
 995              	.LVL110:
 996 0650 833A8100 		ld	s5,8(sp)
 997              		.cfi_restore 21
 998              	.LVL111:
 999 0654 033B0100 		ld	s6,0(sp)
 1000              		.cfi_restore 22
 1001              	.LVL112:
 1002 0658 13010104 		addi	sp,sp,64
 1003              		.cfi_def_cfa_offset 0
 1004 065c 67800000 		jr	ra
 1005              		.cfi_endproc
 1006              	.LFE29:
 1008              		.align	2
 1009              		.globl	_ZN5Riscv14addVirtualAddrEm
 1011              	_ZN5Riscv14addVirtualAddrEm:
 1012              	.LFB35:
 232:src/kernel/Riscv.cpp **** 
 233:src/kernel/Riscv.cpp **** void Riscv::addVirtualAddr(size_t addr)
 234:src/kernel/Riscv.cpp **** {
 1013              		.loc 1 234 1 is_stmt 1
 1014              		.cfi_startproc
 1015              	.LVL113:
 1016 0660 130101FF 		addi	sp,sp,-16
 1017              		.cfi_def_cfa_offset 16
 1018 0664 23341100 		sd	ra,8(sp)
 1019 0668 23308100 		sd	s0,0(sp)
 1020              		.cfi_offset 1, -8
 1021              		.cfi_offset 8, -16
 1022 066c 13040101 		addi	s0,sp,16
 1023              		.cfi_def_cfa 8, 0
 235:src/kernel/Riscv.cpp ****     setVirtualAddr(addr, 0x1, 0xf);
 1024              		.loc 1 235 5
 1025              		.loc 1 235 19 is_stmt 0
 1026 0670 1306F000 		li	a2,15
 1027 0674 93051000 		li	a1,1
 1028 0678 97000000 		call	_ZN5Riscv14setVirtualAddrEmmm
 1028      E7800000 
GAS LISTING /tmp/ccNP9Bns.s 			page 31


 1029              	.LVL114:
 236:src/kernel/Riscv.cpp **** }
 1030              		.loc 1 236 1
 1031 0680 83308100 		ld	ra,8(sp)
 1032              		.cfi_restore 1
 1033 0684 03340100 		ld	s0,0(sp)
 1034              		.cfi_restore 8
 1035              		.cfi_def_cfa 2, 16
 1036 0688 13010101 		addi	sp,sp,16
 1037              		.cfi_def_cfa_offset 0
 1038 068c 67800000 		jr	ra
 1039              		.cfi_endproc
 1040              	.LFE35:
 1042              		.align	2
 1043              		.globl	_ZN5Riscv19addVirtualAddrInstrEm
 1045              	_ZN5Riscv19addVirtualAddrInstrEm:
 1046              	.LFB36:
 237:src/kernel/Riscv.cpp **** 
 238:src/kernel/Riscv.cpp **** void Riscv::addVirtualAddrInstr(size_t addr)
 239:src/kernel/Riscv.cpp **** {
 1047              		.loc 1 239 1 is_stmt 1
 1048              		.cfi_startproc
 1049              	.LVL115:
 1050 0690 130101FF 		addi	sp,sp,-16
 1051              		.cfi_def_cfa_offset 16
 1052 0694 23341100 		sd	ra,8(sp)
 1053 0698 23308100 		sd	s0,0(sp)
 1054              		.cfi_offset 1, -8
 1055              		.cfi_offset 8, -16
 1056 069c 13040101 		addi	s0,sp,16
 1057              		.cfi_def_cfa 8, 0
 240:src/kernel/Riscv.cpp ****     setVirtualAddr(addr, 0x1, 0xf);
 1058              		.loc 1 240 5
 1059              		.loc 1 240 19 is_stmt 0
 1060 06a0 1306F000 		li	a2,15
 1061 06a4 93051000 		li	a1,1
 1062 06a8 97000000 		call	_ZN5Riscv14setVirtualAddrEmmm
 1062      E7800000 
 1063              	.LVL116:
 241:src/kernel/Riscv.cpp **** }
 1064              		.loc 1 241 1
 1065 06b0 83308100 		ld	ra,8(sp)
 1066              		.cfi_restore 1
 1067 06b4 03340100 		ld	s0,0(sp)
 1068              		.cfi_restore 8
 1069              		.cfi_def_cfa 2, 16
 1070 06b8 13010101 		addi	sp,sp,16
 1071              		.cfi_def_cfa_offset 0
 1072 06bc 67800000 		jr	ra
 1073              		.cfi_endproc
 1074              	.LFE36:
 1076              		.align	2
 1077              		.globl	_ZN5Riscv10kernelMainEv
 1079              	_ZN5Riscv10kernelMainEv:
 1080              	.LFB38:
 242:src/kernel/Riscv.cpp **** 
 243:src/kernel/Riscv.cpp **** void Riscv::handleSupervisorTrap()
GAS LISTING /tmp/ccNP9Bns.s 			page 32


 244:src/kernel/Riscv.cpp **** {
 245:src/kernel/Riscv.cpp ****     __asm__ volatile("mv %0, a4" : "=r"(PCB::savedRegA4));
 246:src/kernel/Riscv.cpp ****     __asm__ volatile("csrr %0, sscratch":"=r"(PCB::running->sscratch));
 247:src/kernel/Riscv.cpp **** 
 248:src/kernel/Riscv.cpp ****     uint64 scause = Riscv::r_scause();
 249:src/kernel/Riscv.cpp **** 
 250:src/kernel/Riscv.cpp ****     static const size_t storePF = 15;
 251:src/kernel/Riscv.cpp ****     static const size_t loadPF = 13;
 252:src/kernel/Riscv.cpp ****     static const size_t instrPF = 12;
 253:src/kernel/Riscv.cpp **** 
 254:src/kernel/Riscv.cpp ****     switch(scause)
 255:src/kernel/Riscv.cpp ****     {
 256:src/kernel/Riscv.cpp ****         case storePF:
 257:src/kernel/Riscv.cpp ****         {
 258:src/kernel/Riscv.cpp ****             size_t addrPF = 0;
 259:src/kernel/Riscv.cpp ****             __asm__ volatile("csrr %0, stval":"=r"(addrPF));
 260:src/kernel/Riscv.cpp ****             addVirtualAddr(addrPF);
 261:src/kernel/Riscv.cpp ****         }
 262:src/kernel/Riscv.cpp ****         case loadPF:
 263:src/kernel/Riscv.cpp ****         {
 264:src/kernel/Riscv.cpp ****             size_t addrPF = 0;
 265:src/kernel/Riscv.cpp ****             __asm__ volatile("csrr %0, stval":"=r"(addrPF));
 266:src/kernel/Riscv.cpp ****             addVirtualAddr(addrPF);
 267:src/kernel/Riscv.cpp ****         }
 268:src/kernel/Riscv.cpp ****         case instrPF:
 269:src/kernel/Riscv.cpp ****         {
 270:src/kernel/Riscv.cpp ****             //KConsole::trapPrintString("instr PF\n");
 271:src/kernel/Riscv.cpp ****             size_t addrPF = 0;
 272:src/kernel/Riscv.cpp ****             __asm__ volatile("csrr %0, stval":"=r"(addrPF));
 273:src/kernel/Riscv.cpp ****             addVirtualAddrInstr(addrPF);
 274:src/kernel/Riscv.cpp ****         }
 275:src/kernel/Riscv.cpp ****         case timerInterrupt:
 276:src/kernel/Riscv.cpp ****         {
 277:src/kernel/Riscv.cpp ****             //KConsole::trapPrintString("timerInterrupt\n");
 278:src/kernel/Riscv.cpp ****             uint64 volatile sepc = Riscv::r_sepc();
 279:src/kernel/Riscv.cpp ****             uint64 volatile sstatus = Riscv::r_sstatus();
 280:src/kernel/Riscv.cpp ****             mc_sip(Riscv::SIP_SSIP);
 281:src/kernel/Riscv.cpp ****             //static uint64 total = 0;
 282:src/kernel/Riscv.cpp ****             totalTime++;
 283:src/kernel/Riscv.cpp ****             //KConsole::trapPrintInt(totalTime);
 284:src/kernel/Riscv.cpp **** 
 285:src/kernel/Riscv.cpp ****             PCB::timeSliceCounter++;
 286:src/kernel/Riscv.cpp ****             SleepPCBList::tryToWakePCBs();
 287:src/kernel/Riscv.cpp ****             if (PCB::timeSliceCounter >= PCB::running->getTimeSlice())
 288:src/kernel/Riscv.cpp ****             {
 289:src/kernel/Riscv.cpp ****                 PCB::timeSliceCounter = 0;
 290:src/kernel/Riscv.cpp ****                 PCB::dispatch();
 291:src/kernel/Riscv.cpp ****             }
 292:src/kernel/Riscv.cpp **** 
 293:src/kernel/Riscv.cpp ****             Riscv::w_sstatus(sstatus);
 294:src/kernel/Riscv.cpp ****             Riscv::w_sepc(sepc);
 295:src/kernel/Riscv.cpp ****             changePrivMode();
 296:src/kernel/Riscv.cpp ****             break;
 297:src/kernel/Riscv.cpp ****         }
 298:src/kernel/Riscv.cpp ****         case hwInterrupt:
 299:src/kernel/Riscv.cpp ****         {
 300:src/kernel/Riscv.cpp ****             KConsole::getCharactersFromConsole();
GAS LISTING /tmp/ccNP9Bns.s 			page 33


 301:src/kernel/Riscv.cpp ****             plic_complete(plic_claim());
 302:src/kernel/Riscv.cpp ****             break;
 303:src/kernel/Riscv.cpp ****         }
 304:src/kernel/Riscv.cpp ****         case operationInterrupt:
 305:src/kernel/Riscv.cpp ****         {
 306:src/kernel/Riscv.cpp ****             PCB::threadExitHandler();
 307:src/kernel/Riscv.cpp ****             break;
 308:src/kernel/Riscv.cpp ****         }
 309:src/kernel/Riscv.cpp ****         case addrReadInterrupt:
 310:src/kernel/Riscv.cpp ****         {
 311:src/kernel/Riscv.cpp ****             PCB::threadExitHandler();
 312:src/kernel/Riscv.cpp ****             break;
 313:src/kernel/Riscv.cpp ****         }
 314:src/kernel/Riscv.cpp ****         case addrWriteInterrupt:
 315:src/kernel/Riscv.cpp ****         {
 316:src/kernel/Riscv.cpp ****             PCB::threadExitHandler();
 317:src/kernel/Riscv.cpp ****             break;
 318:src/kernel/Riscv.cpp ****         }
 319:src/kernel/Riscv.cpp ****         case ecallSystemInterupt:
 320:src/kernel/Riscv.cpp ****         case ecallUserInterrupt:
 321:src/kernel/Riscv.cpp ****         {
 322:src/kernel/Riscv.cpp ****             uint64 operation;
 323:src/kernel/Riscv.cpp ****             __asm__ volatile("mv %0, a0" :  "=r"(operation));
 324:src/kernel/Riscv.cpp **** 
 325:src/kernel/Riscv.cpp ****             uint64 volatile sepc = Riscv::r_sepc() + 4;
 326:src/kernel/Riscv.cpp ****             uint64 volatile sstatus = Riscv::r_sstatus();
 327:src/kernel/Riscv.cpp **** 
 328:src/kernel/Riscv.cpp ****             switch(operation)
 329:src/kernel/Riscv.cpp ****             {
 330:src/kernel/Riscv.cpp ****                 case MemoryAllocator::MEM_ALLOC:
 331:src/kernel/Riscv.cpp ****                     MemoryAllocator::memAllocHandler();
 332:src/kernel/Riscv.cpp ****                     break;
 333:src/kernel/Riscv.cpp ****                 case MemoryAllocator::MEM_FREE:
 334:src/kernel/Riscv.cpp ****                     MemoryAllocator::memFreeHandler();
 335:src/kernel/Riscv.cpp ****                     break;
 336:src/kernel/Riscv.cpp ****                 case PCB::THREAD_MAKE_PCB:
 337:src/kernel/Riscv.cpp ****                     PCB::threadMakePCBHandler();
 338:src/kernel/Riscv.cpp ****                     break;
 339:src/kernel/Riscv.cpp ****                 case PCB::THREAD_CREATE:
 340:src/kernel/Riscv.cpp ****                     PCB::threadCreateHandler();
 341:src/kernel/Riscv.cpp ****                     break;
 342:src/kernel/Riscv.cpp ****                 case PCB::THREAD_START:
 343:src/kernel/Riscv.cpp ****                     PCB::threadStartHandler();
 344:src/kernel/Riscv.cpp ****                     break;
 345:src/kernel/Riscv.cpp ****                 case PCB::THREAD_DISPATCH:
 346:src/kernel/Riscv.cpp ****                     PCB::threadDispatchHandler();
 347:src/kernel/Riscv.cpp ****                     break;
 348:src/kernel/Riscv.cpp ****                 case PCB::THREAD_EXIT:
 349:src/kernel/Riscv.cpp ****                     PCB::threadExitHandler();
 350:src/kernel/Riscv.cpp ****                     break;
 351:src/kernel/Riscv.cpp ****                 case PCB::TIME_SLEEP:
 352:src/kernel/Riscv.cpp ****                     PCB::threadSleepHandler();
 353:src/kernel/Riscv.cpp ****                     break;
 354:src/kernel/Riscv.cpp ****                 case PCB::THREAD_DEL_PCB:
 355:src/kernel/Riscv.cpp ****                      PCB::threadDelPCBHandler();
 356:src/kernel/Riscv.cpp ****                      break;
 357:src/kernel/Riscv.cpp ****                 case KSemaphore::SEM_OPEN:
GAS LISTING /tmp/ccNP9Bns.s 			page 34


 358:src/kernel/Riscv.cpp ****                     KSemaphore::semOpenHandler();
 359:src/kernel/Riscv.cpp ****                     break;
 360:src/kernel/Riscv.cpp ****                 case KSemaphore::SEM_WAIT:
 361:src/kernel/Riscv.cpp ****                     KSemaphore::semWaitHandler();
 362:src/kernel/Riscv.cpp ****                     break;
 363:src/kernel/Riscv.cpp ****                 case KSemaphore::SEM_SIGNAL:
 364:src/kernel/Riscv.cpp ****                     KSemaphore::semSignalHandler();
 365:src/kernel/Riscv.cpp ****                     break;
 366:src/kernel/Riscv.cpp ****                 case KSemaphore::SEM_CLOSE:
 367:src/kernel/Riscv.cpp ****                     KSemaphore::semCloseHandler();
 368:src/kernel/Riscv.cpp ****                     break;
 369:src/kernel/Riscv.cpp ****                 case KConsole::CONSOLE_GETC:
 370:src/kernel/Riscv.cpp ****                     KConsole::getcHandler();
 371:src/kernel/Riscv.cpp ****                     break;
 372:src/kernel/Riscv.cpp ****                 case KConsole::CONSOLE_PUTC:
 373:src/kernel/Riscv.cpp ****                     KConsole::putcHandler();
 374:src/kernel/Riscv.cpp ****                     break;
 375:src/kernel/Riscv.cpp ****                 case KConsole::CONSOLE_GET_CHAR:
 376:src/kernel/Riscv.cpp ****                     KConsole::getCharHandler();
 377:src/kernel/Riscv.cpp ****                     break;
 378:src/kernel/Riscv.cpp ****             }
 379:src/kernel/Riscv.cpp **** 
 380:src/kernel/Riscv.cpp ****             Riscv::w_sstatus(sstatus);
 381:src/kernel/Riscv.cpp ****             Riscv::w_sepc(sepc);
 382:src/kernel/Riscv.cpp ****             changePrivMode();
 383:src/kernel/Riscv.cpp ****             break;
 384:src/kernel/Riscv.cpp ****         }
 385:src/kernel/Riscv.cpp ****     }
 386:src/kernel/Riscv.cpp **** }
 387:src/kernel/Riscv.cpp **** 
 388:src/kernel/Riscv.cpp **** void Riscv::kernelMain()
 389:src/kernel/Riscv.cpp **** {
 1081              		.loc 1 389 1 is_stmt 1
 1082              		.cfi_startproc
 390:src/kernel/Riscv.cpp ****     if(kernelMainCalled) return;
 1083              		.loc 1 390 5
 1084 06c0 97070000 		lbu	a5,.LANCHOR0+40
 1084      83C70700 
 1085 06c8 63840700 		beqz	a5,.L54
 1086 06cc 67800000 		ret
 1087              	.L54:
 389:src/kernel/Riscv.cpp ****     if(kernelMainCalled) return;
 1088              		.loc 1 389 1 is_stmt 0
 1089 06d0 130101FF 		addi	sp,sp,-16
 1090              		.cfi_def_cfa_offset 16
 1091 06d4 23341100 		sd	ra,8(sp)
 1092 06d8 23308100 		sd	s0,0(sp)
 1093              		.cfi_offset 1, -8
 1094              		.cfi_offset 8, -16
 1095 06dc 13040101 		addi	s0,sp,16
 1096              		.cfi_def_cfa 8, 0
 391:src/kernel/Riscv.cpp ****     kernelMainCalled = true;
 1097              		.loc 1 391 5 is_stmt 1
 1098              		.loc 1 391 22 is_stmt 0
 1099 06e0 93071000 		li	a5,1
 1100 06e4 17070000 		sb	a5,.LANCHOR0+40,a4
 1100      2300F700 
GAS LISTING /tmp/ccNP9Bns.s 			page 35


 392:src/kernel/Riscv.cpp **** 
 393:src/kernel/Riscv.cpp ****     initSystem();
 1101              		.loc 1 393 5 is_stmt 1
 1102              		.loc 1 393 15 is_stmt 0
 1103 06ec 97000000 		call	_ZN5Riscv10initSystemEv
 1103      E7800000 
 1104              	.LVL117:
 394:src/kernel/Riscv.cpp **** 
 395:src/kernel/Riscv.cpp ****     testOS2();
 1105              		.loc 1 395 5 is_stmt 1
 1106              		.loc 1 395 12 is_stmt 0
 1107 06f4 97000000 		call	_Z7testOS2v@plt
 1107      E7800000 
 1108              	.LVL118:
 396:src/kernel/Riscv.cpp **** 
 397:src/kernel/Riscv.cpp ****     //enableInterrupts();
 398:src/kernel/Riscv.cpp **** 
 399:src/kernel/Riscv.cpp ****     //while(!PCB::userPCB->isFinished())
 400:src/kernel/Riscv.cpp ****     //{
 401:src/kernel/Riscv.cpp ****     //    thread_dispatch_kernel();
 402:src/kernel/Riscv.cpp ****     //}
 403:src/kernel/Riscv.cpp **** 
 404:src/kernel/Riscv.cpp ****     endSystem();
 1109              		.loc 1 404 5 is_stmt 1
 1110              		.loc 1 404 14 is_stmt 0
 1111 06fc 97000000 		call	_ZN5Riscv9endSystemEv
 1111      E7800000 
 1112              	.LVL119:
 405:src/kernel/Riscv.cpp **** }
 1113              		.loc 1 405 1
 1114 0704 83308100 		ld	ra,8(sp)
 1115              		.cfi_restore 1
 1116 0708 03340100 		ld	s0,0(sp)
 1117              		.cfi_restore 8
 1118              		.cfi_def_cfa 2, 16
 1119 070c 13010101 		addi	sp,sp,16
 1120              		.cfi_def_cfa_offset 0
 1121 0710 67800000 		jr	ra
 1122              		.cfi_endproc
 1123              	.LFE38:
 1125              		.align	2
 1126              		.globl	_ZN5Riscv22disableTimerInterruptsEv
 1128              	_ZN5Riscv22disableTimerInterruptsEv:
 1129              	.LFB39:
 406:src/kernel/Riscv.cpp **** 
 407:src/kernel/Riscv.cpp **** void Riscv::disableTimerInterrupts()
 408:src/kernel/Riscv.cpp **** {
 1130              		.loc 1 408 1 is_stmt 1
 1131              		.cfi_startproc
 1132 0714 130101FF 		addi	sp,sp,-16
 1133              		.cfi_def_cfa_offset 16
 1134 0718 23348100 		sd	s0,8(sp)
 1135              		.cfi_offset 8, -8
 1136 071c 13040101 		addi	s0,sp,16
 1137              		.cfi_def_cfa 8, 0
 409:src/kernel/Riscv.cpp ****     uint64 x = 0x2;
 1138              		.loc 1 409 5
GAS LISTING /tmp/ccNP9Bns.s 			page 36


 1139              	.LVL120:
 410:src/kernel/Riscv.cpp ****     __asm__ volatile("csrc sie, %0"::"r"(x));
 1140              		.loc 1 410 5
 1141              		.loc 1 410 45 is_stmt 0
 1142 0720 93072000 		li	a5,2
 1143              	#APP
 1144              	# 410 "src/kernel/Riscv.cpp" 1
 411              	}
 1145              		csrc sie, a5
 1146              	# 0 "" 2
 1147              		.loc 1 411 1
 1148              	#NO_APP
 1149 0728 03348100 		ld	s0,8(sp)
 1150              		.cfi_restore 8
 1151              		.cfi_def_cfa 2, 16
 1152 072c 13010101 		addi	sp,sp,16
 1153              		.cfi_def_cfa_offset 0
 1154 0730 67800000 		jr	ra
 1155              		.cfi_endproc
 1156              	.LFE39:
 1158              		.align	2
 1159              		.globl	_ZN5Riscv13w_a0_sscratchEv
 1161              	_ZN5Riscv13w_a0_sscratchEv:
 1162              	.LFB40:
 412:src/kernel/Riscv.cpp **** 
 413:src/kernel/Riscv.cpp **** void Riscv::w_a0_sscratch()
 414:src/kernel/Riscv.cpp **** {
 1163              		.loc 1 414 1 is_stmt 1
 1164              		.cfi_startproc
 1165 0734 130101FF 		addi	sp,sp,-16
 1166              		.cfi_def_cfa_offset 16
 1167 0738 23348100 		sd	s0,8(sp)
 1168              		.cfi_offset 8, -8
 1169 073c 13040101 		addi	s0,sp,16
 1170              		.cfi_def_cfa 8, 0
 415:src/kernel/Riscv.cpp ****     uint64 a1Temp;
 1171              		.loc 1 415 5
 416:src/kernel/Riscv.cpp ****     __asm__ volatile("mv %0, a1":"=r"(a1Temp));
 1172              		.loc 1 416 5
 1173              		.loc 1 416 47 is_stmt 0
 1174              	#APP
 1175              	# 416 "src/kernel/Riscv.cpp" 1
 417              	    __asm__ volatile("mv a1, %0"::"r"(PCB::running->sscratch));
 1176              		mv a5, a1
 1177              	# 0 "" 2
 1178              	.LVL121:
 1179              		.loc 1 417 5 is_stmt 1
 1180              		.loc 1 417 53 is_stmt 0
 1181              	#NO_APP
 1182 0744 17070000 		la	a4,_ZN3PCB7runningE
 1182      03370700 
 1183 074c 03370700 		ld	a4,0(a4)
 1184 0750 03370701 		ld	a4,16(a4)
 1185              		.loc 1 417 63
 1186              	#APP
 1187              	# 417 "src/kernel/Riscv.cpp" 1
 418              	    __asm__ volatile("sd a0, 80(a1)");
GAS LISTING /tmp/ccNP9Bns.s 			page 37


 1188              		mv a1, a4
 1189              	# 0 "" 2
 1190              		.loc 1 418 5 is_stmt 1
 1191              		.loc 1 418 38 is_stmt 0
 1192              	# 418 "src/kernel/Riscv.cpp" 1
 419              	    __asm__ volatile("mv a1,%0"::"r"(a1Temp));
 1193              		sd a0, 80(a1)
 1194              	# 0 "" 2
 1195              		.loc 1 419 5 is_stmt 1
 1196              		.loc 1 419 46 is_stmt 0
 1197              	# 419 "src/kernel/Riscv.cpp" 1
 420              	}
 1198              		mv a1,a5
 1199              	# 0 "" 2
 1200              		.loc 1 420 1
 1201              	#NO_APP
 1202 0760 03348100 		ld	s0,8(sp)
 1203              		.cfi_restore 8
 1204              		.cfi_def_cfa 2, 16
 1205 0764 13010101 		addi	sp,sp,16
 1206              		.cfi_def_cfa_offset 0
 1207 0768 67800000 		jr	ra
 1208              		.cfi_endproc
 1209              	.LFE40:
 1211              		.align	2
 1212              		.globl	_ZN5Riscv14changePrivModeEv
 1214              	_ZN5Riscv14changePrivModeEv:
 1215              	.LFB41:
 421:src/kernel/Riscv.cpp **** 
 422:src/kernel/Riscv.cpp **** void Riscv::changePrivMode()
 423:src/kernel/Riscv.cpp **** {
 1216              		.loc 1 423 1 is_stmt 1
 1217              		.cfi_startproc
 1218 076c 130101FF 		addi	sp,sp,-16
 1219              		.cfi_def_cfa_offset 16
 1220 0770 23348100 		sd	s0,8(sp)
 1221              		.cfi_offset 8, -8
 1222 0774 13040101 		addi	s0,sp,16
 1223              		.cfi_def_cfa 8, 0
 424:src/kernel/Riscv.cpp ****     if(PCB::running->systemThread)
 1224              		.loc 1 424 5
 1225              		.loc 1 424 22 is_stmt 0
 1226 0778 97070000 		la	a5,_ZN3PCB7runningE
 1226      83B70700 
 1227 0780 83B70700 		ld	a5,0(a5)
 1228 0784 83C70700 		lbu	a5,0(a5)
 1229              		.loc 1 424 5
 1230 0788 638C0700 		beqz	a5,.L60
 425:src/kernel/Riscv.cpp ****         Riscv::ms_sstatus(Riscv::SSTATUS_SPP);
 1231              		.loc 1 425 9 is_stmt 1
 1232              	.LVL122:
 1233              	.LBB78:
 1234              	.LBB79:
 203:src/kernel/../../h/Riscv.hpp **** }
 1235              		.loc 2 203 5
 203:src/kernel/../../h/Riscv.hpp **** }
 1236              		.loc 2 203 54 is_stmt 0
GAS LISTING /tmp/ccNP9Bns.s 			page 38


 1237 078c 93070010 		li	a5,256
 1238              	#APP
 1239              	# 203 "src/kernel/../../h/Riscv.hpp" 1
 1240              		csrs sstatus, a5
 1241              	# 0 "" 2
 1242              	.LVL123:
 1243              	#NO_APP
 1244              	.L59:
 1245              	.LBE79:
 1246              	.LBE78:
 426:src/kernel/Riscv.cpp ****     else
 427:src/kernel/Riscv.cpp ****         Riscv::mc_sstatus(Riscv::SSTATUS_SPP);
 428:src/kernel/Riscv.cpp **** }
 1247              		.loc 1 428 1
 1248 0794 03348100 		ld	s0,8(sp)
 1249              		.cfi_remember_state
 1250              		.cfi_restore 8
 1251              		.cfi_def_cfa 2, 16
 1252 0798 13010101 		addi	sp,sp,16
 1253              		.cfi_def_cfa_offset 0
 1254 079c 67800000 		jr	ra
 1255              	.L60:
 1256              		.cfi_restore_state
 427:src/kernel/Riscv.cpp **** }
 1257              		.loc 1 427 9 is_stmt 1
 1258              	.LVL124:
 1259              	.LBB80:
 1260              	.LBB81:
 207:src/kernel/../../h/Riscv.hpp **** }
 1261              		.loc 2 207 5
 207:src/kernel/../../h/Riscv.hpp **** }
 1262              		.loc 2 207 54 is_stmt 0
 1263 07a0 93070010 		li	a5,256
 1264              	#APP
 1265              	# 207 "src/kernel/../../h/Riscv.hpp" 1
 1266              		csrc sstatus, a5
 1267              	# 0 "" 2
 1268              	.LVL125:
 1269              	#NO_APP
 1270              	.LBE81:
 1271              	.LBE80:
 1272              		.loc 1 428 1
 1273 07a8 6FF0DFFE 		j	.L59
 1274              		.cfi_endproc
 1275              	.LFE41:
 1277              		.align	2
 1278              		.globl	_ZN5Riscv20handleSupervisorTrapEv
 1280              	_ZN5Riscv20handleSupervisorTrapEv:
 1281              	.LFB37:
 244:src/kernel/Riscv.cpp ****     __asm__ volatile("mv %0, a4" : "=r"(PCB::savedRegA4));
 1282              		.loc 1 244 1 is_stmt 1
 1283              		.cfi_startproc
 1284 07ac 130101F9 		addi	sp,sp,-112
 1285              		.cfi_def_cfa_offset 112
 1286 07b0 23341106 		sd	ra,104(sp)
 1287 07b4 23308106 		sd	s0,96(sp)
 1288 07b8 233C9104 		sd	s1,88(sp)
GAS LISTING /tmp/ccNP9Bns.s 			page 39


 1289              		.cfi_offset 1, -8
 1290              		.cfi_offset 8, -16
 1291              		.cfi_offset 9, -24
 1292 07bc 13040107 		addi	s0,sp,112
 1293              		.cfi_def_cfa 8, 0
 245:src/kernel/Riscv.cpp ****     __asm__ volatile("csrr %0, sscratch":"=r"(PCB::running->sscratch));
 1294              		.loc 1 245 5
 245:src/kernel/Riscv.cpp ****     __asm__ volatile("csrr %0, sscratch":"=r"(PCB::running->sscratch));
 1295              		.loc 1 245 58 is_stmt 0
 1296              	#APP
 1297              	# 245 "src/kernel/Riscv.cpp" 1
 1298              		mv a4, a4
 1299              	# 0 "" 2
 1300              	#NO_APP
 1301 07c4 97070000 		la	a5,_ZN3PCB10savedRegA4E
 1301      83B70700 
 1302 07cc 23B0E700 		sd	a4,0(a5)
 246:src/kernel/Riscv.cpp **** 
 1303              		.loc 1 246 5 is_stmt 1
 246:src/kernel/Riscv.cpp **** 
 1304              		.loc 1 246 61 is_stmt 0
 1305 07d0 97070000 		la	a5,_ZN3PCB7runningE
 1305      83B70700 
 1306 07d8 83B70700 		ld	a5,0(a5)
 246:src/kernel/Riscv.cpp **** 
 1307              		.loc 1 246 71
 1308              	#APP
 1309              	# 246 "src/kernel/Riscv.cpp" 1
 1310              		csrr a4, sscratch
 1311              	# 0 "" 2
 1312              	#NO_APP
 1313 07e0 23B8E700 		sd	a4,16(a5)
 248:src/kernel/Riscv.cpp **** 
 1314              		.loc 1 248 5 is_stmt 1
 1315              	.LBB82:
 1316              	.LBB83:
 128:src/kernel/../../h/Riscv.hpp ****     __asm__ volatile("csrr %0, scause" : "=r"(scause));
 1317              		.loc 2 128 5
 129:src/kernel/../../h/Riscv.hpp ****     return scause;
 1318              		.loc 2 129 5
 129:src/kernel/../../h/Riscv.hpp ****     return scause;
 1319              		.loc 2 129 55 is_stmt 0
 1320              	#APP
 1321              	# 129 "src/kernel/../../h/Riscv.hpp" 1
 1322              		csrr a5, scause
 1323              	# 0 "" 2
 1324              	#NO_APP
 1325 07e8 233CF4FA 		sd	a5,-72(s0)
 130:src/kernel/../../h/Riscv.hpp **** }
 1326              		.loc 2 130 5 is_stmt 1
 130:src/kernel/../../h/Riscv.hpp **** }
 1327              		.loc 2 130 12 is_stmt 0
 1328 07ec 833784FB 		ld	a5,-72(s0)
 1329              	.LVL126:
 1330              	.LBE83:
 1331              	.LBE82:
 250:src/kernel/Riscv.cpp ****     static const size_t loadPF = 13;
GAS LISTING /tmp/ccNP9Bns.s 			page 40


 1332              		.loc 1 250 5 is_stmt 1
 251:src/kernel/Riscv.cpp ****     static const size_t instrPF = 12;
 1333              		.loc 1 251 5
 252:src/kernel/Riscv.cpp **** 
 1334              		.loc 1 252 5
 254:src/kernel/Riscv.cpp ****     {
 1335              		.loc 1 254 5
 1336              	.LBB84:
 1337 07f0 1307F000 		li	a4,15
 1338 07f4 6368F702 		bgtu	a5,a4,.L64
 1339 07f8 13072000 		li	a4,2
 1340 07fc 63E8E710 		bltu	a5,a4,.L63
 1341 0800 1307F000 		li	a4,15
 1342 0804 6364F710 		bgtu	a5,a4,.L63
 1343 0808 93972700 		slli	a5,a5,2
 1344              	.LVL127:
 1345 080c 17070000 		lla	a4,.L67
 1345      13070700 
 1346 0814 B387E700 		add	a5,a5,a4
 1347 0818 83A70700 		lw	a5,0(a5)
 1348 081c B387E700 		add	a5,a5,a4
 1349 0820 67800700 		jr	a5
 1350              		.section	.rodata
 1351              		.align	2
 1352              		.align	2
 1353              	.L67:
 1354 0000 00000000 		.word	.L63-.L67
 1355 0004 00000000 		.word	.L63-.L67
 1356 0008 00000000 		.word	.L73-.L67
 1357 000c 00000000 		.word	.L63-.L67
 1358 0010 00000000 		.word	.L63-.L67
 1359 0014 00000000 		.word	.L72-.L67
 1360 0018 00000000 		.word	.L63-.L67
 1361 001c 00000000 		.word	.L71-.L67
 1362 0020 00000000 		.word	.L70-.L67
 1363 0024 00000000 		.word	.L70-.L67
 1364 0028 00000000 		.word	.L63-.L67
 1365 002c 00000000 		.word	.L63-.L67
 1366 0030 00000000 		.word	.L69-.L67
 1367 0034 00000000 		.word	.L68-.L67
 1368 0038 00000000 		.word	.L63-.L67
 1369 003c 00000000 		.word	.L66-.L67
 1370              		.text
 1371              	.LVL128:
 1372              	.L64:
 1373 0824 1307F0FF 		li	a4,-1
 1374 0828 1317F703 		slli	a4,a4,63
 1375 082c 13071700 		addi	a4,a4,1
 1376 0830 638AE704 		beq	a5,a4,.L74
 1377 0834 1307F0FF 		li	a4,-1
 1378 0838 1317F703 		slli	a4,a4,63
 1379 083c 13079700 		addi	a4,a4,9
 1380 0840 6396E70C 		bne	a5,a4,.L63
 1381              	.LBB85:
 298:src/kernel/Riscv.cpp ****         {
 1382              		.loc 1 298 9
 299:src/kernel/Riscv.cpp ****             KConsole::getCharactersFromConsole();
GAS LISTING /tmp/ccNP9Bns.s 			page 41


 1383              		.loc 1 299 9
 300:src/kernel/Riscv.cpp ****             plic_complete(plic_claim());
 1384              		.loc 1 300 13
 300:src/kernel/Riscv.cpp ****             plic_complete(plic_claim());
 1385              		.loc 1 300 47 is_stmt 0
 1386 0844 97000000 		call	_ZN8KConsole24getCharactersFromConsoleEv@plt
 1386      E7800000 
 1387              	.LVL129:
 301:src/kernel/Riscv.cpp ****             break;
 1388              		.loc 1 301 13 is_stmt 1
 301:src/kernel/Riscv.cpp ****             break;
 1389              		.loc 1 301 26 is_stmt 0
 1390 084c 97000000 		call	plic_claim@plt
 1390      E7800000 
 1391              	.LVL130:
 1392 0854 97000000 		call	plic_complete@plt
 1392      E7800000 
 1393              	.LVL131:
 302:src/kernel/Riscv.cpp ****         }
 1394              		.loc 1 302 13 is_stmt 1
 1395 085c 6F00000B 		j	.L63
 1396              	.L66:
 256:src/kernel/Riscv.cpp ****         {
 1397              		.loc 1 256 9
 257:src/kernel/Riscv.cpp ****             size_t addrPF = 0;
 1398              		.loc 1 257 9
 1399              	.LBB86:
 258:src/kernel/Riscv.cpp ****             __asm__ volatile("csrr %0, stval":"=r"(addrPF));
 1400              		.loc 1 258 13
 1401              	.LVL132:
 259:src/kernel/Riscv.cpp ****             addVirtualAddr(addrPF);
 1402              		.loc 1 259 13
 259:src/kernel/Riscv.cpp ****             addVirtualAddr(addrPF);
 1403              		.loc 1 259 60 is_stmt 0
 1404              	#APP
 1405              	# 259 "src/kernel/Riscv.cpp" 1
 1406              		csrr a0, stval
 1407              	# 0 "" 2
 1408              	.LVL133:
 260:src/kernel/Riscv.cpp ****         }
 1409              		.loc 1 260 13 is_stmt 1
 260:src/kernel/Riscv.cpp ****         }
 1410              		.loc 1 260 27 is_stmt 0
 1411              	#NO_APP
 1412 0864 97000000 		call	_ZN5Riscv14addVirtualAddrEm
 1412      E7800000 
 1413              	.LVL134:
 1414              	.L68:
 1415              	.LBE86:
 262:src/kernel/Riscv.cpp ****         {
 1416              		.loc 1 262 9 is_stmt 1
 263:src/kernel/Riscv.cpp ****             size_t addrPF = 0;
 1417              		.loc 1 263 9
 1418              	.LBB87:
 264:src/kernel/Riscv.cpp ****             __asm__ volatile("csrr %0, stval":"=r"(addrPF));
 1419              		.loc 1 264 13
 265:src/kernel/Riscv.cpp ****             addVirtualAddr(addrPF);
GAS LISTING /tmp/ccNP9Bns.s 			page 42


 1420              		.loc 1 265 13
 265:src/kernel/Riscv.cpp ****             addVirtualAddr(addrPF);
 1421              		.loc 1 265 60 is_stmt 0
 1422              	#APP
 1423              	# 265 "src/kernel/Riscv.cpp" 1
 1424              		csrr a0, stval
 1425              	# 0 "" 2
 1426              	.LVL135:
 266:src/kernel/Riscv.cpp ****         }
 1427              		.loc 1 266 13 is_stmt 1
 266:src/kernel/Riscv.cpp ****         }
 1428              		.loc 1 266 27 is_stmt 0
 1429              	#NO_APP
 1430 0870 97000000 		call	_ZN5Riscv14addVirtualAddrEm
 1430      E7800000 
 1431              	.LVL136:
 1432              	.L69:
 1433              	.LBE87:
 268:src/kernel/Riscv.cpp ****         {
 1434              		.loc 1 268 9 is_stmt 1
 269:src/kernel/Riscv.cpp ****             //KConsole::trapPrintString("instr PF\n");
 1435              		.loc 1 269 9
 1436              	.LBB88:
 271:src/kernel/Riscv.cpp ****             __asm__ volatile("csrr %0, stval":"=r"(addrPF));
 1437              		.loc 1 271 13
 272:src/kernel/Riscv.cpp ****             addVirtualAddrInstr(addrPF);
 1438              		.loc 1 272 13
 272:src/kernel/Riscv.cpp ****             addVirtualAddrInstr(addrPF);
 1439              		.loc 1 272 60 is_stmt 0
 1440              	#APP
 1441              	# 272 "src/kernel/Riscv.cpp" 1
 1442              		csrr a0, stval
 1443              	# 0 "" 2
 1444              	.LVL137:
 273:src/kernel/Riscv.cpp ****         }
 1445              		.loc 1 273 13 is_stmt 1
 273:src/kernel/Riscv.cpp ****         }
 1446              		.loc 1 273 32 is_stmt 0
 1447              	#NO_APP
 1448 087c 97000000 		call	_ZN5Riscv19addVirtualAddrInstrEm
 1448      E7800000 
 1449              	.LVL138:
 1450              	.L74:
 1451              	.LBE88:
 275:src/kernel/Riscv.cpp ****         {
 1452              		.loc 1 275 9 is_stmt 1
 276:src/kernel/Riscv.cpp ****             //KConsole::trapPrintString("timerInterrupt\n");
 1453              		.loc 1 276 9
 1454              	.LBB89:
 278:src/kernel/Riscv.cpp ****             uint64 volatile sstatus = Riscv::r_sstatus();
 1455              		.loc 1 278 13
 1456              	.LBB90:
 1457              	.LBB91:
 138:src/kernel/../../h/Riscv.hpp ****     __asm__ volatile("csrr %0, sepc" : "=r"(sepc));
 1458              		.loc 2 138 5
 139:src/kernel/../../h/Riscv.hpp ****     return sepc;
 1459              		.loc 2 139 5
GAS LISTING /tmp/ccNP9Bns.s 			page 43


 139:src/kernel/../../h/Riscv.hpp ****     return sepc;
 1460              		.loc 2 139 51 is_stmt 0
 1461              	#APP
 1462              	# 139 "src/kernel/../../h/Riscv.hpp" 1
 1463              		csrr a5, sepc
 1464              	# 0 "" 2
 1465              	#NO_APP
 1466 0888 2334F4FC 		sd	a5,-56(s0)
 140:src/kernel/../../h/Riscv.hpp **** }
 1467              		.loc 2 140 5 is_stmt 1
 140:src/kernel/../../h/Riscv.hpp **** }
 1468              		.loc 2 140 12 is_stmt 0
 1469 088c 833784FC 		ld	a5,-56(s0)
 1470              	.LBE91:
 1471              	.LBE90:
 278:src/kernel/Riscv.cpp ****             uint64 volatile sstatus = Riscv::r_sstatus();
 1472              		.loc 1 278 50
 1473 0890 233CF4F8 		sd	a5,-104(s0)
 279:src/kernel/Riscv.cpp ****             mc_sip(Riscv::SIP_SSIP);
 1474              		.loc 1 279 13 is_stmt 1
 1475              	.LBB92:
 1476              	.LBB93:
 209:src/kernel/../../h/Riscv.hpp **** 
 210:src/kernel/../../h/Riscv.hpp **** inline uint64 Riscv::r_sstatus() {
 211:src/kernel/../../h/Riscv.hpp ****     uint64 volatile sstatus;
 1477              		.loc 2 211 5
 212:src/kernel/../../h/Riscv.hpp ****     __asm__ volatile("csrr %0, sstatus" : "=r"(sstatus));
 1478              		.loc 2 212 5
 1479              		.loc 2 212 57 is_stmt 0
 1480              	#APP
 1481              	# 212 "src/kernel/../../h/Riscv.hpp" 1
 213              	    return sstatus;
 1482              		csrr a5, sstatus
 1483              	# 0 "" 2
 1484              	#NO_APP
 1485 0898 2330F4FC 		sd	a5,-64(s0)
 1486              		.loc 2 213 5 is_stmt 1
 1487              		.loc 2 213 12 is_stmt 0
 1488 089c 833704FC 		ld	a5,-64(s0)
 1489              	.LBE93:
 1490              	.LBE92:
 279:src/kernel/Riscv.cpp ****             mc_sip(Riscv::SIP_SSIP);
 1491              		.loc 1 279 56
 1492 08a0 2330F4FA 		sd	a5,-96(s0)
 280:src/kernel/Riscv.cpp ****             //static uint64 total = 0;
 1493              		.loc 1 280 13 is_stmt 1
 1494              	.LVL139:
 1495              	.LBB94:
 1496              	.LBB95:
 177:src/kernel/../../h/Riscv.hpp **** }
 1497              		.loc 2 177 5
 177:src/kernel/../../h/Riscv.hpp **** }
 1498              		.loc 2 177 50 is_stmt 0
 1499 08a4 93072000 		li	a5,2
 1500              	#APP
 1501              	# 177 "src/kernel/../../h/Riscv.hpp" 1
 1502              		csrc sip, a5
GAS LISTING /tmp/ccNP9Bns.s 			page 44


 1503              	# 0 "" 2
 1504              	.LVL140:
 1505              	#NO_APP
 1506              	.LBE95:
 1507              	.LBE94:
 282:src/kernel/Riscv.cpp ****             //KConsole::trapPrintInt(totalTime);
 1508              		.loc 1 282 13 is_stmt 1
 282:src/kernel/Riscv.cpp ****             //KConsole::trapPrintInt(totalTime);
 1509              		.loc 1 282 22 is_stmt 0
 1510 08ac 17070000 		lla	a4,.LANCHOR0
 1510      13070700 
 1511 08b4 83370703 		ld	a5,48(a4)
 1512 08b8 93871700 		addi	a5,a5,1
 1513 08bc 2338F702 		sd	a5,48(a4)
 285:src/kernel/Riscv.cpp ****             SleepPCBList::tryToWakePCBs();
 1514              		.loc 1 285 13 is_stmt 1
 285:src/kernel/Riscv.cpp ****             SleepPCBList::tryToWakePCBs();
 1515              		.loc 1 285 34 is_stmt 0
 1516 08c0 97040000 		la	s1,_ZN3PCB16timeSliceCounterE
 1516      83B40400 
 1517 08c8 83B70400 		ld	a5,0(s1)
 1518 08cc 93871700 		addi	a5,a5,1
 1519 08d0 23B0F400 		sd	a5,0(s1)
 286:src/kernel/Riscv.cpp ****             if (PCB::timeSliceCounter >= PCB::running->getTimeSlice())
 1520              		.loc 1 286 13 is_stmt 1
 286:src/kernel/Riscv.cpp ****             if (PCB::timeSliceCounter >= PCB::running->getTimeSlice())
 1521              		.loc 1 286 40 is_stmt 0
 1522 08d4 97000000 		call	_ZN12SleepPCBList13tryToWakePCBsEv@plt
 1522      E7800000 
 1523              	.LVL141:
 287:src/kernel/Riscv.cpp ****             {
 1524              		.loc 1 287 13 is_stmt 1
 287:src/kernel/Riscv.cpp ****             {
 1525              		.loc 1 287 68 is_stmt 0
 1526 08dc 97070000 		la	a5,_ZN3PCB7runningE
 1526      83B70700 
 1527 08e4 83B70700 		ld	a5,0(a5)
 1528              	.LVL142:
 1529              	.LBB96:
 1530              	.LBB97:
 1531              		.file 3 "src/kernel/../../h/PCB.hpp"
   1:src/kernel/../../h/PCB.hpp **** //
   2:src/kernel/../../h/PCB.hpp **** // Created by os on 4/27/22.
   3:src/kernel/../../h/PCB.hpp **** //
   4:src/kernel/../../h/PCB.hpp **** 
   5:src/kernel/../../h/PCB.hpp **** #ifndef PROJECT_BASE_V1_0_PCB_HPP
   6:src/kernel/../../h/PCB.hpp **** #define PROJECT_BASE_V1_0_PCB_HPP
   7:src/kernel/../../h/PCB.hpp **** 
   8:src/kernel/../../h/PCB.hpp **** #include "../lib/hw.h"
   9:src/kernel/../../h/PCB.hpp **** 
  10:src/kernel/../../h/PCB.hpp **** class PCB
  11:src/kernel/../../h/PCB.hpp **** {
  12:src/kernel/../../h/PCB.hpp **** private:
  13:src/kernel/../../h/PCB.hpp ****     static uint64 savedRegA4;
  14:src/kernel/../../h/PCB.hpp **** 
  15:src/kernel/../../h/PCB.hpp ****     using Body = void (*)(void*);
  16:src/kernel/../../h/PCB.hpp **** 
GAS LISTING /tmp/ccNP9Bns.s 			page 45


  17:src/kernel/../../h/PCB.hpp ****     PCB(Body body,  void* args, void* stack_space, uint64 timeSlice);
  18:src/kernel/../../h/PCB.hpp ****     ~PCB();
  19:src/kernel/../../h/PCB.hpp **** 
  20:src/kernel/../../h/PCB.hpp ****     void start();
  21:src/kernel/../../h/PCB.hpp ****     static void dispatch();
  22:src/kernel/../../h/PCB.hpp **** 
  23:src/kernel/../../h/PCB.hpp ****     static PCB* running;
  24:src/kernel/../../h/PCB.hpp **** 
  25:src/kernel/../../h/PCB.hpp ****     static uint64 timeSliceCounter;
  26:src/kernel/../../h/PCB.hpp ****     uint64 getTimeSlice() { return timeSlice;}
 1532              		.loc 3 26 29 is_stmt 1
 1533              		.loc 3 26 36 is_stmt 0
 1534 08e8 83B78701 		ld	a5,24(a5)
 1535              	.LVL143:
 1536              	.LBE97:
 1537              	.LBE96:
 287:src/kernel/Riscv.cpp ****             {
 1538              		.loc 1 287 39
 1539 08ec 03B70400 		ld	a4,0(s1)
 287:src/kernel/Riscv.cpp ****             {
 1540              		.loc 1 287 13
 1541 08f0 6378F702 		bgeu	a4,a5,.L96
 1542              	.L76:
 293:src/kernel/Riscv.cpp ****             Riscv::w_sepc(sepc);
 1543              		.loc 1 293 13 is_stmt 1
 293:src/kernel/Riscv.cpp ****             Riscv::w_sepc(sepc);
 1544              		.loc 1 293 29 is_stmt 0
 1545 08f4 833704FA 		ld	a5,-96(s0)
 1546              	.LVL144:
 1547              	.LBB98:
 1548              	.LBB99:
 214:src/kernel/../../h/Riscv.hpp **** }
 215:src/kernel/../../h/Riscv.hpp **** 
 216:src/kernel/../../h/Riscv.hpp **** inline void Riscv::w_sstatus(uint64 sstatus) {
 217:src/kernel/../../h/Riscv.hpp ****     __asm__ volatile("csrw sstatus, %0" : :"r"(sstatus));
 1549              		.loc 2 217 5 is_stmt 1
 1550              		.loc 2 217 57 is_stmt 0
 1551              	#APP
 1552              	# 217 "src/kernel/../../h/Riscv.hpp" 1
 218              	}
 1553              		csrw sstatus, a5
 1554              	# 0 "" 2
 1555              	.LVL145:
 1556              	#NO_APP
 1557              	.LBE99:
 1558              	.LBE98:
 294:src/kernel/Riscv.cpp ****             changePrivMode();
 1559              		.loc 1 294 13 is_stmt 1
 294:src/kernel/Riscv.cpp ****             changePrivMode();
 1560              		.loc 1 294 26 is_stmt 0
 1561 08fc 833784F9 		ld	a5,-104(s0)
 1562              	.LVL146:
 1563              	.LBB100:
 1564              	.LBB101:
 144:src/kernel/../../h/Riscv.hpp **** }
 1565              		.loc 2 144 5 is_stmt 1
 144:src/kernel/../../h/Riscv.hpp **** }
GAS LISTING /tmp/ccNP9Bns.s 			page 46


 1566              		.loc 2 144 51 is_stmt 0
 1567              	#APP
 1568              	# 144 "src/kernel/../../h/Riscv.hpp" 1
 1569              		csrw sepc, a5
 1570              	# 0 "" 2
 1571              	.LVL147:
 1572              	#NO_APP
 1573              	.LBE101:
 1574              	.LBE100:
 295:src/kernel/Riscv.cpp ****             break;
 1575              		.loc 1 295 13 is_stmt 1
 295:src/kernel/Riscv.cpp ****             break;
 1576              		.loc 1 295 27 is_stmt 0
 1577 0904 97000000 		call	_ZN5Riscv14changePrivModeEv
 1577      E7800000 
 1578              	.LVL148:
 296:src/kernel/Riscv.cpp ****         }
 1579              		.loc 1 296 13 is_stmt 1
 1580              	.L63:
 1581              	.LBE89:
 1582              	.LBE85:
 1583              	.LBE84:
 386:src/kernel/Riscv.cpp **** 
 1584              		.loc 1 386 1 is_stmt 0
 1585 090c 83308106 		ld	ra,104(sp)
 1586              		.cfi_remember_state
 1587              		.cfi_restore 1
 1588 0910 03340106 		ld	s0,96(sp)
 1589              		.cfi_restore 8
 1590              		.cfi_def_cfa 2, 112
 1591 0914 83348105 		ld	s1,88(sp)
 1592              		.cfi_restore 9
 1593 0918 13010107 		addi	sp,sp,112
 1594              		.cfi_def_cfa_offset 0
 1595 091c 67800000 		jr	ra
 1596              	.L96:
 1597              		.cfi_restore_state
 1598              	.LBB115:
 1599              	.LBB113:
 1600              	.LBB102:
 289:src/kernel/Riscv.cpp ****                 PCB::dispatch();
 1601              		.loc 1 289 17 is_stmt 1
 289:src/kernel/Riscv.cpp ****                 PCB::dispatch();
 1602              		.loc 1 289 39 is_stmt 0
 1603 0920 23B00400 		sd	zero,0(s1)
 290:src/kernel/Riscv.cpp ****             }
 1604              		.loc 1 290 17 is_stmt 1
 290:src/kernel/Riscv.cpp ****             }
 1605              		.loc 1 290 30 is_stmt 0
 1606 0924 97000000 		call	_ZN3PCB8dispatchEv@plt
 1606      E7800000 
 1607              	.LVL149:
 1608 092c 6FF09FFC 		j	.L76
 1609              	.L73:
 1610              	.LBE102:
 304:src/kernel/Riscv.cpp ****         {
 1611              		.loc 1 304 9 is_stmt 1
GAS LISTING /tmp/ccNP9Bns.s 			page 47


 305:src/kernel/Riscv.cpp ****             PCB::threadExitHandler();
 1612              		.loc 1 305 9
 306:src/kernel/Riscv.cpp ****             break;
 1613              		.loc 1 306 13
 306:src/kernel/Riscv.cpp ****             break;
 1614              		.loc 1 306 35 is_stmt 0
 1615 0930 97000000 		call	_ZN3PCB17threadExitHandlerEv@plt
 1615      E7800000 
 1616              	.LVL150:
 307:src/kernel/Riscv.cpp ****         }
 1617              		.loc 1 307 13 is_stmt 1
 1618 0938 6FF05FFD 		j	.L63
 1619              	.L72:
 309:src/kernel/Riscv.cpp ****         {
 1620              		.loc 1 309 9
 310:src/kernel/Riscv.cpp ****             PCB::threadExitHandler();
 1621              		.loc 1 310 9
 311:src/kernel/Riscv.cpp ****             break;
 1622              		.loc 1 311 13
 311:src/kernel/Riscv.cpp ****             break;
 1623              		.loc 1 311 35 is_stmt 0
 1624 093c 97000000 		call	_ZN3PCB17threadExitHandlerEv@plt
 1624      E7800000 
 1625              	.LVL151:
 312:src/kernel/Riscv.cpp ****         }
 1626              		.loc 1 312 13 is_stmt 1
 1627 0944 6FF09FFC 		j	.L63
 1628              	.L71:
 314:src/kernel/Riscv.cpp ****         {
 1629              		.loc 1 314 9
 315:src/kernel/Riscv.cpp ****             PCB::threadExitHandler();
 1630              		.loc 1 315 9
 316:src/kernel/Riscv.cpp ****             break;
 1631              		.loc 1 316 13
 316:src/kernel/Riscv.cpp ****             break;
 1632              		.loc 1 316 35 is_stmt 0
 1633 0948 97000000 		call	_ZN3PCB17threadExitHandlerEv@plt
 1633      E7800000 
 1634              	.LVL152:
 317:src/kernel/Riscv.cpp ****         }
 1635              		.loc 1 317 13 is_stmt 1
 1636 0950 6FF0DFFB 		j	.L63
 1637              	.L70:
 319:src/kernel/Riscv.cpp ****         case ecallUserInterrupt:
 1638              		.loc 1 319 9
 320:src/kernel/Riscv.cpp ****         {
 1639              		.loc 1 320 9
 321:src/kernel/Riscv.cpp ****             uint64 operation;
 1640              		.loc 1 321 9
 1641              	.LBB103:
 322:src/kernel/Riscv.cpp ****             __asm__ volatile("mv %0, a0" :  "=r"(operation));
 1642              		.loc 1 322 13
 323:src/kernel/Riscv.cpp **** 
 1643              		.loc 1 323 13
 323:src/kernel/Riscv.cpp **** 
 1644              		.loc 1 323 61 is_stmt 0
 1645              	#APP
GAS LISTING /tmp/ccNP9Bns.s 			page 48


 1646              	# 323 "src/kernel/Riscv.cpp" 1
 1647              		mv a5, a0
 1648              	# 0 "" 2
 1649              	.LVL153:
 325:src/kernel/Riscv.cpp ****             uint64 volatile sstatus = Riscv::r_sstatus();
 1650              		.loc 1 325 13 is_stmt 1
 1651              	#NO_APP
 1652              	.LBB104:
 1653              	.LBB105:
 138:src/kernel/../../h/Riscv.hpp ****     __asm__ volatile("csrr %0, sepc" : "=r"(sepc));
 1654              		.loc 2 138 5
 139:src/kernel/../../h/Riscv.hpp ****     return sepc;
 1655              		.loc 2 139 5
 139:src/kernel/../../h/Riscv.hpp ****     return sepc;
 1656              		.loc 2 139 51 is_stmt 0
 1657              	#APP
 1658              	# 139 "src/kernel/../../h/Riscv.hpp" 1
 1659              		csrr a4, sepc
 1660              	# 0 "" 2
 1661              	#NO_APP
 1662 095c 233CE4FC 		sd	a4,-40(s0)
 140:src/kernel/../../h/Riscv.hpp **** }
 1663              		.loc 2 140 5 is_stmt 1
 140:src/kernel/../../h/Riscv.hpp **** }
 1664              		.loc 2 140 12 is_stmt 0
 1665 0960 033784FD 		ld	a4,-40(s0)
 1666              	.LBE105:
 1667              	.LBE104:
 325:src/kernel/Riscv.cpp ****             uint64 volatile sstatus = Riscv::r_sstatus();
 1668              		.loc 1 325 52
 1669 0964 13074700 		addi	a4,a4,4
 325:src/kernel/Riscv.cpp ****             uint64 volatile sstatus = Riscv::r_sstatus();
 1670              		.loc 1 325 54
 1671 0968 2334E4FA 		sd	a4,-88(s0)
 326:src/kernel/Riscv.cpp **** 
 1672              		.loc 1 326 13 is_stmt 1
 1673              	.LBB106:
 1674              	.LBB107:
 211:src/kernel/../../h/Riscv.hpp ****     __asm__ volatile("csrr %0, sstatus" : "=r"(sstatus));
 1675              		.loc 2 211 5
 212:src/kernel/../../h/Riscv.hpp ****     return sstatus;
 1676              		.loc 2 212 5
 212:src/kernel/../../h/Riscv.hpp ****     return sstatus;
 1677              		.loc 2 212 57 is_stmt 0
 1678              	#APP
 1679              	# 212 "src/kernel/../../h/Riscv.hpp" 1
 1680              		csrr a4, sstatus
 1681              	# 0 "" 2
 1682              	#NO_APP
 1683 0970 2338E4FC 		sd	a4,-48(s0)
 213:src/kernel/../../h/Riscv.hpp **** }
 1684              		.loc 2 213 5 is_stmt 1
 213:src/kernel/../../h/Riscv.hpp **** }
 1685              		.loc 2 213 12 is_stmt 0
 1686 0974 033704FD 		ld	a4,-48(s0)
 1687              	.LBE107:
 1688              	.LBE106:
GAS LISTING /tmp/ccNP9Bns.s 			page 49


 326:src/kernel/Riscv.cpp **** 
 1689              		.loc 1 326 56
 1690 0978 2338E4FA 		sd	a4,-80(s0)
 328:src/kernel/Riscv.cpp ****             {
 1691              		.loc 1 328 13 is_stmt 1
 1692 097c 13073004 		li	a4,67
 1693 0980 6364F702 		bgtu	a5,a4,.L77
 1694 0984 93972700 		slli	a5,a5,2
 1695              	.LVL154:
 1696 0988 17070000 		lla	a4,.L79
 1696      13070700 
 1697 0990 B387E700 		add	a5,a5,a4
 1698 0994 83A70700 		lw	a5,0(a5)
 1699 0998 B387E700 		add	a5,a5,a4
 1700 099c 67800700 		jr	a5
 1701              		.section	.rodata
 1702              		.align	2
 1703              		.align	2
 1704              	.L79:
 1705 0040 00000000 		.word	.L77-.L79
 1706 0044 00000000 		.word	.L94-.L79
 1707 0048 00000000 		.word	.L93-.L79
 1708 004c 00000000 		.word	.L77-.L79
 1709 0050 00000000 		.word	.L77-.L79
 1710 0054 00000000 		.word	.L77-.L79
 1711 0058 00000000 		.word	.L77-.L79
 1712 005c 00000000 		.word	.L77-.L79
 1713 0060 00000000 		.word	.L77-.L79
 1714 0064 00000000 		.word	.L77-.L79
 1715 0068 00000000 		.word	.L77-.L79
 1716 006c 00000000 		.word	.L77-.L79
 1717 0070 00000000 		.word	.L77-.L79
 1718 0074 00000000 		.word	.L77-.L79
 1719 0078 00000000 		.word	.L77-.L79
 1720 007c 00000000 		.word	.L77-.L79
 1721 0080 00000000 		.word	.L77-.L79
 1722 0084 00000000 		.word	.L92-.L79
 1723 0088 00000000 		.word	.L91-.L79
 1724 008c 00000000 		.word	.L90-.L79
 1725 0090 00000000 		.word	.L89-.L79
 1726 0094 00000000 		.word	.L88-.L79
 1727 0098 00000000 		.word	.L87-.L79
 1728 009c 00000000 		.word	.L77-.L79
 1729 00a0 00000000 		.word	.L77-.L79
 1730 00a4 00000000 		.word	.L77-.L79
 1731 00a8 00000000 		.word	.L77-.L79
 1732 00ac 00000000 		.word	.L77-.L79
 1733 00b0 00000000 		.word	.L77-.L79
 1734 00b4 00000000 		.word	.L77-.L79
 1735 00b8 00000000 		.word	.L77-.L79
 1736 00bc 00000000 		.word	.L77-.L79
 1737 00c0 00000000 		.word	.L77-.L79
 1738 00c4 00000000 		.word	.L86-.L79
 1739 00c8 00000000 		.word	.L85-.L79
 1740 00cc 00000000 		.word	.L84-.L79
 1741 00d0 00000000 		.word	.L83-.L79
 1742 00d4 00000000 		.word	.L77-.L79
GAS LISTING /tmp/ccNP9Bns.s 			page 50


 1743 00d8 00000000 		.word	.L77-.L79
 1744 00dc 00000000 		.word	.L77-.L79
 1745 00e0 00000000 		.word	.L77-.L79
 1746 00e4 00000000 		.word	.L77-.L79
 1747 00e8 00000000 		.word	.L77-.L79
 1748 00ec 00000000 		.word	.L77-.L79
 1749 00f0 00000000 		.word	.L77-.L79
 1750 00f4 00000000 		.word	.L77-.L79
 1751 00f8 00000000 		.word	.L77-.L79
 1752 00fc 00000000 		.word	.L77-.L79
 1753 0100 00000000 		.word	.L77-.L79
 1754 0104 00000000 		.word	.L82-.L79
 1755 0108 00000000 		.word	.L77-.L79
 1756 010c 00000000 		.word	.L77-.L79
 1757 0110 00000000 		.word	.L77-.L79
 1758 0114 00000000 		.word	.L77-.L79
 1759 0118 00000000 		.word	.L77-.L79
 1760 011c 00000000 		.word	.L77-.L79
 1761 0120 00000000 		.word	.L77-.L79
 1762 0124 00000000 		.word	.L77-.L79
 1763 0128 00000000 		.word	.L77-.L79
 1764 012c 00000000 		.word	.L77-.L79
 1765 0130 00000000 		.word	.L77-.L79
 1766 0134 00000000 		.word	.L77-.L79
 1767 0138 00000000 		.word	.L77-.L79
 1768 013c 00000000 		.word	.L77-.L79
 1769 0140 00000000 		.word	.L77-.L79
 1770 0144 00000000 		.word	.L81-.L79
 1771 0148 00000000 		.word	.L80-.L79
 1772 014c 00000000 		.word	.L78-.L79
 1773              		.text
 1774              	.L94:
 330:src/kernel/Riscv.cpp ****                     MemoryAllocator::memAllocHandler();
 1775              		.loc 1 330 17
 331:src/kernel/Riscv.cpp ****                     break;
 1776              		.loc 1 331 21
 331:src/kernel/Riscv.cpp ****                     break;
 1777              		.loc 1 331 53 is_stmt 0
 1778 09a0 97000000 		call	_ZN15MemoryAllocator15memAllocHandlerEv@plt
 1778      E7800000 
 1779              	.LVL155:
 332:src/kernel/Riscv.cpp ****                 case MemoryAllocator::MEM_FREE:
 1780              		.loc 1 332 21 is_stmt 1
 1781              	.L77:
 380:src/kernel/Riscv.cpp ****             Riscv::w_sepc(sepc);
 1782              		.loc 1 380 13
 380:src/kernel/Riscv.cpp ****             Riscv::w_sepc(sepc);
 1783              		.loc 1 380 29 is_stmt 0
 1784 09a8 833704FB 		ld	a5,-80(s0)
 1785              	.LVL156:
 1786              	.LBB108:
 1787              	.LBB109:
 217:src/kernel/../../h/Riscv.hpp **** }
 1788              		.loc 2 217 5 is_stmt 1
 217:src/kernel/../../h/Riscv.hpp **** }
 1789              		.loc 2 217 57 is_stmt 0
 1790              	#APP
GAS LISTING /tmp/ccNP9Bns.s 			page 51


 1791              	# 217 "src/kernel/../../h/Riscv.hpp" 1
 1792              		csrw sstatus, a5
 1793              	# 0 "" 2
 1794              	.LVL157:
 1795              	#NO_APP
 1796              	.LBE109:
 1797              	.LBE108:
 381:src/kernel/Riscv.cpp ****             changePrivMode();
 1798              		.loc 1 381 13 is_stmt 1
 381:src/kernel/Riscv.cpp ****             changePrivMode();
 1799              		.loc 1 381 26 is_stmt 0
 1800 09b0 833784FA 		ld	a5,-88(s0)
 1801              	.LVL158:
 1802              	.LBB110:
 1803              	.LBB111:
 144:src/kernel/../../h/Riscv.hpp **** }
 1804              		.loc 2 144 5 is_stmt 1
 144:src/kernel/../../h/Riscv.hpp **** }
 1805              		.loc 2 144 51 is_stmt 0
 1806              	#APP
 1807              	# 144 "src/kernel/../../h/Riscv.hpp" 1
 1808              		csrw sepc, a5
 1809              	# 0 "" 2
 1810              	.LVL159:
 1811              	#NO_APP
 1812              	.LBE111:
 1813              	.LBE110:
 382:src/kernel/Riscv.cpp ****             break;
 1814              		.loc 1 382 13 is_stmt 1
 382:src/kernel/Riscv.cpp ****             break;
 1815              		.loc 1 382 27 is_stmt 0
 1816 09b8 97000000 		call	_ZN5Riscv14changePrivModeEv
 1816      E7800000 
 1817              	.LVL160:
 383:src/kernel/Riscv.cpp ****         }
 1818              		.loc 1 383 13 is_stmt 1
 1819              	.LBE103:
 1820              	.LBE113:
 1821              	.LBE115:
 386:src/kernel/Riscv.cpp **** 
 1822              		.loc 1 386 1 is_stmt 0
 1823 09c0 6FF0DFF4 		j	.L63
 1824              	.L93:
 1825              	.LBB116:
 1826              	.LBB114:
 1827              	.LBB112:
 333:src/kernel/Riscv.cpp ****                     MemoryAllocator::memFreeHandler();
 1828              		.loc 1 333 17 is_stmt 1
 334:src/kernel/Riscv.cpp ****                     break;
 1829              		.loc 1 334 21
 334:src/kernel/Riscv.cpp ****                     break;
 1830              		.loc 1 334 52 is_stmt 0
 1831 09c4 97000000 		call	_ZN15MemoryAllocator14memFreeHandlerEv@plt
 1831      E7800000 
 1832              	.LVL161:
 335:src/kernel/Riscv.cpp ****                 case PCB::THREAD_MAKE_PCB:
 1833              		.loc 1 335 21 is_stmt 1
GAS LISTING /tmp/ccNP9Bns.s 			page 52


 1834 09cc 6FF0DFFD 		j	.L77
 1835              	.L89:
 336:src/kernel/Riscv.cpp ****                     PCB::threadMakePCBHandler();
 1836              		.loc 1 336 17
 337:src/kernel/Riscv.cpp ****                     break;
 1837              		.loc 1 337 21
 337:src/kernel/Riscv.cpp ****                     break;
 1838              		.loc 1 337 46 is_stmt 0
 1839 09d0 97000000 		call	_ZN3PCB20threadMakePCBHandlerEv@plt
 1839      E7800000 
 1840              	.LVL162:
 338:src/kernel/Riscv.cpp ****                 case PCB::THREAD_CREATE:
 1841              		.loc 1 338 21 is_stmt 1
 1842 09d8 6FF01FFD 		j	.L77
 1843              	.L92:
 339:src/kernel/Riscv.cpp ****                     PCB::threadCreateHandler();
 1844              		.loc 1 339 17
 340:src/kernel/Riscv.cpp ****                     break;
 1845              		.loc 1 340 21
 340:src/kernel/Riscv.cpp ****                     break;
 1846              		.loc 1 340 45 is_stmt 0
 1847 09dc 97000000 		call	_ZN3PCB19threadCreateHandlerEv@plt
 1847      E7800000 
 1848              	.LVL163:
 341:src/kernel/Riscv.cpp ****                 case PCB::THREAD_START:
 1849              		.loc 1 341 21 is_stmt 1
 1850 09e4 6FF05FFC 		j	.L77
 1851              	.L88:
 342:src/kernel/Riscv.cpp ****                     PCB::threadStartHandler();
 1852              		.loc 1 342 17
 343:src/kernel/Riscv.cpp ****                     break;
 1853              		.loc 1 343 21
 343:src/kernel/Riscv.cpp ****                     break;
 1854              		.loc 1 343 44 is_stmt 0
 1855 09e8 97000000 		call	_ZN3PCB18threadStartHandlerEv@plt
 1855      E7800000 
 1856              	.LVL164:
 344:src/kernel/Riscv.cpp ****                 case PCB::THREAD_DISPATCH:
 1857              		.loc 1 344 21 is_stmt 1
 1858 09f0 6FF09FFB 		j	.L77
 1859              	.L90:
 345:src/kernel/Riscv.cpp ****                     PCB::threadDispatchHandler();
 1860              		.loc 1 345 17
 346:src/kernel/Riscv.cpp ****                     break;
 1861              		.loc 1 346 21
 346:src/kernel/Riscv.cpp ****                     break;
 1862              		.loc 1 346 47 is_stmt 0
 1863 09f4 97000000 		call	_ZN3PCB21threadDispatchHandlerEv@plt
 1863      E7800000 
 1864              	.LVL165:
 347:src/kernel/Riscv.cpp ****                 case PCB::THREAD_EXIT:
 1865              		.loc 1 347 21 is_stmt 1
 1866 09fc 6FF0DFFA 		j	.L77
 1867              	.L91:
 348:src/kernel/Riscv.cpp ****                     PCB::threadExitHandler();
 1868              		.loc 1 348 17
 349:src/kernel/Riscv.cpp ****                     break;
GAS LISTING /tmp/ccNP9Bns.s 			page 53


 1869              		.loc 1 349 21
 349:src/kernel/Riscv.cpp ****                     break;
 1870              		.loc 1 349 43 is_stmt 0
 1871 0a00 97000000 		call	_ZN3PCB17threadExitHandlerEv@plt
 1871      E7800000 
 1872              	.LVL166:
 350:src/kernel/Riscv.cpp ****                 case PCB::TIME_SLEEP:
 1873              		.loc 1 350 21 is_stmt 1
 1874 0a08 6FF01FFA 		j	.L77
 1875              	.L82:
 351:src/kernel/Riscv.cpp ****                     PCB::threadSleepHandler();
 1876              		.loc 1 351 17
 352:src/kernel/Riscv.cpp ****                     break;
 1877              		.loc 1 352 21
 352:src/kernel/Riscv.cpp ****                     break;
 1878              		.loc 1 352 44 is_stmt 0
 1879 0a0c 97000000 		call	_ZN3PCB18threadSleepHandlerEv@plt
 1879      E7800000 
 1880              	.LVL167:
 353:src/kernel/Riscv.cpp ****                 case PCB::THREAD_DEL_PCB:
 1881              		.loc 1 353 21 is_stmt 1
 1882 0a14 6FF05FF9 		j	.L77
 1883              	.L87:
 354:src/kernel/Riscv.cpp ****                      PCB::threadDelPCBHandler();
 1884              		.loc 1 354 17
 355:src/kernel/Riscv.cpp ****                      break;
 1885              		.loc 1 355 22
 355:src/kernel/Riscv.cpp ****                      break;
 1886              		.loc 1 355 46 is_stmt 0
 1887 0a18 97000000 		call	_ZN3PCB19threadDelPCBHandlerEv@plt
 1887      E7800000 
 1888              	.LVL168:
 356:src/kernel/Riscv.cpp ****                 case KSemaphore::SEM_OPEN:
 1889              		.loc 1 356 22 is_stmt 1
 1890 0a20 6FF09FF8 		j	.L77
 1891              	.L86:
 357:src/kernel/Riscv.cpp ****                     KSemaphore::semOpenHandler();
 1892              		.loc 1 357 17
 358:src/kernel/Riscv.cpp ****                     break;
 1893              		.loc 1 358 21
 358:src/kernel/Riscv.cpp ****                     break;
 1894              		.loc 1 358 47 is_stmt 0
 1895 0a24 97000000 		call	_ZN10KSemaphore14semOpenHandlerEv@plt
 1895      E7800000 
 1896              	.LVL169:
 359:src/kernel/Riscv.cpp ****                 case KSemaphore::SEM_WAIT:
 1897              		.loc 1 359 21 is_stmt 1
 1898 0a2c 6FF0DFF7 		j	.L77
 1899              	.L84:
 360:src/kernel/Riscv.cpp ****                     KSemaphore::semWaitHandler();
 1900              		.loc 1 360 17
 361:src/kernel/Riscv.cpp ****                     break;
 1901              		.loc 1 361 21
 361:src/kernel/Riscv.cpp ****                     break;
 1902              		.loc 1 361 47 is_stmt 0
 1903 0a30 97000000 		call	_ZN10KSemaphore14semWaitHandlerEv@plt
 1903      E7800000 
GAS LISTING /tmp/ccNP9Bns.s 			page 54


 1904              	.LVL170:
 362:src/kernel/Riscv.cpp ****                 case KSemaphore::SEM_SIGNAL:
 1905              		.loc 1 362 21 is_stmt 1
 1906 0a38 6FF01FF7 		j	.L77
 1907              	.L83:
 363:src/kernel/Riscv.cpp ****                     KSemaphore::semSignalHandler();
 1908              		.loc 1 363 17
 364:src/kernel/Riscv.cpp ****                     break;
 1909              		.loc 1 364 21
 364:src/kernel/Riscv.cpp ****                     break;
 1910              		.loc 1 364 49 is_stmt 0
 1911 0a3c 97000000 		call	_ZN10KSemaphore16semSignalHandlerEv@plt
 1911      E7800000 
 1912              	.LVL171:
 365:src/kernel/Riscv.cpp ****                 case KSemaphore::SEM_CLOSE:
 1913              		.loc 1 365 21 is_stmt 1
 1914 0a44 6FF05FF6 		j	.L77
 1915              	.L85:
 366:src/kernel/Riscv.cpp ****                     KSemaphore::semCloseHandler();
 1916              		.loc 1 366 17
 367:src/kernel/Riscv.cpp ****                     break;
 1917              		.loc 1 367 21
 367:src/kernel/Riscv.cpp ****                     break;
 1918              		.loc 1 367 48 is_stmt 0
 1919 0a48 97000000 		call	_ZN10KSemaphore15semCloseHandlerEv@plt
 1919      E7800000 
 1920              	.LVL172:
 368:src/kernel/Riscv.cpp ****                 case KConsole::CONSOLE_GETC:
 1921              		.loc 1 368 21 is_stmt 1
 1922 0a50 6FF09FF5 		j	.L77
 1923              	.L81:
 369:src/kernel/Riscv.cpp ****                     KConsole::getcHandler();
 1924              		.loc 1 369 17
 370:src/kernel/Riscv.cpp ****                     break;
 1925              		.loc 1 370 21
 370:src/kernel/Riscv.cpp ****                     break;
 1926              		.loc 1 370 42 is_stmt 0
 1927 0a54 97000000 		call	_ZN8KConsole11getcHandlerEv@plt
 1927      E7800000 
 1928              	.LVL173:
 371:src/kernel/Riscv.cpp ****                 case KConsole::CONSOLE_PUTC:
 1929              		.loc 1 371 21 is_stmt 1
 1930 0a5c 6FF0DFF4 		j	.L77
 1931              	.L80:
 372:src/kernel/Riscv.cpp ****                     KConsole::putcHandler();
 1932              		.loc 1 372 17
 373:src/kernel/Riscv.cpp ****                     break;
 1933              		.loc 1 373 21
 373:src/kernel/Riscv.cpp ****                     break;
 1934              		.loc 1 373 42 is_stmt 0
 1935 0a60 97000000 		call	_ZN8KConsole11putcHandlerEv@plt
 1935      E7800000 
 1936              	.LVL174:
 374:src/kernel/Riscv.cpp ****                 case KConsole::CONSOLE_GET_CHAR:
 1937              		.loc 1 374 21 is_stmt 1
 1938 0a68 6FF01FF4 		j	.L77
 1939              	.L78:
GAS LISTING /tmp/ccNP9Bns.s 			page 55


 375:src/kernel/Riscv.cpp ****                     KConsole::getCharHandler();
 1940              		.loc 1 375 17
 376:src/kernel/Riscv.cpp ****                     break;
 1941              		.loc 1 376 21
 376:src/kernel/Riscv.cpp ****                     break;
 1942              		.loc 1 376 45 is_stmt 0
 1943 0a6c 97000000 		call	_ZN8KConsole14getCharHandlerEv@plt
 1943      E7800000 
 1944              	.LVL175:
 377:src/kernel/Riscv.cpp ****             }
 1945              		.loc 1 377 21 is_stmt 1
 1946 0a74 6FF05FF3 		j	.L77
 1947              	.LBE112:
 1948              	.LBE114:
 1949              	.LBE116:
 1950              		.cfi_endproc
 1951              	.LFE37:
 1953              		.globl	_ZN5Riscv10riscvBuddyE
 1954              		.globl	_ZN5Riscv7mainPMTE
 1955              		.globl	_ZN5Riscv14semaphoreCacheE
 1956              		.globl	_ZN5Riscv8pcbCacheE
 1957              		.globl	_ZN5Riscv16kernelMainCalledE
 1958              		.globl	_ZN5Riscv12finishSystemE
 1959              		.globl	_ZN5Riscv9totalTimeE
 1960              		.bss
 1961              		.align	3
 1962              		.set	.LANCHOR0,. + 0
 1965              	_ZN5Riscv12finishSystemE:
 1966 0000 00       		.zero	1
 1967 0001 00000000 		.zero	7
 1967      000000
 1970              	_ZN5Riscv7mainPMTE:
 1971 0008 00000000 		.zero	8
 1971      00000000 
 1974              	_ZN5Riscv10riscvBuddyE:
 1975 0010 00000000 		.zero	8
 1975      00000000 
 1978              	_ZN5Riscv8pcbCacheE:
 1979 0018 00000000 		.zero	8
 1979      00000000 
 1982              	_ZN5Riscv14semaphoreCacheE:
 1983 0020 00000000 		.zero	8
 1983      00000000 
 1986              	_ZN5Riscv16kernelMainCalledE:
 1987 0028 00       		.zero	1
 1988 0029 00000000 		.zero	7
 1988      000000
 1991              	_ZN5Riscv9totalTimeE:
 1992 0030 00000000 		.zero	8
 1992      00000000 
 1993              		.text
 1994              	.Letext0:
 1995              		.file 4 "src/kernel/../../h/../lib/hw.h"
 1996              		.file 5 "src/kernel/../../h/slabAllocator.hpp"
 1997              		.file 6 "src/kernel/../../h/MemoryAllocator.hpp"
 1998              		.file 7 "src/kernel/../../h/SleepPCBList.hpp"
 1999              		.file 8 "src/kernel/../../h/KSemaphore.hpp"
GAS LISTING /tmp/ccNP9Bns.s 			page 56


 2000              		.file 9 "src/kernel/../../h/KConsole.hpp"
 2001              		.file 10 "src/kernel/../../h/Scheduler.hpp"
 2002              		.file 11 "src/kernel/../../h/buddyAllocator.hpp"
 2003              		.file 12 "src/kernel/../../h/slabTests.hpp"
 2004              		.file 13 "src/kernel/../../h/syscall_c_kernel.hpp"
GAS LISTING /tmp/ccNP9Bns.s 			page 57

