GAS LISTING /tmp/ccHEGcEd.s 			page 1


   1              		.file	"Riscv.cpp"
   2              		.option pic
   3              		.option norelax
   4              		.text
   5              	.Ltext0:
   6              		.align	2
   7              		.globl	_ZN5Riscv17initVirtualMemoryEv
   9              	_ZN5Riscv17initVirtualMemoryEv:
  10              	.LFB27:
  11              		.file 1 "src/kernel/Riscv.cpp"
   1:src/kernel/Riscv.cpp **** //
   2:src/kernel/Riscv.cpp **** // Created by os on 4/27/22.
   3:src/kernel/Riscv.cpp **** //
   4:src/kernel/Riscv.cpp **** 
   5:src/kernel/Riscv.cpp **** #include "../../h/Riscv.hpp"
   6:src/kernel/Riscv.cpp **** #include "../../h/MemoryAllocator.hpp"
   7:src/kernel/Riscv.cpp **** #include "../../h/PCB.hpp"
   8:src/kernel/Riscv.cpp **** #include "../../h/syscall_cpp.hpp"
   9:src/kernel/Riscv.cpp **** #include "../../h/SleepPCBList.hpp"
  10:src/kernel/Riscv.cpp **** #include "../../h/KConsole.hpp"
  11:src/kernel/Riscv.cpp **** #include "../../h/Scheduler.hpp"
  12:src/kernel/Riscv.cpp **** #include "../../h/buddyTests.hpp"
  13:src/kernel/Riscv.cpp **** #include "../../h/slabTests.hpp"
  14:src/kernel/Riscv.cpp **** #include "../../h/PCBWrapperUser.hpp"
  15:src/kernel/Riscv.cpp **** #include "../../h/syscall_c_kernel.hpp"
  16:src/kernel/Riscv.cpp **** 
  17:src/kernel/Riscv.cpp **** #define USER_RX 0x1b
  18:src/kernel/Riscv.cpp **** #define USER_RW 0x17
  19:src/kernel/Riscv.cpp **** #define KERNEL_RX 0xb
  20:src/kernel/Riscv.cpp **** #define KERNEL_RW 0x7
  21:src/kernel/Riscv.cpp **** #define VMEM_V_BIT 0x1
  22:src/kernel/Riscv.cpp **** #define NUM_OF_ENTRIES 512
  23:src/kernel/Riscv.cpp **** 
  24:src/kernel/Riscv.cpp **** uint64 Riscv::totalTime = 0;
  25:src/kernel/Riscv.cpp **** bool Riscv::finishSystem = false;
  26:src/kernel/Riscv.cpp **** bool Riscv::kernelMainCalled = false;
  27:src/kernel/Riscv.cpp **** kmem_cache_t * Riscv::pcbCache = nullptr;
  28:src/kernel/Riscv.cpp **** kmem_cache_t * Riscv::semaphoreCache = nullptr;
  29:src/kernel/Riscv.cpp **** void* Riscv::mainPMT = nullptr;
  30:src/kernel/Riscv.cpp **** size_t Riscv::programStartAddr = 0x80000000;
  31:src/kernel/Riscv.cpp **** extern char *userTextStart;
  32:src/kernel/Riscv.cpp **** extern char *userDataStart;
  33:src/kernel/Riscv.cpp **** extern char *kernelTextStart;
  34:src/kernel/Riscv.cpp **** extern char *kernelDataStart;
  35:src/kernel/Riscv.cpp **** 
  36:src/kernel/Riscv.cpp **** void Riscv::initVirtualMemory()
  37:src/kernel/Riscv.cpp **** {
  12              		.loc 1 37 1
  13              		.cfi_startproc
  14 0000 130101FF 		addi	sp,sp,-16
  15              		.cfi_def_cfa_offset 16
  16 0004 23348100 		sd	s0,8(sp)
  17              		.cfi_offset 8, -8
  18 0008 13040101 		addi	s0,sp,16
  19              		.cfi_def_cfa 8, 0
  38:src/kernel/Riscv.cpp ****     //size_t addr = (size_t)getNextBlockAddr((size_t)HEAP_START_ADDR);
  39:src/kernel/Riscv.cpp **** 
GAS LISTING /tmp/ccHEGcEd.s 			page 2


  40:src/kernel/Riscv.cpp ****     //size_t pmtSize = (1 << 9);
  41:src/kernel/Riscv.cpp ****     //size_t descSize = 64;
  42:src/kernel/Riscv.cpp ****     //size_t
  43:src/kernel/Riscv.cpp **** }
  20              		.loc 1 43 1 is_stmt 0
  21 000c 03348100 		ld	s0,8(sp)
  22              		.cfi_restore 8
  23              		.cfi_def_cfa 2, 16
  24 0010 13010101 		addi	sp,sp,16
  25              		.cfi_def_cfa_offset 0
  26 0014 67800000 		jr	ra
  27              		.cfi_endproc
  28              	.LFE27:
  30              		.align	2
  31              		.globl	_ZN5Riscv16enableInterruptsEv
  33              	_ZN5Riscv16enableInterruptsEv:
  34              	.LFB32:
  44:src/kernel/Riscv.cpp **** 
  45:src/kernel/Riscv.cpp **** void Riscv::setVirtualAddrRange(size_t startAddr, size_t endAddr, int permission)
  46:src/kernel/Riscv.cpp **** {
  47:src/kernel/Riscv.cpp ****     for(size_t i = startAddr; i < endAddr; i+=BLOCK_NUM_OF_BYTES)
  48:src/kernel/Riscv.cpp ****     {
  49:src/kernel/Riscv.cpp ****         setVirtualAddr(i, VMEM_V_BIT, permission);
  50:src/kernel/Riscv.cpp ****     }
  51:src/kernel/Riscv.cpp **** 
  52:src/kernel/Riscv.cpp **** }
  53:src/kernel/Riscv.cpp **** void Riscv::initSystem()
  54:src/kernel/Riscv.cpp **** {
  55:src/kernel/Riscv.cpp ****     w_stvec((uint64)&Riscv::supervisorTrap);
  56:src/kernel/Riscv.cpp **** 
  57:src/kernel/Riscv.cpp ****     size_t heapStartBlock = getBlockAddr((size_t)HEAP_START_ADDR);
  58:src/kernel/Riscv.cpp **** 
  59:src/kernel/Riscv.cpp ****     size_t numOfBlocks = 4096 + 1;
  60:src/kernel/Riscv.cpp **** 
  61:src/kernel/Riscv.cpp ****     void* newStartAddr = (void*)(heapStartBlock + numOfBlocks*BLOCK_NUM_OF_BYTES);
  62:src/kernel/Riscv.cpp ****     MemoryAllocator::initMemory(newStartAddr);
  63:src/kernel/Riscv.cpp **** 
  64:src/kernel/Riscv.cpp ****     kmem_init((void*)HEAP_START_ADDR, numOfBlocks);
  65:src/kernel/Riscv.cpp ****     pcbCache = kmem_cache_create("Cache of PCBs", sizeof(PCB), nullptr, nullptr);
  66:src/kernel/Riscv.cpp ****     semaphoreCache = kmem_cache_create("Cache of KSemaphore", sizeof(KSemaphore), nullptr, nullptr)
  67:src/kernel/Riscv.cpp **** 
  68:src/kernel/Riscv.cpp ****     PCB::initialize();
  69:src/kernel/Riscv.cpp ****     KConsole::initialize();
  70:src/kernel/Riscv.cpp **** 
  71:src/kernel/Riscv.cpp ****     mainPMT = buddy_alloc(1);
  72:src/kernel/Riscv.cpp ****     for(size_t i = 0; i < NUM_OF_ENTRIES;i++)
  73:src/kernel/Riscv.cpp ****         ((size_t*)mainPMT)[i] = 0;
  74:src/kernel/Riscv.cpp **** 
  75:src/kernel/Riscv.cpp ****     KConsole::trapPrintStringInt("main PMT ", (size_t)mainPMT,16);
  76:src/kernel/Riscv.cpp **** 
  77:src/kernel/Riscv.cpp ****     uint64 kTextStart = (uint64)(&kernelTextStart);
  78:src/kernel/Riscv.cpp ****     uint64 kDataStart = (uint64)(&kernelDataStart);
  79:src/kernel/Riscv.cpp ****     uint64 uTextStart = (uint64)(&userTextStart);
  80:src/kernel/Riscv.cpp ****     uint64 uDataStart = (uint64)(&userDataStart);
  81:src/kernel/Riscv.cpp **** 
  82:src/kernel/Riscv.cpp ****     setVirtualAddrRange(programStartAddr, kTextStart, KERNEL_RX); // before kernel instructions
  83:src/kernel/Riscv.cpp ****     setVirtualAddrRange(kTextStart, kDataStart,KERNEL_RX); // kernel instructions
GAS LISTING /tmp/ccHEGcEd.s 			page 3


  84:src/kernel/Riscv.cpp ****     setVirtualAddrRange((size_t)(&kernelDataStart), uTextStart, KERNEL_RW); // kernel data
  85:src/kernel/Riscv.cpp ****     setVirtualAddrRange((size_t)(&userTextStart), uDataStart, USER_RX); //user instructions
  86:src/kernel/Riscv.cpp ****     setVirtualAddrRange((size_t)(&userDataStart), (size_t)HEAP_START_ADDR, USER_RW); // user data
  87:src/kernel/Riscv.cpp ****     setVirtualAddrRange((size_t)HEAP_START_ADDR, (size_t)newStartAddr, KERNEL_RW); // kernel heap d
  88:src/kernel/Riscv.cpp ****     setVirtualAddrRange((size_t)newStartAddr, (size_t)HEAP_END_ADDR + 1,USER_RW); // user heap data
  89:src/kernel/Riscv.cpp **** 
  90:src/kernel/Riscv.cpp ****     setVirtualAddr((size_t)CONSOLE_RX_DATA,0x1,0xf);
  91:src/kernel/Riscv.cpp ****     setVirtualAddr((size_t)CONSOLE_TX_DATA,0x1,0xf);
  92:src/kernel/Riscv.cpp ****     setVirtualAddr((size_t)CONSOLE_STATUS,0x1,0xf);
  93:src/kernel/Riscv.cpp ****     setVirtualAddr(0xc201004,0x1,0xf);
  94:src/kernel/Riscv.cpp **** 
  95:src/kernel/Riscv.cpp ****     Riscv::ms_sstatus(1<<18);
  96:src/kernel/Riscv.cpp ****     size_t satp = ((size_t)1 << 63) | ((size_t)mainPMT >> 12);
  97:src/kernel/Riscv.cpp ****     __asm__ volatile("csrw satp, %0" : :"r"(satp));
  98:src/kernel/Riscv.cpp **** }
  99:src/kernel/Riscv.cpp **** 
 100:src/kernel/Riscv.cpp **** void Riscv::kernelMain()
 101:src/kernel/Riscv.cpp **** {
 102:src/kernel/Riscv.cpp ****     if(kernelMainCalled) return;
 103:src/kernel/Riscv.cpp ****     kernelMainCalled = true;
 104:src/kernel/Riscv.cpp **** 
 105:src/kernel/Riscv.cpp ****     initSystem();
 106:src/kernel/Riscv.cpp **** 
 107:src/kernel/Riscv.cpp ****     //testOS2();
 108:src/kernel/Riscv.cpp **** 
 109:src/kernel/Riscv.cpp ****     enableInterrupts();
 110:src/kernel/Riscv.cpp **** 
 111:src/kernel/Riscv.cpp ****     while(!PCB::userPCB->isFinished())
 112:src/kernel/Riscv.cpp ****     {
 113:src/kernel/Riscv.cpp ****         thread_dispatch_kernel();
 114:src/kernel/Riscv.cpp ****     }
 115:src/kernel/Riscv.cpp **** 
 116:src/kernel/Riscv.cpp ****     endSystem();
 117:src/kernel/Riscv.cpp **** }
 118:src/kernel/Riscv.cpp **** 
 119:src/kernel/Riscv.cpp **** void Riscv::endSystem()
 120:src/kernel/Riscv.cpp **** {
 121:src/kernel/Riscv.cpp ****     disableInterrupts();
 122:src/kernel/Riscv.cpp ****     finishSystem = true;
 123:src/kernel/Riscv.cpp ****     PCB* pcb = 0;
 124:src/kernel/Riscv.cpp ****     while(true)
 125:src/kernel/Riscv.cpp ****     {
 126:src/kernel/Riscv.cpp ****         pcb = Scheduler::get();
 127:src/kernel/Riscv.cpp ****         if(pcb == 0) break;
 128:src/kernel/Riscv.cpp ****     }
 129:src/kernel/Riscv.cpp ****     Scheduler::put(PCB::consolePCB);
 130:src/kernel/Riscv.cpp ****     KConsole::pendingGetc = 0;
 131:src/kernel/Riscv.cpp ****     enableInterrupts();
 132:src/kernel/Riscv.cpp ****     while(!PCB::consolePCB->isFinished())
 133:src/kernel/Riscv.cpp ****     {
 134:src/kernel/Riscv.cpp ****         thread_dispatch_kernel();
 135:src/kernel/Riscv.cpp ****     }
 136:src/kernel/Riscv.cpp ****     disableInterrupts();
 137:src/kernel/Riscv.cpp **** }
 138:src/kernel/Riscv.cpp **** 
 139:src/kernel/Riscv.cpp **** void Riscv::enableInterrupts() {
  35              		.loc 1 139 32 is_stmt 1
GAS LISTING /tmp/ccHEGcEd.s 			page 4


  36              		.cfi_startproc
  37 0018 130101FF 		addi	sp,sp,-16
  38              		.cfi_def_cfa_offset 16
  39 001c 23348100 		sd	s0,8(sp)
  40              		.cfi_offset 8, -8
  41 0020 13040101 		addi	s0,sp,16
  42              		.cfi_def_cfa 8, 0
 140:src/kernel/Riscv.cpp ****     ms_sstatus(Riscv::SSTATUS_SIE);
  43              		.loc 1 140 5
  44              	.LVL0:
  45              	.LBB41:
  46              	.LBB42:
  47              		.file 2 "src/kernel/../../h/Riscv.hpp"
   1:src/kernel/../../h/Riscv.hpp **** //
   2:src/kernel/../../h/Riscv.hpp **** // Created by os on 4/27/22.
   3:src/kernel/../../h/Riscv.hpp **** //
   4:src/kernel/../../h/Riscv.hpp **** 
   5:src/kernel/../../h/Riscv.hpp **** #ifndef PROJECT_BASE_V1_0_RISCV_HPP
   6:src/kernel/../../h/Riscv.hpp **** #define PROJECT_BASE_V1_0_RISCV_HPP
   7:src/kernel/../../h/Riscv.hpp **** 
   8:src/kernel/../../h/Riscv.hpp **** #include "../lib/hw.h"
   9:src/kernel/../../h/Riscv.hpp **** #include "../src/user/test/userMain.hpp"
  10:src/kernel/../../h/Riscv.hpp **** #include "slabAllocator.hpp"
  11:src/kernel/../../h/Riscv.hpp **** 
  12:src/kernel/../../h/Riscv.hpp **** class Riscv
  13:src/kernel/../../h/Riscv.hpp **** {
  14:src/kernel/../../h/Riscv.hpp **** public:
  15:src/kernel/../../h/Riscv.hpp ****     static void kernelMain();
  16:src/kernel/../../h/Riscv.hpp **** private:
  17:src/kernel/../../h/Riscv.hpp ****     static bool kernelMainCalled;
  18:src/kernel/../../h/Riscv.hpp ****     static void changePrivMode();
  19:src/kernel/../../h/Riscv.hpp **** 
  20:src/kernel/../../h/Riscv.hpp ****     static void* mainPMT;
  21:src/kernel/../../h/Riscv.hpp **** 
  22:src/kernel/../../h/Riscv.hpp ****     static void addVirtualAddr(size_t addr);
  23:src/kernel/../../h/Riscv.hpp ****     static void addVirtualAddrInstr(size_t addr);
  24:src/kernel/../../h/Riscv.hpp ****     static void setVirtualAddr(size_t addr, size_t mask, size_t maskLeaf);
  25:src/kernel/../../h/Riscv.hpp **** 
  26:src/kernel/../../h/Riscv.hpp ****     static void initVirtualMemory();
  27:src/kernel/../../h/Riscv.hpp **** 
  28:src/kernel/../../h/Riscv.hpp ****     static void setVirtualAddrRange(size_t startAddr, size_t endAddr, int permission);
  29:src/kernel/../../h/Riscv.hpp **** 
  30:src/kernel/../../h/Riscv.hpp ****     static void initSystem();
  31:src/kernel/../../h/Riscv.hpp ****     static void endSystem();
  32:src/kernel/../../h/Riscv.hpp **** 
  33:src/kernel/../../h/Riscv.hpp ****     static void enableInterrupts();
  34:src/kernel/../../h/Riscv.hpp **** 
  35:src/kernel/../../h/Riscv.hpp ****     static void disableTimerInterrupts();
  36:src/kernel/../../h/Riscv.hpp **** 
  37:src/kernel/../../h/Riscv.hpp ****     static void disableInterrupts();
  38:src/kernel/../../h/Riscv.hpp **** 
  39:src/kernel/../../h/Riscv.hpp ****     static void pushRegisters();
  40:src/kernel/../../h/Riscv.hpp ****     static void popRegisters();
  41:src/kernel/../../h/Riscv.hpp **** 
  42:src/kernel/../../h/Riscv.hpp ****     static uint64 r_scause();
  43:src/kernel/../../h/Riscv.hpp ****     static void w_scause(uint64 scause);
  44:src/kernel/../../h/Riscv.hpp **** 
GAS LISTING /tmp/ccHEGcEd.s 			page 5


  45:src/kernel/../../h/Riscv.hpp ****     static uint64 r_sepc();
  46:src/kernel/../../h/Riscv.hpp ****     static void w_sepc(uint64 sepc);
  47:src/kernel/../../h/Riscv.hpp **** 
  48:src/kernel/../../h/Riscv.hpp ****     static uint64 r_stvec();
  49:src/kernel/../../h/Riscv.hpp ****     static void w_stvec(uint64 stvec);
  50:src/kernel/../../h/Riscv.hpp **** 
  51:src/kernel/../../h/Riscv.hpp ****     static uint64 r_stval();
  52:src/kernel/../../h/Riscv.hpp ****     static void w_stval(uint64 stval);
  53:src/kernel/../../h/Riscv.hpp **** 
  54:src/kernel/../../h/Riscv.hpp ****     static bool finishSystem;
  55:src/kernel/../../h/Riscv.hpp **** 
  56:src/kernel/../../h/Riscv.hpp ****     enum BitMaskSip
  57:src/kernel/../../h/Riscv.hpp ****     {
  58:src/kernel/../../h/Riscv.hpp ****         SIP_SSIP = (1 << 1),
  59:src/kernel/../../h/Riscv.hpp ****         SIP_STIP = (1 << 5),
  60:src/kernel/../../h/Riscv.hpp ****         SIP_SEIP = (1 << 9),
  61:src/kernel/../../h/Riscv.hpp ****     };
  62:src/kernel/../../h/Riscv.hpp **** 
  63:src/kernel/../../h/Riscv.hpp ****     static void ms_sip(uint64 mask);
  64:src/kernel/../../h/Riscv.hpp **** 
  65:src/kernel/../../h/Riscv.hpp ****     static void mc_sip(uint64 mask);
  66:src/kernel/../../h/Riscv.hpp **** 
  67:src/kernel/../../h/Riscv.hpp ****     static uint64 r_sip();
  68:src/kernel/../../h/Riscv.hpp **** 
  69:src/kernel/../../h/Riscv.hpp ****     static void w_sip(uint64 sip);
  70:src/kernel/../../h/Riscv.hpp **** 
  71:src/kernel/../../h/Riscv.hpp ****     enum BitMaskSstatus
  72:src/kernel/../../h/Riscv.hpp ****     {
  73:src/kernel/../../h/Riscv.hpp ****         SSTATUS_SIE = (1 << 1),
  74:src/kernel/../../h/Riscv.hpp ****         SSTATUS_SPIE = (1 << 5),
  75:src/kernel/../../h/Riscv.hpp ****         SSTATUS_SPP = (1 << 8),
  76:src/kernel/../../h/Riscv.hpp ****     };
  77:src/kernel/../../h/Riscv.hpp **** 
  78:src/kernel/../../h/Riscv.hpp ****     static void w_a0_sscratch();
  79:src/kernel/../../h/Riscv.hpp **** 
  80:src/kernel/../../h/Riscv.hpp ****     static void ms_sstatus(uint64 mask);
  81:src/kernel/../../h/Riscv.hpp **** 
  82:src/kernel/../../h/Riscv.hpp ****     static void mc_sstatus(uint64 mask);
  83:src/kernel/../../h/Riscv.hpp **** 
  84:src/kernel/../../h/Riscv.hpp ****     static void mc_sie(uint64 mask);
  85:src/kernel/../../h/Riscv.hpp **** 
  86:src/kernel/../../h/Riscv.hpp ****     static void ms_sie(uint64 mask);
  87:src/kernel/../../h/Riscv.hpp **** 
  88:src/kernel/../../h/Riscv.hpp ****     static uint64 r_sstatus();
  89:src/kernel/../../h/Riscv.hpp **** 
  90:src/kernel/../../h/Riscv.hpp ****     static void w_sstatus(uint64 sstatus);
  91:src/kernel/../../h/Riscv.hpp **** 
  92:src/kernel/../../h/Riscv.hpp ****     static uint64 r_sie();
  93:src/kernel/../../h/Riscv.hpp ****     static void w_sie(uint64 sie);
  94:src/kernel/../../h/Riscv.hpp ****     static void popSppSpie();
  95:src/kernel/../../h/Riscv.hpp **** 
  96:src/kernel/../../h/Riscv.hpp ****     static void supervisorTrap();
  97:src/kernel/../../h/Riscv.hpp ****     static void handleSupervisorTrap();
  98:src/kernel/../../h/Riscv.hpp **** 
  99:src/kernel/../../h/Riscv.hpp ****     static const uint64 bntOne = 1UL << 63;;
 100:src/kernel/../../h/Riscv.hpp ****     static const uint64 bntZero = 0UL;
 101:src/kernel/../../h/Riscv.hpp ****     static const uint64 timerInterrupt = bntOne + 1UL;
GAS LISTING /tmp/ccHEGcEd.s 			page 6


 102:src/kernel/../../h/Riscv.hpp ****     static const uint64 hwInterrupt = bntOne + 9UL;
 103:src/kernel/../../h/Riscv.hpp ****     static const uint64 operationInterrupt = bntZero + 2UL;
 104:src/kernel/../../h/Riscv.hpp ****     static const uint64 addrReadInterrupt = bntZero + 5UL;
 105:src/kernel/../../h/Riscv.hpp ****     static const uint64 addrWriteInterrupt = bntZero + 7UL;
 106:src/kernel/../../h/Riscv.hpp ****     static const uint64 ecallUserInterrupt = bntZero + 8UL;
 107:src/kernel/../../h/Riscv.hpp ****     static const uint64 ecallSystemInterupt = bntZero + 9UL;
 108:src/kernel/../../h/Riscv.hpp **** 
 109:src/kernel/../../h/Riscv.hpp ****     static uint64 totalTime;
 110:src/kernel/../../h/Riscv.hpp **** 
 111:src/kernel/../../h/Riscv.hpp ****     static kmem_cache_t * pcbCache;
 112:src/kernel/../../h/Riscv.hpp ****     static kmem_cache_t* semaphoreCache;
 113:src/kernel/../../h/Riscv.hpp **** 
 114:src/kernel/../../h/Riscv.hpp ****     static size_t programStartAddr;
 115:src/kernel/../../h/Riscv.hpp **** 
 116:src/kernel/../../h/Riscv.hpp ****     friend class PCB;
 117:src/kernel/../../h/Riscv.hpp ****     friend class Scheduler;
 118:src/kernel/../../h/Riscv.hpp ****     friend class SleepPCBList;
 119:src/kernel/../../h/Riscv.hpp ****     friend class KSemaphore;
 120:src/kernel/../../h/Riscv.hpp ****     friend class KConsole;
 121:src/kernel/../../h/Riscv.hpp ****     friend class MemoryAllocator;
 122:src/kernel/../../h/Riscv.hpp **** };
 123:src/kernel/../../h/Riscv.hpp **** 
 124:src/kernel/../../h/Riscv.hpp **** inline void Riscv::mc_sie(uint64 mask)
 125:src/kernel/../../h/Riscv.hpp **** {
 126:src/kernel/../../h/Riscv.hpp ****     __asm__ volatile("csrc sie, %0" : :"r"(mask));
 127:src/kernel/../../h/Riscv.hpp **** }
 128:src/kernel/../../h/Riscv.hpp **** 
 129:src/kernel/../../h/Riscv.hpp **** inline uint64 Riscv::r_scause() {
 130:src/kernel/../../h/Riscv.hpp ****     uint64 volatile scause;
 131:src/kernel/../../h/Riscv.hpp ****     __asm__ volatile("csrr %0, scause" : "=r"(scause));
 132:src/kernel/../../h/Riscv.hpp ****     return scause;
 133:src/kernel/../../h/Riscv.hpp **** }
 134:src/kernel/../../h/Riscv.hpp **** 
 135:src/kernel/../../h/Riscv.hpp **** inline void Riscv::w_scause(uint64 scause) {
 136:src/kernel/../../h/Riscv.hpp ****     __asm__ volatile("csrw scause, %0" : :"r"(scause));
 137:src/kernel/../../h/Riscv.hpp **** }
 138:src/kernel/../../h/Riscv.hpp **** 
 139:src/kernel/../../h/Riscv.hpp **** inline uint64 Riscv::r_sepc() {
 140:src/kernel/../../h/Riscv.hpp ****     uint64 volatile sepc;
 141:src/kernel/../../h/Riscv.hpp ****     __asm__ volatile("csrr %0, sepc" : "=r"(sepc));
 142:src/kernel/../../h/Riscv.hpp ****     return sepc;
 143:src/kernel/../../h/Riscv.hpp **** }
 144:src/kernel/../../h/Riscv.hpp **** 
 145:src/kernel/../../h/Riscv.hpp **** inline void Riscv::w_sepc(uint64 sepc) {
 146:src/kernel/../../h/Riscv.hpp ****     __asm__ volatile("csrw sepc, %0" : :"r"(sepc));
 147:src/kernel/../../h/Riscv.hpp **** }
 148:src/kernel/../../h/Riscv.hpp **** 
 149:src/kernel/../../h/Riscv.hpp **** inline uint64 Riscv::r_stvec() {
 150:src/kernel/../../h/Riscv.hpp ****     uint64 volatile stvec;
 151:src/kernel/../../h/Riscv.hpp ****     __asm__ volatile("csrr %0, stvec" : "=r"(stvec));
 152:src/kernel/../../h/Riscv.hpp ****     return stvec;
 153:src/kernel/../../h/Riscv.hpp **** }
 154:src/kernel/../../h/Riscv.hpp **** 
 155:src/kernel/../../h/Riscv.hpp **** inline void Riscv::w_stvec(uint64 stvec) {
 156:src/kernel/../../h/Riscv.hpp ****     __asm__ volatile("csrw stvec, %0" : :"r"(stvec));
 157:src/kernel/../../h/Riscv.hpp **** }
 158:src/kernel/../../h/Riscv.hpp **** 
GAS LISTING /tmp/ccHEGcEd.s 			page 7


 159:src/kernel/../../h/Riscv.hpp **** inline uint64 Riscv::r_stval() {
 160:src/kernel/../../h/Riscv.hpp ****     uint64 volatile stval;
 161:src/kernel/../../h/Riscv.hpp ****     __asm__ volatile("csrr %0, stval" : "=r"(stval));
 162:src/kernel/../../h/Riscv.hpp ****     return stval;
 163:src/kernel/../../h/Riscv.hpp **** }
 164:src/kernel/../../h/Riscv.hpp **** 
 165:src/kernel/../../h/Riscv.hpp **** inline void Riscv::w_sie(uint64 sie)
 166:src/kernel/../../h/Riscv.hpp **** {
 167:src/kernel/../../h/Riscv.hpp ****     __asm__ volatile("csrw sie, %0" : :"r"(sie));
 168:src/kernel/../../h/Riscv.hpp **** }
 169:src/kernel/../../h/Riscv.hpp **** 
 170:src/kernel/../../h/Riscv.hpp **** inline void Riscv::w_stval(uint64 stval) {
 171:src/kernel/../../h/Riscv.hpp ****     __asm__ volatile("csrw stval, %0" : :"r"(stval));
 172:src/kernel/../../h/Riscv.hpp **** }
 173:src/kernel/../../h/Riscv.hpp **** 
 174:src/kernel/../../h/Riscv.hpp **** inline void Riscv::ms_sip(uint64 mask) {
 175:src/kernel/../../h/Riscv.hpp ****     __asm__ volatile("csrs sip, %0" : :"r"(mask));
 176:src/kernel/../../h/Riscv.hpp **** }
 177:src/kernel/../../h/Riscv.hpp **** 
 178:src/kernel/../../h/Riscv.hpp **** inline void Riscv::mc_sip(uint64 mask) {
 179:src/kernel/../../h/Riscv.hpp ****     __asm__ volatile("csrc sip, %0" : :"r"(mask));
 180:src/kernel/../../h/Riscv.hpp **** }
 181:src/kernel/../../h/Riscv.hpp **** 
 182:src/kernel/../../h/Riscv.hpp **** inline uint64 Riscv::r_sie()
 183:src/kernel/../../h/Riscv.hpp **** {
 184:src/kernel/../../h/Riscv.hpp ****     uint64 volatile sie;
 185:src/kernel/../../h/Riscv.hpp ****     __asm__ volatile("csrr %0, sip" : "=r"(sie));
 186:src/kernel/../../h/Riscv.hpp ****     return sie;
 187:src/kernel/../../h/Riscv.hpp **** }
 188:src/kernel/../../h/Riscv.hpp **** 
 189:src/kernel/../../h/Riscv.hpp **** inline void Riscv::ms_sie(uint64 mask)
 190:src/kernel/../../h/Riscv.hpp **** {
 191:src/kernel/../../h/Riscv.hpp ****     __asm__ volatile("csrs sie, %0" : :"r"(mask));
 192:src/kernel/../../h/Riscv.hpp **** }
 193:src/kernel/../../h/Riscv.hpp **** 
 194:src/kernel/../../h/Riscv.hpp **** inline uint64 Riscv::r_sip() {
 195:src/kernel/../../h/Riscv.hpp ****     uint64 volatile sip;
 196:src/kernel/../../h/Riscv.hpp ****     __asm__ volatile("csrr %0, sip" : "=r"(sip));
 197:src/kernel/../../h/Riscv.hpp ****     return sip;
 198:src/kernel/../../h/Riscv.hpp **** }
 199:src/kernel/../../h/Riscv.hpp **** 
 200:src/kernel/../../h/Riscv.hpp **** inline void Riscv::w_sip(uint64 sip) {
 201:src/kernel/../../h/Riscv.hpp ****     __asm__ volatile("csrw sip, %0" : :"r"(sip));
 202:src/kernel/../../h/Riscv.hpp **** }
 203:src/kernel/../../h/Riscv.hpp **** 
 204:src/kernel/../../h/Riscv.hpp **** inline void Riscv::ms_sstatus(uint64 mask) {
 205:src/kernel/../../h/Riscv.hpp ****     __asm__ volatile("csrs sstatus, %0" : :"r"(mask));
  48              		.loc 2 205 5
  49              		.loc 2 205 54 is_stmt 0
  50 0024 93072000 		li	a5,2
  51              	#APP
  52              	# 205 "src/kernel/../../h/Riscv.hpp" 1
 206              	}
  53              		csrs sstatus, a5
  54              	# 0 "" 2
  55              	.LVL1:
  56              	#NO_APP
GAS LISTING /tmp/ccHEGcEd.s 			page 8


  57              	.LBE42:
  58              	.LBE41:
 141:src/kernel/Riscv.cpp **** }
  59              		.loc 1 141 1
  60 002c 03348100 		ld	s0,8(sp)
  61              		.cfi_restore 8
  62              		.cfi_def_cfa 2, 16
  63 0030 13010101 		addi	sp,sp,16
  64              		.cfi_def_cfa_offset 0
  65 0034 67800000 		jr	ra
  66              		.cfi_endproc
  67              	.LFE32:
  69              		.align	2
  70              		.globl	_ZN5Riscv17disableInterruptsEv
  72              	_ZN5Riscv17disableInterruptsEv:
  73              	.LFB33:
 142:src/kernel/Riscv.cpp **** 
 143:src/kernel/Riscv.cpp **** void Riscv::disableInterrupts()
 144:src/kernel/Riscv.cpp **** {
  74              		.loc 1 144 1 is_stmt 1
  75              		.cfi_startproc
  76 0038 130101FF 		addi	sp,sp,-16
  77              		.cfi_def_cfa_offset 16
  78 003c 23348100 		sd	s0,8(sp)
  79              		.cfi_offset 8, -8
  80 0040 13040101 		addi	s0,sp,16
  81              		.cfi_def_cfa 8, 0
 145:src/kernel/Riscv.cpp ****     mc_sstatus(Riscv::SSTATUS_SIE);
  82              		.loc 1 145 5
  83              	.LVL2:
  84              	.LBB43:
  85              	.LBB44:
 207:src/kernel/../../h/Riscv.hpp **** 
 208:src/kernel/../../h/Riscv.hpp **** inline void Riscv::mc_sstatus(uint64 mask) {
 209:src/kernel/../../h/Riscv.hpp ****     __asm__ volatile("csrc sstatus, %0" : :"r"(mask));
  86              		.loc 2 209 5
  87              		.loc 2 209 54 is_stmt 0
  88 0044 93072000 		li	a5,2
  89              	#APP
  90              	# 209 "src/kernel/../../h/Riscv.hpp" 1
 210              	}
  91              		csrc sstatus, a5
  92              	# 0 "" 2
  93              	.LVL3:
  94              	#NO_APP
  95              	.LBE44:
  96              	.LBE43:
 146:src/kernel/Riscv.cpp **** }
  97              		.loc 1 146 1
  98 004c 03348100 		ld	s0,8(sp)
  99              		.cfi_restore 8
 100              		.cfi_def_cfa 2, 16
 101 0050 13010101 		addi	sp,sp,16
 102              		.cfi_def_cfa_offset 0
 103 0054 67800000 		jr	ra
 104              		.cfi_endproc
 105              	.LFE33:
GAS LISTING /tmp/ccHEGcEd.s 			page 9


 107              		.align	2
 108              		.globl	_ZN5Riscv9endSystemEv
 110              	_ZN5Riscv9endSystemEv:
 111              	.LFB31:
 120:src/kernel/Riscv.cpp ****     disableInterrupts();
 112              		.loc 1 120 1 is_stmt 1
 113              		.cfi_startproc
 114 0058 130101FF 		addi	sp,sp,-16
 115              		.cfi_def_cfa_offset 16
 116 005c 23341100 		sd	ra,8(sp)
 117 0060 23308100 		sd	s0,0(sp)
 118              		.cfi_offset 1, -8
 119              		.cfi_offset 8, -16
 120 0064 13040101 		addi	s0,sp,16
 121              		.cfi_def_cfa 8, 0
 121:src/kernel/Riscv.cpp ****     finishSystem = true;
 122              		.loc 1 121 5
 121:src/kernel/Riscv.cpp ****     finishSystem = true;
 123              		.loc 1 121 22 is_stmt 0
 124 0068 97000000 		call	_ZN5Riscv17disableInterruptsEv
 124      E7800000 
 125              	.LVL4:
 122:src/kernel/Riscv.cpp ****     PCB* pcb = 0;
 126              		.loc 1 122 5 is_stmt 1
 122:src/kernel/Riscv.cpp ****     PCB* pcb = 0;
 127              		.loc 1 122 18 is_stmt 0
 128 0070 93071000 		li	a5,1
 129 0074 17070000 		sb	a5,.LANCHOR0,a4
 129      2300F700 
 123:src/kernel/Riscv.cpp ****     while(true)
 130              		.loc 1 123 5 is_stmt 1
 131              	.LVL5:
 132              	.L8:
 124:src/kernel/Riscv.cpp ****     {
 133              		.loc 1 124 5
 126:src/kernel/Riscv.cpp ****         if(pcb == 0) break;
 134              		.loc 1 126 9
 126:src/kernel/Riscv.cpp ****         if(pcb == 0) break;
 135              		.loc 1 126 29 is_stmt 0
 136 007c 97000000 		call	_ZN9Scheduler3getEv@plt
 136      E7800000 
 137              	.LVL6:
 127:src/kernel/Riscv.cpp ****     }
 138              		.loc 1 127 9 is_stmt 1
 139 0084 E31C05FE 		bnez	a0,.L8
 129:src/kernel/Riscv.cpp ****     KConsole::pendingGetc = 0;
 140              		.loc 1 129 5
 129:src/kernel/Riscv.cpp ****     KConsole::pendingGetc = 0;
 141              		.loc 1 129 19 is_stmt 0
 142 0088 97070000 		la	a5,_ZN3PCB10consolePCBE
 142      83B70700 
 143 0090 03B50700 		ld	a0,0(a5)
 144              	.LVL7:
 145 0094 97000000 		call	_ZN9Scheduler3putEP3PCB@plt
 145      E7800000 
 146              	.LVL8:
 130:src/kernel/Riscv.cpp ****     enableInterrupts();
GAS LISTING /tmp/ccHEGcEd.s 			page 10


 147              		.loc 1 130 5 is_stmt 1
 130:src/kernel/Riscv.cpp ****     enableInterrupts();
 148              		.loc 1 130 27 is_stmt 0
 149 009c 97070000 		la	a5,_ZN8KConsole11pendingGetcE
 149      83B70700 
 150 00a4 23B00700 		sd	zero,0(a5)
 131:src/kernel/Riscv.cpp ****     while(!PCB::consolePCB->isFinished())
 151              		.loc 1 131 5 is_stmt 1
 131:src/kernel/Riscv.cpp ****     while(!PCB::consolePCB->isFinished())
 152              		.loc 1 131 21 is_stmt 0
 153 00a8 97000000 		call	_ZN5Riscv16enableInterruptsEv
 153      E7800000 
 154              	.LVL9:
 155              	.L10:
 132:src/kernel/Riscv.cpp ****     {
 156              		.loc 1 132 5 is_stmt 1
 132:src/kernel/Riscv.cpp ****     {
 157              		.loc 1 132 11
 132:src/kernel/Riscv.cpp ****     {
 158              		.loc 1 132 39 is_stmt 0
 159 00b0 97070000 		la	a5,_ZN3PCB10consolePCBE
 159      83B70700 
 160 00b8 03B50700 		ld	a0,0(a5)
 161 00bc 97000000 		call	_ZN3PCB10isFinishedEv@plt
 161      E7800000 
 162              	.LVL10:
 132:src/kernel/Riscv.cpp ****     {
 163              		.loc 1 132 11
 164 00c4 63180500 		bnez	a0,.L9
 134:src/kernel/Riscv.cpp ****     }
 165              		.loc 1 134 9 is_stmt 1
 134:src/kernel/Riscv.cpp ****     }
 166              		.loc 1 134 31 is_stmt 0
 167 00c8 97000000 		call	_Z22thread_dispatch_kernelv@plt
 167      E7800000 
 168              	.LVL11:
 132:src/kernel/Riscv.cpp ****     {
 169              		.loc 1 132 5
 170 00d0 6FF01FFE 		j	.L10
 171              	.L9:
 136:src/kernel/Riscv.cpp **** }
 172              		.loc 1 136 5 is_stmt 1
 136:src/kernel/Riscv.cpp **** }
 173              		.loc 1 136 22 is_stmt 0
 174 00d4 97000000 		call	_ZN5Riscv17disableInterruptsEv
 174      E7800000 
 175              	.LVL12:
 137:src/kernel/Riscv.cpp **** 
 176              		.loc 1 137 1
 177 00dc 83308100 		ld	ra,8(sp)
 178              		.cfi_restore 1
 179 00e0 03340100 		ld	s0,0(sp)
 180              		.cfi_restore 8
 181              		.cfi_def_cfa 2, 16
 182 00e4 13010101 		addi	sp,sp,16
 183              		.cfi_def_cfa_offset 0
 184 00e8 67800000 		jr	ra
GAS LISTING /tmp/ccHEGcEd.s 			page 11


 185              		.cfi_endproc
 186              	.LFE31:
 188              		.align	2
 189              		.globl	_ZN5Riscv10popSppSpieEv
 191              	_ZN5Riscv10popSppSpieEv:
 192              	.LFB34:
 147:src/kernel/Riscv.cpp **** 
 148:src/kernel/Riscv.cpp **** void Riscv::popSppSpie()
 149:src/kernel/Riscv.cpp **** {
 193              		.loc 1 149 1 is_stmt 1
 194              		.cfi_startproc
 195 00ec 130101FF 		addi	sp,sp,-16
 196              		.cfi_def_cfa_offset 16
 197 00f0 23348100 		sd	s0,8(sp)
 198              		.cfi_offset 8, -8
 199 00f4 13040101 		addi	s0,sp,16
 200              		.cfi_def_cfa 8, 0
 150:src/kernel/Riscv.cpp ****     if(PCB::running->systemThread) {
 201              		.loc 1 150 5
 202              	.LBB45:
 203              		.loc 1 150 22 is_stmt 0
 204 00f8 97070000 		la	a5,_ZN3PCB7runningE
 204      83B70700 
 205 0100 83B70700 		ld	a5,0(a5)
 206 0104 03C70700 		lbu	a4,0(a5)
 207              		.loc 1 150 5
 208 0108 630C0700 		beqz	a4,.L13
 151:src/kernel/Riscv.cpp ****         __asm__ volatile ("csrw sepc, ra");
 209              		.loc 1 151 9 is_stmt 1
 210              		.loc 1 151 43 is_stmt 0
 211              	#APP
 212              	# 151 "src/kernel/Riscv.cpp" 1
 152              	        __asm__ volatile ("sret");
 213              		csrw sepc, ra
 214              	# 0 "" 2
 215              		.loc 1 152 9 is_stmt 1
 216              		.loc 1 152 34 is_stmt 0
 217              	# 152 "src/kernel/Riscv.cpp" 1
 153              	    }
 218              		sret
 219              	# 0 "" 2
 220              	#NO_APP
 221              	.L12:
 222              	.LBE45:
 154:src/kernel/Riscv.cpp ****     else
 155:src/kernel/Riscv.cpp ****     {
 156:src/kernel/Riscv.cpp ****         size_t ra = (size_t)&PCBWrapperUser::wrapperUser;
 157:src/kernel/Riscv.cpp ****         __asm__ volatile("mv a0, %0"::"r"((size_t)PCB::running->body));
 158:src/kernel/Riscv.cpp ****         __asm__ volatile("mv a1, %0"::"r"((size_t)PCB::running->args));
 159:src/kernel/Riscv.cpp ****         __asm__ volatile("csrw sepc, %0"::"r"(ra));
 160:src/kernel/Riscv.cpp ****         __asm__ volatile ("sret");
 161:src/kernel/Riscv.cpp ****     }
 162:src/kernel/Riscv.cpp **** }
 223              		.loc 1 162 1
 224 0114 03348100 		ld	s0,8(sp)
 225              		.cfi_remember_state
 226              		.cfi_restore 8
GAS LISTING /tmp/ccHEGcEd.s 			page 12


 227              		.cfi_def_cfa 2, 16
 228 0118 13010101 		addi	sp,sp,16
 229              		.cfi_def_cfa_offset 0
 230 011c 67800000 		jr	ra
 231              	.L13:
 232              		.cfi_restore_state
 233              	.LBB47:
 234              	.LBB46:
 156:src/kernel/Riscv.cpp ****         __asm__ volatile("mv a0, %0"::"r"((size_t)PCB::running->body));
 235              		.loc 1 156 9 is_stmt 1
 236              	.LVL13:
 157:src/kernel/Riscv.cpp ****         __asm__ volatile("mv a1, %0"::"r"((size_t)PCB::running->args));
 237              		.loc 1 157 9
 157:src/kernel/Riscv.cpp ****         __asm__ volatile("mv a1, %0"::"r"((size_t)PCB::running->args));
 238              		.loc 1 157 65 is_stmt 0
 239 0120 03B78702 		ld	a4,40(a5)
 157:src/kernel/Riscv.cpp ****         __asm__ volatile("mv a1, %0"::"r"((size_t)PCB::running->args));
 240              		.loc 1 157 71
 241              	#APP
 242              	# 157 "src/kernel/Riscv.cpp" 1
 158:src/kernel/Riscv.cpp ****         __asm__ volatile("csrw sepc, %0"::"r"(ra));
 243              		mv a0, a4
 244              	# 0 "" 2
 245              		.loc 1 158 9 is_stmt 1
 158:src/kernel/Riscv.cpp ****         __asm__ volatile("csrw sepc, %0"::"r"(ra));
 246              		.loc 1 158 65 is_stmt 0
 247              	#NO_APP
 248 0128 83B70703 		ld	a5,48(a5)
 158:src/kernel/Riscv.cpp ****         __asm__ volatile("csrw sepc, %0"::"r"(ra));
 249              		.loc 1 158 71
 250              	#APP
 251              	# 158 "src/kernel/Riscv.cpp" 1
 159:src/kernel/Riscv.cpp ****         __asm__ volatile ("sret");
 252              		mv a1, a5
 253              	# 0 "" 2
 254              		.loc 1 159 9 is_stmt 1
 159:src/kernel/Riscv.cpp ****         __asm__ volatile ("sret");
 255              		.loc 1 159 51 is_stmt 0
 256              	#NO_APP
 257 0130 97070000 		la	a5,_ZN14PCBWrapperUser11wrapperUserEPFvPvES0_
 257      83B70700 
 258              	#APP
 259              	# 159 "src/kernel/Riscv.cpp" 1
 160:src/kernel/Riscv.cpp ****     }
 260              		csrw sepc, a5
 261              	# 0 "" 2
 262              		.loc 1 160 9 is_stmt 1
 160:src/kernel/Riscv.cpp ****     }
 263              		.loc 1 160 34 is_stmt 0
 264              	# 160 "src/kernel/Riscv.cpp" 1
 265              		sret
 266              	# 0 "" 2
 267              	#NO_APP
 268              	.LBE46:
 269              	.LBE47:
 270              		.loc 1 162 1
 271 0140 6FF05FFD 		j	.L12
GAS LISTING /tmp/ccHEGcEd.s 			page 13


 272              		.cfi_endproc
 273              	.LFE34:
 275              		.align	2
 276              		.globl	_ZN5Riscv14setVirtualAddrEmmm
 278              	_ZN5Riscv14setVirtualAddrEmmm:
 279              	.LFB35:
 163:src/kernel/Riscv.cpp **** 
 164:src/kernel/Riscv.cpp **** void Riscv::setVirtualAddr(size_t addr, size_t mask, size_t maskLeaf)
 165:src/kernel/Riscv.cpp **** {
 280              		.loc 1 165 1 is_stmt 1
 281              		.cfi_startproc
 282              	.LVL14:
 283 0144 130101FB 		addi	sp,sp,-80
 284              		.cfi_def_cfa_offset 80
 285 0148 23341104 		sd	ra,72(sp)
 286 014c 23308104 		sd	s0,64(sp)
 287 0150 233C9102 		sd	s1,56(sp)
 288 0154 23382103 		sd	s2,48(sp)
 289 0158 23343103 		sd	s3,40(sp)
 290 015c 23304103 		sd	s4,32(sp)
 291 0160 233C5101 		sd	s5,24(sp)
 292 0164 23386101 		sd	s6,16(sp)
 293 0168 23347101 		sd	s7,8(sp)
 294              		.cfi_offset 1, -8
 295              		.cfi_offset 8, -16
 296              		.cfi_offset 9, -24
 297              		.cfi_offset 18, -32
 298              		.cfi_offset 19, -40
 299              		.cfi_offset 20, -48
 300              		.cfi_offset 21, -56
 301              		.cfi_offset 22, -64
 302              		.cfi_offset 23, -72
 303 016c 13040105 		addi	s0,sp,80
 304              		.cfi_def_cfa 8, 0
 305 0170 93890500 		mv	s3,a1
 306 0174 130A0600 		mv	s4,a2
 166:src/kernel/Riscv.cpp ****     size_t l2 = addr >> 30;
 307              		.loc 1 166 5
 308              		.loc 1 166 12 is_stmt 0
 309 0178 935BE501 		srli	s7,a0,30
 310              	.LVL15:
 167:src/kernel/Riscv.cpp ****     size_t l1 = (addr >> 21) & (0x1ff);
 311              		.loc 1 167 5 is_stmt 1
 312              		.loc 1 167 23 is_stmt 0
 313 017c 135B5501 		srli	s6,a0,21
 314              		.loc 1 167 12
 315 0180 137BFB1F 		andi	s6,s6,511
 316              	.LVL16:
 168:src/kernel/Riscv.cpp ****     size_t l0 = (addr >> 12) & (0x1ff);
 317              		.loc 1 168 5 is_stmt 1
 318              		.loc 1 168 23 is_stmt 0
 319 0184 9354C500 		srli	s1,a0,12
 320              		.loc 1 168 12
 321 0188 13F9F41F 		andi	s2,s1,511
 322              	.LVL17:
 169:src/kernel/Riscv.cpp ****     size_t pmt2Desc = ((size_t*)mainPMT)[l2];
 323              		.loc 1 169 5 is_stmt 1
GAS LISTING /tmp/ccHEGcEd.s 			page 14


 324              		.loc 1 169 44 is_stmt 0
 325 018c 939B3B00 		slli	s7,s7,3
 326              	.LVL18:
 327 0190 97070000 		ld	a5,.LANCHOR0+8
 327      83B70700 
 328 0198 B3877701 		add	a5,a5,s7
 329              		.loc 1 169 12
 330 019c 03B50700 		ld	a0,0(a5)
 331              	.LVL19:
 170:src/kernel/Riscv.cpp ****     void* pmt1 = nullptr;
 332              		.loc 1 170 5 is_stmt 1
 171:src/kernel/Riscv.cpp ****     if(pmt2Desc == 0)
 333              		.loc 1 171 5
 334              	.LBB48:
 335 01a0 63060506 		beqz	a0,.L27
 172:src/kernel/Riscv.cpp ****     {
 173:src/kernel/Riscv.cpp ****         pmt1 = buddy_alloc(1);
 174:src/kernel/Riscv.cpp ****         for(int i = 0; i < NUM_OF_ENTRIES;i++)
 175:src/kernel/Riscv.cpp ****         {
 176:src/kernel/Riscv.cpp ****             ((size_t*)pmt1)[i] = 0;
 177:src/kernel/Riscv.cpp ****         }
 178:src/kernel/Riscv.cpp ****         size_t newDesc = (((size_t)pmt1 >> 12) << 10) | mask;
 179:src/kernel/Riscv.cpp ****         ((size_t*)mainPMT)[l2] = newDesc;
 180:src/kernel/Riscv.cpp ****     }
 181:src/kernel/Riscv.cpp ****     else
 182:src/kernel/Riscv.cpp ****     {
 183:src/kernel/Riscv.cpp ****         pmt1 = (void*)((pmt2Desc >> 10) << 12);
 336              		.loc 1 183 9
 337              		.loc 1 183 34 is_stmt 0
 338 01a4 1355A500 		srli	a0,a0,10
 339              	.LVL20:
 340              		.loc 1 183 41
 341 01a8 1315C500 		slli	a0,a0,12
 342              	.LVL21:
 343              	.L20:
 344              	.LBE48:
 184:src/kernel/Riscv.cpp ****     }
 185:src/kernel/Riscv.cpp ****     size_t pmt1Desc = ((size_t*)pmt1)[l1];
 345              		.loc 1 185 5 is_stmt 1
 346              		.loc 1 185 41 is_stmt 0
 347 01ac 931A3B00 		slli	s5,s6,3
 348 01b0 B30A5501 		add	s5,a0,s5
 349              		.loc 1 185 12
 350 01b4 03B50A00 		ld	a0,0(s5)
 351              	.LVL22:
 186:src/kernel/Riscv.cpp ****     void* pmt0 = nullptr;
 352              		.loc 1 186 5 is_stmt 1
 187:src/kernel/Riscv.cpp ****     if(pmt1Desc == 0)
 353              		.loc 1 187 5
 354              	.LBB51:
 355 01b8 6300050A 		beqz	a0,.L28
 188:src/kernel/Riscv.cpp ****     {
 189:src/kernel/Riscv.cpp ****         pmt0 = buddy_alloc(1);
 190:src/kernel/Riscv.cpp ****         for(int i = 0; i < NUM_OF_ENTRIES;i++)
 191:src/kernel/Riscv.cpp ****         {
 192:src/kernel/Riscv.cpp ****             ((size_t*)pmt0)[i] = 0;
 193:src/kernel/Riscv.cpp ****         }
GAS LISTING /tmp/ccHEGcEd.s 			page 15


 194:src/kernel/Riscv.cpp ****         size_t newDesc = (((size_t)pmt0 >> 12) << 10) | mask;
 195:src/kernel/Riscv.cpp ****         ((size_t*)pmt1)[l1] = newDesc;
 196:src/kernel/Riscv.cpp ****     }
 197:src/kernel/Riscv.cpp ****     else
 198:src/kernel/Riscv.cpp ****     {
 199:src/kernel/Riscv.cpp ****         pmt0 = (void*)((pmt1Desc >> 10) << 12);
 356              		.loc 1 199 9
 357              		.loc 1 199 34 is_stmt 0
 358 01bc 1355A500 		srli	a0,a0,10
 359              	.LVL23:
 360              		.loc 1 199 41
 361 01c0 1315C500 		slli	a0,a0,12
 362              	.LVL24:
 363              	.L24:
 364              	.LBE51:
 200:src/kernel/Riscv.cpp ****     }
 201:src/kernel/Riscv.cpp **** 
 202:src/kernel/Riscv.cpp ****     size_t pmt0Desc = ((size_t*)pmt0)[l0];
 365              		.loc 1 202 5 is_stmt 1
 366              		.loc 1 202 41 is_stmt 0
 367 01c4 13193900 		slli	s2,s2,3
 368              	.LVL25:
 369 01c8 33052501 		add	a0,a0,s2
 370              	.LVL26:
 371              		.loc 1 202 12
 372 01cc 83370500 		ld	a5,0(a0)
 373              	.LVL27:
 203:src/kernel/Riscv.cpp ****     if(pmt0Desc == 0)
 374              		.loc 1 203 5 is_stmt 1
 375 01d0 63980700 		bnez	a5,.L16
 204:src/kernel/Riscv.cpp ****     {
 205:src/kernel/Riscv.cpp ****         ((size_t*)pmt0)[l0] = ((addr >> 12) << 10) | maskLeaf;
 376              		.loc 1 205 9
 377              		.loc 1 205 45 is_stmt 0
 378 01d4 9394A400 		slli	s1,s1,10
 379              	.LVL28:
 380              		.loc 1 205 52
 381 01d8 33EA4401 		or	s4,s1,s4
 382              	.LVL29:
 383              		.loc 1 205 29
 384 01dc 23304501 		sd	s4,0(a0)
 385              	.L16:
 206:src/kernel/Riscv.cpp ****     }
 207:src/kernel/Riscv.cpp **** }
 386              		.loc 1 207 1
 387 01e0 83308104 		ld	ra,72(sp)
 388              		.cfi_remember_state
 389              		.cfi_restore 1
 390 01e4 03340104 		ld	s0,64(sp)
 391              		.cfi_restore 8
 392              		.cfi_def_cfa 2, 80
 393 01e8 83348103 		ld	s1,56(sp)
 394              		.cfi_restore 9
 395 01ec 03390103 		ld	s2,48(sp)
 396              		.cfi_restore 18
 397 01f0 83398102 		ld	s3,40(sp)
 398              		.cfi_restore 19
GAS LISTING /tmp/ccHEGcEd.s 			page 16


 399 01f4 033A0102 		ld	s4,32(sp)
 400              		.cfi_restore 20
 401 01f8 833A8101 		ld	s5,24(sp)
 402              		.cfi_restore 21
 403 01fc 033B0101 		ld	s6,16(sp)
 404              		.cfi_restore 22
 405              	.LVL30:
 406 0200 833B8100 		ld	s7,8(sp)
 407              		.cfi_restore 23
 408 0204 13010105 		addi	sp,sp,80
 409              		.cfi_def_cfa_offset 0
 410 0208 67800000 		jr	ra
 411              	.LVL31:
 412              	.L27:
 413              		.cfi_restore_state
 414              	.LBB54:
 415              	.LBB49:
 173:src/kernel/Riscv.cpp ****         for(int i = 0; i < NUM_OF_ENTRIES;i++)
 416              		.loc 1 173 9 is_stmt 1
 173:src/kernel/Riscv.cpp ****         for(int i = 0; i < NUM_OF_ENTRIES;i++)
 417              		.loc 1 173 27 is_stmt 0
 418 020c 13051000 		li	a0,1
 419              	.LVL32:
 420 0210 97000000 		call	_Z11buddy_allocm@plt
 420      E7800000 
 421              	.LVL33:
 174:src/kernel/Riscv.cpp ****         {
 422              		.loc 1 174 9 is_stmt 1
 423              	.LBB50:
 174:src/kernel/Riscv.cpp ****         {
 424              		.loc 1 174 17 is_stmt 0
 425 0218 93070000 		li	a5,0
 426              	.LVL34:
 427              	.L19:
 174:src/kernel/Riscv.cpp ****         {
 428              		.loc 1 174 26 is_stmt 1 discriminator 3
 429 021c 1307F01F 		li	a4,511
 430 0220 634CF700 		bgt	a5,a4,.L18
 176:src/kernel/Riscv.cpp ****         }
 431              		.loc 1 176 13 discriminator 2
 176:src/kernel/Riscv.cpp ****         }
 432              		.loc 1 176 30 is_stmt 0 discriminator 2
 433 0224 13973700 		slli	a4,a5,3
 434 0228 3307E500 		add	a4,a0,a4
 176:src/kernel/Riscv.cpp ****         }
 435              		.loc 1 176 32 discriminator 2
 436 022c 23300700 		sd	zero,0(a4)
 174:src/kernel/Riscv.cpp ****         {
 437              		.loc 1 174 9 is_stmt 1 discriminator 2
 438 0230 9B871700 		addiw	a5,a5,1
 439              	.LVL35:
 440 0234 6FF09FFE 		j	.L19
 441              	.LVL36:
 442              	.L18:
 443              	.LBE50:
 178:src/kernel/Riscv.cpp ****         ((size_t*)mainPMT)[l2] = newDesc;
 444              		.loc 1 178 9
GAS LISTING /tmp/ccHEGcEd.s 			page 17


 178:src/kernel/Riscv.cpp ****         ((size_t*)mainPMT)[l2] = newDesc;
 445              		.loc 1 178 41 is_stmt 0
 446 0238 9357C500 		srli	a5,a0,12
 447              	.LVL37:
 178:src/kernel/Riscv.cpp ****         ((size_t*)mainPMT)[l2] = newDesc;
 448              		.loc 1 178 48
 449 023c 9397A700 		slli	a5,a5,10
 178:src/kernel/Riscv.cpp ****         ((size_t*)mainPMT)[l2] = newDesc;
 450              		.loc 1 178 16
 451 0240 B3E73701 		or	a5,a5,s3
 452              	.LVL38:
 179:src/kernel/Riscv.cpp ****     }
 453              		.loc 1 179 9 is_stmt 1
 179:src/kernel/Riscv.cpp ****     }
 454              		.loc 1 179 10 is_stmt 0
 455 0244 17070000 		ld	a4,.LANCHOR0+8
 455      03370700 
 179:src/kernel/Riscv.cpp ****     }
 456              		.loc 1 179 30
 457 024c B30B7701 		add	s7,a4,s7
 179:src/kernel/Riscv.cpp ****     }
 458              		.loc 1 179 32
 459 0250 23B0FB00 		sd	a5,0(s7)
 460              	.LBE49:
 461 0254 6FF09FF5 		j	.L20
 462              	.LVL39:
 463              	.L28:
 464              	.LBE54:
 465              	.LBB55:
 466              	.LBB52:
 189:src/kernel/Riscv.cpp ****         for(int i = 0; i < NUM_OF_ENTRIES;i++)
 467              		.loc 1 189 9 is_stmt 1
 189:src/kernel/Riscv.cpp ****         for(int i = 0; i < NUM_OF_ENTRIES;i++)
 468              		.loc 1 189 27 is_stmt 0
 469 0258 13051000 		li	a0,1
 470              	.LVL40:
 471 025c 97000000 		call	_Z11buddy_allocm@plt
 471      E7800000 
 472              	.LVL41:
 190:src/kernel/Riscv.cpp ****         {
 473              		.loc 1 190 9 is_stmt 1
 474              	.LBB53:
 190:src/kernel/Riscv.cpp ****         {
 475              		.loc 1 190 17 is_stmt 0
 476 0264 93070000 		li	a5,0
 477              	.LVL42:
 478              	.L23:
 190:src/kernel/Riscv.cpp ****         {
 479              		.loc 1 190 26 is_stmt 1 discriminator 3
 480 0268 1307F01F 		li	a4,511
 481 026c 634CF700 		bgt	a5,a4,.L22
 192:src/kernel/Riscv.cpp ****         }
 482              		.loc 1 192 13 discriminator 2
 192:src/kernel/Riscv.cpp ****         }
 483              		.loc 1 192 30 is_stmt 0 discriminator 2
 484 0270 13973700 		slli	a4,a5,3
 485 0274 3307E500 		add	a4,a0,a4
GAS LISTING /tmp/ccHEGcEd.s 			page 18


 192:src/kernel/Riscv.cpp ****         }
 486              		.loc 1 192 32 discriminator 2
 487 0278 23300700 		sd	zero,0(a4)
 190:src/kernel/Riscv.cpp ****         {
 488              		.loc 1 190 9 is_stmt 1 discriminator 2
 489 027c 9B871700 		addiw	a5,a5,1
 490              	.LVL43:
 491 0280 6FF09FFE 		j	.L23
 492              	.LVL44:
 493              	.L22:
 494              	.LBE53:
 194:src/kernel/Riscv.cpp ****         ((size_t*)pmt1)[l1] = newDesc;
 495              		.loc 1 194 9
 194:src/kernel/Riscv.cpp ****         ((size_t*)pmt1)[l1] = newDesc;
 496              		.loc 1 194 41 is_stmt 0
 497 0284 9357C500 		srli	a5,a0,12
 498              	.LVL45:
 194:src/kernel/Riscv.cpp ****         ((size_t*)pmt1)[l1] = newDesc;
 499              		.loc 1 194 48
 500 0288 9397A700 		slli	a5,a5,10
 194:src/kernel/Riscv.cpp ****         ((size_t*)pmt1)[l1] = newDesc;
 501              		.loc 1 194 16
 502 028c B3E93701 		or	s3,a5,s3
 503              	.LVL46:
 195:src/kernel/Riscv.cpp ****     }
 504              		.loc 1 195 9 is_stmt 1
 195:src/kernel/Riscv.cpp ****     }
 505              		.loc 1 195 29 is_stmt 0
 506 0290 23B03A01 		sd	s3,0(s5)
 507              	.LBE52:
 508 0294 6FF01FF3 		j	.L24
 509              	.LBE55:
 510              		.cfi_endproc
 511              	.LFE35:
 513              		.align	2
 514              		.globl	_ZN5Riscv19setVirtualAddrRangeEmmi
 516              	_ZN5Riscv19setVirtualAddrRangeEmmi:
 517              	.LFB28:
  46:src/kernel/Riscv.cpp ****     for(size_t i = startAddr; i < endAddr; i+=BLOCK_NUM_OF_BYTES)
 518              		.loc 1 46 1 is_stmt 1
 519              		.cfi_startproc
 520              	.LVL47:
 521 0298 130101FD 		addi	sp,sp,-48
 522              		.cfi_def_cfa_offset 48
 523 029c 23341102 		sd	ra,40(sp)
 524 02a0 23308102 		sd	s0,32(sp)
 525 02a4 233C9100 		sd	s1,24(sp)
 526 02a8 23382101 		sd	s2,16(sp)
 527 02ac 23343101 		sd	s3,8(sp)
 528              		.cfi_offset 1, -8
 529              		.cfi_offset 8, -16
 530              		.cfi_offset 9, -24
 531              		.cfi_offset 18, -32
 532              		.cfi_offset 19, -40
 533 02b0 13040103 		addi	s0,sp,48
 534              		.cfi_def_cfa 8, 0
 535 02b4 93040500 		mv	s1,a0
GAS LISTING /tmp/ccHEGcEd.s 			page 19


 536 02b8 13890500 		mv	s2,a1
 537 02bc 93090600 		mv	s3,a2
  47:src/kernel/Riscv.cpp ****     {
 538              		.loc 1 47 5
 539              	.LVL48:
 540              	.L31:
 541              	.LBB56:
  47:src/kernel/Riscv.cpp ****     {
 542              		.loc 1 47 33 discriminator 3
 543 02c0 63F22403 		bgeu	s1,s2,.L29
  49:src/kernel/Riscv.cpp ****     }
 544              		.loc 1 49 9 discriminator 2
  49:src/kernel/Riscv.cpp ****     }
 545              		.loc 1 49 23 is_stmt 0 discriminator 2
 546 02c4 13860900 		mv	a2,s3
 547 02c8 93051000 		li	a1,1
 548 02cc 13850400 		mv	a0,s1
 549 02d0 97000000 		call	_ZN5Riscv14setVirtualAddrEmmm
 549      E7800000 
 550              	.LVL49:
  47:src/kernel/Riscv.cpp ****     {
 551              		.loc 1 47 5 is_stmt 1 discriminator 2
  47:src/kernel/Riscv.cpp ****     {
 552              		.loc 1 47 45 is_stmt 0 discriminator 2
 553 02d8 B7170000 		li	a5,4096
 554 02dc B384F400 		add	s1,s1,a5
 555              	.LVL50:
  47:src/kernel/Riscv.cpp ****     {
 556              		.loc 1 47 5 discriminator 2
 557 02e0 6FF01FFE 		j	.L31
 558              	.L29:
 559              	.LBE56:
  52:src/kernel/Riscv.cpp **** void Riscv::initSystem()
 560              		.loc 1 52 1
 561 02e4 83308102 		ld	ra,40(sp)
 562              		.cfi_restore 1
 563 02e8 03340102 		ld	s0,32(sp)
 564              		.cfi_restore 8
 565              		.cfi_def_cfa 2, 48
 566 02ec 83348101 		ld	s1,24(sp)
 567              		.cfi_restore 9
 568              	.LVL51:
 569 02f0 03390101 		ld	s2,16(sp)
 570              		.cfi_restore 18
 571              	.LVL52:
 572 02f4 83398100 		ld	s3,8(sp)
 573              		.cfi_restore 19
 574 02f8 13010103 		addi	sp,sp,48
 575              		.cfi_def_cfa_offset 0
 576 02fc 67800000 		jr	ra
 577              		.cfi_endproc
 578              	.LFE28:
 580              		.section	.rodata.str1.8,"aMS",@progbits,1
 581              		.align	3
 582              	.LC0:
 583 0000 43616368 		.string	"Cache of PCBs"
 583      65206F66 
GAS LISTING /tmp/ccHEGcEd.s 			page 20


 583      20504342 
 583      7300
 584 000e 0000     		.align	3
 585              	.LC1:
 586 0010 43616368 		.string	"Cache of KSemaphore"
 586      65206F66 
 586      204B5365 
 586      6D617068 
 586      6F726500 
 587 0024 00000000 		.align	3
 588              	.LC2:
 589 0028 6D61696E 		.string	"main PMT "
 589      20504D54 
 589      2000
 590              		.text
 591              		.align	2
 592              		.globl	_ZN5Riscv10initSystemEv
 594              	_ZN5Riscv10initSystemEv:
 595              	.LFB29:
  54:src/kernel/Riscv.cpp ****     w_stvec((uint64)&Riscv::supervisorTrap);
 596              		.loc 1 54 1 is_stmt 1
 597              		.cfi_startproc
 598 0300 130101FC 		addi	sp,sp,-64
 599              		.cfi_def_cfa_offset 64
 600 0304 233C1102 		sd	ra,56(sp)
 601 0308 23388102 		sd	s0,48(sp)
 602 030c 23349102 		sd	s1,40(sp)
 603 0310 23302103 		sd	s2,32(sp)
 604 0314 233C3101 		sd	s3,24(sp)
 605 0318 23384101 		sd	s4,16(sp)
 606 031c 23345101 		sd	s5,8(sp)
 607 0320 23306101 		sd	s6,0(sp)
 608              		.cfi_offset 1, -8
 609              		.cfi_offset 8, -16
 610              		.cfi_offset 9, -24
 611              		.cfi_offset 18, -32
 612              		.cfi_offset 19, -40
 613              		.cfi_offset 20, -48
 614              		.cfi_offset 21, -56
 615              		.cfi_offset 22, -64
 616 0324 13040104 		addi	s0,sp,64
 617              		.cfi_def_cfa 8, 0
  55:src/kernel/Riscv.cpp **** 
 618              		.loc 1 55 5
  55:src/kernel/Riscv.cpp **** 
 619              		.loc 1 55 12 is_stmt 0
 620 0328 97070000 		la	a5,_ZN5Riscv14supervisorTrapEv
 620      83B70700 
 621              	.LVL53:
 622              	.LBB57:
 623              	.LBB58:
 156:src/kernel/../../h/Riscv.hpp **** }
 624              		.loc 2 156 5 is_stmt 1
 156:src/kernel/../../h/Riscv.hpp **** }
 625              		.loc 2 156 53 is_stmt 0
 626              	#APP
 627              	# 156 "src/kernel/../../h/Riscv.hpp" 1
GAS LISTING /tmp/ccHEGcEd.s 			page 21


 628              		csrw stvec, a5
 629              	# 0 "" 2
 630              	.LVL54:
 631              	#NO_APP
 632              	.LBE58:
 633              	.LBE57:
  57:src/kernel/Riscv.cpp **** 
 634              		.loc 1 57 5 is_stmt 1
  57:src/kernel/Riscv.cpp **** 
 635              		.loc 1 57 41 is_stmt 0
 636 0334 17090000 		la	s2,HEAP_START_ADDR
 636      03390900 
 637 033c 03350900 		ld	a0,0(s2)
 638 0340 97000000 		call	_Z12getBlockAddrm@plt
 638      E7800000 
 639              	.LVL55:
  59:src/kernel/Riscv.cpp **** 
 640              		.loc 1 59 5 is_stmt 1
  61:src/kernel/Riscv.cpp ****     MemoryAllocator::initMemory(newStartAddr);
 641              		.loc 1 61 5
  61:src/kernel/Riscv.cpp ****     MemoryAllocator::initMemory(newStartAddr);
 642              		.loc 1 61 49 is_stmt 0
 643 0348 B7170001 		li	a5,16781312
 644 034c B304F500 		add	s1,a0,a5
 645              	.LVL56:
  62:src/kernel/Riscv.cpp **** 
 646              		.loc 1 62 5 is_stmt 1
  62:src/kernel/Riscv.cpp **** 
 647              		.loc 1 62 32 is_stmt 0
 648 0350 13850400 		mv	a0,s1
 649              	.LVL57:
 650 0354 97000000 		call	_ZN15MemoryAllocator10initMemoryEPv@plt
 650      E7800000 
 651              	.LVL58:
  64:src/kernel/Riscv.cpp ****     pcbCache = kmem_cache_create("Cache of PCBs", sizeof(PCB), nullptr, nullptr);
 652              		.loc 1 64 5 is_stmt 1
  64:src/kernel/Riscv.cpp ****     pcbCache = kmem_cache_create("Cache of PCBs", sizeof(PCB), nullptr, nullptr);
 653              		.loc 1 64 14 is_stmt 0
 654 035c B7150000 		li	a1,4096
 655 0360 93851500 		addi	a1,a1,1
 656 0364 03350900 		ld	a0,0(s2)
 657 0368 97000000 		call	_Z9kmem_initPvi@plt
 657      E7800000 
 658              	.LVL59:
  65:src/kernel/Riscv.cpp ****     semaphoreCache = kmem_cache_create("Cache of KSemaphore", sizeof(KSemaphore), nullptr, nullptr)
 659              		.loc 1 65 5 is_stmt 1
  65:src/kernel/Riscv.cpp ****     semaphoreCache = kmem_cache_create("Cache of KSemaphore", sizeof(KSemaphore), nullptr, nullptr)
 660              		.loc 1 65 33 is_stmt 0
 661 0370 93060000 		li	a3,0
 662 0374 13060000 		li	a2,0
 663 0378 93050006 		li	a1,96
 664 037c 17050000 		lla	a0,.LC0
 664      13050500 
 665 0384 97000000 		call	_Z17kmem_cache_createPKcmPFvPvES3_@plt
 665      E7800000 
 666              	.LVL60:
  65:src/kernel/Riscv.cpp ****     semaphoreCache = kmem_cache_create("Cache of KSemaphore", sizeof(KSemaphore), nullptr, nullptr)
GAS LISTING /tmp/ccHEGcEd.s 			page 22


 667              		.loc 1 65 14
 668 038c 17090000 		lla	s2,.LANCHOR0
 668      13090900 
 669 0394 2338A900 		sd	a0,16(s2)
  66:src/kernel/Riscv.cpp **** 
 670              		.loc 1 66 5 is_stmt 1
  66:src/kernel/Riscv.cpp **** 
 671              		.loc 1 66 39 is_stmt 0
 672 0398 93060000 		li	a3,0
 673 039c 13060000 		li	a2,0
 674 03a0 93058001 		li	a1,24
 675 03a4 17050000 		lla	a0,.LC1
 675      13050500 
 676 03ac 97000000 		call	_Z17kmem_cache_createPKcmPFvPvES3_@plt
 676      E7800000 
 677              	.LVL61:
  66:src/kernel/Riscv.cpp **** 
 678              		.loc 1 66 20
 679 03b4 233CA900 		sd	a0,24(s2)
  68:src/kernel/Riscv.cpp ****     KConsole::initialize();
 680              		.loc 1 68 5 is_stmt 1
  68:src/kernel/Riscv.cpp ****     KConsole::initialize();
 681              		.loc 1 68 20 is_stmt 0
 682 03b8 97000000 		call	_ZN3PCB10initializeEv@plt
 682      E7800000 
 683              	.LVL62:
  69:src/kernel/Riscv.cpp **** 
 684              		.loc 1 69 5 is_stmt 1
  69:src/kernel/Riscv.cpp **** 
 685              		.loc 1 69 25 is_stmt 0
 686 03c0 97000000 		call	_ZN8KConsole10initializeEv@plt
 686      E7800000 
 687              	.LVL63:
  71:src/kernel/Riscv.cpp ****     for(size_t i = 0; i < NUM_OF_ENTRIES;i++)
 688              		.loc 1 71 5 is_stmt 1
  71:src/kernel/Riscv.cpp ****     for(size_t i = 0; i < NUM_OF_ENTRIES;i++)
 689              		.loc 1 71 26 is_stmt 0
 690 03c8 13051000 		li	a0,1
 691 03cc 97000000 		call	_Z11buddy_allocm@plt
 691      E7800000 
 692              	.LVL64:
  71:src/kernel/Riscv.cpp ****     for(size_t i = 0; i < NUM_OF_ENTRIES;i++)
 693              		.loc 1 71 13
 694 03d4 2334A900 		sd	a0,8(s2)
  72:src/kernel/Riscv.cpp ****         ((size_t*)mainPMT)[i] = 0;
 695              		.loc 1 72 5 is_stmt 1
 696              	.LVL65:
 697              	.LBB59:
  72:src/kernel/Riscv.cpp ****         ((size_t*)mainPMT)[i] = 0;
 698              		.loc 1 72 16 is_stmt 0
 699 03d8 93070000 		li	a5,0
 700              	.LVL66:
 701              	.L35:
  72:src/kernel/Riscv.cpp ****         ((size_t*)mainPMT)[i] = 0;
 702              		.loc 1 72 25 is_stmt 1 discriminator 3
 703 03dc 1307F01F 		li	a4,511
 704 03e0 6360F702 		bgtu	a5,a4,.L34
GAS LISTING /tmp/ccHEGcEd.s 			page 23


  73:src/kernel/Riscv.cpp **** 
 705              		.loc 1 73 9 discriminator 2
  73:src/kernel/Riscv.cpp **** 
 706              		.loc 1 73 29 is_stmt 0 discriminator 2
 707 03e4 93963700 		slli	a3,a5,3
 708 03e8 17070000 		ld	a4,.LANCHOR0+8
 708      03370700 
 709 03f0 3307D700 		add	a4,a4,a3
  73:src/kernel/Riscv.cpp **** 
 710              		.loc 1 73 31 discriminator 2
 711 03f4 23300700 		sd	zero,0(a4)
  72:src/kernel/Riscv.cpp ****         ((size_t*)mainPMT)[i] = 0;
 712              		.loc 1 72 5 is_stmt 1 discriminator 2
 713 03f8 93871700 		addi	a5,a5,1
 714              	.LVL67:
 715 03fc 6FF01FFE 		j	.L35
 716              	.L34:
 717              	.LBE59:
  75:src/kernel/Riscv.cpp **** 
 718              		.loc 1 75 5
  75:src/kernel/Riscv.cpp **** 
 719              		.loc 1 75 33 is_stmt 0
 720 0400 17090000 		lla	s2,.LANCHOR0
 720      13090900 
 721 0408 13060001 		li	a2,16
 722 040c 83358900 		ld	a1,8(s2)
 723 0410 17050000 		lla	a0,.LC2
 723      13050500 
 724 0418 97000000 		call	_ZN8KConsole18trapPrintStringIntEPKcmi@plt
 724      E7800000 
 725              	.LVL68:
  77:src/kernel/Riscv.cpp ****     uint64 kDataStart = (uint64)(&kernelDataStart);
 726              		.loc 1 77 5 is_stmt 1
  77:src/kernel/Riscv.cpp ****     uint64 kDataStart = (uint64)(&kernelDataStart);
 727              		.loc 1 77 12 is_stmt 0
 728 0420 170B0000 		la	s6,kernelTextStart
 728      033B0B00 
 729              	.LVL69:
  78:src/kernel/Riscv.cpp ****     uint64 uTextStart = (uint64)(&userTextStart);
 730              		.loc 1 78 5 is_stmt 1
  78:src/kernel/Riscv.cpp ****     uint64 uTextStart = (uint64)(&userTextStart);
 731              		.loc 1 78 12 is_stmt 0
 732 0428 970A0000 		la	s5,kernelDataStart
 732      83BA0A00 
 733              	.LVL70:
  79:src/kernel/Riscv.cpp ****     uint64 uDataStart = (uint64)(&userDataStart);
 734              		.loc 1 79 5 is_stmt 1
  79:src/kernel/Riscv.cpp ****     uint64 uDataStart = (uint64)(&userDataStart);
 735              		.loc 1 79 12 is_stmt 0
 736 0430 97090000 		la	s3,userTextStart
 736      83B90900 
 737              	.LVL71:
  80:src/kernel/Riscv.cpp **** 
 738              		.loc 1 80 5 is_stmt 1
  80:src/kernel/Riscv.cpp **** 
 739              		.loc 1 80 12 is_stmt 0
 740 0438 170A0000 		la	s4,userDataStart
GAS LISTING /tmp/ccHEGcEd.s 			page 24


 740      033A0A00 
 741              	.LVL72:
  82:src/kernel/Riscv.cpp ****     setVirtualAddrRange(kTextStart, kDataStart,KERNEL_RX); // kernel instructions
 742              		.loc 1 82 5 is_stmt 1
  82:src/kernel/Riscv.cpp ****     setVirtualAddrRange(kTextStart, kDataStart,KERNEL_RX); // kernel instructions
 743              		.loc 1 82 24 is_stmt 0
 744 0440 1306B000 		li	a2,11
 745 0444 93050B00 		mv	a1,s6
 746 0448 17050000 		ld	a0,.LANCHOR1
 746      03350500 
 747 0450 97000000 		call	_ZN5Riscv19setVirtualAddrRangeEmmi
 747      E7800000 
 748              	.LVL73:
  83:src/kernel/Riscv.cpp ****     setVirtualAddrRange((size_t)(&kernelDataStart), uTextStart, KERNEL_RW); // kernel data
 749              		.loc 1 83 5 is_stmt 1
  83:src/kernel/Riscv.cpp ****     setVirtualAddrRange((size_t)(&kernelDataStart), uTextStart, KERNEL_RW); // kernel data
 750              		.loc 1 83 24 is_stmt 0
 751 0458 1306B000 		li	a2,11
 752 045c 93850A00 		mv	a1,s5
 753 0460 13050B00 		mv	a0,s6
 754 0464 97000000 		call	_ZN5Riscv19setVirtualAddrRangeEmmi
 754      E7800000 
 755              	.LVL74:
  84:src/kernel/Riscv.cpp ****     setVirtualAddrRange((size_t)(&userTextStart), uDataStart, USER_RX); //user instructions
 756              		.loc 1 84 5 is_stmt 1
  84:src/kernel/Riscv.cpp ****     setVirtualAddrRange((size_t)(&userTextStart), uDataStart, USER_RX); //user instructions
 757              		.loc 1 84 24 is_stmt 0
 758 046c 13067000 		li	a2,7
 759 0470 93850900 		mv	a1,s3
 760 0474 13850A00 		mv	a0,s5
 761 0478 97000000 		call	_ZN5Riscv19setVirtualAddrRangeEmmi
 761      E7800000 
 762              	.LVL75:
  85:src/kernel/Riscv.cpp ****     setVirtualAddrRange((size_t)(&userDataStart), (size_t)HEAP_START_ADDR, USER_RW); // user data
 763              		.loc 1 85 5 is_stmt 1
  85:src/kernel/Riscv.cpp ****     setVirtualAddrRange((size_t)(&userDataStart), (size_t)HEAP_START_ADDR, USER_RW); // user data
 764              		.loc 1 85 24 is_stmt 0
 765 0480 1306B001 		li	a2,27
 766 0484 93050A00 		mv	a1,s4
 767 0488 13850900 		mv	a0,s3
 768 048c 97000000 		call	_ZN5Riscv19setVirtualAddrRangeEmmi
 768      E7800000 
 769              	.LVL76:
  86:src/kernel/Riscv.cpp ****     setVirtualAddrRange((size_t)HEAP_START_ADDR, (size_t)newStartAddr, KERNEL_RW); // kernel heap d
 770              		.loc 1 86 5 is_stmt 1
  86:src/kernel/Riscv.cpp ****     setVirtualAddrRange((size_t)HEAP_START_ADDR, (size_t)newStartAddr, KERNEL_RW); // kernel heap d
 771              		.loc 1 86 24 is_stmt 0
 772 0494 97090000 		la	s3,HEAP_START_ADDR
 772      83B90900 
 773 049c 13067001 		li	a2,23
 774 04a0 83B50900 		ld	a1,0(s3)
 775 04a4 13050A00 		mv	a0,s4
 776 04a8 97000000 		call	_ZN5Riscv19setVirtualAddrRangeEmmi
 776      E7800000 
 777              	.LVL77:
  87:src/kernel/Riscv.cpp ****     setVirtualAddrRange((size_t)newStartAddr, (size_t)HEAP_END_ADDR + 1,USER_RW); // user heap data
 778              		.loc 1 87 5 is_stmt 1
GAS LISTING /tmp/ccHEGcEd.s 			page 25


  87:src/kernel/Riscv.cpp ****     setVirtualAddrRange((size_t)newStartAddr, (size_t)HEAP_END_ADDR + 1,USER_RW); // user heap data
 779              		.loc 1 87 24 is_stmt 0
 780 04b0 13067000 		li	a2,7
 781 04b4 93850400 		mv	a1,s1
 782 04b8 03B50900 		ld	a0,0(s3)
 783 04bc 97000000 		call	_ZN5Riscv19setVirtualAddrRangeEmmi
 783      E7800000 
 784              	.LVL78:
  88:src/kernel/Riscv.cpp **** 
 785              		.loc 1 88 5 is_stmt 1
  88:src/kernel/Riscv.cpp **** 
 786              		.loc 1 88 24 is_stmt 0
 787 04c4 97070000 		la	a5,HEAP_END_ADDR
 787      83B70700 
 788 04cc 83B50700 		ld	a1,0(a5)
 789 04d0 13067001 		li	a2,23
 790 04d4 93851500 		addi	a1,a1,1
 791 04d8 13850400 		mv	a0,s1
 792 04dc 97000000 		call	_ZN5Riscv19setVirtualAddrRangeEmmi
 792      E7800000 
 793              	.LVL79:
  90:src/kernel/Riscv.cpp ****     setVirtualAddr((size_t)CONSOLE_TX_DATA,0x1,0xf);
 794              		.loc 1 90 5 is_stmt 1
  90:src/kernel/Riscv.cpp ****     setVirtualAddr((size_t)CONSOLE_TX_DATA,0x1,0xf);
 795              		.loc 1 90 19 is_stmt 0
 796 04e4 1306F000 		li	a2,15
 797 04e8 93051000 		li	a1,1
 798 04ec 97070000 		la	a5,CONSOLE_RX_DATA
 798      83B70700 
 799 04f4 03B50700 		ld	a0,0(a5)
 800 04f8 97000000 		call	_ZN5Riscv14setVirtualAddrEmmm
 800      E7800000 
 801              	.LVL80:
  91:src/kernel/Riscv.cpp ****     setVirtualAddr((size_t)CONSOLE_STATUS,0x1,0xf);
 802              		.loc 1 91 5 is_stmt 1
  91:src/kernel/Riscv.cpp ****     setVirtualAddr((size_t)CONSOLE_STATUS,0x1,0xf);
 803              		.loc 1 91 19 is_stmt 0
 804 0500 1306F000 		li	a2,15
 805 0504 93051000 		li	a1,1
 806 0508 97070000 		la	a5,CONSOLE_TX_DATA
 806      83B70700 
 807 0510 03B50700 		ld	a0,0(a5)
 808 0514 97000000 		call	_ZN5Riscv14setVirtualAddrEmmm
 808      E7800000 
 809              	.LVL81:
  92:src/kernel/Riscv.cpp ****     setVirtualAddr(0xc201004,0x1,0xf);
 810              		.loc 1 92 5 is_stmt 1
  92:src/kernel/Riscv.cpp ****     setVirtualAddr(0xc201004,0x1,0xf);
 811              		.loc 1 92 19 is_stmt 0
 812 051c 1306F000 		li	a2,15
 813 0520 93051000 		li	a1,1
 814 0524 97070000 		la	a5,CONSOLE_STATUS
 814      83B70700 
 815 052c 03B50700 		ld	a0,0(a5)
 816 0530 97000000 		call	_ZN5Riscv14setVirtualAddrEmmm
 816      E7800000 
 817              	.LVL82:
GAS LISTING /tmp/ccHEGcEd.s 			page 26


  93:src/kernel/Riscv.cpp **** 
 818              		.loc 1 93 5 is_stmt 1
  93:src/kernel/Riscv.cpp **** 
 819              		.loc 1 93 19 is_stmt 0
 820 0538 1306F000 		li	a2,15
 821 053c 93051000 		li	a1,1
 822 0540 3715200C 		li	a0,203427840
 823 0544 13054500 		addi	a0,a0,4
 824 0548 97000000 		call	_ZN5Riscv14setVirtualAddrEmmm
 824      E7800000 
 825              	.LVL83:
  95:src/kernel/Riscv.cpp ****     size_t satp = ((size_t)1 << 63) | ((size_t)mainPMT >> 12);
 826              		.loc 1 95 5 is_stmt 1
 827              	.LBB60:
 828              	.LBB61:
 205:src/kernel/../../h/Riscv.hpp **** }
 829              		.loc 2 205 5
 205:src/kernel/../../h/Riscv.hpp **** }
 830              		.loc 2 205 54 is_stmt 0
 831 0550 B7070400 		li	a5,262144
 832              	#APP
 833              	# 205 "src/kernel/../../h/Riscv.hpp" 1
 834              		csrs sstatus, a5
 835              	# 0 "" 2
 836              	.LVL84:
 837              	#NO_APP
 838              	.LBE61:
 839              	.LBE60:
  96:src/kernel/Riscv.cpp ****     __asm__ volatile("csrw satp, %0" : :"r"(satp));
 840              		.loc 1 96 5 is_stmt 1
  96:src/kernel/Riscv.cpp ****     __asm__ volatile("csrw satp, %0" : :"r"(satp));
 841              		.loc 1 96 56 is_stmt 0
 842 0558 83378900 		ld	a5,8(s2)
 843 055c 93D7C700 		srli	a5,a5,12
  96:src/kernel/Riscv.cpp ****     __asm__ volatile("csrw satp, %0" : :"r"(satp));
 844              		.loc 1 96 12
 845 0560 1307F0FF 		li	a4,-1
 846 0564 1317F703 		slli	a4,a4,63
 847 0568 B3E7E700 		or	a5,a5,a4
 848              	.LVL85:
  97:src/kernel/Riscv.cpp **** }
 849              		.loc 1 97 5 is_stmt 1
  97:src/kernel/Riscv.cpp **** }
 850              		.loc 1 97 51 is_stmt 0
 851              	#APP
 852              	# 97 "src/kernel/Riscv.cpp" 1
  98:src/kernel/Riscv.cpp **** 
 853              		csrw satp, a5
 854              	# 0 "" 2
 855              		.loc 1 98 1
 856              	#NO_APP
 857 0570 83308103 		ld	ra,56(sp)
 858              		.cfi_restore 1
 859 0574 03340103 		ld	s0,48(sp)
 860              		.cfi_restore 8
 861              		.cfi_def_cfa 2, 64
 862 0578 83348102 		ld	s1,40(sp)
GAS LISTING /tmp/ccHEGcEd.s 			page 27


 863              		.cfi_restore 9
 864              	.LVL86:
 865 057c 03390102 		ld	s2,32(sp)
 866              		.cfi_restore 18
 867 0580 83398101 		ld	s3,24(sp)
 868              		.cfi_restore 19
 869 0584 033A0101 		ld	s4,16(sp)
 870              		.cfi_restore 20
 871 0588 833A8100 		ld	s5,8(sp)
 872              		.cfi_restore 21
 873 058c 033B0100 		ld	s6,0(sp)
 874              		.cfi_restore 22
 875 0590 13010104 		addi	sp,sp,64
 876              		.cfi_def_cfa_offset 0
 877 0594 67800000 		jr	ra
 878              		.cfi_endproc
 879              	.LFE29:
 881              		.align	2
 882              		.globl	_ZN5Riscv10kernelMainEv
 884              	_ZN5Riscv10kernelMainEv:
 885              	.LFB30:
 101:src/kernel/Riscv.cpp ****     if(kernelMainCalled) return;
 886              		.loc 1 101 1 is_stmt 1
 887              		.cfi_startproc
 102:src/kernel/Riscv.cpp ****     kernelMainCalled = true;
 888              		.loc 1 102 5
 889 0598 97070000 		lbu	a5,.LANCHOR0+32
 889      83C70700 
 890 05a0 63840700 		beqz	a5,.L45
 891 05a4 67800000 		ret
 892              	.L45:
 101:src/kernel/Riscv.cpp ****     if(kernelMainCalled) return;
 893              		.loc 1 101 1 is_stmt 0
 894 05a8 130101FF 		addi	sp,sp,-16
 895              		.cfi_def_cfa_offset 16
 896 05ac 23341100 		sd	ra,8(sp)
 897 05b0 23308100 		sd	s0,0(sp)
 898              		.cfi_offset 1, -8
 899              		.cfi_offset 8, -16
 900 05b4 13040101 		addi	s0,sp,16
 901              		.cfi_def_cfa 8, 0
 103:src/kernel/Riscv.cpp **** 
 902              		.loc 1 103 5 is_stmt 1
 103:src/kernel/Riscv.cpp **** 
 903              		.loc 1 103 22 is_stmt 0
 904 05b8 93071000 		li	a5,1
 905 05bc 17070000 		sb	a5,.LANCHOR0+32,a4
 905      2300F700 
 105:src/kernel/Riscv.cpp **** 
 906              		.loc 1 105 5 is_stmt 1
 105:src/kernel/Riscv.cpp **** 
 907              		.loc 1 105 15 is_stmt 0
 908 05c4 97000000 		call	_ZN5Riscv10initSystemEv
 908      E7800000 
 909              	.LVL87:
 109:src/kernel/Riscv.cpp **** 
 910              		.loc 1 109 5 is_stmt 1
GAS LISTING /tmp/ccHEGcEd.s 			page 28


 109:src/kernel/Riscv.cpp **** 
 911              		.loc 1 109 21 is_stmt 0
 912 05cc 97000000 		call	_ZN5Riscv16enableInterruptsEv
 912      E7800000 
 913              	.LVL88:
 914              	.L40:
 111:src/kernel/Riscv.cpp ****     {
 915              		.loc 1 111 5 is_stmt 1
 111:src/kernel/Riscv.cpp ****     {
 916              		.loc 1 111 11
 111:src/kernel/Riscv.cpp ****     {
 917              		.loc 1 111 36 is_stmt 0
 918 05d4 97070000 		la	a5,_ZN3PCB7userPCBE
 918      83B70700 
 919 05dc 03B50700 		ld	a0,0(a5)
 920 05e0 97000000 		call	_ZN3PCB10isFinishedEv@plt
 920      E7800000 
 921              	.LVL89:
 111:src/kernel/Riscv.cpp ****     {
 922              		.loc 1 111 11
 923 05e8 63180500 		bnez	a0,.L39
 113:src/kernel/Riscv.cpp ****     }
 924              		.loc 1 113 9 is_stmt 1
 113:src/kernel/Riscv.cpp ****     }
 925              		.loc 1 113 31 is_stmt 0
 926 05ec 97000000 		call	_Z22thread_dispatch_kernelv@plt
 926      E7800000 
 927              	.LVL90:
 111:src/kernel/Riscv.cpp ****     {
 928              		.loc 1 111 5
 929 05f4 6FF01FFE 		j	.L40
 930              	.L39:
 116:src/kernel/Riscv.cpp **** }
 931              		.loc 1 116 5 is_stmt 1
 116:src/kernel/Riscv.cpp **** }
 932              		.loc 1 116 14 is_stmt 0
 933 05f8 97000000 		call	_ZN5Riscv9endSystemEv
 933      E7800000 
 934              	.LVL91:
 117:src/kernel/Riscv.cpp **** 
 935              		.loc 1 117 1
 936 0600 83308100 		ld	ra,8(sp)
 937              		.cfi_restore 1
 938 0604 03340100 		ld	s0,0(sp)
 939              		.cfi_restore 8
 940              		.cfi_def_cfa 2, 16
 941 0608 13010101 		addi	sp,sp,16
 942              		.cfi_def_cfa_offset 0
 943 060c 67800000 		jr	ra
 944              		.cfi_endproc
 945              	.LFE30:
 947              		.align	2
 948              		.globl	_ZN5Riscv14addVirtualAddrEm
 950              	_ZN5Riscv14addVirtualAddrEm:
 951              	.LFB36:
 208:src/kernel/Riscv.cpp **** 
 209:src/kernel/Riscv.cpp **** void Riscv::addVirtualAddr(size_t addr)
GAS LISTING /tmp/ccHEGcEd.s 			page 29


 210:src/kernel/Riscv.cpp **** {
 952              		.loc 1 210 1 is_stmt 1
 953              		.cfi_startproc
 954              	.LVL92:
 955 0610 130101FF 		addi	sp,sp,-16
 956              		.cfi_def_cfa_offset 16
 957 0614 23341100 		sd	ra,8(sp)
 958 0618 23308100 		sd	s0,0(sp)
 959              		.cfi_offset 1, -8
 960              		.cfi_offset 8, -16
 961 061c 13040101 		addi	s0,sp,16
 962              		.cfi_def_cfa 8, 0
 211:src/kernel/Riscv.cpp ****     setVirtualAddr(addr, 0x1, 0xf);
 963              		.loc 1 211 5
 964              		.loc 1 211 19 is_stmt 0
 965 0620 1306F000 		li	a2,15
 966 0624 93051000 		li	a1,1
 967 0628 97000000 		call	_ZN5Riscv14setVirtualAddrEmmm
 967      E7800000 
 968              	.LVL93:
 212:src/kernel/Riscv.cpp **** }
 969              		.loc 1 212 1
 970 0630 83308100 		ld	ra,8(sp)
 971              		.cfi_restore 1
 972 0634 03340100 		ld	s0,0(sp)
 973              		.cfi_restore 8
 974              		.cfi_def_cfa 2, 16
 975 0638 13010101 		addi	sp,sp,16
 976              		.cfi_def_cfa_offset 0
 977 063c 67800000 		jr	ra
 978              		.cfi_endproc
 979              	.LFE36:
 981              		.align	2
 982              		.globl	_ZN5Riscv19addVirtualAddrInstrEm
 984              	_ZN5Riscv19addVirtualAddrInstrEm:
 985              	.LFB37:
 213:src/kernel/Riscv.cpp **** 
 214:src/kernel/Riscv.cpp **** void Riscv::addVirtualAddrInstr(size_t addr)
 215:src/kernel/Riscv.cpp **** {
 986              		.loc 1 215 1 is_stmt 1
 987              		.cfi_startproc
 988              	.LVL94:
 989 0640 130101FF 		addi	sp,sp,-16
 990              		.cfi_def_cfa_offset 16
 991 0644 23341100 		sd	ra,8(sp)
 992 0648 23308100 		sd	s0,0(sp)
 993              		.cfi_offset 1, -8
 994              		.cfi_offset 8, -16
 995 064c 13040101 		addi	s0,sp,16
 996              		.cfi_def_cfa 8, 0
 216:src/kernel/Riscv.cpp ****     setVirtualAddr(addr, 0x1, 0xf);
 997              		.loc 1 216 5
 998              		.loc 1 216 19 is_stmt 0
 999 0650 1306F000 		li	a2,15
 1000 0654 93051000 		li	a1,1
 1001 0658 97000000 		call	_ZN5Riscv14setVirtualAddrEmmm
 1001      E7800000 
GAS LISTING /tmp/ccHEGcEd.s 			page 30


 1002              	.LVL95:
 217:src/kernel/Riscv.cpp **** }
 1003              		.loc 1 217 1
 1004 0660 83308100 		ld	ra,8(sp)
 1005              		.cfi_restore 1
 1006 0664 03340100 		ld	s0,0(sp)
 1007              		.cfi_restore 8
 1008              		.cfi_def_cfa 2, 16
 1009 0668 13010101 		addi	sp,sp,16
 1010              		.cfi_def_cfa_offset 0
 1011 066c 67800000 		jr	ra
 1012              		.cfi_endproc
 1013              	.LFE37:
 1015              		.align	2
 1016              		.globl	_ZN5Riscv22disableTimerInterruptsEv
 1018              	_ZN5Riscv22disableTimerInterruptsEv:
 1019              	.LFB38:
 218:src/kernel/Riscv.cpp **** 
 219:src/kernel/Riscv.cpp **** void Riscv::disableTimerInterrupts()
 220:src/kernel/Riscv.cpp **** {
 1020              		.loc 1 220 1 is_stmt 1
 1021              		.cfi_startproc
 1022 0670 130101FF 		addi	sp,sp,-16
 1023              		.cfi_def_cfa_offset 16
 1024 0674 23348100 		sd	s0,8(sp)
 1025              		.cfi_offset 8, -8
 1026 0678 13040101 		addi	s0,sp,16
 1027              		.cfi_def_cfa 8, 0
 221:src/kernel/Riscv.cpp ****     uint64 x = 0x2;
 1028              		.loc 1 221 5
 1029              	.LVL96:
 222:src/kernel/Riscv.cpp ****     __asm__ volatile("csrc sie, %0"::"r"(x));
 1030              		.loc 1 222 5
 1031              		.loc 1 222 45 is_stmt 0
 1032 067c 93072000 		li	a5,2
 1033              	#APP
 1034              	# 222 "src/kernel/Riscv.cpp" 1
 223              	}
 1035              		csrc sie, a5
 1036              	# 0 "" 2
 1037              		.loc 1 223 1
 1038              	#NO_APP
 1039 0684 03348100 		ld	s0,8(sp)
 1040              		.cfi_restore 8
 1041              		.cfi_def_cfa 2, 16
 1042 0688 13010101 		addi	sp,sp,16
 1043              		.cfi_def_cfa_offset 0
 1044 068c 67800000 		jr	ra
 1045              		.cfi_endproc
 1046              	.LFE38:
 1048              		.align	2
 1049              		.globl	_ZN5Riscv13w_a0_sscratchEv
 1051              	_ZN5Riscv13w_a0_sscratchEv:
 1052              	.LFB39:
 224:src/kernel/Riscv.cpp **** 
 225:src/kernel/Riscv.cpp **** void Riscv::w_a0_sscratch()
 226:src/kernel/Riscv.cpp **** {
GAS LISTING /tmp/ccHEGcEd.s 			page 31


 1053              		.loc 1 226 1 is_stmt 1
 1054              		.cfi_startproc
 1055 0690 130101FF 		addi	sp,sp,-16
 1056              		.cfi_def_cfa_offset 16
 1057 0694 23348100 		sd	s0,8(sp)
 1058              		.cfi_offset 8, -8
 1059 0698 13040101 		addi	s0,sp,16
 1060              		.cfi_def_cfa 8, 0
 227:src/kernel/Riscv.cpp ****     uint64 a1Temp;
 1061              		.loc 1 227 5
 228:src/kernel/Riscv.cpp ****     __asm__ volatile("mv %0, a1":"=r"(a1Temp));
 1062              		.loc 1 228 5
 1063              		.loc 1 228 47 is_stmt 0
 1064              	#APP
 1065              	# 228 "src/kernel/Riscv.cpp" 1
 229              	    __asm__ volatile("mv a1, %0"::"r"(PCB::running->sscratch));
 1066              		mv a5, a1
 1067              	# 0 "" 2
 1068              	.LVL97:
 1069              		.loc 1 229 5 is_stmt 1
 1070              		.loc 1 229 53 is_stmt 0
 1071              	#NO_APP
 1072 06a0 17070000 		la	a4,_ZN3PCB7runningE
 1072      03370700 
 1073 06a8 03370700 		ld	a4,0(a4)
 1074 06ac 03370701 		ld	a4,16(a4)
 1075              		.loc 1 229 63
 1076              	#APP
 1077              	# 229 "src/kernel/Riscv.cpp" 1
 230              	    __asm__ volatile("sd a0, 80(a1)");
 1078              		mv a1, a4
 1079              	# 0 "" 2
 1080              		.loc 1 230 5 is_stmt 1
 1081              		.loc 1 230 38 is_stmt 0
 1082              	# 230 "src/kernel/Riscv.cpp" 1
 231              	    __asm__ volatile("mv a1,%0"::"r"(a1Temp));
 1083              		sd a0, 80(a1)
 1084              	# 0 "" 2
 1085              		.loc 1 231 5 is_stmt 1
 1086              		.loc 1 231 46 is_stmt 0
 1087              	# 231 "src/kernel/Riscv.cpp" 1
 232              	}
 1088              		mv a1,a5
 1089              	# 0 "" 2
 1090              		.loc 1 232 1
 1091              	#NO_APP
 1092 06bc 03348100 		ld	s0,8(sp)
 1093              		.cfi_restore 8
 1094              		.cfi_def_cfa 2, 16
 1095 06c0 13010101 		addi	sp,sp,16
 1096              		.cfi_def_cfa_offset 0
 1097 06c4 67800000 		jr	ra
 1098              		.cfi_endproc
 1099              	.LFE39:
 1101              		.align	2
 1102              		.globl	_ZN5Riscv14changePrivModeEv
 1104              	_ZN5Riscv14changePrivModeEv:
GAS LISTING /tmp/ccHEGcEd.s 			page 32


 1105              	.LFB40:
 233:src/kernel/Riscv.cpp **** 
 234:src/kernel/Riscv.cpp **** void Riscv::changePrivMode()
 235:src/kernel/Riscv.cpp **** {
 1106              		.loc 1 235 1 is_stmt 1
 1107              		.cfi_startproc
 1108 06c8 130101FF 		addi	sp,sp,-16
 1109              		.cfi_def_cfa_offset 16
 1110 06cc 23348100 		sd	s0,8(sp)
 1111              		.cfi_offset 8, -8
 1112 06d0 13040101 		addi	s0,sp,16
 1113              		.cfi_def_cfa 8, 0
 236:src/kernel/Riscv.cpp ****     if(PCB::running->systemThread)
 1114              		.loc 1 236 5
 1115              		.loc 1 236 22 is_stmt 0
 1116 06d4 97070000 		la	a5,_ZN3PCB7runningE
 1116      83B70700 
 1117 06dc 83B70700 		ld	a5,0(a5)
 1118 06e0 83C70700 		lbu	a5,0(a5)
 1119              		.loc 1 236 5
 1120 06e4 638C0700 		beqz	a5,.L55
 237:src/kernel/Riscv.cpp ****         Riscv::ms_sstatus(Riscv::SSTATUS_SPP);
 1121              		.loc 1 237 9 is_stmt 1
 1122              	.LVL98:
 1123              	.LBB62:
 1124              	.LBB63:
 205:src/kernel/../../h/Riscv.hpp **** }
 1125              		.loc 2 205 5
 205:src/kernel/../../h/Riscv.hpp **** }
 1126              		.loc 2 205 54 is_stmt 0
 1127 06e8 93070010 		li	a5,256
 1128              	#APP
 1129              	# 205 "src/kernel/../../h/Riscv.hpp" 1
 1130              		csrs sstatus, a5
 1131              	# 0 "" 2
 1132              	.LVL99:
 1133              	#NO_APP
 1134              	.L54:
 1135              	.LBE63:
 1136              	.LBE62:
 238:src/kernel/Riscv.cpp ****     else
 239:src/kernel/Riscv.cpp ****         Riscv::mc_sstatus(Riscv::SSTATUS_SPP);
 240:src/kernel/Riscv.cpp **** }
 1137              		.loc 1 240 1
 1138 06f0 03348100 		ld	s0,8(sp)
 1139              		.cfi_remember_state
 1140              		.cfi_restore 8
 1141              		.cfi_def_cfa 2, 16
 1142 06f4 13010101 		addi	sp,sp,16
 1143              		.cfi_def_cfa_offset 0
 1144 06f8 67800000 		jr	ra
 1145              	.L55:
 1146              		.cfi_restore_state
 239:src/kernel/Riscv.cpp **** }
 1147              		.loc 1 239 9 is_stmt 1
 1148              	.LVL100:
 1149              	.LBB64:
GAS LISTING /tmp/ccHEGcEd.s 			page 33


 1150              	.LBB65:
 209:src/kernel/../../h/Riscv.hpp **** }
 1151              		.loc 2 209 5
 209:src/kernel/../../h/Riscv.hpp **** }
 1152              		.loc 2 209 54 is_stmt 0
 1153 06fc 93070010 		li	a5,256
 1154              	#APP
 1155              	# 209 "src/kernel/../../h/Riscv.hpp" 1
 1156              		csrc sstatus, a5
 1157              	# 0 "" 2
 1158              	.LVL101:
 1159              	#NO_APP
 1160              	.LBE65:
 1161              	.LBE64:
 1162              		.loc 1 240 1
 1163 0704 6FF0DFFE 		j	.L54
 1164              		.cfi_endproc
 1165              	.LFE40:
 1167              		.align	2
 1168              		.globl	_ZN5Riscv20handleSupervisorTrapEv
 1170              	_ZN5Riscv20handleSupervisorTrapEv:
 1171              	.LFB41:
 241:src/kernel/Riscv.cpp **** 
 242:src/kernel/Riscv.cpp **** void Riscv::handleSupervisorTrap()
 243:src/kernel/Riscv.cpp **** {
 1172              		.loc 1 243 1 is_stmt 1
 1173              		.cfi_startproc
 1174 0708 130101F9 		addi	sp,sp,-112
 1175              		.cfi_def_cfa_offset 112
 1176 070c 23341106 		sd	ra,104(sp)
 1177 0710 23308106 		sd	s0,96(sp)
 1178 0714 233C9104 		sd	s1,88(sp)
 1179              		.cfi_offset 1, -8
 1180              		.cfi_offset 8, -16
 1181              		.cfi_offset 9, -24
 1182 0718 13040107 		addi	s0,sp,112
 1183              		.cfi_def_cfa 8, 0
 244:src/kernel/Riscv.cpp ****     __asm__ volatile("mv %0, a4" : "=r"(PCB::savedRegA4));
 1184              		.loc 1 244 5
 1185              		.loc 1 244 58 is_stmt 0
 1186              	#APP
 1187              	# 244 "src/kernel/Riscv.cpp" 1
 245              	    __asm__ volatile("csrr %0, sscratch":"=r"(PCB::running->sscratch));
 1188              		mv a4, a4
 1189              	# 0 "" 2
 1190              	#NO_APP
 1191 0720 97070000 		la	a5,_ZN3PCB10savedRegA4E
 1191      83B70700 
 1192 0728 23B0E700 		sd	a4,0(a5)
 1193              		.loc 1 245 5 is_stmt 1
 1194              		.loc 1 245 61 is_stmt 0
 1195 072c 97070000 		la	a5,_ZN3PCB7runningE
 1195      83B70700 
 1196 0734 83B70700 		ld	a5,0(a5)
 1197              		.loc 1 245 71
 1198              	#APP
 1199              	# 245 "src/kernel/Riscv.cpp" 1
GAS LISTING /tmp/ccHEGcEd.s 			page 34


 246              	
 1200              		csrr a4, sscratch
 1201              	# 0 "" 2
 1202              	#NO_APP
 1203 073c 23B8E700 		sd	a4,16(a5)
 247:src/kernel/Riscv.cpp ****     uint64 scause = Riscv::r_scause();
 1204              		.loc 1 247 5 is_stmt 1
 1205              	.LBB66:
 1206              	.LBB67:
 130:src/kernel/../../h/Riscv.hpp ****     __asm__ volatile("csrr %0, scause" : "=r"(scause));
 1207              		.loc 2 130 5
 131:src/kernel/../../h/Riscv.hpp ****     return scause;
 1208              		.loc 2 131 5
 131:src/kernel/../../h/Riscv.hpp ****     return scause;
 1209              		.loc 2 131 55 is_stmt 0
 1210              	#APP
 1211              	# 131 "src/kernel/../../h/Riscv.hpp" 1
 1212              		csrr a5, scause
 1213              	# 0 "" 2
 1214              	#NO_APP
 1215 0744 233CF4FA 		sd	a5,-72(s0)
 132:src/kernel/../../h/Riscv.hpp **** }
 1216              		.loc 2 132 5 is_stmt 1
 132:src/kernel/../../h/Riscv.hpp **** }
 1217              		.loc 2 132 12 is_stmt 0
 1218 0748 833784FB 		ld	a5,-72(s0)
 1219              	.LVL102:
 1220              	.LBE67:
 1221              	.LBE66:
 248:src/kernel/Riscv.cpp **** 
 249:src/kernel/Riscv.cpp ****     static const size_t storePF = 15;
 1222              		.loc 1 249 5 is_stmt 1
 250:src/kernel/Riscv.cpp ****     static const size_t loadPF = 13;
 1223              		.loc 1 250 5
 251:src/kernel/Riscv.cpp ****     static const size_t instrPF = 12;
 1224              		.loc 1 251 5
 252:src/kernel/Riscv.cpp **** 
 253:src/kernel/Riscv.cpp ****     switch(scause)
 1225              		.loc 1 253 5
 1226              	.LBB68:
 1227 074c 1307F000 		li	a4,15
 1228 0750 6368F702 		bgtu	a5,a4,.L59
 1229 0754 13072000 		li	a4,2
 1230 0758 63E8E710 		bltu	a5,a4,.L58
 1231 075c 1307F000 		li	a4,15
 1232 0760 6364F710 		bgtu	a5,a4,.L58
 1233 0764 93972700 		slli	a5,a5,2
 1234              	.LVL103:
 1235 0768 17070000 		lla	a4,.L62
 1235      13070700 
 1236 0770 B387E700 		add	a5,a5,a4
 1237 0774 83A70700 		lw	a5,0(a5)
 1238 0778 B387E700 		add	a5,a5,a4
 1239 077c 67800700 		jr	a5
 1240              		.section	.rodata
 1241              		.align	2
 1242              		.align	2
GAS LISTING /tmp/ccHEGcEd.s 			page 35


 1243              	.L62:
 1244 0000 00000000 		.word	.L58-.L62
 1245 0004 00000000 		.word	.L58-.L62
 1246 0008 00000000 		.word	.L68-.L62
 1247 000c 00000000 		.word	.L58-.L62
 1248 0010 00000000 		.word	.L58-.L62
 1249 0014 00000000 		.word	.L67-.L62
 1250 0018 00000000 		.word	.L58-.L62
 1251 001c 00000000 		.word	.L66-.L62
 1252 0020 00000000 		.word	.L65-.L62
 1253 0024 00000000 		.word	.L65-.L62
 1254 0028 00000000 		.word	.L58-.L62
 1255 002c 00000000 		.word	.L58-.L62
 1256 0030 00000000 		.word	.L64-.L62
 1257 0034 00000000 		.word	.L63-.L62
 1258 0038 00000000 		.word	.L58-.L62
 1259 003c 00000000 		.word	.L61-.L62
 1260              		.text
 1261              	.LVL104:
 1262              	.L59:
 1263 0780 1307F0FF 		li	a4,-1
 1264 0784 1317F703 		slli	a4,a4,63
 1265 0788 13071700 		addi	a4,a4,1
 1266 078c 638AE704 		beq	a5,a4,.L69
 1267 0790 1307F0FF 		li	a4,-1
 1268 0794 1317F703 		slli	a4,a4,63
 1269 0798 13079700 		addi	a4,a4,9
 1270 079c 6396E70C 		bne	a5,a4,.L58
 1271              	.LBB69:
 254:src/kernel/Riscv.cpp ****     {
 255:src/kernel/Riscv.cpp ****         case storePF:
 256:src/kernel/Riscv.cpp ****         {
 257:src/kernel/Riscv.cpp ****             //size_t addrPF = 0;
 258:src/kernel/Riscv.cpp ****             //__asm__ volatile("csrr %0, stval":"=r"(addrPF));
 259:src/kernel/Riscv.cpp ****             //addVirtualAddr(addrPF);
 260:src/kernel/Riscv.cpp ****             PCB::threadExitHandler();
 261:src/kernel/Riscv.cpp ****             break;
 262:src/kernel/Riscv.cpp ****         }
 263:src/kernel/Riscv.cpp ****         case loadPF:
 264:src/kernel/Riscv.cpp ****         {
 265:src/kernel/Riscv.cpp ****             PCB::threadExitHandler();
 266:src/kernel/Riscv.cpp ****             break;
 267:src/kernel/Riscv.cpp ****         }
 268:src/kernel/Riscv.cpp ****         case instrPF:
 269:src/kernel/Riscv.cpp ****         {
 270:src/kernel/Riscv.cpp ****             PCB::threadExitHandler();
 271:src/kernel/Riscv.cpp ****             break;
 272:src/kernel/Riscv.cpp ****         }
 273:src/kernel/Riscv.cpp ****         case timerInterrupt:
 274:src/kernel/Riscv.cpp ****         {
 275:src/kernel/Riscv.cpp ****             //KConsole::trapPrintString("timerInterrupt\n");
 276:src/kernel/Riscv.cpp ****             uint64 volatile sepc = Riscv::r_sepc();
 277:src/kernel/Riscv.cpp ****             uint64 volatile sstatus = Riscv::r_sstatus();
 278:src/kernel/Riscv.cpp ****             mc_sip(Riscv::SIP_SSIP);
 279:src/kernel/Riscv.cpp ****             //static uint64 total = 0;
 280:src/kernel/Riscv.cpp ****             totalTime++;
 281:src/kernel/Riscv.cpp ****             //KConsole::trapPrintInt(totalTime);
GAS LISTING /tmp/ccHEGcEd.s 			page 36


 282:src/kernel/Riscv.cpp **** 
 283:src/kernel/Riscv.cpp ****             PCB::timeSliceCounter++;
 284:src/kernel/Riscv.cpp ****             SleepPCBList::tryToWakePCBs();
 285:src/kernel/Riscv.cpp ****             if (PCB::timeSliceCounter >= PCB::running->getTimeSlice())
 286:src/kernel/Riscv.cpp ****             {
 287:src/kernel/Riscv.cpp ****                 PCB::timeSliceCounter = 0;
 288:src/kernel/Riscv.cpp ****                 PCB::dispatch();
 289:src/kernel/Riscv.cpp ****             }
 290:src/kernel/Riscv.cpp **** 
 291:src/kernel/Riscv.cpp ****             Riscv::w_sstatus(sstatus);
 292:src/kernel/Riscv.cpp ****             Riscv::w_sepc(sepc);
 293:src/kernel/Riscv.cpp ****             changePrivMode();
 294:src/kernel/Riscv.cpp ****             break;
 295:src/kernel/Riscv.cpp ****         }
 296:src/kernel/Riscv.cpp ****         case hwInterrupt:
 1272              		.loc 1 296 9
 297:src/kernel/Riscv.cpp ****         {
 1273              		.loc 1 297 9
 298:src/kernel/Riscv.cpp ****             KConsole::getCharactersFromConsole();
 1274              		.loc 1 298 13
 1275              		.loc 1 298 47 is_stmt 0
 1276 07a0 97000000 		call	_ZN8KConsole24getCharactersFromConsoleEv@plt
 1276      E7800000 
 1277              	.LVL105:
 299:src/kernel/Riscv.cpp ****             plic_complete(plic_claim());
 1278              		.loc 1 299 13 is_stmt 1
 1279              		.loc 1 299 26 is_stmt 0
 1280 07a8 97000000 		call	plic_claim@plt
 1280      E7800000 
 1281              	.LVL106:
 1282 07b0 97000000 		call	plic_complete@plt
 1282      E7800000 
 1283              	.LVL107:
 300:src/kernel/Riscv.cpp ****             break;
 1284              		.loc 1 300 13 is_stmt 1
 1285 07b8 6F00000B 		j	.L58
 1286              	.L61:
 255:src/kernel/Riscv.cpp ****         {
 1287              		.loc 1 255 9
 256:src/kernel/Riscv.cpp ****             //size_t addrPF = 0;
 1288              		.loc 1 256 9
 260:src/kernel/Riscv.cpp ****             break;
 1289              		.loc 1 260 13
 260:src/kernel/Riscv.cpp ****             break;
 1290              		.loc 1 260 35 is_stmt 0
 1291 07bc 97000000 		call	_ZN3PCB17threadExitHandlerEv@plt
 1291      E7800000 
 1292              	.LVL108:
 261:src/kernel/Riscv.cpp ****         }
 1293              		.loc 1 261 13 is_stmt 1
 1294 07c4 6F00400A 		j	.L58
 1295              	.L63:
 263:src/kernel/Riscv.cpp ****         {
 1296              		.loc 1 263 9
 264:src/kernel/Riscv.cpp ****             PCB::threadExitHandler();
 1297              		.loc 1 264 9
 265:src/kernel/Riscv.cpp ****             break;
GAS LISTING /tmp/ccHEGcEd.s 			page 37


 1298              		.loc 1 265 13
 265:src/kernel/Riscv.cpp ****             break;
 1299              		.loc 1 265 35 is_stmt 0
 1300 07c8 97000000 		call	_ZN3PCB17threadExitHandlerEv@plt
 1300      E7800000 
 1301              	.LVL109:
 266:src/kernel/Riscv.cpp ****         }
 1302              		.loc 1 266 13 is_stmt 1
 1303 07d0 6F008009 		j	.L58
 1304              	.L64:
 268:src/kernel/Riscv.cpp ****         {
 1305              		.loc 1 268 9
 269:src/kernel/Riscv.cpp ****             PCB::threadExitHandler();
 1306              		.loc 1 269 9
 270:src/kernel/Riscv.cpp ****             break;
 1307              		.loc 1 270 13
 270:src/kernel/Riscv.cpp ****             break;
 1308              		.loc 1 270 35 is_stmt 0
 1309 07d4 97000000 		call	_ZN3PCB17threadExitHandlerEv@plt
 1309      E7800000 
 1310              	.LVL110:
 271:src/kernel/Riscv.cpp ****         }
 1311              		.loc 1 271 13 is_stmt 1
 1312 07dc 6F00C008 		j	.L58
 1313              	.LVL111:
 1314              	.L69:
 273:src/kernel/Riscv.cpp ****         {
 1315              		.loc 1 273 9
 274:src/kernel/Riscv.cpp ****             //KConsole::trapPrintString("timerInterrupt\n");
 1316              		.loc 1 274 9
 1317              	.LBB70:
 276:src/kernel/Riscv.cpp ****             uint64 volatile sstatus = Riscv::r_sstatus();
 1318              		.loc 1 276 13
 1319              	.LBB71:
 1320              	.LBB72:
 140:src/kernel/../../h/Riscv.hpp ****     __asm__ volatile("csrr %0, sepc" : "=r"(sepc));
 1321              		.loc 2 140 5
 141:src/kernel/../../h/Riscv.hpp ****     return sepc;
 1322              		.loc 2 141 5
 141:src/kernel/../../h/Riscv.hpp ****     return sepc;
 1323              		.loc 2 141 51 is_stmt 0
 1324              	#APP
 1325              	# 141 "src/kernel/../../h/Riscv.hpp" 1
 1326              		csrr a5, sepc
 1327              	# 0 "" 2
 1328              	.LVL112:
 1329              	#NO_APP
 1330 07e4 2334F4FC 		sd	a5,-56(s0)
 142:src/kernel/../../h/Riscv.hpp **** }
 1331              		.loc 2 142 5 is_stmt 1
 142:src/kernel/../../h/Riscv.hpp **** }
 1332              		.loc 2 142 12 is_stmt 0
 1333 07e8 833784FC 		ld	a5,-56(s0)
 1334              	.LBE72:
 1335              	.LBE71:
 276:src/kernel/Riscv.cpp ****             uint64 volatile sstatus = Riscv::r_sstatus();
 1336              		.loc 1 276 50
GAS LISTING /tmp/ccHEGcEd.s 			page 38


 1337 07ec 233CF4F8 		sd	a5,-104(s0)
 277:src/kernel/Riscv.cpp ****             mc_sip(Riscv::SIP_SSIP);
 1338              		.loc 1 277 13 is_stmt 1
 1339              	.LBB73:
 1340              	.LBB74:
 211:src/kernel/../../h/Riscv.hpp **** 
 212:src/kernel/../../h/Riscv.hpp **** inline uint64 Riscv::r_sstatus() {
 213:src/kernel/../../h/Riscv.hpp ****     uint64 volatile sstatus;
 1341              		.loc 2 213 5
 214:src/kernel/../../h/Riscv.hpp ****     __asm__ volatile("csrr %0, sstatus" : "=r"(sstatus));
 1342              		.loc 2 214 5
 1343              		.loc 2 214 57 is_stmt 0
 1344              	#APP
 1345              	# 214 "src/kernel/../../h/Riscv.hpp" 1
 215              	    return sstatus;
 1346              		csrr a5, sstatus
 1347              	# 0 "" 2
 1348              	#NO_APP
 1349 07f4 2330F4FC 		sd	a5,-64(s0)
 1350              		.loc 2 215 5 is_stmt 1
 1351              		.loc 2 215 12 is_stmt 0
 1352 07f8 833704FC 		ld	a5,-64(s0)
 1353              	.LBE74:
 1354              	.LBE73:
 277:src/kernel/Riscv.cpp ****             mc_sip(Riscv::SIP_SSIP);
 1355              		.loc 1 277 56
 1356 07fc 2330F4FA 		sd	a5,-96(s0)
 278:src/kernel/Riscv.cpp ****             //static uint64 total = 0;
 1357              		.loc 1 278 13 is_stmt 1
 1358              	.LVL113:
 1359              	.LBB75:
 1360              	.LBB76:
 179:src/kernel/../../h/Riscv.hpp **** }
 1361              		.loc 2 179 5
 179:src/kernel/../../h/Riscv.hpp **** }
 1362              		.loc 2 179 50 is_stmt 0
 1363 0800 93072000 		li	a5,2
 1364              	#APP
 1365              	# 179 "src/kernel/../../h/Riscv.hpp" 1
 1366              		csrc sip, a5
 1367              	# 0 "" 2
 1368              	.LVL114:
 1369              	#NO_APP
 1370              	.LBE76:
 1371              	.LBE75:
 280:src/kernel/Riscv.cpp ****             //KConsole::trapPrintInt(totalTime);
 1372              		.loc 1 280 13 is_stmt 1
 280:src/kernel/Riscv.cpp ****             //KConsole::trapPrintInt(totalTime);
 1373              		.loc 1 280 22 is_stmt 0
 1374 0808 17070000 		lla	a4,.LANCHOR0
 1374      13070700 
 1375 0810 83378702 		ld	a5,40(a4)
 1376 0814 93871700 		addi	a5,a5,1
 1377 0818 2334F702 		sd	a5,40(a4)
 283:src/kernel/Riscv.cpp ****             SleepPCBList::tryToWakePCBs();
 1378              		.loc 1 283 13 is_stmt 1
 283:src/kernel/Riscv.cpp ****             SleepPCBList::tryToWakePCBs();
GAS LISTING /tmp/ccHEGcEd.s 			page 39


 1379              		.loc 1 283 34 is_stmt 0
 1380 081c 97040000 		la	s1,_ZN3PCB16timeSliceCounterE
 1380      83B40400 
 1381 0824 83B70400 		ld	a5,0(s1)
 1382 0828 93871700 		addi	a5,a5,1
 1383 082c 23B0F400 		sd	a5,0(s1)
 284:src/kernel/Riscv.cpp ****             if (PCB::timeSliceCounter >= PCB::running->getTimeSlice())
 1384              		.loc 1 284 13 is_stmt 1
 284:src/kernel/Riscv.cpp ****             if (PCB::timeSliceCounter >= PCB::running->getTimeSlice())
 1385              		.loc 1 284 40 is_stmt 0
 1386 0830 97000000 		call	_ZN12SleepPCBList13tryToWakePCBsEv@plt
 1386      E7800000 
 1387              	.LVL115:
 285:src/kernel/Riscv.cpp ****             {
 1388              		.loc 1 285 13 is_stmt 1
 285:src/kernel/Riscv.cpp ****             {
 1389              		.loc 1 285 68 is_stmt 0
 1390 0838 97070000 		la	a5,_ZN3PCB7runningE
 1390      83B70700 
 1391 0840 83B70700 		ld	a5,0(a5)
 1392              	.LVL116:
 1393              	.LBB77:
 1394              	.LBB78:
 1395              		.file 3 "src/kernel/../../h/PCB.hpp"
   1:src/kernel/../../h/PCB.hpp **** //
   2:src/kernel/../../h/PCB.hpp **** // Created by os on 4/27/22.
   3:src/kernel/../../h/PCB.hpp **** //
   4:src/kernel/../../h/PCB.hpp **** 
   5:src/kernel/../../h/PCB.hpp **** #ifndef PROJECT_BASE_V1_0_PCB_HPP
   6:src/kernel/../../h/PCB.hpp **** #define PROJECT_BASE_V1_0_PCB_HPP
   7:src/kernel/../../h/PCB.hpp **** 
   8:src/kernel/../../h/PCB.hpp **** #include "../lib/hw.h"
   9:src/kernel/../../h/PCB.hpp **** 
  10:src/kernel/../../h/PCB.hpp **** class PCB
  11:src/kernel/../../h/PCB.hpp **** {
  12:src/kernel/../../h/PCB.hpp **** private:
  13:src/kernel/../../h/PCB.hpp ****     static uint64 savedRegA4;
  14:src/kernel/../../h/PCB.hpp **** 
  15:src/kernel/../../h/PCB.hpp ****     using Body = void (*)(void*);
  16:src/kernel/../../h/PCB.hpp **** 
  17:src/kernel/../../h/PCB.hpp ****     PCB(Body body,  void* args, void* stack_space, uint64 timeSlice);
  18:src/kernel/../../h/PCB.hpp ****     ~PCB();
  19:src/kernel/../../h/PCB.hpp **** 
  20:src/kernel/../../h/PCB.hpp ****     void start();
  21:src/kernel/../../h/PCB.hpp ****     static void dispatch();
  22:src/kernel/../../h/PCB.hpp **** 
  23:src/kernel/../../h/PCB.hpp ****     static PCB* running;
  24:src/kernel/../../h/PCB.hpp **** 
  25:src/kernel/../../h/PCB.hpp ****     static uint64 timeSliceCounter;
  26:src/kernel/../../h/PCB.hpp ****     uint64 getTimeSlice() { return timeSlice;}
 1396              		.loc 3 26 29 is_stmt 1
 1397              		.loc 3 26 36 is_stmt 0
 1398 0844 83B78701 		ld	a5,24(a5)
 1399              	.LVL117:
 1400              	.LBE78:
 1401              	.LBE77:
 285:src/kernel/Riscv.cpp ****             {
GAS LISTING /tmp/ccHEGcEd.s 			page 40


 1402              		.loc 1 285 39
 1403 0848 03B70400 		ld	a4,0(s1)
 285:src/kernel/Riscv.cpp ****             {
 1404              		.loc 1 285 13
 1405 084c 6378F702 		bgeu	a4,a5,.L91
 1406              	.L71:
 291:src/kernel/Riscv.cpp ****             Riscv::w_sepc(sepc);
 1407              		.loc 1 291 13 is_stmt 1
 291:src/kernel/Riscv.cpp ****             Riscv::w_sepc(sepc);
 1408              		.loc 1 291 29 is_stmt 0
 1409 0850 833704FA 		ld	a5,-96(s0)
 1410              	.LVL118:
 1411              	.LBB79:
 1412              	.LBB80:
 216:src/kernel/../../h/Riscv.hpp **** }
 217:src/kernel/../../h/Riscv.hpp **** 
 218:src/kernel/../../h/Riscv.hpp **** inline void Riscv::w_sstatus(uint64 sstatus) {
 219:src/kernel/../../h/Riscv.hpp ****     __asm__ volatile("csrw sstatus, %0" : :"r"(sstatus));
 1413              		.loc 2 219 5 is_stmt 1
 1414              		.loc 2 219 57 is_stmt 0
 1415              	#APP
 1416              	# 219 "src/kernel/../../h/Riscv.hpp" 1
 220              	}
 1417              		csrw sstatus, a5
 1418              	# 0 "" 2
 1419              	.LVL119:
 1420              	#NO_APP
 1421              	.LBE80:
 1422              	.LBE79:
 292:src/kernel/Riscv.cpp ****             changePrivMode();
 1423              		.loc 1 292 13 is_stmt 1
 292:src/kernel/Riscv.cpp ****             changePrivMode();
 1424              		.loc 1 292 26 is_stmt 0
 1425 0858 833784F9 		ld	a5,-104(s0)
 1426              	.LVL120:
 1427              	.LBB81:
 1428              	.LBB82:
 146:src/kernel/../../h/Riscv.hpp **** }
 1429              		.loc 2 146 5 is_stmt 1
 146:src/kernel/../../h/Riscv.hpp **** }
 1430              		.loc 2 146 51 is_stmt 0
 1431              	#APP
 1432              	# 146 "src/kernel/../../h/Riscv.hpp" 1
 1433              		csrw sepc, a5
 1434              	# 0 "" 2
 1435              	.LVL121:
 1436              	#NO_APP
 1437              	.LBE82:
 1438              	.LBE81:
 293:src/kernel/Riscv.cpp ****             break;
 1439              		.loc 1 293 13 is_stmt 1
 293:src/kernel/Riscv.cpp ****             break;
 1440              		.loc 1 293 27 is_stmt 0
 1441 0860 97000000 		call	_ZN5Riscv14changePrivModeEv
 1441      E7800000 
 1442              	.LVL122:
 294:src/kernel/Riscv.cpp ****         }
GAS LISTING /tmp/ccHEGcEd.s 			page 41


 1443              		.loc 1 294 13 is_stmt 1
 1444              	.L58:
 1445              	.LBE70:
 1446              	.LBE69:
 1447              	.LBE68:
 301:src/kernel/Riscv.cpp ****         }
 302:src/kernel/Riscv.cpp ****         case operationInterrupt:
 303:src/kernel/Riscv.cpp ****         {
 304:src/kernel/Riscv.cpp ****             PCB::threadExitHandler();
 305:src/kernel/Riscv.cpp ****             break;
 306:src/kernel/Riscv.cpp ****         }
 307:src/kernel/Riscv.cpp ****         case addrReadInterrupt:
 308:src/kernel/Riscv.cpp ****         {
 309:src/kernel/Riscv.cpp ****             PCB::threadExitHandler();
 310:src/kernel/Riscv.cpp ****             break;
 311:src/kernel/Riscv.cpp ****         }
 312:src/kernel/Riscv.cpp ****         case addrWriteInterrupt:
 313:src/kernel/Riscv.cpp ****         {
 314:src/kernel/Riscv.cpp ****             PCB::threadExitHandler();
 315:src/kernel/Riscv.cpp ****             break;
 316:src/kernel/Riscv.cpp ****         }
 317:src/kernel/Riscv.cpp ****         case ecallSystemInterupt:
 318:src/kernel/Riscv.cpp ****         case ecallUserInterrupt:
 319:src/kernel/Riscv.cpp ****         {
 320:src/kernel/Riscv.cpp ****             uint64 operation;
 321:src/kernel/Riscv.cpp ****             __asm__ volatile("mv %0, a0" :  "=r"(operation));
 322:src/kernel/Riscv.cpp **** 
 323:src/kernel/Riscv.cpp ****             uint64 volatile sepc = Riscv::r_sepc() + 4;
 324:src/kernel/Riscv.cpp ****             uint64 volatile sstatus = Riscv::r_sstatus();
 325:src/kernel/Riscv.cpp **** 
 326:src/kernel/Riscv.cpp ****             switch(operation)
 327:src/kernel/Riscv.cpp ****             {
 328:src/kernel/Riscv.cpp ****                 case MemoryAllocator::MEM_ALLOC:
 329:src/kernel/Riscv.cpp ****                     MemoryAllocator::memAllocHandler();
 330:src/kernel/Riscv.cpp ****                     break;
 331:src/kernel/Riscv.cpp ****                 case MemoryAllocator::MEM_FREE:
 332:src/kernel/Riscv.cpp ****                     MemoryAllocator::memFreeHandler();
 333:src/kernel/Riscv.cpp ****                     break;
 334:src/kernel/Riscv.cpp ****                 case PCB::THREAD_MAKE_PCB:
 335:src/kernel/Riscv.cpp ****                     PCB::threadMakePCBHandler();
 336:src/kernel/Riscv.cpp ****                     break;
 337:src/kernel/Riscv.cpp ****                 case PCB::THREAD_CREATE:
 338:src/kernel/Riscv.cpp ****                     PCB::threadCreateHandler();
 339:src/kernel/Riscv.cpp ****                     break;
 340:src/kernel/Riscv.cpp ****                 case PCB::THREAD_START:
 341:src/kernel/Riscv.cpp ****                     PCB::threadStartHandler();
 342:src/kernel/Riscv.cpp ****                     break;
 343:src/kernel/Riscv.cpp ****                 case PCB::THREAD_DISPATCH:
 344:src/kernel/Riscv.cpp ****                     PCB::threadDispatchHandler();
 345:src/kernel/Riscv.cpp ****                     break;
 346:src/kernel/Riscv.cpp ****                 case PCB::THREAD_EXIT:
 347:src/kernel/Riscv.cpp ****                     PCB::threadExitHandler();
 348:src/kernel/Riscv.cpp ****                     break;
 349:src/kernel/Riscv.cpp ****                 case PCB::TIME_SLEEP:
 350:src/kernel/Riscv.cpp ****                     PCB::threadSleepHandler();
 351:src/kernel/Riscv.cpp ****                     break;
 352:src/kernel/Riscv.cpp ****                 case PCB::THREAD_DEL_PCB:
GAS LISTING /tmp/ccHEGcEd.s 			page 42


 353:src/kernel/Riscv.cpp ****                     PCB::threadDelPCBHandler();
 354:src/kernel/Riscv.cpp ****                     break;
 355:src/kernel/Riscv.cpp ****                 case KSemaphore::SEM_OPEN:
 356:src/kernel/Riscv.cpp ****                     KSemaphore::semOpenHandler();
 357:src/kernel/Riscv.cpp ****                     break;
 358:src/kernel/Riscv.cpp ****                 case KSemaphore::SEM_WAIT:
 359:src/kernel/Riscv.cpp ****                     KSemaphore::semWaitHandler();
 360:src/kernel/Riscv.cpp ****                     break;
 361:src/kernel/Riscv.cpp ****                 case KSemaphore::SEM_SIGNAL:
 362:src/kernel/Riscv.cpp ****                     KSemaphore::semSignalHandler();
 363:src/kernel/Riscv.cpp ****                     break;
 364:src/kernel/Riscv.cpp ****                 case KSemaphore::SEM_CLOSE:
 365:src/kernel/Riscv.cpp ****                     KSemaphore::semCloseHandler();
 366:src/kernel/Riscv.cpp ****                     break;
 367:src/kernel/Riscv.cpp ****                 case KConsole::CONSOLE_GETC:
 368:src/kernel/Riscv.cpp ****                     KConsole::getcHandler();
 369:src/kernel/Riscv.cpp ****                     break;
 370:src/kernel/Riscv.cpp ****                 case KConsole::CONSOLE_PUTC:
 371:src/kernel/Riscv.cpp ****                     KConsole::putcHandler();
 372:src/kernel/Riscv.cpp ****                     break;
 373:src/kernel/Riscv.cpp ****                 case KConsole::CONSOLE_GET_CHAR:
 374:src/kernel/Riscv.cpp ****                     KConsole::getCharHandler();
 375:src/kernel/Riscv.cpp ****                     break;
 376:src/kernel/Riscv.cpp ****             }
 377:src/kernel/Riscv.cpp **** 
 378:src/kernel/Riscv.cpp ****             Riscv::w_sstatus(sstatus);
 379:src/kernel/Riscv.cpp ****             Riscv::w_sepc(sepc);
 380:src/kernel/Riscv.cpp ****             changePrivMode();
 381:src/kernel/Riscv.cpp ****             break;
 382:src/kernel/Riscv.cpp ****         }
 383:src/kernel/Riscv.cpp ****     }
 384:src/kernel/Riscv.cpp **** }
 1448              		.loc 1 384 1 is_stmt 0
 1449 0868 83308106 		ld	ra,104(sp)
 1450              		.cfi_remember_state
 1451              		.cfi_restore 1
 1452 086c 03340106 		ld	s0,96(sp)
 1453              		.cfi_restore 8
 1454              		.cfi_def_cfa 2, 112
 1455 0870 83348105 		ld	s1,88(sp)
 1456              		.cfi_restore 9
 1457 0874 13010107 		addi	sp,sp,112
 1458              		.cfi_def_cfa_offset 0
 1459 0878 67800000 		jr	ra
 1460              	.L91:
 1461              		.cfi_restore_state
 1462              	.LBB96:
 1463              	.LBB94:
 1464              	.LBB83:
 287:src/kernel/Riscv.cpp ****                 PCB::dispatch();
 1465              		.loc 1 287 17 is_stmt 1
 287:src/kernel/Riscv.cpp ****                 PCB::dispatch();
 1466              		.loc 1 287 39 is_stmt 0
 1467 087c 23B00400 		sd	zero,0(s1)
 288:src/kernel/Riscv.cpp ****             }
 1468              		.loc 1 288 17 is_stmt 1
 288:src/kernel/Riscv.cpp ****             }
GAS LISTING /tmp/ccHEGcEd.s 			page 43


 1469              		.loc 1 288 30 is_stmt 0
 1470 0880 97000000 		call	_ZN3PCB8dispatchEv@plt
 1470      E7800000 
 1471              	.LVL123:
 1472 0888 6FF09FFC 		j	.L71
 1473              	.L68:
 1474              	.LBE83:
 302:src/kernel/Riscv.cpp ****         {
 1475              		.loc 1 302 9 is_stmt 1
 303:src/kernel/Riscv.cpp ****             PCB::threadExitHandler();
 1476              		.loc 1 303 9
 304:src/kernel/Riscv.cpp ****             break;
 1477              		.loc 1 304 13
 304:src/kernel/Riscv.cpp ****             break;
 1478              		.loc 1 304 35 is_stmt 0
 1479 088c 97000000 		call	_ZN3PCB17threadExitHandlerEv@plt
 1479      E7800000 
 1480              	.LVL124:
 305:src/kernel/Riscv.cpp ****         }
 1481              		.loc 1 305 13 is_stmt 1
 1482 0894 6FF05FFD 		j	.L58
 1483              	.L67:
 307:src/kernel/Riscv.cpp ****         {
 1484              		.loc 1 307 9
 308:src/kernel/Riscv.cpp ****             PCB::threadExitHandler();
 1485              		.loc 1 308 9
 309:src/kernel/Riscv.cpp ****             break;
 1486              		.loc 1 309 13
 309:src/kernel/Riscv.cpp ****             break;
 1487              		.loc 1 309 35 is_stmt 0
 1488 0898 97000000 		call	_ZN3PCB17threadExitHandlerEv@plt
 1488      E7800000 
 1489              	.LVL125:
 310:src/kernel/Riscv.cpp ****         }
 1490              		.loc 1 310 13 is_stmt 1
 1491 08a0 6FF09FFC 		j	.L58
 1492              	.L66:
 312:src/kernel/Riscv.cpp ****         {
 1493              		.loc 1 312 9
 313:src/kernel/Riscv.cpp ****             PCB::threadExitHandler();
 1494              		.loc 1 313 9
 314:src/kernel/Riscv.cpp ****             break;
 1495              		.loc 1 314 13
 314:src/kernel/Riscv.cpp ****             break;
 1496              		.loc 1 314 35 is_stmt 0
 1497 08a4 97000000 		call	_ZN3PCB17threadExitHandlerEv@plt
 1497      E7800000 
 1498              	.LVL126:
 315:src/kernel/Riscv.cpp ****         }
 1499              		.loc 1 315 13 is_stmt 1
 1500 08ac 6FF0DFFB 		j	.L58
 1501              	.L65:
 317:src/kernel/Riscv.cpp ****         case ecallUserInterrupt:
 1502              		.loc 1 317 9
 318:src/kernel/Riscv.cpp ****         {
 1503              		.loc 1 318 9
 319:src/kernel/Riscv.cpp ****             uint64 operation;
GAS LISTING /tmp/ccHEGcEd.s 			page 44


 1504              		.loc 1 319 9
 1505              	.LBB84:
 320:src/kernel/Riscv.cpp ****             __asm__ volatile("mv %0, a0" :  "=r"(operation));
 1506              		.loc 1 320 13
 321:src/kernel/Riscv.cpp **** 
 1507              		.loc 1 321 13
 321:src/kernel/Riscv.cpp **** 
 1508              		.loc 1 321 61 is_stmt 0
 1509              	#APP
 1510              	# 321 "src/kernel/Riscv.cpp" 1
 1511              		mv a5, a0
 1512              	# 0 "" 2
 1513              	.LVL127:
 323:src/kernel/Riscv.cpp ****             uint64 volatile sstatus = Riscv::r_sstatus();
 1514              		.loc 1 323 13 is_stmt 1
 1515              	#NO_APP
 1516              	.LBB85:
 1517              	.LBB86:
 140:src/kernel/../../h/Riscv.hpp ****     __asm__ volatile("csrr %0, sepc" : "=r"(sepc));
 1518              		.loc 2 140 5
 141:src/kernel/../../h/Riscv.hpp ****     return sepc;
 1519              		.loc 2 141 5
 141:src/kernel/../../h/Riscv.hpp ****     return sepc;
 1520              		.loc 2 141 51 is_stmt 0
 1521              	#APP
 1522              	# 141 "src/kernel/../../h/Riscv.hpp" 1
 1523              		csrr a4, sepc
 1524              	# 0 "" 2
 1525              	#NO_APP
 1526 08b8 233CE4FC 		sd	a4,-40(s0)
 142:src/kernel/../../h/Riscv.hpp **** }
 1527              		.loc 2 142 5 is_stmt 1
 142:src/kernel/../../h/Riscv.hpp **** }
 1528              		.loc 2 142 12 is_stmt 0
 1529 08bc 033784FD 		ld	a4,-40(s0)
 1530              	.LBE86:
 1531              	.LBE85:
 323:src/kernel/Riscv.cpp ****             uint64 volatile sstatus = Riscv::r_sstatus();
 1532              		.loc 1 323 52
 1533 08c0 13074700 		addi	a4,a4,4
 323:src/kernel/Riscv.cpp ****             uint64 volatile sstatus = Riscv::r_sstatus();
 1534              		.loc 1 323 54
 1535 08c4 2334E4FA 		sd	a4,-88(s0)
 324:src/kernel/Riscv.cpp **** 
 1536              		.loc 1 324 13 is_stmt 1
 1537              	.LBB87:
 1538              	.LBB88:
 213:src/kernel/../../h/Riscv.hpp ****     __asm__ volatile("csrr %0, sstatus" : "=r"(sstatus));
 1539              		.loc 2 213 5
 214:src/kernel/../../h/Riscv.hpp ****     return sstatus;
 1540              		.loc 2 214 5
 214:src/kernel/../../h/Riscv.hpp ****     return sstatus;
 1541              		.loc 2 214 57 is_stmt 0
 1542              	#APP
 1543              	# 214 "src/kernel/../../h/Riscv.hpp" 1
 1544              		csrr a4, sstatus
 1545              	# 0 "" 2
GAS LISTING /tmp/ccHEGcEd.s 			page 45


 1546              	#NO_APP
 1547 08cc 2338E4FC 		sd	a4,-48(s0)
 215:src/kernel/../../h/Riscv.hpp **** }
 1548              		.loc 2 215 5 is_stmt 1
 215:src/kernel/../../h/Riscv.hpp **** }
 1549              		.loc 2 215 12 is_stmt 0
 1550 08d0 033704FD 		ld	a4,-48(s0)
 1551              	.LBE88:
 1552              	.LBE87:
 324:src/kernel/Riscv.cpp **** 
 1553              		.loc 1 324 56
 1554 08d4 2338E4FA 		sd	a4,-80(s0)
 326:src/kernel/Riscv.cpp ****             {
 1555              		.loc 1 326 13 is_stmt 1
 1556 08d8 13073004 		li	a4,67
 1557 08dc 6364F702 		bgtu	a5,a4,.L72
 1558 08e0 93972700 		slli	a5,a5,2
 1559              	.LVL128:
 1560 08e4 17070000 		lla	a4,.L74
 1560      13070700 
 1561 08ec B387E700 		add	a5,a5,a4
 1562 08f0 83A70700 		lw	a5,0(a5)
 1563 08f4 B387E700 		add	a5,a5,a4
 1564 08f8 67800700 		jr	a5
 1565              		.section	.rodata
 1566              		.align	2
 1567              		.align	2
 1568              	.L74:
 1569 0040 00000000 		.word	.L72-.L74
 1570 0044 00000000 		.word	.L89-.L74
 1571 0048 00000000 		.word	.L88-.L74
 1572 004c 00000000 		.word	.L72-.L74
 1573 0050 00000000 		.word	.L72-.L74
 1574 0054 00000000 		.word	.L72-.L74
 1575 0058 00000000 		.word	.L72-.L74
 1576 005c 00000000 		.word	.L72-.L74
 1577 0060 00000000 		.word	.L72-.L74
 1578 0064 00000000 		.word	.L72-.L74
 1579 0068 00000000 		.word	.L72-.L74
 1580 006c 00000000 		.word	.L72-.L74
 1581 0070 00000000 		.word	.L72-.L74
 1582 0074 00000000 		.word	.L72-.L74
 1583 0078 00000000 		.word	.L72-.L74
 1584 007c 00000000 		.word	.L72-.L74
 1585 0080 00000000 		.word	.L72-.L74
 1586 0084 00000000 		.word	.L87-.L74
 1587 0088 00000000 		.word	.L86-.L74
 1588 008c 00000000 		.word	.L85-.L74
 1589 0090 00000000 		.word	.L84-.L74
 1590 0094 00000000 		.word	.L83-.L74
 1591 0098 00000000 		.word	.L82-.L74
 1592 009c 00000000 		.word	.L72-.L74
 1593 00a0 00000000 		.word	.L72-.L74
 1594 00a4 00000000 		.word	.L72-.L74
 1595 00a8 00000000 		.word	.L72-.L74
 1596 00ac 00000000 		.word	.L72-.L74
 1597 00b0 00000000 		.word	.L72-.L74
GAS LISTING /tmp/ccHEGcEd.s 			page 46


 1598 00b4 00000000 		.word	.L72-.L74
 1599 00b8 00000000 		.word	.L72-.L74
 1600 00bc 00000000 		.word	.L72-.L74
 1601 00c0 00000000 		.word	.L72-.L74
 1602 00c4 00000000 		.word	.L81-.L74
 1603 00c8 00000000 		.word	.L80-.L74
 1604 00cc 00000000 		.word	.L79-.L74
 1605 00d0 00000000 		.word	.L78-.L74
 1606 00d4 00000000 		.word	.L72-.L74
 1607 00d8 00000000 		.word	.L72-.L74
 1608 00dc 00000000 		.word	.L72-.L74
 1609 00e0 00000000 		.word	.L72-.L74
 1610 00e4 00000000 		.word	.L72-.L74
 1611 00e8 00000000 		.word	.L72-.L74
 1612 00ec 00000000 		.word	.L72-.L74
 1613 00f0 00000000 		.word	.L72-.L74
 1614 00f4 00000000 		.word	.L72-.L74
 1615 00f8 00000000 		.word	.L72-.L74
 1616 00fc 00000000 		.word	.L72-.L74
 1617 0100 00000000 		.word	.L72-.L74
 1618 0104 00000000 		.word	.L77-.L74
 1619 0108 00000000 		.word	.L72-.L74
 1620 010c 00000000 		.word	.L72-.L74
 1621 0110 00000000 		.word	.L72-.L74
 1622 0114 00000000 		.word	.L72-.L74
 1623 0118 00000000 		.word	.L72-.L74
 1624 011c 00000000 		.word	.L72-.L74
 1625 0120 00000000 		.word	.L72-.L74
 1626 0124 00000000 		.word	.L72-.L74
 1627 0128 00000000 		.word	.L72-.L74
 1628 012c 00000000 		.word	.L72-.L74
 1629 0130 00000000 		.word	.L72-.L74
 1630 0134 00000000 		.word	.L72-.L74
 1631 0138 00000000 		.word	.L72-.L74
 1632 013c 00000000 		.word	.L72-.L74
 1633 0140 00000000 		.word	.L72-.L74
 1634 0144 00000000 		.word	.L76-.L74
 1635 0148 00000000 		.word	.L75-.L74
 1636 014c 00000000 		.word	.L73-.L74
 1637              		.text
 1638              	.L89:
 328:src/kernel/Riscv.cpp ****                     MemoryAllocator::memAllocHandler();
 1639              		.loc 1 328 17
 329:src/kernel/Riscv.cpp ****                     break;
 1640              		.loc 1 329 21
 329:src/kernel/Riscv.cpp ****                     break;
 1641              		.loc 1 329 53 is_stmt 0
 1642 08fc 97000000 		call	_ZN15MemoryAllocator15memAllocHandlerEv@plt
 1642      E7800000 
 1643              	.LVL129:
 330:src/kernel/Riscv.cpp ****                 case MemoryAllocator::MEM_FREE:
 1644              		.loc 1 330 21 is_stmt 1
 1645              	.L72:
 378:src/kernel/Riscv.cpp ****             Riscv::w_sepc(sepc);
 1646              		.loc 1 378 13
 378:src/kernel/Riscv.cpp ****             Riscv::w_sepc(sepc);
 1647              		.loc 1 378 29 is_stmt 0
GAS LISTING /tmp/ccHEGcEd.s 			page 47


 1648 0904 833704FB 		ld	a5,-80(s0)
 1649              	.LVL130:
 1650              	.LBB89:
 1651              	.LBB90:
 219:src/kernel/../../h/Riscv.hpp **** }
 1652              		.loc 2 219 5 is_stmt 1
 219:src/kernel/../../h/Riscv.hpp **** }
 1653              		.loc 2 219 57 is_stmt 0
 1654              	#APP
 1655              	# 219 "src/kernel/../../h/Riscv.hpp" 1
 1656              		csrw sstatus, a5
 1657              	# 0 "" 2
 1658              	.LVL131:
 1659              	#NO_APP
 1660              	.LBE90:
 1661              	.LBE89:
 379:src/kernel/Riscv.cpp ****             changePrivMode();
 1662              		.loc 1 379 13 is_stmt 1
 379:src/kernel/Riscv.cpp ****             changePrivMode();
 1663              		.loc 1 379 26 is_stmt 0
 1664 090c 833784FA 		ld	a5,-88(s0)
 1665              	.LVL132:
 1666              	.LBB91:
 1667              	.LBB92:
 146:src/kernel/../../h/Riscv.hpp **** }
 1668              		.loc 2 146 5 is_stmt 1
 146:src/kernel/../../h/Riscv.hpp **** }
 1669              		.loc 2 146 51 is_stmt 0
 1670              	#APP
 1671              	# 146 "src/kernel/../../h/Riscv.hpp" 1
 1672              		csrw sepc, a5
 1673              	# 0 "" 2
 1674              	.LVL133:
 1675              	#NO_APP
 1676              	.LBE92:
 1677              	.LBE91:
 380:src/kernel/Riscv.cpp ****             break;
 1678              		.loc 1 380 13 is_stmt 1
 380:src/kernel/Riscv.cpp ****             break;
 1679              		.loc 1 380 27 is_stmt 0
 1680 0914 97000000 		call	_ZN5Riscv14changePrivModeEv
 1680      E7800000 
 1681              	.LVL134:
 381:src/kernel/Riscv.cpp ****         }
 1682              		.loc 1 381 13 is_stmt 1
 1683              	.LBE84:
 1684              	.LBE94:
 1685              	.LBE96:
 1686              		.loc 1 384 1 is_stmt 0
 1687 091c 6FF0DFF4 		j	.L58
 1688              	.L88:
 1689              	.LBB97:
 1690              	.LBB95:
 1691              	.LBB93:
 331:src/kernel/Riscv.cpp ****                     MemoryAllocator::memFreeHandler();
 1692              		.loc 1 331 17 is_stmt 1
 332:src/kernel/Riscv.cpp ****                     break;
GAS LISTING /tmp/ccHEGcEd.s 			page 48


 1693              		.loc 1 332 21
 332:src/kernel/Riscv.cpp ****                     break;
 1694              		.loc 1 332 52 is_stmt 0
 1695 0920 97000000 		call	_ZN15MemoryAllocator14memFreeHandlerEv@plt
 1695      E7800000 
 1696              	.LVL135:
 333:src/kernel/Riscv.cpp ****                 case PCB::THREAD_MAKE_PCB:
 1697              		.loc 1 333 21 is_stmt 1
 1698 0928 6FF0DFFD 		j	.L72
 1699              	.L84:
 334:src/kernel/Riscv.cpp ****                     PCB::threadMakePCBHandler();
 1700              		.loc 1 334 17
 335:src/kernel/Riscv.cpp ****                     break;
 1701              		.loc 1 335 21
 335:src/kernel/Riscv.cpp ****                     break;
 1702              		.loc 1 335 46 is_stmt 0
 1703 092c 97000000 		call	_ZN3PCB20threadMakePCBHandlerEv@plt
 1703      E7800000 
 1704              	.LVL136:
 336:src/kernel/Riscv.cpp ****                 case PCB::THREAD_CREATE:
 1705              		.loc 1 336 21 is_stmt 1
 1706 0934 6FF01FFD 		j	.L72
 1707              	.L87:
 337:src/kernel/Riscv.cpp ****                     PCB::threadCreateHandler();
 1708              		.loc 1 337 17
 338:src/kernel/Riscv.cpp ****                     break;
 1709              		.loc 1 338 21
 338:src/kernel/Riscv.cpp ****                     break;
 1710              		.loc 1 338 45 is_stmt 0
 1711 0938 97000000 		call	_ZN3PCB19threadCreateHandlerEv@plt
 1711      E7800000 
 1712              	.LVL137:
 339:src/kernel/Riscv.cpp ****                 case PCB::THREAD_START:
 1713              		.loc 1 339 21 is_stmt 1
 1714 0940 6FF05FFC 		j	.L72
 1715              	.L83:
 340:src/kernel/Riscv.cpp ****                     PCB::threadStartHandler();
 1716              		.loc 1 340 17
 341:src/kernel/Riscv.cpp ****                     break;
 1717              		.loc 1 341 21
 341:src/kernel/Riscv.cpp ****                     break;
 1718              		.loc 1 341 44 is_stmt 0
 1719 0944 97000000 		call	_ZN3PCB18threadStartHandlerEv@plt
 1719      E7800000 
 1720              	.LVL138:
 342:src/kernel/Riscv.cpp ****                 case PCB::THREAD_DISPATCH:
 1721              		.loc 1 342 21 is_stmt 1
 1722 094c 6FF09FFB 		j	.L72
 1723              	.L85:
 343:src/kernel/Riscv.cpp ****                     PCB::threadDispatchHandler();
 1724              		.loc 1 343 17
 344:src/kernel/Riscv.cpp ****                     break;
 1725              		.loc 1 344 21
 344:src/kernel/Riscv.cpp ****                     break;
 1726              		.loc 1 344 47 is_stmt 0
 1727 0950 97000000 		call	_ZN3PCB21threadDispatchHandlerEv@plt
 1727      E7800000 
GAS LISTING /tmp/ccHEGcEd.s 			page 49


 1728              	.LVL139:
 345:src/kernel/Riscv.cpp ****                 case PCB::THREAD_EXIT:
 1729              		.loc 1 345 21 is_stmt 1
 1730 0958 6FF0DFFA 		j	.L72
 1731              	.L86:
 346:src/kernel/Riscv.cpp ****                     PCB::threadExitHandler();
 1732              		.loc 1 346 17
 347:src/kernel/Riscv.cpp ****                     break;
 1733              		.loc 1 347 21
 347:src/kernel/Riscv.cpp ****                     break;
 1734              		.loc 1 347 43 is_stmt 0
 1735 095c 97000000 		call	_ZN3PCB17threadExitHandlerEv@plt
 1735      E7800000 
 1736              	.LVL140:
 348:src/kernel/Riscv.cpp ****                 case PCB::TIME_SLEEP:
 1737              		.loc 1 348 21 is_stmt 1
 1738 0964 6FF01FFA 		j	.L72
 1739              	.L77:
 349:src/kernel/Riscv.cpp ****                     PCB::threadSleepHandler();
 1740              		.loc 1 349 17
 350:src/kernel/Riscv.cpp ****                     break;
 1741              		.loc 1 350 21
 350:src/kernel/Riscv.cpp ****                     break;
 1742              		.loc 1 350 44 is_stmt 0
 1743 0968 97000000 		call	_ZN3PCB18threadSleepHandlerEv@plt
 1743      E7800000 
 1744              	.LVL141:
 351:src/kernel/Riscv.cpp ****                 case PCB::THREAD_DEL_PCB:
 1745              		.loc 1 351 21 is_stmt 1
 1746 0970 6FF05FF9 		j	.L72
 1747              	.L82:
 352:src/kernel/Riscv.cpp ****                     PCB::threadDelPCBHandler();
 1748              		.loc 1 352 17
 353:src/kernel/Riscv.cpp ****                     break;
 1749              		.loc 1 353 21
 353:src/kernel/Riscv.cpp ****                     break;
 1750              		.loc 1 353 45 is_stmt 0
 1751 0974 97000000 		call	_ZN3PCB19threadDelPCBHandlerEv@plt
 1751      E7800000 
 1752              	.LVL142:
 354:src/kernel/Riscv.cpp ****                 case KSemaphore::SEM_OPEN:
 1753              		.loc 1 354 21 is_stmt 1
 1754 097c 6FF09FF8 		j	.L72
 1755              	.L81:
 355:src/kernel/Riscv.cpp ****                     KSemaphore::semOpenHandler();
 1756              		.loc 1 355 17
 356:src/kernel/Riscv.cpp ****                     break;
 1757              		.loc 1 356 21
 356:src/kernel/Riscv.cpp ****                     break;
 1758              		.loc 1 356 47 is_stmt 0
 1759 0980 97000000 		call	_ZN10KSemaphore14semOpenHandlerEv@plt
 1759      E7800000 
 1760              	.LVL143:
 357:src/kernel/Riscv.cpp ****                 case KSemaphore::SEM_WAIT:
 1761              		.loc 1 357 21 is_stmt 1
 1762 0988 6FF0DFF7 		j	.L72
 1763              	.L79:
GAS LISTING /tmp/ccHEGcEd.s 			page 50


 358:src/kernel/Riscv.cpp ****                     KSemaphore::semWaitHandler();
 1764              		.loc 1 358 17
 359:src/kernel/Riscv.cpp ****                     break;
 1765              		.loc 1 359 21
 359:src/kernel/Riscv.cpp ****                     break;
 1766              		.loc 1 359 47 is_stmt 0
 1767 098c 97000000 		call	_ZN10KSemaphore14semWaitHandlerEv@plt
 1767      E7800000 
 1768              	.LVL144:
 360:src/kernel/Riscv.cpp ****                 case KSemaphore::SEM_SIGNAL:
 1769              		.loc 1 360 21 is_stmt 1
 1770 0994 6FF01FF7 		j	.L72
 1771              	.L78:
 361:src/kernel/Riscv.cpp ****                     KSemaphore::semSignalHandler();
 1772              		.loc 1 361 17
 362:src/kernel/Riscv.cpp ****                     break;
 1773              		.loc 1 362 21
 362:src/kernel/Riscv.cpp ****                     break;
 1774              		.loc 1 362 49 is_stmt 0
 1775 0998 97000000 		call	_ZN10KSemaphore16semSignalHandlerEv@plt
 1775      E7800000 
 1776              	.LVL145:
 363:src/kernel/Riscv.cpp ****                 case KSemaphore::SEM_CLOSE:
 1777              		.loc 1 363 21 is_stmt 1
 1778 09a0 6FF05FF6 		j	.L72
 1779              	.L80:
 364:src/kernel/Riscv.cpp ****                     KSemaphore::semCloseHandler();
 1780              		.loc 1 364 17
 365:src/kernel/Riscv.cpp ****                     break;
 1781              		.loc 1 365 21
 365:src/kernel/Riscv.cpp ****                     break;
 1782              		.loc 1 365 48 is_stmt 0
 1783 09a4 97000000 		call	_ZN10KSemaphore15semCloseHandlerEv@plt
 1783      E7800000 
 1784              	.LVL146:
 366:src/kernel/Riscv.cpp ****                 case KConsole::CONSOLE_GETC:
 1785              		.loc 1 366 21 is_stmt 1
 1786 09ac 6FF09FF5 		j	.L72
 1787              	.L76:
 367:src/kernel/Riscv.cpp ****                     KConsole::getcHandler();
 1788              		.loc 1 367 17
 368:src/kernel/Riscv.cpp ****                     break;
 1789              		.loc 1 368 21
 368:src/kernel/Riscv.cpp ****                     break;
 1790              		.loc 1 368 42 is_stmt 0
 1791 09b0 97000000 		call	_ZN8KConsole11getcHandlerEv@plt
 1791      E7800000 
 1792              	.LVL147:
 369:src/kernel/Riscv.cpp ****                 case KConsole::CONSOLE_PUTC:
 1793              		.loc 1 369 21 is_stmt 1
 1794 09b8 6FF0DFF4 		j	.L72
 1795              	.L75:
 370:src/kernel/Riscv.cpp ****                     KConsole::putcHandler();
 1796              		.loc 1 370 17
 371:src/kernel/Riscv.cpp ****                     break;
 1797              		.loc 1 371 21
 371:src/kernel/Riscv.cpp ****                     break;
GAS LISTING /tmp/ccHEGcEd.s 			page 51


 1798              		.loc 1 371 42 is_stmt 0
 1799 09bc 97000000 		call	_ZN8KConsole11putcHandlerEv@plt
 1799      E7800000 
 1800              	.LVL148:
 372:src/kernel/Riscv.cpp ****                 case KConsole::CONSOLE_GET_CHAR:
 1801              		.loc 1 372 21 is_stmt 1
 1802 09c4 6FF01FF4 		j	.L72
 1803              	.L73:
 373:src/kernel/Riscv.cpp ****                     KConsole::getCharHandler();
 1804              		.loc 1 373 17
 374:src/kernel/Riscv.cpp ****                     break;
 1805              		.loc 1 374 21
 374:src/kernel/Riscv.cpp ****                     break;
 1806              		.loc 1 374 45 is_stmt 0
 1807 09c8 97000000 		call	_ZN8KConsole14getCharHandlerEv@plt
 1807      E7800000 
 1808              	.LVL149:
 375:src/kernel/Riscv.cpp ****             }
 1809              		.loc 1 375 21 is_stmt 1
 1810 09d0 6FF05FF3 		j	.L72
 1811              	.LBE93:
 1812              	.LBE95:
 1813              	.LBE97:
 1814              		.cfi_endproc
 1815              	.LFE41:
 1817              		.globl	_ZN5Riscv16programStartAddrE
 1818              		.globl	_ZN5Riscv7mainPMTE
 1819              		.globl	_ZN5Riscv14semaphoreCacheE
 1820              		.globl	_ZN5Riscv8pcbCacheE
 1821              		.globl	_ZN5Riscv16kernelMainCalledE
 1822              		.globl	_ZN5Riscv12finishSystemE
 1823              		.globl	_ZN5Riscv9totalTimeE
 1824              		.data
 1825              		.align	3
 1826              		.set	.LANCHOR1,. + 0
 1829              	_ZN5Riscv16programStartAddrE:
 1830 0000 00000080 		.dword	2147483648
 1830      00000000 
 1831              		.bss
 1832              		.align	3
 1833              		.set	.LANCHOR0,. + 0
 1836              	_ZN5Riscv12finishSystemE:
 1837 0000 00       		.zero	1
 1838 0001 00000000 		.zero	7
 1838      000000
 1841              	_ZN5Riscv7mainPMTE:
 1842 0008 00000000 		.zero	8
 1842      00000000 
 1845              	_ZN5Riscv8pcbCacheE:
 1846 0010 00000000 		.zero	8
 1846      00000000 
 1849              	_ZN5Riscv14semaphoreCacheE:
 1850 0018 00000000 		.zero	8
 1850      00000000 
 1853              	_ZN5Riscv16kernelMainCalledE:
 1854 0020 00       		.zero	1
 1855 0021 00000000 		.zero	7
GAS LISTING /tmp/ccHEGcEd.s 			page 52


 1855      000000
 1858              	_ZN5Riscv9totalTimeE:
 1859 0028 00000000 		.zero	8
 1859      00000000 
 1860              		.text
 1861              	.Letext0:
 1862              		.file 4 "src/kernel/../../h/../lib/hw.h"
 1863              		.file 5 "src/kernel/../../h/slabAllocator.hpp"
 1864              		.file 6 "src/kernel/../../h/MemoryAllocator.hpp"
 1865              		.file 7 "src/kernel/../../h/SleepPCBList.hpp"
 1866              		.file 8 "src/kernel/../../h/KSemaphore.hpp"
 1867              		.file 9 "src/kernel/../../h/KConsole.hpp"
 1868              		.file 10 "src/kernel/../../h/Scheduler.hpp"
 1869              		.file 11 "src/kernel/../../h/buddyAllocator.hpp"
 1870              		.file 12 "src/kernel/../../h/syscall_c_kernel.hpp"
GAS LISTING /tmp/ccHEGcEd.s 			page 53


DEFINED SYMBOLS
                            *ABS*:0000000000000000 Riscv.cpp
     /tmp/ccHEGcEd.s:9      .text:0000000000000000 _ZN5Riscv17initVirtualMemoryEv
     /tmp/ccHEGcEd.s:13     .text:0000000000000000 .L0 
     /tmp/ccHEGcEd.s:14     .text:0000000000000000 .L0 
     /tmp/ccHEGcEd.s:15     .text:0000000000000004 .L0 
     /tmp/ccHEGcEd.s:17     .text:0000000000000008 .L0 
     /tmp/ccHEGcEd.s:19     .text:000000000000000c .L0 
     /tmp/ccHEGcEd.s:21     .text:000000000000000c .L0 
     /tmp/ccHEGcEd.s:22     .text:0000000000000010 .L0 
     /tmp/ccHEGcEd.s:23     .text:0000000000000010 .L0 
     /tmp/ccHEGcEd.s:25     .text:0000000000000014 .L0 
     /tmp/ccHEGcEd.s:27     .text:0000000000000018 .L0 
     /tmp/ccHEGcEd.s:33     .text:0000000000000018 _ZN5Riscv16enableInterruptsEv
     /tmp/ccHEGcEd.s:36     .text:0000000000000018 .L0 
     /tmp/ccHEGcEd.s:37     .text:0000000000000018 .L0 
     /tmp/ccHEGcEd.s:38     .text:000000000000001c .L0 
     /tmp/ccHEGcEd.s:40     .text:0000000000000020 .L0 
     /tmp/ccHEGcEd.s:42     .text:0000000000000024 .L0 
     /tmp/ccHEGcEd.s:48     .text:0000000000000024 .L0 
     /tmp/ccHEGcEd.s:49     .text:0000000000000024 .L0 
     /tmp/ccHEGcEd.s:50     .text:0000000000000024 .L0 
     /tmp/ccHEGcEd.s:60     .text:000000000000002c .L0 
     /tmp/ccHEGcEd.s:61     .text:0000000000000030 .L0 
     /tmp/ccHEGcEd.s:62     .text:0000000000000030 .L0 
     /tmp/ccHEGcEd.s:64     .text:0000000000000034 .L0 
     /tmp/ccHEGcEd.s:66     .text:0000000000000038 .L0 
     /tmp/ccHEGcEd.s:72     .text:0000000000000038 _ZN5Riscv17disableInterruptsEv
     /tmp/ccHEGcEd.s:75     .text:0000000000000038 .L0 
     /tmp/ccHEGcEd.s:76     .text:0000000000000038 .L0 
     /tmp/ccHEGcEd.s:77     .text:000000000000003c .L0 
     /tmp/ccHEGcEd.s:79     .text:0000000000000040 .L0 
     /tmp/ccHEGcEd.s:81     .text:0000000000000044 .L0 
     /tmp/ccHEGcEd.s:86     .text:0000000000000044 .L0 
     /tmp/ccHEGcEd.s:87     .text:0000000000000044 .L0 
     /tmp/ccHEGcEd.s:88     .text:0000000000000044 .L0 
     /tmp/ccHEGcEd.s:98     .text:000000000000004c .L0 
     /tmp/ccHEGcEd.s:99     .text:0000000000000050 .L0 
     /tmp/ccHEGcEd.s:100    .text:0000000000000050 .L0 
     /tmp/ccHEGcEd.s:102    .text:0000000000000054 .L0 
     /tmp/ccHEGcEd.s:104    .text:0000000000000058 .L0 
     /tmp/ccHEGcEd.s:110    .text:0000000000000058 _ZN5Riscv9endSystemEv
     /tmp/ccHEGcEd.s:113    .text:0000000000000058 .L0 
     /tmp/ccHEGcEd.s:114    .text:0000000000000058 .L0 
     /tmp/ccHEGcEd.s:115    .text:000000000000005c .L0 
     /tmp/ccHEGcEd.s:118    .text:0000000000000064 .L0 
     /tmp/ccHEGcEd.s:119    .text:0000000000000064 .L0 
     /tmp/ccHEGcEd.s:121    .text:0000000000000068 .L0 
     /tmp/ccHEGcEd.s:123    .text:0000000000000068 .L0 
     /tmp/ccHEGcEd.s:124    .text:0000000000000068 .L0 
     /tmp/ccHEGcEd.s:127    .text:0000000000000070 .L0 
     /tmp/ccHEGcEd.s:128    .text:0000000000000070 .L0 
     /tmp/ccHEGcEd.s:133    .text:000000000000007c .L0 
     /tmp/ccHEGcEd.s:134    .text:000000000000007c .L0 
     /tmp/ccHEGcEd.s:135    .text:000000000000007c .L0 
     /tmp/ccHEGcEd.s:136    .text:000000000000007c .L0 
     /tmp/ccHEGcEd.s:139    .text:0000000000000084 .L0 
GAS LISTING /tmp/ccHEGcEd.s 			page 54


     /tmp/ccHEGcEd.s:141    .text:0000000000000088 .L0 
     /tmp/ccHEGcEd.s:142    .text:0000000000000088 .L0 
     /tmp/ccHEGcEd.s:148    .text:000000000000009c .L0 
     /tmp/ccHEGcEd.s:149    .text:000000000000009c .L0 
     /tmp/ccHEGcEd.s:152    .text:00000000000000a8 .L0 
     /tmp/ccHEGcEd.s:153    .text:00000000000000a8 .L0 
     /tmp/ccHEGcEd.s:157    .text:00000000000000b0 .L0 
     /tmp/ccHEGcEd.s:158    .text:00000000000000b0 .L0 
     /tmp/ccHEGcEd.s:159    .text:00000000000000b0 .L0 
     /tmp/ccHEGcEd.s:164    .text:00000000000000c4 .L0 
     /tmp/ccHEGcEd.s:166    .text:00000000000000c8 .L0 
     /tmp/ccHEGcEd.s:167    .text:00000000000000c8 .L0 
     /tmp/ccHEGcEd.s:170    .text:00000000000000d0 .L0 
     /tmp/ccHEGcEd.s:173    .text:00000000000000d4 .L0 
     /tmp/ccHEGcEd.s:174    .text:00000000000000d4 .L0 
     /tmp/ccHEGcEd.s:177    .text:00000000000000dc .L0 
     /tmp/ccHEGcEd.s:178    .text:00000000000000e0 .L0 
     /tmp/ccHEGcEd.s:180    .text:00000000000000e4 .L0 
     /tmp/ccHEGcEd.s:181    .text:00000000000000e4 .L0 
     /tmp/ccHEGcEd.s:183    .text:00000000000000e8 .L0 
     /tmp/ccHEGcEd.s:185    .text:00000000000000ec .L0 
     /tmp/ccHEGcEd.s:191    .text:00000000000000ec _ZN5Riscv10popSppSpieEv
     /tmp/ccHEGcEd.s:194    .text:00000000000000ec .L0 
     /tmp/ccHEGcEd.s:195    .text:00000000000000ec .L0 
     /tmp/ccHEGcEd.s:196    .text:00000000000000f0 .L0 
     /tmp/ccHEGcEd.s:198    .text:00000000000000f4 .L0 
     /tmp/ccHEGcEd.s:200    .text:00000000000000f8 .L0 
     /tmp/ccHEGcEd.s:203    .text:00000000000000f8 .L0 
     /tmp/ccHEGcEd.s:204    .text:00000000000000f8 .L0 
     /tmp/ccHEGcEd.s:208    .text:0000000000000108 .L0 
     /tmp/ccHEGcEd.s:210    .text:000000000000010c .L0 
src/kernel/Riscv.cpp:151    .text:000000000000010c .L0 
     /tmp/ccHEGcEd.s:216    .text:0000000000000110 .L0 
src/kernel/Riscv.cpp:152    .text:0000000000000110 .L0 
     /tmp/ccHEGcEd.s:224    .text:0000000000000114 .L0 
     /tmp/ccHEGcEd.s:225    .text:0000000000000118 .L0 
     /tmp/ccHEGcEd.s:226    .text:0000000000000118 .L0 
     /tmp/ccHEGcEd.s:227    .text:0000000000000118 .L0 
     /tmp/ccHEGcEd.s:229    .text:000000000000011c .L0 
     /tmp/ccHEGcEd.s:232    .text:0000000000000120 .L0 
     /tmp/ccHEGcEd.s:237    .text:0000000000000120 .L0 
     /tmp/ccHEGcEd.s:238    .text:0000000000000120 .L0 
     /tmp/ccHEGcEd.s:239    .text:0000000000000120 .L0 
src/kernel/Riscv.cpp:157    .text:0000000000000124 .L0 
     /tmp/ccHEGcEd.s:246    .text:0000000000000128 .L0 
     /tmp/ccHEGcEd.s:248    .text:0000000000000128 .L0 
src/kernel/Riscv.cpp:158    .text:000000000000012c .L0 
     /tmp/ccHEGcEd.s:255    .text:0000000000000130 .L0 
     /tmp/ccHEGcEd.s:257    .text:0000000000000130 .L0 
     /tmp/ccHEGcEd.s:263    .text:000000000000013c .L0 
src/kernel/Riscv.cpp:160    .text:000000000000013c .L0 
     /tmp/ccHEGcEd.s:271    .text:0000000000000140 .L0 
     /tmp/ccHEGcEd.s:272    .text:0000000000000144 .L0 
     /tmp/ccHEGcEd.s:278    .text:0000000000000144 _ZN5Riscv14setVirtualAddrEmmm
     /tmp/ccHEGcEd.s:281    .text:0000000000000144 .L0 
     /tmp/ccHEGcEd.s:283    .text:0000000000000144 .L0 
     /tmp/ccHEGcEd.s:284    .text:0000000000000148 .L0 
GAS LISTING /tmp/ccHEGcEd.s 			page 55


     /tmp/ccHEGcEd.s:294    .text:000000000000016c .L0 
     /tmp/ccHEGcEd.s:295    .text:000000000000016c .L0 
     /tmp/ccHEGcEd.s:296    .text:000000000000016c .L0 
     /tmp/ccHEGcEd.s:297    .text:000000000000016c .L0 
     /tmp/ccHEGcEd.s:298    .text:000000000000016c .L0 
     /tmp/ccHEGcEd.s:299    .text:000000000000016c .L0 
     /tmp/ccHEGcEd.s:300    .text:000000000000016c .L0 
     /tmp/ccHEGcEd.s:301    .text:000000000000016c .L0 
     /tmp/ccHEGcEd.s:302    .text:000000000000016c .L0 
     /tmp/ccHEGcEd.s:304    .text:0000000000000170 .L0 
     /tmp/ccHEGcEd.s:308    .text:0000000000000178 .L0 
     /tmp/ccHEGcEd.s:309    .text:0000000000000178 .L0 
     /tmp/ccHEGcEd.s:312    .text:000000000000017c .L0 
     /tmp/ccHEGcEd.s:313    .text:000000000000017c .L0 
     /tmp/ccHEGcEd.s:315    .text:0000000000000180 .L0 
     /tmp/ccHEGcEd.s:318    .text:0000000000000184 .L0 
     /tmp/ccHEGcEd.s:319    .text:0000000000000184 .L0 
     /tmp/ccHEGcEd.s:321    .text:0000000000000188 .L0 
     /tmp/ccHEGcEd.s:324    .text:000000000000018c .L0 
     /tmp/ccHEGcEd.s:325    .text:000000000000018c .L0 
     /tmp/ccHEGcEd.s:330    .text:000000000000019c .L0 
     /tmp/ccHEGcEd.s:333    .text:00000000000001a0 .L0 
     /tmp/ccHEGcEd.s:335    .text:00000000000001a0 .L0 
     /tmp/ccHEGcEd.s:337    .text:00000000000001a4 .L0 
     /tmp/ccHEGcEd.s:338    .text:00000000000001a4 .L0 
     /tmp/ccHEGcEd.s:341    .text:00000000000001a8 .L0 
     /tmp/ccHEGcEd.s:346    .text:00000000000001ac .L0 
     /tmp/ccHEGcEd.s:347    .text:00000000000001ac .L0 
     /tmp/ccHEGcEd.s:350    .text:00000000000001b4 .L0 
     /tmp/ccHEGcEd.s:353    .text:00000000000001b8 .L0 
     /tmp/ccHEGcEd.s:355    .text:00000000000001b8 .L0 
     /tmp/ccHEGcEd.s:357    .text:00000000000001bc .L0 
     /tmp/ccHEGcEd.s:358    .text:00000000000001bc .L0 
     /tmp/ccHEGcEd.s:361    .text:00000000000001c0 .L0 
     /tmp/ccHEGcEd.s:366    .text:00000000000001c4 .L0 
     /tmp/ccHEGcEd.s:367    .text:00000000000001c4 .L0 
     /tmp/ccHEGcEd.s:372    .text:00000000000001cc .L0 
     /tmp/ccHEGcEd.s:375    .text:00000000000001d0 .L0 
     /tmp/ccHEGcEd.s:377    .text:00000000000001d4 .L0 
     /tmp/ccHEGcEd.s:378    .text:00000000000001d4 .L0 
     /tmp/ccHEGcEd.s:381    .text:00000000000001d8 .L0 
     /tmp/ccHEGcEd.s:384    .text:00000000000001dc .L0 
     /tmp/ccHEGcEd.s:387    .text:00000000000001e0 .L0 
     /tmp/ccHEGcEd.s:388    .text:00000000000001e4 .L0 
     /tmp/ccHEGcEd.s:389    .text:00000000000001e4 .L0 
     /tmp/ccHEGcEd.s:391    .text:00000000000001e8 .L0 
     /tmp/ccHEGcEd.s:392    .text:00000000000001e8 .L0 
     /tmp/ccHEGcEd.s:394    .text:00000000000001ec .L0 
     /tmp/ccHEGcEd.s:396    .text:00000000000001f0 .L0 
     /tmp/ccHEGcEd.s:398    .text:00000000000001f4 .L0 
     /tmp/ccHEGcEd.s:400    .text:00000000000001f8 .L0 
     /tmp/ccHEGcEd.s:402    .text:00000000000001fc .L0 
     /tmp/ccHEGcEd.s:404    .text:0000000000000200 .L0 
     /tmp/ccHEGcEd.s:407    .text:0000000000000204 .L0 
     /tmp/ccHEGcEd.s:409    .text:0000000000000208 .L0 
     /tmp/ccHEGcEd.s:413    .text:000000000000020c .L0 
     /tmp/ccHEGcEd.s:417    .text:000000000000020c .L0 
GAS LISTING /tmp/ccHEGcEd.s 			page 56


     /tmp/ccHEGcEd.s:418    .text:000000000000020c .L0 
     /tmp/ccHEGcEd.s:424    .text:0000000000000218 .L0 
     /tmp/ccHEGcEd.s:425    .text:0000000000000218 .L0 
     /tmp/ccHEGcEd.s:429    .text:000000000000021c .L0 
     /tmp/ccHEGcEd.s:432    .text:0000000000000224 .L0 
     /tmp/ccHEGcEd.s:433    .text:0000000000000224 .L0 
     /tmp/ccHEGcEd.s:436    .text:000000000000022c .L0 
     /tmp/ccHEGcEd.s:438    .text:0000000000000230 .L0 
     /tmp/ccHEGcEd.s:445    .text:0000000000000238 .L0 
     /tmp/ccHEGcEd.s:446    .text:0000000000000238 .L0 
     /tmp/ccHEGcEd.s:449    .text:000000000000023c .L0 
     /tmp/ccHEGcEd.s:451    .text:0000000000000240 .L0 
     /tmp/ccHEGcEd.s:454    .text:0000000000000244 .L0 
     /tmp/ccHEGcEd.s:455    .text:0000000000000244 .L0 
     /tmp/ccHEGcEd.s:457    .text:000000000000024c .L0 
     /tmp/ccHEGcEd.s:459    .text:0000000000000250 .L0 
     /tmp/ccHEGcEd.s:468    .text:0000000000000258 .L0 
     /tmp/ccHEGcEd.s:469    .text:0000000000000258 .L0 
     /tmp/ccHEGcEd.s:475    .text:0000000000000264 .L0 
     /tmp/ccHEGcEd.s:476    .text:0000000000000264 .L0 
     /tmp/ccHEGcEd.s:480    .text:0000000000000268 .L0 
     /tmp/ccHEGcEd.s:483    .text:0000000000000270 .L0 
     /tmp/ccHEGcEd.s:484    .text:0000000000000270 .L0 
     /tmp/ccHEGcEd.s:487    .text:0000000000000278 .L0 
     /tmp/ccHEGcEd.s:489    .text:000000000000027c .L0 
     /tmp/ccHEGcEd.s:496    .text:0000000000000284 .L0 
     /tmp/ccHEGcEd.s:497    .text:0000000000000284 .L0 
     /tmp/ccHEGcEd.s:500    .text:0000000000000288 .L0 
     /tmp/ccHEGcEd.s:502    .text:000000000000028c .L0 
     /tmp/ccHEGcEd.s:505    .text:0000000000000290 .L0 
     /tmp/ccHEGcEd.s:506    .text:0000000000000290 .L0 
     /tmp/ccHEGcEd.s:510    .text:0000000000000298 .L0 
     /tmp/ccHEGcEd.s:516    .text:0000000000000298 _ZN5Riscv19setVirtualAddrRangeEmmi
     /tmp/ccHEGcEd.s:519    .text:0000000000000298 .L0 
     /tmp/ccHEGcEd.s:521    .text:0000000000000298 .L0 
     /tmp/ccHEGcEd.s:522    .text:000000000000029c .L0 
     /tmp/ccHEGcEd.s:528    .text:00000000000002b0 .L0 
     /tmp/ccHEGcEd.s:529    .text:00000000000002b0 .L0 
     /tmp/ccHEGcEd.s:530    .text:00000000000002b0 .L0 
     /tmp/ccHEGcEd.s:531    .text:00000000000002b0 .L0 
     /tmp/ccHEGcEd.s:532    .text:00000000000002b0 .L0 
     /tmp/ccHEGcEd.s:534    .text:00000000000002b4 .L0 
     /tmp/ccHEGcEd.s:542    .text:00000000000002c0 .L0 
     /tmp/ccHEGcEd.s:543    .text:00000000000002c0 .L0 
     /tmp/ccHEGcEd.s:545    .text:00000000000002c4 .L0 
     /tmp/ccHEGcEd.s:546    .text:00000000000002c4 .L0 
     /tmp/ccHEGcEd.s:552    .text:00000000000002d8 .L0 
     /tmp/ccHEGcEd.s:553    .text:00000000000002d8 .L0 
     /tmp/ccHEGcEd.s:557    .text:00000000000002e0 .L0 
     /tmp/ccHEGcEd.s:561    .text:00000000000002e4 .L0 
     /tmp/ccHEGcEd.s:562    .text:00000000000002e8 .L0 
     /tmp/ccHEGcEd.s:564    .text:00000000000002ec .L0 
     /tmp/ccHEGcEd.s:565    .text:00000000000002ec .L0 
     /tmp/ccHEGcEd.s:567    .text:00000000000002f0 .L0 
     /tmp/ccHEGcEd.s:570    .text:00000000000002f4 .L0 
     /tmp/ccHEGcEd.s:573    .text:00000000000002f8 .L0 
     /tmp/ccHEGcEd.s:575    .text:00000000000002fc .L0 
GAS LISTING /tmp/ccHEGcEd.s 			page 57


     /tmp/ccHEGcEd.s:577    .text:0000000000000300 .L0 
     /tmp/ccHEGcEd.s:594    .text:0000000000000300 _ZN5Riscv10initSystemEv
     /tmp/ccHEGcEd.s:597    .text:0000000000000300 .L0 
     /tmp/ccHEGcEd.s:598    .text:0000000000000300 .L0 
     /tmp/ccHEGcEd.s:599    .text:0000000000000304 .L0 
     /tmp/ccHEGcEd.s:608    .text:0000000000000324 .L0 
     /tmp/ccHEGcEd.s:609    .text:0000000000000324 .L0 
     /tmp/ccHEGcEd.s:610    .text:0000000000000324 .L0 
     /tmp/ccHEGcEd.s:611    .text:0000000000000324 .L0 
     /tmp/ccHEGcEd.s:612    .text:0000000000000324 .L0 
     /tmp/ccHEGcEd.s:613    .text:0000000000000324 .L0 
     /tmp/ccHEGcEd.s:614    .text:0000000000000324 .L0 
     /tmp/ccHEGcEd.s:615    .text:0000000000000324 .L0 
     /tmp/ccHEGcEd.s:617    .text:0000000000000328 .L0 
     /tmp/ccHEGcEd.s:619    .text:0000000000000328 .L0 
     /tmp/ccHEGcEd.s:620    .text:0000000000000328 .L0 
     /tmp/ccHEGcEd.s:625    .text:0000000000000330 .L0 
src/kernel/../../h/Riscv.hpp:156    .text:0000000000000330 .L0 
     /tmp/ccHEGcEd.s:635    .text:0000000000000334 .L0 
     /tmp/ccHEGcEd.s:636    .text:0000000000000334 .L0 
     /tmp/ccHEGcEd.s:641    .text:0000000000000348 .L0 
     /tmp/ccHEGcEd.s:642    .text:0000000000000348 .L0 
     /tmp/ccHEGcEd.s:643    .text:0000000000000348 .L0 
     /tmp/ccHEGcEd.s:647    .text:0000000000000350 .L0 
     /tmp/ccHEGcEd.s:648    .text:0000000000000350 .L0 
     /tmp/ccHEGcEd.s:653    .text:000000000000035c .L0 
     /tmp/ccHEGcEd.s:654    .text:000000000000035c .L0 
     /tmp/ccHEGcEd.s:660    .text:0000000000000370 .L0 
     /tmp/ccHEGcEd.s:661    .text:0000000000000370 .L0 
     /tmp/ccHEGcEd.s:668    .text:000000000000038c .L0 
     /tmp/ccHEGcEd.s:671    .text:0000000000000398 .L0 
     /tmp/ccHEGcEd.s:672    .text:0000000000000398 .L0 
     /tmp/ccHEGcEd.s:679    .text:00000000000003b4 .L0 
     /tmp/ccHEGcEd.s:681    .text:00000000000003b8 .L0 
     /tmp/ccHEGcEd.s:682    .text:00000000000003b8 .L0 
     /tmp/ccHEGcEd.s:685    .text:00000000000003c0 .L0 
     /tmp/ccHEGcEd.s:686    .text:00000000000003c0 .L0 
     /tmp/ccHEGcEd.s:689    .text:00000000000003c8 .L0 
     /tmp/ccHEGcEd.s:690    .text:00000000000003c8 .L0 
     /tmp/ccHEGcEd.s:694    .text:00000000000003d4 .L0 
     /tmp/ccHEGcEd.s:698    .text:00000000000003d8 .L0 
     /tmp/ccHEGcEd.s:699    .text:00000000000003d8 .L0 
     /tmp/ccHEGcEd.s:703    .text:00000000000003dc .L0 
     /tmp/ccHEGcEd.s:706    .text:00000000000003e4 .L0 
     /tmp/ccHEGcEd.s:707    .text:00000000000003e4 .L0 
     /tmp/ccHEGcEd.s:711    .text:00000000000003f4 .L0 
     /tmp/ccHEGcEd.s:713    .text:00000000000003f8 .L0 
     /tmp/ccHEGcEd.s:719    .text:0000000000000400 .L0 
     /tmp/ccHEGcEd.s:720    .text:0000000000000400 .L0 
     /tmp/ccHEGcEd.s:727    .text:0000000000000420 .L0 
     /tmp/ccHEGcEd.s:728    .text:0000000000000420 .L0 
     /tmp/ccHEGcEd.s:731    .text:0000000000000428 .L0 
     /tmp/ccHEGcEd.s:732    .text:0000000000000428 .L0 
     /tmp/ccHEGcEd.s:735    .text:0000000000000430 .L0 
     /tmp/ccHEGcEd.s:736    .text:0000000000000430 .L0 
     /tmp/ccHEGcEd.s:739    .text:0000000000000438 .L0 
     /tmp/ccHEGcEd.s:740    .text:0000000000000438 .L0 
GAS LISTING /tmp/ccHEGcEd.s 			page 58


     /tmp/ccHEGcEd.s:743    .text:0000000000000440 .L0 
     /tmp/ccHEGcEd.s:744    .text:0000000000000440 .L0 
     /tmp/ccHEGcEd.s:750    .text:0000000000000458 .L0 
     /tmp/ccHEGcEd.s:751    .text:0000000000000458 .L0 
     /tmp/ccHEGcEd.s:757    .text:000000000000046c .L0 
     /tmp/ccHEGcEd.s:758    .text:000000000000046c .L0 
     /tmp/ccHEGcEd.s:764    .text:0000000000000480 .L0 
     /tmp/ccHEGcEd.s:765    .text:0000000000000480 .L0 
     /tmp/ccHEGcEd.s:771    .text:0000000000000494 .L0 
     /tmp/ccHEGcEd.s:772    .text:0000000000000494 .L0 
     /tmp/ccHEGcEd.s:779    .text:00000000000004b0 .L0 
     /tmp/ccHEGcEd.s:780    .text:00000000000004b0 .L0 
     /tmp/ccHEGcEd.s:786    .text:00000000000004c4 .L0 
     /tmp/ccHEGcEd.s:787    .text:00000000000004c4 .L0 
     /tmp/ccHEGcEd.s:795    .text:00000000000004e4 .L0 
     /tmp/ccHEGcEd.s:796    .text:00000000000004e4 .L0 
     /tmp/ccHEGcEd.s:803    .text:0000000000000500 .L0 
     /tmp/ccHEGcEd.s:804    .text:0000000000000500 .L0 
     /tmp/ccHEGcEd.s:811    .text:000000000000051c .L0 
     /tmp/ccHEGcEd.s:812    .text:000000000000051c .L0 
     /tmp/ccHEGcEd.s:819    .text:0000000000000538 .L0 
     /tmp/ccHEGcEd.s:820    .text:0000000000000538 .L0 
     /tmp/ccHEGcEd.s:829    .text:0000000000000550 .L0 
     /tmp/ccHEGcEd.s:830    .text:0000000000000550 .L0 
     /tmp/ccHEGcEd.s:831    .text:0000000000000550 .L0 
     /tmp/ccHEGcEd.s:841    .text:0000000000000558 .L0 
     /tmp/ccHEGcEd.s:842    .text:0000000000000558 .L0 
     /tmp/ccHEGcEd.s:845    .text:0000000000000560 .L0 
     /tmp/ccHEGcEd.s:850    .text:000000000000056c .L0 
src/kernel/Riscv.cpp:97     .text:000000000000056c .L0 
     /tmp/ccHEGcEd.s:857    .text:0000000000000570 .L0 
     /tmp/ccHEGcEd.s:858    .text:0000000000000574 .L0 
     /tmp/ccHEGcEd.s:860    .text:0000000000000578 .L0 
     /tmp/ccHEGcEd.s:861    .text:0000000000000578 .L0 
     /tmp/ccHEGcEd.s:863    .text:000000000000057c .L0 
     /tmp/ccHEGcEd.s:866    .text:0000000000000580 .L0 
     /tmp/ccHEGcEd.s:868    .text:0000000000000584 .L0 
     /tmp/ccHEGcEd.s:870    .text:0000000000000588 .L0 
     /tmp/ccHEGcEd.s:872    .text:000000000000058c .L0 
     /tmp/ccHEGcEd.s:874    .text:0000000000000590 .L0 
     /tmp/ccHEGcEd.s:876    .text:0000000000000594 .L0 
     /tmp/ccHEGcEd.s:878    .text:0000000000000598 .L0 
     /tmp/ccHEGcEd.s:884    .text:0000000000000598 _ZN5Riscv10kernelMainEv
     /tmp/ccHEGcEd.s:887    .text:0000000000000598 .L0 
     /tmp/ccHEGcEd.s:888    .text:0000000000000598 .L0 
     /tmp/ccHEGcEd.s:889    .text:0000000000000598 .L0 
     /tmp/ccHEGcEd.s:894    .text:00000000000005a8 .L0 
     /tmp/ccHEGcEd.s:895    .text:00000000000005ac .L0 
     /tmp/ccHEGcEd.s:898    .text:00000000000005b4 .L0 
     /tmp/ccHEGcEd.s:899    .text:00000000000005b4 .L0 
     /tmp/ccHEGcEd.s:901    .text:00000000000005b8 .L0 
     /tmp/ccHEGcEd.s:903    .text:00000000000005b8 .L0 
     /tmp/ccHEGcEd.s:904    .text:00000000000005b8 .L0 
     /tmp/ccHEGcEd.s:907    .text:00000000000005c4 .L0 
     /tmp/ccHEGcEd.s:908    .text:00000000000005c4 .L0 
     /tmp/ccHEGcEd.s:911    .text:00000000000005cc .L0 
     /tmp/ccHEGcEd.s:912    .text:00000000000005cc .L0 
GAS LISTING /tmp/ccHEGcEd.s 			page 59


     /tmp/ccHEGcEd.s:916    .text:00000000000005d4 .L0 
     /tmp/ccHEGcEd.s:917    .text:00000000000005d4 .L0 
     /tmp/ccHEGcEd.s:918    .text:00000000000005d4 .L0 
     /tmp/ccHEGcEd.s:923    .text:00000000000005e8 .L0 
     /tmp/ccHEGcEd.s:925    .text:00000000000005ec .L0 
     /tmp/ccHEGcEd.s:926    .text:00000000000005ec .L0 
     /tmp/ccHEGcEd.s:929    .text:00000000000005f4 .L0 
     /tmp/ccHEGcEd.s:932    .text:00000000000005f8 .L0 
     /tmp/ccHEGcEd.s:933    .text:00000000000005f8 .L0 
     /tmp/ccHEGcEd.s:936    .text:0000000000000600 .L0 
     /tmp/ccHEGcEd.s:937    .text:0000000000000604 .L0 
     /tmp/ccHEGcEd.s:939    .text:0000000000000608 .L0 
     /tmp/ccHEGcEd.s:940    .text:0000000000000608 .L0 
     /tmp/ccHEGcEd.s:942    .text:000000000000060c .L0 
     /tmp/ccHEGcEd.s:944    .text:0000000000000610 .L0 
     /tmp/ccHEGcEd.s:950    .text:0000000000000610 _ZN5Riscv14addVirtualAddrEm
     /tmp/ccHEGcEd.s:953    .text:0000000000000610 .L0 
     /tmp/ccHEGcEd.s:955    .text:0000000000000610 .L0 
     /tmp/ccHEGcEd.s:956    .text:0000000000000614 .L0 
     /tmp/ccHEGcEd.s:959    .text:000000000000061c .L0 
     /tmp/ccHEGcEd.s:960    .text:000000000000061c .L0 
     /tmp/ccHEGcEd.s:962    .text:0000000000000620 .L0 
     /tmp/ccHEGcEd.s:964    .text:0000000000000620 .L0 
     /tmp/ccHEGcEd.s:965    .text:0000000000000620 .L0 
     /tmp/ccHEGcEd.s:970    .text:0000000000000630 .L0 
     /tmp/ccHEGcEd.s:971    .text:0000000000000634 .L0 
     /tmp/ccHEGcEd.s:973    .text:0000000000000638 .L0 
     /tmp/ccHEGcEd.s:974    .text:0000000000000638 .L0 
     /tmp/ccHEGcEd.s:976    .text:000000000000063c .L0 
     /tmp/ccHEGcEd.s:978    .text:0000000000000640 .L0 
     /tmp/ccHEGcEd.s:984    .text:0000000000000640 _ZN5Riscv19addVirtualAddrInstrEm
     /tmp/ccHEGcEd.s:987    .text:0000000000000640 .L0 
     /tmp/ccHEGcEd.s:989    .text:0000000000000640 .L0 
     /tmp/ccHEGcEd.s:990    .text:0000000000000644 .L0 
     /tmp/ccHEGcEd.s:993    .text:000000000000064c .L0 
     /tmp/ccHEGcEd.s:994    .text:000000000000064c .L0 
     /tmp/ccHEGcEd.s:996    .text:0000000000000650 .L0 
     /tmp/ccHEGcEd.s:998    .text:0000000000000650 .L0 
     /tmp/ccHEGcEd.s:999    .text:0000000000000650 .L0 
     /tmp/ccHEGcEd.s:1004   .text:0000000000000660 .L0 
     /tmp/ccHEGcEd.s:1005   .text:0000000000000664 .L0 
     /tmp/ccHEGcEd.s:1007   .text:0000000000000668 .L0 
     /tmp/ccHEGcEd.s:1008   .text:0000000000000668 .L0 
     /tmp/ccHEGcEd.s:1010   .text:000000000000066c .L0 
     /tmp/ccHEGcEd.s:1012   .text:0000000000000670 .L0 
     /tmp/ccHEGcEd.s:1018   .text:0000000000000670 _ZN5Riscv22disableTimerInterruptsEv
     /tmp/ccHEGcEd.s:1021   .text:0000000000000670 .L0 
     /tmp/ccHEGcEd.s:1022   .text:0000000000000670 .L0 
     /tmp/ccHEGcEd.s:1023   .text:0000000000000674 .L0 
     /tmp/ccHEGcEd.s:1025   .text:0000000000000678 .L0 
     /tmp/ccHEGcEd.s:1027   .text:000000000000067c .L0 
     /tmp/ccHEGcEd.s:1030   .text:000000000000067c .L0 
     /tmp/ccHEGcEd.s:1031   .text:000000000000067c .L0 
     /tmp/ccHEGcEd.s:1032   .text:000000000000067c .L0 
     /tmp/ccHEGcEd.s:1039   .text:0000000000000684 .L0 
     /tmp/ccHEGcEd.s:1040   .text:0000000000000688 .L0 
     /tmp/ccHEGcEd.s:1041   .text:0000000000000688 .L0 
GAS LISTING /tmp/ccHEGcEd.s 			page 60


     /tmp/ccHEGcEd.s:1043   .text:000000000000068c .L0 
     /tmp/ccHEGcEd.s:1045   .text:0000000000000690 .L0 
     /tmp/ccHEGcEd.s:1051   .text:0000000000000690 _ZN5Riscv13w_a0_sscratchEv
     /tmp/ccHEGcEd.s:1054   .text:0000000000000690 .L0 
     /tmp/ccHEGcEd.s:1055   .text:0000000000000690 .L0 
     /tmp/ccHEGcEd.s:1056   .text:0000000000000694 .L0 
     /tmp/ccHEGcEd.s:1058   .text:0000000000000698 .L0 
     /tmp/ccHEGcEd.s:1060   .text:000000000000069c .L0 
     /tmp/ccHEGcEd.s:1062   .text:000000000000069c .L0 
     /tmp/ccHEGcEd.s:1063   .text:000000000000069c .L0 
src/kernel/Riscv.cpp:228    .text:000000000000069c .L0 
     /tmp/ccHEGcEd.s:1070   .text:00000000000006a0 .L0 
     /tmp/ccHEGcEd.s:1072   .text:00000000000006a0 .L0 
src/kernel/Riscv.cpp:229    .text:00000000000006b0 .L0 
     /tmp/ccHEGcEd.s:1081   .text:00000000000006b4 .L0 
src/kernel/Riscv.cpp:230    .text:00000000000006b4 .L0 
     /tmp/ccHEGcEd.s:1086   .text:00000000000006b8 .L0 
src/kernel/Riscv.cpp:231    .text:00000000000006b8 .L0 
     /tmp/ccHEGcEd.s:1092   .text:00000000000006bc .L0 
     /tmp/ccHEGcEd.s:1093   .text:00000000000006c0 .L0 
     /tmp/ccHEGcEd.s:1094   .text:00000000000006c0 .L0 
     /tmp/ccHEGcEd.s:1096   .text:00000000000006c4 .L0 
     /tmp/ccHEGcEd.s:1098   .text:00000000000006c8 .L0 
     /tmp/ccHEGcEd.s:1104   .text:00000000000006c8 _ZN5Riscv14changePrivModeEv
     /tmp/ccHEGcEd.s:1107   .text:00000000000006c8 .L0 
     /tmp/ccHEGcEd.s:1108   .text:00000000000006c8 .L0 
     /tmp/ccHEGcEd.s:1109   .text:00000000000006cc .L0 
     /tmp/ccHEGcEd.s:1111   .text:00000000000006d0 .L0 
     /tmp/ccHEGcEd.s:1113   .text:00000000000006d4 .L0 
     /tmp/ccHEGcEd.s:1115   .text:00000000000006d4 .L0 
     /tmp/ccHEGcEd.s:1116   .text:00000000000006d4 .L0 
     /tmp/ccHEGcEd.s:1120   .text:00000000000006e4 .L0 
     /tmp/ccHEGcEd.s:1125   .text:00000000000006e8 .L0 
     /tmp/ccHEGcEd.s:1126   .text:00000000000006e8 .L0 
     /tmp/ccHEGcEd.s:1127   .text:00000000000006e8 .L0 
     /tmp/ccHEGcEd.s:1138   .text:00000000000006f0 .L0 
     /tmp/ccHEGcEd.s:1139   .text:00000000000006f4 .L0 
     /tmp/ccHEGcEd.s:1140   .text:00000000000006f4 .L0 
     /tmp/ccHEGcEd.s:1141   .text:00000000000006f4 .L0 
     /tmp/ccHEGcEd.s:1143   .text:00000000000006f8 .L0 
     /tmp/ccHEGcEd.s:1146   .text:00000000000006fc .L0 
     /tmp/ccHEGcEd.s:1151   .text:00000000000006fc .L0 
     /tmp/ccHEGcEd.s:1152   .text:00000000000006fc .L0 
     /tmp/ccHEGcEd.s:1153   .text:00000000000006fc .L0 
     /tmp/ccHEGcEd.s:1163   .text:0000000000000704 .L0 
     /tmp/ccHEGcEd.s:1164   .text:0000000000000708 .L0 
     /tmp/ccHEGcEd.s:1170   .text:0000000000000708 _ZN5Riscv20handleSupervisorTrapEv
     /tmp/ccHEGcEd.s:1173   .text:0000000000000708 .L0 
     /tmp/ccHEGcEd.s:1174   .text:0000000000000708 .L0 
     /tmp/ccHEGcEd.s:1175   .text:000000000000070c .L0 
     /tmp/ccHEGcEd.s:1179   .text:0000000000000718 .L0 
     /tmp/ccHEGcEd.s:1180   .text:0000000000000718 .L0 
     /tmp/ccHEGcEd.s:1181   .text:0000000000000718 .L0 
     /tmp/ccHEGcEd.s:1183   .text:000000000000071c .L0 
     /tmp/ccHEGcEd.s:1185   .text:000000000000071c .L0 
src/kernel/Riscv.cpp:244    .text:000000000000071c .L0 
     /tmp/ccHEGcEd.s:1194   .text:000000000000072c .L0 
GAS LISTING /tmp/ccHEGcEd.s 			page 61


     /tmp/ccHEGcEd.s:1195   .text:000000000000072c .L0 
src/kernel/Riscv.cpp:245    .text:0000000000000738 .L0 
     /tmp/ccHEGcEd.s:1207   .text:0000000000000740 .L0 
     /tmp/ccHEGcEd.s:1208   .text:0000000000000740 .L0 
     /tmp/ccHEGcEd.s:1209   .text:0000000000000740 .L0 
src/kernel/../../h/Riscv.hpp:131    .text:0000000000000740 .L0 
     /tmp/ccHEGcEd.s:1217   .text:0000000000000748 .L0 
     /tmp/ccHEGcEd.s:1218   .text:0000000000000748 .L0 
     /tmp/ccHEGcEd.s:1223   .text:000000000000074c .L0 
     /tmp/ccHEGcEd.s:1224   .text:000000000000074c .L0 
     /tmp/ccHEGcEd.s:1225   .text:000000000000074c .L0 
     /tmp/ccHEGcEd.s:1227   .text:000000000000074c .L0 
     /tmp/ccHEGcEd.s:1273   .text:00000000000007a0 .L0 
     /tmp/ccHEGcEd.s:1274   .text:00000000000007a0 .L0 
     /tmp/ccHEGcEd.s:1275   .text:00000000000007a0 .L0 
     /tmp/ccHEGcEd.s:1276   .text:00000000000007a0 .L0 
     /tmp/ccHEGcEd.s:1279   .text:00000000000007a8 .L0 
     /tmp/ccHEGcEd.s:1280   .text:00000000000007a8 .L0 
     /tmp/ccHEGcEd.s:1285   .text:00000000000007b8 .L0 
     /tmp/ccHEGcEd.s:1288   .text:00000000000007bc .L0 
     /tmp/ccHEGcEd.s:1289   .text:00000000000007bc .L0 
     /tmp/ccHEGcEd.s:1290   .text:00000000000007bc .L0 
     /tmp/ccHEGcEd.s:1291   .text:00000000000007bc .L0 
     /tmp/ccHEGcEd.s:1294   .text:00000000000007c4 .L0 
     /tmp/ccHEGcEd.s:1297   .text:00000000000007c8 .L0 
     /tmp/ccHEGcEd.s:1298   .text:00000000000007c8 .L0 
     /tmp/ccHEGcEd.s:1299   .text:00000000000007c8 .L0 
     /tmp/ccHEGcEd.s:1300   .text:00000000000007c8 .L0 
     /tmp/ccHEGcEd.s:1303   .text:00000000000007d0 .L0 
     /tmp/ccHEGcEd.s:1306   .text:00000000000007d4 .L0 
     /tmp/ccHEGcEd.s:1307   .text:00000000000007d4 .L0 
     /tmp/ccHEGcEd.s:1308   .text:00000000000007d4 .L0 
     /tmp/ccHEGcEd.s:1309   .text:00000000000007d4 .L0 
     /tmp/ccHEGcEd.s:1312   .text:00000000000007dc .L0 
     /tmp/ccHEGcEd.s:1316   .text:00000000000007e0 .L0 
     /tmp/ccHEGcEd.s:1318   .text:00000000000007e0 .L0 
     /tmp/ccHEGcEd.s:1321   .text:00000000000007e0 .L0 
     /tmp/ccHEGcEd.s:1322   .text:00000000000007e0 .L0 
     /tmp/ccHEGcEd.s:1323   .text:00000000000007e0 .L0 
src/kernel/../../h/Riscv.hpp:141    .text:00000000000007e0 .L0 
     /tmp/ccHEGcEd.s:1332   .text:00000000000007e8 .L0 
     /tmp/ccHEGcEd.s:1333   .text:00000000000007e8 .L0 
     /tmp/ccHEGcEd.s:1337   .text:00000000000007ec .L0 
     /tmp/ccHEGcEd.s:1341   .text:00000000000007f0 .L0 
     /tmp/ccHEGcEd.s:1342   .text:00000000000007f0 .L0 
     /tmp/ccHEGcEd.s:1343   .text:00000000000007f0 .L0 
src/kernel/../../h/Riscv.hpp:214    .text:00000000000007f0 .L0 
     /tmp/ccHEGcEd.s:1351   .text:00000000000007f8 .L0 
     /tmp/ccHEGcEd.s:1352   .text:00000000000007f8 .L0 
     /tmp/ccHEGcEd.s:1356   .text:00000000000007fc .L0 
     /tmp/ccHEGcEd.s:1361   .text:0000000000000800 .L0 
     /tmp/ccHEGcEd.s:1362   .text:0000000000000800 .L0 
     /tmp/ccHEGcEd.s:1363   .text:0000000000000800 .L0 
     /tmp/ccHEGcEd.s:1373   .text:0000000000000808 .L0 
     /tmp/ccHEGcEd.s:1374   .text:0000000000000808 .L0 
     /tmp/ccHEGcEd.s:1379   .text:000000000000081c .L0 
     /tmp/ccHEGcEd.s:1380   .text:000000000000081c .L0 
GAS LISTING /tmp/ccHEGcEd.s 			page 62


     /tmp/ccHEGcEd.s:1385   .text:0000000000000830 .L0 
     /tmp/ccHEGcEd.s:1386   .text:0000000000000830 .L0 
     /tmp/ccHEGcEd.s:1389   .text:0000000000000838 .L0 
     /tmp/ccHEGcEd.s:1390   .text:0000000000000838 .L0 
     /tmp/ccHEGcEd.s:1397   .text:0000000000000844 .L0 
     /tmp/ccHEGcEd.s:1398   .text:0000000000000844 .L0 
     /tmp/ccHEGcEd.s:1403   .text:0000000000000848 .L0 
     /tmp/ccHEGcEd.s:1405   .text:000000000000084c .L0 
     /tmp/ccHEGcEd.s:1408   .text:0000000000000850 .L0 
     /tmp/ccHEGcEd.s:1409   .text:0000000000000850 .L0 
     /tmp/ccHEGcEd.s:1414   .text:0000000000000854 .L0 
src/kernel/../../h/Riscv.hpp:219    .text:0000000000000854 .L0 
     /tmp/ccHEGcEd.s:1424   .text:0000000000000858 .L0 
     /tmp/ccHEGcEd.s:1425   .text:0000000000000858 .L0 
     /tmp/ccHEGcEd.s:1430   .text:000000000000085c .L0 
src/kernel/../../h/Riscv.hpp:146    .text:000000000000085c .L0 
     /tmp/ccHEGcEd.s:1440   .text:0000000000000860 .L0 
     /tmp/ccHEGcEd.s:1441   .text:0000000000000860 .L0 
     /tmp/ccHEGcEd.s:1448   .text:0000000000000868 .L0 
     /tmp/ccHEGcEd.s:1449   .text:0000000000000868 .L0 
     /tmp/ccHEGcEd.s:1450   .text:000000000000086c .L0 
     /tmp/ccHEGcEd.s:1451   .text:000000000000086c .L0 
     /tmp/ccHEGcEd.s:1453   .text:0000000000000870 .L0 
     /tmp/ccHEGcEd.s:1454   .text:0000000000000870 .L0 
     /tmp/ccHEGcEd.s:1456   .text:0000000000000874 .L0 
     /tmp/ccHEGcEd.s:1458   .text:0000000000000878 .L0 
     /tmp/ccHEGcEd.s:1461   .text:000000000000087c .L0 
     /tmp/ccHEGcEd.s:1466   .text:000000000000087c .L0 
     /tmp/ccHEGcEd.s:1467   .text:000000000000087c .L0 
     /tmp/ccHEGcEd.s:1469   .text:0000000000000880 .L0 
     /tmp/ccHEGcEd.s:1470   .text:0000000000000880 .L0 
     /tmp/ccHEGcEd.s:1476   .text:000000000000088c .L0 
     /tmp/ccHEGcEd.s:1477   .text:000000000000088c .L0 
     /tmp/ccHEGcEd.s:1478   .text:000000000000088c .L0 
     /tmp/ccHEGcEd.s:1479   .text:000000000000088c .L0 
     /tmp/ccHEGcEd.s:1482   .text:0000000000000894 .L0 
     /tmp/ccHEGcEd.s:1485   .text:0000000000000898 .L0 
     /tmp/ccHEGcEd.s:1486   .text:0000000000000898 .L0 
     /tmp/ccHEGcEd.s:1487   .text:0000000000000898 .L0 
     /tmp/ccHEGcEd.s:1488   .text:0000000000000898 .L0 
     /tmp/ccHEGcEd.s:1491   .text:00000000000008a0 .L0 
     /tmp/ccHEGcEd.s:1494   .text:00000000000008a4 .L0 
     /tmp/ccHEGcEd.s:1495   .text:00000000000008a4 .L0 
     /tmp/ccHEGcEd.s:1496   .text:00000000000008a4 .L0 
     /tmp/ccHEGcEd.s:1497   .text:00000000000008a4 .L0 
     /tmp/ccHEGcEd.s:1500   .text:00000000000008ac .L0 
     /tmp/ccHEGcEd.s:1503   .text:00000000000008b0 .L0 
     /tmp/ccHEGcEd.s:1504   .text:00000000000008b0 .L0 
     /tmp/ccHEGcEd.s:1506   .text:00000000000008b0 .L0 
     /tmp/ccHEGcEd.s:1507   .text:00000000000008b0 .L0 
     /tmp/ccHEGcEd.s:1508   .text:00000000000008b0 .L0 
src/kernel/Riscv.cpp:321    .text:00000000000008b0 .L0 
     /tmp/ccHEGcEd.s:1518   .text:00000000000008b4 .L0 
     /tmp/ccHEGcEd.s:1519   .text:00000000000008b4 .L0 
     /tmp/ccHEGcEd.s:1520   .text:00000000000008b4 .L0 
src/kernel/../../h/Riscv.hpp:141    .text:00000000000008b4 .L0 
     /tmp/ccHEGcEd.s:1528   .text:00000000000008bc .L0 
GAS LISTING /tmp/ccHEGcEd.s 			page 63


     /tmp/ccHEGcEd.s:1529   .text:00000000000008bc .L0 
     /tmp/ccHEGcEd.s:1533   .text:00000000000008c0 .L0 
     /tmp/ccHEGcEd.s:1535   .text:00000000000008c4 .L0 
     /tmp/ccHEGcEd.s:1539   .text:00000000000008c8 .L0 
     /tmp/ccHEGcEd.s:1540   .text:00000000000008c8 .L0 
     /tmp/ccHEGcEd.s:1541   .text:00000000000008c8 .L0 
src/kernel/../../h/Riscv.hpp:214    .text:00000000000008c8 .L0 
     /tmp/ccHEGcEd.s:1549   .text:00000000000008d0 .L0 
     /tmp/ccHEGcEd.s:1550   .text:00000000000008d0 .L0 
     /tmp/ccHEGcEd.s:1554   .text:00000000000008d4 .L0 
     /tmp/ccHEGcEd.s:1556   .text:00000000000008d8 .L0 
     /tmp/ccHEGcEd.s:1640   .text:00000000000008fc .L0 
     /tmp/ccHEGcEd.s:1641   .text:00000000000008fc .L0 
     /tmp/ccHEGcEd.s:1642   .text:00000000000008fc .L0 
     /tmp/ccHEGcEd.s:1646   .text:0000000000000904 .L0 
     /tmp/ccHEGcEd.s:1647   .text:0000000000000904 .L0 
     /tmp/ccHEGcEd.s:1648   .text:0000000000000904 .L0 
     /tmp/ccHEGcEd.s:1653   .text:0000000000000908 .L0 
src/kernel/../../h/Riscv.hpp:219    .text:0000000000000908 .L0 
     /tmp/ccHEGcEd.s:1663   .text:000000000000090c .L0 
     /tmp/ccHEGcEd.s:1664   .text:000000000000090c .L0 
     /tmp/ccHEGcEd.s:1669   .text:0000000000000910 .L0 
src/kernel/../../h/Riscv.hpp:146    .text:0000000000000910 .L0 
     /tmp/ccHEGcEd.s:1679   .text:0000000000000914 .L0 
     /tmp/ccHEGcEd.s:1680   .text:0000000000000914 .L0 
     /tmp/ccHEGcEd.s:1686   .text:000000000000091c .L0 
     /tmp/ccHEGcEd.s:1687   .text:000000000000091c .L0 
     /tmp/ccHEGcEd.s:1693   .text:0000000000000920 .L0 
     /tmp/ccHEGcEd.s:1694   .text:0000000000000920 .L0 
     /tmp/ccHEGcEd.s:1695   .text:0000000000000920 .L0 
     /tmp/ccHEGcEd.s:1698   .text:0000000000000928 .L0 
     /tmp/ccHEGcEd.s:1701   .text:000000000000092c .L0 
     /tmp/ccHEGcEd.s:1702   .text:000000000000092c .L0 
     /tmp/ccHEGcEd.s:1703   .text:000000000000092c .L0 
     /tmp/ccHEGcEd.s:1706   .text:0000000000000934 .L0 
     /tmp/ccHEGcEd.s:1709   .text:0000000000000938 .L0 
     /tmp/ccHEGcEd.s:1710   .text:0000000000000938 .L0 
     /tmp/ccHEGcEd.s:1711   .text:0000000000000938 .L0 
     /tmp/ccHEGcEd.s:1714   .text:0000000000000940 .L0 
     /tmp/ccHEGcEd.s:1717   .text:0000000000000944 .L0 
     /tmp/ccHEGcEd.s:1718   .text:0000000000000944 .L0 
     /tmp/ccHEGcEd.s:1719   .text:0000000000000944 .L0 
     /tmp/ccHEGcEd.s:1722   .text:000000000000094c .L0 
     /tmp/ccHEGcEd.s:1725   .text:0000000000000950 .L0 
     /tmp/ccHEGcEd.s:1726   .text:0000000000000950 .L0 
     /tmp/ccHEGcEd.s:1727   .text:0000000000000950 .L0 
     /tmp/ccHEGcEd.s:1730   .text:0000000000000958 .L0 
     /tmp/ccHEGcEd.s:1733   .text:000000000000095c .L0 
     /tmp/ccHEGcEd.s:1734   .text:000000000000095c .L0 
     /tmp/ccHEGcEd.s:1735   .text:000000000000095c .L0 
     /tmp/ccHEGcEd.s:1738   .text:0000000000000964 .L0 
     /tmp/ccHEGcEd.s:1741   .text:0000000000000968 .L0 
     /tmp/ccHEGcEd.s:1742   .text:0000000000000968 .L0 
     /tmp/ccHEGcEd.s:1743   .text:0000000000000968 .L0 
     /tmp/ccHEGcEd.s:1746   .text:0000000000000970 .L0 
     /tmp/ccHEGcEd.s:1749   .text:0000000000000974 .L0 
     /tmp/ccHEGcEd.s:1750   .text:0000000000000974 .L0 
GAS LISTING /tmp/ccHEGcEd.s 			page 64


     /tmp/ccHEGcEd.s:1751   .text:0000000000000974 .L0 
     /tmp/ccHEGcEd.s:1754   .text:000000000000097c .L0 
     /tmp/ccHEGcEd.s:1757   .text:0000000000000980 .L0 
     /tmp/ccHEGcEd.s:1758   .text:0000000000000980 .L0 
     /tmp/ccHEGcEd.s:1759   .text:0000000000000980 .L0 
     /tmp/ccHEGcEd.s:1762   .text:0000000000000988 .L0 
     /tmp/ccHEGcEd.s:1765   .text:000000000000098c .L0 
     /tmp/ccHEGcEd.s:1766   .text:000000000000098c .L0 
     /tmp/ccHEGcEd.s:1767   .text:000000000000098c .L0 
     /tmp/ccHEGcEd.s:1770   .text:0000000000000994 .L0 
     /tmp/ccHEGcEd.s:1773   .text:0000000000000998 .L0 
     /tmp/ccHEGcEd.s:1774   .text:0000000000000998 .L0 
     /tmp/ccHEGcEd.s:1775   .text:0000000000000998 .L0 
     /tmp/ccHEGcEd.s:1778   .text:00000000000009a0 .L0 
     /tmp/ccHEGcEd.s:1781   .text:00000000000009a4 .L0 
     /tmp/ccHEGcEd.s:1782   .text:00000000000009a4 .L0 
     /tmp/ccHEGcEd.s:1783   .text:00000000000009a4 .L0 
     /tmp/ccHEGcEd.s:1786   .text:00000000000009ac .L0 
     /tmp/ccHEGcEd.s:1789   .text:00000000000009b0 .L0 
     /tmp/ccHEGcEd.s:1790   .text:00000000000009b0 .L0 
     /tmp/ccHEGcEd.s:1791   .text:00000000000009b0 .L0 
     /tmp/ccHEGcEd.s:1794   .text:00000000000009b8 .L0 
     /tmp/ccHEGcEd.s:1797   .text:00000000000009bc .L0 
     /tmp/ccHEGcEd.s:1798   .text:00000000000009bc .L0 
     /tmp/ccHEGcEd.s:1799   .text:00000000000009bc .L0 
     /tmp/ccHEGcEd.s:1802   .text:00000000000009c4 .L0 
     /tmp/ccHEGcEd.s:1805   .text:00000000000009c8 .L0 
     /tmp/ccHEGcEd.s:1806   .text:00000000000009c8 .L0 
     /tmp/ccHEGcEd.s:1807   .text:00000000000009c8 .L0 
     /tmp/ccHEGcEd.s:1810   .text:00000000000009d0 .L0 
     /tmp/ccHEGcEd.s:1814   .text:00000000000009d4 .L0 
     /tmp/ccHEGcEd.s:1829   .data:0000000000000000 _ZN5Riscv16programStartAddrE
     /tmp/ccHEGcEd.s:1841   .bss:0000000000000008 _ZN5Riscv7mainPMTE
     /tmp/ccHEGcEd.s:1849   .bss:0000000000000018 _ZN5Riscv14semaphoreCacheE
     /tmp/ccHEGcEd.s:1845   .bss:0000000000000010 _ZN5Riscv8pcbCacheE
     /tmp/ccHEGcEd.s:1853   .bss:0000000000000020 _ZN5Riscv16kernelMainCalledE
     /tmp/ccHEGcEd.s:1836   .bss:0000000000000000 _ZN5Riscv12finishSystemE
     /tmp/ccHEGcEd.s:1858   .bss:0000000000000028 _ZN5Riscv9totalTimeE
     /tmp/ccHEGcEd.s:1826   .data:0000000000000000 .LANCHOR1
     /tmp/ccHEGcEd.s:1833   .bss:0000000000000000 .LANCHOR0
     /tmp/ccHEGcEd.s:1871   .text:00000000000009d4 .L0 
     /tmp/ccHEGcEd.s:129    .text:0000000000000074 .L0 
     /tmp/ccHEGcEd.s:142    .text:0000000000000088 .L0 
     /tmp/ccHEGcEd.s:149    .text:000000000000009c .L0 
     /tmp/ccHEGcEd.s:159    .text:00000000000000b0 .L0 
     /tmp/ccHEGcEd.s:204    .text:00000000000000f8 .L0 
     /tmp/ccHEGcEd.s:257    .text:0000000000000130 .L0 
     /tmp/ccHEGcEd.s:327    .text:0000000000000190 .L0 
     /tmp/ccHEGcEd.s:455    .text:0000000000000244 .L0 
     /tmp/ccHEGcEd.s:620    .text:0000000000000328 .L0 
     /tmp/ccHEGcEd.s:636    .text:0000000000000334 .L0 
     /tmp/ccHEGcEd.s:582    .rodata.str1.8:0000000000000000 .LC0
     /tmp/ccHEGcEd.s:664    .text:000000000000037c .L0 
     /tmp/ccHEGcEd.s:668    .text:000000000000038c .L0 
     /tmp/ccHEGcEd.s:585    .rodata.str1.8:0000000000000010 .LC1
     /tmp/ccHEGcEd.s:675    .text:00000000000003a4 .L0 
     /tmp/ccHEGcEd.s:708    .text:00000000000003e8 .L0 
GAS LISTING /tmp/ccHEGcEd.s 			page 65


     /tmp/ccHEGcEd.s:720    .text:0000000000000400 .L0 
     /tmp/ccHEGcEd.s:588    .rodata.str1.8:0000000000000028 .LC2
     /tmp/ccHEGcEd.s:723    .text:0000000000000410 .L0 
     /tmp/ccHEGcEd.s:728    .text:0000000000000420 .L0 
     /tmp/ccHEGcEd.s:732    .text:0000000000000428 .L0 
     /tmp/ccHEGcEd.s:736    .text:0000000000000430 .L0 
     /tmp/ccHEGcEd.s:740    .text:0000000000000438 .L0 
     /tmp/ccHEGcEd.s:746    .text:0000000000000448 .L0 
     /tmp/ccHEGcEd.s:772    .text:0000000000000494 .L0 
     /tmp/ccHEGcEd.s:787    .text:00000000000004c4 .L0 
     /tmp/ccHEGcEd.s:798    .text:00000000000004ec .L0 
     /tmp/ccHEGcEd.s:806    .text:0000000000000508 .L0 
     /tmp/ccHEGcEd.s:814    .text:0000000000000524 .L0 
     /tmp/ccHEGcEd.s:889    .text:0000000000000598 .L0 
     /tmp/ccHEGcEd.s:905    .text:00000000000005bc .L0 
     /tmp/ccHEGcEd.s:918    .text:00000000000005d4 .L0 
     /tmp/ccHEGcEd.s:1072   .text:00000000000006a0 .L0 
     /tmp/ccHEGcEd.s:1116   .text:00000000000006d4 .L0 
     /tmp/ccHEGcEd.s:1191   .text:0000000000000720 .L0 
     /tmp/ccHEGcEd.s:1195   .text:000000000000072c .L0 
     /tmp/ccHEGcEd.s:1243   .rodata:0000000000000000 .L62
     /tmp/ccHEGcEd.s:1235   .text:0000000000000768 .L0 
     /tmp/ccHEGcEd.s:1374   .text:0000000000000808 .L0 
     /tmp/ccHEGcEd.s:1380   .text:000000000000081c .L0 
     /tmp/ccHEGcEd.s:1390   .text:0000000000000838 .L0 
     /tmp/ccHEGcEd.s:1568   .rodata:0000000000000040 .L74
     /tmp/ccHEGcEd.s:1560   .text:00000000000008e4 .L0 
     /tmp/ccHEGcEd.s:132    .text:000000000000007c .L8
     /tmp/ccHEGcEd.s:171    .text:00000000000000d4 .L9
     /tmp/ccHEGcEd.s:155    .text:00000000000000b0 .L10
     /tmp/ccHEGcEd.s:231    .text:0000000000000120 .L13
     /tmp/ccHEGcEd.s:221    .text:0000000000000114 .L12
     /tmp/ccHEGcEd.s:412    .text:000000000000020c .L27
     /tmp/ccHEGcEd.s:463    .text:0000000000000258 .L28
     /tmp/ccHEGcEd.s:385    .text:00000000000001e0 .L16
     /tmp/ccHEGcEd.s:442    .text:0000000000000238 .L18
     /tmp/ccHEGcEd.s:427    .text:000000000000021c .L19
     /tmp/ccHEGcEd.s:343    .text:00000000000001ac .L20
     /tmp/ccHEGcEd.s:493    .text:0000000000000284 .L22
     /tmp/ccHEGcEd.s:478    .text:0000000000000268 .L23
     /tmp/ccHEGcEd.s:363    .text:00000000000001c4 .L24
     /tmp/ccHEGcEd.s:558    .text:00000000000002e4 .L29
     /tmp/ccHEGcEd.s:540    .text:00000000000002c0 .L31
     /tmp/ccHEGcEd.s:716    .text:0000000000000400 .L34
     /tmp/ccHEGcEd.s:701    .text:00000000000003dc .L35
     /tmp/ccHEGcEd.s:892    .text:00000000000005a8 .L45
     /tmp/ccHEGcEd.s:930    .text:00000000000005f8 .L39
     /tmp/ccHEGcEd.s:914    .text:00000000000005d4 .L40
     /tmp/ccHEGcEd.s:1145   .text:00000000000006fc .L55
     /tmp/ccHEGcEd.s:1134   .text:00000000000006f0 .L54
     /tmp/ccHEGcEd.s:1262   .text:0000000000000780 .L59
     /tmp/ccHEGcEd.s:1444   .text:0000000000000868 .L58
     /tmp/ccHEGcEd.s:1314   .text:00000000000007e0 .L69
     /tmp/ccHEGcEd.s:1460   .text:000000000000087c .L91
     /tmp/ccHEGcEd.s:1406   .text:0000000000000850 .L71
     /tmp/ccHEGcEd.s:1645   .text:0000000000000904 .L72
     /tmp/ccHEGcEd.s:1473   .text:000000000000088c .L68
GAS LISTING /tmp/ccHEGcEd.s 			page 66


     /tmp/ccHEGcEd.s:1483   .text:0000000000000898 .L67
     /tmp/ccHEGcEd.s:1492   .text:00000000000008a4 .L66
     /tmp/ccHEGcEd.s:1501   .text:00000000000008b0 .L65
     /tmp/ccHEGcEd.s:1304   .text:00000000000007d4 .L64
     /tmp/ccHEGcEd.s:1295   .text:00000000000007c8 .L63
     /tmp/ccHEGcEd.s:1286   .text:00000000000007bc .L61
     /tmp/ccHEGcEd.s:1638   .text:00000000000008fc .L89
     /tmp/ccHEGcEd.s:1688   .text:0000000000000920 .L88
     /tmp/ccHEGcEd.s:1707   .text:0000000000000938 .L87
     /tmp/ccHEGcEd.s:1731   .text:000000000000095c .L86
     /tmp/ccHEGcEd.s:1723   .text:0000000000000950 .L85
     /tmp/ccHEGcEd.s:1699   .text:000000000000092c .L84
     /tmp/ccHEGcEd.s:1715   .text:0000000000000944 .L83
     /tmp/ccHEGcEd.s:1747   .text:0000000000000974 .L82
     /tmp/ccHEGcEd.s:1755   .text:0000000000000980 .L81
     /tmp/ccHEGcEd.s:1779   .text:00000000000009a4 .L80
     /tmp/ccHEGcEd.s:1763   .text:000000000000098c .L79
     /tmp/ccHEGcEd.s:1771   .text:0000000000000998 .L78
     /tmp/ccHEGcEd.s:1739   .text:0000000000000968 .L77
     /tmp/ccHEGcEd.s:1787   .text:00000000000009b0 .L76
     /tmp/ccHEGcEd.s:1795   .text:00000000000009bc .L75
     /tmp/ccHEGcEd.s:1803   .text:00000000000009c8 .L73
     /tmp/ccHEGcEd.s:5196   .debug_abbrev:0000000000000000 .Ldebug_abbrev0
     /tmp/ccHEGcEd.s:7551   .debug_str:0000000000001637 .LASF376
     /tmp/ccHEGcEd.s:7175   .debug_str:0000000000000a27 .LASF377
     /tmp/ccHEGcEd.s:7157   .debug_str:000000000000095d .LASF378
     /tmp/ccHEGcEd.s:5      .text:0000000000000000 .Ltext0
     /tmp/ccHEGcEd.s:1861   .text:00000000000009d4 .Letext0
     /tmp/ccHEGcEd.s:6881   .debug_line:0000000000000000 .Ldebug_line0
     /tmp/ccHEGcEd.s:6933   .debug_str:000000000000017f .LASF0
     /tmp/ccHEGcEd.s:7585   .debug_str:000000000000185d .LASF1
     /tmp/ccHEGcEd.s:7509   .debug_str:00000000000014e7 .LASF2
     /tmp/ccHEGcEd.s:7453   .debug_str:0000000000001309 .LASF4
     /tmp/ccHEGcEd.s:7471   .debug_str:00000000000013a6 .LASF3
     /tmp/ccHEGcEd.s:7111   .debug_str:00000000000007f1 .LASF5
     /tmp/ccHEGcEd.s:7195   .debug_str:0000000000000abe .LASF6
     /tmp/ccHEGcEd.s:7383   .debug_str:0000000000001113 .LASF7
     /tmp/ccHEGcEd.s:6969   .debug_str:000000000000029e .LASF8
     /tmp/ccHEGcEd.s:7569   .debug_str:00000000000017ce .LASF9
     /tmp/ccHEGcEd.s:7115   .debug_str:000000000000080e .LASF10
     /tmp/ccHEGcEd.s:7597   .debug_str:00000000000018ca .LASF11
     /tmp/ccHEGcEd.s:7033   .debug_str:0000000000000519 .LASF12
     /tmp/ccHEGcEd.s:7233   .debug_str:0000000000000c2f .LASF13
     /tmp/ccHEGcEd.s:7123   .debug_str:0000000000000846 .LASF14
     /tmp/ccHEGcEd.s:7437   .debug_str:00000000000012ab .LASF15
     /tmp/ccHEGcEd.s:7131   .debug_str:00000000000008a5 .LASF16
     /tmp/ccHEGcEd.s:7093   .debug_str:000000000000074b .LASF17
     /tmp/ccHEGcEd.s:7217   .debug_str:0000000000000b6f .LASF18
     /tmp/ccHEGcEd.s:7215   .debug_str:0000000000000b62 .LASF379
     /tmp/ccHEGcEd.s:7013   .debug_str:000000000000045b .LASF120
     /tmp/ccHEGcEd.s:7143   .debug_str:0000000000000905 .LASF22
     /tmp/ccHEGcEd.s:7107   .debug_str:00000000000007db .LASF19
     /tmp/ccHEGcEd.s:7405   .debug_str:00000000000011e9 .LASF20
     /tmp/ccHEGcEd.s:7449   .debug_str:00000000000012f6 .LASF21
     /tmp/ccHEGcEd.s:7203   .debug_str:0000000000000af8 .LASF23
     /tmp/ccHEGcEd.s:7561   .debug_str:0000000000001766 .LASF24
     /tmp/ccHEGcEd.s:6923   .debug_str:0000000000000111 .LASF25
GAS LISTING /tmp/ccHEGcEd.s 			page 67


     /tmp/ccHEGcEd.s:7149   .debug_str:000000000000092a .LASF26
     /tmp/ccHEGcEd.s:7425   .debug_str:0000000000001260 .LASF55
     /tmp/ccHEGcEd.s:6929   .debug_str:000000000000015f .LASF57
     /tmp/ccHEGcEd.s:7507   .debug_str:00000000000014d6 .LASF27
     /tmp/ccHEGcEd.s:7263   .debug_str:0000000000000d3b .LASF35
     /tmp/ccHEGcEd.s:7535   .debug_str:00000000000015bc .LASF37
     /tmp/ccHEGcEd.s:7427   .debug_str:000000000000126b .LASF28
     /tmp/ccHEGcEd.s:6939   .debug_str:0000000000000196 .LASF29
     /tmp/ccHEGcEd.s:7525   .debug_str:0000000000001558 .LASF31
     /tmp/ccHEGcEd.s:6919   .debug_str:00000000000000e5 .LASF30
     /tmp/ccHEGcEd.s:7461   .debug_str:0000000000001360 .LASF32
     /tmp/ccHEGcEd.s:7617   .debug_str:0000000000001982 .LASF33
     /tmp/ccHEGcEd.s:7355   .debug_str:0000000000001040 .LASF34
     /tmp/ccHEGcEd.s:7431   .debug_str:000000000000127b .LASF36
     /tmp/ccHEGcEd.s:7177   .debug_str:0000000000000a3c .LASF38
     /tmp/ccHEGcEd.s:7485   .debug_str:0000000000001405 .LASF39
     /tmp/ccHEGcEd.s:7271   .debug_str:0000000000000dad .LASF40
     /tmp/ccHEGcEd.s:7379   .debug_str:0000000000001103 .LASF41
     /tmp/ccHEGcEd.s:7533   .debug_str:00000000000015a4 .LASF42
     /tmp/ccHEGcEd.s:7539   .debug_str:00000000000015ed .LASF43
     /tmp/ccHEGcEd.s:7113   .debug_str:00000000000007f8 .LASF44
     /tmp/ccHEGcEd.s:7653   .debug_str:0000000000001aa6 .LASF45
     /tmp/ccHEGcEd.s:7393   .debug_str:0000000000001163 .LASF46
     /tmp/ccHEGcEd.s:6947   .debug_str:00000000000001d4 .LASF47
     /tmp/ccHEGcEd.s:7567   .debug_str:00000000000017aa .LASF48
     /tmp/ccHEGcEd.s:7187   .debug_str:0000000000000a93 .LASF49
     /tmp/ccHEGcEd.s:7249   .debug_str:0000000000000ca5 .LASF50
     /tmp/ccHEGcEd.s:7015   .debug_str:0000000000000461 .LASF51
     /tmp/ccHEGcEd.s:7257   .debug_str:0000000000000d03 .LASF52
     /tmp/ccHEGcEd.s:7221   .debug_str:0000000000000b8c .LASF53
     /tmp/ccHEGcEd.s:7531   .debug_str:000000000000158a .LASF54
     /tmp/ccHEGcEd.s:7625   .debug_str:00000000000019bd .LASF56
     /tmp/ccHEGcEd.s:7559   .debug_str:0000000000001751 .LASF58
     /tmp/ccHEGcEd.s:7421   .debug_str:0000000000001251 .LASF59
     /tmp/ccHEGcEd.s:6963   .debug_str:0000000000000269 .LASF60
     /tmp/ccHEGcEd.s:7059   .debug_str:000000000000061a .LASF61
     /tmp/ccHEGcEd.s:7141   .debug_str:00000000000008f2 .LASF62
     /tmp/ccHEGcEd.s:7105   .debug_str:00000000000007d4 .LASF63
     /tmp/ccHEGcEd.s:6957   .debug_str:0000000000000244 .LASF64
     /tmp/ccHEGcEd.s:7589   .debug_str:000000000000188e .LASF65
     /tmp/ccHEGcEd.s:7433   .debug_str:000000000000128d .LASF66
     /tmp/ccHEGcEd.s:7429   .debug_str:0000000000001273 .LASF67
     /tmp/ccHEGcEd.s:7009   .debug_str:000000000000043d .LASF68
     /tmp/ccHEGcEd.s:7371   .debug_str:00000000000010ba .LASF69
     /tmp/ccHEGcEd.s:6891   .debug_str:0000000000000030 .LASF70
     /tmp/ccHEGcEd.s:7243   .debug_str:0000000000000c70 .LASF71
     /tmp/ccHEGcEd.s:7205   .debug_str:0000000000000b07 .LASF72
     /tmp/ccHEGcEd.s:7541   .debug_str:00000000000015f7 .LASF73
     /tmp/ccHEGcEd.s:7619   .debug_str:0000000000001991 .LASF74
     /tmp/ccHEGcEd.s:7311   .debug_str:0000000000000f0a .LASF75
     /tmp/ccHEGcEd.s:7199   .debug_str:0000000000000ade .LASF76
     /tmp/ccHEGcEd.s:7505   .debug_str:00000000000014c3 .LASF77
     /tmp/ccHEGcEd.s:7273   .debug_str:0000000000000dd0 .LASF78
     /tmp/ccHEGcEd.s:7611   .debug_str:0000000000001953 .LASF79
     /tmp/ccHEGcEd.s:7475   .debug_str:00000000000013c5 .LASF80
     /tmp/ccHEGcEd.s:7357   .debug_str:000000000000105e .LASF81
     /tmp/ccHEGcEd.s:7643   .debug_str:0000000000001a52 .LASF82
GAS LISTING /tmp/ccHEGcEd.s 			page 68


     /tmp/ccHEGcEd.s:7595   .debug_str:00000000000018af .LASF83
     /tmp/ccHEGcEd.s:7399   .debug_str:00000000000011ab .LASF84
     /tmp/ccHEGcEd.s:7031   .debug_str:0000000000000501 .LASF85
     /tmp/ccHEGcEd.s:6959   .debug_str:0000000000000257 .LASF86
     /tmp/ccHEGcEd.s:7641   .debug_str:0000000000001a3a .LASF87
     /tmp/ccHEGcEd.s:7191   .debug_str:0000000000000aaa .LASF88
     /tmp/ccHEGcEd.s:7053   .debug_str:00000000000005df .LASF89
     /tmp/ccHEGcEd.s:7511   .debug_str:00000000000014f5 .LASF90
     /tmp/ccHEGcEd.s:7161   .debug_str:0000000000000995 .LASF91
     /tmp/ccHEGcEd.s:7119   .debug_str:0000000000000829 .LASF92
     /tmp/ccHEGcEd.s:7077   .debug_str:00000000000006cb .LASF93
     /tmp/ccHEGcEd.s:7451   .debug_str:00000000000012ff .LASF94
     /tmp/ccHEGcEd.s:7213   .debug_str:0000000000000b4c .LASF95
     /tmp/ccHEGcEd.s:7171   .debug_str:0000000000000a0f .LASF96
     /tmp/ccHEGcEd.s:7301   .debug_str:0000000000000eb6 .LASF97
     /tmp/ccHEGcEd.s:7463   .debug_str:0000000000001381 .LASF98
     /tmp/ccHEGcEd.s:7091   .debug_str:0000000000000739 .LASF99
     /tmp/ccHEGcEd.s:7385   .debug_str:0000000000001126 .LASF100
     /tmp/ccHEGcEd.s:7553   .debug_str:0000000000001707 .LASF101
     /tmp/ccHEGcEd.s:7409   .debug_str:00000000000011fd .LASF102
     /tmp/ccHEGcEd.s:7035   .debug_str:0000000000000528 .LASF103
     /tmp/ccHEGcEd.s:6941   .debug_str:00000000000001a5 .LASF104
     /tmp/ccHEGcEd.s:7229   .debug_str:0000000000000bde .LASF105
     /tmp/ccHEGcEd.s:6905   .debug_str:0000000000000084 .LASF106
     /tmp/ccHEGcEd.s:7503   .debug_str:00000000000014bb .LASF107
     /tmp/ccHEGcEd.s:7321   .debug_str:0000000000000f47 .LASF108
     /tmp/ccHEGcEd.s:7365   .debug_str:0000000000001096 .LASF109
     /tmp/ccHEGcEd.s:7201   .debug_str:0000000000000ae5 .LASF110
     /tmp/ccHEGcEd.s:7367   .debug_str:00000000000010a2 .LASF111
     /tmp/ccHEGcEd.s:6907   .debug_str:000000000000008b .LASF112
     /tmp/ccHEGcEd.s:7051   .debug_str:00000000000005cc .LASF113
     /tmp/ccHEGcEd.s:6993   .debug_str:0000000000000393 .LASF114
     /tmp/ccHEGcEd.s:7469   .debug_str:000000000000139c .LASF115
     /tmp/ccHEGcEd.s:7207   .debug_str:0000000000000b1b .LASF116
     /tmp/ccHEGcEd.s:7549   .debug_str:0000000000001628 .LASF117
     /tmp/ccHEGcEd.s:7241   .debug_str:0000000000000c5f .LASF118
     /tmp/ccHEGcEd.s:7261   .debug_str:0000000000000d36 .LASF119
     /tmp/ccHEGcEd.s:7629   .debug_str:00000000000019d6 .LASF121
     /tmp/ccHEGcEd.s:7095   .debug_str:0000000000000761 .LASF128
     /tmp/ccHEGcEd.s:7285   .debug_str:0000000000000e1f .LASF122
     /tmp/ccHEGcEd.s:6937   .debug_str:0000000000000191 .LASF123
     /tmp/ccHEGcEd.s:7519   .debug_str:0000000000001533 .LASF124
     /tmp/ccHEGcEd.s:7099   .debug_str:0000000000000781 .LASF126
     /tmp/ccHEGcEd.s:7223   .debug_str:0000000000000b99 .LASF125
     /tmp/ccHEGcEd.s:7403   .debug_str:00000000000011cb .LASF127
     /tmp/ccHEGcEd.s:7315   .debug_str:0000000000000f2e .LASF129
     /tmp/ccHEGcEd.s:7333   .debug_str:0000000000000f99 .LASF130
     /tmp/ccHEGcEd.s:7299   .debug_str:0000000000000ea3 .LASF131
     /tmp/ccHEGcEd.s:7609   .debug_str:000000000000194a .LASF132
     /tmp/ccHEGcEd.s:7089   .debug_str:000000000000072f .LASF133
     /tmp/ccHEGcEd.s:6893   .debug_str:0000000000000044 .LASF134
     /tmp/ccHEGcEd.s:7339   .debug_str:0000000000000fbf .LASF136
     /tmp/ccHEGcEd.s:6897   .debug_str:0000000000000059 .LASF135
     /tmp/ccHEGcEd.s:6975   .debug_str:00000000000002d3 .LASF137
     /tmp/ccHEGcEd.s:7529   .debug_str:000000000000157f .LASF138
     /tmp/ccHEGcEd.s:7247   .debug_str:0000000000000c81 .LASF139
     /tmp/ccHEGcEd.s:7495   .debug_str:0000000000001470 .LASF140
GAS LISTING /tmp/ccHEGcEd.s 			page 69


     /tmp/ccHEGcEd.s:7063   .debug_str:0000000000000639 .LASF141
     /tmp/ccHEGcEd.s:7455   .debug_str:0000000000001310 .LASF142
     /tmp/ccHEGcEd.s:7023   .debug_str:00000000000004ae .LASF143
     /tmp/ccHEGcEd.s:7041   .debug_str:0000000000000572 .LASF144
     /tmp/ccHEGcEd.s:7373   .debug_str:00000000000010c2 .LASF145
     /tmp/ccHEGcEd.s:7479   .debug_str:00000000000013dd .LASF146
     /tmp/ccHEGcEd.s:7129   .debug_str:000000000000087b .LASF147
     /tmp/ccHEGcEd.s:7627   .debug_str:00000000000019c6 .LASF148
     /tmp/ccHEGcEd.s:7649   .debug_str:0000000000001a75 .LASF149
     /tmp/ccHEGcEd.s:6883   .debug_str:0000000000000000 .LASF150
     /tmp/ccHEGcEd.s:7297   .debug_str:0000000000000e7c .LASF151
     /tmp/ccHEGcEd.s:6977   .debug_str:00000000000002f4 .LASF380
     /tmp/ccHEGcEd.s:7231   .debug_str:0000000000000c00 .LASF381
     /tmp/ccHEGcEd.s:6973   .debug_str:00000000000002cd .LASF152
     /tmp/ccHEGcEd.s:7255   .debug_str:0000000000000cfd .LASF153
     /tmp/ccHEGcEd.s:7327   .debug_str:0000000000000f6f .LASF154
     /tmp/ccHEGcEd.s:7481   .debug_str:00000000000013ee .LASF155
     /tmp/ccHEGcEd.s:7185   .debug_str:0000000000000a8a .LASF156
     /tmp/ccHEGcEd.s:7165   .debug_str:00000000000009d1 .LASF157
     /tmp/ccHEGcEd.s:7645   .debug_str:0000000000001a60 .LASF158
     /tmp/ccHEGcEd.s:7377   .debug_str:00000000000010fb .LASF159
     /tmp/ccHEGcEd.s:7085   .debug_str:0000000000000721 .LASF160
     /tmp/ccHEGcEd.s:7573   .debug_str:00000000000017e1 .LASF161
     /tmp/ccHEGcEd.s:7259   .debug_str:0000000000000d1e .LASF382
     /tmp/ccHEGcEd.s:7571   .debug_str:00000000000017dc .LASF162
     /tmp/ccHEGcEd.s:7133   .debug_str:00000000000008bb .LASF163
     /tmp/ccHEGcEd.s:7117   .debug_str:000000000000081d .LASF164
     /tmp/ccHEGcEd.s:7443   .debug_str:00000000000012db .LASF165
     /tmp/ccHEGcEd.s:7209   .debug_str:0000000000000b24 .LASF166
     /tmp/ccHEGcEd.s:7239   .debug_str:0000000000000c56 .LASF167
     /tmp/ccHEGcEd.s:7179   .debug_str:0000000000000a5b .LASF168
     /tmp/ccHEGcEd.s:7621   .debug_str:0000000000001998 .LASF169
     /tmp/ccHEGcEd.s:7521   .debug_str:000000000000153b .LASF170
     /tmp/ccHEGcEd.s:7001   .debug_str:00000000000003e9 .LASF171
     /tmp/ccHEGcEd.s:7211   .debug_str:0000000000000b34 .LASF172
     /tmp/ccHEGcEd.s:7335   .debug_str:0000000000000fa7 .LASF173
     /tmp/ccHEGcEd.s:6967   .debug_str:0000000000000292 .LASF174
     /tmp/ccHEGcEd.s:7329   .debug_str:0000000000000f77 .LASF175
     /tmp/ccHEGcEd.s:7391   .debug_str:0000000000001156 .LASF176
     /tmp/ccHEGcEd.s:7347   .debug_str:000000000000101d .LASF177
     /tmp/ccHEGcEd.s:6987   .debug_str:0000000000000361 .LASF178
     /tmp/ccHEGcEd.s:7415   .debug_str:0000000000001225 .LASF179
     /tmp/ccHEGcEd.s:6909   .debug_str:000000000000009e .LASF180
     /tmp/ccHEGcEd.s:7237   .debug_str:0000000000000c47 .LASF181
     /tmp/ccHEGcEd.s:7159   .debug_str:000000000000097b .LASF182
     /tmp/ccHEGcEd.s:7397   .debug_str:000000000000119c .LASF183
     /tmp/ccHEGcEd.s:7269   .debug_str:0000000000000d93 .LASF184
     /tmp/ccHEGcEd.s:7517   .debug_str:0000000000001525 .LASF185
     /tmp/ccHEGcEd.s:7523   .debug_str:000000000000154c .LASF186
     /tmp/ccHEGcEd.s:7411   .debug_str:000000000000120c .LASF187
     /tmp/ccHEGcEd.s:7065   .debug_str:000000000000066e .LASF188
     /tmp/ccHEGcEd.s:7109   .debug_str:00000000000007e4 .LASF189
     /tmp/ccHEGcEd.s:7615   .debug_str:0000000000001973 .LASF190
     /tmp/ccHEGcEd.s:6895   .debug_str:000000000000004e .LASF191
     /tmp/ccHEGcEd.s:7193   .debug_str:0000000000000ab1 .LASF192
     /tmp/ccHEGcEd.s:7407   .debug_str:00000000000011f2 .LASF193
     /tmp/ccHEGcEd.s:7543   .debug_str:0000000000001604 .LASF194
GAS LISTING /tmp/ccHEGcEd.s 			page 70


     /tmp/ccHEGcEd.s:7183   .debug_str:0000000000000a7f .LASF195
     /tmp/ccHEGcEd.s:6953   .debug_str:000000000000021f .LASF196
     /tmp/ccHEGcEd.s:7547   .debug_str:0000000000001620 .LASF197
     /tmp/ccHEGcEd.s:7295   .debug_str:0000000000000e68 .LASF198
     /tmp/ccHEGcEd.s:6971   .debug_str:00000000000002ae .LASF199
     /tmp/ccHEGcEd.s:7419   .debug_str:000000000000123f .LASF200
     /tmp/ccHEGcEd.s:7623   .debug_str:00000000000019a0 .LASF201
     /tmp/ccHEGcEd.s:7289   .debug_str:0000000000000e31 .LASF202
     /tmp/ccHEGcEd.s:7603   .debug_str:0000000000001902 .LASF203
     /tmp/ccHEGcEd.s:7043   .debug_str:0000000000000587 .LASF204
     /tmp/ccHEGcEd.s:7587   .debug_str:0000000000001870 .LASF205
     /tmp/ccHEGcEd.s:7493   .debug_str:000000000000145d .LASF206
     /tmp/ccHEGcEd.s:6927   .debug_str:0000000000000141 .LASF207
     /tmp/ccHEGcEd.s:7537   .debug_str:00000000000015d8 .LASF208
     /tmp/ccHEGcEd.s:7631   .debug_str:00000000000019e6 .LASF209
     /tmp/ccHEGcEd.s:7293   .debug_str:0000000000000e54 .LASF210
     /tmp/ccHEGcEd.s:7579   .debug_str:0000000000001807 .LASF211
     /tmp/ccHEGcEd.s:6995   .debug_str:00000000000003a7 .LASF212
     /tmp/ccHEGcEd.s:7349   .debug_str:0000000000001026 .LASF213
     /tmp/ccHEGcEd.s:6983   .debug_str:0000000000000349 .LASF214
     /tmp/ccHEGcEd.s:7011   .debug_str:0000000000000451 .LASF215
     /tmp/ccHEGcEd.s:7497   .debug_str:000000000000148b .LASF216
     /tmp/ccHEGcEd.s:7555   .debug_str:000000000000171f .LASF217
     /tmp/ccHEGcEd.s:7565   .debug_str:0000000000001782 .LASF218
     /tmp/ccHEGcEd.s:7359   .debug_str:0000000000001070 .LASF219
     /tmp/ccHEGcEd.s:6979   .debug_str:0000000000000306 .LASF220
     /tmp/ccHEGcEd.s:7277   .debug_str:0000000000000ddf .LASF221
     /tmp/ccHEGcEd.s:7637   .debug_str:0000000000001a1b .LASF222
     /tmp/ccHEGcEd.s:7491   .debug_str:0000000000001458 .LASF223
     /tmp/ccHEGcEd.s:7363   .debug_str:0000000000001091 .LASF224
     /tmp/ccHEGcEd.s:6943   .debug_str:00000000000001ba .LASF225
     /tmp/ccHEGcEd.s:7545   .debug_str:000000000000161a .LASF226
     /tmp/ccHEGcEd.s:7325   .debug_str:0000000000000f67 .LASF227
     /tmp/ccHEGcEd.s:7181   .debug_str:0000000000000a6e .LASF228
     /tmp/ccHEGcEd.s:7189   .debug_str:0000000000000aa5 .LASF229
     /tmp/ccHEGcEd.s:7291   .debug_str:0000000000000e47 .LASF230
     /tmp/ccHEGcEd.s:6985   .debug_str:0000000000000351 .LASF231
     /tmp/ccHEGcEd.s:7601   .debug_str:00000000000018f0 .LASF232
     /tmp/ccHEGcEd.s:7459   .debug_str:0000000000001339 .LASF233
     /tmp/ccHEGcEd.s:7613   .debug_str:0000000000001965 .LASF234
     /tmp/ccHEGcEd.s:7167   .debug_str:00000000000009d9 .LASF235
     /tmp/ccHEGcEd.s:7337   .debug_str:0000000000000fb4 .LASF236
     /tmp/ccHEGcEd.s:7075   .debug_str:00000000000006b7 .LASF237
     /tmp/ccHEGcEd.s:7151   .debug_str:0000000000000936 .LASF238
     /tmp/ccHEGcEd.s:6965   .debug_str:000000000000027e .LASF239
     /tmp/ccHEGcEd.s:7319   .debug_str:0000000000000f42 .LASF240
     /tmp/ccHEGcEd.s:7251   .debug_str:0000000000000cc4 .LASF241
     /tmp/ccHEGcEd.s:6915   .debug_str:00000000000000cf .LASF242
     /tmp/ccHEGcEd.s:7073   .debug_str:000000000000069e .LASF243
     /tmp/ccHEGcEd.s:7361   .debug_str:0000000000001085 .LASF244
     /tmp/ccHEGcEd.s:7501   .debug_str:00000000000014af .LASF245
     /tmp/ccHEGcEd.s:7591   .debug_str:0000000000001896 .LASF246
     /tmp/ccHEGcEd.s:7387   .debug_str:0000000000001131 .LASF247
     /tmp/ccHEGcEd.s:7245   .debug_str:0000000000000c78 .LASF248
     /tmp/ccHEGcEd.s:7445   .debug_str:00000000000012e1 .LASF249
     /tmp/ccHEGcEd.s:7279   .debug_str:0000000000000de6 .LASF250
     /tmp/ccHEGcEd.s:7447   .debug_str:00000000000012eb .LASF251
GAS LISTING /tmp/ccHEGcEd.s 			page 71


     /tmp/ccHEGcEd.s:6955   .debug_str:0000000000000235 .LASF252
     /tmp/ccHEGcEd.s:7079   .debug_str:00000000000006e1 .LASF253
     /tmp/ccHEGcEd.s:7607   .debug_str:000000000000193b .LASF254
     /tmp/ccHEGcEd.s:7341   .debug_str:0000000000000fe0 .LASF255
     /tmp/ccHEGcEd.s:7313   .debug_str:0000000000000f1d .LASF256
     /tmp/ccHEGcEd.s:7225   .debug_str:0000000000000b9f .LASF257
     /tmp/ccHEGcEd.s:7583   .debug_str:000000000000184d .LASF258
     /tmp/ccHEGcEd.s:6925   .debug_str:000000000000011e .LASF259
     /tmp/ccHEGcEd.s:7423   .debug_str:000000000000125a .LASF260
     /tmp/ccHEGcEd.s:6921   .debug_str:00000000000000f9 .LASF261
     /tmp/ccHEGcEd.s:6931   .debug_str:0000000000000177 .LASF262
     /tmp/ccHEGcEd.s:7055   .debug_str:00000000000005f2 .LASF263
     /tmp/ccHEGcEd.s:7389   .debug_str:0000000000001146 .LASF264
     /tmp/ccHEGcEd.s:7103   .debug_str:00000000000007b1 .LASF265
     /tmp/ccHEGcEd.s:7169   .debug_str:00000000000009fc .LASF266
     /tmp/ccHEGcEd.s:7267   .debug_str:0000000000000d6d .LASF267
     /tmp/ccHEGcEd.s:7483   .debug_str:00000000000013f8 .LASF268
     /tmp/ccHEGcEd.s:7557   .debug_str:000000000000172d .LASF269
     /tmp/ccHEGcEd.s:7275   .debug_str:0000000000000dd6 .LASF270
     /tmp/ccHEGcEd.s:7575   .debug_str:00000000000017ec .LASF271
     /tmp/ccHEGcEd.s:7003   .debug_str:00000000000003f6 .LASF272
     /tmp/ccHEGcEd.s:7139   .debug_str:00000000000008e5 .LASF273
     /tmp/ccHEGcEd.s:7439   .debug_str:00000000000012b7 .LASF274
     /tmp/ccHEGcEd.s:7457   .debug_str:0000000000001326 .LASF275
     /tmp/ccHEGcEd.s:7581   .debug_str:0000000000001826 .LASF276
     /tmp/ccHEGcEd.s:7153   .debug_str:0000000000000942 .LASF277
     /tmp/ccHEGcEd.s:7097   .debug_str:000000000000076d .LASF278
     /tmp/ccHEGcEd.s:6911   .debug_str:00000000000000ba .LASF279
     /tmp/ccHEGcEd.s:7017   .debug_str:000000000000046f .LASF280
     /tmp/ccHEGcEd.s:7353   .debug_str:0000000000001036 .LASF281
     /tmp/ccHEGcEd.s:6913   .debug_str:00000000000000c4 .LASF282
     /tmp/ccHEGcEd.s:7125   .debug_str:0000000000000856 .LASF283
     /tmp/ccHEGcEd.s:6899   .debug_str:0000000000000062 .LASF284
     /tmp/ccHEGcEd.s:7071   .debug_str:0000000000000692 .LASF285
     /tmp/ccHEGcEd.s:7515   .debug_str:0000000000001518 .LASF286
     /tmp/ccHEGcEd.s:7069   .debug_str:0000000000000686 .LASF287
     /tmp/ccHEGcEd.s:7467   .debug_str:0000000000001390 .LASF288
     /tmp/ccHEGcEd.s:7019   .debug_str:000000000000047a .LASF289
     /tmp/ccHEGcEd.s:7253   .debug_str:0000000000000cdb .LASF290
     /tmp/ccHEGcEd.s:7173   .debug_str:0000000000000a15 .LASF291
     /tmp/ccHEGcEd.s:7487   .debug_str:0000000000001419 .LASF292
     /tmp/ccHEGcEd.s:7081   .debug_str:0000000000000703 .LASF293
     /tmp/ccHEGcEd.s:7021   .debug_str:000000000000048c .LASF294
     /tmp/ccHEGcEd.s:7121   .debug_str:0000000000000833 .LASF295
     /tmp/ccHEGcEd.s:7039   .debug_str:000000000000054f .LASF296
     /tmp/ccHEGcEd.s:6989   .debug_str:0000000000000374 .LASF297
     /tmp/ccHEGcEd.s:7265   .debug_str:0000000000000d4a .LASF298
     /tmp/ccHEGcEd.s:7395   .debug_str:0000000000001181 .LASF299
     /tmp/ccHEGcEd.s:7025   .debug_str:00000000000004dc .LASF300
     /tmp/ccHEGcEd.s:7281   .debug_str:0000000000000def .LASF301
     /tmp/ccHEGcEd.s:7007   .debug_str:0000000000000424 .LASF302
     /tmp/ccHEGcEd.s:7163   .debug_str:00000000000009a8 .LASF303
     /tmp/ccHEGcEd.s:7499   .debug_str:0000000000001497 .LASF304
     /tmp/ccHEGcEd.s:6999   .debug_str:00000000000003c0 .LASF305
     /tmp/ccHEGcEd.s:7101   .debug_str:00000000000007a0 .LASF306
     /tmp/ccHEGcEd.s:7331   .debug_str:0000000000000f87 .LASF307
     /tmp/ccHEGcEd.s:6901   .debug_str:000000000000006d .LASF308
GAS LISTING /tmp/ccHEGcEd.s 			page 72


     /tmp/ccHEGcEd.s:7287   .debug_str:0000000000000e24 .LASF309
     /tmp/ccHEGcEd.s:7283   .debug_str:0000000000000e0e .LASF310
     /tmp/ccHEGcEd.s:6991   .debug_str:0000000000000387 .LASF311
     /tmp/ccHEGcEd.s:7513   .debug_str:00000000000014fc .LASF312
     /tmp/ccHEGcEd.s:7647   .debug_str:0000000000001a69 .LASF313
     /tmp/ccHEGcEd.s:7137   .debug_str:00000000000008c9 .LASF314
     /tmp/ccHEGcEd.s:7435   .debug_str:00000000000012a1 .LASF315
     /tmp/ccHEGcEd.s:7061   .debug_str:0000000000000621 .LASF383
     /tmp/ccHEGcEd.s:7343   .debug_str:0000000000001002 .LASF384
     /tmp/ccHEGcEd.s:7145   .debug_str:0000000000000910 .LASF316
     /tmp/ccHEGcEd.s:7045   .debug_str:000000000000059a .LASF317
     /tmp/ccHEGcEd.s:7087   .debug_str:0000000000000727 .LASF318
     /tmp/ccHEGcEd.s:7605   .debug_str:0000000000001923 .LASF319
     /tmp/ccHEGcEd.s:7369   .debug_str:00000000000010b4 .LASF320
     /tmp/ccHEGcEd.s:7309   .debug_str:0000000000000ef4 .LASF321
     /tmp/ccHEGcEd.s:7417   .debug_str:000000000000122e .LASF322
     /tmp/ccHEGcEd.s:7323   .debug_str:0000000000000f56 .LASF323
     /tmp/ccHEGcEd.s:7401   .debug_str:00000000000011b6 .LASF324
     /tmp/ccHEGcEd.s:7049   .debug_str:00000000000005b3 .LASF325
     /tmp/ccHEGcEd.s:7303   .debug_str:0000000000000ec8 .LASF326
     /tmp/ccHEGcEd.s:6885   .debug_str:000000000000000f .LASF327
     /tmp/ccHEGcEd.s:7227   .debug_str:0000000000000bc3 .LASF328
     /tmp/ccHEGcEd.s:7599   .debug_str:00000000000018dd .LASF329
     /tmp/ccHEGcEd.s:7489   .debug_str:000000000000143b .LASF330
     /tmp/ccHEGcEd.s:7633   .debug_str:0000000000001a06 .LASF331
     /tmp/ccHEGcEd.s:7057   .debug_str:000000000000060c .LASF332
     /tmp/ccHEGcEd.s:7563   .debug_str:0000000000001772 .LASF333
     /tmp/ccHEGcEd.s:6997   .debug_str:00000000000003b0 .LASF334
     /tmp/ccHEGcEd.s:1171   .text:0000000000000708 .LFB41
     /tmp/ccHEGcEd.s:1815   .text:00000000000009d4 .LFE41
     /tmp/ccHEGcEd.s:7345   .debug_str:0000000000001016 .LASF335
     /tmp/ccHEGcEd.s:6343   .debug_loc:0000000000000000 .LLST29
     /tmp/ccHEGcEd.s:7067   .debug_str:000000000000067e .LASF336
     /tmp/ccHEGcEd.s:6961   .debug_str:0000000000000262 .LASF337
     /tmp/ccHEGcEd.s:6889   .debug_str:0000000000000028 .LASF338
     /tmp/ccHEGcEd.s:6867   .debug_ranges:0000000000000000 .Ldebug_ranges0
     /tmp/ccHEGcEd.s:7381   .debug_str:000000000000110e .LASF339
     /tmp/ccHEGcEd.s:7235   .debug_str:0000000000000c3f .LASF340
     /tmp/ccHEGcEd.s:1319   .text:00000000000007e0 .LBB71
     /tmp/ccHEGcEd.s:1335   .text:00000000000007ec .LBE71
     /tmp/ccHEGcEd.s:1339   .text:00000000000007f0 .LBB73
     /tmp/ccHEGcEd.s:1354   .text:00000000000007fc .LBE73
     /tmp/ccHEGcEd.s:1359   .text:0000000000000800 .LBB75
     /tmp/ccHEGcEd.s:1371   .text:0000000000000808 .LBE75
     /tmp/ccHEGcEd.s:6358   .debug_loc:0000000000000049 .LLST30
     /tmp/ccHEGcEd.s:1393   .text:0000000000000844 .LBB77
     /tmp/ccHEGcEd.s:1401   .text:0000000000000848 .LBE77
     /tmp/ccHEGcEd.s:6366   .debug_loc:000000000000006d .LLST31
     /tmp/ccHEGcEd.s:1411   .text:0000000000000854 .LBB79
     /tmp/ccHEGcEd.s:1422   .text:0000000000000858 .LBE79
     /tmp/ccHEGcEd.s:6373   .debug_loc:0000000000000090 .LLST32
     /tmp/ccHEGcEd.s:1427   .text:000000000000085c .LBB81
     /tmp/ccHEGcEd.s:1438   .text:0000000000000860 .LBE81
     /tmp/ccHEGcEd.s:6380   .debug_loc:00000000000000b3 .LLST33
     /tmp/ccHEGcEd.s:1387   .text:0000000000000838 .LVL115
     /tmp/ccHEGcEd.s:1442   .text:0000000000000868 .LVL122
     /tmp/ccHEGcEd.s:1471   .text:0000000000000888 .LVL123
GAS LISTING /tmp/ccHEGcEd.s 			page 73


     /tmp/ccHEGcEd.s:6903   .debug_str:000000000000007a .LASF341
     /tmp/ccHEGcEd.s:6387   .debug_loc:00000000000000d6 .LLST34
     /tmp/ccHEGcEd.s:1516   .text:00000000000008b4 .LBB85
     /tmp/ccHEGcEd.s:1531   .text:00000000000008c0 .LBE85
     /tmp/ccHEGcEd.s:1537   .text:00000000000008c8 .LBB87
     /tmp/ccHEGcEd.s:1552   .text:00000000000008d4 .LBE87
     /tmp/ccHEGcEd.s:1650   .text:0000000000000908 .LBB89
     /tmp/ccHEGcEd.s:1661   .text:000000000000090c .LBE89
     /tmp/ccHEGcEd.s:6394   .debug_loc:00000000000000f9 .LLST35
     /tmp/ccHEGcEd.s:1666   .text:0000000000000910 .LBB91
     /tmp/ccHEGcEd.s:1677   .text:0000000000000914 .LBE91
     /tmp/ccHEGcEd.s:6401   .debug_loc:000000000000011c .LLST36
     /tmp/ccHEGcEd.s:1643   .text:0000000000000904 .LVL129
     /tmp/ccHEGcEd.s:1681   .text:000000000000091c .LVL134
     /tmp/ccHEGcEd.s:1696   .text:0000000000000928 .LVL135
     /tmp/ccHEGcEd.s:1704   .text:0000000000000934 .LVL136
     /tmp/ccHEGcEd.s:1712   .text:0000000000000940 .LVL137
     /tmp/ccHEGcEd.s:1720   .text:000000000000094c .LVL138
     /tmp/ccHEGcEd.s:1728   .text:0000000000000958 .LVL139
     /tmp/ccHEGcEd.s:1736   .text:0000000000000964 .LVL140
     /tmp/ccHEGcEd.s:1744   .text:0000000000000970 .LVL141
     /tmp/ccHEGcEd.s:1752   .text:000000000000097c .LVL142
     /tmp/ccHEGcEd.s:1760   .text:0000000000000988 .LVL143
     /tmp/ccHEGcEd.s:1768   .text:0000000000000994 .LVL144
     /tmp/ccHEGcEd.s:1776   .text:00000000000009a0 .LVL145
     /tmp/ccHEGcEd.s:1784   .text:00000000000009ac .LVL146
     /tmp/ccHEGcEd.s:1792   .text:00000000000009b8 .LVL147
     /tmp/ccHEGcEd.s:1800   .text:00000000000009c4 .LVL148
     /tmp/ccHEGcEd.s:1808   .text:00000000000009d0 .LVL149
     /tmp/ccHEGcEd.s:1205   .text:0000000000000740 .LBB66
     /tmp/ccHEGcEd.s:1221   .text:000000000000074c .LBE66
     /tmp/ccHEGcEd.s:1277   .text:00000000000007a8 .LVL105
     /tmp/ccHEGcEd.s:1281   .text:00000000000007b0 .LVL106
     /tmp/ccHEGcEd.s:1283   .text:00000000000007b8 .LVL107
     /tmp/ccHEGcEd.s:1292   .text:00000000000007c4 .LVL108
     /tmp/ccHEGcEd.s:1301   .text:00000000000007d0 .LVL109
     /tmp/ccHEGcEd.s:1310   .text:00000000000007dc .LVL110
     /tmp/ccHEGcEd.s:1480   .text:0000000000000894 .LVL124
     /tmp/ccHEGcEd.s:1489   .text:00000000000008a0 .LVL125
     /tmp/ccHEGcEd.s:1498   .text:00000000000008ac .LVL126
     /tmp/ccHEGcEd.s:1105   .text:00000000000006c8 .LFB40
     /tmp/ccHEGcEd.s:1165   .text:0000000000000708 .LFE40
     /tmp/ccHEGcEd.s:1123   .text:00000000000006e8 .LBB62
     /tmp/ccHEGcEd.s:1136   .text:00000000000006f0 .LBE62
     /tmp/ccHEGcEd.s:6408   .debug_loc:000000000000013f .LLST27
     /tmp/ccHEGcEd.s:1149   .text:00000000000006fc .LBB64
     /tmp/ccHEGcEd.s:1161   .text:0000000000000704 .LBE64
     /tmp/ccHEGcEd.s:6417   .debug_loc:0000000000000165 .LLST28
     /tmp/ccHEGcEd.s:1052   .text:0000000000000690 .LFB39
     /tmp/ccHEGcEd.s:1099   .text:00000000000006c8 .LFE39
     /tmp/ccHEGcEd.s:7635   .debug_str:0000000000001a14 .LASF342
     /tmp/ccHEGcEd.s:1019   .text:0000000000000670 .LFB38
     /tmp/ccHEGcEd.s:1046   .text:0000000000000690 .LFE38
     /tmp/ccHEGcEd.s:985    .text:0000000000000640 .LFB37
     /tmp/ccHEGcEd.s:1013   .text:0000000000000670 .LFE37
     /tmp/ccHEGcEd.s:7441   .debug_str:00000000000012d6 .LASF343
     /tmp/ccHEGcEd.s:6426   .debug_loc:000000000000018b .LLST26
GAS LISTING /tmp/ccHEGcEd.s 			page 74


     /tmp/ccHEGcEd.s:1002   .text:0000000000000660 .LVL95
     /tmp/ccHEGcEd.s:951    .text:0000000000000610 .LFB36
     /tmp/ccHEGcEd.s:979    .text:0000000000000640 .LFE36
     /tmp/ccHEGcEd.s:6440   .debug_loc:00000000000001c4 .LLST25
     /tmp/ccHEGcEd.s:968    .text:0000000000000630 .LVL93
     /tmp/ccHEGcEd.s:279    .text:0000000000000144 .LFB35
     /tmp/ccHEGcEd.s:511    .text:0000000000000298 .LFE35
     /tmp/ccHEGcEd.s:6454   .debug_loc:00000000000001fd .LLST3
     /tmp/ccHEGcEd.s:7305   .debug_str:0000000000000ee5 .LASF344
     /tmp/ccHEGcEd.s:6468   .debug_loc:0000000000000236 .LLST4
     /tmp/ccHEGcEd.s:7465   .debug_str:0000000000001387 .LASF345
     /tmp/ccHEGcEd.s:6501   .debug_loc:00000000000002be .LLST5
     /tmp/ccHEGcEd.s:6527   .debug_loc:0000000000000330 .LLST6
     /tmp/ccHEGcEd.s:6551   .debug_loc:0000000000000382 .LLST7
     /tmp/ccHEGcEd.s:6574   .debug_loc:00000000000003d4 .LLST8
     /tmp/ccHEGcEd.s:7413   .debug_str:000000000000121c .LASF346
     /tmp/ccHEGcEd.s:6606   .debug_loc:000000000000043f .LLST9
     /tmp/ccHEGcEd.s:6935   .debug_str:000000000000018c .LASF347
     /tmp/ccHEGcEd.s:6627   .debug_loc:000000000000049d .LLST10
     /tmp/ccHEGcEd.s:7651   .debug_str:0000000000001a9d .LASF348
     /tmp/ccHEGcEd.s:6648   .debug_loc:00000000000004fb .LLST11
     /tmp/ccHEGcEd.s:7593   .debug_str:00000000000018aa .LASF349
     /tmp/ccHEGcEd.s:6669   .debug_loc:0000000000000559 .LLST12
     /tmp/ccHEGcEd.s:7135   .debug_str:00000000000008c0 .LASF350
     /tmp/ccHEGcEd.s:6690   .debug_loc:00000000000005b7 .LLST13
     /tmp/ccHEGcEd.s:415    .text:000000000000020c .LBB49
     /tmp/ccHEGcEd.s:460    .text:0000000000000254 .LBE49
     /tmp/ccHEGcEd.s:7155   .debug_str:0000000000000955 .LASF351
     /tmp/ccHEGcEd.s:6697   .debug_loc:00000000000005da .LLST14
     /tmp/ccHEGcEd.s:423    .text:0000000000000218 .LBB50
     /tmp/ccHEGcEd.s:443    .text:0000000000000238 .LBE50
     /tmp/ccHEGcEd.s:6704   .debug_loc:00000000000005fd .LLST15
     /tmp/ccHEGcEd.s:421    .text:0000000000000218 .LVL33
     /tmp/ccHEGcEd.s:466    .text:0000000000000258 .LBB52
     /tmp/ccHEGcEd.s:507    .text:0000000000000294 .LBE52
     /tmp/ccHEGcEd.s:474    .text:0000000000000264 .LBB53
     /tmp/ccHEGcEd.s:494    .text:0000000000000284 .LBE53
     /tmp/ccHEGcEd.s:6720   .debug_loc:0000000000000647 .LLST16
     /tmp/ccHEGcEd.s:472    .text:0000000000000264 .LVL41
     /tmp/ccHEGcEd.s:192    .text:00000000000000ec .LFB34
     /tmp/ccHEGcEd.s:273    .text:0000000000000144 .LFE34
     /tmp/ccHEGcEd.s:234    .text:0000000000000120 .LBB46
     /tmp/ccHEGcEd.s:268    .text:0000000000000140 .LBE46
     /tmp/ccHEGcEd.s:73     .text:0000000000000038 .LFB33
     /tmp/ccHEGcEd.s:105    .text:0000000000000058 .LFE33
     /tmp/ccHEGcEd.s:84     .text:0000000000000044 .LBB43
     /tmp/ccHEGcEd.s:96     .text:000000000000004c .LBE43
     /tmp/ccHEGcEd.s:6736   .debug_loc:0000000000000691 .LLST1
     /tmp/ccHEGcEd.s:34     .text:0000000000000018 .LFB32
     /tmp/ccHEGcEd.s:67     .text:0000000000000038 .LFE32
     /tmp/ccHEGcEd.s:45     .text:0000000000000024 .LBB41
     /tmp/ccHEGcEd.s:58     .text:000000000000002c .LBE41
     /tmp/ccHEGcEd.s:6744   .debug_loc:00000000000006b5 .LLST0
     /tmp/ccHEGcEd.s:111    .text:0000000000000058 .LFB31
     /tmp/ccHEGcEd.s:186    .text:00000000000000ec .LFE31
     /tmp/ccHEGcEd.s:6752   .debug_loc:00000000000006d9 .LLST2
     /tmp/ccHEGcEd.s:125    .text:0000000000000070 .LVL4
GAS LISTING /tmp/ccHEGcEd.s 			page 75


     /tmp/ccHEGcEd.s:137    .text:0000000000000084 .LVL6
     /tmp/ccHEGcEd.s:146    .text:000000000000009c .LVL8
     /tmp/ccHEGcEd.s:154    .text:00000000000000b0 .LVL9
     /tmp/ccHEGcEd.s:162    .text:00000000000000c4 .LVL10
     /tmp/ccHEGcEd.s:168    .text:00000000000000d0 .LVL11
     /tmp/ccHEGcEd.s:175    .text:00000000000000dc .LVL12
     /tmp/ccHEGcEd.s:885    .text:0000000000000598 .LFB30
     /tmp/ccHEGcEd.s:945    .text:0000000000000610 .LFE30
     /tmp/ccHEGcEd.s:909    .text:00000000000005cc .LVL87
     /tmp/ccHEGcEd.s:913    .text:00000000000005d4 .LVL88
     /tmp/ccHEGcEd.s:921    .text:00000000000005e8 .LVL89
     /tmp/ccHEGcEd.s:927    .text:00000000000005f4 .LVL90
     /tmp/ccHEGcEd.s:934    .text:0000000000000600 .LVL91
     /tmp/ccHEGcEd.s:595    .text:0000000000000300 .LFB29
     /tmp/ccHEGcEd.s:879    .text:0000000000000598 .LFE29
     /tmp/ccHEGcEd.s:6917   .debug_str:00000000000000d6 .LASF352
     /tmp/ccHEGcEd.s:6759   .debug_loc:00000000000006fc .LLST21
     /tmp/ccHEGcEd.s:7005   .debug_str:0000000000000418 .LASF353
     /tmp/ccHEGcEd.s:7473   .debug_str:00000000000013b8 .LASF354
     /tmp/ccHEGcEd.s:6772   .debug_loc:0000000000000737 .LLST22
     /tmp/ccHEGcEd.s:7317   .debug_str:0000000000000f37 .LASF355
     /tmp/ccHEGcEd.s:7527   .debug_str:0000000000001574 .LASF356
     /tmp/ccHEGcEd.s:7029   .debug_str:00000000000004f6 .LASF357
     /tmp/ccHEGcEd.s:7037   .debug_str:0000000000000544 .LASF358
     /tmp/ccHEGcEd.s:6887   .debug_str:0000000000000023 .LASF359
     /tmp/ccHEGcEd.s:697    .text:00000000000003d8 .LBB59
     /tmp/ccHEGcEd.s:717    .text:0000000000000400 .LBE59
     /tmp/ccHEGcEd.s:6779   .debug_loc:000000000000075a .LLST23
     /tmp/ccHEGcEd.s:622    .text:0000000000000330 .LBB57
     /tmp/ccHEGcEd.s:633    .text:0000000000000334 .LBE57
     /tmp/ccHEGcEd.s:827    .text:0000000000000550 .LBB60
     /tmp/ccHEGcEd.s:839    .text:0000000000000558 .LBE60
     /tmp/ccHEGcEd.s:6791   .debug_loc:0000000000000791 .LLST24
     /tmp/ccHEGcEd.s:639    .text:0000000000000348 .LVL55
     /tmp/ccHEGcEd.s:651    .text:000000000000035c .LVL58
     /tmp/ccHEGcEd.s:658    .text:0000000000000370 .LVL59
     /tmp/ccHEGcEd.s:666    .text:000000000000038c .LVL60
     /tmp/ccHEGcEd.s:677    .text:00000000000003b4 .LVL61
     /tmp/ccHEGcEd.s:683    .text:00000000000003c0 .LVL62
     /tmp/ccHEGcEd.s:687    .text:00000000000003c8 .LVL63
     /tmp/ccHEGcEd.s:692    .text:00000000000003d4 .LVL64
     /tmp/ccHEGcEd.s:725    .text:0000000000000420 .LVL68
     /tmp/ccHEGcEd.s:748    .text:0000000000000458 .LVL73
     /tmp/ccHEGcEd.s:755    .text:000000000000046c .LVL74
     /tmp/ccHEGcEd.s:762    .text:0000000000000480 .LVL75
     /tmp/ccHEGcEd.s:769    .text:0000000000000494 .LVL76
     /tmp/ccHEGcEd.s:777    .text:00000000000004b0 .LVL77
     /tmp/ccHEGcEd.s:784    .text:00000000000004c4 .LVL78
     /tmp/ccHEGcEd.s:793    .text:00000000000004e4 .LVL79
     /tmp/ccHEGcEd.s:801    .text:0000000000000500 .LVL80
     /tmp/ccHEGcEd.s:809    .text:000000000000051c .LVL81
     /tmp/ccHEGcEd.s:817    .text:0000000000000538 .LVL82
     /tmp/ccHEGcEd.s:825    .text:0000000000000550 .LVL83
     /tmp/ccHEGcEd.s:517    .text:0000000000000298 .LFB28
     /tmp/ccHEGcEd.s:578    .text:0000000000000300 .LFE28
     /tmp/ccHEGcEd.s:7375   .debug_str:00000000000010f1 .LASF360
     /tmp/ccHEGcEd.s:6801   .debug_loc:00000000000007b7 .LLST17
GAS LISTING /tmp/ccHEGcEd.s 			page 76


     /tmp/ccHEGcEd.s:7147   .debug_str:0000000000000922 .LASF361
     /tmp/ccHEGcEd.s:6815   .debug_loc:00000000000007f0 .LLST18
     /tmp/ccHEGcEd.s:7027   .debug_str:00000000000004eb .LASF362
     /tmp/ccHEGcEd.s:6833   .debug_loc:000000000000083c .LLST19
     /tmp/ccHEGcEd.s:541    .text:00000000000002c0 .LBB56
     /tmp/ccHEGcEd.s:559    .text:00000000000002e4 .LBE56
     /tmp/ccHEGcEd.s:6847   .debug_loc:0000000000000875 .LLST20
     /tmp/ccHEGcEd.s:550    .text:00000000000002d8 .LVL49
     /tmp/ccHEGcEd.s:10     .text:0000000000000000 .LFB27
     /tmp/ccHEGcEd.s:28     .text:0000000000000018 .LFE27
     /tmp/ccHEGcEd.s:7351   .debug_str:0000000000001031 .LASF385
     /tmp/ccHEGcEd.s:7047   .debug_str:00000000000005ad .LASF363
     /tmp/ccHEGcEd.s:7577   .debug_str:00000000000017fc .LASF364
     /tmp/ccHEGcEd.s:7639   .debug_str:0000000000001a2c .LASF365
     /tmp/ccHEGcEd.s:6949   .debug_str:00000000000001eb .LASF366
     /tmp/ccHEGcEd.s:7083   .debug_str:0000000000000715 .LASF367
     /tmp/ccHEGcEd.s:7127   .debug_str:000000000000085f .LASF368
     /tmp/ccHEGcEd.s:6981   .debug_str:0000000000000332 .LASF369
     /tmp/ccHEGcEd.s:7477   .debug_str:00000000000013cb .LASF370
     /tmp/ccHEGcEd.s:7197   .debug_str:0000000000000ad1 .LASF371
     /tmp/ccHEGcEd.s:7219   .debug_str:0000000000000b7c .LASF372
     /tmp/ccHEGcEd.s:7307   .debug_str:0000000000000eea .LASF373
     /tmp/ccHEGcEd.s:6951   .debug_str:00000000000001fc .LASF374
     /tmp/ccHEGcEd.s:6945   .debug_str:00000000000001c2 .LASF375
     /tmp/ccHEGcEd.s:1219   .text:000000000000074c .LVL102
     /tmp/ccHEGcEd.s:1234   .text:0000000000000768 .LVL103
     /tmp/ccHEGcEd.s:1261   .text:0000000000000780 .LVL104
     /tmp/ccHEGcEd.s:1313   .text:00000000000007e0 .LVL111
     /tmp/ccHEGcEd.s:1328   .text:00000000000007e4 .LVL112
     /tmp/ccHEGcEd.s:1358   .text:0000000000000800 .LVL113
     /tmp/ccHEGcEd.s:1368   .text:0000000000000808 .LVL114
     /tmp/ccHEGcEd.s:1392   .text:0000000000000844 .LVL116
     /tmp/ccHEGcEd.s:1399   .text:0000000000000848 .LVL117
     /tmp/ccHEGcEd.s:1410   .text:0000000000000854 .LVL118
     /tmp/ccHEGcEd.s:1419   .text:0000000000000858 .LVL119
     /tmp/ccHEGcEd.s:1426   .text:000000000000085c .LVL120
     /tmp/ccHEGcEd.s:1435   .text:0000000000000860 .LVL121
     /tmp/ccHEGcEd.s:1513   .text:00000000000008b4 .LVL127
     /tmp/ccHEGcEd.s:1559   .text:00000000000008e4 .LVL128
     /tmp/ccHEGcEd.s:1649   .text:0000000000000908 .LVL130
     /tmp/ccHEGcEd.s:1658   .text:000000000000090c .LVL131
     /tmp/ccHEGcEd.s:1665   .text:0000000000000910 .LVL132
     /tmp/ccHEGcEd.s:1674   .text:0000000000000914 .LVL133
     /tmp/ccHEGcEd.s:1122   .text:00000000000006e8 .LVL98
     /tmp/ccHEGcEd.s:1132   .text:00000000000006f0 .LVL99
     /tmp/ccHEGcEd.s:1148   .text:00000000000006fc .LVL100
     /tmp/ccHEGcEd.s:1158   .text:0000000000000704 .LVL101
     /tmp/ccHEGcEd.s:988    .text:0000000000000640 .LVL94
     /tmp/ccHEGcEd.s:954    .text:0000000000000610 .LVL92
     /tmp/ccHEGcEd.s:282    .text:0000000000000144 .LVL14
     /tmp/ccHEGcEd.s:331    .text:00000000000001a0 .LVL19
     /tmp/ccHEGcEd.s:342    .text:00000000000001ac .LVL21
     /tmp/ccHEGcEd.s:362    .text:00000000000001c4 .LVL24
     /tmp/ccHEGcEd.s:411    .text:000000000000020c .LVL31
     /tmp/ccHEGcEd.s:503    .text:0000000000000290 .LVL46
     /tmp/ccHEGcEd.s:382    .text:00000000000001dc .LVL29
     /tmp/ccHEGcEd.s:310    .text:000000000000017c .LVL15
GAS LISTING /tmp/ccHEGcEd.s 			page 77


     /tmp/ccHEGcEd.s:326    .text:0000000000000190 .LVL18
     /tmp/ccHEGcEd.s:316    .text:0000000000000184 .LVL16
     /tmp/ccHEGcEd.s:405    .text:0000000000000200 .LVL30
     /tmp/ccHEGcEd.s:322    .text:000000000000018c .LVL17
     /tmp/ccHEGcEd.s:368    .text:00000000000001c8 .LVL25
     /tmp/ccHEGcEd.s:379    .text:00000000000001d8 .LVL28
     /tmp/ccHEGcEd.s:339    .text:00000000000001a8 .LVL20
     /tmp/ccHEGcEd.s:419    .text:0000000000000210 .LVL32
     /tmp/ccHEGcEd.s:351    .text:00000000000001b8 .LVL22
     /tmp/ccHEGcEd.s:462    .text:0000000000000258 .LVL39
     /tmp/ccHEGcEd.s:359    .text:00000000000001c0 .LVL23
     /tmp/ccHEGcEd.s:470    .text:000000000000025c .LVL40
     /tmp/ccHEGcEd.s:370    .text:00000000000001cc .LVL26
     /tmp/ccHEGcEd.s:373    .text:00000000000001d0 .LVL27
     /tmp/ccHEGcEd.s:452    .text:0000000000000244 .LVL38
     /tmp/ccHEGcEd.s:426    .text:000000000000021c .LVL34
     /tmp/ccHEGcEd.s:439    .text:0000000000000234 .LVL35
     /tmp/ccHEGcEd.s:441    .text:0000000000000238 .LVL36
     /tmp/ccHEGcEd.s:447    .text:000000000000023c .LVL37
     /tmp/ccHEGcEd.s:477    .text:0000000000000268 .LVL42
     /tmp/ccHEGcEd.s:490    .text:0000000000000280 .LVL43
     /tmp/ccHEGcEd.s:492    .text:0000000000000284 .LVL44
     /tmp/ccHEGcEd.s:498    .text:0000000000000288 .LVL45
     /tmp/ccHEGcEd.s:83     .text:0000000000000044 .LVL2
     /tmp/ccHEGcEd.s:93     .text:000000000000004c .LVL3
     /tmp/ccHEGcEd.s:44     .text:0000000000000024 .LVL0
     /tmp/ccHEGcEd.s:55     .text:000000000000002c .LVL1
     /tmp/ccHEGcEd.s:144    .text:0000000000000094 .LVL7
     /tmp/ccHEGcEd.s:649    .text:0000000000000354 .LVL57
     /tmp/ccHEGcEd.s:864    .text:000000000000057c .LVL86
     /tmp/ccHEGcEd.s:645    .text:0000000000000350 .LVL56
     /tmp/ccHEGcEd.s:696    .text:00000000000003d8 .LVL65
     /tmp/ccHEGcEd.s:700    .text:00000000000003dc .LVL66
     /tmp/ccHEGcEd.s:836    .text:0000000000000558 .LVL84
     /tmp/ccHEGcEd.s:520    .text:0000000000000298 .LVL47
     /tmp/ccHEGcEd.s:539    .text:00000000000002c0 .LVL48
     /tmp/ccHEGcEd.s:571    .text:00000000000002f4 .LVL52
     /tmp/ccHEGcEd.s:568    .text:00000000000002f0 .LVL51
     /tmp/ccHEGcEd.s:1872   .debug_info:0000000000000000 .Ldebug_info0
     /tmp/ccHEGcEd.s:1317   .text:00000000000007e0 .LBB70
     /tmp/ccHEGcEd.s:1445   .text:0000000000000868 .LBE70
     /tmp/ccHEGcEd.s:1464   .text:000000000000087c .LBB83
     /tmp/ccHEGcEd.s:1474   .text:000000000000088c .LBE83
     /tmp/ccHEGcEd.s:1505   .text:00000000000008b0 .LBB84
     /tmp/ccHEGcEd.s:1683   .text:000000000000091c .LBE84
     /tmp/ccHEGcEd.s:1691   .text:0000000000000920 .LBB93
     /tmp/ccHEGcEd.s:1811   .text:00000000000009d4 .LBE93

UNDEFINED SYMBOLS
_ZN9Scheduler3getEv
_ZN3PCB10consolePCBE
_ZN9Scheduler3putEP3PCB
_ZN8KConsole11pendingGetcE
_ZN3PCB10isFinishedEv
_Z22thread_dispatch_kernelv
_ZN3PCB7runningE
_ZN14PCBWrapperUser11wrapperUserEPFvPvES0_
GAS LISTING /tmp/ccHEGcEd.s 			page 78


_Z11buddy_allocm
_ZN5Riscv14supervisorTrapEv
HEAP_START_ADDR
_Z12getBlockAddrm
_ZN15MemoryAllocator10initMemoryEPv
_Z9kmem_initPvi
_Z17kmem_cache_createPKcmPFvPvES3_
_ZN3PCB10initializeEv
_ZN8KConsole10initializeEv
_ZN8KConsole18trapPrintStringIntEPKcmi
kernelTextStart
kernelDataStart
userTextStart
userDataStart
HEAP_END_ADDR
CONSOLE_RX_DATA
CONSOLE_TX_DATA
CONSOLE_STATUS
_ZN3PCB7userPCBE
_ZN3PCB10savedRegA4E
_ZN8KConsole24getCharactersFromConsoleEv
plic_claim
plic_complete
_ZN3PCB17threadExitHandlerEv
_ZN3PCB16timeSliceCounterE
_ZN12SleepPCBList13tryToWakePCBsEv
_ZN3PCB8dispatchEv
_ZN15MemoryAllocator15memAllocHandlerEv
_ZN15MemoryAllocator14memFreeHandlerEv
_ZN3PCB20threadMakePCBHandlerEv
_ZN3PCB19threadCreateHandlerEv
_ZN3PCB18threadStartHandlerEv
_ZN3PCB21threadDispatchHandlerEv
_ZN3PCB18threadSleepHandlerEv
_ZN3PCB19threadDelPCBHandlerEv
_ZN10KSemaphore14semOpenHandlerEv
_ZN10KSemaphore14semWaitHandlerEv
_ZN10KSemaphore16semSignalHandlerEv
_ZN10KSemaphore15semCloseHandlerEv
_ZN8KConsole11getcHandlerEv
_ZN8KConsole11putcHandlerEv
_ZN8KConsole14getCharHandlerEv
