GAS LISTING /tmp/ccKtiZWl.s 			page 1


   1              		.file	"Scheduler.cpp"
   2              		.option pic
   3              		.option norelax
   4              		.text
   5              	.Ltext0:
   6              		.align	2
   7              		.globl	_ZN9SchedulernwEm
   9              	_ZN9SchedulernwEm:
  10              	.LFB5:
  11              		.file 1 "src/kernel/Scheduler.cpp"
   1:src/kernel/Scheduler.cpp **** //
   2:src/kernel/Scheduler.cpp **** // Created by os on 4/27/22.
   3:src/kernel/Scheduler.cpp **** //
   4:src/kernel/Scheduler.cpp **** 
   5:src/kernel/Scheduler.cpp **** #include "../../h/Scheduler.hpp"
   6:src/kernel/Scheduler.cpp **** #include "../../h/PCB.hpp"
   7:src/kernel/Scheduler.cpp **** #include "../../h/KConsole.hpp"
   8:src/kernel/Scheduler.cpp **** 
   9:src/kernel/Scheduler.cpp **** PCB* Scheduler::schedulerPCBHead = 0;
  10:src/kernel/Scheduler.cpp **** PCB* Scheduler::schedulerPCBTail = 0;
  11:src/kernel/Scheduler.cpp **** 
  12:src/kernel/Scheduler.cpp **** void *Scheduler::operator new(size_t size)
  13:src/kernel/Scheduler.cpp **** {
  12              		.loc 1 13 1
  13              		.cfi_startproc
  14              	.LVL0:
  15 0000 130101FF 		addi	sp,sp,-16
  16              		.cfi_def_cfa_offset 16
  17 0004 23341100 		sd	ra,8(sp)
  18 0008 23308100 		sd	s0,0(sp)
  19              		.cfi_offset 1, -8
  20              		.cfi_offset 8, -16
  21 000c 13040101 		addi	s0,sp,16
  22              		.cfi_def_cfa 8, 0
  14:src/kernel/Scheduler.cpp ****     return MemoryAllocator::kmalloc(size);
  23              		.loc 1 14 5
  24              		.loc 1 14 36 is_stmt 0
  25 0010 97000000 		call	_ZN15MemoryAllocator7kmallocEm@plt
  25      E7800000 
  26              	.LVL1:
  15:src/kernel/Scheduler.cpp **** }
  27              		.loc 1 15 1
  28 0018 83308100 		ld	ra,8(sp)
  29              		.cfi_restore 1
  30 001c 03340100 		ld	s0,0(sp)
  31              		.cfi_restore 8
  32              		.cfi_def_cfa 2, 16
  33 0020 13010101 		addi	sp,sp,16
  34              		.cfi_def_cfa_offset 0
  35 0024 67800000 		jr	ra
  36              		.cfi_endproc
  37              	.LFE5:
  39              		.align	2
  40              		.globl	_ZN9SchedulerdlEPv
  42              	_ZN9SchedulerdlEPv:
  43              	.LFB6:
  16:src/kernel/Scheduler.cpp **** 
GAS LISTING /tmp/ccKtiZWl.s 			page 2


  17:src/kernel/Scheduler.cpp **** void Scheduler::operator delete(void *p)
  18:src/kernel/Scheduler.cpp **** {
  44              		.loc 1 18 1 is_stmt 1
  45              		.cfi_startproc
  46              	.LVL2:
  47 0028 130101FF 		addi	sp,sp,-16
  48              		.cfi_def_cfa_offset 16
  49 002c 23341100 		sd	ra,8(sp)
  50 0030 23308100 		sd	s0,0(sp)
  51              		.cfi_offset 1, -8
  52              		.cfi_offset 8, -16
  53 0034 13040101 		addi	s0,sp,16
  54              		.cfi_def_cfa 8, 0
  19:src/kernel/Scheduler.cpp ****     MemoryAllocator::kfree(p);
  55              		.loc 1 19 5
  56              		.loc 1 19 27 is_stmt 0
  57 0038 97000000 		call	_ZN15MemoryAllocator5kfreeEPv@plt
  57      E7800000 
  58              	.LVL3:
  20:src/kernel/Scheduler.cpp **** }
  59              		.loc 1 20 1
  60 0040 83308100 		ld	ra,8(sp)
  61              		.cfi_restore 1
  62 0044 03340100 		ld	s0,0(sp)
  63              		.cfi_restore 8
  64              		.cfi_def_cfa 2, 16
  65 0048 13010101 		addi	sp,sp,16
  66              		.cfi_def_cfa_offset 0
  67 004c 67800000 		jr	ra
  68              		.cfi_endproc
  69              	.LFE6:
  71              		.align	2
  72              		.globl	_ZN9Scheduler7getSizeEv
  74              	_ZN9Scheduler7getSizeEv:
  75              	.LFB7:
  21:src/kernel/Scheduler.cpp **** 
  22:src/kernel/Scheduler.cpp **** int Scheduler::getSize()
  23:src/kernel/Scheduler.cpp **** {
  76              		.loc 1 23 1 is_stmt 1
  77              		.cfi_startproc
  78 0050 130101FF 		addi	sp,sp,-16
  79              		.cfi_def_cfa_offset 16
  80 0054 23348100 		sd	s0,8(sp)
  81              		.cfi_offset 8, -8
  82 0058 13040101 		addi	s0,sp,16
  83              		.cfi_def_cfa 8, 0
  24:src/kernel/Scheduler.cpp ****     uint64 sz = 0;
  84              		.loc 1 24 5
  85              	.LVL4:
  25:src/kernel/Scheduler.cpp ****     PCB* curr = schedulerPCBHead;
  86              		.loc 1 25 5
  87              		.loc 1 25 10 is_stmt 0
  88 005c 97070000 		ld	a5,.LANCHOR0
  88      83B70700 
  89              	.LVL5:
  24:src/kernel/Scheduler.cpp ****     uint64 sz = 0;
  90              		.loc 1 24 12
GAS LISTING /tmp/ccKtiZWl.s 			page 3


  91 0064 13050000 		li	a0,0
  92              	.LVL6:
  93              	.L7:
  26:src/kernel/Scheduler.cpp ****     while(curr != 0)
  94              		.loc 1 26 5 is_stmt 1
  95              		.loc 1 26 16
  96 0068 63880700 		beqz	a5,.L6
  27:src/kernel/Scheduler.cpp ****     {
  28:src/kernel/Scheduler.cpp ****         sz++;
  97              		.loc 1 28 9
  98              		.loc 1 28 11 is_stmt 0
  99 006c 13051500 		addi	a0,a0,1
 100              	.LVL7:
  29:src/kernel/Scheduler.cpp ****         curr = curr->nextPCB;
 101              		.loc 1 29 9 is_stmt 1
 102              		.loc 1 29 14 is_stmt 0
 103 0070 83B78700 		ld	a5,8(a5)
 104              	.LVL8:
  26:src/kernel/Scheduler.cpp ****     while(curr != 0)
 105              		.loc 1 26 5
 106 0074 6FF05FFF 		j	.L7
 107              	.L6:
  30:src/kernel/Scheduler.cpp ****     }
  31:src/kernel/Scheduler.cpp ****     return sz;
 108              		.loc 1 31 5 is_stmt 1
  32:src/kernel/Scheduler.cpp **** }
 109              		.loc 1 32 1 is_stmt 0
 110 0078 1B050500 		sext.w	a0,a0
 111              	.LVL9:
 112 007c 03348100 		ld	s0,8(sp)
 113              		.cfi_restore 8
 114              		.cfi_def_cfa 2, 16
 115 0080 13010101 		addi	sp,sp,16
 116              		.cfi_def_cfa_offset 0
 117 0084 67800000 		jr	ra
 118              		.cfi_endproc
 119              	.LFE7:
 121              		.align	2
 122              		.globl	_ZN9Scheduler3putEP3PCB
 124              	_ZN9Scheduler3putEP3PCB:
 125              	.LFB8:
  33:src/kernel/Scheduler.cpp **** 
  34:src/kernel/Scheduler.cpp **** void Scheduler::put(PCB *pcb)
  35:src/kernel/Scheduler.cpp **** {
 126              		.loc 1 35 1 is_stmt 1
 127              		.cfi_startproc
 128              	.LVL10:
 129 0088 130101FF 		addi	sp,sp,-16
 130              		.cfi_def_cfa_offset 16
 131 008c 23348100 		sd	s0,8(sp)
 132              		.cfi_offset 8, -8
 133 0090 13040101 		addi	s0,sp,16
 134              		.cfi_def_cfa 8, 0
  36:src/kernel/Scheduler.cpp ****     pcb->setState(PCB::READY);
 135              		.loc 1 36 5
 136              	.LVL11:
 137              	.LBB4:
GAS LISTING /tmp/ccKtiZWl.s 			page 4


 138              	.LBB5:
 139              		.file 2 "src/kernel/../../h/PCB.hpp"
   1:src/kernel/../../h/PCB.hpp **** //
   2:src/kernel/../../h/PCB.hpp **** // Created by os on 4/27/22.
   3:src/kernel/../../h/PCB.hpp **** //
   4:src/kernel/../../h/PCB.hpp **** 
   5:src/kernel/../../h/PCB.hpp **** #ifndef PROJECT_BASE_V1_0_PCB_HPP
   6:src/kernel/../../h/PCB.hpp **** #define PROJECT_BASE_V1_0_PCB_HPP
   7:src/kernel/../../h/PCB.hpp **** 
   8:src/kernel/../../h/PCB.hpp **** #include "../lib/hw.h"
   9:src/kernel/../../h/PCB.hpp **** 
  10:src/kernel/../../h/PCB.hpp **** class PCB
  11:src/kernel/../../h/PCB.hpp **** {
  12:src/kernel/../../h/PCB.hpp **** private:
  13:src/kernel/../../h/PCB.hpp ****     static uint64 savedRegA4;
  14:src/kernel/../../h/PCB.hpp **** 
  15:src/kernel/../../h/PCB.hpp ****     using Body = void (*)(void*);
  16:src/kernel/../../h/PCB.hpp **** 
  17:src/kernel/../../h/PCB.hpp ****     PCB(Body body,  void* args, void* stack_space, uint64 timeSlice);
  18:src/kernel/../../h/PCB.hpp ****     ~PCB();
  19:src/kernel/../../h/PCB.hpp **** 
  20:src/kernel/../../h/PCB.hpp ****     void start();
  21:src/kernel/../../h/PCB.hpp ****     static void dispatch();
  22:src/kernel/../../h/PCB.hpp **** 
  23:src/kernel/../../h/PCB.hpp ****     static PCB* running;
  24:src/kernel/../../h/PCB.hpp **** 
  25:src/kernel/../../h/PCB.hpp ****     static uint64 timeSliceCounter;
  26:src/kernel/../../h/PCB.hpp ****     uint64 getTimeSlice() { return timeSlice;}
  27:src/kernel/../../h/PCB.hpp **** 
  28:src/kernel/../../h/PCB.hpp ****     void* operator new(size_t size);
  29:src/kernel/../../h/PCB.hpp ****     void operator delete(void *p);
  30:src/kernel/../../h/PCB.hpp **** 
  31:src/kernel/../../h/PCB.hpp ****     enum State{READY, RUNNING, SUSPENDED, FINISHED, EXITING, SLEEPING};
  32:src/kernel/../../h/PCB.hpp ****     State getState() {return state;}
  33:src/kernel/../../h/PCB.hpp ****     void setState(State s) {state = s;}
 140              		.loc 2 33 29
 141              		.loc 2 33 35 is_stmt 0
 142 0094 23200504 		sw	zero,64(a0)
 143              	.LVL12:
 144              	.LBE5:
 145              	.LBE4:
  37:src/kernel/Scheduler.cpp ****     pcb->nextPCB = 0;
 146              		.loc 1 37 5 is_stmt 1
 147              		.loc 1 37 18 is_stmt 0
 148 0098 23340500 		sd	zero,8(a0)
  38:src/kernel/Scheduler.cpp ****     if(schedulerPCBHead == 0)
 149              		.loc 1 38 5 is_stmt 1
 150              		.loc 1 38 25 is_stmt 0
 151 009c 97070000 		ld	a5,.LANCHOR0
 151      83B70700 
 152              		.loc 1 38 5
 153 00a4 63820702 		beqz	a5,.L13
  39:src/kernel/Scheduler.cpp ****         schedulerPCBHead = schedulerPCBTail = pcb;
  40:src/kernel/Scheduler.cpp ****     else
  41:src/kernel/Scheduler.cpp ****     {
  42:src/kernel/Scheduler.cpp ****         schedulerPCBTail->nextPCB = pcb;
 154              		.loc 1 42 9 is_stmt 1
GAS LISTING /tmp/ccKtiZWl.s 			page 5


 155              		.loc 1 42 27 is_stmt 0
 156 00a8 97070000 		lla	a5,.LANCHOR0
 156      93870700 
 157 00b0 03B78700 		ld	a4,8(a5)
 158              		.loc 1 42 35
 159 00b4 2334A700 		sd	a0,8(a4)
  43:src/kernel/Scheduler.cpp ****         schedulerPCBTail = pcb;
 160              		.loc 1 43 9 is_stmt 1
 161              		.loc 1 43 26 is_stmt 0
 162 00b8 23B4A700 		sd	a0,8(a5)
 163              	.L9:
  44:src/kernel/Scheduler.cpp ****     }
  45:src/kernel/Scheduler.cpp **** }
 164              		.loc 1 45 1
 165 00bc 03348100 		ld	s0,8(sp)
 166              		.cfi_remember_state
 167              		.cfi_restore 8
 168              		.cfi_def_cfa 2, 16
 169 00c0 13010101 		addi	sp,sp,16
 170              		.cfi_def_cfa_offset 0
 171 00c4 67800000 		jr	ra
 172              	.L13:
 173              		.cfi_restore_state
  39:src/kernel/Scheduler.cpp ****     else
 174              		.loc 1 39 9 is_stmt 1
  39:src/kernel/Scheduler.cpp ****     else
 175              		.loc 1 39 45 is_stmt 0
 176 00c8 97070000 		lla	a5,.LANCHOR0
 176      93870700 
 177 00d0 23B4A700 		sd	a0,8(a5)
  39:src/kernel/Scheduler.cpp ****     else
 178              		.loc 1 39 26
 179 00d4 23B0A700 		sd	a0,0(a5)
 180 00d8 6FF05FFE 		j	.L9
 181              		.cfi_endproc
 182              	.LFE8:
 184              		.align	2
 185              		.globl	_ZN9Scheduler3getEv
 187              	_ZN9Scheduler3getEv:
 188              	.LFB9:
  46:src/kernel/Scheduler.cpp **** 
  47:src/kernel/Scheduler.cpp **** PCB *Scheduler::get()
  48:src/kernel/Scheduler.cpp **** {
 189              		.loc 1 48 1 is_stmt 1
 190              		.cfi_startproc
 191 00dc 130101FF 		addi	sp,sp,-16
 192              		.cfi_def_cfa_offset 16
 193 00e0 23348100 		sd	s0,8(sp)
 194              		.cfi_offset 8, -8
 195 00e4 13040101 		addi	s0,sp,16
 196              		.cfi_def_cfa 8, 0
  49:src/kernel/Scheduler.cpp ****     if(schedulerPCBHead == 0)
 197              		.loc 1 49 5
 198              		.loc 1 49 25 is_stmt 0
 199 00e8 17050000 		ld	a0,.LANCHOR0
 199      03350500 
 200              		.loc 1 49 5
GAS LISTING /tmp/ccKtiZWl.s 			page 6


 201 00f0 630C0500 		beqz	a0,.L14
  50:src/kernel/Scheduler.cpp ****         return 0;
  51:src/kernel/Scheduler.cpp ****     PCB* retval = schedulerPCBHead;
 202              		.loc 1 51 5 is_stmt 1
 203              	.LVL13:
  52:src/kernel/Scheduler.cpp ****     if(schedulerPCBHead->nextPCB == 0)
 204              		.loc 1 52 5
 205              		.loc 1 52 26 is_stmt 0
 206 00f4 83378500 		ld	a5,8(a0)
 207              		.loc 1 52 5
 208 00f8 638E0700 		beqz	a5,.L19
  53:src/kernel/Scheduler.cpp ****         schedulerPCBHead = schedulerPCBTail = 0;
  54:src/kernel/Scheduler.cpp ****     else
  55:src/kernel/Scheduler.cpp ****         schedulerPCBHead = schedulerPCBHead->nextPCB;
 209              		.loc 1 55 9 is_stmt 1
 210              		.loc 1 55 26 is_stmt 0
 211 00fc 17070000 		sd	a5,.LANCHOR0,a4
 211      2330F700 
 212              	.L17:
  56:src/kernel/Scheduler.cpp ****     retval->nextPCB = 0;
 213              		.loc 1 56 5 is_stmt 1
 214              		.loc 1 56 21 is_stmt 0
 215 0104 23340500 		sd	zero,8(a0)
  57:src/kernel/Scheduler.cpp ****     return retval;
 216              		.loc 1 57 5 is_stmt 1
 217              	.LVL14:
 218              	.L14:
  58:src/kernel/Scheduler.cpp **** }
 219              		.loc 1 58 1 is_stmt 0
 220 0108 03348100 		ld	s0,8(sp)
 221              		.cfi_remember_state
 222              		.cfi_restore 8
 223              		.cfi_def_cfa 2, 16
 224 010c 13010101 		addi	sp,sp,16
 225              		.cfi_def_cfa_offset 0
 226 0110 67800000 		jr	ra
 227              	.LVL15:
 228              	.L19:
 229              		.cfi_restore_state
  53:src/kernel/Scheduler.cpp ****     else
 230              		.loc 1 53 9 is_stmt 1
  53:src/kernel/Scheduler.cpp ****     else
 231              		.loc 1 53 45 is_stmt 0
 232 0114 97070000 		lla	a5,.LANCHOR0
 232      93870700 
 233 011c 23B40700 		sd	zero,8(a5)
  53:src/kernel/Scheduler.cpp ****     else
 234              		.loc 1 53 26
 235 0120 23B00700 		sd	zero,0(a5)
 236 0124 6FF01FFE 		j	.L17
 237              		.cfi_endproc
 238              	.LFE9:
 240              		.section	.rodata.str1.8,"aMS",@progbits,1
 241              		.align	3
 242              	.LC0:
 243 0000 0A00     		.string	"\n"
 244              		.text
GAS LISTING /tmp/ccKtiZWl.s 			page 7


 245              		.align	2
 246              		.globl	_ZN9Scheduler5printEv
 248              	_ZN9Scheduler5printEv:
 249              	.LFB10:
  59:src/kernel/Scheduler.cpp **** 
  60:src/kernel/Scheduler.cpp **** void Scheduler::print()
  61:src/kernel/Scheduler.cpp **** {
 250              		.loc 1 61 1 is_stmt 1
 251              		.cfi_startproc
 252 0128 130101FE 		addi	sp,sp,-32
 253              		.cfi_def_cfa_offset 32
 254 012c 233C1100 		sd	ra,24(sp)
 255 0130 23388100 		sd	s0,16(sp)
 256 0134 23349100 		sd	s1,8(sp)
 257              		.cfi_offset 1, -8
 258              		.cfi_offset 8, -16
 259              		.cfi_offset 9, -24
 260 0138 13040102 		addi	s0,sp,32
 261              		.cfi_def_cfa 8, 0
  62:src/kernel/Scheduler.cpp ****     //trapPrintString("Scheduler print\n");
  63:src/kernel/Scheduler.cpp ****     PCB* curr = schedulerPCBHead;
 262              		.loc 1 63 5
 263              		.loc 1 63 10 is_stmt 0
 264 013c 97040000 		ld	s1,.LANCHOR0
 264      83B40400 
 265              	.LVL16:
 266              	.L22:
  64:src/kernel/Scheduler.cpp ****     while(curr != 0)
 267              		.loc 1 64 5 is_stmt 1
 268              		.loc 1 64 16
 269 0144 63880402 		beqz	s1,.L20
  65:src/kernel/Scheduler.cpp ****     {
  66:src/kernel/Scheduler.cpp ****         KConsole::trapPrintInt((uint64)curr, 16);
 270              		.loc 1 66 9
 271              		.loc 1 66 31 is_stmt 0
 272 0148 13060000 		li	a2,0
 273 014c 93050001 		li	a1,16
 274 0150 13850400 		mv	a0,s1
 275 0154 97000000 		call	_ZN8KConsole12trapPrintIntEmii@plt
 275      E7800000 
 276              	.LVL17:
  67:src/kernel/Scheduler.cpp ****         KConsole::trapPrintString("\n");
 277              		.loc 1 67 9 is_stmt 1
 278              		.loc 1 67 34 is_stmt 0
 279 015c 17050000 		lla	a0,.LC0
 279      13050500 
 280 0164 97000000 		call	_ZN8KConsole15trapPrintStringEPKc@plt
 280      E7800000 
 281              	.LVL18:
  68:src/kernel/Scheduler.cpp ****         curr = curr->nextPCB;
 282              		.loc 1 68 9 is_stmt 1
 283              		.loc 1 68 14 is_stmt 0
 284 016c 83B48400 		ld	s1,8(s1)
 285              	.LVL19:
  64:src/kernel/Scheduler.cpp ****     {
 286              		.loc 1 64 5
 287 0170 6FF05FFD 		j	.L22
GAS LISTING /tmp/ccKtiZWl.s 			page 8


 288              	.L20:
  69:src/kernel/Scheduler.cpp ****     }
  70:src/kernel/Scheduler.cpp **** }
 289              		.loc 1 70 1
 290 0174 83308101 		ld	ra,24(sp)
 291              		.cfi_restore 1
 292 0178 03340101 		ld	s0,16(sp)
 293              		.cfi_restore 8
 294              		.cfi_def_cfa 2, 32
 295 017c 83348100 		ld	s1,8(sp)
 296              		.cfi_restore 9
 297              	.LVL20:
 298 0180 13010102 		addi	sp,sp,32
 299              		.cfi_def_cfa_offset 0
 300 0184 67800000 		jr	ra
 301              		.cfi_endproc
 302              	.LFE10:
 304              		.globl	_ZN9Scheduler16schedulerPCBTailE
 305              		.globl	_ZN9Scheduler16schedulerPCBHeadE
 306              		.bss
 307              		.align	3
 308              		.set	.LANCHOR0,. + 0
 311              	_ZN9Scheduler16schedulerPCBHeadE:
 312 0000 00000000 		.zero	8
 312      00000000 
 315              	_ZN9Scheduler16schedulerPCBTailE:
 316 0008 00000000 		.zero	8
 316      00000000 
 317              		.text
 318              	.Letext0:
 319              		.file 3 "src/kernel/../../h/../lib/hw.h"
 320              		.file 4 "src/kernel/../../h/MemoryAllocator.hpp"
 321              		.file 5 "src/kernel/../../h/Scheduler.hpp"
 322              		.file 6 "src/kernel/../../h/KSemaphore.hpp"
 323              		.file 7 "src/kernel/../../h/KConsole.hpp"
GAS LISTING /tmp/ccKtiZWl.s 			page 9

