GAS LISTING /tmp/ccXFfN6y.s 			page 1


   1              		.file	"slabAllocator.cpp"
   2              		.option pic
   3              		.option norelax
   4              		.text
   5              	.Ltext0:
   6              		.align	2
   7              		.globl	_Z6strcpyPKcPc
   9              	_Z6strcpyPKcPc:
  10              	.LFB5:
  11              		.file 1 "src/kernel/slabAllocator.cpp"
   1:src/kernel/slabAllocator.cpp **** #include "../../h/slabAllocator.hpp"
   2:src/kernel/slabAllocator.cpp **** #include "../../h/buddyAllocator.hpp"
   3:src/kernel/slabAllocator.cpp **** #include "../../h/KConsole.hpp"
   4:src/kernel/slabAllocator.cpp **** 
   5:src/kernel/slabAllocator.cpp **** //TODO
   6:src/kernel/slabAllocator.cpp **** //check values of the constants
   7:src/kernel/slabAllocator.cpp **** #define SLAB_ALLOCATED_LOOKUP 512
   8:src/kernel/slabAllocator.cpp **** #define CACHE_NAME_SIZE 64
   9:src/kernel/slabAllocator.cpp **** #define CACHE_BUFFER_SMALL 5
  10:src/kernel/slabAllocator.cpp **** #define CACHE_BUFFER_BIG 17
  11:src/kernel/slabAllocator.cpp **** #define CACHE_BUFFER_SIZE CACHE_BUFFER_BIG - CACHE_BUFFER_SMALL + 1
  12:src/kernel/slabAllocator.cpp **** #define CACHE_OF_CACHES_SLAB_SIZE 2
  13:src/kernel/slabAllocator.cpp **** #define NO_ERROR 0
  14:src/kernel/slabAllocator.cpp **** #define EXPAND_ERROR 0b1
  15:src/kernel/slabAllocator.cpp **** #define DESTROY_ERROR 0b10
  16:src/kernel/slabAllocator.cpp **** #define FREE_ERROR 0b100
  17:src/kernel/slabAllocator.cpp **** #define MAX_NUM_OF_OBJS SLAB_ALLOCATED_LOOKUP*8
  18:src/kernel/slabAllocator.cpp **** 
  19:src/kernel/slabAllocator.cpp **** typedef struct slab_s
  20:src/kernel/slabAllocator.cpp **** {
  21:src/kernel/slabAllocator.cpp ****     slab_s* prev;
  22:src/kernel/slabAllocator.cpp ****     slab_s* next;
  23:src/kernel/slabAllocator.cpp ****     kmem_cache_t* owner;
  24:src/kernel/slabAllocator.cpp ****     size_t numOfObjects;
  25:src/kernel/slabAllocator.cpp ****     size_t numOfAllocatedObjects;
  26:src/kernel/slabAllocator.cpp ****     unsigned char allocated[SLAB_ALLOCATED_LOOKUP];
  27:src/kernel/slabAllocator.cpp **** }slab_t;
  28:src/kernel/slabAllocator.cpp **** 
  29:src/kernel/slabAllocator.cpp **** typedef struct kmem_cache_s
  30:src/kernel/slabAllocator.cpp **** {
  31:src/kernel/slabAllocator.cpp ****     char cacheName[CACHE_NAME_SIZE];
  32:src/kernel/slabAllocator.cpp ****     slab_t* slabs_empty;
  33:src/kernel/slabAllocator.cpp ****     slab_t* slabs_full;
  34:src/kernel/slabAllocator.cpp ****     slab_t* slabs_partial;
  35:src/kernel/slabAllocator.cpp ****     size_t slab_size;
  36:src/kernel/slabAllocator.cpp ****     size_t obj_size;
  37:src/kernel/slabAllocator.cpp ****     void (*ctor)(void*);
  38:src/kernel/slabAllocator.cpp ****     void (*dtor)(void*);
  39:src/kernel/slabAllocator.cpp ****     int errors;
  40:src/kernel/slabAllocator.cpp **** }kmem_cache_t;
  41:src/kernel/slabAllocator.cpp **** 
  42:src/kernel/slabAllocator.cpp **** typedef struct slab_allocator_s
  43:src/kernel/slabAllocator.cpp **** {
  44:src/kernel/slabAllocator.cpp ****     kmem_cache_t* cachesBuffers[CACHE_BUFFER_SIZE];
  45:src/kernel/slabAllocator.cpp ****     kmem_cache_t cacheOfCaches;
  46:src/kernel/slabAllocator.cpp **** }slab_allocator_t;
  47:src/kernel/slabAllocator.cpp **** 
GAS LISTING /tmp/ccXFfN6y.s 			page 2


  48:src/kernel/slabAllocator.cpp **** //singleton slab allocator
  49:src/kernel/slabAllocator.cpp **** static slab_allocator_t* slabAllocator = nullptr;
  50:src/kernel/slabAllocator.cpp **** 
  51:src/kernel/slabAllocator.cpp **** //helping functions
  52:src/kernel/slabAllocator.cpp **** void strcpy(const char* src, char* dst)
  53:src/kernel/slabAllocator.cpp **** {
  12              		.loc 1 53 1
  13              		.cfi_startproc
  14              	.LVL0:
  15 0000 130101FF 		addi	sp,sp,-16
  16              		.cfi_def_cfa_offset 16
  17 0004 23348100 		sd	s0,8(sp)
  18              		.cfi_offset 8, -8
  19 0008 13040101 		addi	s0,sp,16
  20              		.cfi_def_cfa 8, 0
  21              	.L3:
  54:src/kernel/slabAllocator.cpp ****     while(*src != '\0')
  22              		.loc 1 54 5
  23              		.loc 1 54 16
  24              		.loc 1 54 11 is_stmt 0
  25 000c 83470500 		lbu	a5,0(a0)
  26              		.loc 1 54 16
  27 0010 638A0700 		beqz	a5,.L2
  55:src/kernel/slabAllocator.cpp ****     {
  56:src/kernel/slabAllocator.cpp ****         *dst = *src;
  28              		.loc 1 56 9 is_stmt 1
  29              		.loc 1 56 14 is_stmt 0
  30 0014 2380F500 		sb	a5,0(a1)
  57:src/kernel/slabAllocator.cpp ****         src++; dst++;
  31              		.loc 1 57 9 is_stmt 1
  32              		.loc 1 57 12 is_stmt 0
  33 0018 13051500 		addi	a0,a0,1
  34              	.LVL1:
  35              		.loc 1 57 16 is_stmt 1
  36              		.loc 1 57 19 is_stmt 0
  37 001c 93851500 		addi	a1,a1,1
  38              	.LVL2:
  54:src/kernel/slabAllocator.cpp ****     while(*src != '\0')
  39              		.loc 1 54 5
  40 0020 6FF0DFFE 		j	.L3
  41              	.L2:
  58:src/kernel/slabAllocator.cpp ****     }
  59:src/kernel/slabAllocator.cpp ****     *dst = *src;
  42              		.loc 1 59 5 is_stmt 1
  43              		.loc 1 59 10 is_stmt 0
  44 0024 2380F500 		sb	a5,0(a1)
  60:src/kernel/slabAllocator.cpp **** }
  45              		.loc 1 60 1
  46 0028 03348100 		ld	s0,8(sp)
  47              		.cfi_restore 8
  48              		.cfi_def_cfa 2, 16
  49 002c 13010101 		addi	sp,sp,16
  50              		.cfi_def_cfa_offset 0
  51 0030 67800000 		jr	ra
  52              		.cfi_endproc
  53              	.LFE5:
  55              		.align	2
GAS LISTING /tmp/ccXFfN6y.s 			page 3


  56              		.globl	_Z17destroy_slab_listPP6slab_s
  58              	_Z17destroy_slab_listPP6slab_s:
  59              	.LFB6:
  61:src/kernel/slabAllocator.cpp **** 
  62:src/kernel/slabAllocator.cpp **** int destroy_slab_list(slab_t** slab)
  63:src/kernel/slabAllocator.cpp **** {
  60              		.loc 1 63 1 is_stmt 1
  61              		.cfi_startproc
  62              	.LVL3:
  63 0034 130101FD 		addi	sp,sp,-48
  64              		.cfi_def_cfa_offset 48
  65 0038 23341102 		sd	ra,40(sp)
  66 003c 23308102 		sd	s0,32(sp)
  67 0040 233C9100 		sd	s1,24(sp)
  68 0044 23382101 		sd	s2,16(sp)
  69 0048 23343101 		sd	s3,8(sp)
  70 004c 23304101 		sd	s4,0(sp)
  71              		.cfi_offset 1, -8
  72              		.cfi_offset 8, -16
  73              		.cfi_offset 9, -24
  74              		.cfi_offset 18, -32
  75              		.cfi_offset 19, -40
  76              		.cfi_offset 20, -48
  77 0050 13040103 		addi	s0,sp,48
  78              		.cfi_def_cfa 8, 0
  64:src/kernel/slabAllocator.cpp ****     if(*slab == nullptr) return 0;
  79              		.loc 1 64 5
  80              		.loc 1 64 8 is_stmt 0
  81 0054 83370500 		ld	a5,0(a0)
  82              		.loc 1 64 5
  83 0058 638C0702 		beqz	a5,.L8
  84 005c 93040500 		mv	s1,a0
  65:src/kernel/slabAllocator.cpp ****     size_t sz = (*slab)->owner->slab_size;
  85              		.loc 1 65 5 is_stmt 1
  86              		.loc 1 65 26 is_stmt 0
  87 0060 83B70701 		ld	a5,16(a5)
  88              		.loc 1 65 12
  89 0064 83B98705 		ld	s3,88(a5)
  90              	.LVL4:
  66:src/kernel/slabAllocator.cpp ****     int totalBlocks = 0;
  91              		.loc 1 66 5 is_stmt 1
  92              		.loc 1 66 9 is_stmt 0
  93 0068 13090000 		li	s2,0
  94              	.LVL5:
  95              	.L7:
  67:src/kernel/slabAllocator.cpp ****     while(*slab != nullptr)
  96              		.loc 1 67 5 is_stmt 1
  97              		.loc 1 67 17
  98              		.loc 1 67 11 is_stmt 0
  99 006c 03B50400 		ld	a0,0(s1)
 100              		.loc 1 67 17
 101 0070 63020502 		beqz	a0,.L6
 102              	.LBB2:
  68:src/kernel/slabAllocator.cpp ****     {
  69:src/kernel/slabAllocator.cpp ****         slab_t* nextSlab = (*slab)->next;
 103              		.loc 1 69 9 is_stmt 1
 104              		.loc 1 69 17 is_stmt 0
GAS LISTING /tmp/ccXFfN6y.s 			page 4


 105 0074 033A8500 		ld	s4,8(a0)
 106              	.LVL6:
  70:src/kernel/slabAllocator.cpp ****         buddy_free(*slab, sz);
 107              		.loc 1 70 9 is_stmt 1
 108              		.loc 1 70 19 is_stmt 0
 109 0078 93850900 		mv	a1,s3
 110 007c 97000000 		call	_Z10buddy_freePvm@plt
 110      E7800000 
 111              	.LVL7:
  71:src/kernel/slabAllocator.cpp ****         *slab = nextSlab;
 112              		.loc 1 71 9 is_stmt 1
 113              		.loc 1 71 15 is_stmt 0
 114 0084 23B04401 		sd	s4,0(s1)
  72:src/kernel/slabAllocator.cpp ****         totalBlocks+=sz;
 115              		.loc 1 72 9 is_stmt 1
 116              		.loc 1 72 20 is_stmt 0
 117 0088 3B892901 		addw	s2,s3,s2
 118              	.LVL8:
 119              	.LBE2:
  67:src/kernel/slabAllocator.cpp ****     {
 120              		.loc 1 67 5
 121 008c 6FF01FFE 		j	.L7
 122              	.LVL9:
 123              	.L8:
  64:src/kernel/slabAllocator.cpp ****     size_t sz = (*slab)->owner->slab_size;
 124              		.loc 1 64 33
 125 0090 13090000 		li	s2,0
 126              	.LVL10:
 127              	.L6:
  73:src/kernel/slabAllocator.cpp ****     }
  74:src/kernel/slabAllocator.cpp ****     return totalBlocks;
  75:src/kernel/slabAllocator.cpp **** }
 128              		.loc 1 75 1
 129 0094 13050900 		mv	a0,s2
 130 0098 83308102 		ld	ra,40(sp)
 131              		.cfi_restore 1
 132 009c 03340102 		ld	s0,32(sp)
 133              		.cfi_restore 8
 134              		.cfi_def_cfa 2, 48
 135 00a0 83348101 		ld	s1,24(sp)
 136              		.cfi_restore 9
 137 00a4 03390101 		ld	s2,16(sp)
 138              		.cfi_restore 18
 139 00a8 83398100 		ld	s3,8(sp)
 140              		.cfi_restore 19
 141 00ac 033A0100 		ld	s4,0(sp)
 142              		.cfi_restore 20
 143 00b0 13010103 		addi	sp,sp,48
 144              		.cfi_def_cfa_offset 0
 145 00b4 67800000 		jr	ra
 146              		.cfi_endproc
 147              	.LFE6:
 149              		.align	2
 150              		.globl	_Z10init_cacheP12kmem_cache_sPKcmmPFvPvES5_
 152              	_Z10init_cacheP12kmem_cache_sPKcmmPFvPvES5_:
 153              	.LFB7:
  76:src/kernel/slabAllocator.cpp **** 
GAS LISTING /tmp/ccXFfN6y.s 			page 5


  77:src/kernel/slabAllocator.cpp **** void init_cache(kmem_cache_t* cachep, const char* cache_name, size_t slab_size, size_t obj_size, vo
  78:src/kernel/slabAllocator.cpp **** {
 154              		.loc 1 78 1 is_stmt 1
 155              		.cfi_startproc
 156              	.LVL11:
 157 00b8 130101FC 		addi	sp,sp,-64
 158              		.cfi_def_cfa_offset 64
 159 00bc 233C1102 		sd	ra,56(sp)
 160 00c0 23388102 		sd	s0,48(sp)
 161 00c4 23349102 		sd	s1,40(sp)
 162 00c8 23302103 		sd	s2,32(sp)
 163 00cc 233C3101 		sd	s3,24(sp)
 164 00d0 23384101 		sd	s4,16(sp)
 165 00d4 23345101 		sd	s5,8(sp)
 166              		.cfi_offset 1, -8
 167              		.cfi_offset 8, -16
 168              		.cfi_offset 9, -24
 169              		.cfi_offset 18, -32
 170              		.cfi_offset 19, -40
 171              		.cfi_offset 20, -48
 172              		.cfi_offset 21, -56
 173 00d8 13040104 		addi	s0,sp,64
 174              		.cfi_def_cfa 8, 0
 175 00dc 93040500 		mv	s1,a0
 176 00e0 13850500 		mv	a0,a1
 177              	.LVL12:
 178 00e4 930A0600 		mv	s5,a2
 179 00e8 138A0600 		mv	s4,a3
 180 00ec 93090700 		mv	s3,a4
 181 00f0 13890700 		mv	s2,a5
  79:src/kernel/slabAllocator.cpp ****     strcpy(cache_name, cachep->cacheName);
 182              		.loc 1 79 5
 183              		.loc 1 79 11 is_stmt 0
 184 00f4 93850400 		mv	a1,s1
 185              	.LVL13:
 186 00f8 97000000 		call	_Z6strcpyPKcPc
 186      E7800000 
 187              	.LVL14:
  80:src/kernel/slabAllocator.cpp ****     cachep->slab_size = slab_size;
 188              		.loc 1 80 5 is_stmt 1
 189              		.loc 1 80 23 is_stmt 0
 190 0100 23BC5405 		sd	s5,88(s1)
  81:src/kernel/slabAllocator.cpp ****     cachep->obj_size = obj_size;
 191              		.loc 1 81 5 is_stmt 1
 192              		.loc 1 81 22 is_stmt 0
 193 0104 23B04407 		sd	s4,96(s1)
  82:src/kernel/slabAllocator.cpp ****     cachep->ctor = ctor;
 194              		.loc 1 82 5 is_stmt 1
 195              		.loc 1 82 18 is_stmt 0
 196 0108 23B43407 		sd	s3,104(s1)
  83:src/kernel/slabAllocator.cpp ****     cachep->dtor = dtor;
 197              		.loc 1 83 5 is_stmt 1
 198              		.loc 1 83 18 is_stmt 0
 199 010c 23B82407 		sd	s2,112(s1)
  84:src/kernel/slabAllocator.cpp **** 
  85:src/kernel/slabAllocator.cpp ****     cachep->slabs_empty = cachep->slabs_partial = cachep->slabs_full = nullptr;
 200              		.loc 1 85 5 is_stmt 1
GAS LISTING /tmp/ccXFfN6y.s 			page 6


 201              		.loc 1 85 70 is_stmt 0
 202 0110 23B40404 		sd	zero,72(s1)
 203              		.loc 1 85 49
 204 0114 23B80404 		sd	zero,80(s1)
 205              		.loc 1 85 25
 206 0118 23B00404 		sd	zero,64(s1)
  86:src/kernel/slabAllocator.cpp ****     cachep->errors = NO_ERROR;
 207              		.loc 1 86 5 is_stmt 1
 208              		.loc 1 86 20 is_stmt 0
 209 011c 23AC0406 		sw	zero,120(s1)
  87:src/kernel/slabAllocator.cpp **** }
 210              		.loc 1 87 1
 211 0120 83308103 		ld	ra,56(sp)
 212              		.cfi_restore 1
 213 0124 03340103 		ld	s0,48(sp)
 214              		.cfi_restore 8
 215              		.cfi_def_cfa 2, 64
 216 0128 83348102 		ld	s1,40(sp)
 217              		.cfi_restore 9
 218              	.LVL15:
 219 012c 03390102 		ld	s2,32(sp)
 220              		.cfi_restore 18
 221              	.LVL16:
 222 0130 83398101 		ld	s3,24(sp)
 223              		.cfi_restore 19
 224              	.LVL17:
 225 0134 033A0101 		ld	s4,16(sp)
 226              		.cfi_restore 20
 227              	.LVL18:
 228 0138 833A8100 		ld	s5,8(sp)
 229              		.cfi_restore 21
 230              	.LVL19:
 231 013c 13010104 		addi	sp,sp,64
 232              		.cfi_def_cfa_offset 0
 233 0140 67800000 		jr	ra
 234              		.cfi_endproc
 235              	.LFE7:
 237              		.section	.rodata.str1.8,"aMS",@progbits,1
 238              		.align	3
 239              	.LC0:
 240 0000 43616368 		.string	"Cache of caches"
 240      65206F66 
 240      20636163 
 240      68657300 
 241              		.text
 242              		.align	2
 243              		.globl	_Z19slab_allocator_initP14buddyAllocator
 245              	_Z19slab_allocator_initP14buddyAllocator:
 246              	.LFB8:
  88:src/kernel/slabAllocator.cpp **** 
  89:src/kernel/slabAllocator.cpp **** slab_allocator_t* slab_allocator_init(buddyAllocator *buddy)
  90:src/kernel/slabAllocator.cpp **** {
 247              		.loc 1 90 1 is_stmt 1
 248              		.cfi_startproc
 249              	.LVL20:
 250 0144 130101FE 		addi	sp,sp,-32
 251              		.cfi_def_cfa_offset 32
GAS LISTING /tmp/ccXFfN6y.s 			page 7


 252 0148 233C1100 		sd	ra,24(sp)
 253 014c 23388100 		sd	s0,16(sp)
 254 0150 23349100 		sd	s1,8(sp)
 255              		.cfi_offset 1, -8
 256              		.cfi_offset 8, -16
 257              		.cfi_offset 9, -24
 258 0154 13040102 		addi	s0,sp,32
 259              		.cfi_def_cfa 8, 0
  91:src/kernel/slabAllocator.cpp ****     slab_allocator_t* slabAllocatorLocal = (slab_allocator_t*)(buddy + 1);
 260              		.loc 1 91 5
 261              		.loc 1 91 23 is_stmt 0
 262 0158 93040512 		addi	s1,a0,288
 263              	.LVL21:
  92:src/kernel/slabAllocator.cpp **** 
  93:src/kernel/slabAllocator.cpp ****     for(size_t i = 0; i < CACHE_BUFFER_SIZE;i++)
 264              		.loc 1 93 5 is_stmt 1
 265              	.LBB3:
 266              		.loc 1 93 16 is_stmt 0
 267 015c 93070000 		li	a5,0
 268 0160 6F004001 		j	.L14
 269              	.LVL22:
 270              	.L16:
  94:src/kernel/slabAllocator.cpp ****         slabAllocatorLocal->cachesBuffers[i] = nullptr;
 271              		.loc 1 94 9 is_stmt 1 discriminator 2
 272              		.loc 1 94 46 is_stmt 0 discriminator 2
 273 0164 13973700 		slli	a4,a5,3
 274 0168 3307E500 		add	a4,a0,a4
 275 016c 23300712 		sd	zero,288(a4)
  93:src/kernel/slabAllocator.cpp ****         slabAllocatorLocal->cachesBuffers[i] = nullptr;
 276              		.loc 1 93 5 is_stmt 1 discriminator 2
 277 0170 93871700 		addi	a5,a5,1
 278              	.LVL23:
 279              	.L14:
  93:src/kernel/slabAllocator.cpp ****         slabAllocatorLocal->cachesBuffers[i] = nullptr;
 280              		.loc 1 93 25 discriminator 3
 281 0174 1307C000 		li	a4,12
 282 0178 E376F7FE 		bleu	a5,a4,.L16
 283              	.LBE3:
  95:src/kernel/slabAllocator.cpp **** 
  96:src/kernel/slabAllocator.cpp ****     init_cache(&slabAllocatorLocal->cacheOfCaches, "Cache of caches", CACHE_OF_CACHES_SLAB_SIZE, si
 284              		.loc 1 96 5
 285              		.loc 1 96 15 is_stmt 0
 286 017c 93070000 		li	a5,0
 287              	.LVL24:
 288 0180 13070000 		li	a4,0
 289 0184 93060008 		li	a3,128
 290 0188 13062000 		li	a2,2
 291 018c 97050000 		lla	a1,.LC0
 291      93850500 
 292 0194 13058518 		addi	a0,a0,392
 293              	.LVL25:
 294 0198 97000000 		call	_Z10init_cacheP12kmem_cache_sPKcmmPFvPvES5_
 294      E7800000 
 295              	.LVL26:
  97:src/kernel/slabAllocator.cpp **** 
  98:src/kernel/slabAllocator.cpp ****     return slabAllocatorLocal;
 296              		.loc 1 98 5 is_stmt 1
GAS LISTING /tmp/ccXFfN6y.s 			page 8


  99:src/kernel/slabAllocator.cpp **** }
 297              		.loc 1 99 1 is_stmt 0
 298 01a0 13850400 		mv	a0,s1
 299 01a4 83308101 		ld	ra,24(sp)
 300              		.cfi_restore 1
 301 01a8 03340101 		ld	s0,16(sp)
 302              		.cfi_restore 8
 303              		.cfi_def_cfa 2, 32
 304 01ac 83348100 		ld	s1,8(sp)
 305              		.cfi_restore 9
 306              	.LVL27:
 307 01b0 13010102 		addi	sp,sp,32
 308              		.cfi_def_cfa_offset 0
 309 01b4 67800000 		jr	ra
 310              		.cfi_endproc
 311              	.LFE8:
 313              		.align	2
 314              		.globl	_Z13checkSetIndexP6slab_si
 316              	_Z13checkSetIndexP6slab_si:
 317              	.LFB9:
 100:src/kernel/slabAllocator.cpp **** 
 101:src/kernel/slabAllocator.cpp **** bool checkSetIndex(slab_t* slab, int index)
 102:src/kernel/slabAllocator.cpp **** {
 318              		.loc 1 102 1 is_stmt 1
 319              		.cfi_startproc
 320              	.LVL28:
 321 01b8 130101FF 		addi	sp,sp,-16
 322              		.cfi_def_cfa_offset 16
 323 01bc 23348100 		sd	s0,8(sp)
 324              		.cfi_offset 8, -8
 325 01c0 13040101 		addi	s0,sp,16
 326              		.cfi_def_cfa 8, 0
 103:src/kernel/slabAllocator.cpp ****     return (uint8)slab->allocated[index / 8] & (1 << (index%8));
 327              		.loc 1 103 5
 328              		.loc 1 103 41 is_stmt 0
 329 01c4 9BD7F541 		sraiw	a5,a1,31
 330 01c8 9BD7D701 		srliw	a5,a5,29
 331 01cc BB85B700 		addw	a1,a5,a1
 332              	.LVL29:
 333 01d0 1BD73540 		sraiw	a4,a1,3
 334              		.loc 1 103 44
 335 01d4 3305E500 		add	a0,a0,a4
 336              	.LVL30:
 337              		.loc 1 103 12
 338 01d8 03458502 		lbu	a0,40(a0)
 339              		.loc 1 103 60
 340 01dc 93F57500 		andi	a1,a1,7
 341 01e0 BB85F540 		subw	a1,a1,a5
 342              		.loc 1 103 63
 343 01e4 3B55B540 		sraw	a0,a0,a1
 104:src/kernel/slabAllocator.cpp **** }
 344              		.loc 1 104 1
 345 01e8 13751500 		andi	a0,a0,1
 346 01ec 03348100 		ld	s0,8(sp)
 347              		.cfi_restore 8
 348              		.cfi_def_cfa 2, 16
 349 01f0 13010101 		addi	sp,sp,16
GAS LISTING /tmp/ccXFfN6y.s 			page 9


 350              		.cfi_def_cfa_offset 0
 351 01f4 67800000 		jr	ra
 352              		.cfi_endproc
 353              	.LFE9:
 355              		.align	2
 356              		.globl	_Z17setAllocatedIndexP6slab_si
 358              	_Z17setAllocatedIndexP6slab_si:
 359              	.LFB10:
 105:src/kernel/slabAllocator.cpp **** 
 106:src/kernel/slabAllocator.cpp **** void setAllocatedIndex(slab_t* slab, int index)
 107:src/kernel/slabAllocator.cpp **** {
 360              		.loc 1 107 1 is_stmt 1
 361              		.cfi_startproc
 362              	.LVL31:
 363 01f8 130101FF 		addi	sp,sp,-16
 364              		.cfi_def_cfa_offset 16
 365 01fc 23348100 		sd	s0,8(sp)
 366              		.cfi_offset 8, -8
 367 0200 13040101 		addi	s0,sp,16
 368              		.cfi_def_cfa 8, 0
 108:src/kernel/slabAllocator.cpp ****     slab->allocated[index / 8]=(uint8)slab->allocated[index/8] | (1 << (index%8));
 369              		.loc 1 108 5
 370              		.loc 1 108 60 is_stmt 0
 371 0204 9BD7F541 		sraiw	a5,a1,31
 372 0208 9BD7D701 		srliw	a5,a5,29
 373 020c BB85B700 		addw	a1,a5,a1
 374              	.LVL32:
 375 0210 1BD73540 		sraiw	a4,a1,3
 376              		.loc 1 108 62
 377 0214 3305E500 		add	a0,a0,a4
 378              	.LVL33:
 379              		.loc 1 108 32
 380 0218 03078502 		lb	a4,40(a0)
 381              		.loc 1 108 78
 382 021c 93F57500 		andi	a1,a1,7
 383 0220 BB85F540 		subw	a1,a1,a5
 384              		.loc 1 108 69
 385 0224 93071000 		li	a5,1
 386 0228 BB95B700 		sllw	a1,a5,a1
 387              		.loc 1 108 64
 388 022c B365B700 		or	a1,a4,a1
 389              		.loc 1 108 31
 390 0230 2304B502 		sb	a1,40(a0)
 109:src/kernel/slabAllocator.cpp **** }
 391              		.loc 1 109 1
 392 0234 03348100 		ld	s0,8(sp)
 393              		.cfi_restore 8
 394              		.cfi_def_cfa 2, 16
 395 0238 13010101 		addi	sp,sp,16
 396              		.cfi_def_cfa_offset 0
 397 023c 67800000 		jr	ra
 398              		.cfi_endproc
 399              	.LFE10:
 401              		.align	2
 402              		.globl	_Z14allocateObjectP6slab_s
 404              	_Z14allocateObjectP6slab_s:
 405              	.LFB11:
GAS LISTING /tmp/ccXFfN6y.s 			page 10


 110:src/kernel/slabAllocator.cpp **** 
 111:src/kernel/slabAllocator.cpp **** void* allocateObject(slab_t* slab)
 112:src/kernel/slabAllocator.cpp **** {
 406              		.loc 1 112 1 is_stmt 1
 407              		.cfi_startproc
 408              	.LVL34:
 409 0240 130101FD 		addi	sp,sp,-48
 410              		.cfi_def_cfa_offset 48
 411 0244 23341102 		sd	ra,40(sp)
 412 0248 23308102 		sd	s0,32(sp)
 413 024c 233C9100 		sd	s1,24(sp)
 414 0250 23382101 		sd	s2,16(sp)
 415 0254 23343101 		sd	s3,8(sp)
 416              		.cfi_offset 1, -8
 417              		.cfi_offset 8, -16
 418              		.cfi_offset 9, -24
 419              		.cfi_offset 18, -32
 420              		.cfi_offset 19, -40
 421 0258 13040103 		addi	s0,sp,48
 422              		.cfi_def_cfa 8, 0
 423 025c 13090500 		mv	s2,a0
 113:src/kernel/slabAllocator.cpp ****     if(slab == nullptr)
 424              		.loc 1 113 5
 425 0260 63080508 		beqz	a0,.L26
 426              	.LBB4:
 114:src/kernel/slabAllocator.cpp ****         return nullptr;
 115:src/kernel/slabAllocator.cpp ****     int index = -1;
 116:src/kernel/slabAllocator.cpp ****     void* addr = nullptr;
 117:src/kernel/slabAllocator.cpp ****     for(size_t i = 0;i < slab->numOfObjects;i++)
 427              		.loc 1 117 16 is_stmt 0
 428 0264 93040000 		li	s1,0
 429              	.LVL35:
 430              	.L25:
 431              		.loc 1 117 24 is_stmt 1 discriminator 1
 432              		.loc 1 117 32 is_stmt 0 discriminator 1
 433 0268 83378901 		ld	a5,24(s2)
 434              		.loc 1 117 24 discriminator 1
 435 026c 63FEF402 		bleu	a5,s1,.L27
 118:src/kernel/slabAllocator.cpp ****     {
 119:src/kernel/slabAllocator.cpp ****         if(!checkSetIndex(slab, i))
 436              		.loc 1 119 9 is_stmt 1
 437              		.loc 1 119 26 is_stmt 0
 438 0270 9B890400 		sext.w	s3,s1
 439 0274 93850900 		mv	a1,s3
 440 0278 13050900 		mv	a0,s2
 441 027c 97000000 		call	_Z13checkSetIndexP6slab_si
 441      E7800000 
 442              	.LVL36:
 443              		.loc 1 119 9
 444 0284 63060500 		beqz	a0,.L29
 117:src/kernel/slabAllocator.cpp ****     {
 445              		.loc 1 117 5 is_stmt 1 discriminator 2
 446 0288 93841400 		addi	s1,s1,1
 447              	.LVL37:
 448 028c 6FF0DFFD 		j	.L25
 449              	.L29:
 120:src/kernel/slabAllocator.cpp ****         {
GAS LISTING /tmp/ccXFfN6y.s 			page 11


 121:src/kernel/slabAllocator.cpp ****             addr = (void*)((size_t)slab + sizeof(slab_t)+ i*slab->owner->obj_size);
 450              		.loc 1 121 13
 451              		.loc 1 121 67 is_stmt 0
 452 0290 83370901 		ld	a5,16(s2)
 453              		.loc 1 121 74
 454 0294 83B70706 		ld	a5,96(a5)
 455              		.loc 1 121 60
 456 0298 B3849702 		mul	s1,a5,s1
 457              	.LVL38:
 458              		.loc 1 121 57
 459 029c B3049900 		add	s1,s2,s1
 460 02a0 93848422 		addi	s1,s1,552
 461              	.LVL39:
 122:src/kernel/slabAllocator.cpp ****             index = i;
 462              		.loc 1 122 13 is_stmt 1
 123:src/kernel/slabAllocator.cpp ****             break;
 463              		.loc 1 123 13
 464 02a4 6F00C000 		j	.L23
 465              	.LVL40:
 466              	.L27:
 467              	.LBE4:
 116:src/kernel/slabAllocator.cpp ****     for(size_t i = 0;i < slab->numOfObjects;i++)
 468              		.loc 1 116 11 is_stmt 0
 469 02a8 93040000 		li	s1,0
 470              	.LVL41:
 115:src/kernel/slabAllocator.cpp ****     void* addr = nullptr;
 471              		.loc 1 115 9
 472 02ac 9309F0FF 		li	s3,-1
 473              	.L23:
 474              	.LVL42:
 124:src/kernel/slabAllocator.cpp ****         }
 125:src/kernel/slabAllocator.cpp ****     }
 126:src/kernel/slabAllocator.cpp ****     if(addr == nullptr)
 475              		.loc 1 126 5 is_stmt 1
 476 02b0 63800402 		beqz	s1,.L21
 127:src/kernel/slabAllocator.cpp ****         return nullptr;
 128:src/kernel/slabAllocator.cpp **** 
 129:src/kernel/slabAllocator.cpp ****     setAllocatedIndex(slab, index);
 477              		.loc 1 129 5
 478              		.loc 1 129 22 is_stmt 0
 479 02b4 93850900 		mv	a1,s3
 480 02b8 13050900 		mv	a0,s2
 481 02bc 97000000 		call	_Z17setAllocatedIndexP6slab_si
 481      E7800000 
 482              	.LVL43:
 130:src/kernel/slabAllocator.cpp ****     slab->numOfAllocatedObjects++;
 483              		.loc 1 130 5 is_stmt 1
 484              		.loc 1 130 11 is_stmt 0
 485 02c4 83370902 		ld	a5,32(s2)
 486              		.loc 1 130 32
 487 02c8 93871700 		addi	a5,a5,1
 488 02cc 2330F902 		sd	a5,32(s2)
 131:src/kernel/slabAllocator.cpp **** 
 132:src/kernel/slabAllocator.cpp ****     return addr;
 489              		.loc 1 132 5 is_stmt 1
 490              	.LVL44:
 491              	.L21:
GAS LISTING /tmp/ccXFfN6y.s 			page 12


 133:src/kernel/slabAllocator.cpp **** }
 492              		.loc 1 133 1 is_stmt 0
 493 02d0 13850400 		mv	a0,s1
 494 02d4 83308102 		ld	ra,40(sp)
 495              		.cfi_remember_state
 496              		.cfi_restore 1
 497 02d8 03340102 		ld	s0,32(sp)
 498              		.cfi_restore 8
 499              		.cfi_def_cfa 2, 48
 500 02dc 83348101 		ld	s1,24(sp)
 501              		.cfi_restore 9
 502 02e0 03390101 		ld	s2,16(sp)
 503              		.cfi_restore 18
 504              	.LVL45:
 505 02e4 83398100 		ld	s3,8(sp)
 506              		.cfi_restore 19
 507 02e8 13010103 		addi	sp,sp,48
 508              		.cfi_def_cfa_offset 0
 509 02ec 67800000 		jr	ra
 510              	.LVL46:
 511              	.L26:
 512              		.cfi_restore_state
 114:src/kernel/slabAllocator.cpp ****     int index = -1;
 513              		.loc 1 114 16
 514 02f0 93040500 		mv	s1,a0
 515 02f4 6FF0DFFD 		j	.L21
 516              		.cfi_endproc
 517              	.LFE11:
 519              		.align	2
 520              		.globl	_Z4fullP6slab_s
 522              	_Z4fullP6slab_s:
 523              	.LFB12:
 134:src/kernel/slabAllocator.cpp **** 
 135:src/kernel/slabAllocator.cpp **** bool full(slab_t* slab)
 136:src/kernel/slabAllocator.cpp **** {
 524              		.loc 1 136 1 is_stmt 1
 525              		.cfi_startproc
 526              	.LVL47:
 527 02f8 130101FF 		addi	sp,sp,-16
 528              		.cfi_def_cfa_offset 16
 529 02fc 23348100 		sd	s0,8(sp)
 530              		.cfi_offset 8, -8
 531 0300 13040101 		addi	s0,sp,16
 532              		.cfi_def_cfa 8, 0
 137:src/kernel/slabAllocator.cpp ****     return slab->numOfAllocatedObjects == slab->numOfObjects;
 533              		.loc 1 137 5
 534              		.loc 1 137 18 is_stmt 0
 535 0304 83370502 		ld	a5,32(a0)
 536              		.loc 1 137 49
 537 0308 03358501 		ld	a0,24(a0)
 538              	.LVL48:
 539 030c 3305F540 		sub	a0,a0,a5
 138:src/kernel/slabAllocator.cpp **** }
 540              		.loc 1 138 1
 541 0310 13351500 		seqz	a0,a0
 542 0314 03348100 		ld	s0,8(sp)
 543              		.cfi_restore 8
GAS LISTING /tmp/ccXFfN6y.s 			page 13


 544              		.cfi_def_cfa 2, 16
 545 0318 13010101 		addi	sp,sp,16
 546              		.cfi_def_cfa_offset 0
 547 031c 67800000 		jr	ra
 548              		.cfi_endproc
 549              	.LFE12:
 551              		.align	2
 552              		.globl	_Z5emptyP6slab_s
 554              	_Z5emptyP6slab_s:
 555              	.LFB13:
 139:src/kernel/slabAllocator.cpp **** 
 140:src/kernel/slabAllocator.cpp **** bool empty(slab_t* slab)
 141:src/kernel/slabAllocator.cpp **** {
 556              		.loc 1 141 1 is_stmt 1
 557              		.cfi_startproc
 558              	.LVL49:
 559 0320 130101FF 		addi	sp,sp,-16
 560              		.cfi_def_cfa_offset 16
 561 0324 23348100 		sd	s0,8(sp)
 562              		.cfi_offset 8, -8
 563 0328 13040101 		addi	s0,sp,16
 564              		.cfi_def_cfa 8, 0
 142:src/kernel/slabAllocator.cpp ****     return slab->numOfAllocatedObjects == 0;
 565              		.loc 1 142 5
 566              		.loc 1 142 18 is_stmt 0
 567 032c 03350502 		ld	a0,32(a0)
 568              	.LVL50:
 143:src/kernel/slabAllocator.cpp **** }
 569              		.loc 1 143 1
 570 0330 13351500 		seqz	a0,a0
 571 0334 03348100 		ld	s0,8(sp)
 572              		.cfi_restore 8
 573              		.cfi_def_cfa 2, 16
 574 0338 13010101 		addi	sp,sp,16
 575              		.cfi_def_cfa_offset 0
 576 033c 67800000 		jr	ra
 577              		.cfi_endproc
 578              	.LFE13:
 580              		.align	2
 581              		.globl	_Z18insertIntoSlabListP6slab_sPS0_
 583              	_Z18insertIntoSlabListP6slab_sPS0_:
 584              	.LFB14:
 144:src/kernel/slabAllocator.cpp **** 
 145:src/kernel/slabAllocator.cpp **** void insertIntoSlabList(slab_t* slab, slab_t** slab_head)
 146:src/kernel/slabAllocator.cpp **** {
 585              		.loc 1 146 1 is_stmt 1
 586              		.cfi_startproc
 587              	.LVL51:
 588 0340 130101FF 		addi	sp,sp,-16
 589              		.cfi_def_cfa_offset 16
 590 0344 23348100 		sd	s0,8(sp)
 591              		.cfi_offset 8, -8
 592 0348 13040101 		addi	s0,sp,16
 593              		.cfi_def_cfa 8, 0
 147:src/kernel/slabAllocator.cpp ****     if(slab == nullptr)
 594              		.loc 1 147 5
 595 034c 630E0500 		beqz	a0,.L34
GAS LISTING /tmp/ccXFfN6y.s 			page 14


 148:src/kernel/slabAllocator.cpp ****         return;
 149:src/kernel/slabAllocator.cpp ****     slab->prev = nullptr;
 596              		.loc 1 149 5
 597              		.loc 1 149 16 is_stmt 0
 598 0350 23300500 		sd	zero,0(a0)
 150:src/kernel/slabAllocator.cpp ****     slab->next = *slab_head;
 599              		.loc 1 150 5 is_stmt 1
 600              		.loc 1 150 18 is_stmt 0
 601 0354 83B70500 		ld	a5,0(a1)
 602              		.loc 1 150 16
 603 0358 2334F500 		sd	a5,8(a0)
 151:src/kernel/slabAllocator.cpp ****     if(*slab_head != nullptr)
 604              		.loc 1 151 5 is_stmt 1
 605 035c 63840700 		beqz	a5,.L36
 152:src/kernel/slabAllocator.cpp ****         (*slab_head)->prev = slab;
 606              		.loc 1 152 9
 607              		.loc 1 152 28 is_stmt 0
 608 0360 23B0A700 		sd	a0,0(a5)
 609              	.L36:
 153:src/kernel/slabAllocator.cpp ****     *slab_head = slab;
 610              		.loc 1 153 5 is_stmt 1
 611              		.loc 1 153 16 is_stmt 0
 612 0364 23B0A500 		sd	a0,0(a1)
 613              	.L34:
 154:src/kernel/slabAllocator.cpp **** }
 614              		.loc 1 154 1
 615 0368 03348100 		ld	s0,8(sp)
 616              		.cfi_restore 8
 617              		.cfi_def_cfa 2, 16
 618 036c 13010101 		addi	sp,sp,16
 619              		.cfi_def_cfa_offset 0
 620 0370 67800000 		jr	ra
 621              		.cfi_endproc
 622              	.LFE14:
 624              		.align	2
 625              		.globl	_Z18removeFromSlabListP6slab_sPS0_
 627              	_Z18removeFromSlabListP6slab_sPS0_:
 628              	.LFB15:
 155:src/kernel/slabAllocator.cpp **** 
 156:src/kernel/slabAllocator.cpp **** void removeFromSlabList(slab_t* slab, slab_t** slab_head)
 157:src/kernel/slabAllocator.cpp **** {
 629              		.loc 1 157 1 is_stmt 1
 630              		.cfi_startproc
 631              	.LVL52:
 632 0374 130101FF 		addi	sp,sp,-16
 633              		.cfi_def_cfa_offset 16
 634 0378 23348100 		sd	s0,8(sp)
 635              		.cfi_offset 8, -8
 636 037c 13040101 		addi	s0,sp,16
 637              		.cfi_def_cfa 8, 0
 158:src/kernel/slabAllocator.cpp ****     if(slab->prev == nullptr) //same as slab == *slab_head
 638              		.loc 1 158 5
 639              		.loc 1 158 14 is_stmt 0
 640 0380 83370500 		ld	a5,0(a0)
 641              		.loc 1 158 5
 642 0384 63860702 		beqz	a5,.L44
 159:src/kernel/slabAllocator.cpp ****     {
GAS LISTING /tmp/ccXFfN6y.s 			page 15


 160:src/kernel/slabAllocator.cpp ****         if(slab->next) slab->next->prev = nullptr;
 161:src/kernel/slabAllocator.cpp ****         (*slab_head) = slab->next;
 162:src/kernel/slabAllocator.cpp ****         slab->next = slab->prev = nullptr;
 163:src/kernel/slabAllocator.cpp ****     }
 164:src/kernel/slabAllocator.cpp ****     else
 165:src/kernel/slabAllocator.cpp ****     {
 166:src/kernel/slabAllocator.cpp ****         slab->prev->next = slab->next;
 643              		.loc 1 166 9 is_stmt 1
 644              		.loc 1 166 34 is_stmt 0
 645 0388 03378500 		ld	a4,8(a0)
 646              		.loc 1 166 26
 647 038c 23B4E700 		sd	a4,8(a5)
 167:src/kernel/slabAllocator.cpp ****         if(slab->next) slab->next->prev = slab->prev;
 648              		.loc 1 167 9 is_stmt 1
 649 0390 63060700 		beqz	a4,.L42
 650              		.loc 1 167 24 discriminator 1
 651              		.loc 1 167 49 is_stmt 0 discriminator 1
 652 0394 83370500 		ld	a5,0(a0)
 653              		.loc 1 167 41 discriminator 1
 654 0398 2330F700 		sd	a5,0(a4)
 655              	.L42:
 168:src/kernel/slabAllocator.cpp ****         slab->next = slab->prev = nullptr;
 656              		.loc 1 168 9 is_stmt 1
 657              		.loc 1 168 33 is_stmt 0
 658 039c 23300500 		sd	zero,0(a0)
 659              		.loc 1 168 20
 660 03a0 23340500 		sd	zero,8(a0)
 661              	.L38:
 169:src/kernel/slabAllocator.cpp ****     }
 170:src/kernel/slabAllocator.cpp **** }
 662              		.loc 1 170 1
 663 03a4 03348100 		ld	s0,8(sp)
 664              		.cfi_remember_state
 665              		.cfi_restore 8
 666              		.cfi_def_cfa 2, 16
 667 03a8 13010101 		addi	sp,sp,16
 668              		.cfi_def_cfa_offset 0
 669 03ac 67800000 		jr	ra
 670              	.L44:
 671              		.cfi_restore_state
 160:src/kernel/slabAllocator.cpp ****         (*slab_head) = slab->next;
 672              		.loc 1 160 9 is_stmt 1
 160:src/kernel/slabAllocator.cpp ****         (*slab_head) = slab->next;
 673              		.loc 1 160 18 is_stmt 0
 674 03b0 83378500 		ld	a5,8(a0)
 160:src/kernel/slabAllocator.cpp ****         (*slab_head) = slab->next;
 675              		.loc 1 160 9
 676 03b4 63840700 		beqz	a5,.L40
 160:src/kernel/slabAllocator.cpp ****         (*slab_head) = slab->next;
 677              		.loc 1 160 24 is_stmt 1 discriminator 1
 160:src/kernel/slabAllocator.cpp ****         (*slab_head) = slab->next;
 678              		.loc 1 160 41 is_stmt 0 discriminator 1
 679 03b8 23B00700 		sd	zero,0(a5)
 680              	.L40:
 161:src/kernel/slabAllocator.cpp ****         slab->next = slab->prev = nullptr;
 681              		.loc 1 161 9 is_stmt 1
 161:src/kernel/slabAllocator.cpp ****         slab->next = slab->prev = nullptr;
GAS LISTING /tmp/ccXFfN6y.s 			page 16


 682              		.loc 1 161 30 is_stmt 0
 683 03bc 83378500 		ld	a5,8(a0)
 161:src/kernel/slabAllocator.cpp ****         slab->next = slab->prev = nullptr;
 684              		.loc 1 161 22
 685 03c0 23B0F500 		sd	a5,0(a1)
 162:src/kernel/slabAllocator.cpp ****     }
 686              		.loc 1 162 9 is_stmt 1
 162:src/kernel/slabAllocator.cpp ****     }
 687              		.loc 1 162 33 is_stmt 0
 688 03c4 23300500 		sd	zero,0(a0)
 162:src/kernel/slabAllocator.cpp ****     }
 689              		.loc 1 162 20
 690 03c8 23340500 		sd	zero,8(a0)
 691 03cc 6FF09FFD 		j	.L38
 692              		.cfi_endproc
 693              	.LFE15:
 695              		.align	2
 696              		.globl	_Z16putPartialToFullP12kmem_cache_s
 698              	_Z16putPartialToFullP12kmem_cache_s:
 699              	.LFB16:
 171:src/kernel/slabAllocator.cpp **** 
 172:src/kernel/slabAllocator.cpp **** void putPartialToFull(kmem_cache_t* cachep)
 173:src/kernel/slabAllocator.cpp **** {
 700              		.loc 1 173 1 is_stmt 1
 701              		.cfi_startproc
 702              	.LVL53:
 703 03d0 130101FE 		addi	sp,sp,-32
 704              		.cfi_def_cfa_offset 32
 705 03d4 233C1100 		sd	ra,24(sp)
 706 03d8 23388100 		sd	s0,16(sp)
 707 03dc 23349100 		sd	s1,8(sp)
 708 03e0 23302101 		sd	s2,0(sp)
 709              		.cfi_offset 1, -8
 710              		.cfi_offset 8, -16
 711              		.cfi_offset 9, -24
 712              		.cfi_offset 18, -32
 713 03e4 13040102 		addi	s0,sp,32
 714              		.cfi_def_cfa 8, 0
 715 03e8 93040500 		mv	s1,a0
 174:src/kernel/slabAllocator.cpp ****     slab_t* slab = cachep->slabs_partial;
 716              		.loc 1 174 5
 717              		.loc 1 174 13 is_stmt 0
 718 03ec 03390505 		ld	s2,80(a0)
 719              	.LVL54:
 175:src/kernel/slabAllocator.cpp ****     removeFromSlabList(slab, &cachep->slabs_partial);
 720              		.loc 1 175 5 is_stmt 1
 721              		.loc 1 175 23 is_stmt 0
 722 03f0 93050505 		addi	a1,a0,80
 723 03f4 13050900 		mv	a0,s2
 724              	.LVL55:
 725 03f8 97000000 		call	_Z18removeFromSlabListP6slab_sPS0_
 725      E7800000 
 726              	.LVL56:
 176:src/kernel/slabAllocator.cpp ****     insertIntoSlabList(slab, &cachep->slabs_full);
 727              		.loc 1 176 5 is_stmt 1
 728              		.loc 1 176 23 is_stmt 0
 729 0400 93858404 		addi	a1,s1,72
GAS LISTING /tmp/ccXFfN6y.s 			page 17


 730 0404 13050900 		mv	a0,s2
 731 0408 97000000 		call	_Z18insertIntoSlabListP6slab_sPS0_
 731      E7800000 
 732              	.LVL57:
 177:src/kernel/slabAllocator.cpp **** }
 733              		.loc 1 177 1
 734 0410 83308101 		ld	ra,24(sp)
 735              		.cfi_restore 1
 736 0414 03340101 		ld	s0,16(sp)
 737              		.cfi_restore 8
 738              		.cfi_def_cfa 2, 32
 739 0418 83348100 		ld	s1,8(sp)
 740              		.cfi_restore 9
 741              	.LVL58:
 742 041c 03390100 		ld	s2,0(sp)
 743              		.cfi_restore 18
 744              	.LVL59:
 745 0420 13010102 		addi	sp,sp,32
 746              		.cfi_def_cfa_offset 0
 747 0424 67800000 		jr	ra
 748              		.cfi_endproc
 749              	.LFE16:
 751              		.align	2
 752              		.globl	_Z17putEmptyToPartialP12kmem_cache_s
 754              	_Z17putEmptyToPartialP12kmem_cache_s:
 755              	.LFB17:
 178:src/kernel/slabAllocator.cpp **** 
 179:src/kernel/slabAllocator.cpp **** void putEmptyToPartial(kmem_cache_t* cachep)
 180:src/kernel/slabAllocator.cpp **** {
 756              		.loc 1 180 1 is_stmt 1
 757              		.cfi_startproc
 758              	.LVL60:
 759 0428 130101FE 		addi	sp,sp,-32
 760              		.cfi_def_cfa_offset 32
 761 042c 233C1100 		sd	ra,24(sp)
 762 0430 23388100 		sd	s0,16(sp)
 763 0434 23349100 		sd	s1,8(sp)
 764 0438 23302101 		sd	s2,0(sp)
 765              		.cfi_offset 1, -8
 766              		.cfi_offset 8, -16
 767              		.cfi_offset 9, -24
 768              		.cfi_offset 18, -32
 769 043c 13040102 		addi	s0,sp,32
 770              		.cfi_def_cfa 8, 0
 771 0440 93040500 		mv	s1,a0
 181:src/kernel/slabAllocator.cpp ****     slab_t* slab = cachep->slabs_empty;
 772              		.loc 1 181 5
 773              		.loc 1 181 13 is_stmt 0
 774 0444 03390504 		ld	s2,64(a0)
 775              	.LVL61:
 182:src/kernel/slabAllocator.cpp ****     removeFromSlabList(slab, &cachep->slabs_empty);
 776              		.loc 1 182 5 is_stmt 1
 777              		.loc 1 182 23 is_stmt 0
 778 0448 93050504 		addi	a1,a0,64
 779 044c 13050900 		mv	a0,s2
 780              	.LVL62:
 781 0450 97000000 		call	_Z18removeFromSlabListP6slab_sPS0_
GAS LISTING /tmp/ccXFfN6y.s 			page 18


 781      E7800000 
 782              	.LVL63:
 183:src/kernel/slabAllocator.cpp ****     insertIntoSlabList(slab, &cachep->slabs_partial);
 783              		.loc 1 183 5 is_stmt 1
 784              		.loc 1 183 23 is_stmt 0
 785 0458 93850405 		addi	a1,s1,80
 786 045c 13050900 		mv	a0,s2
 787 0460 97000000 		call	_Z18insertIntoSlabListP6slab_sPS0_
 787      E7800000 
 788              	.LVL64:
 184:src/kernel/slabAllocator.cpp **** }
 789              		.loc 1 184 1
 790 0468 83308101 		ld	ra,24(sp)
 791              		.cfi_restore 1
 792 046c 03340101 		ld	s0,16(sp)
 793              		.cfi_restore 8
 794              		.cfi_def_cfa 2, 32
 795 0470 83348100 		ld	s1,8(sp)
 796              		.cfi_restore 9
 797              	.LVL65:
 798 0474 03390100 		ld	s2,0(sp)
 799              		.cfi_restore 18
 800              	.LVL66:
 801 0478 13010102 		addi	sp,sp,32
 802              		.cfi_def_cfa_offset 0
 803 047c 67800000 		jr	ra
 804              		.cfi_endproc
 805              	.LFE17:
 807              		.align	2
 808              		.globl	_Z14removeFullSlabP12kmem_cache_sP6slab_s
 810              	_Z14removeFullSlabP12kmem_cache_sP6slab_s:
 811              	.LFB18:
 185:src/kernel/slabAllocator.cpp **** 
 186:src/kernel/slabAllocator.cpp **** void removeFullSlab(kmem_cache_t* cachep, slab_t* slab)
 187:src/kernel/slabAllocator.cpp **** {
 812              		.loc 1 187 1 is_stmt 1
 813              		.cfi_startproc
 814              	.LVL67:
 815 0480 130101FE 		addi	sp,sp,-32
 816              		.cfi_def_cfa_offset 32
 817 0484 233C1100 		sd	ra,24(sp)
 818 0488 23388100 		sd	s0,16(sp)
 819 048c 23349100 		sd	s1,8(sp)
 820 0490 23302101 		sd	s2,0(sp)
 821              		.cfi_offset 1, -8
 822              		.cfi_offset 8, -16
 823              		.cfi_offset 9, -24
 824              		.cfi_offset 18, -32
 825 0494 13040102 		addi	s0,sp,32
 826              		.cfi_def_cfa 8, 0
 827 0498 13090500 		mv	s2,a0
 828 049c 93840500 		mv	s1,a1
 188:src/kernel/slabAllocator.cpp ****     removeFromSlabList(slab, &cachep->slabs_full);
 829              		.loc 1 188 5
 830              		.loc 1 188 23 is_stmt 0
 831 04a0 93058504 		addi	a1,a0,72
 832              	.LVL68:
GAS LISTING /tmp/ccXFfN6y.s 			page 19


 833 04a4 13850400 		mv	a0,s1
 834              	.LVL69:
 835 04a8 97000000 		call	_Z18removeFromSlabListP6slab_sPS0_
 835      E7800000 
 836              	.LVL70:
 189:src/kernel/slabAllocator.cpp ****     insertIntoSlabList(slab, &cachep->slabs_partial);
 837              		.loc 1 189 5 is_stmt 1
 838              		.loc 1 189 23 is_stmt 0
 839 04b0 93050905 		addi	a1,s2,80
 840 04b4 13850400 		mv	a0,s1
 841 04b8 97000000 		call	_Z18insertIntoSlabListP6slab_sPS0_
 841      E7800000 
 842              	.LVL71:
 190:src/kernel/slabAllocator.cpp **** }
 843              		.loc 1 190 1
 844 04c0 83308101 		ld	ra,24(sp)
 845              		.cfi_restore 1
 846 04c4 03340101 		ld	s0,16(sp)
 847              		.cfi_restore 8
 848              		.cfi_def_cfa 2, 32
 849 04c8 83348100 		ld	s1,8(sp)
 850              		.cfi_restore 9
 851              	.LVL72:
 852 04cc 03390100 		ld	s2,0(sp)
 853              		.cfi_restore 18
 854              	.LVL73:
 855 04d0 13010102 		addi	sp,sp,32
 856              		.cfi_def_cfa_offset 0
 857 04d4 67800000 		jr	ra
 858              		.cfi_endproc
 859              	.LFE18:
 861              		.align	2
 862              		.globl	_Z17removePartialSlabP12kmem_cache_sP6slab_s
 864              	_Z17removePartialSlabP12kmem_cache_sP6slab_s:
 865              	.LFB19:
 191:src/kernel/slabAllocator.cpp **** 
 192:src/kernel/slabAllocator.cpp **** void removePartialSlab(kmem_cache_t * cachep, slab_t* slab)
 193:src/kernel/slabAllocator.cpp **** {
 866              		.loc 1 193 1 is_stmt 1
 867              		.cfi_startproc
 868              	.LVL74:
 869 04d8 130101FE 		addi	sp,sp,-32
 870              		.cfi_def_cfa_offset 32
 871 04dc 233C1100 		sd	ra,24(sp)
 872 04e0 23388100 		sd	s0,16(sp)
 873 04e4 23349100 		sd	s1,8(sp)
 874 04e8 23302101 		sd	s2,0(sp)
 875              		.cfi_offset 1, -8
 876              		.cfi_offset 8, -16
 877              		.cfi_offset 9, -24
 878              		.cfi_offset 18, -32
 879 04ec 13040102 		addi	s0,sp,32
 880              		.cfi_def_cfa 8, 0
 881 04f0 13090500 		mv	s2,a0
 882 04f4 93840500 		mv	s1,a1
 194:src/kernel/slabAllocator.cpp ****     removeFromSlabList(slab, &cachep->slabs_partial);
 883              		.loc 1 194 5
GAS LISTING /tmp/ccXFfN6y.s 			page 20


 884              		.loc 1 194 23 is_stmt 0
 885 04f8 93050505 		addi	a1,a0,80
 886              	.LVL75:
 887 04fc 13850400 		mv	a0,s1
 888              	.LVL76:
 889 0500 97000000 		call	_Z18removeFromSlabListP6slab_sPS0_
 889      E7800000 
 890              	.LVL77:
 195:src/kernel/slabAllocator.cpp ****     insertIntoSlabList(slab, &cachep->slabs_empty);
 891              		.loc 1 195 5 is_stmt 1
 892              		.loc 1 195 23 is_stmt 0
 893 0508 93050904 		addi	a1,s2,64
 894 050c 13850400 		mv	a0,s1
 895 0510 97000000 		call	_Z18insertIntoSlabListP6slab_sPS0_
 895      E7800000 
 896              	.LVL78:
 196:src/kernel/slabAllocator.cpp **** }
 897              		.loc 1 196 1
 898 0518 83308101 		ld	ra,24(sp)
 899              		.cfi_restore 1
 900 051c 03340101 		ld	s0,16(sp)
 901              		.cfi_restore 8
 902              		.cfi_def_cfa 2, 32
 903 0520 83348100 		ld	s1,8(sp)
 904              		.cfi_restore 9
 905              	.LVL79:
 906 0524 03390100 		ld	s2,0(sp)
 907              		.cfi_restore 18
 908              	.LVL80:
 909 0528 13010102 		addi	sp,sp,32
 910              		.cfi_def_cfa_offset 0
 911 052c 67800000 		jr	ra
 912              		.cfi_endproc
 913              	.LFE19:
 915              		.align	2
 916              		.globl	_Z12allocateSlabP12kmem_cache_s
 918              	_Z12allocateSlabP12kmem_cache_s:
 919              	.LFB20:
 197:src/kernel/slabAllocator.cpp **** 
 198:src/kernel/slabAllocator.cpp **** void allocateSlab(kmem_cache_t* cachep)
 199:src/kernel/slabAllocator.cpp **** {
 920              		.loc 1 199 1 is_stmt 1
 921              		.cfi_startproc
 922              	.LVL81:
 923 0530 130101FD 		addi	sp,sp,-48
 924              		.cfi_def_cfa_offset 48
 925 0534 23341102 		sd	ra,40(sp)
 926 0538 23308102 		sd	s0,32(sp)
 927 053c 233C9100 		sd	s1,24(sp)
 928 0540 23382101 		sd	s2,16(sp)
 929 0544 23343101 		sd	s3,8(sp)
 930              		.cfi_offset 1, -8
 931              		.cfi_offset 8, -16
 932              		.cfi_offset 9, -24
 933              		.cfi_offset 18, -32
 934              		.cfi_offset 19, -40
 935 0548 13040103 		addi	s0,sp,48
GAS LISTING /tmp/ccXFfN6y.s 			page 21


 936              		.cfi_def_cfa 8, 0
 937 054c 93090500 		mv	s3,a0
 200:src/kernel/slabAllocator.cpp ****     slab_t* newSlab = (slab_t*)buddy_alloc(cachep->slab_size);
 938              		.loc 1 200 5
 939              		.loc 1 200 43 is_stmt 0
 940 0550 03358505 		ld	a0,88(a0)
 941              	.LVL82:
 942 0554 97000000 		call	_Z11buddy_allocm@plt
 942      E7800000 
 943              	.LVL83:
 201:src/kernel/slabAllocator.cpp ****     if(newSlab == nullptr)
 944              		.loc 1 201 5 is_stmt 1
 945 055c 630C0508 		beqz	a0,.L53
 946 0560 93040500 		mv	s1,a0
 202:src/kernel/slabAllocator.cpp ****         return;
 203:src/kernel/slabAllocator.cpp ****     newSlab->next = cachep->slabs_empty;
 947              		.loc 1 203 5
 948              		.loc 1 203 29 is_stmt 0
 949 0564 83B70904 		ld	a5,64(s3)
 950              		.loc 1 203 19
 951 0568 2334F500 		sd	a5,8(a0)
 204:src/kernel/slabAllocator.cpp ****     if(cachep->slabs_empty != nullptr)
 952              		.loc 1 204 5 is_stmt 1
 953 056c 63840700 		beqz	a5,.L55
 205:src/kernel/slabAllocator.cpp ****         cachep->slabs_empty->prev = newSlab;
 954              		.loc 1 205 9
 955              		.loc 1 205 35 is_stmt 0
 956 0570 23B0A700 		sd	a0,0(a5)
 957              	.LVL84:
 958              	.L55:
 206:src/kernel/slabAllocator.cpp ****     cachep->slabs_empty = newSlab;
 959              		.loc 1 206 5 is_stmt 1
 960              		.loc 1 206 25 is_stmt 0
 961 0574 23B09904 		sd	s1,64(s3)
 207:src/kernel/slabAllocator.cpp ****     newSlab->prev = nullptr;
 962              		.loc 1 207 5 is_stmt 1
 963              		.loc 1 207 19 is_stmt 0
 964 0578 23B00400 		sd	zero,0(s1)
 208:src/kernel/slabAllocator.cpp **** 
 209:src/kernel/slabAllocator.cpp ****     newSlab->numOfAllocatedObjects = 0;
 965              		.loc 1 209 5 is_stmt 1
 966              		.loc 1 209 36 is_stmt 0
 967 057c 23B00402 		sd	zero,32(s1)
 210:src/kernel/slabAllocator.cpp ****     newSlab->owner = cachep;
 968              		.loc 1 210 5 is_stmt 1
 969              		.loc 1 210 20 is_stmt 0
 970 0580 23B83401 		sd	s3,16(s1)
 211:src/kernel/slabAllocator.cpp ****     size_t sizeInBytes = cachep->slab_size*BLOCK_SIZE;
 971              		.loc 1 211 5 is_stmt 1
 972              		.loc 1 211 34 is_stmt 0
 973 0584 83B68905 		ld	a3,88(s3)
 974              		.loc 1 211 12
 975 0588 9396C600 		slli	a3,a3,12
 976              	.LVL85:
 212:src/kernel/slabAllocator.cpp ****     newSlab->numOfObjects = (sizeInBytes - sizeof(slab_t)) / cachep->obj_size; // TODO can this par
 977              		.loc 1 212 5 is_stmt 1
 978              		.loc 1 212 42 is_stmt 0
GAS LISTING /tmp/ccXFfN6y.s 			page 22


 979 058c 938686DD 		addi	a3,a3,-552
 980              	.LVL86:
 981              		.loc 1 212 70
 982 0590 83B70906 		ld	a5,96(s3)
 983              		.loc 1 212 60
 984 0594 B3D6F602 		divu	a3,a3,a5
 985              	.LVL87:
 986              		.loc 1 212 27
 987 0598 23BCD400 		sd	a3,24(s1)
 988              	.LVL88:
 213:src/kernel/slabAllocator.cpp ****     for(size_t i = 0; i < (newSlab->numOfObjects + 7) / 8;i++)
 989              		.loc 1 213 5 is_stmt 1
 990              	.LBB5:
 991              		.loc 1 213 16 is_stmt 0
 992 059c 13070000 		li	a4,0
 993              	.LVL89:
 994              	.L57:
 995              		.loc 1 213 25 is_stmt 1 discriminator 3
 996              		.loc 1 213 50 is_stmt 0 discriminator 3
 997 05a0 93877600 		addi	a5,a3,7
 998              		.loc 1 213 55 discriminator 3
 999 05a4 93D73700 		srli	a5,a5,3
 1000              		.loc 1 213 25 discriminator 3
 1001 05a8 637AF700 		bleu	a5,a4,.L56
 214:src/kernel/slabAllocator.cpp ****         newSlab->allocated[i] = 0;
 1002              		.loc 1 214 9 is_stmt 1 discriminator 2
 1003              		.loc 1 214 31 is_stmt 0 discriminator 2
 1004 05ac B387E400 		add	a5,s1,a4
 1005 05b0 23840702 		sb	zero,40(a5)
 213:src/kernel/slabAllocator.cpp ****     for(size_t i = 0; i < (newSlab->numOfObjects + 7) / 8;i++)
 1006              		.loc 1 213 5 is_stmt 1 discriminator 2
 1007 05b4 13071700 		addi	a4,a4,1
 1008              	.LVL90:
 1009 05b8 6FF09FFE 		j	.L57
 1010              	.L56:
 1011              	.LBE5:
 215:src/kernel/slabAllocator.cpp **** 
 216:src/kernel/slabAllocator.cpp ****     if(cachep->ctor != nullptr)
 1012              		.loc 1 216 5
 1013              	.LBB6:
 1014              		.loc 1 216 16 is_stmt 0
 1015 05bc 83B78906 		ld	a5,104(s3)
 1016              		.loc 1 216 5
 1017 05c0 638A0702 		beqz	a5,.L53
 1018              	.LBB7:
 217:src/kernel/slabAllocator.cpp ****     {
 218:src/kernel/slabAllocator.cpp ****         for(size_t i = 0;i < newSlab->numOfObjects;i++)
 1019              		.loc 1 218 20
 1020 05c4 13090000 		li	s2,0
 1021              	.LVL91:
 1022              	.L58:
 1023              		.loc 1 218 28 is_stmt 1 discriminator 3
 1024              		.loc 1 218 39 is_stmt 0 discriminator 3
 1025 05c8 83B78401 		ld	a5,24(s1)
 1026              		.loc 1 218 28 discriminator 3
 1027 05cc 6374F902 		bleu	a5,s2,.L53
 219:src/kernel/slabAllocator.cpp ****             cachep->ctor((void*)((size_t)newSlab + sizeof(slab_t) + i*newSlab->owner->obj_size));
GAS LISTING /tmp/ccXFfN6y.s 			page 23


 1028              		.loc 1 219 13 is_stmt 1 discriminator 2
 1029              		.loc 1 219 21 is_stmt 0 discriminator 2
 1030 05d0 83B78906 		ld	a5,104(s3)
 1031              		.loc 1 219 80 discriminator 2
 1032 05d4 03B70401 		ld	a4,16(s1)
 1033              		.loc 1 219 87 discriminator 2
 1034 05d8 03350706 		ld	a0,96(a4)
 1035              		.loc 1 219 70 discriminator 2
 1036 05dc 33052503 		mul	a0,a0,s2
 1037              		.loc 1 219 67 discriminator 2
 1038 05e0 3385A400 		add	a0,s1,a0
 1039              		.loc 1 219 25 discriminator 2
 1040 05e4 13058522 		addi	a0,a0,552
 1041 05e8 E7800700 		jalr	a5
 1042              	.LVL92:
 218:src/kernel/slabAllocator.cpp ****             cachep->ctor((void*)((size_t)newSlab + sizeof(slab_t) + i*newSlab->owner->obj_size));
 1043              		.loc 1 218 9 is_stmt 1 discriminator 2
 1044 05ec 13091900 		addi	s2,s2,1
 1045              	.LVL93:
 1046 05f0 6FF09FFD 		j	.L58
 1047              	.LVL94:
 1048              	.L53:
 1049              	.LBE7:
 1050              	.LBE6:
 220:src/kernel/slabAllocator.cpp ****     }
 221:src/kernel/slabAllocator.cpp **** }
 1051              		.loc 1 221 1 is_stmt 0
 1052 05f4 83308102 		ld	ra,40(sp)
 1053              		.cfi_restore 1
 1054 05f8 03340102 		ld	s0,32(sp)
 1055              		.cfi_restore 8
 1056              		.cfi_def_cfa 2, 48
 1057 05fc 83348101 		ld	s1,24(sp)
 1058              		.cfi_restore 9
 1059 0600 03390101 		ld	s2,16(sp)
 1060              		.cfi_restore 18
 1061 0604 83398100 		ld	s3,8(sp)
 1062              		.cfi_restore 19
 1063              	.LVL95:
 1064 0608 13010103 		addi	sp,sp,48
 1065              		.cfi_def_cfa_offset 0
 1066 060c 67800000 		jr	ra
 1067              		.cfi_endproc
 1068              	.LFE20:
 1070              		.align	2
 1071              		.globl	_Z18getOptimalSlabSizem
 1073              	_Z18getOptimalSlabSizem:
 1074              	.LFB21:
 222:src/kernel/slabAllocator.cpp **** 
 223:src/kernel/slabAllocator.cpp **** size_t getOptimalSlabSize(size_t obj_size)
 224:src/kernel/slabAllocator.cpp **** {
 1075              		.loc 1 224 1 is_stmt 1
 1076              		.cfi_startproc
 1077              	.LVL96:
 1078 0610 130101FF 		addi	sp,sp,-16
 1079              		.cfi_def_cfa_offset 16
 1080 0614 23348100 		sd	s0,8(sp)
GAS LISTING /tmp/ccXFfN6y.s 			page 24


 1081              		.cfi_offset 8, -8
 1082 0618 13040101 		addi	s0,sp,16
 1083              		.cfi_def_cfa 8, 0
 225:src/kernel/slabAllocator.cpp ****     size_t bestSize = BLOCK_SIZE;
 1084              		.loc 1 225 5
 1085              	.LVL97:
 1086              		.loc 1 225 12 is_stmt 0
 1087 061c 37170000 		li	a4,4096
 1088              	.LVL98:
 1089              	.L62:
 226:src/kernel/slabAllocator.cpp ****     while(bestSize < obj_size + sizeof(slab_t))
 1090              		.loc 1 226 5 is_stmt 1
 1091              		.loc 1 226 20
 1092              		.loc 1 226 31 is_stmt 0
 1093 0620 93078522 		addi	a5,a0,552
 1094              		.loc 1 226 20
 1095 0624 6376F700 		bleu	a5,a4,.L61
 227:src/kernel/slabAllocator.cpp ****         bestSize<<=1;
 1096              		.loc 1 227 9 is_stmt 1
 1097              		.loc 1 227 17 is_stmt 0
 1098 0628 13171700 		slli	a4,a4,1
 1099              	.LVL99:
 226:src/kernel/slabAllocator.cpp ****     while(bestSize < obj_size + sizeof(slab_t))
 1100              		.loc 1 226 5
 1101 062c 6FF05FFF 		j	.L62
 1102              	.L61:
 228:src/kernel/slabAllocator.cpp ****     size_t optimalWaste = (bestSize - sizeof(slab_t)) % obj_size;
 1103              		.loc 1 228 5 is_stmt 1
 1104              		.loc 1 228 37 is_stmt 0
 1105 0630 130887DD 		addi	a6,a4,-552
 1106              		.loc 1 228 12
 1107 0634 3378A802 		remu	a6,a6,a0
 1108              	.LVL100:
 229:src/kernel/slabAllocator.cpp ****     size_t oldSize = bestSize;
 1109              		.loc 1 229 5 is_stmt 1
 230:src/kernel/slabAllocator.cpp **** 
 231:src/kernel/slabAllocator.cpp ****     static size_t lowerConst = 1;
 1110              		.loc 1 231 5
 232:src/kernel/slabAllocator.cpp ****     static size_t highConst = 4;
 1111              		.loc 1 232 5
 233:src/kernel/slabAllocator.cpp ****     for(size_t i = lowerConst;i<=highConst;i++)
 1112              		.loc 1 233 5
 228:src/kernel/slabAllocator.cpp ****     size_t oldSize = bestSize;
 1113              		.loc 1 228 12 is_stmt 0
 1114 0638 13030700 		mv	t1,a4
 1115              	.LBB8:
 1116              		.loc 1 233 16
 1117 063c 93061000 		li	a3,1
 1118 0640 6F008000 		j	.L65
 1119              	.LVL101:
 1120              	.L64:
 1121              		.loc 1 233 5 is_stmt 1 discriminator 2
 1122 0644 93861600 		addi	a3,a3,1
 1123              	.LVL102:
 1124              	.L65:
 1125              		.loc 1 233 32 discriminator 1
 1126 0648 93074000 		li	a5,4
GAS LISTING /tmp/ccXFfN6y.s 			page 25


 1127 064c 63E6D702 		bgtu	a3,a5,.L63
 1128              	.LBB9:
 234:src/kernel/slabAllocator.cpp ****     {
 235:src/kernel/slabAllocator.cpp ****         size_t newSize = oldSize << i;
 1129              		.loc 1 235 9
 1130              		.loc 1 235 16 is_stmt 0
 1131 0650 3316D700 		sll	a2,a4,a3
 1132              	.LVL103:
 236:src/kernel/slabAllocator.cpp ****         size_t newWaste = (newSize - sizeof(slab_t)) % obj_size;
 1133              		.loc 1 236 9 is_stmt 1
 1134              		.loc 1 236 36 is_stmt 0
 1135 0654 930786DD 		addi	a5,a2,-552
 1136              		.loc 1 236 16
 1137 0658 B3F5A702 		remu	a1,a5,a0
 1138              	.LVL104:
 237:src/kernel/slabAllocator.cpp ****         size_t numOfObjs = (newSize - sizeof(slab_t)) / obj_size;
 1139              		.loc 1 237 9 is_stmt 1
 1140              		.loc 1 237 16 is_stmt 0
 1141 065c B3D7A702 		divu	a5,a5,a0
 1142              	.LVL105:
 238:src/kernel/slabAllocator.cpp ****         if(newWaste < optimalWaste && numOfObjs <= MAX_NUM_OF_OBJS)
 1143              		.loc 1 238 9 is_stmt 1
 1144 0660 E3F205FF 		bleu	a6,a1,.L64
 1145              		.loc 1 238 36 is_stmt 0 discriminator 1
 1146 0664 B7180000 		li	a7,4096
 1147 0668 E3EEF8FC 		bgtu	a5,a7,.L64
 239:src/kernel/slabAllocator.cpp ****         {
 240:src/kernel/slabAllocator.cpp ****             optimalWaste = newWaste;
 1148              		.loc 1 240 26
 1149 066c 13880500 		mv	a6,a1
 1150              	.LVL106:
 241:src/kernel/slabAllocator.cpp ****             bestSize = newSize;
 1151              		.loc 1 241 22
 1152 0670 13030600 		mv	t1,a2
 1153              	.LVL107:
 1154 0674 6FF01FFD 		j	.L64
 1155              	.LVL108:
 1156              	.L63:
 1157              	.LBE9:
 1158              	.LBE8:
 242:src/kernel/slabAllocator.cpp ****         }
 243:src/kernel/slabAllocator.cpp ****     }
 244:src/kernel/slabAllocator.cpp ****     /*for(size_t i = lowerConst;i<=highConst;i++)
 245:src/kernel/slabAllocator.cpp ****     {
 246:src/kernel/slabAllocator.cpp ****         size_t newSize = oldSize + i*BLOCK_SIZE;
 247:src/kernel/slabAllocator.cpp ****         size_t newWaste = (newSize - sizeof(slab_t)) % obj_size;
 248:src/kernel/slabAllocator.cpp ****         size_t numOfObjs = (newSize - sizeof(slab_t)) / obj_size;
 249:src/kernel/slabAllocator.cpp ****         if(newWaste < optimalWaste && numOfObjs <= MAX_NUM_OF_OBJS)
 250:src/kernel/slabAllocator.cpp ****         {
 251:src/kernel/slabAllocator.cpp ****             optimalWaste = newWaste;
 252:src/kernel/slabAllocator.cpp ****             bestSize = newSize;
 253:src/kernel/slabAllocator.cpp ****         }
 254:src/kernel/slabAllocator.cpp ****     }*/
 255:src/kernel/slabAllocator.cpp **** 
 256:src/kernel/slabAllocator.cpp ****     return bestSize / BLOCK_SIZE;
 1159              		.loc 1 256 5 is_stmt 1
 257:src/kernel/slabAllocator.cpp **** }
GAS LISTING /tmp/ccXFfN6y.s 			page 26


 1160              		.loc 1 257 1 is_stmt 0
 1161 0678 1355C300 		srli	a0,t1,12
 1162              	.LVL109:
 1163 067c 03348100 		ld	s0,8(sp)
 1164              		.cfi_restore 8
 1165              		.cfi_def_cfa 2, 16
 1166 0680 13010101 		addi	sp,sp,16
 1167              		.cfi_def_cfa_offset 0
 1168 0684 67800000 		jr	ra
 1169              		.cfi_endproc
 1170              	.LFE21:
 1172              		.align	2
 1173              		.globl	_Z8findSlabP12kmem_cache_sPKv
 1175              	_Z8findSlabP12kmem_cache_sPKv:
 1176              	.LFB22:
 258:src/kernel/slabAllocator.cpp **** 
 259:src/kernel/slabAllocator.cpp **** //finds the slab where objp is
 260:src/kernel/slabAllocator.cpp **** slab_t* findSlab(kmem_cache_t* cachep, const void* objp)
 261:src/kernel/slabAllocator.cpp **** {
 1177              		.loc 1 261 1 is_stmt 1
 1178              		.cfi_startproc
 1179              	.LVL110:
 1180 0688 130101FF 		addi	sp,sp,-16
 1181              		.cfi_def_cfa_offset 16
 1182 068c 23348100 		sd	s0,8(sp)
 1183              		.cfi_offset 8, -8
 1184 0690 13040101 		addi	s0,sp,16
 1185              		.cfi_def_cfa 8, 0
 1186 0694 93060500 		mv	a3,a0
 262:src/kernel/slabAllocator.cpp ****     if(cachep == nullptr || objp == nullptr)
 1187              		.loc 1 262 5
 1188 0698 630C0502 		beqz	a0,.L68
 1189              		.loc 1 262 26 is_stmt 0 discriminator 1
 1190 069c 638A0506 		beqz	a1,.L76
 263:src/kernel/slabAllocator.cpp ****         return nullptr;
 264:src/kernel/slabAllocator.cpp ****     slab_t* slab = cachep->slabs_full;
 1191              		.loc 1 264 5 is_stmt 1
 1192              		.loc 1 264 13 is_stmt 0
 1193 06a0 03358504 		ld	a0,72(a0)
 1194              	.LVL111:
 1195 06a4 6F008000 		j	.L72
 1196              	.LVL112:
 1197              	.L71:
 1198              	.LBB10:
 265:src/kernel/slabAllocator.cpp ****     while(slab != nullptr)
 266:src/kernel/slabAllocator.cpp ****     {
 267:src/kernel/slabAllocator.cpp ****         size_t endAddr = (size_t)slab + sizeof(slab_t) + slab->numOfObjects*slab->owner->obj_size;
 268:src/kernel/slabAllocator.cpp ****         if((size_t)objp > (size_t)slab && (size_t)objp < endAddr)
 269:src/kernel/slabAllocator.cpp ****             return slab;
 270:src/kernel/slabAllocator.cpp ****         slab = slab->next;
 1199              		.loc 1 270 9 is_stmt 1
 1200              		.loc 1 270 14 is_stmt 0
 1201 06a8 03358500 		ld	a0,8(a0)
 1202              	.LVL113:
 1203              	.L72:
 1204              	.LBE10:
 265:src/kernel/slabAllocator.cpp ****     while(slab != nullptr)
GAS LISTING /tmp/ccXFfN6y.s 			page 27


 1205              		.loc 1 265 5 is_stmt 1
 265:src/kernel/slabAllocator.cpp ****     while(slab != nullptr)
 1206              		.loc 1 265 16
 1207 06ac 63080502 		beqz	a0,.L70
 1208              	.LBB11:
 267:src/kernel/slabAllocator.cpp ****         if((size_t)objp > (size_t)slab && (size_t)objp < endAddr)
 1209              		.loc 1 267 9
 267:src/kernel/slabAllocator.cpp ****         if((size_t)objp > (size_t)slab && (size_t)objp < endAddr)
 1210              		.loc 1 267 64 is_stmt 0
 1211 06b0 83378501 		ld	a5,24(a0)
 267:src/kernel/slabAllocator.cpp ****         if((size_t)objp > (size_t)slab && (size_t)objp < endAddr)
 1212              		.loc 1 267 83
 1213 06b4 03370501 		ld	a4,16(a0)
 267:src/kernel/slabAllocator.cpp ****         if((size_t)objp > (size_t)slab && (size_t)objp < endAddr)
 1214              		.loc 1 267 90
 1215 06b8 03370706 		ld	a4,96(a4)
 267:src/kernel/slabAllocator.cpp ****         if((size_t)objp > (size_t)slab && (size_t)objp < endAddr)
 1216              		.loc 1 267 76
 1217 06bc B387E702 		mul	a5,a5,a4
 267:src/kernel/slabAllocator.cpp ****         if((size_t)objp > (size_t)slab && (size_t)objp < endAddr)
 1218              		.loc 1 267 56
 1219 06c0 B387A700 		add	a5,a5,a0
 267:src/kernel/slabAllocator.cpp ****         if((size_t)objp > (size_t)slab && (size_t)objp < endAddr)
 1220              		.loc 1 267 16
 1221 06c4 93878722 		addi	a5,a5,552
 1222              	.LVL114:
 268:src/kernel/slabAllocator.cpp ****             return slab;
 1223              		.loc 1 268 9 is_stmt 1
 1224 06c8 E370B5FE 		bgeu	a0,a1,.L71
 268:src/kernel/slabAllocator.cpp ****             return slab;
 1225              		.loc 1 268 40 is_stmt 0 discriminator 1
 1226 06cc E3FEF5FC 		bgeu	a1,a5,.L71
 1227              	.LVL115:
 1228              	.L68:
 1229              	.LBE11:
 271:src/kernel/slabAllocator.cpp ****     }
 272:src/kernel/slabAllocator.cpp **** 
 273:src/kernel/slabAllocator.cpp ****     slab = cachep->slabs_partial;
 274:src/kernel/slabAllocator.cpp ****     while(slab != nullptr)
 275:src/kernel/slabAllocator.cpp ****     {
 276:src/kernel/slabAllocator.cpp ****         size_t endAddr = (size_t)slab + sizeof(slab_t) + slab->numOfObjects*slab->owner->obj_size;
 277:src/kernel/slabAllocator.cpp ****         if((size_t)objp > (size_t)slab && (size_t)objp < endAddr)
 278:src/kernel/slabAllocator.cpp ****             return slab;
 279:src/kernel/slabAllocator.cpp ****         slab = slab->next;
 280:src/kernel/slabAllocator.cpp ****     }
 281:src/kernel/slabAllocator.cpp **** 
 282:src/kernel/slabAllocator.cpp ****     return nullptr;
 283:src/kernel/slabAllocator.cpp **** }
 1230              		.loc 1 283 1
 1231 06d0 03348100 		ld	s0,8(sp)
 1232              		.cfi_remember_state
 1233              		.cfi_restore 8
 1234              		.cfi_def_cfa 2, 16
 1235 06d4 13010101 		addi	sp,sp,16
 1236              		.cfi_def_cfa_offset 0
 1237 06d8 67800000 		jr	ra
 1238              	.LVL116:
GAS LISTING /tmp/ccXFfN6y.s 			page 28


 1239              	.L70:
 1240              		.cfi_restore_state
 273:src/kernel/slabAllocator.cpp ****     while(slab != nullptr)
 1241              		.loc 1 273 5 is_stmt 1
 273:src/kernel/slabAllocator.cpp ****     while(slab != nullptr)
 1242              		.loc 1 273 10 is_stmt 0
 1243 06dc 03B50605 		ld	a0,80(a3)
 1244              	.LVL117:
 1245 06e0 6F008000 		j	.L74
 1246              	.LVL118:
 1247              	.L73:
 1248              	.LBB12:
 279:src/kernel/slabAllocator.cpp ****     }
 1249              		.loc 1 279 9 is_stmt 1
 279:src/kernel/slabAllocator.cpp ****     }
 1250              		.loc 1 279 14 is_stmt 0
 1251 06e4 03358500 		ld	a0,8(a0)
 1252              	.LVL119:
 1253              	.L74:
 1254              	.LBE12:
 274:src/kernel/slabAllocator.cpp ****     {
 1255              		.loc 1 274 5 is_stmt 1
 274:src/kernel/slabAllocator.cpp ****     {
 1256              		.loc 1 274 16
 1257 06e8 E30405FE 		beqz	a0,.L68
 1258              	.LBB13:
 276:src/kernel/slabAllocator.cpp ****         if((size_t)objp > (size_t)slab && (size_t)objp < endAddr)
 1259              		.loc 1 276 9
 276:src/kernel/slabAllocator.cpp ****         if((size_t)objp > (size_t)slab && (size_t)objp < endAddr)
 1260              		.loc 1 276 64 is_stmt 0
 1261 06ec 83378501 		ld	a5,24(a0)
 276:src/kernel/slabAllocator.cpp ****         if((size_t)objp > (size_t)slab && (size_t)objp < endAddr)
 1262              		.loc 1 276 83
 1263 06f0 03370501 		ld	a4,16(a0)
 276:src/kernel/slabAllocator.cpp ****         if((size_t)objp > (size_t)slab && (size_t)objp < endAddr)
 1264              		.loc 1 276 90
 1265 06f4 03370706 		ld	a4,96(a4)
 276:src/kernel/slabAllocator.cpp ****         if((size_t)objp > (size_t)slab && (size_t)objp < endAddr)
 1266              		.loc 1 276 76
 1267 06f8 B387E702 		mul	a5,a5,a4
 276:src/kernel/slabAllocator.cpp ****         if((size_t)objp > (size_t)slab && (size_t)objp < endAddr)
 1268              		.loc 1 276 56
 1269 06fc B387A700 		add	a5,a5,a0
 276:src/kernel/slabAllocator.cpp ****         if((size_t)objp > (size_t)slab && (size_t)objp < endAddr)
 1270              		.loc 1 276 16
 1271 0700 93878722 		addi	a5,a5,552
 1272              	.LVL120:
 277:src/kernel/slabAllocator.cpp ****             return slab;
 1273              		.loc 1 277 9 is_stmt 1
 1274 0704 E370B5FE 		bgeu	a0,a1,.L73
 277:src/kernel/slabAllocator.cpp ****             return slab;
 1275              		.loc 1 277 40 is_stmt 0 discriminator 1
 1276 0708 E3FEF5FC 		bgeu	a1,a5,.L73
 1277 070c 6FF05FFC 		j	.L68
 1278              	.LVL121:
 1279              	.L76:
 1280              	.LBE13:
GAS LISTING /tmp/ccXFfN6y.s 			page 29


 263:src/kernel/slabAllocator.cpp ****     slab_t* slab = cachep->slabs_full;
 1281              		.loc 1 263 16
 1282 0710 13850500 		mv	a0,a1
 1283              	.LVL122:
 1284 0714 6FF0DFFB 		j	.L68
 1285              		.cfi_endproc
 1286              	.LFE22:
 1288              		.align	2
 1289              		.globl	_Z19resetAllocatedIndexP6slab_si
 1291              	_Z19resetAllocatedIndexP6slab_si:
 1292              	.LFB23:
 284:src/kernel/slabAllocator.cpp **** 
 285:src/kernel/slabAllocator.cpp **** void resetAllocatedIndex(slab_t* slab, int index)
 286:src/kernel/slabAllocator.cpp **** {
 1293              		.loc 1 286 1 is_stmt 1
 1294              		.cfi_startproc
 1295              	.LVL123:
 1296 0718 130101FF 		addi	sp,sp,-16
 1297              		.cfi_def_cfa_offset 16
 1298 071c 23348100 		sd	s0,8(sp)
 1299              		.cfi_offset 8, -8
 1300 0720 13040101 		addi	s0,sp,16
 1301              		.cfi_def_cfa 8, 0
 287:src/kernel/slabAllocator.cpp ****     slab->allocated[index / 8]=(uint8)slab->allocated[index/8] & ~(1 << (index%8));
 1302              		.loc 1 287 5
 1303              		.loc 1 287 60 is_stmt 0
 1304 0724 9BD7F541 		sraiw	a5,a1,31
 1305 0728 9BD7D701 		srliw	a5,a5,29
 1306 072c BB85B700 		addw	a1,a5,a1
 1307              	.LVL124:
 1308 0730 1BD73540 		sraiw	a4,a1,3
 1309              		.loc 1 287 62
 1310 0734 3305E500 		add	a0,a0,a4
 1311              	.LVL125:
 1312              		.loc 1 287 32
 1313 0738 03078502 		lb	a4,40(a0)
 1314              		.loc 1 287 79
 1315 073c 93F57500 		andi	a1,a1,7
 1316 0740 BB85F540 		subw	a1,a1,a5
 1317              		.loc 1 287 70
 1318 0744 93071000 		li	a5,1
 1319 0748 BB95B700 		sllw	a1,a5,a1
 1320              		.loc 1 287 64
 1321 074c 93C5F5FF 		not	a1,a1
 1322 0750 B375B700 		and	a1,a4,a1
 1323              		.loc 1 287 31
 1324 0754 2304B502 		sb	a1,40(a0)
 288:src/kernel/slabAllocator.cpp **** }
 1325              		.loc 1 288 1
 1326 0758 03348100 		ld	s0,8(sp)
 1327              		.cfi_restore 8
 1328              		.cfi_def_cfa 2, 16
 1329 075c 13010101 		addi	sp,sp,16
 1330              		.cfi_def_cfa_offset 0
 1331 0760 67800000 		jr	ra
 1332              		.cfi_endproc
 1333              	.LFE23:
GAS LISTING /tmp/ccXFfN6y.s 			page 30


 1335              		.section	.rodata.str1.8
 1336              		.align	3
 1337              	.LC1:
 1338 0010 4F6E6520 		.string	"One slab info---------\n"
 1338      736C6162 
 1338      20696E66 
 1338      6F2D2D2D 
 1338      2D2D2D2D 
 1339              		.align	3
 1340              	.LC2:
 1341 0028 536C6162 		.string	"Slab address "
 1341      20616464 
 1341      72657373 
 1341      2000
 1342 0036 0000     		.align	3
 1343              	.LC3:
 1344 0038 4E756D62 		.string	"Number of allocated objects "
 1344      6572206F 
 1344      6620616C 
 1344      6C6F6361 
 1344      74656420 
 1345 0055 000000   		.align	3
 1346              	.LC4:
 1347 0058 4E756D62 		.string	"Number of objects "
 1347      6572206F 
 1347      66206F62 
 1347      6A656374 
 1347      732000
 1348              		.text
 1349              		.align	2
 1350              		.globl	_Z13printSlabInfoP6slab_s
 1352              	_Z13printSlabInfoP6slab_s:
 1353              	.LFB24:
 289:src/kernel/slabAllocator.cpp **** 
 290:src/kernel/slabAllocator.cpp **** void printSlabInfo(slab_t* slab)
 291:src/kernel/slabAllocator.cpp **** {
 1354              		.loc 1 291 1 is_stmt 1
 1355              		.cfi_startproc
 1356              	.LVL126:
 1357 0764 130101FE 		addi	sp,sp,-32
 1358              		.cfi_def_cfa_offset 32
 1359 0768 233C1100 		sd	ra,24(sp)
 1360 076c 23388100 		sd	s0,16(sp)
 1361 0770 23349100 		sd	s1,8(sp)
 1362              		.cfi_offset 1, -8
 1363              		.cfi_offset 8, -16
 1364              		.cfi_offset 9, -24
 1365 0774 13040102 		addi	s0,sp,32
 1366              		.cfi_def_cfa 8, 0
 1367 0778 93040500 		mv	s1,a0
 292:src/kernel/slabAllocator.cpp ****     KConsole::trapPrintString("One slab info---------\n");
 1368              		.loc 1 292 5
 1369              		.loc 1 292 30 is_stmt 0
 1370 077c 17050000 		lla	a0,.LC1
 1370      13050500 
 1371              	.LVL127:
 1372 0784 97000000 		call	_ZN8KConsole15trapPrintStringEPKc@plt
GAS LISTING /tmp/ccXFfN6y.s 			page 31


 1372      E7800000 
 1373              	.LVL128:
 293:src/kernel/slabAllocator.cpp ****     KConsole::trapPrintStringInt("Slab address ",(size_t)slab,16);
 1374              		.loc 1 293 5 is_stmt 1
 1375              		.loc 1 293 33 is_stmt 0
 1376 078c 13060001 		li	a2,16
 1377 0790 93850400 		mv	a1,s1
 1378 0794 17050000 		lla	a0,.LC2
 1378      13050500 
 1379 079c 97000000 		call	_ZN8KConsole18trapPrintStringIntEPKcmi@plt
 1379      E7800000 
 1380              	.LVL129:
 294:src/kernel/slabAllocator.cpp ****     KConsole::trapPrintStringInt("Number of allocated objects ",slab->numOfAllocatedObjects);
 1381              		.loc 1 294 5 is_stmt 1
 1382              		.loc 1 294 33 is_stmt 0
 1383 07a4 1306A000 		li	a2,10
 1384 07a8 83B50402 		ld	a1,32(s1)
 1385 07ac 17050000 		lla	a0,.LC3
 1385      13050500 
 1386 07b4 97000000 		call	_ZN8KConsole18trapPrintStringIntEPKcmi@plt
 1386      E7800000 
 1387              	.LVL130:
 295:src/kernel/slabAllocator.cpp ****     KConsole::trapPrintStringInt("Number of objects ", slab->numOfObjects);
 1388              		.loc 1 295 5 is_stmt 1
 1389              		.loc 1 295 33 is_stmt 0
 1390 07bc 1306A000 		li	a2,10
 1391 07c0 83B58401 		ld	a1,24(s1)
 1392 07c4 17050000 		lla	a0,.LC4
 1392      13050500 
 1393 07cc 97000000 		call	_ZN8KConsole18trapPrintStringIntEPKcmi@plt
 1393      E7800000 
 1394              	.LVL131:
 296:src/kernel/slabAllocator.cpp ****     /*for(size_t i = 0;i < (slab->numOfObjects + 7) / 8;i++)
 297:src/kernel/slabAllocator.cpp ****     {
 298:src/kernel/slabAllocator.cpp ****         KConsole::trapPrintInt(i);
 299:src/kernel/slabAllocator.cpp ****         KConsole::trapPrintString(" : ");
 300:src/kernel/slabAllocator.cpp ****         KConsole::trapPrintInt((size_t)slab->allocated[i], 16);
 301:src/kernel/slabAllocator.cpp ****         KConsole::trapPrintString("\n");
 302:src/kernel/slabAllocator.cpp ****     }*/
 303:src/kernel/slabAllocator.cpp **** }
 1395              		.loc 1 303 1
 1396 07d4 83308101 		ld	ra,24(sp)
 1397              		.cfi_restore 1
 1398 07d8 03340101 		ld	s0,16(sp)
 1399              		.cfi_restore 8
 1400              		.cfi_def_cfa 2, 32
 1401 07dc 83348100 		ld	s1,8(sp)
 1402              		.cfi_restore 9
 1403              	.LVL132:
 1404 07e0 13010102 		addi	sp,sp,32
 1405              		.cfi_def_cfa_offset 0
 1406 07e4 67800000 		jr	ra
 1407              		.cfi_endproc
 1408              	.LFE24:
 1410              		.align	2
 1411              		.globl	_Z16free_slab_objectP6slab_sPKv
 1413              	_Z16free_slab_objectP6slab_sPKv:
GAS LISTING /tmp/ccXFfN6y.s 			page 32


 1414              	.LFB25:
 304:src/kernel/slabAllocator.cpp **** 
 305:src/kernel/slabAllocator.cpp **** void free_slab_object(slab_t* slab, const void* objp)
 306:src/kernel/slabAllocator.cpp **** {
 1415              		.loc 1 306 1 is_stmt 1
 1416              		.cfi_startproc
 1417              	.LVL133:
 307:src/kernel/slabAllocator.cpp ****     if(slab == nullptr || objp == nullptr)
 1418              		.loc 1 307 5
 1419 07e8 630A0512 		beqz	a0,.L89
 306:src/kernel/slabAllocator.cpp ****     if(slab == nullptr || objp == nullptr)
 1420              		.loc 1 306 1 is_stmt 0 discriminator 1
 1421 07ec 130101FD 		addi	sp,sp,-48
 1422              		.cfi_def_cfa_offset 48
 1423 07f0 23341102 		sd	ra,40(sp)
 1424 07f4 23308102 		sd	s0,32(sp)
 1425 07f8 233C9100 		sd	s1,24(sp)
 1426 07fc 23382101 		sd	s2,16(sp)
 1427 0800 23343101 		sd	s3,8(sp)
 1428 0804 23304101 		sd	s4,0(sp)
 1429              		.cfi_offset 1, -8
 1430              		.cfi_offset 8, -16
 1431              		.cfi_offset 9, -24
 1432              		.cfi_offset 18, -32
 1433              		.cfi_offset 19, -40
 1434              		.cfi_offset 20, -48
 1435 0808 13040103 		addi	s0,sp,48
 1436              		.cfi_def_cfa 8, 0
 1437 080c 93040500 		mv	s1,a0
 1438 0810 93890500 		mv	s3,a1
 1439              		.loc 1 307 24 discriminator 1
 1440 0814 63840508 		beqz	a1,.L82
 308:src/kernel/slabAllocator.cpp ****         return;
 309:src/kernel/slabAllocator.cpp ****     int indexOfObject = ((size_t)objp - sizeof(slab_t) - (size_t)slab) / slab->owner->obj_size;
 1441              		.loc 1 309 5 is_stmt 1
 1442              		.loc 1 309 56 is_stmt 0
 1443 0818 3389A540 		sub	s2,a1,a0
 1444 081c 130989DD 		addi	s2,s2,-552
 1445              		.loc 1 309 80
 1446 0820 033A0501 		ld	s4,16(a0)
 1447              		.loc 1 309 87
 1448 0824 83370A06 		ld	a5,96(s4)
 1449              		.loc 1 309 72
 1450 0828 3359F902 		divu	s2,s2,a5
 1451              		.loc 1 309 9
 1452 082c 1B090900 		sext.w	s2,s2
 1453              	.LVL134:
 310:src/kernel/slabAllocator.cpp ****     if((size_t)objp != (size_t)slab + sizeof(slab_t) + indexOfObject*slab->owner->obj_size) //addre
 1454              		.loc 1 310 5 is_stmt 1
 1455              		.loc 1 310 69 is_stmt 0
 1456 0830 B3872703 		mul	a5,a5,s2
 1457              		.loc 1 310 54
 1458 0834 B307F500 		add	a5,a0,a5
 1459 0838 93878722 		addi	a5,a5,552
 1460              		.loc 1 310 5
 1461 083c 6390F506 		bne	a1,a5,.L82
 311:src/kernel/slabAllocator.cpp ****         return;
GAS LISTING /tmp/ccXFfN6y.s 			page 33


 312:src/kernel/slabAllocator.cpp **** 
 313:src/kernel/slabAllocator.cpp ****     if(!checkSetIndex(slab, indexOfObject))
 1462              		.loc 1 313 5 is_stmt 1
 1463              		.loc 1 313 22 is_stmt 0
 1464 0840 93050900 		mv	a1,s2
 1465              	.LVL135:
 1466 0844 97000000 		call	_Z13checkSetIndexP6slab_si
 1466      E7800000 
 1467              	.LVL136:
 1468              		.loc 1 313 5
 1469 084c 63080504 		beqz	a0,.L82
 314:src/kernel/slabAllocator.cpp ****         return;
 315:src/kernel/slabAllocator.cpp **** 
 316:src/kernel/slabAllocator.cpp ****     kmem_cache_t* cachep = slab->owner;
 1470              		.loc 1 316 5 is_stmt 1
 1471              	.LVL137:
 317:src/kernel/slabAllocator.cpp ****     if(cachep->dtor != nullptr)
 1472              		.loc 1 317 5
 1473              		.loc 1 317 16 is_stmt 0
 1474 0850 83370A07 		ld	a5,112(s4)
 1475              		.loc 1 317 5
 1476 0854 63860700 		beqz	a5,.L84
 318:src/kernel/slabAllocator.cpp ****         cachep->dtor((void*)objp);
 1477              		.loc 1 318 9 is_stmt 1
 1478              		.loc 1 318 21 is_stmt 0
 1479 0858 13850900 		mv	a0,s3
 1480 085c E7800700 		jalr	a5
 1481              	.LVL138:
 1482              	.L84:
 319:src/kernel/slabAllocator.cpp ****     if(cachep->ctor != nullptr)
 1483              		.loc 1 319 5 is_stmt 1
 1484              		.loc 1 319 16 is_stmt 0
 1485 0860 83378A06 		ld	a5,104(s4)
 1486              		.loc 1 319 5
 1487 0864 63860700 		beqz	a5,.L85
 320:src/kernel/slabAllocator.cpp ****         cachep->ctor((void*)objp);
 1488              		.loc 1 320 9 is_stmt 1
 1489              		.loc 1 320 21 is_stmt 0
 1490 0868 13850900 		mv	a0,s3
 1491 086c E7800700 		jalr	a5
 1492              	.LVL139:
 1493              	.L85:
 321:src/kernel/slabAllocator.cpp **** 
 322:src/kernel/slabAllocator.cpp ****     resetAllocatedIndex(slab, indexOfObject);
 1494              		.loc 1 322 5 is_stmt 1
 1495              		.loc 1 322 24 is_stmt 0
 1496 0870 93050900 		mv	a1,s2
 1497 0874 13850400 		mv	a0,s1
 1498 0878 97000000 		call	_Z19resetAllocatedIndexP6slab_si
 1498      E7800000 
 1499              	.LVL140:
 323:src/kernel/slabAllocator.cpp ****     if(slab->numOfObjects == slab->numOfAllocatedObjects)
 1500              		.loc 1 323 5 is_stmt 1
 1501              		.loc 1 323 14 is_stmt 0
 1502 0880 03B78401 		ld	a4,24(s1)
 1503              		.loc 1 323 36
 1504 0884 83B70402 		ld	a5,32(s1)
GAS LISTING /tmp/ccXFfN6y.s 			page 34


 1505              		.loc 1 323 5
 1506 0888 630AF702 		beq	a4,a5,.L92
 324:src/kernel/slabAllocator.cpp ****     {
 325:src/kernel/slabAllocator.cpp ****         removeFullSlab(slab->owner, slab);
 326:src/kernel/slabAllocator.cpp ****         slab->numOfAllocatedObjects--;
 327:src/kernel/slabAllocator.cpp ****         if(empty(slab))
 328:src/kernel/slabAllocator.cpp ****             removePartialSlab(slab->owner, slab);
 329:src/kernel/slabAllocator.cpp ****     }
 330:src/kernel/slabAllocator.cpp ****     else if(slab->numOfAllocatedObjects == 1)
 1507              		.loc 1 330 10 is_stmt 1
 1508 088c 13071000 		li	a4,1
 1509 0890 6386E706 		beq	a5,a4,.L93
 331:src/kernel/slabAllocator.cpp ****     {
 332:src/kernel/slabAllocator.cpp ****         removePartialSlab(slab->owner, slab);
 333:src/kernel/slabAllocator.cpp ****         slab->numOfAllocatedObjects--;
 334:src/kernel/slabAllocator.cpp ****     }
 335:src/kernel/slabAllocator.cpp ****     else
 336:src/kernel/slabAllocator.cpp ****         slab->numOfAllocatedObjects--;
 1510              		.loc 1 336 9
 1511              		.loc 1 336 36 is_stmt 0
 1512 0894 9387F7FF 		addi	a5,a5,-1
 1513 0898 23B0F402 		sd	a5,32(s1)
 1514              	.LVL141:
 1515              	.L82:
 337:src/kernel/slabAllocator.cpp **** }
 1516              		.loc 1 337 1
 1517 089c 83308102 		ld	ra,40(sp)
 1518              		.cfi_remember_state
 1519              		.cfi_restore 1
 1520 08a0 03340102 		ld	s0,32(sp)
 1521              		.cfi_restore 8
 1522              		.cfi_def_cfa 2, 48
 1523 08a4 83348101 		ld	s1,24(sp)
 1524              		.cfi_restore 9
 1525              	.LVL142:
 1526 08a8 03390101 		ld	s2,16(sp)
 1527              		.cfi_restore 18
 1528 08ac 83398100 		ld	s3,8(sp)
 1529              		.cfi_restore 19
 1530              	.LVL143:
 1531 08b0 033A0100 		ld	s4,0(sp)
 1532              		.cfi_restore 20
 1533 08b4 13010103 		addi	sp,sp,48
 1534              		.cfi_def_cfa_offset 0
 1535 08b8 67800000 		jr	ra
 1536              	.LVL144:
 1537              	.L92:
 1538              		.cfi_restore_state
 325:src/kernel/slabAllocator.cpp ****         slab->numOfAllocatedObjects--;
 1539              		.loc 1 325 9 is_stmt 1
 325:src/kernel/slabAllocator.cpp ****         slab->numOfAllocatedObjects--;
 1540              		.loc 1 325 23 is_stmt 0
 1541 08bc 93850400 		mv	a1,s1
 1542 08c0 03B50401 		ld	a0,16(s1)
 1543 08c4 97000000 		call	_Z14removeFullSlabP12kmem_cache_sP6slab_s
 1543      E7800000 
 1544              	.LVL145:
GAS LISTING /tmp/ccXFfN6y.s 			page 35


 326:src/kernel/slabAllocator.cpp ****         if(empty(slab))
 1545              		.loc 1 326 9 is_stmt 1
 326:src/kernel/slabAllocator.cpp ****         if(empty(slab))
 1546              		.loc 1 326 15 is_stmt 0
 1547 08cc 83B70402 		ld	a5,32(s1)
 326:src/kernel/slabAllocator.cpp ****         if(empty(slab))
 1548              		.loc 1 326 36
 1549 08d0 9387F7FF 		addi	a5,a5,-1
 1550 08d4 23B0F402 		sd	a5,32(s1)
 327:src/kernel/slabAllocator.cpp ****             removePartialSlab(slab->owner, slab);
 1551              		.loc 1 327 9 is_stmt 1
 327:src/kernel/slabAllocator.cpp ****             removePartialSlab(slab->owner, slab);
 1552              		.loc 1 327 17 is_stmt 0
 1553 08d8 13850400 		mv	a0,s1
 1554 08dc 97000000 		call	_Z5emptyP6slab_s
 1554      E7800000 
 1555              	.LVL146:
 327:src/kernel/slabAllocator.cpp ****             removePartialSlab(slab->owner, slab);
 1556              		.loc 1 327 9
 1557 08e4 E30C05FA 		beqz	a0,.L82
 328:src/kernel/slabAllocator.cpp ****     }
 1558              		.loc 1 328 13 is_stmt 1
 328:src/kernel/slabAllocator.cpp ****     }
 1559              		.loc 1 328 30 is_stmt 0
 1560 08e8 93850400 		mv	a1,s1
 1561 08ec 03B50401 		ld	a0,16(s1)
 1562 08f0 97000000 		call	_Z17removePartialSlabP12kmem_cache_sP6slab_s
 1562      E7800000 
 1563              	.LVL147:
 1564 08f8 6FF05FFA 		j	.L82
 1565              	.L93:
 332:src/kernel/slabAllocator.cpp ****         slab->numOfAllocatedObjects--;
 1566              		.loc 1 332 9 is_stmt 1
 332:src/kernel/slabAllocator.cpp ****         slab->numOfAllocatedObjects--;
 1567              		.loc 1 332 26 is_stmt 0
 1568 08fc 93850400 		mv	a1,s1
 1569 0900 03B50401 		ld	a0,16(s1)
 1570 0904 97000000 		call	_Z17removePartialSlabP12kmem_cache_sP6slab_s
 1570      E7800000 
 1571              	.LVL148:
 333:src/kernel/slabAllocator.cpp ****     }
 1572              		.loc 1 333 9 is_stmt 1
 333:src/kernel/slabAllocator.cpp ****     }
 1573              		.loc 1 333 15 is_stmt 0
 1574 090c 83B70402 		ld	a5,32(s1)
 333:src/kernel/slabAllocator.cpp ****     }
 1575              		.loc 1 333 36
 1576 0910 9387F7FF 		addi	a5,a5,-1
 1577 0914 23B0F402 		sd	a5,32(s1)
 1578 0918 6FF05FF8 		j	.L82
 1579              	.LVL149:
 1580              	.L89:
 1581              		.cfi_def_cfa_register 2
 1582              		.cfi_restore 1
 1583              		.cfi_restore 8
 1584              		.cfi_restore 9
 1585              		.cfi_restore 18
GAS LISTING /tmp/ccXFfN6y.s 			page 36


 1586              		.cfi_restore 19
 1587              		.cfi_restore 20
 1588 091c 67800000 		ret
 1589              		.cfi_endproc
 1590              	.LFE25:
 1592              		.align	2
 1593              		.globl	_Z9kmem_initPvi
 1595              	_Z9kmem_initPvi:
 1596              	.LFB29:
 338:src/kernel/slabAllocator.cpp **** 
 339:src/kernel/slabAllocator.cpp **** void printSlabAllocatorInfo()
 340:src/kernel/slabAllocator.cpp **** {
 341:src/kernel/slabAllocator.cpp ****     KConsole::trapPrintString("\n\n\n\n\n\n\n\n\n");
 342:src/kernel/slabAllocator.cpp ****     KConsole::trapPrintString("Slab allocator info-------------------------------------------------
 343:src/kernel/slabAllocator.cpp ****     KConsole::trapPrintStringInt("Slab allocator address ", (size_t)slabAllocator, 16);
 344:src/kernel/slabAllocator.cpp ****     KConsole::trapPrintString("Cache of caches info\n");
 345:src/kernel/slabAllocator.cpp ****     kmem_cache_info(&slabAllocator->cacheOfCaches);
 346:src/kernel/slabAllocator.cpp ****     KConsole::trapPrintString("Caches for buffers\n");
 347:src/kernel/slabAllocator.cpp ****     for(size_t i = 0;i < CACHE_BUFFER_SIZE;i++)
 348:src/kernel/slabAllocator.cpp ****     {
 349:src/kernel/slabAllocator.cpp ****         if(slabAllocator->cachesBuffers[i] != nullptr)
 350:src/kernel/slabAllocator.cpp ****         {
 351:src/kernel/slabAllocator.cpp ****             kmem_cache_info(slabAllocator->cachesBuffers[i]);
 352:src/kernel/slabAllocator.cpp ****         }
 353:src/kernel/slabAllocator.cpp ****     }
 354:src/kernel/slabAllocator.cpp ****     KConsole::trapPrintString("\n\n\n\n\n\n\n\n\n");
 355:src/kernel/slabAllocator.cpp ****     printBuddyInfo();
 356:src/kernel/slabAllocator.cpp **** }
 357:src/kernel/slabAllocator.cpp **** 
 358:src/kernel/slabAllocator.cpp **** void shrink_caches_on_slab(slab_t* slab)
 359:src/kernel/slabAllocator.cpp **** {
 360:src/kernel/slabAllocator.cpp ****     for(size_t i = 0; i < slab->numOfObjects;i++)
 361:src/kernel/slabAllocator.cpp ****     {
 362:src/kernel/slabAllocator.cpp ****         if(checkSetIndex(slab, i))
 363:src/kernel/slabAllocator.cpp ****         {
 364:src/kernel/slabAllocator.cpp ****             void* addr = (void*)((size_t)slab + sizeof(slab) + i*slab->owner->obj_size);
 365:src/kernel/slabAllocator.cpp ****             kmem_cache_shrink((kmem_cache_t*)addr);
 366:src/kernel/slabAllocator.cpp ****         }
 367:src/kernel/slabAllocator.cpp ****     }
 368:src/kernel/slabAllocator.cpp **** }
 369:src/kernel/slabAllocator.cpp **** 
 370:src/kernel/slabAllocator.cpp **** void shrink_all_caches()
 371:src/kernel/slabAllocator.cpp **** {
 372:src/kernel/slabAllocator.cpp ****     kmem_cache_t* cacheOfCaches = &slabAllocator->cacheOfCaches;
 373:src/kernel/slabAllocator.cpp **** 
 374:src/kernel/slabAllocator.cpp ****     slab_t* slab = cacheOfCaches->slabs_full;
 375:src/kernel/slabAllocator.cpp ****     while(slab != nullptr)
 376:src/kernel/slabAllocator.cpp ****     {
 377:src/kernel/slabAllocator.cpp ****         shrink_caches_on_slab(slab);
 378:src/kernel/slabAllocator.cpp ****         slab = slab->next;
 379:src/kernel/slabAllocator.cpp ****     }
 380:src/kernel/slabAllocator.cpp **** 
 381:src/kernel/slabAllocator.cpp ****     slab = cacheOfCaches->slabs_partial;
 382:src/kernel/slabAllocator.cpp ****     while(slab != nullptr)
 383:src/kernel/slabAllocator.cpp ****     {
 384:src/kernel/slabAllocator.cpp ****         shrink_caches_on_slab(slab);
 385:src/kernel/slabAllocator.cpp ****         slab = slab->next;
GAS LISTING /tmp/ccXFfN6y.s 			page 37


 386:src/kernel/slabAllocator.cpp ****     }
 387:src/kernel/slabAllocator.cpp **** 
 388:src/kernel/slabAllocator.cpp ****     kmem_cache_shrink(cacheOfCaches);
 389:src/kernel/slabAllocator.cpp **** }
 390:src/kernel/slabAllocator.cpp **** 
 391:src/kernel/slabAllocator.cpp **** //slab allocator public interface------------------------------------------------------------------
 392:src/kernel/slabAllocator.cpp **** void kmem_init(void *space, int block_num)
 393:src/kernel/slabAllocator.cpp **** {
 1597              		.loc 1 393 1 is_stmt 1
 1598              		.cfi_startproc
 1599              	.LVL150:
 1600 0920 130101FF 		addi	sp,sp,-16
 1601              		.cfi_def_cfa_offset 16
 1602 0924 23341100 		sd	ra,8(sp)
 1603 0928 23308100 		sd	s0,0(sp)
 1604              		.cfi_offset 1, -8
 1605              		.cfi_offset 8, -16
 1606 092c 13040101 		addi	s0,sp,16
 1607              		.cfi_def_cfa 8, 0
 394:src/kernel/slabAllocator.cpp ****     buddyAllocator* buddy = buddy_init(space, block_num);
 1608              		.loc 1 394 5
 1609              		.loc 1 394 39 is_stmt 0
 1610 0930 97000000 		call	_Z10buddy_initPvm@plt
 1610      E7800000 
 1611              	.LVL151:
 395:src/kernel/slabAllocator.cpp ****     slabAllocator = slab_allocator_init(buddy);
 1612              		.loc 1 395 5 is_stmt 1
 1613              		.loc 1 395 40 is_stmt 0
 1614 0938 97000000 		call	_Z19slab_allocator_initP14buddyAllocator
 1614      E7800000 
 1615              	.LVL152:
 1616              		.loc 1 395 19
 1617 0940 97070000 		sd	a0,.LANCHOR0,a5
 1617      23B0A700 
 396:src/kernel/slabAllocator.cpp **** }
 1618              		.loc 1 396 1
 1619 0948 83308100 		ld	ra,8(sp)
 1620              		.cfi_restore 1
 1621 094c 03340100 		ld	s0,0(sp)
 1622              		.cfi_restore 8
 1623              		.cfi_def_cfa 2, 16
 1624 0950 13010101 		addi	sp,sp,16
 1625              		.cfi_def_cfa_offset 0
 1626 0954 67800000 		jr	ra
 1627              		.cfi_endproc
 1628              	.LFE29:
 1630              		.align	2
 1631              		.globl	_Z16kmem_cache_allocP12kmem_cache_s
 1633              	_Z16kmem_cache_allocP12kmem_cache_s:
 1634              	.LFB31:
 397:src/kernel/slabAllocator.cpp **** 
 398:src/kernel/slabAllocator.cpp **** kmem_cache_t *kmem_cache_create(const char *name, size_t size,
 399:src/kernel/slabAllocator.cpp ****                                 void (*ctor)(void *),
 400:src/kernel/slabAllocator.cpp ****                                 void (*dtor)(void *))
 401:src/kernel/slabAllocator.cpp **** {
 402:src/kernel/slabAllocator.cpp ****     kmem_cache_t* newCache = (kmem_cache_t*)kmem_cache_alloc(&slabAllocator->cacheOfCaches);
 403:src/kernel/slabAllocator.cpp ****     if(newCache == nullptr)
GAS LISTING /tmp/ccXFfN6y.s 			page 38


 404:src/kernel/slabAllocator.cpp ****         return nullptr;
 405:src/kernel/slabAllocator.cpp ****     init_cache(newCache, name, getOptimalSlabSize(size), size, ctor,dtor);
 406:src/kernel/slabAllocator.cpp ****     return newCache;
 407:src/kernel/slabAllocator.cpp **** }
 408:src/kernel/slabAllocator.cpp **** 
 409:src/kernel/slabAllocator.cpp **** void *kmem_cache_alloc(kmem_cache_t *cachep)
 410:src/kernel/slabAllocator.cpp **** {
 1635              		.loc 1 410 1 is_stmt 1
 1636              		.cfi_startproc
 1637              	.LVL153:
 1638 0958 130101FE 		addi	sp,sp,-32
 1639              		.cfi_def_cfa_offset 32
 1640 095c 233C1100 		sd	ra,24(sp)
 1641 0960 23388100 		sd	s0,16(sp)
 1642 0964 23349100 		sd	s1,8(sp)
 1643 0968 23302101 		sd	s2,0(sp)
 1644              		.cfi_offset 1, -8
 1645              		.cfi_offset 8, -16
 1646              		.cfi_offset 9, -24
 1647              		.cfi_offset 18, -32
 1648 096c 13040102 		addi	s0,sp,32
 1649              		.cfi_def_cfa 8, 0
 1650 0970 93040500 		mv	s1,a0
 411:src/kernel/slabAllocator.cpp ****     if(cachep == nullptr)
 1651              		.loc 1 411 5
 1652 0974 630A0510 		beqz	a0,.L104
 412:src/kernel/slabAllocator.cpp ****         return nullptr;
 413:src/kernel/slabAllocator.cpp **** 
 414:src/kernel/slabAllocator.cpp ****     if(cachep->slabs_partial != nullptr)
 1653              		.loc 1 414 5
 1654              	.LBB14:
 1655              		.loc 1 414 16 is_stmt 0
 1656 0978 03350505 		ld	a0,80(a0)
 1657              	.LVL154:
 1658              		.loc 1 414 5
 1659 097c 631A0504 		bnez	a0,.L106
 1660              	.LBE14:
 415:src/kernel/slabAllocator.cpp ****     {
 416:src/kernel/slabAllocator.cpp ****         void* allocatedAddr = allocateObject(cachep->slabs_partial);
 417:src/kernel/slabAllocator.cpp ****         if(full(cachep->slabs_partial))
 418:src/kernel/slabAllocator.cpp ****             putPartialToFull(cachep);
 419:src/kernel/slabAllocator.cpp ****         return allocatedAddr;
 420:src/kernel/slabAllocator.cpp ****     }
 421:src/kernel/slabAllocator.cpp ****     else if(cachep->slabs_empty != nullptr)
 1661              		.loc 1 421 10 is_stmt 1
 1662              	.LBB21:
 1663              	.LBB15:
 1664              		.loc 1 421 21 is_stmt 0
 1665 0980 03B50404 		ld	a0,64(s1)
 1666              		.loc 1 421 10
 1667 0984 630A0508 		beqz	a0,.L100
 1668              	.LBB16:
 422:src/kernel/slabAllocator.cpp ****     {
 423:src/kernel/slabAllocator.cpp ****         void* allocatedAddr = allocateObject(cachep->slabs_empty);
 1669              		.loc 1 423 9 is_stmt 1
 1670              		.loc 1 423 45 is_stmt 0
 1671 0988 97000000 		call	_Z14allocateObjectP6slab_s
GAS LISTING /tmp/ccXFfN6y.s 			page 39


 1671      E7800000 
 1672              	.LVL155:
 1673 0990 13090500 		mv	s2,a0
 1674              	.LVL156:
 424:src/kernel/slabAllocator.cpp ****         if(!empty(cachep->slabs_empty))
 1675              		.loc 1 424 9 is_stmt 1
 1676              		.loc 1 424 18 is_stmt 0
 1677 0994 03B50404 		ld	a0,64(s1)
 1678              	.LVL157:
 1679 0998 97000000 		call	_Z5emptyP6slab_s
 1679      E7800000 
 1680              	.LVL158:
 1681              		.loc 1 424 9
 1682 09a0 63160504 		bnez	a0,.L96
 425:src/kernel/slabAllocator.cpp ****         {
 426:src/kernel/slabAllocator.cpp ****             putEmptyToPartial(cachep);
 1683              		.loc 1 426 13 is_stmt 1
 1684              		.loc 1 426 30 is_stmt 0
 1685 09a4 13850400 		mv	a0,s1
 1686 09a8 97000000 		call	_Z17putEmptyToPartialP12kmem_cache_s
 1686      E7800000 
 1687              	.LVL159:
 427:src/kernel/slabAllocator.cpp ****             if(full(cachep->slabs_partial))
 1688              		.loc 1 427 13 is_stmt 1
 1689              		.loc 1 427 20 is_stmt 0
 1690 09b0 03B50405 		ld	a0,80(s1)
 1691 09b4 97000000 		call	_Z4fullP6slab_s
 1691      E7800000 
 1692              	.LVL160:
 1693              		.loc 1 427 13
 1694 09bc 63080502 		beqz	a0,.L96
 428:src/kernel/slabAllocator.cpp ****                 putPartialToFull(cachep);
 1695              		.loc 1 428 17 is_stmt 1
 1696              		.loc 1 428 33 is_stmt 0
 1697 09c0 13850400 		mv	a0,s1
 1698 09c4 97000000 		call	_Z16putPartialToFullP12kmem_cache_s
 1698      E7800000 
 1699              	.LVL161:
 429:src/kernel/slabAllocator.cpp ****         }
 430:src/kernel/slabAllocator.cpp ****         return allocatedAddr;
 1700              		.loc 1 430 9 is_stmt 1
 1701              		.loc 1 430 16 is_stmt 0
 1702 09cc 6F000002 		j	.L96
 1703              	.LVL162:
 1704              	.L106:
 1705              	.LBE16:
 1706              	.LBE15:
 1707              	.LBB18:
 416:src/kernel/slabAllocator.cpp ****         if(full(cachep->slabs_partial))
 1708              		.loc 1 416 9 is_stmt 1
 416:src/kernel/slabAllocator.cpp ****         if(full(cachep->slabs_partial))
 1709              		.loc 1 416 45 is_stmt 0
 1710 09d0 97000000 		call	_Z14allocateObjectP6slab_s
 1710      E7800000 
 1711              	.LVL163:
 1712 09d8 13090500 		mv	s2,a0
 1713              	.LVL164:
GAS LISTING /tmp/ccXFfN6y.s 			page 40


 417:src/kernel/slabAllocator.cpp ****             putPartialToFull(cachep);
 1714              		.loc 1 417 9 is_stmt 1
 417:src/kernel/slabAllocator.cpp ****             putPartialToFull(cachep);
 1715              		.loc 1 417 16 is_stmt 0
 1716 09dc 03B50405 		ld	a0,80(s1)
 1717              	.LVL165:
 1718 09e0 97000000 		call	_Z4fullP6slab_s
 1718      E7800000 
 1719              	.LVL166:
 417:src/kernel/slabAllocator.cpp ****             putPartialToFull(cachep);
 1720              		.loc 1 417 9
 1721 09e8 63100502 		bnez	a0,.L107
 1722              	.LVL167:
 1723              	.L96:
 1724              	.LBE18:
 1725              	.LBE21:
 431:src/kernel/slabAllocator.cpp ****     }
 432:src/kernel/slabAllocator.cpp ****     else
 433:src/kernel/slabAllocator.cpp ****     {
 434:src/kernel/slabAllocator.cpp ****         allocateSlab(cachep);
 435:src/kernel/slabAllocator.cpp ****         if(cachep->slabs_empty == nullptr)
 436:src/kernel/slabAllocator.cpp ****         {
 437:src/kernel/slabAllocator.cpp ****             cachep->errors|=EXPAND_ERROR;
 438:src/kernel/slabAllocator.cpp ****             return nullptr;
 439:src/kernel/slabAllocator.cpp ****         }
 440:src/kernel/slabAllocator.cpp ****         void* allocatedAddr = allocateObject(cachep->slabs_empty);
 441:src/kernel/slabAllocator.cpp ****         if(!empty(cachep->slabs_empty))
 442:src/kernel/slabAllocator.cpp ****         {
 443:src/kernel/slabAllocator.cpp ****             putEmptyToPartial(cachep);
 444:src/kernel/slabAllocator.cpp ****             if(full(cachep->slabs_partial))
 445:src/kernel/slabAllocator.cpp ****                 putPartialToFull(cachep);
 446:src/kernel/slabAllocator.cpp ****         }
 447:src/kernel/slabAllocator.cpp ****         return allocatedAddr;
 448:src/kernel/slabAllocator.cpp ****     }
 449:src/kernel/slabAllocator.cpp ****     return nullptr;
 450:src/kernel/slabAllocator.cpp **** }
 1726              		.loc 1 450 1
 1727 09ec 13050900 		mv	a0,s2
 1728 09f0 83308101 		ld	ra,24(sp)
 1729              		.cfi_remember_state
 1730              		.cfi_restore 1
 1731 09f4 03340101 		ld	s0,16(sp)
 1732              		.cfi_restore 8
 1733              		.cfi_def_cfa 2, 32
 1734 09f8 83348100 		ld	s1,8(sp)
 1735              		.cfi_restore 9
 1736              	.LVL168:
 1737 09fc 03390100 		ld	s2,0(sp)
 1738              		.cfi_restore 18
 1739 0a00 13010102 		addi	sp,sp,32
 1740              		.cfi_def_cfa_offset 0
 1741 0a04 67800000 		jr	ra
 1742              	.LVL169:
 1743              	.L107:
 1744              		.cfi_restore_state
 1745              	.LBB22:
 1746              	.LBB19:
GAS LISTING /tmp/ccXFfN6y.s 			page 41


 418:src/kernel/slabAllocator.cpp ****         return allocatedAddr;
 1747              		.loc 1 418 13 is_stmt 1
 418:src/kernel/slabAllocator.cpp ****         return allocatedAddr;
 1748              		.loc 1 418 29 is_stmt 0
 1749 0a08 13850400 		mv	a0,s1
 1750 0a0c 97000000 		call	_Z16putPartialToFullP12kmem_cache_s
 1750      E7800000 
 1751              	.LVL170:
 419:src/kernel/slabAllocator.cpp ****     }
 1752              		.loc 1 419 9 is_stmt 1
 419:src/kernel/slabAllocator.cpp ****     }
 1753              		.loc 1 419 16 is_stmt 0
 1754 0a14 6FF09FFD 		j	.L96
 1755              	.LVL171:
 1756              	.L100:
 1757              	.LBE19:
 1758              	.LBB20:
 1759              	.LBB17:
 434:src/kernel/slabAllocator.cpp ****         if(cachep->slabs_empty == nullptr)
 1760              		.loc 1 434 9 is_stmt 1
 434:src/kernel/slabAllocator.cpp ****         if(cachep->slabs_empty == nullptr)
 1761              		.loc 1 434 21 is_stmt 0
 1762 0a18 13850400 		mv	a0,s1
 1763 0a1c 97000000 		call	_Z12allocateSlabP12kmem_cache_s
 1763      E7800000 
 1764              	.LVL172:
 435:src/kernel/slabAllocator.cpp ****         {
 1765              		.loc 1 435 9 is_stmt 1
 435:src/kernel/slabAllocator.cpp ****         {
 1766              		.loc 1 435 20 is_stmt 0
 1767 0a24 03B90404 		ld	s2,64(s1)
 435:src/kernel/slabAllocator.cpp ****         {
 1768              		.loc 1 435 9
 1769 0a28 63080904 		beqz	s2,.L108
 440:src/kernel/slabAllocator.cpp ****         if(!empty(cachep->slabs_empty))
 1770              		.loc 1 440 9 is_stmt 1
 440:src/kernel/slabAllocator.cpp ****         if(!empty(cachep->slabs_empty))
 1771              		.loc 1 440 45 is_stmt 0
 1772 0a2c 13050900 		mv	a0,s2
 1773 0a30 97000000 		call	_Z14allocateObjectP6slab_s
 1773      E7800000 
 1774              	.LVL173:
 1775 0a38 13090500 		mv	s2,a0
 1776              	.LVL174:
 441:src/kernel/slabAllocator.cpp ****         {
 1777              		.loc 1 441 9 is_stmt 1
 441:src/kernel/slabAllocator.cpp ****         {
 1778              		.loc 1 441 18 is_stmt 0
 1779 0a3c 03B50404 		ld	a0,64(s1)
 1780              	.LVL175:
 1781 0a40 97000000 		call	_Z5emptyP6slab_s
 1781      E7800000 
 1782              	.LVL176:
 441:src/kernel/slabAllocator.cpp ****         {
 1783              		.loc 1 441 9
 1784 0a48 E31205FA 		bnez	a0,.L96
 443:src/kernel/slabAllocator.cpp ****             if(full(cachep->slabs_partial))
GAS LISTING /tmp/ccXFfN6y.s 			page 42


 1785              		.loc 1 443 13 is_stmt 1
 443:src/kernel/slabAllocator.cpp ****             if(full(cachep->slabs_partial))
 1786              		.loc 1 443 30 is_stmt 0
 1787 0a4c 13850400 		mv	a0,s1
 1788 0a50 97000000 		call	_Z17putEmptyToPartialP12kmem_cache_s
 1788      E7800000 
 1789              	.LVL177:
 444:src/kernel/slabAllocator.cpp ****                 putPartialToFull(cachep);
 1790              		.loc 1 444 13 is_stmt 1
 444:src/kernel/slabAllocator.cpp ****                 putPartialToFull(cachep);
 1791              		.loc 1 444 20 is_stmt 0
 1792 0a58 03B50405 		ld	a0,80(s1)
 1793 0a5c 97000000 		call	_Z4fullP6slab_s
 1793      E7800000 
 1794              	.LVL178:
 444:src/kernel/slabAllocator.cpp ****                 putPartialToFull(cachep);
 1795              		.loc 1 444 13
 1796 0a64 E30405F8 		beqz	a0,.L96
 445:src/kernel/slabAllocator.cpp ****         }
 1797              		.loc 1 445 17 is_stmt 1
 445:src/kernel/slabAllocator.cpp ****         }
 1798              		.loc 1 445 33 is_stmt 0
 1799 0a68 13850400 		mv	a0,s1
 1800 0a6c 97000000 		call	_Z16putPartialToFullP12kmem_cache_s
 1800      E7800000 
 1801              	.LVL179:
 447:src/kernel/slabAllocator.cpp ****     }
 1802              		.loc 1 447 9 is_stmt 1
 447:src/kernel/slabAllocator.cpp ****     }
 1803              		.loc 1 447 16 is_stmt 0
 1804 0a74 6FF09FF7 		j	.L96
 1805              	.LVL180:
 1806              	.L108:
 437:src/kernel/slabAllocator.cpp ****             return nullptr;
 1807              		.loc 1 437 13 is_stmt 1
 437:src/kernel/slabAllocator.cpp ****             return nullptr;
 1808              		.loc 1 437 27 is_stmt 0
 1809 0a78 83A78407 		lw	a5,120(s1)
 1810 0a7c 93E71700 		ori	a5,a5,1
 1811 0a80 23ACF406 		sw	a5,120(s1)
 438:src/kernel/slabAllocator.cpp ****         }
 1812              		.loc 1 438 13 is_stmt 1
 438:src/kernel/slabAllocator.cpp ****         }
 1813              		.loc 1 438 20 is_stmt 0
 1814 0a84 6FF09FF6 		j	.L96
 1815              	.L104:
 1816              	.LBE17:
 1817              	.LBE20:
 1818              	.LBE22:
 412:src/kernel/slabAllocator.cpp **** 
 1819              		.loc 1 412 16
 1820 0a88 13090500 		mv	s2,a0
 1821 0a8c 6FF01FF6 		j	.L96
 1822              		.cfi_endproc
 1823              	.LFE31:
 1825              		.align	2
 1826              		.globl	_Z17kmem_cache_createPKcmPFvPvES3_
GAS LISTING /tmp/ccXFfN6y.s 			page 43


 1828              	_Z17kmem_cache_createPKcmPFvPvES3_:
 1829              	.LFB30:
 401:src/kernel/slabAllocator.cpp ****     kmem_cache_t* newCache = (kmem_cache_t*)kmem_cache_alloc(&slabAllocator->cacheOfCaches);
 1830              		.loc 1 401 1 is_stmt 1
 1831              		.cfi_startproc
 1832              	.LVL181:
 1833 0a90 130101FC 		addi	sp,sp,-64
 1834              		.cfi_def_cfa_offset 64
 1835 0a94 233C1102 		sd	ra,56(sp)
 1836 0a98 23388102 		sd	s0,48(sp)
 1837 0a9c 23349102 		sd	s1,40(sp)
 1838 0aa0 23302103 		sd	s2,32(sp)
 1839 0aa4 233C3101 		sd	s3,24(sp)
 1840 0aa8 23384101 		sd	s4,16(sp)
 1841 0aac 23345101 		sd	s5,8(sp)
 1842              		.cfi_offset 1, -8
 1843              		.cfi_offset 8, -16
 1844              		.cfi_offset 9, -24
 1845              		.cfi_offset 18, -32
 1846              		.cfi_offset 19, -40
 1847              		.cfi_offset 20, -48
 1848              		.cfi_offset 21, -56
 1849 0ab0 13040104 		addi	s0,sp,64
 1850              		.cfi_def_cfa 8, 0
 1851 0ab4 93090500 		mv	s3,a0
 1852 0ab8 13890500 		mv	s2,a1
 1853 0abc 130A0600 		mv	s4,a2
 1854 0ac0 938A0600 		mv	s5,a3
 402:src/kernel/slabAllocator.cpp ****     if(newCache == nullptr)
 1855              		.loc 1 402 5
 402:src/kernel/slabAllocator.cpp ****     if(newCache == nullptr)
 1856              		.loc 1 402 61 is_stmt 0
 1857 0ac4 17050000 		ld	a0,.LANCHOR0
 1857      03350500 
 1858              	.LVL182:
 1859 0acc 13058506 		addi	a0,a0,104
 1860 0ad0 97000000 		call	_Z16kmem_cache_allocP12kmem_cache_s
 1860      E7800000 
 1861              	.LVL183:
 1862 0ad8 93040500 		mv	s1,a0
 1863              	.LVL184:
 403:src/kernel/slabAllocator.cpp ****         return nullptr;
 1864              		.loc 1 403 5 is_stmt 1
 1865 0adc 63080502 		beqz	a0,.L109
 405:src/kernel/slabAllocator.cpp ****     return newCache;
 1866              		.loc 1 405 5
 405:src/kernel/slabAllocator.cpp ****     return newCache;
 1867              		.loc 1 405 15 is_stmt 0
 1868 0ae0 13050900 		mv	a0,s2
 1869 0ae4 97000000 		call	_Z18getOptimalSlabSizem
 1869      E7800000 
 1870              	.LVL185:
 1871 0aec 13060500 		mv	a2,a0
 1872 0af0 93870A00 		mv	a5,s5
 1873 0af4 13070A00 		mv	a4,s4
 1874 0af8 93060900 		mv	a3,s2
 1875 0afc 93850900 		mv	a1,s3
GAS LISTING /tmp/ccXFfN6y.s 			page 44


 1876 0b00 13850400 		mv	a0,s1
 1877 0b04 97000000 		call	_Z10init_cacheP12kmem_cache_sPKcmmPFvPvES5_
 1877      E7800000 
 1878              	.LVL186:
 406:src/kernel/slabAllocator.cpp **** }
 1879              		.loc 1 406 5 is_stmt 1
 1880              	.L109:
 407:src/kernel/slabAllocator.cpp **** 
 1881              		.loc 1 407 1 is_stmt 0
 1882 0b0c 13850400 		mv	a0,s1
 1883 0b10 83308103 		ld	ra,56(sp)
 1884              		.cfi_restore 1
 1885 0b14 03340103 		ld	s0,48(sp)
 1886              		.cfi_restore 8
 1887              		.cfi_def_cfa 2, 64
 1888 0b18 83348102 		ld	s1,40(sp)
 1889              		.cfi_restore 9
 1890              	.LVL187:
 1891 0b1c 03390102 		ld	s2,32(sp)
 1892              		.cfi_restore 18
 1893              	.LVL188:
 1894 0b20 83398101 		ld	s3,24(sp)
 1895              		.cfi_restore 19
 1896              	.LVL189:
 1897 0b24 033A0101 		ld	s4,16(sp)
 1898              		.cfi_restore 20
 1899              	.LVL190:
 1900 0b28 833A8100 		ld	s5,8(sp)
 1901              		.cfi_restore 21
 1902              	.LVL191:
 1903 0b2c 13010104 		addi	sp,sp,64
 1904              		.cfi_def_cfa_offset 0
 1905 0b30 67800000 		jr	ra
 1906              		.cfi_endproc
 1907              	.LFE30:
 1909              		.align	2
 1910              		.globl	_Z15kmem_cache_freeP12kmem_cache_sPv
 1912              	_Z15kmem_cache_freeP12kmem_cache_sPv:
 1913              	.LFB32:
 451:src/kernel/slabAllocator.cpp **** 
 452:src/kernel/slabAllocator.cpp **** void kmem_cache_free(kmem_cache_t *cachep, void *objp)
 453:src/kernel/slabAllocator.cpp **** {
 1914              		.loc 1 453 1 is_stmt 1
 1915              		.cfi_startproc
 1916              	.LVL192:
 454:src/kernel/slabAllocator.cpp ****     if(cachep == nullptr || objp == nullptr)
 1917              		.loc 1 454 5
 1918 0b34 63060504 		beqz	a0,.L115
 453:src/kernel/slabAllocator.cpp ****     if(cachep == nullptr || objp == nullptr)
 1919              		.loc 1 453 1 is_stmt 0 discriminator 1
 1920 0b38 130101FE 		addi	sp,sp,-32
 1921              		.cfi_def_cfa_offset 32
 1922 0b3c 233C1100 		sd	ra,24(sp)
 1923 0b40 23388100 		sd	s0,16(sp)
 1924 0b44 23349100 		sd	s1,8(sp)
 1925              		.cfi_offset 1, -8
 1926              		.cfi_offset 8, -16
GAS LISTING /tmp/ccXFfN6y.s 			page 45


 1927              		.cfi_offset 9, -24
 1928 0b48 13040102 		addi	s0,sp,32
 1929              		.cfi_def_cfa 8, 0
 1930 0b4c 93840500 		mv	s1,a1
 1931              		.loc 1 454 26 discriminator 1
 1932 0b50 638E0500 		beqz	a1,.L112
 455:src/kernel/slabAllocator.cpp ****         return;
 456:src/kernel/slabAllocator.cpp ****     slab_t* slab = findSlab(cachep, objp);
 1933              		.loc 1 456 5 is_stmt 1
 1934              		.loc 1 456 28 is_stmt 0
 1935 0b54 97000000 		call	_Z8findSlabP12kmem_cache_sPKv
 1935      E7800000 
 1936              	.LVL193:
 457:src/kernel/slabAllocator.cpp ****     if(slab == nullptr) return;
 1937              		.loc 1 457 5 is_stmt 1
 1938 0b5c 63080500 		beqz	a0,.L112
 458:src/kernel/slabAllocator.cpp **** 
 459:src/kernel/slabAllocator.cpp ****     free_slab_object(slab, objp);
 1939              		.loc 1 459 5
 1940              		.loc 1 459 21 is_stmt 0
 1941 0b60 93850400 		mv	a1,s1
 1942 0b64 97000000 		call	_Z16free_slab_objectP6slab_sPKv
 1942      E7800000 
 1943              	.LVL194:
 1944              	.L112:
 460:src/kernel/slabAllocator.cpp **** }
 1945              		.loc 1 460 1
 1946 0b6c 83308101 		ld	ra,24(sp)
 1947              		.cfi_restore 1
 1948 0b70 03340101 		ld	s0,16(sp)
 1949              		.cfi_restore 8
 1950              		.cfi_def_cfa 2, 32
 1951 0b74 83348100 		ld	s1,8(sp)
 1952              		.cfi_restore 9
 1953              	.LVL195:
 1954 0b78 13010102 		addi	sp,sp,32
 1955              		.cfi_def_cfa_offset 0
 1956 0b7c 67800000 		jr	ra
 1957              	.LVL196:
 1958              	.L115:
 1959 0b80 67800000 		ret
 1960              		.cfi_endproc
 1961              	.LFE32:
 1963              		.section	.rodata.str1.8
 1964 006b 00000000 		.align	3
 1964      00
 1965              	.LC5:
 1966 0070 0A0A0A0A 		.string	"\n\n\n\n\n"
 1966      0A00
 1967 0076 0000     		.align	3
 1968              	.LC6:
 1969 0078 4B6D656D 		.string	"Kmem Cache Info-------------------------------------\n"
 1969      20436163 
 1969      68652049 
 1969      6E666F2D 
 1969      2D2D2D2D 
 1970 00ae 0000     		.align	3
GAS LISTING /tmp/ccXFfN6y.s 			page 46


 1971              	.LC7:
 1972 00b0 43616368 		.string	"Cache Name "
 1972      65204E61 
 1972      6D652000 
 1973 00bc 00000000 		.align	3
 1974              	.LC8:
 1975 00c0 0A00     		.string	"\n"
 1976 00c2 00000000 		.align	3
 1976      0000
 1977              	.LC9:
 1978 00c8 43616368 		.string	"Cache slab size in blocks "
 1978      6520736C 
 1978      61622073 
 1978      697A6520 
 1978      696E2062 
 1979 00e3 00000000 		.align	3
 1979      00
 1980              	.LC10:
 1981 00e8 43616368 		.string	"Cache obj size in bytes "
 1981      65206F62 
 1981      6A207369 
 1981      7A652069 
 1981      6E206279 
 1982 0101 00000000 		.align	3
 1982      000000
 1983              	.LC11:
 1984 0108 536C6162 		.string	"Slabs info-------------------\n"
 1984      7320696E 
 1984      666F2D2D 
 1984      2D2D2D2D 
 1984      2D2D2D2D 
 1985 0127 00       		.align	3
 1986              	.LC12:
 1987 0128 46756C6C 		.string	"Full slabs\n"
 1987      20736C61 
 1987      62730A00 
 1988 0134 00000000 		.align	3
 1989              	.LC13:
 1990 0138 50617274 		.string	"Partial slabs\n"
 1990      69616C20 
 1990      736C6162 
 1990      730A00
 1991 0147 00       		.align	3
 1992              	.LC14:
 1993 0148 456D7074 		.string	"Empty slabs\n"
 1993      7920736C 
 1993      6162730A 
 1993      00
 1994              		.text
 1995              		.align	2
 1996              		.globl	_Z15kmem_cache_infoP12kmem_cache_s
 1998              	_Z15kmem_cache_infoP12kmem_cache_s:
 1999              	.LFB33:
 461:src/kernel/slabAllocator.cpp **** 
 462:src/kernel/slabAllocator.cpp **** //TODO what needs to be printed
 463:src/kernel/slabAllocator.cpp **** void kmem_cache_info(kmem_cache_t *cachep)
 464:src/kernel/slabAllocator.cpp **** {
GAS LISTING /tmp/ccXFfN6y.s 			page 47


 2000              		.loc 1 464 1 is_stmt 1
 2001              		.cfi_startproc
 2002              	.LVL197:
 465:src/kernel/slabAllocator.cpp ****     if(cachep == nullptr)
 2003              		.loc 1 465 5
 2004 0b84 630C0514 		beqz	a0,.L127
 464:src/kernel/slabAllocator.cpp ****     if(cachep == nullptr)
 2005              		.loc 1 464 1 is_stmt 0
 2006 0b88 130101FE 		addi	sp,sp,-32
 2007              		.cfi_def_cfa_offset 32
 2008 0b8c 233C1100 		sd	ra,24(sp)
 2009 0b90 23388100 		sd	s0,16(sp)
 2010 0b94 23349100 		sd	s1,8(sp)
 2011 0b98 23302101 		sd	s2,0(sp)
 2012              		.cfi_offset 1, -8
 2013              		.cfi_offset 8, -16
 2014              		.cfi_offset 9, -24
 2015              		.cfi_offset 18, -32
 2016 0b9c 13040102 		addi	s0,sp,32
 2017              		.cfi_def_cfa 8, 0
 2018 0ba0 13090500 		mv	s2,a0
 466:src/kernel/slabAllocator.cpp ****         return;
 467:src/kernel/slabAllocator.cpp ****     KConsole::trapPrintString("\n\n\n\n\n");
 2019              		.loc 1 467 5 is_stmt 1
 2020              		.loc 1 467 30 is_stmt 0
 2021 0ba4 17050000 		lla	a0,.LC5
 2021      13050500 
 2022              	.LVL198:
 2023 0bac 97000000 		call	_ZN8KConsole15trapPrintStringEPKc@plt
 2023      E7800000 
 2024              	.LVL199:
 468:src/kernel/slabAllocator.cpp ****     KConsole::trapPrintString("Kmem Cache Info-------------------------------------\n");
 2025              		.loc 1 468 5 is_stmt 1
 2026              		.loc 1 468 30 is_stmt 0
 2027 0bb4 17050000 		lla	a0,.LC6
 2027      13050500 
 2028 0bbc 97000000 		call	_ZN8KConsole15trapPrintStringEPKc@plt
 2028      E7800000 
 2029              	.LVL200:
 469:src/kernel/slabAllocator.cpp ****     KConsole::trapPrintString("Cache Name ");
 2030              		.loc 1 469 5 is_stmt 1
 2031              		.loc 1 469 30 is_stmt 0
 2032 0bc4 17050000 		lla	a0,.LC7
 2032      13050500 
 2033 0bcc 97000000 		call	_ZN8KConsole15trapPrintStringEPKc@plt
 2033      E7800000 
 2034              	.LVL201:
 470:src/kernel/slabAllocator.cpp ****     KConsole::trapPrintString(cachep->cacheName); KConsole::trapPrintString("\n");
 2035              		.loc 1 470 5 is_stmt 1
 2036              		.loc 1 470 30 is_stmt 0
 2037 0bd4 13050900 		mv	a0,s2
 2038 0bd8 97000000 		call	_ZN8KConsole15trapPrintStringEPKc@plt
 2038      E7800000 
 2039              	.LVL202:
 2040              		.loc 1 470 51 is_stmt 1
 2041              		.loc 1 470 76 is_stmt 0
 2042 0be0 17050000 		lla	a0,.LC8
GAS LISTING /tmp/ccXFfN6y.s 			page 48


 2042      13050500 
 2043 0be8 97000000 		call	_ZN8KConsole15trapPrintStringEPKc@plt
 2043      E7800000 
 2044              	.LVL203:
 471:src/kernel/slabAllocator.cpp ****     KConsole::trapPrintStringInt("Cache slab size in blocks ", cachep->slab_size);
 2045              		.loc 1 471 5 is_stmt 1
 2046              		.loc 1 471 33 is_stmt 0
 2047 0bf0 1306A000 		li	a2,10
 2048 0bf4 83358905 		ld	a1,88(s2)
 2049 0bf8 17050000 		lla	a0,.LC9
 2049      13050500 
 2050 0c00 97000000 		call	_ZN8KConsole18trapPrintStringIntEPKcmi@plt
 2050      E7800000 
 2051              	.LVL204:
 472:src/kernel/slabAllocator.cpp ****     KConsole::trapPrintStringInt("Cache obj size in bytes ", cachep->obj_size);
 2052              		.loc 1 472 5 is_stmt 1
 2053              		.loc 1 472 33 is_stmt 0
 2054 0c08 1306A000 		li	a2,10
 2055 0c0c 83350906 		ld	a1,96(s2)
 2056 0c10 17050000 		lla	a0,.LC10
 2056      13050500 
 2057 0c18 97000000 		call	_ZN8KConsole18trapPrintStringIntEPKcmi@plt
 2057      E7800000 
 2058              	.LVL205:
 473:src/kernel/slabAllocator.cpp ****     
 474:src/kernel/slabAllocator.cpp ****     KConsole::trapPrintString("Slabs info-------------------\n");
 2059              		.loc 1 474 5 is_stmt 1
 2060              		.loc 1 474 30 is_stmt 0
 2061 0c20 17050000 		lla	a0,.LC11
 2061      13050500 
 2062 0c28 97000000 		call	_ZN8KConsole15trapPrintStringEPKc@plt
 2062      E7800000 
 2063              	.LVL206:
 475:src/kernel/slabAllocator.cpp **** 
 476:src/kernel/slabAllocator.cpp ****     KConsole::trapPrintString("Full slabs\n");
 2064              		.loc 1 476 5 is_stmt 1
 2065              		.loc 1 476 30 is_stmt 0
 2066 0c30 17050000 		lla	a0,.LC12
 2066      13050500 
 2067 0c38 97000000 		call	_ZN8KConsole15trapPrintStringEPKc@plt
 2067      E7800000 
 2068              	.LVL207:
 477:src/kernel/slabAllocator.cpp ****     slab_t* slab = cachep->slabs_full;
 2069              		.loc 1 477 5 is_stmt 1
 2070              		.loc 1 477 13 is_stmt 0
 2071 0c40 83348904 		ld	s1,72(s2)
 2072              	.LVL208:
 2073              	.L121:
 478:src/kernel/slabAllocator.cpp ****     while(slab != nullptr)
 2074              		.loc 1 478 5 is_stmt 1
 2075              		.loc 1 478 16
 2076 0c44 638C0400 		beqz	s1,.L120
 479:src/kernel/slabAllocator.cpp ****     {
 480:src/kernel/slabAllocator.cpp ****         printSlabInfo(slab);
 2077              		.loc 1 480 9
 2078              		.loc 1 480 22 is_stmt 0
 2079 0c48 13850400 		mv	a0,s1
GAS LISTING /tmp/ccXFfN6y.s 			page 49


 2080 0c4c 97000000 		call	_Z13printSlabInfoP6slab_s
 2080      E7800000 
 2081              	.LVL209:
 481:src/kernel/slabAllocator.cpp ****         slab = slab->next;
 2082              		.loc 1 481 9 is_stmt 1
 2083              		.loc 1 481 14 is_stmt 0
 2084 0c54 83B48400 		ld	s1,8(s1)
 2085              	.LVL210:
 478:src/kernel/slabAllocator.cpp ****     while(slab != nullptr)
 2086              		.loc 1 478 5
 2087 0c58 6FF0DFFE 		j	.L121
 2088              	.L120:
 482:src/kernel/slabAllocator.cpp ****     }
 483:src/kernel/slabAllocator.cpp **** 
 484:src/kernel/slabAllocator.cpp ****     KConsole::trapPrintString("Partial slabs\n");
 2089              		.loc 1 484 5 is_stmt 1
 2090              		.loc 1 484 30 is_stmt 0
 2091 0c5c 17050000 		lla	a0,.LC13
 2091      13050500 
 2092 0c64 97000000 		call	_ZN8KConsole15trapPrintStringEPKc@plt
 2092      E7800000 
 2093              	.LVL211:
 485:src/kernel/slabAllocator.cpp ****     slab = cachep->slabs_partial;
 2094              		.loc 1 485 5 is_stmt 1
 2095              		.loc 1 485 10 is_stmt 0
 2096 0c6c 83340905 		ld	s1,80(s2)
 2097              	.LVL212:
 2098              	.L123:
 486:src/kernel/slabAllocator.cpp ****     while(slab != nullptr)
 2099              		.loc 1 486 5 is_stmt 1
 2100              		.loc 1 486 16
 2101 0c70 638C0400 		beqz	s1,.L122
 487:src/kernel/slabAllocator.cpp ****     {
 488:src/kernel/slabAllocator.cpp ****         printSlabInfo(slab);
 2102              		.loc 1 488 9
 2103              		.loc 1 488 22 is_stmt 0
 2104 0c74 13850400 		mv	a0,s1
 2105 0c78 97000000 		call	_Z13printSlabInfoP6slab_s
 2105      E7800000 
 2106              	.LVL213:
 489:src/kernel/slabAllocator.cpp ****         slab = slab->next;
 2107              		.loc 1 489 9 is_stmt 1
 2108              		.loc 1 489 14 is_stmt 0
 2109 0c80 83B48400 		ld	s1,8(s1)
 2110              	.LVL214:
 486:src/kernel/slabAllocator.cpp ****     while(slab != nullptr)
 2111              		.loc 1 486 5
 2112 0c84 6FF0DFFE 		j	.L123
 2113              	.L122:
 490:src/kernel/slabAllocator.cpp ****     }
 491:src/kernel/slabAllocator.cpp **** 
 492:src/kernel/slabAllocator.cpp ****     KConsole::trapPrintString("Empty slabs\n");
 2114              		.loc 1 492 5 is_stmt 1
 2115              		.loc 1 492 30 is_stmt 0
 2116 0c88 17050000 		lla	a0,.LC14
 2116      13050500 
 2117 0c90 97000000 		call	_ZN8KConsole15trapPrintStringEPKc@plt
GAS LISTING /tmp/ccXFfN6y.s 			page 50


 2117      E7800000 
 2118              	.LVL215:
 493:src/kernel/slabAllocator.cpp ****     slab = cachep->slabs_empty;
 2119              		.loc 1 493 5 is_stmt 1
 2120              		.loc 1 493 10 is_stmt 0
 2121 0c98 83340904 		ld	s1,64(s2)
 2122              	.LVL216:
 2123              	.L125:
 494:src/kernel/slabAllocator.cpp ****     while(slab != nullptr)
 2124              		.loc 1 494 5 is_stmt 1
 2125              		.loc 1 494 16
 2126 0c9c 638C0400 		beqz	s1,.L124
 495:src/kernel/slabAllocator.cpp ****     {
 496:src/kernel/slabAllocator.cpp ****         printSlabInfo(slab);
 2127              		.loc 1 496 9
 2128              		.loc 1 496 22 is_stmt 0
 2129 0ca0 13850400 		mv	a0,s1
 2130 0ca4 97000000 		call	_Z13printSlabInfoP6slab_s
 2130      E7800000 
 2131              	.LVL217:
 497:src/kernel/slabAllocator.cpp ****         slab = slab->next;
 2132              		.loc 1 497 9 is_stmt 1
 2133              		.loc 1 497 14 is_stmt 0
 2134 0cac 83B48400 		ld	s1,8(s1)
 2135              	.LVL218:
 494:src/kernel/slabAllocator.cpp ****     while(slab != nullptr)
 2136              		.loc 1 494 5
 2137 0cb0 6FF0DFFE 		j	.L125
 2138              	.L124:
 498:src/kernel/slabAllocator.cpp ****     }
 499:src/kernel/slabAllocator.cpp **** 
 500:src/kernel/slabAllocator.cpp ****     KConsole::trapPrintString("\n\n\n\n\n");
 2139              		.loc 1 500 5 is_stmt 1
 2140              		.loc 1 500 30 is_stmt 0
 2141 0cb4 17050000 		lla	a0,.LC5
 2141      13050500 
 2142 0cbc 97000000 		call	_ZN8KConsole15trapPrintStringEPKc@plt
 2142      E7800000 
 2143              	.LVL219:
 501:src/kernel/slabAllocator.cpp **** }
 2144              		.loc 1 501 1
 2145 0cc4 83308101 		ld	ra,24(sp)
 2146              		.cfi_restore 1
 2147 0cc8 03340101 		ld	s0,16(sp)
 2148              		.cfi_restore 8
 2149              		.cfi_def_cfa 2, 32
 2150 0ccc 83348100 		ld	s1,8(sp)
 2151              		.cfi_restore 9
 2152              	.LVL220:
 2153 0cd0 03390100 		ld	s2,0(sp)
 2154              		.cfi_restore 18
 2155              	.LVL221:
 2156 0cd4 13010102 		addi	sp,sp,32
 2157              		.cfi_def_cfa_offset 0
 2158 0cd8 67800000 		jr	ra
 2159              	.LVL222:
 2160              	.L127:
GAS LISTING /tmp/ccXFfN6y.s 			page 51


 2161 0cdc 67800000 		ret
 2162              		.cfi_endproc
 2163              	.LFE33:
 2165              		.section	.rodata.str1.8
 2166 0155 000000   		.align	3
 2167              	.LC15:
 2168 0158 0A0A0A0A 		.string	"\n\n\n\n\n\n\n\n\n"
 2168      0A0A0A0A 
 2168      0A00
 2169 0162 00000000 		.align	3
 2169      0000
 2170              	.LC16:
 2171 0168 536C6162 		.string	"Slab allocator info----------------------------------------------------------\n"
 2171      20616C6C 
 2171      6F636174 
 2171      6F722069 
 2171      6E666F2D 
 2172 01b7 00       		.align	3
 2173              	.LC17:
 2174 01b8 536C6162 		.string	"Slab allocator address "
 2174      20616C6C 
 2174      6F636174 
 2174      6F722061 
 2174      64647265 
 2175              		.align	3
 2176              	.LC18:
 2177 01d0 43616368 		.string	"Cache of caches info\n"
 2177      65206F66 
 2177      20636163 
 2177      68657320 
 2177      696E666F 
 2178 01e6 0000     		.align	3
 2179              	.LC19:
 2180 01e8 43616368 		.string	"Caches for buffers\n"
 2180      65732066 
 2180      6F722062 
 2180      75666665 
 2180      72730A00 
 2181              		.text
 2182              		.align	2
 2183              		.globl	_Z22printSlabAllocatorInfov
 2185              	_Z22printSlabAllocatorInfov:
 2186              	.LFB26:
 340:src/kernel/slabAllocator.cpp ****     KConsole::trapPrintString("\n\n\n\n\n\n\n\n\n");
 2187              		.loc 1 340 1 is_stmt 1
 2188              		.cfi_startproc
 2189 0ce0 130101FE 		addi	sp,sp,-32
 2190              		.cfi_def_cfa_offset 32
 2191 0ce4 233C1100 		sd	ra,24(sp)
 2192 0ce8 23388100 		sd	s0,16(sp)
 2193 0cec 23349100 		sd	s1,8(sp)
 2194              		.cfi_offset 1, -8
 2195              		.cfi_offset 8, -16
 2196              		.cfi_offset 9, -24
 2197 0cf0 13040102 		addi	s0,sp,32
 2198              		.cfi_def_cfa 8, 0
 341:src/kernel/slabAllocator.cpp ****     KConsole::trapPrintString("Slab allocator info-------------------------------------------------
GAS LISTING /tmp/ccXFfN6y.s 			page 52


 2199              		.loc 1 341 5
 341:src/kernel/slabAllocator.cpp ****     KConsole::trapPrintString("Slab allocator info-------------------------------------------------
 2200              		.loc 1 341 30 is_stmt 0
 2201 0cf4 17050000 		lla	a0,.LC15
 2201      13050500 
 2202 0cfc 97000000 		call	_ZN8KConsole15trapPrintStringEPKc@plt
 2202      E7800000 
 2203              	.LVL223:
 342:src/kernel/slabAllocator.cpp ****     KConsole::trapPrintStringInt("Slab allocator address ", (size_t)slabAllocator, 16);
 2204              		.loc 1 342 5 is_stmt 1
 342:src/kernel/slabAllocator.cpp ****     KConsole::trapPrintStringInt("Slab allocator address ", (size_t)slabAllocator, 16);
 2205              		.loc 1 342 30 is_stmt 0
 2206 0d04 17050000 		lla	a0,.LC16
 2206      13050500 
 2207 0d0c 97000000 		call	_ZN8KConsole15trapPrintStringEPKc@plt
 2207      E7800000 
 2208              	.LVL224:
 343:src/kernel/slabAllocator.cpp ****     KConsole::trapPrintString("Cache of caches info\n");
 2209              		.loc 1 343 5 is_stmt 1
 343:src/kernel/slabAllocator.cpp ****     KConsole::trapPrintString("Cache of caches info\n");
 2210              		.loc 1 343 33 is_stmt 0
 2211 0d14 97040000 		lla	s1,.LANCHOR0
 2211      93840400 
 2212 0d1c 13060001 		li	a2,16
 2213 0d20 83B50400 		ld	a1,0(s1)
 2214 0d24 17050000 		lla	a0,.LC17
 2214      13050500 
 2215 0d2c 97000000 		call	_ZN8KConsole18trapPrintStringIntEPKcmi@plt
 2215      E7800000 
 2216              	.LVL225:
 344:src/kernel/slabAllocator.cpp ****     kmem_cache_info(&slabAllocator->cacheOfCaches);
 2217              		.loc 1 344 5 is_stmt 1
 344:src/kernel/slabAllocator.cpp ****     kmem_cache_info(&slabAllocator->cacheOfCaches);
 2218              		.loc 1 344 30 is_stmt 0
 2219 0d34 17050000 		lla	a0,.LC18
 2219      13050500 
 2220 0d3c 97000000 		call	_ZN8KConsole15trapPrintStringEPKc@plt
 2220      E7800000 
 2221              	.LVL226:
 345:src/kernel/slabAllocator.cpp ****     KConsole::trapPrintString("Caches for buffers\n");
 2222              		.loc 1 345 5 is_stmt 1
 345:src/kernel/slabAllocator.cpp ****     KConsole::trapPrintString("Caches for buffers\n");
 2223              		.loc 1 345 37 is_stmt 0
 2224 0d44 03B50400 		ld	a0,0(s1)
 345:src/kernel/slabAllocator.cpp ****     KConsole::trapPrintString("Caches for buffers\n");
 2225              		.loc 1 345 20
 2226 0d48 13058506 		addi	a0,a0,104
 2227 0d4c 97000000 		call	_Z15kmem_cache_infoP12kmem_cache_s
 2227      E7800000 
 2228              	.LVL227:
 346:src/kernel/slabAllocator.cpp ****     for(size_t i = 0;i < CACHE_BUFFER_SIZE;i++)
 2229              		.loc 1 346 5 is_stmt 1
 346:src/kernel/slabAllocator.cpp ****     for(size_t i = 0;i < CACHE_BUFFER_SIZE;i++)
 2230              		.loc 1 346 30 is_stmt 0
 2231 0d54 17050000 		lla	a0,.LC19
 2231      13050500 
 2232 0d5c 97000000 		call	_ZN8KConsole15trapPrintStringEPKc@plt
GAS LISTING /tmp/ccXFfN6y.s 			page 53


 2232      E7800000 
 2233              	.LVL228:
 347:src/kernel/slabAllocator.cpp ****     {
 2234              		.loc 1 347 5 is_stmt 1
 2235              	.LBB23:
 347:src/kernel/slabAllocator.cpp ****     {
 2236              		.loc 1 347 16 is_stmt 0
 2237 0d64 93040000 		li	s1,0
 2238 0d68 6F000001 		j	.L133
 2239              	.LVL229:
 2240              	.L135:
 351:src/kernel/slabAllocator.cpp ****         }
 2241              		.loc 1 351 13 is_stmt 1
 351:src/kernel/slabAllocator.cpp ****         }
 2242              		.loc 1 351 28 is_stmt 0
 2243 0d6c 97000000 		call	_Z15kmem_cache_infoP12kmem_cache_s
 2243      E7800000 
 2244              	.LVL230:
 2245              	.L132:
 347:src/kernel/slabAllocator.cpp ****     {
 2246              		.loc 1 347 5 is_stmt 1 discriminator 2
 2247 0d74 93841400 		addi	s1,s1,1
 2248              	.LVL231:
 2249              	.L133:
 347:src/kernel/slabAllocator.cpp ****     {
 2250              		.loc 1 347 24 discriminator 1
 2251 0d78 9307C000 		li	a5,12
 2252 0d7c 63E09702 		bgtu	s1,a5,.L131
 349:src/kernel/slabAllocator.cpp ****         {
 2253              		.loc 1 349 9
 349:src/kernel/slabAllocator.cpp ****         {
 2254              		.loc 1 349 42 is_stmt 0
 2255 0d80 93973400 		slli	a5,s1,3
 2256 0d84 17070000 		ld	a4,.LANCHOR0
 2256      03370700 
 2257 0d8c B307F700 		add	a5,a4,a5
 2258 0d90 03B50700 		ld	a0,0(a5)
 349:src/kernel/slabAllocator.cpp ****         {
 2259              		.loc 1 349 9
 2260 0d94 E31C05FC 		bnez	a0,.L135
 2261 0d98 6FF0DFFD 		j	.L132
 2262              	.L131:
 2263              	.LBE23:
 354:src/kernel/slabAllocator.cpp ****     printBuddyInfo();
 2264              		.loc 1 354 5 is_stmt 1
 354:src/kernel/slabAllocator.cpp ****     printBuddyInfo();
 2265              		.loc 1 354 30 is_stmt 0
 2266 0d9c 17050000 		lla	a0,.LC15
 2266      13050500 
 2267 0da4 97000000 		call	_ZN8KConsole15trapPrintStringEPKc@plt
 2267      E7800000 
 2268              	.LVL232:
 355:src/kernel/slabAllocator.cpp **** }
 2269              		.loc 1 355 5 is_stmt 1
 355:src/kernel/slabAllocator.cpp **** }
 2270              		.loc 1 355 19 is_stmt 0
 2271 0dac 97000000 		call	_Z14printBuddyInfov@plt
GAS LISTING /tmp/ccXFfN6y.s 			page 54


 2271      E7800000 
 2272              	.LVL233:
 356:src/kernel/slabAllocator.cpp **** 
 2273              		.loc 1 356 1
 2274 0db4 83308101 		ld	ra,24(sp)
 2275              		.cfi_restore 1
 2276 0db8 03340101 		ld	s0,16(sp)
 2277              		.cfi_restore 8
 2278              		.cfi_def_cfa 2, 32
 2279 0dbc 83348100 		ld	s1,8(sp)
 2280              		.cfi_restore 9
 2281              	.LVL234:
 2282 0dc0 13010102 		addi	sp,sp,32
 2283              		.cfi_def_cfa_offset 0
 2284 0dc4 67800000 		jr	ra
 2285              		.cfi_endproc
 2286              	.LFE26:
 2288              		.section	.rodata.str1.8
 2289 01fc 00000000 		.align	3
 2290              	.LC20:
 2291 0200 43616368 		.string	"Cache for small buffers"
 2291      6520666F 
 2291      7220736D 
 2291      616C6C20 
 2291      62756666 
 2292              		.text
 2293              		.align	2
 2294              		.globl	_Z7kmallocm
 2296              	_Z7kmallocm:
 2297              	.LFB34:
 502:src/kernel/slabAllocator.cpp **** 
 503:src/kernel/slabAllocator.cpp **** void *kmalloc(size_t size)
 504:src/kernel/slabAllocator.cpp **** {
 2298              		.loc 1 504 1 is_stmt 1
 2299              		.cfi_startproc
 2300              	.LVL235:
 2301 0dc8 130101FD 		addi	sp,sp,-48
 2302              		.cfi_def_cfa_offset 48
 2303 0dcc 23341102 		sd	ra,40(sp)
 2304 0dd0 23308102 		sd	s0,32(sp)
 2305 0dd4 233C9100 		sd	s1,24(sp)
 2306 0dd8 23382101 		sd	s2,16(sp)
 2307 0ddc 23343101 		sd	s3,8(sp)
 2308              		.cfi_offset 1, -8
 2309              		.cfi_offset 8, -16
 2310              		.cfi_offset 9, -24
 2311              		.cfi_offset 18, -32
 2312              		.cfi_offset 19, -40
 2313 0de0 13040103 		addi	s0,sp,48
 2314              		.cfi_def_cfa 8, 0
 505:src/kernel/slabAllocator.cpp ****     size_t level = getDeg2Ceil(size);
 2315              		.loc 1 505 5
 2316              		.loc 1 505 31 is_stmt 0
 2317 0de4 97000000 		call	_Z11getDeg2Ceilm@plt
 2317      E7800000 
 2318              	.LVL236:
 506:src/kernel/slabAllocator.cpp ****     if(level < CACHE_BUFFER_SMALL)
GAS LISTING /tmp/ccXFfN6y.s 			page 55


 2319              		.loc 1 506 5 is_stmt 1
 2320 0dec 93074000 		li	a5,4
 2321 0df0 63FAA700 		bleu	a0,a5,.L140
 507:src/kernel/slabAllocator.cpp ****         level = CACHE_BUFFER_SMALL;
 508:src/kernel/slabAllocator.cpp ****     if(level > CACHE_BUFFER_BIG)
 2322              		.loc 1 508 5
 2323 0df4 93071001 		li	a5,17
 2324 0df8 63F8A700 		bleu	a0,a5,.L137
 509:src/kernel/slabAllocator.cpp ****         return nullptr;
 2325              		.loc 1 509 16 is_stmt 0
 2326 0dfc 13090000 		li	s2,0
 2327 0e00 6F00C004 		j	.L136
 2328              	.L140:
 507:src/kernel/slabAllocator.cpp ****         level = CACHE_BUFFER_SMALL;
 2329              		.loc 1 507 15
 2330 0e04 13055000 		li	a0,5
 2331              	.LVL237:
 2332              	.L137:
 510:src/kernel/slabAllocator.cpp ****     size = (1 << level);
 2333              		.loc 1 510 5 is_stmt 1
 2334              		.loc 1 510 15 is_stmt 0
 2335 0e08 93061000 		li	a3,1
 2336 0e0c BB99A600 		sllw	s3,a3,a0
 2337              	.LVL238:
 511:src/kernel/slabAllocator.cpp ****     size_t index = level - CACHE_BUFFER_SMALL;
 2338              		.loc 1 511 5 is_stmt 1
 2339              		.loc 1 511 12 is_stmt 0
 2340 0e10 9304B5FF 		addi	s1,a0,-5
 2341              	.LVL239:
 512:src/kernel/slabAllocator.cpp ****     if(slabAllocator->cachesBuffers[index] == nullptr)
 2342              		.loc 1 512 5 is_stmt 1
 2343              		.loc 1 512 42 is_stmt 0
 2344 0e14 17090000 		ld	s2,.LANCHOR0
 2344      03390900 
 2345 0e1c 93973400 		slli	a5,s1,3
 2346 0e20 B307F900 		add	a5,s2,a5
 2347 0e24 83B70700 		ld	a5,0(a5)
 2348              		.loc 1 512 5
 2349 0e28 63820704 		beqz	a5,.L143
 2350              	.L139:
 513:src/kernel/slabAllocator.cpp ****     {
 514:src/kernel/slabAllocator.cpp ****         slabAllocator->cachesBuffers[index] = (kmem_cache_t*)kmem_cache_alloc(&slabAllocator->cache
 515:src/kernel/slabAllocator.cpp ****         if(slabAllocator->cachesBuffers[index] == nullptr)
 516:src/kernel/slabAllocator.cpp ****             return nullptr;
 517:src/kernel/slabAllocator.cpp ****         init_cache(slabAllocator->cachesBuffers[index], "Cache for small buffers", getOptimalSlabSi
 518:src/kernel/slabAllocator.cpp ****     }
 519:src/kernel/slabAllocator.cpp **** 
 520:src/kernel/slabAllocator.cpp ****     return kmem_cache_alloc(slabAllocator->cachesBuffers[index]);
 2351              		.loc 1 520 5 is_stmt 1
 2352              		.loc 1 520 28 is_stmt 0
 2353 0e2c 13953400 		slli	a0,s1,3
 2354 0e30 97040000 		ld	s1,.LANCHOR0
 2354      83B40400 
 2355              	.LVL240:
 2356 0e38 3385A400 		add	a0,s1,a0
 2357 0e3c 03350500 		ld	a0,0(a0)
 2358 0e40 97000000 		call	_Z16kmem_cache_allocP12kmem_cache_s
GAS LISTING /tmp/ccXFfN6y.s 			page 56


 2358      E7800000 
 2359              	.LVL241:
 2360 0e48 13090500 		mv	s2,a0
 2361              	.LVL242:
 2362              	.L136:
 521:src/kernel/slabAllocator.cpp **** }
 2363              		.loc 1 521 1
 2364 0e4c 13050900 		mv	a0,s2
 2365 0e50 83308102 		ld	ra,40(sp)
 2366              		.cfi_remember_state
 2367              		.cfi_restore 1
 2368 0e54 03340102 		ld	s0,32(sp)
 2369              		.cfi_restore 8
 2370              		.cfi_def_cfa 2, 48
 2371 0e58 83348101 		ld	s1,24(sp)
 2372              		.cfi_restore 9
 2373 0e5c 03390101 		ld	s2,16(sp)
 2374              		.cfi_restore 18
 2375 0e60 83398100 		ld	s3,8(sp)
 2376              		.cfi_restore 19
 2377 0e64 13010103 		addi	sp,sp,48
 2378              		.cfi_def_cfa_offset 0
 2379 0e68 67800000 		jr	ra
 2380              	.LVL243:
 2381              	.L143:
 2382              		.cfi_restore_state
 514:src/kernel/slabAllocator.cpp ****         if(slabAllocator->cachesBuffers[index] == nullptr)
 2383              		.loc 1 514 9 is_stmt 1
 514:src/kernel/slabAllocator.cpp ****         if(slabAllocator->cachesBuffers[index] == nullptr)
 2384              		.loc 1 514 78 is_stmt 0
 2385 0e6c 13058906 		addi	a0,s2,104
 2386 0e70 97000000 		call	_Z16kmem_cache_allocP12kmem_cache_s
 2386      E7800000 
 2387              	.LVL244:
 514:src/kernel/slabAllocator.cpp ****         if(slabAllocator->cachesBuffers[index] == nullptr)
 2388              		.loc 1 514 45
 2389 0e78 13973400 		slli	a4,s1,3
 2390 0e7c 3309E900 		add	s2,s2,a4
 2391 0e80 2330A900 		sd	a0,0(s2)
 515:src/kernel/slabAllocator.cpp ****             return nullptr;
 2392              		.loc 1 515 9 is_stmt 1
 515:src/kernel/slabAllocator.cpp ****             return nullptr;
 2393              		.loc 1 515 46 is_stmt 0
 2394 0e84 97070000 		ld	a5,.LANCHOR0
 2394      83B70700 
 2395 0e8c B387E700 		add	a5,a5,a4
 2396 0e90 03B90700 		ld	s2,0(a5)
 515:src/kernel/slabAllocator.cpp ****             return nullptr;
 2397              		.loc 1 515 9
 2398 0e94 E30C09FA 		beqz	s2,.L136
 517:src/kernel/slabAllocator.cpp ****     }
 2399              		.loc 1 517 9 is_stmt 1
 517:src/kernel/slabAllocator.cpp ****     }
 2400              		.loc 1 517 19 is_stmt 0
 2401 0e98 13850900 		mv	a0,s3
 2402 0e9c 97000000 		call	_Z18getOptimalSlabSizem
 2402      E7800000 
GAS LISTING /tmp/ccXFfN6y.s 			page 57


 2403              	.LVL245:
 2404 0ea4 13060500 		mv	a2,a0
 2405 0ea8 93070000 		li	a5,0
 2406 0eac 13070000 		li	a4,0
 2407 0eb0 93860900 		mv	a3,s3
 2408 0eb4 97050000 		lla	a1,.LC20
 2408      93850500 
 2409 0ebc 13050900 		mv	a0,s2
 2410 0ec0 97000000 		call	_Z10init_cacheP12kmem_cache_sPKcmmPFvPvES5_
 2410      E7800000 
 2411              	.LVL246:
 2412 0ec8 6FF05FF6 		j	.L139
 2413              		.cfi_endproc
 2414              	.LFE34:
 2416              		.align	2
 2417              		.globl	_Z5kfreePKv
 2419              	_Z5kfreePKv:
 2420              	.LFB35:
 522:src/kernel/slabAllocator.cpp **** 
 523:src/kernel/slabAllocator.cpp **** void kfree(const void *objp)
 524:src/kernel/slabAllocator.cpp **** {
 2421              		.loc 1 524 1 is_stmt 1
 2422              		.cfi_startproc
 2423              	.LVL247:
 525:src/kernel/slabAllocator.cpp ****     if(objp == nullptr)
 2424              		.loc 1 525 5
 2425 0ecc 6302050A 		beqz	a0,.L149
 524:src/kernel/slabAllocator.cpp ****     if(objp == nullptr)
 2426              		.loc 1 524 1 is_stmt 0
 2427 0ed0 130101FD 		addi	sp,sp,-48
 2428              		.cfi_def_cfa_offset 48
 2429 0ed4 23341102 		sd	ra,40(sp)
 2430 0ed8 23308102 		sd	s0,32(sp)
 2431 0edc 233C9100 		sd	s1,24(sp)
 2432 0ee0 23382101 		sd	s2,16(sp)
 2433 0ee4 23343101 		sd	s3,8(sp)
 2434              		.cfi_offset 1, -8
 2435              		.cfi_offset 8, -16
 2436              		.cfi_offset 9, -24
 2437              		.cfi_offset 18, -32
 2438              		.cfi_offset 19, -40
 2439 0ee8 13040103 		addi	s0,sp,48
 2440              		.cfi_def_cfa 8, 0
 2441 0eec 93090500 		mv	s3,a0
 2442              	.LBB24:
 526:src/kernel/slabAllocator.cpp ****         return;
 527:src/kernel/slabAllocator.cpp ****     slab_t* slab = nullptr;
 528:src/kernel/slabAllocator.cpp ****     for(size_t i = 0;i < CACHE_BUFFER_SIZE;i++)
 2443              		.loc 1 528 16
 2444 0ef0 13090000 		li	s2,0
 2445              	.LBE24:
 527:src/kernel/slabAllocator.cpp ****     for(size_t i = 0;i < CACHE_BUFFER_SIZE;i++)
 2446              		.loc 1 527 13
 2447 0ef4 93040000 		li	s1,0
 2448              	.LVL248:
 2449              	.L147:
 2450              	.LBB25:
GAS LISTING /tmp/ccXFfN6y.s 			page 58


 2451              		.loc 1 528 24 is_stmt 1 discriminator 1
 2452 0ef8 9307C000 		li	a5,12
 2453 0efc 63EA2703 		bgtu	s2,a5,.L146
 529:src/kernel/slabAllocator.cpp ****     {
 530:src/kernel/slabAllocator.cpp ****         slab = findSlab(slabAllocator->cachesBuffers[i], objp);
 2454              		.loc 1 530 9
 2455              		.loc 1 530 24 is_stmt 0
 2456 0f00 93173900 		slli	a5,s2,3
 2457 0f04 17070000 		ld	a4,.LANCHOR0
 2457      03370700 
 2458 0f0c B307F700 		add	a5,a4,a5
 2459 0f10 93850900 		mv	a1,s3
 2460 0f14 03B50700 		ld	a0,0(a5)
 2461 0f18 97000000 		call	_Z8findSlabP12kmem_cache_sPKv
 2461      E7800000 
 2462              	.LVL249:
 2463 0f20 93040500 		mv	s1,a0
 2464              	.LVL250:
 531:src/kernel/slabAllocator.cpp ****         if(slab != nullptr) break;
 2465              		.loc 1 531 9 is_stmt 1
 2466 0f24 63160500 		bnez	a0,.L146
 528:src/kernel/slabAllocator.cpp ****     {
 2467              		.loc 1 528 5 discriminator 2
 2468 0f28 13091900 		addi	s2,s2,1
 2469              	.LVL251:
 2470 0f2c 6FF0DFFC 		j	.L147
 2471              	.L146:
 2472              	.LBE25:
 532:src/kernel/slabAllocator.cpp ****     }
 533:src/kernel/slabAllocator.cpp ****     if(slab != nullptr)
 2473              		.loc 1 533 5
 2474 0f30 63820402 		beqz	s1,.L144
 534:src/kernel/slabAllocator.cpp ****     {
 535:src/kernel/slabAllocator.cpp ****         free_slab_object(slab, objp);
 2475              		.loc 1 535 9
 2476              		.loc 1 535 25 is_stmt 0
 2477 0f34 93850900 		mv	a1,s3
 2478 0f38 13850400 		mv	a0,s1
 2479 0f3c 97000000 		call	_Z16free_slab_objectP6slab_sPKv
 2479      E7800000 
 2480              	.LVL252:
 536:src/kernel/slabAllocator.cpp ****         destroy_slab_list(&(slab->owner->slabs_empty));
 2481              		.loc 1 536 9 is_stmt 1
 2482              		.loc 1 536 35 is_stmt 0
 2483 0f44 03B50401 		ld	a0,16(s1)
 2484              		.loc 1 536 26
 2485 0f48 13050504 		addi	a0,a0,64
 2486 0f4c 97000000 		call	_Z17destroy_slab_listPP6slab_s
 2486      E7800000 
 2487              	.LVL253:
 2488              	.L144:
 537:src/kernel/slabAllocator.cpp ****     }
 538:src/kernel/slabAllocator.cpp **** }
 2489              		.loc 1 538 1
 2490 0f54 83308102 		ld	ra,40(sp)
 2491              		.cfi_restore 1
 2492 0f58 03340102 		ld	s0,32(sp)
GAS LISTING /tmp/ccXFfN6y.s 			page 59


 2493              		.cfi_restore 8
 2494              		.cfi_def_cfa 2, 48
 2495 0f5c 83348101 		ld	s1,24(sp)
 2496              		.cfi_restore 9
 2497              	.LVL254:
 2498 0f60 03390101 		ld	s2,16(sp)
 2499              		.cfi_restore 18
 2500              	.LVL255:
 2501 0f64 83398100 		ld	s3,8(sp)
 2502              		.cfi_restore 19
 2503              	.LVL256:
 2504 0f68 13010103 		addi	sp,sp,48
 2505              		.cfi_def_cfa_offset 0
 2506 0f6c 67800000 		jr	ra
 2507              	.LVL257:
 2508              	.L149:
 2509 0f70 67800000 		ret
 2510              		.cfi_endproc
 2511              	.LFE35:
 2513              		.align	2
 2514              		.globl	_Z18kmem_cache_destroyP12kmem_cache_s
 2516              	_Z18kmem_cache_destroyP12kmem_cache_s:
 2517              	.LFB36:
 539:src/kernel/slabAllocator.cpp **** 
 540:src/kernel/slabAllocator.cpp **** void kmem_cache_destroy(kmem_cache_t *cachep)
 541:src/kernel/slabAllocator.cpp **** {
 2518              		.loc 1 541 1 is_stmt 1
 2519              		.cfi_startproc
 2520              	.LVL258:
 2521 0f74 130101FE 		addi	sp,sp,-32
 2522              		.cfi_def_cfa_offset 32
 2523 0f78 233C1100 		sd	ra,24(sp)
 2524 0f7c 23388100 		sd	s0,16(sp)
 2525 0f80 23349100 		sd	s1,8(sp)
 2526              		.cfi_offset 1, -8
 2527              		.cfi_offset 8, -16
 2528              		.cfi_offset 9, -24
 2529 0f84 13040102 		addi	s0,sp,32
 2530              		.cfi_def_cfa 8, 0
 2531 0f88 93040500 		mv	s1,a0
 542:src/kernel/slabAllocator.cpp ****     if(cachep->slabs_partial != nullptr || cachep->slabs_full != nullptr) {
 2532              		.loc 1 542 5
 2533              		.loc 1 542 16 is_stmt 0
 2534 0f8c 83370505 		ld	a5,80(a0)
 2535              		.loc 1 542 5
 2536 0f90 63820702 		beqz	a5,.L157
 2537              	.L153:
 543:src/kernel/slabAllocator.cpp ****         cachep->errors |= DESTROY_ERROR;
 2538              		.loc 1 543 9 is_stmt 1
 2539              		.loc 1 543 24 is_stmt 0
 2540 0f94 83A78407 		lw	a5,120(s1)
 2541 0f98 93E72700 		ori	a5,a5,2
 2542 0f9c 23ACF406 		sw	a5,120(s1)
 544:src/kernel/slabAllocator.cpp ****         return;
 2543              		.loc 1 544 9 is_stmt 1
 2544              	.LVL259:
 2545              	.L152:
GAS LISTING /tmp/ccXFfN6y.s 			page 60


 545:src/kernel/slabAllocator.cpp ****     }
 546:src/kernel/slabAllocator.cpp ****     destroy_slab_list(&cachep->slabs_empty);
 547:src/kernel/slabAllocator.cpp ****     destroy_slab_list(&cachep->slabs_partial);
 548:src/kernel/slabAllocator.cpp ****     destroy_slab_list(&cachep->slabs_full);
 549:src/kernel/slabAllocator.cpp ****     kmem_cache_free(&slabAllocator->cacheOfCaches,cachep);
 550:src/kernel/slabAllocator.cpp **** }
 2546              		.loc 1 550 1 is_stmt 0
 2547 0fa0 83308101 		ld	ra,24(sp)
 2548              		.cfi_remember_state
 2549              		.cfi_restore 1
 2550 0fa4 03340101 		ld	s0,16(sp)
 2551              		.cfi_restore 8
 2552              		.cfi_def_cfa 2, 32
 2553 0fa8 83348100 		ld	s1,8(sp)
 2554              		.cfi_restore 9
 2555              	.LVL260:
 2556 0fac 13010102 		addi	sp,sp,32
 2557              		.cfi_def_cfa_offset 0
 2558 0fb0 67800000 		jr	ra
 2559              	.LVL261:
 2560              	.L157:
 2561              		.cfi_restore_state
 542:src/kernel/slabAllocator.cpp ****         cachep->errors |= DESTROY_ERROR;
 2562              		.loc 1 542 52 discriminator 1
 2563 0fb4 83378504 		ld	a5,72(a0)
 542:src/kernel/slabAllocator.cpp ****         cachep->errors |= DESTROY_ERROR;
 2564              		.loc 1 542 41 discriminator 1
 2565 0fb8 E39E07FC 		bnez	a5,.L153
 546:src/kernel/slabAllocator.cpp ****     destroy_slab_list(&cachep->slabs_partial);
 2566              		.loc 1 546 5 is_stmt 1
 546:src/kernel/slabAllocator.cpp ****     destroy_slab_list(&cachep->slabs_partial);
 2567              		.loc 1 546 22 is_stmt 0
 2568 0fbc 13050504 		addi	a0,a0,64
 2569 0fc0 97000000 		call	_Z17destroy_slab_listPP6slab_s
 2569      E7800000 
 2570              	.LVL262:
 547:src/kernel/slabAllocator.cpp ****     destroy_slab_list(&cachep->slabs_full);
 2571              		.loc 1 547 5 is_stmt 1
 547:src/kernel/slabAllocator.cpp ****     destroy_slab_list(&cachep->slabs_full);
 2572              		.loc 1 547 22 is_stmt 0
 2573 0fc8 13850405 		addi	a0,s1,80
 2574 0fcc 97000000 		call	_Z17destroy_slab_listPP6slab_s
 2574      E7800000 
 2575              	.LVL263:
 548:src/kernel/slabAllocator.cpp ****     kmem_cache_free(&slabAllocator->cacheOfCaches,cachep);
 2576              		.loc 1 548 5 is_stmt 1
 548:src/kernel/slabAllocator.cpp ****     kmem_cache_free(&slabAllocator->cacheOfCaches,cachep);
 2577              		.loc 1 548 22 is_stmt 0
 2578 0fd4 13858404 		addi	a0,s1,72
 2579 0fd8 97000000 		call	_Z17destroy_slab_listPP6slab_s
 2579      E7800000 
 2580              	.LVL264:
 549:src/kernel/slabAllocator.cpp **** }
 2581              		.loc 1 549 5 is_stmt 1
 549:src/kernel/slabAllocator.cpp **** }
 2582              		.loc 1 549 20 is_stmt 0
 2583 0fe0 93850400 		mv	a1,s1
GAS LISTING /tmp/ccXFfN6y.s 			page 61


 2584 0fe4 17050000 		ld	a0,.LANCHOR0
 2584      03350500 
 2585 0fec 13058506 		addi	a0,a0,104
 2586 0ff0 97000000 		call	_Z15kmem_cache_freeP12kmem_cache_sPv
 2586      E7800000 
 2587              	.LVL265:
 2588 0ff8 6FF09FFA 		j	.L152
 2589              		.cfi_endproc
 2590              	.LFE36:
 2592              		.align	2
 2593              		.globl	_Z17kmem_cache_shrinkP12kmem_cache_s
 2595              	_Z17kmem_cache_shrinkP12kmem_cache_s:
 2596              	.LFB37:
 551:src/kernel/slabAllocator.cpp **** 
 552:src/kernel/slabAllocator.cpp **** int kmem_cache_shrink(kmem_cache_t *cachep)
 553:src/kernel/slabAllocator.cpp **** {
 2597              		.loc 1 553 1 is_stmt 1
 2598              		.cfi_startproc
 2599              	.LVL266:
 554:src/kernel/slabAllocator.cpp ****     if(cachep == nullptr)
 2600              		.loc 1 554 5
 2601 0ffc 63080502 		beqz	a0,.L160
 553:src/kernel/slabAllocator.cpp ****     if(cachep == nullptr)
 2602              		.loc 1 553 1 is_stmt 0
 2603 1000 130101FF 		addi	sp,sp,-16
 2604              		.cfi_def_cfa_offset 16
 2605 1004 23341100 		sd	ra,8(sp)
 2606 1008 23308100 		sd	s0,0(sp)
 2607              		.cfi_offset 1, -8
 2608              		.cfi_offset 8, -16
 2609 100c 13040101 		addi	s0,sp,16
 2610              		.cfi_def_cfa 8, 0
 555:src/kernel/slabAllocator.cpp ****         return 0;
 556:src/kernel/slabAllocator.cpp ****     int totalBlocks = destroy_slab_list(&cachep->slabs_empty);
 2611              		.loc 1 556 5 is_stmt 1
 2612              		.loc 1 556 40 is_stmt 0
 2613 1010 13050504 		addi	a0,a0,64
 2614              	.LVL267:
 2615 1014 97000000 		call	_Z17destroy_slab_listPP6slab_s
 2615      E7800000 
 2616              	.LVL268:
 557:src/kernel/slabAllocator.cpp ****     return totalBlocks;
 2617              		.loc 1 557 5 is_stmt 1
 558:src/kernel/slabAllocator.cpp **** }
 2618              		.loc 1 558 1 is_stmt 0
 2619 101c 83308100 		ld	ra,8(sp)
 2620              		.cfi_restore 1
 2621 1020 03340100 		ld	s0,0(sp)
 2622              		.cfi_restore 8
 2623              		.cfi_def_cfa 2, 16
 2624 1024 13010101 		addi	sp,sp,16
 2625              		.cfi_def_cfa_offset 0
 2626 1028 67800000 		jr	ra
 2627              	.LVL269:
 2628              	.L160:
 555:src/kernel/slabAllocator.cpp ****         return 0;
 2629              		.loc 1 555 16
GAS LISTING /tmp/ccXFfN6y.s 			page 62


 2630 102c 13050000 		li	a0,0
 2631              	.LVL270:
 2632              		.loc 1 558 1
 2633 1030 67800000 		ret
 2634              		.cfi_endproc
 2635              	.LFE37:
 2637              		.align	2
 2638              		.globl	_Z21shrink_caches_on_slabP6slab_s
 2640              	_Z21shrink_caches_on_slabP6slab_s:
 2641              	.LFB27:
 359:src/kernel/slabAllocator.cpp ****     for(size_t i = 0; i < slab->numOfObjects;i++)
 2642              		.loc 1 359 1 is_stmt 1
 2643              		.cfi_startproc
 2644              	.LVL271:
 2645 1034 130101FE 		addi	sp,sp,-32
 2646              		.cfi_def_cfa_offset 32
 2647 1038 233C1100 		sd	ra,24(sp)
 2648 103c 23388100 		sd	s0,16(sp)
 2649 1040 23349100 		sd	s1,8(sp)
 2650 1044 23302101 		sd	s2,0(sp)
 2651              		.cfi_offset 1, -8
 2652              		.cfi_offset 8, -16
 2653              		.cfi_offset 9, -24
 2654              		.cfi_offset 18, -32
 2655 1048 13040102 		addi	s0,sp,32
 2656              		.cfi_def_cfa 8, 0
 2657 104c 13090500 		mv	s2,a0
 360:src/kernel/slabAllocator.cpp ****     {
 2658              		.loc 1 360 5
 2659              	.LVL272:
 2660              	.LBB26:
 360:src/kernel/slabAllocator.cpp ****     {
 2661              		.loc 1 360 16 is_stmt 0
 2662 1050 93040000 		li	s1,0
 2663 1054 6F004002 		j	.L168
 2664              	.LVL273:
 2665              	.L170:
 2666              	.LBB27:
 2667              	.LBB28:
 364:src/kernel/slabAllocator.cpp ****             kmem_cache_shrink((kmem_cache_t*)addr);
 2668              		.loc 1 364 13 is_stmt 1
 364:src/kernel/slabAllocator.cpp ****             kmem_cache_shrink((kmem_cache_t*)addr);
 2669              		.loc 1 364 72 is_stmt 0
 2670 1058 83370901 		ld	a5,16(s2)
 364:src/kernel/slabAllocator.cpp ****             kmem_cache_shrink((kmem_cache_t*)addr);
 2671              		.loc 1 364 79
 2672 105c 03B50706 		ld	a0,96(a5)
 364:src/kernel/slabAllocator.cpp ****             kmem_cache_shrink((kmem_cache_t*)addr);
 2673              		.loc 1 364 65
 2674 1060 33059502 		mul	a0,a0,s1
 364:src/kernel/slabAllocator.cpp ****             kmem_cache_shrink((kmem_cache_t*)addr);
 2675              		.loc 1 364 62
 2676 1064 3305A900 		add	a0,s2,a0
 2677              	.LVL274:
 365:src/kernel/slabAllocator.cpp ****         }
 2678              		.loc 1 365 13 is_stmt 1
 365:src/kernel/slabAllocator.cpp ****         }
GAS LISTING /tmp/ccXFfN6y.s 			page 63


 2679              		.loc 1 365 30 is_stmt 0
 2680 1068 13058500 		addi	a0,a0,8
 2681              	.LVL275:
 2682 106c 97000000 		call	_Z17kmem_cache_shrinkP12kmem_cache_s
 2682      E7800000 
 2683              	.LVL276:
 2684              	.L167:
 2685              	.LBE28:
 2686              	.LBE27:
 360:src/kernel/slabAllocator.cpp ****     {
 2687              		.loc 1 360 5 is_stmt 1 discriminator 2
 2688 1074 93841400 		addi	s1,s1,1
 2689              	.LVL277:
 2690              	.L168:
 360:src/kernel/slabAllocator.cpp ****     {
 2691              		.loc 1 360 25 discriminator 1
 360:src/kernel/slabAllocator.cpp ****     {
 2692              		.loc 1 360 33 is_stmt 0 discriminator 1
 2693 1078 83378901 		ld	a5,24(s2)
 360:src/kernel/slabAllocator.cpp ****     {
 2694              		.loc 1 360 25 discriminator 1
 2695 107c 63FEF400 		bleu	a5,s1,.L165
 2696              	.LBE26:
 362:src/kernel/slabAllocator.cpp ****         {
 2697              		.loc 1 362 9 is_stmt 1
 2698              	.LBB30:
 2699              	.LBB29:
 362:src/kernel/slabAllocator.cpp ****         {
 2700              		.loc 1 362 25 is_stmt 0
 2701 1080 9B850400 		sext.w	a1,s1
 2702 1084 13050900 		mv	a0,s2
 2703 1088 97000000 		call	_Z13checkSetIndexP6slab_si
 2703      E7800000 
 2704              	.LVL278:
 362:src/kernel/slabAllocator.cpp ****         {
 2705              		.loc 1 362 9
 2706 1090 E30205FE 		beqz	a0,.L167
 2707 1094 6FF05FFC 		j	.L170
 2708              	.L165:
 2709              	.LBE29:
 2710              	.LBE30:
 368:src/kernel/slabAllocator.cpp **** 
 2711              		.loc 1 368 1
 2712 1098 83308101 		ld	ra,24(sp)
 2713              		.cfi_restore 1
 2714 109c 03340101 		ld	s0,16(sp)
 2715              		.cfi_restore 8
 2716              		.cfi_def_cfa 2, 32
 2717 10a0 83348100 		ld	s1,8(sp)
 2718              		.cfi_restore 9
 2719              	.LVL279:
 2720 10a4 03390100 		ld	s2,0(sp)
 2721              		.cfi_restore 18
 2722              	.LVL280:
 2723 10a8 13010102 		addi	sp,sp,32
 2724              		.cfi_def_cfa_offset 0
 2725 10ac 67800000 		jr	ra
GAS LISTING /tmp/ccXFfN6y.s 			page 64


 2726              		.cfi_endproc
 2727              	.LFE27:
 2729              		.align	2
 2730              		.globl	_Z17shrink_all_cachesv
 2732              	_Z17shrink_all_cachesv:
 2733              	.LFB28:
 371:src/kernel/slabAllocator.cpp ****     kmem_cache_t* cacheOfCaches = &slabAllocator->cacheOfCaches;
 2734              		.loc 1 371 1 is_stmt 1
 2735              		.cfi_startproc
 2736 10b0 130101FD 		addi	sp,sp,-48
 2737              		.cfi_def_cfa_offset 48
 2738 10b4 23341102 		sd	ra,40(sp)
 2739 10b8 23308102 		sd	s0,32(sp)
 2740 10bc 233C9100 		sd	s1,24(sp)
 2741 10c0 23382101 		sd	s2,16(sp)
 2742 10c4 23343101 		sd	s3,8(sp)
 2743              		.cfi_offset 1, -8
 2744              		.cfi_offset 8, -16
 2745              		.cfi_offset 9, -24
 2746              		.cfi_offset 18, -32
 2747              		.cfi_offset 19, -40
 2748 10c8 13040103 		addi	s0,sp,48
 2749              		.cfi_def_cfa 8, 0
 372:src/kernel/slabAllocator.cpp **** 
 2750              		.loc 1 372 5
 372:src/kernel/slabAllocator.cpp **** 
 2751              		.loc 1 372 51 is_stmt 0
 2752 10cc 17090000 		ld	s2,.LANCHOR0
 2752      03390900 
 372:src/kernel/slabAllocator.cpp **** 
 2753              		.loc 1 372 19
 2754 10d4 93098906 		addi	s3,s2,104
 2755              	.LVL281:
 374:src/kernel/slabAllocator.cpp ****     while(slab != nullptr)
 2756              		.loc 1 374 5 is_stmt 1
 374:src/kernel/slabAllocator.cpp ****     while(slab != nullptr)
 2757              		.loc 1 374 13 is_stmt 0
 2758 10d8 8334090B 		ld	s1,176(s2)
 2759              	.LVL282:
 2760              	.L173:
 375:src/kernel/slabAllocator.cpp ****     {
 2761              		.loc 1 375 5 is_stmt 1
 375:src/kernel/slabAllocator.cpp ****     {
 2762              		.loc 1 375 16
 2763 10dc 638C0400 		beqz	s1,.L172
 377:src/kernel/slabAllocator.cpp ****         slab = slab->next;
 2764              		.loc 1 377 9
 377:src/kernel/slabAllocator.cpp ****         slab = slab->next;
 2765              		.loc 1 377 30 is_stmt 0
 2766 10e0 13850400 		mv	a0,s1
 2767 10e4 97000000 		call	_Z21shrink_caches_on_slabP6slab_s
 2767      E7800000 
 2768              	.LVL283:
 378:src/kernel/slabAllocator.cpp ****     }
 2769              		.loc 1 378 9 is_stmt 1
 378:src/kernel/slabAllocator.cpp ****     }
 2770              		.loc 1 378 14 is_stmt 0
GAS LISTING /tmp/ccXFfN6y.s 			page 65


 2771 10ec 83B48400 		ld	s1,8(s1)
 2772              	.LVL284:
 375:src/kernel/slabAllocator.cpp ****     {
 2773              		.loc 1 375 5
 2774 10f0 6FF0DFFE 		j	.L173
 2775              	.L172:
 381:src/kernel/slabAllocator.cpp ****     while(slab != nullptr)
 2776              		.loc 1 381 5 is_stmt 1
 381:src/kernel/slabAllocator.cpp ****     while(slab != nullptr)
 2777              		.loc 1 381 10 is_stmt 0
 2778 10f4 8334890B 		ld	s1,184(s2)
 2779              	.LVL285:
 2780              	.L175:
 382:src/kernel/slabAllocator.cpp ****     {
 2781              		.loc 1 382 5 is_stmt 1
 382:src/kernel/slabAllocator.cpp ****     {
 2782              		.loc 1 382 16
 2783 10f8 638C0400 		beqz	s1,.L174
 384:src/kernel/slabAllocator.cpp ****         slab = slab->next;
 2784              		.loc 1 384 9
 384:src/kernel/slabAllocator.cpp ****         slab = slab->next;
 2785              		.loc 1 384 30 is_stmt 0
 2786 10fc 13850400 		mv	a0,s1
 2787 1100 97000000 		call	_Z21shrink_caches_on_slabP6slab_s
 2787      E7800000 
 2788              	.LVL286:
 385:src/kernel/slabAllocator.cpp ****     }
 2789              		.loc 1 385 9 is_stmt 1
 385:src/kernel/slabAllocator.cpp ****     }
 2790              		.loc 1 385 14 is_stmt 0
 2791 1108 83B48400 		ld	s1,8(s1)
 2792              	.LVL287:
 382:src/kernel/slabAllocator.cpp ****     {
 2793              		.loc 1 382 5
 2794 110c 6FF0DFFE 		j	.L175
 2795              	.L174:
 388:src/kernel/slabAllocator.cpp **** }
 2796              		.loc 1 388 5 is_stmt 1
 388:src/kernel/slabAllocator.cpp **** }
 2797              		.loc 1 388 22 is_stmt 0
 2798 1110 13850900 		mv	a0,s3
 2799 1114 97000000 		call	_Z17kmem_cache_shrinkP12kmem_cache_s
 2799      E7800000 
 2800              	.LVL288:
 389:src/kernel/slabAllocator.cpp **** 
 2801              		.loc 1 389 1
 2802 111c 83308102 		ld	ra,40(sp)
 2803              		.cfi_restore 1
 2804 1120 03340102 		ld	s0,32(sp)
 2805              		.cfi_restore 8
 2806              		.cfi_def_cfa 2, 48
 2807 1124 83348101 		ld	s1,24(sp)
 2808              		.cfi_restore 9
 2809              	.LVL289:
 2810 1128 03390101 		ld	s2,16(sp)
 2811              		.cfi_restore 18
 2812 112c 83398100 		ld	s3,8(sp)
GAS LISTING /tmp/ccXFfN6y.s 			page 66


 2813              		.cfi_restore 19
 2814              	.LVL290:
 2815 1130 13010103 		addi	sp,sp,48
 2816              		.cfi_def_cfa_offset 0
 2817 1134 67800000 		jr	ra
 2818              		.cfi_endproc
 2819              	.LFE28:
 2821              		.section	.rodata.str1.8
 2822              		.align	3
 2823              	.LC21:
 2824 0218 45585041 		.string	"EXPAND ERROR\n"
 2824      4E442045 
 2824      52524F52 
 2824      0A00
 2825 0226 0000     		.align	3
 2826              	.LC22:
 2827 0228 44455354 		.string	"DESTROY ERROR"
 2827      524F5920 
 2827      4552524F 
 2827      5200
 2828              		.text
 2829              		.align	2
 2830              		.globl	_Z16kmem_cache_errorP12kmem_cache_s
 2832              	_Z16kmem_cache_errorP12kmem_cache_s:
 2833              	.LFB38:
 559:src/kernel/slabAllocator.cpp **** 
 560:src/kernel/slabAllocator.cpp **** int kmem_cache_error(kmem_cache_t *cachep)
 561:src/kernel/slabAllocator.cpp **** {
 2834              		.loc 1 561 1 is_stmt 1
 2835              		.cfi_startproc
 2836              	.LVL291:
 562:src/kernel/slabAllocator.cpp ****     if(cachep == nullptr)
 2837              		.loc 1 562 5
 2838 1138 630C0506 		beqz	a0,.L182
 561:src/kernel/slabAllocator.cpp ****     if(cachep == nullptr)
 2839              		.loc 1 561 1 is_stmt 0
 2840 113c 130101FE 		addi	sp,sp,-32
 2841              		.cfi_def_cfa_offset 32
 2842 1140 233C1100 		sd	ra,24(sp)
 2843 1144 23388100 		sd	s0,16(sp)
 2844 1148 23349100 		sd	s1,8(sp)
 2845              		.cfi_offset 1, -8
 2846              		.cfi_offset 8, -16
 2847              		.cfi_offset 9, -24
 2848 114c 13040102 		addi	s0,sp,32
 2849              		.cfi_def_cfa 8, 0
 2850 1150 93040500 		mv	s1,a0
 563:src/kernel/slabAllocator.cpp ****         return 0;
 564:src/kernel/slabAllocator.cpp **** 
 565:src/kernel/slabAllocator.cpp ****     if(cachep->errors & EXPAND_ERROR)
 2851              		.loc 1 565 5 is_stmt 1
 2852              		.loc 1 565 16 is_stmt 0
 2853 1154 83278507 		lw	a5,120(a0)
 2854              		.loc 1 565 23
 2855 1158 93F71700 		andi	a5,a5,1
 2856              		.loc 1 565 5
 2857 115c 63960702 		bnez	a5,.L185
GAS LISTING /tmp/ccXFfN6y.s 			page 67


 2858              	.LVL292:
 2859              	.L179:
 566:src/kernel/slabAllocator.cpp ****         KConsole::trapPrintString("EXPAND ERROR\n");
 567:src/kernel/slabAllocator.cpp ****     if(cachep->errors & DESTROY_ERROR)
 2860              		.loc 1 567 5 is_stmt 1
 2861              		.loc 1 567 16 is_stmt 0
 2862 1160 83A78407 		lw	a5,120(s1)
 2863              		.loc 1 567 23
 2864 1164 93F72700 		andi	a5,a5,2
 2865              		.loc 1 567 5
 2866 1168 639A0702 		bnez	a5,.L186
 2867              	.L180:
 568:src/kernel/slabAllocator.cpp ****         KConsole::trapPrintString("DESTROY ERROR");
 569:src/kernel/slabAllocator.cpp **** 
 570:src/kernel/slabAllocator.cpp ****     cachep->errors = NO_ERROR;
 2868              		.loc 1 570 5 is_stmt 1
 2869              		.loc 1 570 20 is_stmt 0
 2870 116c 23AC0406 		sw	zero,120(s1)
 571:src/kernel/slabAllocator.cpp **** 
 572:src/kernel/slabAllocator.cpp ****     return cachep->errors;
 2871              		.loc 1 572 5 is_stmt 1
 573:src/kernel/slabAllocator.cpp **** }
 2872              		.loc 1 573 1 is_stmt 0
 2873 1170 13050000 		li	a0,0
 2874 1174 83308101 		ld	ra,24(sp)
 2875              		.cfi_remember_state
 2876              		.cfi_restore 1
 2877 1178 03340101 		ld	s0,16(sp)
 2878              		.cfi_restore 8
 2879              		.cfi_def_cfa 2, 32
 2880 117c 83348100 		ld	s1,8(sp)
 2881              		.cfi_restore 9
 2882              	.LVL293:
 2883 1180 13010102 		addi	sp,sp,32
 2884              		.cfi_def_cfa_offset 0
 2885 1184 67800000 		jr	ra
 2886              	.LVL294:
 2887              	.L185:
 2888              		.cfi_restore_state
 566:src/kernel/slabAllocator.cpp ****     if(cachep->errors & DESTROY_ERROR)
 2889              		.loc 1 566 9 is_stmt 1
 566:src/kernel/slabAllocator.cpp ****     if(cachep->errors & DESTROY_ERROR)
 2890              		.loc 1 566 34 is_stmt 0
 2891 1188 17050000 		lla	a0,.LC21
 2891      13050500 
 2892 1190 97000000 		call	_ZN8KConsole15trapPrintStringEPKc@plt
 2892      E7800000 
 2893              	.LVL295:
 2894 1198 6FF09FFC 		j	.L179
 2895              	.L186:
 568:src/kernel/slabAllocator.cpp **** 
 2896              		.loc 1 568 9 is_stmt 1
 568:src/kernel/slabAllocator.cpp **** 
 2897              		.loc 1 568 34 is_stmt 0
 2898 119c 17050000 		lla	a0,.LC22
 2898      13050500 
 2899 11a4 97000000 		call	_ZN8KConsole15trapPrintStringEPKc@plt
GAS LISTING /tmp/ccXFfN6y.s 			page 68


 2899      E7800000 
 2900              	.LVL296:
 2901 11ac 6FF01FFC 		j	.L180
 2902              	.LVL297:
 2903              	.L182:
 2904              		.cfi_def_cfa_register 2
 2905              		.cfi_restore 1
 2906              		.cfi_restore 8
 2907              		.cfi_restore 9
 2908              		.loc 1 573 1
 2909 11b0 13050000 		li	a0,0
 2910              	.LVL298:
 2911 11b4 67800000 		ret
 2912              		.cfi_endproc
 2913              	.LFE38:
 2915              		.bss
 2916              		.align	3
 2917              		.set	.LANCHOR0,. + 0
 2920              	_ZL13slabAllocator:
 2921 0000 00000000 		.zero	8
 2921      00000000 
 2922              		.text
 2923              	.Letext0:
 2924              		.file 2 "src/kernel/../../h/../lib/hw.h"
 2925              		.file 3 "src/kernel/../../h/slabAllocator.hpp"
 2926              		.file 4 "src/kernel/../../h/buddyAllocator.hpp"
 2927              		.file 5 "src/kernel/../../h/PCB.hpp"
 2928              		.file 6 "src/kernel/../../h/KSemaphore.hpp"
 2929              		.file 7 "src/kernel/../../h/KConsole.hpp"
GAS LISTING /tmp/ccXFfN6y.s 			page 69


DEFINED SYMBOLS
                            *ABS*:0000000000000000 slabAllocator.cpp
     /tmp/ccXFfN6y.s:9      .text:0000000000000000 _Z6strcpyPKcPc
     /tmp/ccXFfN6y.s:13     .text:0000000000000000 .L0 
     /tmp/ccXFfN6y.s:15     .text:0000000000000000 .L0 
     /tmp/ccXFfN6y.s:16     .text:0000000000000004 .L0 
     /tmp/ccXFfN6y.s:18     .text:0000000000000008 .L0 
     /tmp/ccXFfN6y.s:20     .text:000000000000000c .L0 
     /tmp/ccXFfN6y.s:23     .text:000000000000000c .L0 
     /tmp/ccXFfN6y.s:24     .text:000000000000000c .L0 
     /tmp/ccXFfN6y.s:25     .text:000000000000000c .L0 
     /tmp/ccXFfN6y.s:27     .text:0000000000000010 .L0 
     /tmp/ccXFfN6y.s:29     .text:0000000000000014 .L0 
     /tmp/ccXFfN6y.s:30     .text:0000000000000014 .L0 
     /tmp/ccXFfN6y.s:32     .text:0000000000000018 .L0 
     /tmp/ccXFfN6y.s:33     .text:0000000000000018 .L0 
     /tmp/ccXFfN6y.s:36     .text:000000000000001c .L0 
     /tmp/ccXFfN6y.s:37     .text:000000000000001c .L0 
     /tmp/ccXFfN6y.s:40     .text:0000000000000020 .L0 
     /tmp/ccXFfN6y.s:43     .text:0000000000000024 .L0 
     /tmp/ccXFfN6y.s:44     .text:0000000000000024 .L0 
     /tmp/ccXFfN6y.s:46     .text:0000000000000028 .L0 
     /tmp/ccXFfN6y.s:47     .text:000000000000002c .L0 
     /tmp/ccXFfN6y.s:48     .text:000000000000002c .L0 
     /tmp/ccXFfN6y.s:50     .text:0000000000000030 .L0 
     /tmp/ccXFfN6y.s:52     .text:0000000000000034 .L0 
     /tmp/ccXFfN6y.s:58     .text:0000000000000034 _Z17destroy_slab_listPP6slab_s
     /tmp/ccXFfN6y.s:61     .text:0000000000000034 .L0 
     /tmp/ccXFfN6y.s:63     .text:0000000000000034 .L0 
     /tmp/ccXFfN6y.s:64     .text:0000000000000038 .L0 
     /tmp/ccXFfN6y.s:71     .text:0000000000000050 .L0 
     /tmp/ccXFfN6y.s:72     .text:0000000000000050 .L0 
     /tmp/ccXFfN6y.s:73     .text:0000000000000050 .L0 
     /tmp/ccXFfN6y.s:74     .text:0000000000000050 .L0 
     /tmp/ccXFfN6y.s:75     .text:0000000000000050 .L0 
     /tmp/ccXFfN6y.s:76     .text:0000000000000050 .L0 
     /tmp/ccXFfN6y.s:78     .text:0000000000000054 .L0 
     /tmp/ccXFfN6y.s:80     .text:0000000000000054 .L0 
     /tmp/ccXFfN6y.s:81     .text:0000000000000054 .L0 
     /tmp/ccXFfN6y.s:83     .text:0000000000000058 .L0 
     /tmp/ccXFfN6y.s:86     .text:0000000000000060 .L0 
     /tmp/ccXFfN6y.s:87     .text:0000000000000060 .L0 
     /tmp/ccXFfN6y.s:89     .text:0000000000000064 .L0 
     /tmp/ccXFfN6y.s:92     .text:0000000000000068 .L0 
     /tmp/ccXFfN6y.s:93     .text:0000000000000068 .L0 
     /tmp/ccXFfN6y.s:97     .text:000000000000006c .L0 
     /tmp/ccXFfN6y.s:98     .text:000000000000006c .L0 
     /tmp/ccXFfN6y.s:99     .text:000000000000006c .L0 
     /tmp/ccXFfN6y.s:101    .text:0000000000000070 .L0 
     /tmp/ccXFfN6y.s:104    .text:0000000000000074 .L0 
     /tmp/ccXFfN6y.s:105    .text:0000000000000074 .L0 
     /tmp/ccXFfN6y.s:108    .text:0000000000000078 .L0 
     /tmp/ccXFfN6y.s:109    .text:0000000000000078 .L0 
     /tmp/ccXFfN6y.s:113    .text:0000000000000084 .L0 
     /tmp/ccXFfN6y.s:114    .text:0000000000000084 .L0 
     /tmp/ccXFfN6y.s:116    .text:0000000000000088 .L0 
     /tmp/ccXFfN6y.s:117    .text:0000000000000088 .L0 
GAS LISTING /tmp/ccXFfN6y.s 			page 70


     /tmp/ccXFfN6y.s:121    .text:000000000000008c .L0 
     /tmp/ccXFfN6y.s:125    .text:0000000000000090 .L0 
     /tmp/ccXFfN6y.s:129    .text:0000000000000094 .L0 
     /tmp/ccXFfN6y.s:131    .text:000000000000009c .L0 
     /tmp/ccXFfN6y.s:133    .text:00000000000000a0 .L0 
     /tmp/ccXFfN6y.s:134    .text:00000000000000a0 .L0 
     /tmp/ccXFfN6y.s:136    .text:00000000000000a4 .L0 
     /tmp/ccXFfN6y.s:138    .text:00000000000000a8 .L0 
     /tmp/ccXFfN6y.s:140    .text:00000000000000ac .L0 
     /tmp/ccXFfN6y.s:142    .text:00000000000000b0 .L0 
     /tmp/ccXFfN6y.s:144    .text:00000000000000b4 .L0 
     /tmp/ccXFfN6y.s:146    .text:00000000000000b8 .L0 
     /tmp/ccXFfN6y.s:152    .text:00000000000000b8 _Z10init_cacheP12kmem_cache_sPKcmmPFvPvES5_
     /tmp/ccXFfN6y.s:155    .text:00000000000000b8 .L0 
     /tmp/ccXFfN6y.s:157    .text:00000000000000b8 .L0 
     /tmp/ccXFfN6y.s:158    .text:00000000000000bc .L0 
     /tmp/ccXFfN6y.s:166    .text:00000000000000d8 .L0 
     /tmp/ccXFfN6y.s:167    .text:00000000000000d8 .L0 
     /tmp/ccXFfN6y.s:168    .text:00000000000000d8 .L0 
     /tmp/ccXFfN6y.s:169    .text:00000000000000d8 .L0 
     /tmp/ccXFfN6y.s:170    .text:00000000000000d8 .L0 
     /tmp/ccXFfN6y.s:171    .text:00000000000000d8 .L0 
     /tmp/ccXFfN6y.s:172    .text:00000000000000d8 .L0 
     /tmp/ccXFfN6y.s:174    .text:00000000000000dc .L0 
     /tmp/ccXFfN6y.s:183    .text:00000000000000f4 .L0 
     /tmp/ccXFfN6y.s:184    .text:00000000000000f4 .L0 
     /tmp/ccXFfN6y.s:189    .text:0000000000000100 .L0 
     /tmp/ccXFfN6y.s:190    .text:0000000000000100 .L0 
     /tmp/ccXFfN6y.s:192    .text:0000000000000104 .L0 
     /tmp/ccXFfN6y.s:193    .text:0000000000000104 .L0 
     /tmp/ccXFfN6y.s:195    .text:0000000000000108 .L0 
     /tmp/ccXFfN6y.s:196    .text:0000000000000108 .L0 
     /tmp/ccXFfN6y.s:198    .text:000000000000010c .L0 
     /tmp/ccXFfN6y.s:199    .text:000000000000010c .L0 
     /tmp/ccXFfN6y.s:201    .text:0000000000000110 .L0 
     /tmp/ccXFfN6y.s:202    .text:0000000000000110 .L0 
     /tmp/ccXFfN6y.s:204    .text:0000000000000114 .L0 
     /tmp/ccXFfN6y.s:206    .text:0000000000000118 .L0 
     /tmp/ccXFfN6y.s:208    .text:000000000000011c .L0 
     /tmp/ccXFfN6y.s:209    .text:000000000000011c .L0 
     /tmp/ccXFfN6y.s:211    .text:0000000000000120 .L0 
     /tmp/ccXFfN6y.s:212    .text:0000000000000124 .L0 
     /tmp/ccXFfN6y.s:214    .text:0000000000000128 .L0 
     /tmp/ccXFfN6y.s:215    .text:0000000000000128 .L0 
     /tmp/ccXFfN6y.s:217    .text:000000000000012c .L0 
     /tmp/ccXFfN6y.s:220    .text:0000000000000130 .L0 
     /tmp/ccXFfN6y.s:223    .text:0000000000000134 .L0 
     /tmp/ccXFfN6y.s:226    .text:0000000000000138 .L0 
     /tmp/ccXFfN6y.s:229    .text:000000000000013c .L0 
     /tmp/ccXFfN6y.s:232    .text:0000000000000140 .L0 
     /tmp/ccXFfN6y.s:234    .text:0000000000000144 .L0 
     /tmp/ccXFfN6y.s:245    .text:0000000000000144 _Z19slab_allocator_initP14buddyAllocator
     /tmp/ccXFfN6y.s:248    .text:0000000000000144 .L0 
     /tmp/ccXFfN6y.s:250    .text:0000000000000144 .L0 
     /tmp/ccXFfN6y.s:251    .text:0000000000000148 .L0 
     /tmp/ccXFfN6y.s:255    .text:0000000000000154 .L0 
     /tmp/ccXFfN6y.s:256    .text:0000000000000154 .L0 
GAS LISTING /tmp/ccXFfN6y.s 			page 71


     /tmp/ccXFfN6y.s:257    .text:0000000000000154 .L0 
     /tmp/ccXFfN6y.s:259    .text:0000000000000158 .L0 
     /tmp/ccXFfN6y.s:261    .text:0000000000000158 .L0 
     /tmp/ccXFfN6y.s:262    .text:0000000000000158 .L0 
     /tmp/ccXFfN6y.s:266    .text:000000000000015c .L0 
     /tmp/ccXFfN6y.s:267    .text:000000000000015c .L0 
     /tmp/ccXFfN6y.s:272    .text:0000000000000164 .L0 
     /tmp/ccXFfN6y.s:273    .text:0000000000000164 .L0 
     /tmp/ccXFfN6y.s:277    .text:0000000000000170 .L0 
     /tmp/ccXFfN6y.s:281    .text:0000000000000174 .L0 
     /tmp/ccXFfN6y.s:285    .text:000000000000017c .L0 
     /tmp/ccXFfN6y.s:286    .text:000000000000017c .L0 
     /tmp/ccXFfN6y.s:297    .text:00000000000001a0 .L0 
     /tmp/ccXFfN6y.s:298    .text:00000000000001a0 .L0 
     /tmp/ccXFfN6y.s:300    .text:00000000000001a8 .L0 
     /tmp/ccXFfN6y.s:302    .text:00000000000001ac .L0 
     /tmp/ccXFfN6y.s:303    .text:00000000000001ac .L0 
     /tmp/ccXFfN6y.s:305    .text:00000000000001b0 .L0 
     /tmp/ccXFfN6y.s:308    .text:00000000000001b4 .L0 
     /tmp/ccXFfN6y.s:310    .text:00000000000001b8 .L0 
     /tmp/ccXFfN6y.s:316    .text:00000000000001b8 _Z13checkSetIndexP6slab_si
     /tmp/ccXFfN6y.s:319    .text:00000000000001b8 .L0 
     /tmp/ccXFfN6y.s:321    .text:00000000000001b8 .L0 
     /tmp/ccXFfN6y.s:322    .text:00000000000001bc .L0 
     /tmp/ccXFfN6y.s:324    .text:00000000000001c0 .L0 
     /tmp/ccXFfN6y.s:326    .text:00000000000001c4 .L0 
     /tmp/ccXFfN6y.s:328    .text:00000000000001c4 .L0 
     /tmp/ccXFfN6y.s:329    .text:00000000000001c4 .L0 
     /tmp/ccXFfN6y.s:335    .text:00000000000001d4 .L0 
     /tmp/ccXFfN6y.s:338    .text:00000000000001d8 .L0 
     /tmp/ccXFfN6y.s:340    .text:00000000000001dc .L0 
     /tmp/ccXFfN6y.s:343    .text:00000000000001e4 .L0 
     /tmp/ccXFfN6y.s:345    .text:00000000000001e8 .L0 
     /tmp/ccXFfN6y.s:347    .text:00000000000001f0 .L0 
     /tmp/ccXFfN6y.s:348    .text:00000000000001f0 .L0 
     /tmp/ccXFfN6y.s:350    .text:00000000000001f4 .L0 
     /tmp/ccXFfN6y.s:352    .text:00000000000001f8 .L0 
     /tmp/ccXFfN6y.s:358    .text:00000000000001f8 _Z17setAllocatedIndexP6slab_si
     /tmp/ccXFfN6y.s:361    .text:00000000000001f8 .L0 
     /tmp/ccXFfN6y.s:363    .text:00000000000001f8 .L0 
     /tmp/ccXFfN6y.s:364    .text:00000000000001fc .L0 
     /tmp/ccXFfN6y.s:366    .text:0000000000000200 .L0 
     /tmp/ccXFfN6y.s:368    .text:0000000000000204 .L0 
     /tmp/ccXFfN6y.s:370    .text:0000000000000204 .L0 
     /tmp/ccXFfN6y.s:371    .text:0000000000000204 .L0 
     /tmp/ccXFfN6y.s:377    .text:0000000000000214 .L0 
     /tmp/ccXFfN6y.s:380    .text:0000000000000218 .L0 
     /tmp/ccXFfN6y.s:382    .text:000000000000021c .L0 
     /tmp/ccXFfN6y.s:385    .text:0000000000000224 .L0 
     /tmp/ccXFfN6y.s:388    .text:000000000000022c .L0 
     /tmp/ccXFfN6y.s:390    .text:0000000000000230 .L0 
     /tmp/ccXFfN6y.s:392    .text:0000000000000234 .L0 
     /tmp/ccXFfN6y.s:393    .text:0000000000000238 .L0 
     /tmp/ccXFfN6y.s:394    .text:0000000000000238 .L0 
     /tmp/ccXFfN6y.s:396    .text:000000000000023c .L0 
     /tmp/ccXFfN6y.s:398    .text:0000000000000240 .L0 
     /tmp/ccXFfN6y.s:404    .text:0000000000000240 _Z14allocateObjectP6slab_s
GAS LISTING /tmp/ccXFfN6y.s 			page 72


     /tmp/ccXFfN6y.s:407    .text:0000000000000240 .L0 
     /tmp/ccXFfN6y.s:409    .text:0000000000000240 .L0 
     /tmp/ccXFfN6y.s:410    .text:0000000000000244 .L0 
     /tmp/ccXFfN6y.s:416    .text:0000000000000258 .L0 
     /tmp/ccXFfN6y.s:417    .text:0000000000000258 .L0 
     /tmp/ccXFfN6y.s:418    .text:0000000000000258 .L0 
     /tmp/ccXFfN6y.s:419    .text:0000000000000258 .L0 
     /tmp/ccXFfN6y.s:420    .text:0000000000000258 .L0 
     /tmp/ccXFfN6y.s:422    .text:000000000000025c .L0 
     /tmp/ccXFfN6y.s:425    .text:0000000000000260 .L0 
     /tmp/ccXFfN6y.s:428    .text:0000000000000264 .L0 
     /tmp/ccXFfN6y.s:432    .text:0000000000000268 .L0 
     /tmp/ccXFfN6y.s:433    .text:0000000000000268 .L0 
     /tmp/ccXFfN6y.s:435    .text:000000000000026c .L0 
     /tmp/ccXFfN6y.s:437    .text:0000000000000270 .L0 
     /tmp/ccXFfN6y.s:438    .text:0000000000000270 .L0 
     /tmp/ccXFfN6y.s:444    .text:0000000000000284 .L0 
     /tmp/ccXFfN6y.s:446    .text:0000000000000288 .L0 
     /tmp/ccXFfN6y.s:451    .text:0000000000000290 .L0 
     /tmp/ccXFfN6y.s:452    .text:0000000000000290 .L0 
     /tmp/ccXFfN6y.s:454    .text:0000000000000294 .L0 
     /tmp/ccXFfN6y.s:456    .text:0000000000000298 .L0 
     /tmp/ccXFfN6y.s:459    .text:000000000000029c .L0 
     /tmp/ccXFfN6y.s:463    .text:00000000000002a4 .L0 
     /tmp/ccXFfN6y.s:464    .text:00000000000002a4 .L0 
     /tmp/ccXFfN6y.s:469    .text:00000000000002a8 .L0 
     /tmp/ccXFfN6y.s:472    .text:00000000000002ac .L0 
     /tmp/ccXFfN6y.s:476    .text:00000000000002b0 .L0 
     /tmp/ccXFfN6y.s:478    .text:00000000000002b4 .L0 
     /tmp/ccXFfN6y.s:479    .text:00000000000002b4 .L0 
     /tmp/ccXFfN6y.s:484    .text:00000000000002c4 .L0 
     /tmp/ccXFfN6y.s:485    .text:00000000000002c4 .L0 
     /tmp/ccXFfN6y.s:487    .text:00000000000002c8 .L0 
     /tmp/ccXFfN6y.s:492    .text:00000000000002d0 .L0 
     /tmp/ccXFfN6y.s:493    .text:00000000000002d0 .L0 
     /tmp/ccXFfN6y.s:495    .text:00000000000002d8 .L0 
     /tmp/ccXFfN6y.s:496    .text:00000000000002d8 .L0 
     /tmp/ccXFfN6y.s:498    .text:00000000000002dc .L0 
     /tmp/ccXFfN6y.s:499    .text:00000000000002dc .L0 
     /tmp/ccXFfN6y.s:501    .text:00000000000002e0 .L0 
     /tmp/ccXFfN6y.s:503    .text:00000000000002e4 .L0 
     /tmp/ccXFfN6y.s:506    .text:00000000000002e8 .L0 
     /tmp/ccXFfN6y.s:508    .text:00000000000002ec .L0 
     /tmp/ccXFfN6y.s:512    .text:00000000000002f0 .L0 
     /tmp/ccXFfN6y.s:514    .text:00000000000002f0 .L0 
     /tmp/ccXFfN6y.s:516    .text:00000000000002f8 .L0 
     /tmp/ccXFfN6y.s:522    .text:00000000000002f8 _Z4fullP6slab_s
     /tmp/ccXFfN6y.s:525    .text:00000000000002f8 .L0 
     /tmp/ccXFfN6y.s:527    .text:00000000000002f8 .L0 
     /tmp/ccXFfN6y.s:528    .text:00000000000002fc .L0 
     /tmp/ccXFfN6y.s:530    .text:0000000000000300 .L0 
     /tmp/ccXFfN6y.s:532    .text:0000000000000304 .L0 
     /tmp/ccXFfN6y.s:534    .text:0000000000000304 .L0 
     /tmp/ccXFfN6y.s:535    .text:0000000000000304 .L0 
     /tmp/ccXFfN6y.s:537    .text:0000000000000308 .L0 
     /tmp/ccXFfN6y.s:541    .text:0000000000000310 .L0 
     /tmp/ccXFfN6y.s:543    .text:0000000000000318 .L0 
GAS LISTING /tmp/ccXFfN6y.s 			page 73


     /tmp/ccXFfN6y.s:544    .text:0000000000000318 .L0 
     /tmp/ccXFfN6y.s:546    .text:000000000000031c .L0 
     /tmp/ccXFfN6y.s:548    .text:0000000000000320 .L0 
     /tmp/ccXFfN6y.s:554    .text:0000000000000320 _Z5emptyP6slab_s
     /tmp/ccXFfN6y.s:557    .text:0000000000000320 .L0 
     /tmp/ccXFfN6y.s:559    .text:0000000000000320 .L0 
     /tmp/ccXFfN6y.s:560    .text:0000000000000324 .L0 
     /tmp/ccXFfN6y.s:562    .text:0000000000000328 .L0 
     /tmp/ccXFfN6y.s:564    .text:000000000000032c .L0 
     /tmp/ccXFfN6y.s:566    .text:000000000000032c .L0 
     /tmp/ccXFfN6y.s:567    .text:000000000000032c .L0 
     /tmp/ccXFfN6y.s:570    .text:0000000000000330 .L0 
     /tmp/ccXFfN6y.s:572    .text:0000000000000338 .L0 
     /tmp/ccXFfN6y.s:573    .text:0000000000000338 .L0 
     /tmp/ccXFfN6y.s:575    .text:000000000000033c .L0 
     /tmp/ccXFfN6y.s:577    .text:0000000000000340 .L0 
     /tmp/ccXFfN6y.s:583    .text:0000000000000340 _Z18insertIntoSlabListP6slab_sPS0_
     /tmp/ccXFfN6y.s:586    .text:0000000000000340 .L0 
     /tmp/ccXFfN6y.s:588    .text:0000000000000340 .L0 
     /tmp/ccXFfN6y.s:589    .text:0000000000000344 .L0 
     /tmp/ccXFfN6y.s:591    .text:0000000000000348 .L0 
     /tmp/ccXFfN6y.s:593    .text:000000000000034c .L0 
     /tmp/ccXFfN6y.s:595    .text:000000000000034c .L0 
     /tmp/ccXFfN6y.s:597    .text:0000000000000350 .L0 
     /tmp/ccXFfN6y.s:598    .text:0000000000000350 .L0 
     /tmp/ccXFfN6y.s:600    .text:0000000000000354 .L0 
     /tmp/ccXFfN6y.s:601    .text:0000000000000354 .L0 
     /tmp/ccXFfN6y.s:603    .text:0000000000000358 .L0 
     /tmp/ccXFfN6y.s:605    .text:000000000000035c .L0 
     /tmp/ccXFfN6y.s:607    .text:0000000000000360 .L0 
     /tmp/ccXFfN6y.s:608    .text:0000000000000360 .L0 
     /tmp/ccXFfN6y.s:611    .text:0000000000000364 .L0 
     /tmp/ccXFfN6y.s:612    .text:0000000000000364 .L0 
     /tmp/ccXFfN6y.s:615    .text:0000000000000368 .L0 
     /tmp/ccXFfN6y.s:616    .text:000000000000036c .L0 
     /tmp/ccXFfN6y.s:617    .text:000000000000036c .L0 
     /tmp/ccXFfN6y.s:619    .text:0000000000000370 .L0 
     /tmp/ccXFfN6y.s:621    .text:0000000000000374 .L0 
     /tmp/ccXFfN6y.s:627    .text:0000000000000374 _Z18removeFromSlabListP6slab_sPS0_
     /tmp/ccXFfN6y.s:630    .text:0000000000000374 .L0 
     /tmp/ccXFfN6y.s:632    .text:0000000000000374 .L0 
     /tmp/ccXFfN6y.s:633    .text:0000000000000378 .L0 
     /tmp/ccXFfN6y.s:635    .text:000000000000037c .L0 
     /tmp/ccXFfN6y.s:637    .text:0000000000000380 .L0 
     /tmp/ccXFfN6y.s:639    .text:0000000000000380 .L0 
     /tmp/ccXFfN6y.s:640    .text:0000000000000380 .L0 
     /tmp/ccXFfN6y.s:642    .text:0000000000000384 .L0 
     /tmp/ccXFfN6y.s:644    .text:0000000000000388 .L0 
     /tmp/ccXFfN6y.s:645    .text:0000000000000388 .L0 
     /tmp/ccXFfN6y.s:647    .text:000000000000038c .L0 
     /tmp/ccXFfN6y.s:649    .text:0000000000000390 .L0 
     /tmp/ccXFfN6y.s:651    .text:0000000000000394 .L0 
     /tmp/ccXFfN6y.s:652    .text:0000000000000394 .L0 
     /tmp/ccXFfN6y.s:654    .text:0000000000000398 .L0 
     /tmp/ccXFfN6y.s:657    .text:000000000000039c .L0 
     /tmp/ccXFfN6y.s:658    .text:000000000000039c .L0 
     /tmp/ccXFfN6y.s:660    .text:00000000000003a0 .L0 
GAS LISTING /tmp/ccXFfN6y.s 			page 74


     /tmp/ccXFfN6y.s:663    .text:00000000000003a4 .L0 
     /tmp/ccXFfN6y.s:664    .text:00000000000003a8 .L0 
     /tmp/ccXFfN6y.s:665    .text:00000000000003a8 .L0 
     /tmp/ccXFfN6y.s:666    .text:00000000000003a8 .L0 
     /tmp/ccXFfN6y.s:668    .text:00000000000003ac .L0 
     /tmp/ccXFfN6y.s:671    .text:00000000000003b0 .L0 
     /tmp/ccXFfN6y.s:673    .text:00000000000003b0 .L0 
     /tmp/ccXFfN6y.s:674    .text:00000000000003b0 .L0 
     /tmp/ccXFfN6y.s:676    .text:00000000000003b4 .L0 
     /tmp/ccXFfN6y.s:678    .text:00000000000003b8 .L0 
     /tmp/ccXFfN6y.s:679    .text:00000000000003b8 .L0 
     /tmp/ccXFfN6y.s:682    .text:00000000000003bc .L0 
     /tmp/ccXFfN6y.s:683    .text:00000000000003bc .L0 
     /tmp/ccXFfN6y.s:685    .text:00000000000003c0 .L0 
     /tmp/ccXFfN6y.s:687    .text:00000000000003c4 .L0 
     /tmp/ccXFfN6y.s:688    .text:00000000000003c4 .L0 
     /tmp/ccXFfN6y.s:690    .text:00000000000003c8 .L0 
     /tmp/ccXFfN6y.s:692    .text:00000000000003d0 .L0 
     /tmp/ccXFfN6y.s:698    .text:00000000000003d0 _Z16putPartialToFullP12kmem_cache_s
     /tmp/ccXFfN6y.s:701    .text:00000000000003d0 .L0 
     /tmp/ccXFfN6y.s:703    .text:00000000000003d0 .L0 
     /tmp/ccXFfN6y.s:704    .text:00000000000003d4 .L0 
     /tmp/ccXFfN6y.s:709    .text:00000000000003e4 .L0 
     /tmp/ccXFfN6y.s:710    .text:00000000000003e4 .L0 
     /tmp/ccXFfN6y.s:711    .text:00000000000003e4 .L0 
     /tmp/ccXFfN6y.s:712    .text:00000000000003e4 .L0 
     /tmp/ccXFfN6y.s:714    .text:00000000000003e8 .L0 
     /tmp/ccXFfN6y.s:717    .text:00000000000003ec .L0 
     /tmp/ccXFfN6y.s:718    .text:00000000000003ec .L0 
     /tmp/ccXFfN6y.s:721    .text:00000000000003f0 .L0 
     /tmp/ccXFfN6y.s:722    .text:00000000000003f0 .L0 
     /tmp/ccXFfN6y.s:728    .text:0000000000000400 .L0 
     /tmp/ccXFfN6y.s:729    .text:0000000000000400 .L0 
     /tmp/ccXFfN6y.s:734    .text:0000000000000410 .L0 
     /tmp/ccXFfN6y.s:735    .text:0000000000000414 .L0 
     /tmp/ccXFfN6y.s:737    .text:0000000000000418 .L0 
     /tmp/ccXFfN6y.s:738    .text:0000000000000418 .L0 
     /tmp/ccXFfN6y.s:740    .text:000000000000041c .L0 
     /tmp/ccXFfN6y.s:743    .text:0000000000000420 .L0 
     /tmp/ccXFfN6y.s:746    .text:0000000000000424 .L0 
     /tmp/ccXFfN6y.s:748    .text:0000000000000428 .L0 
     /tmp/ccXFfN6y.s:754    .text:0000000000000428 _Z17putEmptyToPartialP12kmem_cache_s
     /tmp/ccXFfN6y.s:757    .text:0000000000000428 .L0 
     /tmp/ccXFfN6y.s:759    .text:0000000000000428 .L0 
     /tmp/ccXFfN6y.s:760    .text:000000000000042c .L0 
     /tmp/ccXFfN6y.s:765    .text:000000000000043c .L0 
     /tmp/ccXFfN6y.s:766    .text:000000000000043c .L0 
     /tmp/ccXFfN6y.s:767    .text:000000000000043c .L0 
     /tmp/ccXFfN6y.s:768    .text:000000000000043c .L0 
     /tmp/ccXFfN6y.s:770    .text:0000000000000440 .L0 
     /tmp/ccXFfN6y.s:773    .text:0000000000000444 .L0 
     /tmp/ccXFfN6y.s:774    .text:0000000000000444 .L0 
     /tmp/ccXFfN6y.s:777    .text:0000000000000448 .L0 
     /tmp/ccXFfN6y.s:778    .text:0000000000000448 .L0 
     /tmp/ccXFfN6y.s:784    .text:0000000000000458 .L0 
     /tmp/ccXFfN6y.s:785    .text:0000000000000458 .L0 
     /tmp/ccXFfN6y.s:790    .text:0000000000000468 .L0 
GAS LISTING /tmp/ccXFfN6y.s 			page 75


     /tmp/ccXFfN6y.s:791    .text:000000000000046c .L0 
     /tmp/ccXFfN6y.s:793    .text:0000000000000470 .L0 
     /tmp/ccXFfN6y.s:794    .text:0000000000000470 .L0 
     /tmp/ccXFfN6y.s:796    .text:0000000000000474 .L0 
     /tmp/ccXFfN6y.s:799    .text:0000000000000478 .L0 
     /tmp/ccXFfN6y.s:802    .text:000000000000047c .L0 
     /tmp/ccXFfN6y.s:804    .text:0000000000000480 .L0 
     /tmp/ccXFfN6y.s:810    .text:0000000000000480 _Z14removeFullSlabP12kmem_cache_sP6slab_s
     /tmp/ccXFfN6y.s:813    .text:0000000000000480 .L0 
     /tmp/ccXFfN6y.s:815    .text:0000000000000480 .L0 
     /tmp/ccXFfN6y.s:816    .text:0000000000000484 .L0 
     /tmp/ccXFfN6y.s:821    .text:0000000000000494 .L0 
     /tmp/ccXFfN6y.s:822    .text:0000000000000494 .L0 
     /tmp/ccXFfN6y.s:823    .text:0000000000000494 .L0 
     /tmp/ccXFfN6y.s:824    .text:0000000000000494 .L0 
     /tmp/ccXFfN6y.s:826    .text:0000000000000498 .L0 
     /tmp/ccXFfN6y.s:830    .text:00000000000004a0 .L0 
     /tmp/ccXFfN6y.s:831    .text:00000000000004a0 .L0 
     /tmp/ccXFfN6y.s:838    .text:00000000000004b0 .L0 
     /tmp/ccXFfN6y.s:839    .text:00000000000004b0 .L0 
     /tmp/ccXFfN6y.s:844    .text:00000000000004c0 .L0 
     /tmp/ccXFfN6y.s:845    .text:00000000000004c4 .L0 
     /tmp/ccXFfN6y.s:847    .text:00000000000004c8 .L0 
     /tmp/ccXFfN6y.s:848    .text:00000000000004c8 .L0 
     /tmp/ccXFfN6y.s:850    .text:00000000000004cc .L0 
     /tmp/ccXFfN6y.s:853    .text:00000000000004d0 .L0 
     /tmp/ccXFfN6y.s:856    .text:00000000000004d4 .L0 
     /tmp/ccXFfN6y.s:858    .text:00000000000004d8 .L0 
     /tmp/ccXFfN6y.s:864    .text:00000000000004d8 _Z17removePartialSlabP12kmem_cache_sP6slab_s
     /tmp/ccXFfN6y.s:867    .text:00000000000004d8 .L0 
     /tmp/ccXFfN6y.s:869    .text:00000000000004d8 .L0 
     /tmp/ccXFfN6y.s:870    .text:00000000000004dc .L0 
     /tmp/ccXFfN6y.s:875    .text:00000000000004ec .L0 
     /tmp/ccXFfN6y.s:876    .text:00000000000004ec .L0 
     /tmp/ccXFfN6y.s:877    .text:00000000000004ec .L0 
     /tmp/ccXFfN6y.s:878    .text:00000000000004ec .L0 
     /tmp/ccXFfN6y.s:880    .text:00000000000004f0 .L0 
     /tmp/ccXFfN6y.s:884    .text:00000000000004f8 .L0 
     /tmp/ccXFfN6y.s:885    .text:00000000000004f8 .L0 
     /tmp/ccXFfN6y.s:892    .text:0000000000000508 .L0 
     /tmp/ccXFfN6y.s:893    .text:0000000000000508 .L0 
     /tmp/ccXFfN6y.s:898    .text:0000000000000518 .L0 
     /tmp/ccXFfN6y.s:899    .text:000000000000051c .L0 
     /tmp/ccXFfN6y.s:901    .text:0000000000000520 .L0 
     /tmp/ccXFfN6y.s:902    .text:0000000000000520 .L0 
     /tmp/ccXFfN6y.s:904    .text:0000000000000524 .L0 
     /tmp/ccXFfN6y.s:907    .text:0000000000000528 .L0 
     /tmp/ccXFfN6y.s:910    .text:000000000000052c .L0 
     /tmp/ccXFfN6y.s:912    .text:0000000000000530 .L0 
     /tmp/ccXFfN6y.s:918    .text:0000000000000530 _Z12allocateSlabP12kmem_cache_s
     /tmp/ccXFfN6y.s:921    .text:0000000000000530 .L0 
     /tmp/ccXFfN6y.s:923    .text:0000000000000530 .L0 
     /tmp/ccXFfN6y.s:924    .text:0000000000000534 .L0 
     /tmp/ccXFfN6y.s:930    .text:0000000000000548 .L0 
     /tmp/ccXFfN6y.s:931    .text:0000000000000548 .L0 
     /tmp/ccXFfN6y.s:932    .text:0000000000000548 .L0 
     /tmp/ccXFfN6y.s:933    .text:0000000000000548 .L0 
GAS LISTING /tmp/ccXFfN6y.s 			page 76


     /tmp/ccXFfN6y.s:934    .text:0000000000000548 .L0 
     /tmp/ccXFfN6y.s:936    .text:000000000000054c .L0 
     /tmp/ccXFfN6y.s:939    .text:0000000000000550 .L0 
     /tmp/ccXFfN6y.s:940    .text:0000000000000550 .L0 
     /tmp/ccXFfN6y.s:945    .text:000000000000055c .L0 
     /tmp/ccXFfN6y.s:948    .text:0000000000000564 .L0 
     /tmp/ccXFfN6y.s:949    .text:0000000000000564 .L0 
     /tmp/ccXFfN6y.s:951    .text:0000000000000568 .L0 
     /tmp/ccXFfN6y.s:953    .text:000000000000056c .L0 
     /tmp/ccXFfN6y.s:955    .text:0000000000000570 .L0 
     /tmp/ccXFfN6y.s:956    .text:0000000000000570 .L0 
     /tmp/ccXFfN6y.s:960    .text:0000000000000574 .L0 
     /tmp/ccXFfN6y.s:961    .text:0000000000000574 .L0 
     /tmp/ccXFfN6y.s:963    .text:0000000000000578 .L0 
     /tmp/ccXFfN6y.s:964    .text:0000000000000578 .L0 
     /tmp/ccXFfN6y.s:966    .text:000000000000057c .L0 
     /tmp/ccXFfN6y.s:967    .text:000000000000057c .L0 
     /tmp/ccXFfN6y.s:969    .text:0000000000000580 .L0 
     /tmp/ccXFfN6y.s:970    .text:0000000000000580 .L0 
     /tmp/ccXFfN6y.s:972    .text:0000000000000584 .L0 
     /tmp/ccXFfN6y.s:973    .text:0000000000000584 .L0 
     /tmp/ccXFfN6y.s:975    .text:0000000000000588 .L0 
     /tmp/ccXFfN6y.s:978    .text:000000000000058c .L0 
     /tmp/ccXFfN6y.s:979    .text:000000000000058c .L0 
     /tmp/ccXFfN6y.s:982    .text:0000000000000590 .L0 
     /tmp/ccXFfN6y.s:984    .text:0000000000000594 .L0 
     /tmp/ccXFfN6y.s:987    .text:0000000000000598 .L0 
     /tmp/ccXFfN6y.s:991    .text:000000000000059c .L0 
     /tmp/ccXFfN6y.s:992    .text:000000000000059c .L0 
     /tmp/ccXFfN6y.s:996    .text:00000000000005a0 .L0 
     /tmp/ccXFfN6y.s:997    .text:00000000000005a0 .L0 
     /tmp/ccXFfN6y.s:999    .text:00000000000005a4 .L0 
     /tmp/ccXFfN6y.s:1001   .text:00000000000005a8 .L0 
     /tmp/ccXFfN6y.s:1003   .text:00000000000005ac .L0 
     /tmp/ccXFfN6y.s:1004   .text:00000000000005ac .L0 
     /tmp/ccXFfN6y.s:1007   .text:00000000000005b4 .L0 
     /tmp/ccXFfN6y.s:1014   .text:00000000000005bc .L0 
     /tmp/ccXFfN6y.s:1015   .text:00000000000005bc .L0 
     /tmp/ccXFfN6y.s:1017   .text:00000000000005c0 .L0 
     /tmp/ccXFfN6y.s:1020   .text:00000000000005c4 .L0 
     /tmp/ccXFfN6y.s:1024   .text:00000000000005c8 .L0 
     /tmp/ccXFfN6y.s:1025   .text:00000000000005c8 .L0 
     /tmp/ccXFfN6y.s:1027   .text:00000000000005cc .L0 
     /tmp/ccXFfN6y.s:1029   .text:00000000000005d0 .L0 
     /tmp/ccXFfN6y.s:1030   .text:00000000000005d0 .L0 
     /tmp/ccXFfN6y.s:1032   .text:00000000000005d4 .L0 
     /tmp/ccXFfN6y.s:1034   .text:00000000000005d8 .L0 
     /tmp/ccXFfN6y.s:1036   .text:00000000000005dc .L0 
     /tmp/ccXFfN6y.s:1038   .text:00000000000005e0 .L0 
     /tmp/ccXFfN6y.s:1040   .text:00000000000005e4 .L0 
     /tmp/ccXFfN6y.s:1044   .text:00000000000005ec .L0 
     /tmp/ccXFfN6y.s:1052   .text:00000000000005f4 .L0 
     /tmp/ccXFfN6y.s:1053   .text:00000000000005f8 .L0 
     /tmp/ccXFfN6y.s:1055   .text:00000000000005fc .L0 
     /tmp/ccXFfN6y.s:1056   .text:00000000000005fc .L0 
     /tmp/ccXFfN6y.s:1058   .text:0000000000000600 .L0 
     /tmp/ccXFfN6y.s:1060   .text:0000000000000604 .L0 
GAS LISTING /tmp/ccXFfN6y.s 			page 77


     /tmp/ccXFfN6y.s:1062   .text:0000000000000608 .L0 
     /tmp/ccXFfN6y.s:1065   .text:000000000000060c .L0 
     /tmp/ccXFfN6y.s:1067   .text:0000000000000610 .L0 
     /tmp/ccXFfN6y.s:1073   .text:0000000000000610 _Z18getOptimalSlabSizem
     /tmp/ccXFfN6y.s:1076   .text:0000000000000610 .L0 
     /tmp/ccXFfN6y.s:1078   .text:0000000000000610 .L0 
     /tmp/ccXFfN6y.s:1079   .text:0000000000000614 .L0 
     /tmp/ccXFfN6y.s:1081   .text:0000000000000618 .L0 
     /tmp/ccXFfN6y.s:1083   .text:000000000000061c .L0 
     /tmp/ccXFfN6y.s:1086   .text:000000000000061c .L0 
     /tmp/ccXFfN6y.s:1087   .text:000000000000061c .L0 
     /tmp/ccXFfN6y.s:1091   .text:0000000000000620 .L0 
     /tmp/ccXFfN6y.s:1092   .text:0000000000000620 .L0 
     /tmp/ccXFfN6y.s:1093   .text:0000000000000620 .L0 
     /tmp/ccXFfN6y.s:1095   .text:0000000000000624 .L0 
     /tmp/ccXFfN6y.s:1097   .text:0000000000000628 .L0 
     /tmp/ccXFfN6y.s:1098   .text:0000000000000628 .L0 
     /tmp/ccXFfN6y.s:1101   .text:000000000000062c .L0 
     /tmp/ccXFfN6y.s:1104   .text:0000000000000630 .L0 
     /tmp/ccXFfN6y.s:1105   .text:0000000000000630 .L0 
     /tmp/ccXFfN6y.s:1107   .text:0000000000000634 .L0 
     /tmp/ccXFfN6y.s:1110   .text:0000000000000638 .L0 
     /tmp/ccXFfN6y.s:1111   .text:0000000000000638 .L0 
     /tmp/ccXFfN6y.s:1112   .text:0000000000000638 .L0 
     /tmp/ccXFfN6y.s:1113   .text:0000000000000638 .L0 
     /tmp/ccXFfN6y.s:1114   .text:0000000000000638 .L0 
     /tmp/ccXFfN6y.s:1117   .text:000000000000063c .L0 
     /tmp/ccXFfN6y.s:1122   .text:0000000000000644 .L0 
     /tmp/ccXFfN6y.s:1126   .text:0000000000000648 .L0 
     /tmp/ccXFfN6y.s:1130   .text:0000000000000650 .L0 
     /tmp/ccXFfN6y.s:1131   .text:0000000000000650 .L0 
     /tmp/ccXFfN6y.s:1134   .text:0000000000000654 .L0 
     /tmp/ccXFfN6y.s:1135   .text:0000000000000654 .L0 
     /tmp/ccXFfN6y.s:1137   .text:0000000000000658 .L0 
     /tmp/ccXFfN6y.s:1140   .text:000000000000065c .L0 
     /tmp/ccXFfN6y.s:1141   .text:000000000000065c .L0 
     /tmp/ccXFfN6y.s:1144   .text:0000000000000660 .L0 
     /tmp/ccXFfN6y.s:1146   .text:0000000000000664 .L0 
     /tmp/ccXFfN6y.s:1149   .text:000000000000066c .L0 
     /tmp/ccXFfN6y.s:1152   .text:0000000000000670 .L0 
     /tmp/ccXFfN6y.s:1160   .text:0000000000000678 .L0 
     /tmp/ccXFfN6y.s:1161   .text:0000000000000678 .L0 
     /tmp/ccXFfN6y.s:1164   .text:0000000000000680 .L0 
     /tmp/ccXFfN6y.s:1165   .text:0000000000000680 .L0 
     /tmp/ccXFfN6y.s:1167   .text:0000000000000684 .L0 
     /tmp/ccXFfN6y.s:1169   .text:0000000000000688 .L0 
     /tmp/ccXFfN6y.s:1175   .text:0000000000000688 _Z8findSlabP12kmem_cache_sPKv
     /tmp/ccXFfN6y.s:1178   .text:0000000000000688 .L0 
     /tmp/ccXFfN6y.s:1180   .text:0000000000000688 .L0 
     /tmp/ccXFfN6y.s:1181   .text:000000000000068c .L0 
     /tmp/ccXFfN6y.s:1183   .text:0000000000000690 .L0 
     /tmp/ccXFfN6y.s:1185   .text:0000000000000694 .L0 
     /tmp/ccXFfN6y.s:1188   .text:0000000000000698 .L0 
     /tmp/ccXFfN6y.s:1190   .text:000000000000069c .L0 
     /tmp/ccXFfN6y.s:1192   .text:00000000000006a0 .L0 
     /tmp/ccXFfN6y.s:1193   .text:00000000000006a0 .L0 
     /tmp/ccXFfN6y.s:1200   .text:00000000000006a8 .L0 
GAS LISTING /tmp/ccXFfN6y.s 			page 78


     /tmp/ccXFfN6y.s:1201   .text:00000000000006a8 .L0 
     /tmp/ccXFfN6y.s:1206   .text:00000000000006ac .L0 
     /tmp/ccXFfN6y.s:1207   .text:00000000000006ac .L0 
     /tmp/ccXFfN6y.s:1210   .text:00000000000006b0 .L0 
     /tmp/ccXFfN6y.s:1211   .text:00000000000006b0 .L0 
     /tmp/ccXFfN6y.s:1213   .text:00000000000006b4 .L0 
     /tmp/ccXFfN6y.s:1215   .text:00000000000006b8 .L0 
     /tmp/ccXFfN6y.s:1217   .text:00000000000006bc .L0 
     /tmp/ccXFfN6y.s:1219   .text:00000000000006c0 .L0 
     /tmp/ccXFfN6y.s:1221   .text:00000000000006c4 .L0 
     /tmp/ccXFfN6y.s:1224   .text:00000000000006c8 .L0 
     /tmp/ccXFfN6y.s:1226   .text:00000000000006cc .L0 
     /tmp/ccXFfN6y.s:1231   .text:00000000000006d0 .L0 
     /tmp/ccXFfN6y.s:1232   .text:00000000000006d4 .L0 
     /tmp/ccXFfN6y.s:1233   .text:00000000000006d4 .L0 
     /tmp/ccXFfN6y.s:1234   .text:00000000000006d4 .L0 
     /tmp/ccXFfN6y.s:1236   .text:00000000000006d8 .L0 
     /tmp/ccXFfN6y.s:1240   .text:00000000000006dc .L0 
     /tmp/ccXFfN6y.s:1242   .text:00000000000006dc .L0 
     /tmp/ccXFfN6y.s:1243   .text:00000000000006dc .L0 
     /tmp/ccXFfN6y.s:1250   .text:00000000000006e4 .L0 
     /tmp/ccXFfN6y.s:1251   .text:00000000000006e4 .L0 
     /tmp/ccXFfN6y.s:1256   .text:00000000000006e8 .L0 
     /tmp/ccXFfN6y.s:1257   .text:00000000000006e8 .L0 
     /tmp/ccXFfN6y.s:1260   .text:00000000000006ec .L0 
     /tmp/ccXFfN6y.s:1261   .text:00000000000006ec .L0 
     /tmp/ccXFfN6y.s:1263   .text:00000000000006f0 .L0 
     /tmp/ccXFfN6y.s:1265   .text:00000000000006f4 .L0 
     /tmp/ccXFfN6y.s:1267   .text:00000000000006f8 .L0 
     /tmp/ccXFfN6y.s:1269   .text:00000000000006fc .L0 
     /tmp/ccXFfN6y.s:1271   .text:0000000000000700 .L0 
     /tmp/ccXFfN6y.s:1274   .text:0000000000000704 .L0 
     /tmp/ccXFfN6y.s:1276   .text:0000000000000708 .L0 
     /tmp/ccXFfN6y.s:1282   .text:0000000000000710 .L0 
     /tmp/ccXFfN6y.s:1285   .text:0000000000000718 .L0 
     /tmp/ccXFfN6y.s:1291   .text:0000000000000718 _Z19resetAllocatedIndexP6slab_si
     /tmp/ccXFfN6y.s:1294   .text:0000000000000718 .L0 
     /tmp/ccXFfN6y.s:1296   .text:0000000000000718 .L0 
     /tmp/ccXFfN6y.s:1297   .text:000000000000071c .L0 
     /tmp/ccXFfN6y.s:1299   .text:0000000000000720 .L0 
     /tmp/ccXFfN6y.s:1301   .text:0000000000000724 .L0 
     /tmp/ccXFfN6y.s:1303   .text:0000000000000724 .L0 
     /tmp/ccXFfN6y.s:1304   .text:0000000000000724 .L0 
     /tmp/ccXFfN6y.s:1310   .text:0000000000000734 .L0 
     /tmp/ccXFfN6y.s:1313   .text:0000000000000738 .L0 
     /tmp/ccXFfN6y.s:1315   .text:000000000000073c .L0 
     /tmp/ccXFfN6y.s:1318   .text:0000000000000744 .L0 
     /tmp/ccXFfN6y.s:1321   .text:000000000000074c .L0 
     /tmp/ccXFfN6y.s:1324   .text:0000000000000754 .L0 
     /tmp/ccXFfN6y.s:1326   .text:0000000000000758 .L0 
     /tmp/ccXFfN6y.s:1327   .text:000000000000075c .L0 
     /tmp/ccXFfN6y.s:1328   .text:000000000000075c .L0 
     /tmp/ccXFfN6y.s:1330   .text:0000000000000760 .L0 
     /tmp/ccXFfN6y.s:1332   .text:0000000000000764 .L0 
     /tmp/ccXFfN6y.s:1352   .text:0000000000000764 _Z13printSlabInfoP6slab_s
     /tmp/ccXFfN6y.s:1355   .text:0000000000000764 .L0 
     /tmp/ccXFfN6y.s:1357   .text:0000000000000764 .L0 
GAS LISTING /tmp/ccXFfN6y.s 			page 79


     /tmp/ccXFfN6y.s:1358   .text:0000000000000768 .L0 
     /tmp/ccXFfN6y.s:1362   .text:0000000000000774 .L0 
     /tmp/ccXFfN6y.s:1363   .text:0000000000000774 .L0 
     /tmp/ccXFfN6y.s:1364   .text:0000000000000774 .L0 
     /tmp/ccXFfN6y.s:1366   .text:0000000000000778 .L0 
     /tmp/ccXFfN6y.s:1369   .text:000000000000077c .L0 
     /tmp/ccXFfN6y.s:1370   .text:000000000000077c .L0 
     /tmp/ccXFfN6y.s:1375   .text:000000000000078c .L0 
     /tmp/ccXFfN6y.s:1376   .text:000000000000078c .L0 
     /tmp/ccXFfN6y.s:1382   .text:00000000000007a4 .L0 
     /tmp/ccXFfN6y.s:1383   .text:00000000000007a4 .L0 
     /tmp/ccXFfN6y.s:1389   .text:00000000000007bc .L0 
     /tmp/ccXFfN6y.s:1390   .text:00000000000007bc .L0 
     /tmp/ccXFfN6y.s:1396   .text:00000000000007d4 .L0 
     /tmp/ccXFfN6y.s:1397   .text:00000000000007d8 .L0 
     /tmp/ccXFfN6y.s:1399   .text:00000000000007dc .L0 
     /tmp/ccXFfN6y.s:1400   .text:00000000000007dc .L0 
     /tmp/ccXFfN6y.s:1402   .text:00000000000007e0 .L0 
     /tmp/ccXFfN6y.s:1405   .text:00000000000007e4 .L0 
     /tmp/ccXFfN6y.s:1407   .text:00000000000007e8 .L0 
     /tmp/ccXFfN6y.s:1413   .text:00000000000007e8 _Z16free_slab_objectP6slab_sPKv
     /tmp/ccXFfN6y.s:1416   .text:00000000000007e8 .L0 
     /tmp/ccXFfN6y.s:1418   .text:00000000000007e8 .L0 
     /tmp/ccXFfN6y.s:1419   .text:00000000000007e8 .L0 
     /tmp/ccXFfN6y.s:1421   .text:00000000000007ec .L0 
     /tmp/ccXFfN6y.s:1422   .text:00000000000007f0 .L0 
     /tmp/ccXFfN6y.s:1429   .text:0000000000000808 .L0 
     /tmp/ccXFfN6y.s:1430   .text:0000000000000808 .L0 
     /tmp/ccXFfN6y.s:1431   .text:0000000000000808 .L0 
     /tmp/ccXFfN6y.s:1432   .text:0000000000000808 .L0 
     /tmp/ccXFfN6y.s:1433   .text:0000000000000808 .L0 
     /tmp/ccXFfN6y.s:1434   .text:0000000000000808 .L0 
     /tmp/ccXFfN6y.s:1436   .text:000000000000080c .L0 
     /tmp/ccXFfN6y.s:1440   .text:0000000000000814 .L0 
     /tmp/ccXFfN6y.s:1442   .text:0000000000000818 .L0 
     /tmp/ccXFfN6y.s:1443   .text:0000000000000818 .L0 
     /tmp/ccXFfN6y.s:1446   .text:0000000000000820 .L0 
     /tmp/ccXFfN6y.s:1448   .text:0000000000000824 .L0 
     /tmp/ccXFfN6y.s:1450   .text:0000000000000828 .L0 
     /tmp/ccXFfN6y.s:1452   .text:000000000000082c .L0 
     /tmp/ccXFfN6y.s:1455   .text:0000000000000830 .L0 
     /tmp/ccXFfN6y.s:1456   .text:0000000000000830 .L0 
     /tmp/ccXFfN6y.s:1458   .text:0000000000000834 .L0 
     /tmp/ccXFfN6y.s:1461   .text:000000000000083c .L0 
     /tmp/ccXFfN6y.s:1463   .text:0000000000000840 .L0 
     /tmp/ccXFfN6y.s:1464   .text:0000000000000840 .L0 
     /tmp/ccXFfN6y.s:1469   .text:000000000000084c .L0 
     /tmp/ccXFfN6y.s:1472   .text:0000000000000850 .L0 
     /tmp/ccXFfN6y.s:1473   .text:0000000000000850 .L0 
     /tmp/ccXFfN6y.s:1474   .text:0000000000000850 .L0 
     /tmp/ccXFfN6y.s:1476   .text:0000000000000854 .L0 
     /tmp/ccXFfN6y.s:1478   .text:0000000000000858 .L0 
     /tmp/ccXFfN6y.s:1479   .text:0000000000000858 .L0 
     /tmp/ccXFfN6y.s:1484   .text:0000000000000860 .L0 
     /tmp/ccXFfN6y.s:1485   .text:0000000000000860 .L0 
     /tmp/ccXFfN6y.s:1487   .text:0000000000000864 .L0 
     /tmp/ccXFfN6y.s:1489   .text:0000000000000868 .L0 
GAS LISTING /tmp/ccXFfN6y.s 			page 80


     /tmp/ccXFfN6y.s:1490   .text:0000000000000868 .L0 
     /tmp/ccXFfN6y.s:1495   .text:0000000000000870 .L0 
     /tmp/ccXFfN6y.s:1496   .text:0000000000000870 .L0 
     /tmp/ccXFfN6y.s:1501   .text:0000000000000880 .L0 
     /tmp/ccXFfN6y.s:1502   .text:0000000000000880 .L0 
     /tmp/ccXFfN6y.s:1504   .text:0000000000000884 .L0 
     /tmp/ccXFfN6y.s:1506   .text:0000000000000888 .L0 
     /tmp/ccXFfN6y.s:1508   .text:000000000000088c .L0 
     /tmp/ccXFfN6y.s:1511   .text:0000000000000894 .L0 
     /tmp/ccXFfN6y.s:1512   .text:0000000000000894 .L0 
     /tmp/ccXFfN6y.s:1517   .text:000000000000089c .L0 
     /tmp/ccXFfN6y.s:1518   .text:00000000000008a0 .L0 
     /tmp/ccXFfN6y.s:1519   .text:00000000000008a0 .L0 
     /tmp/ccXFfN6y.s:1521   .text:00000000000008a4 .L0 
     /tmp/ccXFfN6y.s:1522   .text:00000000000008a4 .L0 
     /tmp/ccXFfN6y.s:1524   .text:00000000000008a8 .L0 
     /tmp/ccXFfN6y.s:1527   .text:00000000000008ac .L0 
     /tmp/ccXFfN6y.s:1529   .text:00000000000008b0 .L0 
     /tmp/ccXFfN6y.s:1532   .text:00000000000008b4 .L0 
     /tmp/ccXFfN6y.s:1534   .text:00000000000008b8 .L0 
     /tmp/ccXFfN6y.s:1538   .text:00000000000008bc .L0 
     /tmp/ccXFfN6y.s:1540   .text:00000000000008bc .L0 
     /tmp/ccXFfN6y.s:1541   .text:00000000000008bc .L0 
     /tmp/ccXFfN6y.s:1546   .text:00000000000008cc .L0 
     /tmp/ccXFfN6y.s:1547   .text:00000000000008cc .L0 
     /tmp/ccXFfN6y.s:1549   .text:00000000000008d0 .L0 
     /tmp/ccXFfN6y.s:1552   .text:00000000000008d8 .L0 
     /tmp/ccXFfN6y.s:1553   .text:00000000000008d8 .L0 
     /tmp/ccXFfN6y.s:1557   .text:00000000000008e4 .L0 
     /tmp/ccXFfN6y.s:1559   .text:00000000000008e8 .L0 
     /tmp/ccXFfN6y.s:1560   .text:00000000000008e8 .L0 
     /tmp/ccXFfN6y.s:1567   .text:00000000000008fc .L0 
     /tmp/ccXFfN6y.s:1568   .text:00000000000008fc .L0 
     /tmp/ccXFfN6y.s:1573   .text:000000000000090c .L0 
     /tmp/ccXFfN6y.s:1574   .text:000000000000090c .L0 
     /tmp/ccXFfN6y.s:1576   .text:0000000000000910 .L0 
     /tmp/ccXFfN6y.s:1581   .text:000000000000091c .L0 
     /tmp/ccXFfN6y.s:1582   .text:000000000000091c .L0 
     /tmp/ccXFfN6y.s:1583   .text:000000000000091c .L0 
     /tmp/ccXFfN6y.s:1584   .text:000000000000091c .L0 
     /tmp/ccXFfN6y.s:1585   .text:000000000000091c .L0 
     /tmp/ccXFfN6y.s:1586   .text:000000000000091c .L0 
     /tmp/ccXFfN6y.s:1587   .text:000000000000091c .L0 
     /tmp/ccXFfN6y.s:1589   .text:0000000000000920 .L0 
     /tmp/ccXFfN6y.s:1595   .text:0000000000000920 _Z9kmem_initPvi
     /tmp/ccXFfN6y.s:1598   .text:0000000000000920 .L0 
     /tmp/ccXFfN6y.s:1600   .text:0000000000000920 .L0 
     /tmp/ccXFfN6y.s:1601   .text:0000000000000924 .L0 
     /tmp/ccXFfN6y.s:1604   .text:000000000000092c .L0 
     /tmp/ccXFfN6y.s:1605   .text:000000000000092c .L0 
     /tmp/ccXFfN6y.s:1607   .text:0000000000000930 .L0 
     /tmp/ccXFfN6y.s:1609   .text:0000000000000930 .L0 
     /tmp/ccXFfN6y.s:1610   .text:0000000000000930 .L0 
     /tmp/ccXFfN6y.s:1613   .text:0000000000000938 .L0 
     /tmp/ccXFfN6y.s:1614   .text:0000000000000938 .L0 
     /tmp/ccXFfN6y.s:1617   .text:0000000000000940 .L0 
     /tmp/ccXFfN6y.s:1619   .text:0000000000000948 .L0 
GAS LISTING /tmp/ccXFfN6y.s 			page 81


     /tmp/ccXFfN6y.s:1620   .text:000000000000094c .L0 
     /tmp/ccXFfN6y.s:1622   .text:0000000000000950 .L0 
     /tmp/ccXFfN6y.s:1623   .text:0000000000000950 .L0 
     /tmp/ccXFfN6y.s:1625   .text:0000000000000954 .L0 
     /tmp/ccXFfN6y.s:1627   .text:0000000000000958 .L0 
     /tmp/ccXFfN6y.s:1633   .text:0000000000000958 _Z16kmem_cache_allocP12kmem_cache_s
     /tmp/ccXFfN6y.s:1636   .text:0000000000000958 .L0 
     /tmp/ccXFfN6y.s:1638   .text:0000000000000958 .L0 
     /tmp/ccXFfN6y.s:1639   .text:000000000000095c .L0 
     /tmp/ccXFfN6y.s:1644   .text:000000000000096c .L0 
     /tmp/ccXFfN6y.s:1645   .text:000000000000096c .L0 
     /tmp/ccXFfN6y.s:1646   .text:000000000000096c .L0 
     /tmp/ccXFfN6y.s:1647   .text:000000000000096c .L0 
     /tmp/ccXFfN6y.s:1649   .text:0000000000000970 .L0 
     /tmp/ccXFfN6y.s:1652   .text:0000000000000974 .L0 
     /tmp/ccXFfN6y.s:1655   .text:0000000000000978 .L0 
     /tmp/ccXFfN6y.s:1656   .text:0000000000000978 .L0 
     /tmp/ccXFfN6y.s:1659   .text:000000000000097c .L0 
     /tmp/ccXFfN6y.s:1664   .text:0000000000000980 .L0 
     /tmp/ccXFfN6y.s:1665   .text:0000000000000980 .L0 
     /tmp/ccXFfN6y.s:1667   .text:0000000000000984 .L0 
     /tmp/ccXFfN6y.s:1670   .text:0000000000000988 .L0 
     /tmp/ccXFfN6y.s:1671   .text:0000000000000988 .L0 
     /tmp/ccXFfN6y.s:1676   .text:0000000000000994 .L0 
     /tmp/ccXFfN6y.s:1677   .text:0000000000000994 .L0 
     /tmp/ccXFfN6y.s:1682   .text:00000000000009a0 .L0 
     /tmp/ccXFfN6y.s:1684   .text:00000000000009a4 .L0 
     /tmp/ccXFfN6y.s:1685   .text:00000000000009a4 .L0 
     /tmp/ccXFfN6y.s:1689   .text:00000000000009b0 .L0 
     /tmp/ccXFfN6y.s:1690   .text:00000000000009b0 .L0 
     /tmp/ccXFfN6y.s:1694   .text:00000000000009bc .L0 
     /tmp/ccXFfN6y.s:1696   .text:00000000000009c0 .L0 
     /tmp/ccXFfN6y.s:1697   .text:00000000000009c0 .L0 
     /tmp/ccXFfN6y.s:1701   .text:00000000000009cc .L0 
     /tmp/ccXFfN6y.s:1702   .text:00000000000009cc .L0 
     /tmp/ccXFfN6y.s:1709   .text:00000000000009d0 .L0 
     /tmp/ccXFfN6y.s:1710   .text:00000000000009d0 .L0 
     /tmp/ccXFfN6y.s:1715   .text:00000000000009dc .L0 
     /tmp/ccXFfN6y.s:1716   .text:00000000000009dc .L0 
     /tmp/ccXFfN6y.s:1721   .text:00000000000009e8 .L0 
     /tmp/ccXFfN6y.s:1727   .text:00000000000009ec .L0 
     /tmp/ccXFfN6y.s:1729   .text:00000000000009f4 .L0 
     /tmp/ccXFfN6y.s:1730   .text:00000000000009f4 .L0 
     /tmp/ccXFfN6y.s:1732   .text:00000000000009f8 .L0 
     /tmp/ccXFfN6y.s:1733   .text:00000000000009f8 .L0 
     /tmp/ccXFfN6y.s:1735   .text:00000000000009fc .L0 
     /tmp/ccXFfN6y.s:1738   .text:0000000000000a00 .L0 
     /tmp/ccXFfN6y.s:1740   .text:0000000000000a04 .L0 
     /tmp/ccXFfN6y.s:1744   .text:0000000000000a08 .L0 
     /tmp/ccXFfN6y.s:1748   .text:0000000000000a08 .L0 
     /tmp/ccXFfN6y.s:1749   .text:0000000000000a08 .L0 
     /tmp/ccXFfN6y.s:1753   .text:0000000000000a14 .L0 
     /tmp/ccXFfN6y.s:1754   .text:0000000000000a14 .L0 
     /tmp/ccXFfN6y.s:1761   .text:0000000000000a18 .L0 
     /tmp/ccXFfN6y.s:1762   .text:0000000000000a18 .L0 
     /tmp/ccXFfN6y.s:1766   .text:0000000000000a24 .L0 
     /tmp/ccXFfN6y.s:1767   .text:0000000000000a24 .L0 
GAS LISTING /tmp/ccXFfN6y.s 			page 82


     /tmp/ccXFfN6y.s:1769   .text:0000000000000a28 .L0 
     /tmp/ccXFfN6y.s:1771   .text:0000000000000a2c .L0 
     /tmp/ccXFfN6y.s:1772   .text:0000000000000a2c .L0 
     /tmp/ccXFfN6y.s:1778   .text:0000000000000a3c .L0 
     /tmp/ccXFfN6y.s:1779   .text:0000000000000a3c .L0 
     /tmp/ccXFfN6y.s:1784   .text:0000000000000a48 .L0 
     /tmp/ccXFfN6y.s:1786   .text:0000000000000a4c .L0 
     /tmp/ccXFfN6y.s:1787   .text:0000000000000a4c .L0 
     /tmp/ccXFfN6y.s:1791   .text:0000000000000a58 .L0 
     /tmp/ccXFfN6y.s:1792   .text:0000000000000a58 .L0 
     /tmp/ccXFfN6y.s:1796   .text:0000000000000a64 .L0 
     /tmp/ccXFfN6y.s:1798   .text:0000000000000a68 .L0 
     /tmp/ccXFfN6y.s:1799   .text:0000000000000a68 .L0 
     /tmp/ccXFfN6y.s:1803   .text:0000000000000a74 .L0 
     /tmp/ccXFfN6y.s:1804   .text:0000000000000a74 .L0 
     /tmp/ccXFfN6y.s:1808   .text:0000000000000a78 .L0 
     /tmp/ccXFfN6y.s:1809   .text:0000000000000a78 .L0 
     /tmp/ccXFfN6y.s:1813   .text:0000000000000a84 .L0 
     /tmp/ccXFfN6y.s:1814   .text:0000000000000a84 .L0 
     /tmp/ccXFfN6y.s:1820   .text:0000000000000a88 .L0 
     /tmp/ccXFfN6y.s:1822   .text:0000000000000a90 .L0 
     /tmp/ccXFfN6y.s:1828   .text:0000000000000a90 _Z17kmem_cache_createPKcmPFvPvES3_
     /tmp/ccXFfN6y.s:1831   .text:0000000000000a90 .L0 
     /tmp/ccXFfN6y.s:1833   .text:0000000000000a90 .L0 
     /tmp/ccXFfN6y.s:1834   .text:0000000000000a94 .L0 
     /tmp/ccXFfN6y.s:1842   .text:0000000000000ab0 .L0 
     /tmp/ccXFfN6y.s:1843   .text:0000000000000ab0 .L0 
     /tmp/ccXFfN6y.s:1844   .text:0000000000000ab0 .L0 
     /tmp/ccXFfN6y.s:1845   .text:0000000000000ab0 .L0 
     /tmp/ccXFfN6y.s:1846   .text:0000000000000ab0 .L0 
     /tmp/ccXFfN6y.s:1847   .text:0000000000000ab0 .L0 
     /tmp/ccXFfN6y.s:1848   .text:0000000000000ab0 .L0 
     /tmp/ccXFfN6y.s:1850   .text:0000000000000ab4 .L0 
     /tmp/ccXFfN6y.s:1856   .text:0000000000000ac4 .L0 
     /tmp/ccXFfN6y.s:1857   .text:0000000000000ac4 .L0 
     /tmp/ccXFfN6y.s:1865   .text:0000000000000adc .L0 
     /tmp/ccXFfN6y.s:1867   .text:0000000000000ae0 .L0 
     /tmp/ccXFfN6y.s:1868   .text:0000000000000ae0 .L0 
     /tmp/ccXFfN6y.s:1881   .text:0000000000000b0c .L0 
     /tmp/ccXFfN6y.s:1882   .text:0000000000000b0c .L0 
     /tmp/ccXFfN6y.s:1884   .text:0000000000000b14 .L0 
     /tmp/ccXFfN6y.s:1886   .text:0000000000000b18 .L0 
     /tmp/ccXFfN6y.s:1887   .text:0000000000000b18 .L0 
     /tmp/ccXFfN6y.s:1889   .text:0000000000000b1c .L0 
     /tmp/ccXFfN6y.s:1892   .text:0000000000000b20 .L0 
     /tmp/ccXFfN6y.s:1895   .text:0000000000000b24 .L0 
     /tmp/ccXFfN6y.s:1898   .text:0000000000000b28 .L0 
     /tmp/ccXFfN6y.s:1901   .text:0000000000000b2c .L0 
     /tmp/ccXFfN6y.s:1904   .text:0000000000000b30 .L0 
     /tmp/ccXFfN6y.s:1906   .text:0000000000000b34 .L0 
     /tmp/ccXFfN6y.s:1912   .text:0000000000000b34 _Z15kmem_cache_freeP12kmem_cache_sPv
     /tmp/ccXFfN6y.s:1915   .text:0000000000000b34 .L0 
     /tmp/ccXFfN6y.s:1917   .text:0000000000000b34 .L0 
     /tmp/ccXFfN6y.s:1918   .text:0000000000000b34 .L0 
     /tmp/ccXFfN6y.s:1920   .text:0000000000000b38 .L0 
     /tmp/ccXFfN6y.s:1921   .text:0000000000000b3c .L0 
     /tmp/ccXFfN6y.s:1925   .text:0000000000000b48 .L0 
GAS LISTING /tmp/ccXFfN6y.s 			page 83


     /tmp/ccXFfN6y.s:1926   .text:0000000000000b48 .L0 
     /tmp/ccXFfN6y.s:1927   .text:0000000000000b48 .L0 
     /tmp/ccXFfN6y.s:1929   .text:0000000000000b4c .L0 
     /tmp/ccXFfN6y.s:1932   .text:0000000000000b50 .L0 
     /tmp/ccXFfN6y.s:1934   .text:0000000000000b54 .L0 
     /tmp/ccXFfN6y.s:1935   .text:0000000000000b54 .L0 
     /tmp/ccXFfN6y.s:1938   .text:0000000000000b5c .L0 
     /tmp/ccXFfN6y.s:1940   .text:0000000000000b60 .L0 
     /tmp/ccXFfN6y.s:1941   .text:0000000000000b60 .L0 
     /tmp/ccXFfN6y.s:1946   .text:0000000000000b6c .L0 
     /tmp/ccXFfN6y.s:1947   .text:0000000000000b70 .L0 
     /tmp/ccXFfN6y.s:1949   .text:0000000000000b74 .L0 
     /tmp/ccXFfN6y.s:1950   .text:0000000000000b74 .L0 
     /tmp/ccXFfN6y.s:1952   .text:0000000000000b78 .L0 
     /tmp/ccXFfN6y.s:1955   .text:0000000000000b7c .L0 
     /tmp/ccXFfN6y.s:1960   .text:0000000000000b84 .L0 
     /tmp/ccXFfN6y.s:1998   .text:0000000000000b84 _Z15kmem_cache_infoP12kmem_cache_s
     /tmp/ccXFfN6y.s:2001   .text:0000000000000b84 .L0 
     /tmp/ccXFfN6y.s:2003   .text:0000000000000b84 .L0 
     /tmp/ccXFfN6y.s:2004   .text:0000000000000b84 .L0 
     /tmp/ccXFfN6y.s:2006   .text:0000000000000b88 .L0 
     /tmp/ccXFfN6y.s:2007   .text:0000000000000b8c .L0 
     /tmp/ccXFfN6y.s:2012   .text:0000000000000b9c .L0 
     /tmp/ccXFfN6y.s:2013   .text:0000000000000b9c .L0 
     /tmp/ccXFfN6y.s:2014   .text:0000000000000b9c .L0 
     /tmp/ccXFfN6y.s:2015   .text:0000000000000b9c .L0 
     /tmp/ccXFfN6y.s:2017   .text:0000000000000ba0 .L0 
     /tmp/ccXFfN6y.s:2020   .text:0000000000000ba4 .L0 
     /tmp/ccXFfN6y.s:2021   .text:0000000000000ba4 .L0 
     /tmp/ccXFfN6y.s:2026   .text:0000000000000bb4 .L0 
     /tmp/ccXFfN6y.s:2027   .text:0000000000000bb4 .L0 
     /tmp/ccXFfN6y.s:2031   .text:0000000000000bc4 .L0 
     /tmp/ccXFfN6y.s:2032   .text:0000000000000bc4 .L0 
     /tmp/ccXFfN6y.s:2036   .text:0000000000000bd4 .L0 
     /tmp/ccXFfN6y.s:2037   .text:0000000000000bd4 .L0 
     /tmp/ccXFfN6y.s:2041   .text:0000000000000be0 .L0 
     /tmp/ccXFfN6y.s:2042   .text:0000000000000be0 .L0 
     /tmp/ccXFfN6y.s:2046   .text:0000000000000bf0 .L0 
     /tmp/ccXFfN6y.s:2047   .text:0000000000000bf0 .L0 
     /tmp/ccXFfN6y.s:2053   .text:0000000000000c08 .L0 
     /tmp/ccXFfN6y.s:2054   .text:0000000000000c08 .L0 
     /tmp/ccXFfN6y.s:2060   .text:0000000000000c20 .L0 
     /tmp/ccXFfN6y.s:2061   .text:0000000000000c20 .L0 
     /tmp/ccXFfN6y.s:2065   .text:0000000000000c30 .L0 
     /tmp/ccXFfN6y.s:2066   .text:0000000000000c30 .L0 
     /tmp/ccXFfN6y.s:2070   .text:0000000000000c40 .L0 
     /tmp/ccXFfN6y.s:2071   .text:0000000000000c40 .L0 
     /tmp/ccXFfN6y.s:2075   .text:0000000000000c44 .L0 
     /tmp/ccXFfN6y.s:2076   .text:0000000000000c44 .L0 
     /tmp/ccXFfN6y.s:2078   .text:0000000000000c48 .L0 
     /tmp/ccXFfN6y.s:2079   .text:0000000000000c48 .L0 
     /tmp/ccXFfN6y.s:2083   .text:0000000000000c54 .L0 
     /tmp/ccXFfN6y.s:2084   .text:0000000000000c54 .L0 
     /tmp/ccXFfN6y.s:2087   .text:0000000000000c58 .L0 
     /tmp/ccXFfN6y.s:2090   .text:0000000000000c5c .L0 
     /tmp/ccXFfN6y.s:2091   .text:0000000000000c5c .L0 
     /tmp/ccXFfN6y.s:2095   .text:0000000000000c6c .L0 
GAS LISTING /tmp/ccXFfN6y.s 			page 84


     /tmp/ccXFfN6y.s:2096   .text:0000000000000c6c .L0 
     /tmp/ccXFfN6y.s:2100   .text:0000000000000c70 .L0 
     /tmp/ccXFfN6y.s:2101   .text:0000000000000c70 .L0 
     /tmp/ccXFfN6y.s:2103   .text:0000000000000c74 .L0 
     /tmp/ccXFfN6y.s:2104   .text:0000000000000c74 .L0 
     /tmp/ccXFfN6y.s:2108   .text:0000000000000c80 .L0 
     /tmp/ccXFfN6y.s:2109   .text:0000000000000c80 .L0 
     /tmp/ccXFfN6y.s:2112   .text:0000000000000c84 .L0 
     /tmp/ccXFfN6y.s:2115   .text:0000000000000c88 .L0 
     /tmp/ccXFfN6y.s:2116   .text:0000000000000c88 .L0 
     /tmp/ccXFfN6y.s:2120   .text:0000000000000c98 .L0 
     /tmp/ccXFfN6y.s:2121   .text:0000000000000c98 .L0 
     /tmp/ccXFfN6y.s:2125   .text:0000000000000c9c .L0 
     /tmp/ccXFfN6y.s:2126   .text:0000000000000c9c .L0 
     /tmp/ccXFfN6y.s:2128   .text:0000000000000ca0 .L0 
     /tmp/ccXFfN6y.s:2129   .text:0000000000000ca0 .L0 
     /tmp/ccXFfN6y.s:2133   .text:0000000000000cac .L0 
     /tmp/ccXFfN6y.s:2134   .text:0000000000000cac .L0 
     /tmp/ccXFfN6y.s:2137   .text:0000000000000cb0 .L0 
     /tmp/ccXFfN6y.s:2140   .text:0000000000000cb4 .L0 
     /tmp/ccXFfN6y.s:2141   .text:0000000000000cb4 .L0 
     /tmp/ccXFfN6y.s:2145   .text:0000000000000cc4 .L0 
     /tmp/ccXFfN6y.s:2146   .text:0000000000000cc8 .L0 
     /tmp/ccXFfN6y.s:2148   .text:0000000000000ccc .L0 
     /tmp/ccXFfN6y.s:2149   .text:0000000000000ccc .L0 
     /tmp/ccXFfN6y.s:2151   .text:0000000000000cd0 .L0 
     /tmp/ccXFfN6y.s:2154   .text:0000000000000cd4 .L0 
     /tmp/ccXFfN6y.s:2157   .text:0000000000000cd8 .L0 
     /tmp/ccXFfN6y.s:2162   .text:0000000000000ce0 .L0 
     /tmp/ccXFfN6y.s:2185   .text:0000000000000ce0 _Z22printSlabAllocatorInfov
     /tmp/ccXFfN6y.s:2188   .text:0000000000000ce0 .L0 
     /tmp/ccXFfN6y.s:2189   .text:0000000000000ce0 .L0 
     /tmp/ccXFfN6y.s:2190   .text:0000000000000ce4 .L0 
     /tmp/ccXFfN6y.s:2194   .text:0000000000000cf0 .L0 
     /tmp/ccXFfN6y.s:2195   .text:0000000000000cf0 .L0 
     /tmp/ccXFfN6y.s:2196   .text:0000000000000cf0 .L0 
     /tmp/ccXFfN6y.s:2198   .text:0000000000000cf4 .L0 
     /tmp/ccXFfN6y.s:2200   .text:0000000000000cf4 .L0 
     /tmp/ccXFfN6y.s:2201   .text:0000000000000cf4 .L0 
     /tmp/ccXFfN6y.s:2205   .text:0000000000000d04 .L0 
     /tmp/ccXFfN6y.s:2206   .text:0000000000000d04 .L0 
     /tmp/ccXFfN6y.s:2210   .text:0000000000000d14 .L0 
     /tmp/ccXFfN6y.s:2211   .text:0000000000000d14 .L0 
     /tmp/ccXFfN6y.s:2218   .text:0000000000000d34 .L0 
     /tmp/ccXFfN6y.s:2219   .text:0000000000000d34 .L0 
     /tmp/ccXFfN6y.s:2223   .text:0000000000000d44 .L0 
     /tmp/ccXFfN6y.s:2224   .text:0000000000000d44 .L0 
     /tmp/ccXFfN6y.s:2226   .text:0000000000000d48 .L0 
     /tmp/ccXFfN6y.s:2230   .text:0000000000000d54 .L0 
     /tmp/ccXFfN6y.s:2231   .text:0000000000000d54 .L0 
     /tmp/ccXFfN6y.s:2236   .text:0000000000000d64 .L0 
     /tmp/ccXFfN6y.s:2237   .text:0000000000000d64 .L0 
     /tmp/ccXFfN6y.s:2242   .text:0000000000000d6c .L0 
     /tmp/ccXFfN6y.s:2243   .text:0000000000000d6c .L0 
     /tmp/ccXFfN6y.s:2247   .text:0000000000000d74 .L0 
     /tmp/ccXFfN6y.s:2251   .text:0000000000000d78 .L0 
     /tmp/ccXFfN6y.s:2254   .text:0000000000000d80 .L0 
GAS LISTING /tmp/ccXFfN6y.s 			page 85


     /tmp/ccXFfN6y.s:2255   .text:0000000000000d80 .L0 
     /tmp/ccXFfN6y.s:2260   .text:0000000000000d94 .L0 
     /tmp/ccXFfN6y.s:2265   .text:0000000000000d9c .L0 
     /tmp/ccXFfN6y.s:2266   .text:0000000000000d9c .L0 
     /tmp/ccXFfN6y.s:2270   .text:0000000000000dac .L0 
     /tmp/ccXFfN6y.s:2271   .text:0000000000000dac .L0 
     /tmp/ccXFfN6y.s:2274   .text:0000000000000db4 .L0 
     /tmp/ccXFfN6y.s:2275   .text:0000000000000db8 .L0 
     /tmp/ccXFfN6y.s:2277   .text:0000000000000dbc .L0 
     /tmp/ccXFfN6y.s:2278   .text:0000000000000dbc .L0 
     /tmp/ccXFfN6y.s:2280   .text:0000000000000dc0 .L0 
     /tmp/ccXFfN6y.s:2283   .text:0000000000000dc4 .L0 
     /tmp/ccXFfN6y.s:2285   .text:0000000000000dc8 .L0 
     /tmp/ccXFfN6y.s:2296   .text:0000000000000dc8 _Z7kmallocm
     /tmp/ccXFfN6y.s:2299   .text:0000000000000dc8 .L0 
     /tmp/ccXFfN6y.s:2301   .text:0000000000000dc8 .L0 
     /tmp/ccXFfN6y.s:2302   .text:0000000000000dcc .L0 
     /tmp/ccXFfN6y.s:2308   .text:0000000000000de0 .L0 
     /tmp/ccXFfN6y.s:2309   .text:0000000000000de0 .L0 
     /tmp/ccXFfN6y.s:2310   .text:0000000000000de0 .L0 
     /tmp/ccXFfN6y.s:2311   .text:0000000000000de0 .L0 
     /tmp/ccXFfN6y.s:2312   .text:0000000000000de0 .L0 
     /tmp/ccXFfN6y.s:2314   .text:0000000000000de4 .L0 
     /tmp/ccXFfN6y.s:2316   .text:0000000000000de4 .L0 
     /tmp/ccXFfN6y.s:2317   .text:0000000000000de4 .L0 
     /tmp/ccXFfN6y.s:2320   .text:0000000000000dec .L0 
     /tmp/ccXFfN6y.s:2323   .text:0000000000000df4 .L0 
     /tmp/ccXFfN6y.s:2326   .text:0000000000000dfc .L0 
     /tmp/ccXFfN6y.s:2330   .text:0000000000000e04 .L0 
     /tmp/ccXFfN6y.s:2334   .text:0000000000000e08 .L0 
     /tmp/ccXFfN6y.s:2335   .text:0000000000000e08 .L0 
     /tmp/ccXFfN6y.s:2339   .text:0000000000000e10 .L0 
     /tmp/ccXFfN6y.s:2340   .text:0000000000000e10 .L0 
     /tmp/ccXFfN6y.s:2343   .text:0000000000000e14 .L0 
     /tmp/ccXFfN6y.s:2344   .text:0000000000000e14 .L0 
     /tmp/ccXFfN6y.s:2349   .text:0000000000000e28 .L0 
     /tmp/ccXFfN6y.s:2352   .text:0000000000000e2c .L0 
     /tmp/ccXFfN6y.s:2353   .text:0000000000000e2c .L0 
     /tmp/ccXFfN6y.s:2364   .text:0000000000000e4c .L0 
     /tmp/ccXFfN6y.s:2366   .text:0000000000000e54 .L0 
     /tmp/ccXFfN6y.s:2367   .text:0000000000000e54 .L0 
     /tmp/ccXFfN6y.s:2369   .text:0000000000000e58 .L0 
     /tmp/ccXFfN6y.s:2370   .text:0000000000000e58 .L0 
     /tmp/ccXFfN6y.s:2372   .text:0000000000000e5c .L0 
     /tmp/ccXFfN6y.s:2374   .text:0000000000000e60 .L0 
     /tmp/ccXFfN6y.s:2376   .text:0000000000000e64 .L0 
     /tmp/ccXFfN6y.s:2378   .text:0000000000000e68 .L0 
     /tmp/ccXFfN6y.s:2382   .text:0000000000000e6c .L0 
     /tmp/ccXFfN6y.s:2384   .text:0000000000000e6c .L0 
     /tmp/ccXFfN6y.s:2385   .text:0000000000000e6c .L0 
     /tmp/ccXFfN6y.s:2389   .text:0000000000000e78 .L0 
     /tmp/ccXFfN6y.s:2393   .text:0000000000000e84 .L0 
     /tmp/ccXFfN6y.s:2394   .text:0000000000000e84 .L0 
     /tmp/ccXFfN6y.s:2398   .text:0000000000000e94 .L0 
     /tmp/ccXFfN6y.s:2400   .text:0000000000000e98 .L0 
     /tmp/ccXFfN6y.s:2401   .text:0000000000000e98 .L0 
     /tmp/ccXFfN6y.s:2413   .text:0000000000000ecc .L0 
GAS LISTING /tmp/ccXFfN6y.s 			page 86


     /tmp/ccXFfN6y.s:2419   .text:0000000000000ecc _Z5kfreePKv
     /tmp/ccXFfN6y.s:2422   .text:0000000000000ecc .L0 
     /tmp/ccXFfN6y.s:2424   .text:0000000000000ecc .L0 
     /tmp/ccXFfN6y.s:2425   .text:0000000000000ecc .L0 
     /tmp/ccXFfN6y.s:2427   .text:0000000000000ed0 .L0 
     /tmp/ccXFfN6y.s:2428   .text:0000000000000ed4 .L0 
     /tmp/ccXFfN6y.s:2434   .text:0000000000000ee8 .L0 
     /tmp/ccXFfN6y.s:2435   .text:0000000000000ee8 .L0 
     /tmp/ccXFfN6y.s:2436   .text:0000000000000ee8 .L0 
     /tmp/ccXFfN6y.s:2437   .text:0000000000000ee8 .L0 
     /tmp/ccXFfN6y.s:2438   .text:0000000000000ee8 .L0 
     /tmp/ccXFfN6y.s:2440   .text:0000000000000eec .L0 
     /tmp/ccXFfN6y.s:2444   .text:0000000000000ef0 .L0 
     /tmp/ccXFfN6y.s:2447   .text:0000000000000ef4 .L0 
     /tmp/ccXFfN6y.s:2452   .text:0000000000000ef8 .L0 
     /tmp/ccXFfN6y.s:2455   .text:0000000000000f00 .L0 
     /tmp/ccXFfN6y.s:2456   .text:0000000000000f00 .L0 
     /tmp/ccXFfN6y.s:2466   .text:0000000000000f24 .L0 
     /tmp/ccXFfN6y.s:2468   .text:0000000000000f28 .L0 
     /tmp/ccXFfN6y.s:2474   .text:0000000000000f30 .L0 
     /tmp/ccXFfN6y.s:2476   .text:0000000000000f34 .L0 
     /tmp/ccXFfN6y.s:2477   .text:0000000000000f34 .L0 
     /tmp/ccXFfN6y.s:2482   .text:0000000000000f44 .L0 
     /tmp/ccXFfN6y.s:2483   .text:0000000000000f44 .L0 
     /tmp/ccXFfN6y.s:2485   .text:0000000000000f48 .L0 
     /tmp/ccXFfN6y.s:2490   .text:0000000000000f54 .L0 
     /tmp/ccXFfN6y.s:2491   .text:0000000000000f58 .L0 
     /tmp/ccXFfN6y.s:2493   .text:0000000000000f5c .L0 
     /tmp/ccXFfN6y.s:2494   .text:0000000000000f5c .L0 
     /tmp/ccXFfN6y.s:2496   .text:0000000000000f60 .L0 
     /tmp/ccXFfN6y.s:2499   .text:0000000000000f64 .L0 
     /tmp/ccXFfN6y.s:2502   .text:0000000000000f68 .L0 
     /tmp/ccXFfN6y.s:2505   .text:0000000000000f6c .L0 
     /tmp/ccXFfN6y.s:2510   .text:0000000000000f74 .L0 
     /tmp/ccXFfN6y.s:2516   .text:0000000000000f74 _Z18kmem_cache_destroyP12kmem_cache_s
     /tmp/ccXFfN6y.s:2519   .text:0000000000000f74 .L0 
     /tmp/ccXFfN6y.s:2521   .text:0000000000000f74 .L0 
     /tmp/ccXFfN6y.s:2522   .text:0000000000000f78 .L0 
     /tmp/ccXFfN6y.s:2526   .text:0000000000000f84 .L0 
     /tmp/ccXFfN6y.s:2527   .text:0000000000000f84 .L0 
     /tmp/ccXFfN6y.s:2528   .text:0000000000000f84 .L0 
     /tmp/ccXFfN6y.s:2530   .text:0000000000000f88 .L0 
     /tmp/ccXFfN6y.s:2533   .text:0000000000000f8c .L0 
     /tmp/ccXFfN6y.s:2534   .text:0000000000000f8c .L0 
     /tmp/ccXFfN6y.s:2536   .text:0000000000000f90 .L0 
     /tmp/ccXFfN6y.s:2539   .text:0000000000000f94 .L0 
     /tmp/ccXFfN6y.s:2540   .text:0000000000000f94 .L0 
     /tmp/ccXFfN6y.s:2546   .text:0000000000000fa0 .L0 
     /tmp/ccXFfN6y.s:2547   .text:0000000000000fa0 .L0 
     /tmp/ccXFfN6y.s:2548   .text:0000000000000fa4 .L0 
     /tmp/ccXFfN6y.s:2549   .text:0000000000000fa4 .L0 
     /tmp/ccXFfN6y.s:2551   .text:0000000000000fa8 .L0 
     /tmp/ccXFfN6y.s:2552   .text:0000000000000fa8 .L0 
     /tmp/ccXFfN6y.s:2554   .text:0000000000000fac .L0 
     /tmp/ccXFfN6y.s:2557   .text:0000000000000fb0 .L0 
     /tmp/ccXFfN6y.s:2561   .text:0000000000000fb4 .L0 
     /tmp/ccXFfN6y.s:2563   .text:0000000000000fb4 .L0 
GAS LISTING /tmp/ccXFfN6y.s 			page 87


     /tmp/ccXFfN6y.s:2565   .text:0000000000000fb8 .L0 
     /tmp/ccXFfN6y.s:2567   .text:0000000000000fbc .L0 
     /tmp/ccXFfN6y.s:2568   .text:0000000000000fbc .L0 
     /tmp/ccXFfN6y.s:2572   .text:0000000000000fc8 .L0 
     /tmp/ccXFfN6y.s:2573   .text:0000000000000fc8 .L0 
     /tmp/ccXFfN6y.s:2577   .text:0000000000000fd4 .L0 
     /tmp/ccXFfN6y.s:2578   .text:0000000000000fd4 .L0 
     /tmp/ccXFfN6y.s:2582   .text:0000000000000fe0 .L0 
     /tmp/ccXFfN6y.s:2583   .text:0000000000000fe0 .L0 
     /tmp/ccXFfN6y.s:2589   .text:0000000000000ffc .L0 
     /tmp/ccXFfN6y.s:2595   .text:0000000000000ffc _Z17kmem_cache_shrinkP12kmem_cache_s
     /tmp/ccXFfN6y.s:2598   .text:0000000000000ffc .L0 
     /tmp/ccXFfN6y.s:2600   .text:0000000000000ffc .L0 
     /tmp/ccXFfN6y.s:2601   .text:0000000000000ffc .L0 
     /tmp/ccXFfN6y.s:2603   .text:0000000000001000 .L0 
     /tmp/ccXFfN6y.s:2604   .text:0000000000001004 .L0 
     /tmp/ccXFfN6y.s:2607   .text:000000000000100c .L0 
     /tmp/ccXFfN6y.s:2608   .text:000000000000100c .L0 
     /tmp/ccXFfN6y.s:2610   .text:0000000000001010 .L0 
     /tmp/ccXFfN6y.s:2612   .text:0000000000001010 .L0 
     /tmp/ccXFfN6y.s:2613   .text:0000000000001010 .L0 
     /tmp/ccXFfN6y.s:2618   .text:000000000000101c .L0 
     /tmp/ccXFfN6y.s:2619   .text:000000000000101c .L0 
     /tmp/ccXFfN6y.s:2620   .text:0000000000001020 .L0 
     /tmp/ccXFfN6y.s:2622   .text:0000000000001024 .L0 
     /tmp/ccXFfN6y.s:2623   .text:0000000000001024 .L0 
     /tmp/ccXFfN6y.s:2625   .text:0000000000001028 .L0 
     /tmp/ccXFfN6y.s:2630   .text:000000000000102c .L0 
     /tmp/ccXFfN6y.s:2633   .text:0000000000001030 .L0 
     /tmp/ccXFfN6y.s:2634   .text:0000000000001034 .L0 
     /tmp/ccXFfN6y.s:2640   .text:0000000000001034 _Z21shrink_caches_on_slabP6slab_s
     /tmp/ccXFfN6y.s:2643   .text:0000000000001034 .L0 
     /tmp/ccXFfN6y.s:2645   .text:0000000000001034 .L0 
     /tmp/ccXFfN6y.s:2646   .text:0000000000001038 .L0 
     /tmp/ccXFfN6y.s:2651   .text:0000000000001048 .L0 
     /tmp/ccXFfN6y.s:2652   .text:0000000000001048 .L0 
     /tmp/ccXFfN6y.s:2653   .text:0000000000001048 .L0 
     /tmp/ccXFfN6y.s:2654   .text:0000000000001048 .L0 
     /tmp/ccXFfN6y.s:2656   .text:000000000000104c .L0 
     /tmp/ccXFfN6y.s:2661   .text:0000000000001050 .L0 
     /tmp/ccXFfN6y.s:2662   .text:0000000000001050 .L0 
     /tmp/ccXFfN6y.s:2669   .text:0000000000001058 .L0 
     /tmp/ccXFfN6y.s:2670   .text:0000000000001058 .L0 
     /tmp/ccXFfN6y.s:2672   .text:000000000000105c .L0 
     /tmp/ccXFfN6y.s:2674   .text:0000000000001060 .L0 
     /tmp/ccXFfN6y.s:2676   .text:0000000000001064 .L0 
     /tmp/ccXFfN6y.s:2679   .text:0000000000001068 .L0 
     /tmp/ccXFfN6y.s:2680   .text:0000000000001068 .L0 
     /tmp/ccXFfN6y.s:2688   .text:0000000000001074 .L0 
     /tmp/ccXFfN6y.s:2692   .text:0000000000001078 .L0 
     /tmp/ccXFfN6y.s:2693   .text:0000000000001078 .L0 
     /tmp/ccXFfN6y.s:2695   .text:000000000000107c .L0 
     /tmp/ccXFfN6y.s:2700   .text:0000000000001080 .L0 
     /tmp/ccXFfN6y.s:2701   .text:0000000000001080 .L0 
     /tmp/ccXFfN6y.s:2706   .text:0000000000001090 .L0 
     /tmp/ccXFfN6y.s:2712   .text:0000000000001098 .L0 
     /tmp/ccXFfN6y.s:2713   .text:000000000000109c .L0 
GAS LISTING /tmp/ccXFfN6y.s 			page 88


     /tmp/ccXFfN6y.s:2715   .text:00000000000010a0 .L0 
     /tmp/ccXFfN6y.s:2716   .text:00000000000010a0 .L0 
     /tmp/ccXFfN6y.s:2718   .text:00000000000010a4 .L0 
     /tmp/ccXFfN6y.s:2721   .text:00000000000010a8 .L0 
     /tmp/ccXFfN6y.s:2724   .text:00000000000010ac .L0 
     /tmp/ccXFfN6y.s:2726   .text:00000000000010b0 .L0 
     /tmp/ccXFfN6y.s:2732   .text:00000000000010b0 _Z17shrink_all_cachesv
     /tmp/ccXFfN6y.s:2735   .text:00000000000010b0 .L0 
     /tmp/ccXFfN6y.s:2736   .text:00000000000010b0 .L0 
     /tmp/ccXFfN6y.s:2737   .text:00000000000010b4 .L0 
     /tmp/ccXFfN6y.s:2743   .text:00000000000010c8 .L0 
     /tmp/ccXFfN6y.s:2744   .text:00000000000010c8 .L0 
     /tmp/ccXFfN6y.s:2745   .text:00000000000010c8 .L0 
     /tmp/ccXFfN6y.s:2746   .text:00000000000010c8 .L0 
     /tmp/ccXFfN6y.s:2747   .text:00000000000010c8 .L0 
     /tmp/ccXFfN6y.s:2749   .text:00000000000010cc .L0 
     /tmp/ccXFfN6y.s:2751   .text:00000000000010cc .L0 
     /tmp/ccXFfN6y.s:2752   .text:00000000000010cc .L0 
     /tmp/ccXFfN6y.s:2754   .text:00000000000010d4 .L0 
     /tmp/ccXFfN6y.s:2757   .text:00000000000010d8 .L0 
     /tmp/ccXFfN6y.s:2758   .text:00000000000010d8 .L0 
     /tmp/ccXFfN6y.s:2762   .text:00000000000010dc .L0 
     /tmp/ccXFfN6y.s:2763   .text:00000000000010dc .L0 
     /tmp/ccXFfN6y.s:2765   .text:00000000000010e0 .L0 
     /tmp/ccXFfN6y.s:2766   .text:00000000000010e0 .L0 
     /tmp/ccXFfN6y.s:2770   .text:00000000000010ec .L0 
     /tmp/ccXFfN6y.s:2771   .text:00000000000010ec .L0 
     /tmp/ccXFfN6y.s:2774   .text:00000000000010f0 .L0 
     /tmp/ccXFfN6y.s:2777   .text:00000000000010f4 .L0 
     /tmp/ccXFfN6y.s:2778   .text:00000000000010f4 .L0 
     /tmp/ccXFfN6y.s:2782   .text:00000000000010f8 .L0 
     /tmp/ccXFfN6y.s:2783   .text:00000000000010f8 .L0 
     /tmp/ccXFfN6y.s:2785   .text:00000000000010fc .L0 
     /tmp/ccXFfN6y.s:2786   .text:00000000000010fc .L0 
     /tmp/ccXFfN6y.s:2790   .text:0000000000001108 .L0 
     /tmp/ccXFfN6y.s:2791   .text:0000000000001108 .L0 
     /tmp/ccXFfN6y.s:2794   .text:000000000000110c .L0 
     /tmp/ccXFfN6y.s:2797   .text:0000000000001110 .L0 
     /tmp/ccXFfN6y.s:2798   .text:0000000000001110 .L0 
     /tmp/ccXFfN6y.s:2802   .text:000000000000111c .L0 
     /tmp/ccXFfN6y.s:2803   .text:0000000000001120 .L0 
     /tmp/ccXFfN6y.s:2805   .text:0000000000001124 .L0 
     /tmp/ccXFfN6y.s:2806   .text:0000000000001124 .L0 
     /tmp/ccXFfN6y.s:2808   .text:0000000000001128 .L0 
     /tmp/ccXFfN6y.s:2811   .text:000000000000112c .L0 
     /tmp/ccXFfN6y.s:2813   .text:0000000000001130 .L0 
     /tmp/ccXFfN6y.s:2816   .text:0000000000001134 .L0 
     /tmp/ccXFfN6y.s:2818   .text:0000000000001138 .L0 
     /tmp/ccXFfN6y.s:2832   .text:0000000000001138 _Z16kmem_cache_errorP12kmem_cache_s
     /tmp/ccXFfN6y.s:2835   .text:0000000000001138 .L0 
     /tmp/ccXFfN6y.s:2837   .text:0000000000001138 .L0 
     /tmp/ccXFfN6y.s:2838   .text:0000000000001138 .L0 
     /tmp/ccXFfN6y.s:2840   .text:000000000000113c .L0 
     /tmp/ccXFfN6y.s:2841   .text:0000000000001140 .L0 
     /tmp/ccXFfN6y.s:2845   .text:000000000000114c .L0 
     /tmp/ccXFfN6y.s:2846   .text:000000000000114c .L0 
     /tmp/ccXFfN6y.s:2847   .text:000000000000114c .L0 
GAS LISTING /tmp/ccXFfN6y.s 			page 89


     /tmp/ccXFfN6y.s:2849   .text:0000000000001150 .L0 
     /tmp/ccXFfN6y.s:2852   .text:0000000000001154 .L0 
     /tmp/ccXFfN6y.s:2853   .text:0000000000001154 .L0 
     /tmp/ccXFfN6y.s:2855   .text:0000000000001158 .L0 
     /tmp/ccXFfN6y.s:2857   .text:000000000000115c .L0 
     /tmp/ccXFfN6y.s:2861   .text:0000000000001160 .L0 
     /tmp/ccXFfN6y.s:2862   .text:0000000000001160 .L0 
     /tmp/ccXFfN6y.s:2864   .text:0000000000001164 .L0 
     /tmp/ccXFfN6y.s:2866   .text:0000000000001168 .L0 
     /tmp/ccXFfN6y.s:2869   .text:000000000000116c .L0 
     /tmp/ccXFfN6y.s:2870   .text:000000000000116c .L0 
     /tmp/ccXFfN6y.s:2872   .text:0000000000001170 .L0 
     /tmp/ccXFfN6y.s:2873   .text:0000000000001170 .L0 
     /tmp/ccXFfN6y.s:2875   .text:0000000000001178 .L0 
     /tmp/ccXFfN6y.s:2876   .text:0000000000001178 .L0 
     /tmp/ccXFfN6y.s:2878   .text:000000000000117c .L0 
     /tmp/ccXFfN6y.s:2879   .text:000000000000117c .L0 
     /tmp/ccXFfN6y.s:2881   .text:0000000000001180 .L0 
     /tmp/ccXFfN6y.s:2884   .text:0000000000001184 .L0 
     /tmp/ccXFfN6y.s:2888   .text:0000000000001188 .L0 
     /tmp/ccXFfN6y.s:2890   .text:0000000000001188 .L0 
     /tmp/ccXFfN6y.s:2891   .text:0000000000001188 .L0 
     /tmp/ccXFfN6y.s:2897   .text:000000000000119c .L0 
     /tmp/ccXFfN6y.s:2898   .text:000000000000119c .L0 
     /tmp/ccXFfN6y.s:2904   .text:00000000000011b0 .L0 
     /tmp/ccXFfN6y.s:2905   .text:00000000000011b0 .L0 
     /tmp/ccXFfN6y.s:2906   .text:00000000000011b0 .L0 
     /tmp/ccXFfN6y.s:2907   .text:00000000000011b0 .L0 
     /tmp/ccXFfN6y.s:2909   .text:00000000000011b0 .L0 
     /tmp/ccXFfN6y.s:2912   .text:00000000000011b8 .L0 
     /tmp/ccXFfN6y.s:2917   .bss:0000000000000000 .LANCHOR0
     /tmp/ccXFfN6y.s:2920   .bss:0000000000000000 _ZL13slabAllocator
     /tmp/ccXFfN6y.s:2930   .text:00000000000011b8 .L0 
     /tmp/ccXFfN6y.s:239    .rodata.str1.8:0000000000000000 .LC0
     /tmp/ccXFfN6y.s:291    .text:000000000000018c .L0 
     /tmp/ccXFfN6y.s:1337   .rodata.str1.8:0000000000000010 .LC1
     /tmp/ccXFfN6y.s:1370   .text:000000000000077c .L0 
     /tmp/ccXFfN6y.s:1340   .rodata.str1.8:0000000000000028 .LC2
     /tmp/ccXFfN6y.s:1378   .text:0000000000000794 .L0 
     /tmp/ccXFfN6y.s:1343   .rodata.str1.8:0000000000000038 .LC3
     /tmp/ccXFfN6y.s:1385   .text:00000000000007ac .L0 
     /tmp/ccXFfN6y.s:1346   .rodata.str1.8:0000000000000058 .LC4
     /tmp/ccXFfN6y.s:1392   .text:00000000000007c4 .L0 
     /tmp/ccXFfN6y.s:1617   .text:0000000000000940 .L0 
     /tmp/ccXFfN6y.s:1857   .text:0000000000000ac4 .L0 
     /tmp/ccXFfN6y.s:1965   .rodata.str1.8:0000000000000070 .LC5
     /tmp/ccXFfN6y.s:2021   .text:0000000000000ba4 .L0 
     /tmp/ccXFfN6y.s:1968   .rodata.str1.8:0000000000000078 .LC6
     /tmp/ccXFfN6y.s:2027   .text:0000000000000bb4 .L0 
     /tmp/ccXFfN6y.s:1971   .rodata.str1.8:00000000000000b0 .LC7
     /tmp/ccXFfN6y.s:2032   .text:0000000000000bc4 .L0 
     /tmp/ccXFfN6y.s:1974   .rodata.str1.8:00000000000000c0 .LC8
     /tmp/ccXFfN6y.s:2042   .text:0000000000000be0 .L0 
     /tmp/ccXFfN6y.s:1977   .rodata.str1.8:00000000000000c8 .LC9
     /tmp/ccXFfN6y.s:2049   .text:0000000000000bf8 .L0 
     /tmp/ccXFfN6y.s:1980   .rodata.str1.8:00000000000000e8 .LC10
     /tmp/ccXFfN6y.s:2056   .text:0000000000000c10 .L0 
GAS LISTING /tmp/ccXFfN6y.s 			page 90


     /tmp/ccXFfN6y.s:1983   .rodata.str1.8:0000000000000108 .LC11
     /tmp/ccXFfN6y.s:2061   .text:0000000000000c20 .L0 
     /tmp/ccXFfN6y.s:1986   .rodata.str1.8:0000000000000128 .LC12
     /tmp/ccXFfN6y.s:2066   .text:0000000000000c30 .L0 
     /tmp/ccXFfN6y.s:1989   .rodata.str1.8:0000000000000138 .LC13
     /tmp/ccXFfN6y.s:2091   .text:0000000000000c5c .L0 
     /tmp/ccXFfN6y.s:1992   .rodata.str1.8:0000000000000148 .LC14
     /tmp/ccXFfN6y.s:2116   .text:0000000000000c88 .L0 
     /tmp/ccXFfN6y.s:2141   .text:0000000000000cb4 .L0 
     /tmp/ccXFfN6y.s:2167   .rodata.str1.8:0000000000000158 .LC15
     /tmp/ccXFfN6y.s:2201   .text:0000000000000cf4 .L0 
     /tmp/ccXFfN6y.s:2170   .rodata.str1.8:0000000000000168 .LC16
     /tmp/ccXFfN6y.s:2206   .text:0000000000000d04 .L0 
     /tmp/ccXFfN6y.s:2211   .text:0000000000000d14 .L0 
     /tmp/ccXFfN6y.s:2173   .rodata.str1.8:00000000000001b8 .LC17
     /tmp/ccXFfN6y.s:2214   .text:0000000000000d24 .L0 
     /tmp/ccXFfN6y.s:2176   .rodata.str1.8:00000000000001d0 .LC18
     /tmp/ccXFfN6y.s:2219   .text:0000000000000d34 .L0 
     /tmp/ccXFfN6y.s:2179   .rodata.str1.8:00000000000001e8 .LC19
     /tmp/ccXFfN6y.s:2231   .text:0000000000000d54 .L0 
     /tmp/ccXFfN6y.s:2256   .text:0000000000000d84 .L0 
     /tmp/ccXFfN6y.s:2266   .text:0000000000000d9c .L0 
     /tmp/ccXFfN6y.s:2344   .text:0000000000000e14 .L0 
     /tmp/ccXFfN6y.s:2354   .text:0000000000000e30 .L0 
     /tmp/ccXFfN6y.s:2394   .text:0000000000000e84 .L0 
     /tmp/ccXFfN6y.s:2290   .rodata.str1.8:0000000000000200 .LC20
     /tmp/ccXFfN6y.s:2408   .text:0000000000000eb4 .L0 
     /tmp/ccXFfN6y.s:2457   .text:0000000000000f04 .L0 
     /tmp/ccXFfN6y.s:2584   .text:0000000000000fe4 .L0 
     /tmp/ccXFfN6y.s:2752   .text:00000000000010cc .L0 
     /tmp/ccXFfN6y.s:2823   .rodata.str1.8:0000000000000218 .LC21
     /tmp/ccXFfN6y.s:2891   .text:0000000000001188 .L0 
     /tmp/ccXFfN6y.s:2826   .rodata.str1.8:0000000000000228 .LC22
     /tmp/ccXFfN6y.s:2898   .text:000000000000119c .L0 
     /tmp/ccXFfN6y.s:41     .text:0000000000000024 .L2
     /tmp/ccXFfN6y.s:21     .text:000000000000000c .L3
     /tmp/ccXFfN6y.s:123    .text:0000000000000090 .L8
     /tmp/ccXFfN6y.s:127    .text:0000000000000094 .L6
     /tmp/ccXFfN6y.s:95     .text:000000000000006c .L7
     /tmp/ccXFfN6y.s:279    .text:0000000000000174 .L14
     /tmp/ccXFfN6y.s:270    .text:0000000000000164 .L16
     /tmp/ccXFfN6y.s:511    .text:00000000000002f0 .L26
     /tmp/ccXFfN6y.s:466    .text:00000000000002a8 .L27
     /tmp/ccXFfN6y.s:449    .text:0000000000000290 .L29
     /tmp/ccXFfN6y.s:430    .text:0000000000000268 .L25
     /tmp/ccXFfN6y.s:473    .text:00000000000002b0 .L23
     /tmp/ccXFfN6y.s:491    .text:00000000000002d0 .L21
     /tmp/ccXFfN6y.s:613    .text:0000000000000368 .L34
     /tmp/ccXFfN6y.s:609    .text:0000000000000364 .L36
     /tmp/ccXFfN6y.s:670    .text:00000000000003b0 .L44
     /tmp/ccXFfN6y.s:655    .text:000000000000039c .L42
     /tmp/ccXFfN6y.s:680    .text:00000000000003bc .L40
     /tmp/ccXFfN6y.s:661    .text:00000000000003a4 .L38
     /tmp/ccXFfN6y.s:1048   .text:00000000000005f4 .L53
     /tmp/ccXFfN6y.s:958    .text:0000000000000574 .L55
     /tmp/ccXFfN6y.s:1010   .text:00000000000005bc .L56
     /tmp/ccXFfN6y.s:994    .text:00000000000005a0 .L57
GAS LISTING /tmp/ccXFfN6y.s 			page 91


     /tmp/ccXFfN6y.s:1022   .text:00000000000005c8 .L58
     /tmp/ccXFfN6y.s:1102   .text:0000000000000630 .L61
     /tmp/ccXFfN6y.s:1089   .text:0000000000000620 .L62
     /tmp/ccXFfN6y.s:1124   .text:0000000000000648 .L65
     /tmp/ccXFfN6y.s:1156   .text:0000000000000678 .L63
     /tmp/ccXFfN6y.s:1120   .text:0000000000000644 .L64
     /tmp/ccXFfN6y.s:1228   .text:00000000000006d0 .L68
     /tmp/ccXFfN6y.s:1279   .text:0000000000000710 .L76
     /tmp/ccXFfN6y.s:1203   .text:00000000000006ac .L72
     /tmp/ccXFfN6y.s:1239   .text:00000000000006dc .L70
     /tmp/ccXFfN6y.s:1197   .text:00000000000006a8 .L71
     /tmp/ccXFfN6y.s:1253   .text:00000000000006e8 .L74
     /tmp/ccXFfN6y.s:1247   .text:00000000000006e4 .L73
     /tmp/ccXFfN6y.s:1580   .text:000000000000091c .L89
     /tmp/ccXFfN6y.s:1515   .text:000000000000089c .L82
     /tmp/ccXFfN6y.s:1482   .text:0000000000000860 .L84
     /tmp/ccXFfN6y.s:1493   .text:0000000000000870 .L85
     /tmp/ccXFfN6y.s:1537   .text:00000000000008bc .L92
     /tmp/ccXFfN6y.s:1565   .text:00000000000008fc .L93
     /tmp/ccXFfN6y.s:1815   .text:0000000000000a88 .L104
     /tmp/ccXFfN6y.s:1704   .text:00000000000009d0 .L106
     /tmp/ccXFfN6y.s:1756   .text:0000000000000a18 .L100
     /tmp/ccXFfN6y.s:1723   .text:00000000000009ec .L96
     /tmp/ccXFfN6y.s:1743   .text:0000000000000a08 .L107
     /tmp/ccXFfN6y.s:1806   .text:0000000000000a78 .L108
     /tmp/ccXFfN6y.s:1880   .text:0000000000000b0c .L109
     /tmp/ccXFfN6y.s:1958   .text:0000000000000b80 .L115
     /tmp/ccXFfN6y.s:1944   .text:0000000000000b6c .L112
     /tmp/ccXFfN6y.s:2160   .text:0000000000000cdc .L127
     /tmp/ccXFfN6y.s:2088   .text:0000000000000c5c .L120
     /tmp/ccXFfN6y.s:2073   .text:0000000000000c44 .L121
     /tmp/ccXFfN6y.s:2113   .text:0000000000000c88 .L122
     /tmp/ccXFfN6y.s:2098   .text:0000000000000c70 .L123
     /tmp/ccXFfN6y.s:2138   .text:0000000000000cb4 .L124
     /tmp/ccXFfN6y.s:2123   .text:0000000000000c9c .L125
     /tmp/ccXFfN6y.s:2249   .text:0000000000000d78 .L133
     /tmp/ccXFfN6y.s:2262   .text:0000000000000d9c .L131
     /tmp/ccXFfN6y.s:2240   .text:0000000000000d6c .L135
     /tmp/ccXFfN6y.s:2245   .text:0000000000000d74 .L132
     /tmp/ccXFfN6y.s:2328   .text:0000000000000e04 .L140
     /tmp/ccXFfN6y.s:2332   .text:0000000000000e08 .L137
     /tmp/ccXFfN6y.s:2362   .text:0000000000000e4c .L136
     /tmp/ccXFfN6y.s:2381   .text:0000000000000e6c .L143
     /tmp/ccXFfN6y.s:2350   .text:0000000000000e2c .L139
     /tmp/ccXFfN6y.s:2508   .text:0000000000000f70 .L149
     /tmp/ccXFfN6y.s:2471   .text:0000000000000f30 .L146
     /tmp/ccXFfN6y.s:2449   .text:0000000000000ef8 .L147
     /tmp/ccXFfN6y.s:2488   .text:0000000000000f54 .L144
     /tmp/ccXFfN6y.s:2560   .text:0000000000000fb4 .L157
     /tmp/ccXFfN6y.s:2537   .text:0000000000000f94 .L153
     /tmp/ccXFfN6y.s:2545   .text:0000000000000fa0 .L152
     /tmp/ccXFfN6y.s:2628   .text:000000000000102c .L160
     /tmp/ccXFfN6y.s:2690   .text:0000000000001078 .L168
     /tmp/ccXFfN6y.s:2708   .text:0000000000001098 .L165
     /tmp/ccXFfN6y.s:2684   .text:0000000000001074 .L167
     /tmp/ccXFfN6y.s:2665   .text:0000000000001058 .L170
     /tmp/ccXFfN6y.s:2775   .text:00000000000010f4 .L172
GAS LISTING /tmp/ccXFfN6y.s 			page 92


     /tmp/ccXFfN6y.s:2760   .text:00000000000010dc .L173
     /tmp/ccXFfN6y.s:2795   .text:0000000000001110 .L174
     /tmp/ccXFfN6y.s:2780   .text:00000000000010f8 .L175
     /tmp/ccXFfN6y.s:2903   .text:00000000000011b0 .L182
     /tmp/ccXFfN6y.s:2887   .text:0000000000001188 .L185
     /tmp/ccXFfN6y.s:2895   .text:000000000000119c .L186
     /tmp/ccXFfN6y.s:2859   .text:0000000000001160 .L179
     /tmp/ccXFfN6y.s:2867   .text:000000000000116c .L180
     /tmp/ccXFfN6y.s:6583   .debug_abbrev:0000000000000000 .Ldebug_abbrev0
     /tmp/ccXFfN6y.s:9159   .debug_str:0000000000000600 .LASF318
     /tmp/ccXFfN6y.s:9263   .debug_str:0000000000000a3b .LASF319
     /tmp/ccXFfN6y.s:9157   .debug_str:00000000000005e2 .LASF320
     /tmp/ccXFfN6y.s:5      .text:0000000000000000 .Ltext0
     /tmp/ccXFfN6y.s:2923   .text:00000000000011b8 .Letext0
     /tmp/ccXFfN6y.s:8965   .debug_line:0000000000000000 .Ldebug_line0
     /tmp/ccXFfN6y.s:9195   .debug_str:0000000000000814 .LASF0
     /tmp/ccXFfN6y.s:9227   .debug_str:000000000000093f .LASF1
     /tmp/ccXFfN6y.s:9383   .debug_str:0000000000000ea6 .LASF2
     /tmp/ccXFfN6y.s:9123   .debug_str:00000000000004ee .LASF3
     /tmp/ccXFfN6y.s:9399   .debug_str:0000000000000f25 .LASF4
     /tmp/ccXFfN6y.s:9209   .debug_str:0000000000000886 .LASF5
     /tmp/ccXFfN6y.s:8989   .debug_str:00000000000000c9 .LASF6
     /tmp/ccXFfN6y.s:9335   .debug_str:0000000000000cef .LASF7
     /tmp/ccXFfN6y.s:9219   .debug_str:00000000000008f0 .LASF8
     /tmp/ccXFfN6y.s:9153   .debug_str:00000000000005c8 .LASF9
     /tmp/ccXFfN6y.s:9167   .debug_str:0000000000000703 .LASF10
     /tmp/ccXFfN6y.s:9049   .debug_str:0000000000000306 .LASF11
     /tmp/ccXFfN6y.s:9449   .debug_str:00000000000010e9 .LASF12
     /tmp/ccXFfN6y.s:9139   .debug_str:0000000000000555 .LASF13
     /tmp/ccXFfN6y.s:9069   .debug_str:0000000000000374 .LASF14
     /tmp/ccXFfN6y.s:9047   .debug_str:00000000000002f6 .LASF15
     /tmp/ccXFfN6y.s:9453   .debug_str:000000000000111e .LASF16
     /tmp/ccXFfN6y.s:9111   .debug_str:000000000000049c .LASF17
     /tmp/ccXFfN6y.s:9439   .debug_str:000000000000107a .LASF18
     /tmp/ccXFfN6y.s:9135   .debug_str:0000000000000537 .LASF19
     /tmp/ccXFfN6y.s:9133   .debug_str:000000000000052a .LASF30
     /tmp/ccXFfN6y.s:9155   .debug_str:00000000000005d8 .LASF20
     /tmp/ccXFfN6y.s:9131   .debug_str:000000000000051e .LASF21
     /tmp/ccXFfN6y.s:9285   .debug_str:0000000000000b2b .LASF22
     /tmp/ccXFfN6y.s:9161   .debug_str:00000000000006d0 .LASF23
     /tmp/ccXFfN6y.s:9431   .debug_str:0000000000001045 .LASF24
     /tmp/ccXFfN6y.s:9549   .debug_str:0000000000001420 .LASF25
     /tmp/ccXFfN6y.s:9261   .debug_str:0000000000000a36 .LASF26
     /tmp/ccXFfN6y.s:9193   .debug_str:000000000000080f .LASF27
     /tmp/ccXFfN6y.s:9205   .debug_str:000000000000086d .LASF28
     /tmp/ccXFfN6y.s:9471   .debug_str:0000000000001172 .LASF29
     /tmp/ccXFfN6y.s:9339   .debug_str:0000000000000d0a .LASF31
     /tmp/ccXFfN6y.s:9051   .debug_str:0000000000000315 .LASF32
     /tmp/ccXFfN6y.s:9367   .debug_str:0000000000000e02 .LASF33
     /tmp/ccXFfN6y.s:9465   .debug_str:000000000000115b .LASF34
     /tmp/ccXFfN6y.s:9241   .debug_str:000000000000099c .LASF35
     /tmp/ccXFfN6y.s:9257   .debug_str:0000000000000a1d .LASF36
     /tmp/ccXFfN6y.s:9267   .debug_str:0000000000000a67 .LASF37
     /tmp/ccXFfN6y.s:9481   .debug_str:00000000000011a0 .LASF38
     /tmp/ccXFfN6y.s:9525   .debug_str:0000000000001339 .LASF39
     /tmp/ccXFfN6y.s:9231   .debug_str:000000000000095d .LASF40
     /tmp/ccXFfN6y.s:9127   .debug_str:0000000000000502 .LASF41
GAS LISTING /tmp/ccXFfN6y.s 			page 93


     /tmp/ccXFfN6y.s:9475   .debug_str:0000000000001182 .LASF321
     /tmp/ccXFfN6y.s:9467   .debug_str:0000000000001161 .LASF42
     /tmp/ccXFfN6y.s:9421   .debug_str:0000000000000fe0 .LASF43
     /tmp/ccXFfN6y.s:9059   .debug_str:0000000000000338 .LASF44
     /tmp/ccXFfN6y.s:9027   .debug_str:000000000000021d .LASF45
     /tmp/ccXFfN6y.s:9337   .debug_str:0000000000000d02 .LASF46
     /tmp/ccXFfN6y.s:9057   .debug_str:000000000000032f .LASF47
     /tmp/ccXFfN6y.s:9463   .debug_str:0000000000001153 .LASF48
     /tmp/ccXFfN6y.s:9185   .debug_str:00000000000007cb .LASF49
     /tmp/ccXFfN6y.s:8991   .debug_str:00000000000000d0 .LASF55
     /tmp/ccXFfN6y.s:9513   .debug_str:00000000000012b5 .LASF322
     /tmp/ccXFfN6y.s:9319   .debug_str:0000000000000c87 .LASF50
     /tmp/ccXFfN6y.s:9225   .debug_str:000000000000093a .LASF51
     /tmp/ccXFfN6y.s:9591   .debug_str:0000000000001565 .LASF53
     /tmp/ccXFfN6y.s:9583   .debug_str:0000000000001533 .LASF52
     /tmp/ccXFfN6y.s:9489   .debug_str:00000000000011d9 .LASF54
     /tmp/ccXFfN6y.s:9097   .debug_str:0000000000000457 .LASF78
     /tmp/ccXFfN6y.s:9003   .debug_str:0000000000000149 .LASF80
     /tmp/ccXFfN6y.s:9479   .debug_str:0000000000001198 .LASF56
     /tmp/ccXFfN6y.s:9409   .debug_str:0000000000000f7f .LASF57
     /tmp/ccXFfN6y.s:9235   .debug_str:0000000000000972 .LASF60
     /tmp/ccXFfN6y.s:9249   .debug_str:00000000000009cc .LASF62
     /tmp/ccXFfN6y.s:9599   .debug_str:00000000000015ce .LASF58
     /tmp/ccXFfN6y.s:9119   .debug_str:00000000000004d5 .LASF59
     /tmp/ccXFfN6y.s:8979   .debug_str:000000000000007d .LASF104
     /tmp/ccXFfN6y.s:9081   .debug_str:00000000000003ec .LASF106
     /tmp/ccXFfN6y.s:9413   .debug_str:0000000000000f9c .LASF61
     /tmp/ccXFfN6y.s:9289   .debug_str:0000000000000b3c .LASF63
     /tmp/ccXFfN6y.s:9393   .debug_str:0000000000000eeb .LASF64
     /tmp/ccXFfN6y.s:9447   .debug_str:00000000000010cd .LASF65
     /tmp/ccXFfN6y.s:9291   .debug_str:0000000000000b4f .LASF66
     /tmp/ccXFfN6y.s:8973   .debug_str:000000000000003f .LASF67
     /tmp/ccXFfN6y.s:9569   .debug_str:00000000000014c8 .LASF68
     /tmp/ccXFfN6y.s:9333   .debug_str:0000000000000cd5 .LASF69
     /tmp/ccXFfN6y.s:9437   .debug_str:000000000000106c .LASF70
     /tmp/ccXFfN6y.s:9349   .debug_str:0000000000000d41 .LASF71
     /tmp/ccXFfN6y.s:9087   .debug_str:000000000000041c .LASF72
     /tmp/ccXFfN6y.s:9143   .debug_str:000000000000057a .LASF73
     /tmp/ccXFfN6y.s:9375   .debug_str:0000000000000e55 .LASF74
     /tmp/ccXFfN6y.s:9571   .debug_str:00000000000014d7 .LASF75
     /tmp/ccXFfN6y.s:9573   .debug_str:00000000000014e6 .LASF76
     /tmp/ccXFfN6y.s:9211   .debug_str:0000000000000898 .LASF77
     /tmp/ccXFfN6y.s:9433   .debug_str:000000000000104f .LASF79
     /tmp/ccXFfN6y.s:9589   .debug_str:000000000000154f .LASF81
     /tmp/ccXFfN6y.s:9171   .debug_str:000000000000073a .LASF82
     /tmp/ccXFfN6y.s:9141   .debug_str:0000000000000564 .LASF83
     /tmp/ccXFfN6y.s:9405   .debug_str:0000000000000f5c .LASF84
     /tmp/ccXFfN6y.s:9197   .debug_str:0000000000000821 .LASF85
     /tmp/ccXFfN6y.s:9299   .debug_str:0000000000000b89 .LASF86
     /tmp/ccXFfN6y.s:9075   .debug_str:00000000000003c4 .LASF87
     /tmp/ccXFfN6y.s:9357   .debug_str:0000000000000d93 .LASF88
     /tmp/ccXFfN6y.s:9611   .debug_str:000000000000163a .LASF89
     /tmp/ccXFfN6y.s:9305   .debug_str:0000000000000bd2 .LASF90
     /tmp/ccXFfN6y.s:9391   .debug_str:0000000000000ed8 .LASF91
     /tmp/ccXFfN6y.s:9415   .debug_str:0000000000000fa5 .LASF92
     /tmp/ccXFfN6y.s:9535   .debug_str:000000000000137b .LASF93
     /tmp/ccXFfN6y.s:9277   .debug_str:0000000000000ada .LASF94
GAS LISTING /tmp/ccXFfN6y.s 			page 94


     /tmp/ccXFfN6y.s:9517   .debug_str:00000000000012f7 .LASF95
     /tmp/ccXFfN6y.s:9445   .debug_str:00000000000010ad .LASF96
     /tmp/ccXFfN6y.s:9327   .debug_str:0000000000000ca9 .LASF97
     /tmp/ccXFfN6y.s:9309   .debug_str:0000000000000c1f .LASF98
     /tmp/ccXFfN6y.s:9105   .debug_str:000000000000047a .LASF99
     /tmp/ccXFfN6y.s:9201   .debug_str:0000000000000858 .LASF100
     /tmp/ccXFfN6y.s:9281   .debug_str:0000000000000b17 .LASF101
     /tmp/ccXFfN6y.s:9493   .debug_str:00000000000011f4 .LASF102
     /tmp/ccXFfN6y.s:9147   .debug_str:0000000000000590 .LASF103
     /tmp/ccXFfN6y.s:9581   .debug_str:0000000000001525 .LASF105
     /tmp/ccXFfN6y.s:9013   .debug_str:00000000000001ab .LASF107
     /tmp/ccXFfN6y.s:9129   .debug_str:0000000000000509 .LASF108
     /tmp/ccXFfN6y.s:9041   .debug_str:00000000000002b7 .LASF109
     /tmp/ccXFfN6y.s:9567   .debug_str:00000000000014c1 .LASF110
     /tmp/ccXFfN6y.s:9037   .debug_str:0000000000000281 .LASF111
     /tmp/ccXFfN6y.s:8977   .debug_str:0000000000000078 .LASF112
     /tmp/ccXFfN6y.s:9531   .debug_str:000000000000136a .LASF113
     /tmp/ccXFfN6y.s:9255   .debug_str:0000000000000a15 .LASF114
     /tmp/ccXFfN6y.s:9103   .debug_str:0000000000000474 .LASF115
     /tmp/ccXFfN6y.s:9511   .debug_str:00000000000012ad .LASF116
     /tmp/ccXFfN6y.s:9025   .debug_str:000000000000020c .LASF117
     /tmp/ccXFfN6y.s:9499   .debug_str:000000000000121f .LASF118
     /tmp/ccXFfN6y.s:9363   .debug_str:0000000000000dd2 .LASF119
     /tmp/ccXFfN6y.s:9163   .debug_str:00000000000006de .LASF120
     /tmp/ccXFfN6y.s:9387   .debug_str:0000000000000ec0 .LASF121
     /tmp/ccXFfN6y.s:9361   .debug_str:0000000000000dbe .LASF122
     /tmp/ccXFfN6y.s:9099   .debug_str:0000000000000460 .LASF123
     /tmp/ccXFfN6y.s:9429   .debug_str:000000000000102e .LASF124
     /tmp/ccXFfN6y.s:9457   .debug_str:000000000000113d .LASF125
     /tmp/ccXFfN6y.s:9295   .debug_str:0000000000000b67 .LASF126
     /tmp/ccXFfN6y.s:8969   .debug_str:000000000000000f .LASF127
     /tmp/ccXFfN6y.s:9389   .debug_str:0000000000000ecc .LASF128
     /tmp/ccXFfN6y.s:9269   .debug_str:0000000000000a73 .LASF129
     /tmp/ccXFfN6y.s:9381   .debug_str:0000000000000e91 .LASF130
     /tmp/ccXFfN6y.s:9053   .debug_str:000000000000031a .LASF131
     /tmp/ccXFfN6y.s:9061   .debug_str:0000000000000342 .LASF132
     /tmp/ccXFfN6y.s:9293   .debug_str:0000000000000b5e .LASF133
     /tmp/ccXFfN6y.s:9397   .debug_str:0000000000000f1a .LASF134
     /tmp/ccXFfN6y.s:8967   .debug_str:0000000000000000 .LASF135
     /tmp/ccXFfN6y.s:9179   .debug_str:0000000000000788 .LASF136
     /tmp/ccXFfN6y.s:9509   .debug_str:000000000000129e .LASF137
     /tmp/ccXFfN6y.s:9451   .debug_str:00000000000010fc .LASF138
     /tmp/ccXFfN6y.s:9417   .debug_str:0000000000000fc3 .LASF139
     /tmp/ccXFfN6y.s:9073   .debug_str:00000000000003a0 .LASF140
     /tmp/ccXFfN6y.s:9317   .debug_str:0000000000000c77 .LASF141
     /tmp/ccXFfN6y.s:9353   .debug_str:0000000000000d5f .LASF142
     /tmp/ccXFfN6y.s:9315   .debug_str:0000000000000c71 .LASF143
     /tmp/ccXFfN6y.s:9603   .debug_str:0000000000001601 .LASF144
     /tmp/ccXFfN6y.s:8981   .debug_str:000000000000008d .LASF145
     /tmp/ccXFfN6y.s:9253   .debug_str:00000000000009fb .LASF146
     /tmp/ccXFfN6y.s:9597   .debug_str:00000000000015be .LASF147
     /tmp/ccXFfN6y.s:9401   .debug_str:0000000000000f2c .LASF148
     /tmp/ccXFfN6y.s:9455   .debug_str:000000000000112a .LASF149
     /tmp/ccXFfN6y.s:9395   .debug_str:0000000000000ef4 .LASF150
     /tmp/ccXFfN6y.s:9605   .debug_str:0000000000001619 .LASF151
     /tmp/ccXFfN6y.s:9223   .debug_str:0000000000000916 .LASF152
     /tmp/ccXFfN6y.s:9297   .debug_str:0000000000000b80 .LASF153
GAS LISTING /tmp/ccXFfN6y.s 			page 95


     /tmp/ccXFfN6y.s:9023   .debug_str:00000000000001fc .LASF154
     /tmp/ccXFfN6y.s:9501   .debug_str:0000000000001224 .LASF155
     /tmp/ccXFfN6y.s:9403   .debug_str:0000000000000f4f .LASF156
     /tmp/ccXFfN6y.s:8975   .debug_str:0000000000000059 .LASF157
     /tmp/ccXFfN6y.s:9011   .debug_str:0000000000000198 .LASF158
     /tmp/ccXFfN6y.s:9311   .debug_str:0000000000000c3e .LASF159
     /tmp/ccXFfN6y.s:9329   .debug_str:0000000000000cbd .LASF160
     /tmp/ccXFfN6y.s:9183   .debug_str:00000000000007b7 .LASF161
     /tmp/ccXFfN6y.s:9321   .debug_str:0000000000000c8c .LASF162
     /tmp/ccXFfN6y.s:9229   .debug_str:0000000000000952 .LASF163
     /tmp/ccXFfN6y.s:9347   .debug_str:0000000000000d37 .LASF164
     /tmp/ccXFfN6y.s:9537   .debug_str:000000000000138e .LASF165
     /tmp/ccXFfN6y.s:9461   .debug_str:000000000000114a .LASF166
     /tmp/ccXFfN6y.s:9473   .debug_str:0000000000001177 .LASF167
     /tmp/ccXFfN6y.s:9533   .debug_str:000000000000136f .LASF168
     /tmp/ccXFfN6y.s:9547   .debug_str:0000000000001413 .LASF169
     /tmp/ccXFfN6y.s:9283   .debug_str:0000000000000b1f .LASF170
     /tmp/ccXFfN6y.s:9345   .debug_str:0000000000000d2b .LASF171
     /tmp/ccXFfN6y.s:9435   .debug_str:000000000000105a .LASF174
     /tmp/ccXFfN6y.s:9423   .debug_str:0000000000000fe8 .LASF176
     /tmp/ccXFfN6y.s:9523   .debug_str:0000000000001327 .LASF172
     /tmp/ccXFfN6y.s:9565   .debug_str:000000000000149f .LASF173
     /tmp/ccXFfN6y.s:9521   .debug_str:0000000000001315 .LASF175
     /tmp/ccXFfN6y.s:8995   .debug_str:00000000000000fb .LASF177
     /tmp/ccXFfN6y.s:9221   .debug_str:0000000000000903 .LASF178
     /tmp/ccXFfN6y.s:9035   .debug_str:000000000000025e .LASF179
     /tmp/ccXFfN6y.s:9109   .debug_str:0000000000000489 .LASF180
     /tmp/ccXFfN6y.s:9029   .debug_str:0000000000000226 .LASF181
     /tmp/ccXFfN6y.s:9005   .debug_str:000000000000015c .LASF182
     /tmp/ccXFfN6y.s:9545   .debug_str:0000000000001404 .LASF183
     /tmp/ccXFfN6y.s:9279   .debug_str:0000000000000af8 .LASF184
     /tmp/ccXFfN6y.s:9563   .debug_str:0000000000001486 .LASF185
     /tmp/ccXFfN6y.s:9213   .debug_str:00000000000008a5 .LASF186
     /tmp/ccXFfN6y.s:9239   .debug_str:0000000000000984 .LASF187
     /tmp/ccXFfN6y.s:9593   .debug_str:0000000000001571 .LASF188
     /tmp/ccXFfN6y.s:9137   .debug_str:0000000000000544 .LASF189
     /tmp/ccXFfN6y.s:9555   .debug_str:000000000000144e .LASF190
     /tmp/ccXFfN6y.s:9149   .debug_str:000000000000059c .LASF191
     /tmp/ccXFfN6y.s:9575   .debug_str:00000000000014f1 .LASF192
     /tmp/ccXFfN6y.s:9175   .debug_str:0000000000000766 .LASF193
     /tmp/ccXFfN6y.s:8997   .debug_str:000000000000011d .LASF194
     /tmp/ccXFfN6y.s:9243   .debug_str:00000000000009a1 .LASF195
     /tmp/ccXFfN6y.s:9313   .debug_str:0000000000000c65 .LASF196
     /tmp/ccXFfN6y.s:9007   .debug_str:0000000000000177 .LASF197
     /tmp/ccXFfN6y.s:9485   .debug_str:00000000000011c0 .LASF198
     /tmp/ccXFfN6y.s:9009   .debug_str:0000000000000193 .LASF199
     /tmp/ccXFfN6y.s:9459   .debug_str:0000000000001144 .LASF200
     /tmp/ccXFfN6y.s:9379   .debug_str:0000000000000e84 .LASF201
     /tmp/ccXFfN6y.s:8985   .debug_str:00000000000000a0 .LASF202
     /tmp/ccXFfN6y.s:9303   .debug_str:0000000000000bc8 .LASF203
     /tmp/ccXFfN6y.s:9113   .debug_str:00000000000004b2 .LASF204
     /tmp/ccXFfN6y.s:9215   .debug_str:00000000000008ce .LASF205
     /tmp/ccXFfN6y.s:9359   .debug_str:0000000000000db0 .LASF206
     /tmp/ccXFfN6y.s:9343   .debug_str:0000000000000d1d .LASF207
     /tmp/ccXFfN6y.s:9217   .debug_str:00000000000008df .LASF208
     /tmp/ccXFfN6y.s:9557   .debug_str:0000000000001460 .LASF209
     /tmp/ccXFfN6y.s:9585   .debug_str:0000000000001539 .LASF210
GAS LISTING /tmp/ccXFfN6y.s 			page 96


     /tmp/ccXFfN6y.s:9595   .debug_str:000000000000159a .LASF212
     /tmp/ccXFfN6y.s:2833   .text:0000000000001138 .LFB38
     /tmp/ccXFfN6y.s:2913   .text:00000000000011b8 .LFE38
     /tmp/ccXFfN6y.s:9187   .debug_str:00000000000007d1 .LASF214
     /tmp/ccXFfN6y.s:7602   .debug_loc:0000000000000000 .LLST88
     /tmp/ccXFfN6y.s:2893   .text:0000000000001198 .LVL295
     /tmp/ccXFfN6y.s:2900   .text:00000000000011ac .LVL296
     /tmp/ccXFfN6y.s:9427   .debug_str:000000000000101c .LASF211
     /tmp/ccXFfN6y.s:9541   .debug_str:00000000000013bc .LASF213
     /tmp/ccXFfN6y.s:2596   .text:0000000000000ffc .LFB37
     /tmp/ccXFfN6y.s:2635   .text:0000000000001034 .LFE37
     /tmp/ccXFfN6y.s:7635   .debug_loc:0000000000000088 .LLST81
     /tmp/ccXFfN6y.s:9411   .debug_str:0000000000000f90 .LASF215
     /tmp/ccXFfN6y.s:7666   .debug_loc:00000000000000ff .LLST82
     /tmp/ccXFfN6y.s:2616   .text:000000000000101c .LVL268
     /tmp/ccXFfN6y.s:9115   .debug_str:00000000000004b9 .LASF216
     /tmp/ccXFfN6y.s:9601   .debug_str:00000000000015db .LASF218
     /tmp/ccXFfN6y.s:2517   .text:0000000000000f74 .LFB36
     /tmp/ccXFfN6y.s:2590   .text:0000000000000ffc .LFE36
     /tmp/ccXFfN6y.s:7673   .debug_loc:0000000000000122 .LLST80
     /tmp/ccXFfN6y.s:2570   .text:0000000000000fc8 .LVL262
     /tmp/ccXFfN6y.s:2575   .text:0000000000000fd4 .LVL263
     /tmp/ccXFfN6y.s:2580   .text:0000000000000fe0 .LVL264
     /tmp/ccXFfN6y.s:2587   .text:0000000000000ff8 .LVL265
     /tmp/ccXFfN6y.s:9145   .debug_str:000000000000058a .LASF217
     /tmp/ccXFfN6y.s:9233   .debug_str:0000000000000966 .LASF219
     /tmp/ccXFfN6y.s:2420   .text:0000000000000ecc .LFB35
     /tmp/ccXFfN6y.s:2511   .text:0000000000000f74 .LFE35
     /tmp/ccXFfN6y.s:9247   .debug_str:00000000000009c7 .LASF220
     /tmp/ccXFfN6y.s:7695   .debug_loc:0000000000000181 .LLST77
     /tmp/ccXFfN6y.s:9331   .debug_str:0000000000000cd0 .LASF221
     /tmp/ccXFfN6y.s:7717   .debug_loc:00000000000001e0 .LLST78
     /tmp/ccXFfN6y.s:8933   .debug_ranges:0000000000000000 .Ldebug_ranges0
     /tmp/ccXFfN6y.s:7724   .debug_loc:0000000000000203 .LLST79
     /tmp/ccXFfN6y.s:2462   .text:0000000000000f20 .LVL249
     /tmp/ccXFfN6y.s:2480   .text:0000000000000f44 .LVL252
     /tmp/ccXFfN6y.s:2487   .text:0000000000000f54 .LVL253
     /tmp/ccXFfN6y.s:9559   .debug_str:000000000000146e .LASF222
     /tmp/ccXFfN6y.s:9385   .debug_str:0000000000000eb4 .LASF223
     /tmp/ccXFfN6y.s:2297   .text:0000000000000dc8 .LFB34
     /tmp/ccXFfN6y.s:2414   .text:0000000000000ecc .LFE34
     /tmp/ccXFfN6y.s:9079   .debug_str:00000000000003e7 .LASF224
     /tmp/ccXFfN6y.s:7731   .debug_loc:0000000000000226 .LLST74
     /tmp/ccXFfN6y.s:9107   .debug_str:0000000000000483 .LASF225
     /tmp/ccXFfN6y.s:7753   .debug_loc:0000000000000285 .LLST75
     /tmp/ccXFfN6y.s:9021   .debug_str:00000000000001f6 .LASF226
     /tmp/ccXFfN6y.s:7760   .debug_loc:00000000000002a8 .LLST76
     /tmp/ccXFfN6y.s:2318   .text:0000000000000dec .LVL236
     /tmp/ccXFfN6y.s:2359   .text:0000000000000e48 .LVL241
     /tmp/ccXFfN6y.s:2387   .text:0000000000000e78 .LVL244
     /tmp/ccXFfN6y.s:2403   .text:0000000000000ea4 .LVL245
     /tmp/ccXFfN6y.s:2411   .text:0000000000000ec8 .LVL246
     /tmp/ccXFfN6y.s:9477   .debug_str:0000000000001188 .LASF227
     /tmp/ccXFfN6y.s:9369   .debug_str:0000000000000e0d .LASF228
     /tmp/ccXFfN6y.s:1999   .text:0000000000000b84 .LFB33
     /tmp/ccXFfN6y.s:2163   .text:0000000000000ce0 .LFE33
     /tmp/ccXFfN6y.s:7771   .debug_loc:00000000000002de .LLST71
GAS LISTING /tmp/ccXFfN6y.s 			page 97


     /tmp/ccXFfN6y.s:7793   .debug_loc:000000000000033d .LLST72
     /tmp/ccXFfN6y.s:2024   .text:0000000000000bb4 .LVL199
     /tmp/ccXFfN6y.s:2029   .text:0000000000000bc4 .LVL200
     /tmp/ccXFfN6y.s:2034   .text:0000000000000bd4 .LVL201
     /tmp/ccXFfN6y.s:2039   .text:0000000000000be0 .LVL202
     /tmp/ccXFfN6y.s:2044   .text:0000000000000bf0 .LVL203
     /tmp/ccXFfN6y.s:2051   .text:0000000000000c08 .LVL204
     /tmp/ccXFfN6y.s:2058   .text:0000000000000c20 .LVL205
     /tmp/ccXFfN6y.s:2063   .text:0000000000000c30 .LVL206
     /tmp/ccXFfN6y.s:2068   .text:0000000000000c40 .LVL207
     /tmp/ccXFfN6y.s:2081   .text:0000000000000c54 .LVL209
     /tmp/ccXFfN6y.s:2093   .text:0000000000000c6c .LVL211
     /tmp/ccXFfN6y.s:2106   .text:0000000000000c80 .LVL213
     /tmp/ccXFfN6y.s:2118   .text:0000000000000c98 .LVL215
     /tmp/ccXFfN6y.s:2131   .text:0000000000000cac .LVL217
     /tmp/ccXFfN6y.s:2143   .text:0000000000000cc4 .LVL219
     /tmp/ccXFfN6y.s:9033   .debug_str:000000000000024e .LASF229
     /tmp/ccXFfN6y.s:9365   .debug_str:0000000000000ddd .LASF230
     /tmp/ccXFfN6y.s:1913   .text:0000000000000b34 .LFB32
     /tmp/ccXFfN6y.s:1961   .text:0000000000000b84 .LFE32
     /tmp/ccXFfN6y.s:7800   .debug_loc:0000000000000360 .LLST68
     /tmp/ccXFfN6y.s:7818   .debug_loc:00000000000003ac .LLST69
     /tmp/ccXFfN6y.s:7840   .debug_loc:000000000000040b .LLST70
     /tmp/ccXFfN6y.s:1936   .text:0000000000000b5c .LVL193
     /tmp/ccXFfN6y.s:1943   .text:0000000000000b6c .LVL194
     /tmp/ccXFfN6y.s:9077   .debug_str:00000000000003d6 .LASF231
     /tmp/ccXFfN6y.s:9189   .debug_str:00000000000007d8 .LASF232
     /tmp/ccXFfN6y.s:1634   .text:0000000000000958 .LFB31
     /tmp/ccXFfN6y.s:1823   .text:0000000000000a90 .LFE31
     /tmp/ccXFfN6y.s:7847   .debug_loc:000000000000042e .LLST59
     /tmp/ccXFfN6y.s:9125   .debug_str:00000000000004f4 .LASF233
     /tmp/ccXFfN6y.s:7869   .debug_loc:000000000000048d .LLST62
     /tmp/ccXFfN6y.s:1711   .text:00000000000009d8 .LVL163
     /tmp/ccXFfN6y.s:1719   .text:00000000000009e8 .LVL166
     /tmp/ccXFfN6y.s:1751   .text:0000000000000a14 .LVL170
     /tmp/ccXFfN6y.s:1668   .text:0000000000000988 .LBB16
     /tmp/ccXFfN6y.s:1705   .text:00000000000009d0 .LBE16
     /tmp/ccXFfN6y.s:7884   .debug_loc:00000000000004d6 .LLST60
     /tmp/ccXFfN6y.s:1672   .text:0000000000000990 .LVL155
     /tmp/ccXFfN6y.s:1680   .text:00000000000009a0 .LVL158
     /tmp/ccXFfN6y.s:1687   .text:00000000000009b0 .LVL159
     /tmp/ccXFfN6y.s:1692   .text:00000000000009bc .LVL160
     /tmp/ccXFfN6y.s:1699   .text:00000000000009cc .LVL161
     /tmp/ccXFfN6y.s:1759   .text:0000000000000a18 .LBB17
     /tmp/ccXFfN6y.s:1816   .text:0000000000000a88 .LBE17
     /tmp/ccXFfN6y.s:7895   .debug_loc:000000000000050c .LLST61
     /tmp/ccXFfN6y.s:1764   .text:0000000000000a24 .LVL172
     /tmp/ccXFfN6y.s:1774   .text:0000000000000a38 .LVL173
     /tmp/ccXFfN6y.s:1782   .text:0000000000000a48 .LVL176
     /tmp/ccXFfN6y.s:1789   .text:0000000000000a58 .LVL177
     /tmp/ccXFfN6y.s:1794   .text:0000000000000a64 .LVL178
     /tmp/ccXFfN6y.s:1801   .text:0000000000000a74 .LVL179
     /tmp/ccXFfN6y.s:9373   .debug_str:0000000000000e43 .LASF234
     /tmp/ccXFfN6y.s:9539   .debug_str:0000000000001399 .LASF235
     /tmp/ccXFfN6y.s:1829   .text:0000000000000a90 .LFB30
     /tmp/ccXFfN6y.s:1907   .text:0000000000000b34 .LFE30
     /tmp/ccXFfN6y.s:9237   .debug_str:000000000000097f .LASF236
GAS LISTING /tmp/ccXFfN6y.s 			page 98


     /tmp/ccXFfN6y.s:7906   .debug_loc:0000000000000542 .LLST63
     /tmp/ccXFfN6y.s:7924   .debug_loc:000000000000058e .LLST64
     /tmp/ccXFfN6y.s:7942   .debug_loc:00000000000005da .LLST65
     /tmp/ccXFfN6y.s:7960   .debug_loc:0000000000000626 .LLST66
     /tmp/ccXFfN6y.s:9441   .debug_str:0000000000001090 .LASF237
     /tmp/ccXFfN6y.s:7978   .debug_loc:0000000000000672 .LLST67
     /tmp/ccXFfN6y.s:1861   .text:0000000000000ad8 .LVL183
     /tmp/ccXFfN6y.s:1870   .text:0000000000000aec .LVL185
     /tmp/ccXFfN6y.s:1878   .text:0000000000000b0c .LVL186
     /tmp/ccXFfN6y.s:9245   .debug_str:00000000000009bd .LASF238
     /tmp/ccXFfN6y.s:9561   .debug_str:0000000000001476 .LASF239
     /tmp/ccXFfN6y.s:1596   .text:0000000000000920 .LFB29
     /tmp/ccXFfN6y.s:1628   .text:0000000000000958 .LFE29
     /tmp/ccXFfN6y.s:9019   .debug_str:00000000000001f0 .LASF240
     /tmp/ccXFfN6y.s:7989   .debug_loc:00000000000006a8 .LLST56
     /tmp/ccXFfN6y.s:9607   .debug_str:0000000000001626 .LASF241
     /tmp/ccXFfN6y.s:8003   .debug_loc:00000000000006e1 .LLST57
     /tmp/ccXFfN6y.s:9287   .debug_str:0000000000000b36 .LASF242
     /tmp/ccXFfN6y.s:8017   .debug_loc:000000000000071a .LLST58
     /tmp/ccXFfN6y.s:1611   .text:0000000000000938 .LVL151
     /tmp/ccXFfN6y.s:1615   .text:0000000000000940 .LVL152
     /tmp/ccXFfN6y.s:9275   .debug_str:0000000000000ac8 .LASF243
     /tmp/ccXFfN6y.s:9553   .debug_str:0000000000001437 .LASF244
     /tmp/ccXFfN6y.s:2733   .text:00000000000010b0 .LFB28
     /tmp/ccXFfN6y.s:2819   .text:0000000000001138 .LFE28
     /tmp/ccXFfN6y.s:8024   .debug_loc:000000000000073d .LLST86
     /tmp/ccXFfN6y.s:8031   .debug_loc:0000000000000760 .LLST87
     /tmp/ccXFfN6y.s:2768   .text:00000000000010ec .LVL283
     /tmp/ccXFfN6y.s:2788   .text:0000000000001108 .LVL286
     /tmp/ccXFfN6y.s:2800   .text:000000000000111c .LVL288
     /tmp/ccXFfN6y.s:9483   .debug_str:00000000000011aa .LASF245
     /tmp/ccXFfN6y.s:9377   .debug_str:0000000000000e62 .LASF246
     /tmp/ccXFfN6y.s:2641   .text:0000000000001034 .LFB27
     /tmp/ccXFfN6y.s:2727   .text:00000000000010b0 .LFE27
     /tmp/ccXFfN6y.s:8038   .debug_loc:0000000000000783 .LLST83
     /tmp/ccXFfN6y.s:8056   .debug_loc:00000000000007cf .LLST84
     /tmp/ccXFfN6y.s:2667   .text:0000000000001058 .LBB28
     /tmp/ccXFfN6y.s:2685   .text:0000000000001074 .LBE28
     /tmp/ccXFfN6y.s:9031   .debug_str:0000000000000249 .LASF247
     /tmp/ccXFfN6y.s:8068   .debug_loc:0000000000000806 .LLST85
     /tmp/ccXFfN6y.s:2683   .text:0000000000001074 .LVL276
     /tmp/ccXFfN6y.s:2704   .text:0000000000001090 .LVL278
     /tmp/ccXFfN6y.s:9251   .debug_str:00000000000009e4 .LASF248
     /tmp/ccXFfN6y.s:9071   .debug_str:0000000000000384 .LASF249
     /tmp/ccXFfN6y.s:2186   .text:0000000000000ce0 .LFB26
     /tmp/ccXFfN6y.s:2286   .text:0000000000000dc8 .LFE26
     /tmp/ccXFfN6y.s:2235   .text:0000000000000d64 .LBB23
     /tmp/ccXFfN6y.s:2263   .text:0000000000000d9c .LBE23
     /tmp/ccXFfN6y.s:8081   .debug_loc:000000000000083e .LLST73
     /tmp/ccXFfN6y.s:2244   .text:0000000000000d74 .LVL230
     /tmp/ccXFfN6y.s:2203   .text:0000000000000d04 .LVL223
     /tmp/ccXFfN6y.s:2208   .text:0000000000000d14 .LVL224
     /tmp/ccXFfN6y.s:2216   .text:0000000000000d34 .LVL225
     /tmp/ccXFfN6y.s:2221   .text:0000000000000d44 .LVL226
     /tmp/ccXFfN6y.s:2228   .text:0000000000000d54 .LVL227
     /tmp/ccXFfN6y.s:2233   .text:0000000000000d64 .LVL228
     /tmp/ccXFfN6y.s:2268   .text:0000000000000dac .LVL232
GAS LISTING /tmp/ccXFfN6y.s 			page 99


     /tmp/ccXFfN6y.s:2272   .text:0000000000000db4 .LVL233
     /tmp/ccXFfN6y.s:9177   .debug_str:0000000000000777 .LASF250
     /tmp/ccXFfN6y.s:9301   .debug_str:0000000000000ba8 .LASF251
     /tmp/ccXFfN6y.s:1414   .text:00000000000007e8 .LFB25
     /tmp/ccXFfN6y.s:1590   .text:0000000000000920 .LFE25
     /tmp/ccXFfN6y.s:8093   .debug_loc:0000000000000875 .LLST52
     /tmp/ccXFfN6y.s:8119   .debug_loc:00000000000008e7 .LLST53
     /tmp/ccXFfN6y.s:9551   .debug_str:0000000000001429 .LASF252
     /tmp/ccXFfN6y.s:8145   .debug_loc:0000000000000959 .LLST54
     /tmp/ccXFfN6y.s:8156   .debug_loc:000000000000098f .LLST55
     /tmp/ccXFfN6y.s:1467   .text:000000000000084c .LVL136
     /tmp/ccXFfN6y.s:1481   .text:0000000000000860 .LVL138
     /tmp/ccXFfN6y.s:1492   .text:0000000000000870 .LVL139
     /tmp/ccXFfN6y.s:1499   .text:0000000000000880 .LVL140
     /tmp/ccXFfN6y.s:1544   .text:00000000000008cc .LVL145
     /tmp/ccXFfN6y.s:1555   .text:00000000000008e4 .LVL146
     /tmp/ccXFfN6y.s:1563   .text:00000000000008f8 .LVL147
     /tmp/ccXFfN6y.s:1571   .text:000000000000090c .LVL148
     /tmp/ccXFfN6y.s:9001   .debug_str:000000000000013b .LASF253
     /tmp/ccXFfN6y.s:9527   .debug_str:0000000000001349 .LASF254
     /tmp/ccXFfN6y.s:1353   .text:0000000000000764 .LFB24
     /tmp/ccXFfN6y.s:1408   .text:00000000000007e8 .LFE24
     /tmp/ccXFfN6y.s:8167   .debug_loc:00000000000009c5 .LLST51
     /tmp/ccXFfN6y.s:1373   .text:000000000000078c .LVL128
     /tmp/ccXFfN6y.s:1380   .text:00000000000007a4 .LVL129
     /tmp/ccXFfN6y.s:1387   .text:00000000000007bc .LVL130
     /tmp/ccXFfN6y.s:1394   .text:00000000000007d4 .LVL131
     /tmp/ccXFfN6y.s:9443   .debug_str:0000000000001099 .LASF255
     /tmp/ccXFfN6y.s:9173   .debug_str:0000000000000745 .LASF256
     /tmp/ccXFfN6y.s:1292   .text:0000000000000718 .LFB23
     /tmp/ccXFfN6y.s:1333   .text:0000000000000764 .LFE23
     /tmp/ccXFfN6y.s:8185   .debug_loc:0000000000000a11 .LLST49
     /tmp/ccXFfN6y.s:8199   .debug_loc:0000000000000a4a .LLST50
     /tmp/ccXFfN6y.s:9117   .debug_str:00000000000004cc .LASF257
     /tmp/ccXFfN6y.s:9507   .debug_str:0000000000001280 .LASF258
     /tmp/ccXFfN6y.s:1176   .text:0000000000000688 .LFB22
     /tmp/ccXFfN6y.s:1286   .text:0000000000000718 .LFE22
     /tmp/ccXFfN6y.s:8213   .debug_loc:0000000000000a83 .LLST45
     /tmp/ccXFfN6y.s:8232   .debug_loc:0000000000000adf .LLST46
     /tmp/ccXFfN6y.s:9043   .debug_str:00000000000002e3 .LASF259
     /tmp/ccXFfN6y.s:8243   .debug_loc:0000000000000b15 .LLST47
     /tmp/ccXFfN6y.s:8254   .debug_loc:0000000000000b4b .LLST48
     /tmp/ccXFfN6y.s:9371   .debug_str:0000000000000e30 .LASF260
     /tmp/ccXFfN6y.s:9577   .debug_str:00000000000014fe .LASF287
     /tmp/ccXFfN6y.s:1074   .text:0000000000000610 .LFB21
     /tmp/ccXFfN6y.s:1170   .text:0000000000000688 .LFE21
     /tmp/ccXFfN6y.s:8265   .debug_loc:0000000000000b81 .LLST38
     /tmp/ccXFfN6y.s:9091   .debug_str:000000000000043d .LASF261
     /tmp/ccXFfN6y.s:8279   .debug_loc:0000000000000bba .LLST39
     /tmp/ccXFfN6y.s:9121   .debug_str:00000000000004e1 .LASF262
     /tmp/ccXFfN6y.s:8300   .debug_loc:0000000000000c19 .LLST40
     /tmp/ccXFfN6y.s:9093   .debug_str:0000000000000446 .LASF263
     /tmp/ccXFfN6y.s:9491   .debug_str:00000000000011e9 .LASF264
     /tmp/ccXFfN6y.s:9259   .debug_str:0000000000000a2c .LASF265
     /tmp/ccXFfN6y.s:1115   .text:000000000000063c .LBB8
     /tmp/ccXFfN6y.s:1158   .text:0000000000000678 .LBE8
     /tmp/ccXFfN6y.s:8311   .debug_loc:0000000000000c4f .LLST41
GAS LISTING /tmp/ccXFfN6y.s 			page 100


     /tmp/ccXFfN6y.s:1128   .text:0000000000000650 .LBB9
     /tmp/ccXFfN6y.s:1157   .text:0000000000000678 .LBE9
     /tmp/ccXFfN6y.s:9341   .debug_str:0000000000000d15 .LASF266
     /tmp/ccXFfN6y.s:8323   .debug_loc:0000000000000c86 .LLST42
     /tmp/ccXFfN6y.s:9095   .debug_str:000000000000044e .LASF267
     /tmp/ccXFfN6y.s:8334   .debug_loc:0000000000000cbc .LLST43
     /tmp/ccXFfN6y.s:9609   .debug_str:0000000000001630 .LASF268
     /tmp/ccXFfN6y.s:8345   .debug_loc:0000000000000cf2 .LLST44
     /tmp/ccXFfN6y.s:9181   .debug_str:00000000000007aa .LASF269
     /tmp/ccXFfN6y.s:8993   .debug_str:00000000000000db .LASF273
     /tmp/ccXFfN6y.s:919    .text:0000000000000530 .LFB20
     /tmp/ccXFfN6y.s:1068   .text:0000000000000610 .LFE20
     /tmp/ccXFfN6y.s:8356   .debug_loc:0000000000000d28 .LLST33
     /tmp/ccXFfN6y.s:9323   .debug_str:0000000000000c96 .LASF270
     /tmp/ccXFfN6y.s:8374   .debug_loc:0000000000000d74 .LLST34
     /tmp/ccXFfN6y.s:9055   .debug_str:0000000000000323 .LASF271
     /tmp/ccXFfN6y.s:8385   .debug_loc:0000000000000daa .LLST35
     /tmp/ccXFfN6y.s:990    .text:000000000000059c .LBB5
     /tmp/ccXFfN6y.s:1011   .text:00000000000005bc .LBE5
     /tmp/ccXFfN6y.s:8410   .debug_loc:0000000000000dfe .LLST36
     /tmp/ccXFfN6y.s:1018   .text:00000000000005c4 .LBB7
     /tmp/ccXFfN6y.s:1049   .text:00000000000005f4 .LBE7
     /tmp/ccXFfN6y.s:8422   .debug_loc:0000000000000e35 .LLST37
     /tmp/ccXFfN6y.s:943    .text:000000000000055c .LVL83
     /tmp/ccXFfN6y.s:9351   .debug_str:0000000000000d4d .LASF272
     /tmp/ccXFfN6y.s:9273   .debug_str:0000000000000a9b .LASF274
     /tmp/ccXFfN6y.s:865    .text:00000000000004d8 .LFB19
     /tmp/ccXFfN6y.s:913    .text:0000000000000530 .LFE19
     /tmp/ccXFfN6y.s:8429   .debug_loc:0000000000000e58 .LLST31
     /tmp/ccXFfN6y.s:8447   .debug_loc:0000000000000ea4 .LLST32
     /tmp/ccXFfN6y.s:890    .text:0000000000000508 .LVL77
     /tmp/ccXFfN6y.s:896    .text:0000000000000518 .LVL78
     /tmp/ccXFfN6y.s:9101   .debug_str:0000000000000465 .LASF275
     /tmp/ccXFfN6y.s:9515   .debug_str:00000000000012cd .LASF276
     /tmp/ccXFfN6y.s:811    .text:0000000000000480 .LFB18
     /tmp/ccXFfN6y.s:859    .text:00000000000004d8 .LFE18
     /tmp/ccXFfN6y.s:8465   .debug_loc:0000000000000ef0 .LLST29
     /tmp/ccXFfN6y.s:8483   .debug_loc:0000000000000f3c .LLST30
     /tmp/ccXFfN6y.s:836    .text:00000000000004b0 .LVL70
     /tmp/ccXFfN6y.s:842    .text:00000000000004c0 .LVL71
     /tmp/ccXFfN6y.s:9207   .debug_str:0000000000000874 .LASF277
     /tmp/ccXFfN6y.s:9039   .debug_str:0000000000000292 .LASF278
     /tmp/ccXFfN6y.s:755    .text:0000000000000428 .LFB17
     /tmp/ccXFfN6y.s:805    .text:0000000000000480 .LFE17
     /tmp/ccXFfN6y.s:8501   .debug_loc:0000000000000f88 .LLST27
     /tmp/ccXFfN6y.s:8519   .debug_loc:0000000000000fd4 .LLST28
     /tmp/ccXFfN6y.s:782    .text:0000000000000458 .LVL63
     /tmp/ccXFfN6y.s:788    .text:0000000000000468 .LVL64
     /tmp/ccXFfN6y.s:9017   .debug_str:00000000000001df .LASF279
     /tmp/ccXFfN6y.s:8971   .debug_str:000000000000001b .LASF280
     /tmp/ccXFfN6y.s:699    .text:00000000000003d0 .LFB16
     /tmp/ccXFfN6y.s:749    .text:0000000000000428 .LFE16
     /tmp/ccXFfN6y.s:8526   .debug_loc:0000000000000ff7 .LLST25
     /tmp/ccXFfN6y.s:8544   .debug_loc:0000000000001043 .LLST26
     /tmp/ccXFfN6y.s:726    .text:0000000000000400 .LVL56
     /tmp/ccXFfN6y.s:732    .text:0000000000000410 .LVL57
     /tmp/ccXFfN6y.s:8987   .debug_str:00000000000000b6 .LASF281
GAS LISTING /tmp/ccXFfN6y.s 			page 101


     /tmp/ccXFfN6y.s:9543   .debug_str:00000000000013e1 .LASF282
     /tmp/ccXFfN6y.s:628    .text:0000000000000374 .LFB15
     /tmp/ccXFfN6y.s:693    .text:00000000000003d0 .LFE15
     /tmp/ccXFfN6y.s:9203   .debug_str:0000000000000863 .LASF283
     /tmp/ccXFfN6y.s:9191   .debug_str:00000000000007fc .LASF284
     /tmp/ccXFfN6y.s:9199   .debug_str:0000000000000835 .LASF285
     /tmp/ccXFfN6y.s:584    .text:0000000000000340 .LFB14
     /tmp/ccXFfN6y.s:622    .text:0000000000000374 .LFE14
     /tmp/ccXFfN6y.s:9063   .debug_str:000000000000034c .LASF286
     /tmp/ccXFfN6y.s:9165   .debug_str:00000000000006f2 .LASF288
     /tmp/ccXFfN6y.s:555    .text:0000000000000320 .LFB13
     /tmp/ccXFfN6y.s:578    .text:0000000000000340 .LFE13
     /tmp/ccXFfN6y.s:8551   .debug_loc:0000000000001066 .LLST24
     /tmp/ccXFfN6y.s:9587   .debug_str:000000000000154a .LASF289
     /tmp/ccXFfN6y.s:9067   .debug_str:0000000000000364 .LASF290
     /tmp/ccXFfN6y.s:523    .text:00000000000002f8 .LFB12
     /tmp/ccXFfN6y.s:549    .text:0000000000000320 .LFE12
     /tmp/ccXFfN6y.s:8565   .debug_loc:000000000000109f .LLST23
     /tmp/ccXFfN6y.s:9265   .debug_str:0000000000000a58 .LASF291
     /tmp/ccXFfN6y.s:9503   .debug_str:0000000000001246 .LASF292
     /tmp/ccXFfN6y.s:405    .text:0000000000000240 .LFB11
     /tmp/ccXFfN6y.s:517    .text:00000000000002f8 .LFE11
     /tmp/ccXFfN6y.s:8579   .debug_loc:00000000000010d8 .LLST19
     /tmp/ccXFfN6y.s:8601   .debug_loc:0000000000001137 .LLST20
     /tmp/ccXFfN6y.s:8612   .debug_loc:000000000000116d .LLST21
     /tmp/ccXFfN6y.s:426    .text:0000000000000264 .LBB4
     /tmp/ccXFfN6y.s:467    .text:00000000000002a8 .LBE4
     /tmp/ccXFfN6y.s:8623   .debug_loc:00000000000011a3 .LLST22
     /tmp/ccXFfN6y.s:442    .text:0000000000000284 .LVL36
     /tmp/ccXFfN6y.s:482    .text:00000000000002c4 .LVL43
     /tmp/ccXFfN6y.s:9425   .debug_str:000000000000100a .LASF293
     /tmp/ccXFfN6y.s:9505   .debug_str:0000000000001261 .LASF294
     /tmp/ccXFfN6y.s:359    .text:00000000000001f8 .LFB10
     /tmp/ccXFfN6y.s:399    .text:0000000000000240 .LFE10
     /tmp/ccXFfN6y.s:8634   .debug_loc:00000000000011d9 .LLST17
     /tmp/ccXFfN6y.s:8648   .debug_loc:0000000000001212 .LLST18
     /tmp/ccXFfN6y.s:9497   .debug_str:0000000000001211 .LASF295
     /tmp/ccXFfN6y.s:9407   .debug_str:0000000000000f64 .LASF296
     /tmp/ccXFfN6y.s:317    .text:00000000000001b8 .LFB9
     /tmp/ccXFfN6y.s:353    .text:00000000000001f8 .LFE9
     /tmp/ccXFfN6y.s:8662   .debug_loc:000000000000124b .LLST15
     /tmp/ccXFfN6y.s:8676   .debug_loc:0000000000001284 .LLST16
     /tmp/ccXFfN6y.s:9271   .debug_str:0000000000000a87 .LASF297
     /tmp/ccXFfN6y.s:9169   .debug_str:0000000000000711 .LASF298
     /tmp/ccXFfN6y.s:246    .text:0000000000000144 .LFB8
     /tmp/ccXFfN6y.s:311    .text:00000000000001b8 .LFE8
     /tmp/ccXFfN6y.s:8690   .debug_loc:00000000000012bd .LLST12
     /tmp/ccXFfN6y.s:9495   .debug_str:00000000000011fe .LASF299
     /tmp/ccXFfN6y.s:8715   .debug_loc:0000000000001322 .LLST13
     /tmp/ccXFfN6y.s:265    .text:000000000000015c .LBB3
     /tmp/ccXFfN6y.s:283    .text:000000000000017c .LBE3
     /tmp/ccXFfN6y.s:8726   .debug_loc:0000000000001358 .LLST14
     /tmp/ccXFfN6y.s:295    .text:00000000000001a0 .LVL26
     /tmp/ccXFfN6y.s:9469   .debug_str:0000000000001167 .LASF300
     /tmp/ccXFfN6y.s:9307   .debug_str:0000000000000bf3 .LASF301
     /tmp/ccXFfN6y.s:153    .text:00000000000000b8 .LFB7
     /tmp/ccXFfN6y.s:235    .text:0000000000000144 .LFE7
GAS LISTING /tmp/ccXFfN6y.s 			page 102


     /tmp/ccXFfN6y.s:8738   .debug_loc:000000000000138f .LLST6
     /tmp/ccXFfN6y.s:9325   .debug_str:0000000000000c9e .LASF302
     /tmp/ccXFfN6y.s:8756   .debug_loc:00000000000013db .LLST7
     /tmp/ccXFfN6y.s:8774   .debug_loc:0000000000001427 .LLST8
     /tmp/ccXFfN6y.s:8793   .debug_loc:0000000000001474 .LLST9
     /tmp/ccXFfN6y.s:8812   .debug_loc:00000000000014c1 .LLST10
     /tmp/ccXFfN6y.s:8831   .debug_loc:000000000000150e .LLST11
     /tmp/ccXFfN6y.s:187    .text:0000000000000100 .LVL14
     /tmp/ccXFfN6y.s:9487   .debug_str:00000000000011c7 .LASF303
     /tmp/ccXFfN6y.s:9151   .debug_str:00000000000005a9 .LASF304
     /tmp/ccXFfN6y.s:59     .text:0000000000000034 .LFB6
     /tmp/ccXFfN6y.s:147    .text:00000000000000b8 .LFE6
     /tmp/ccXFfN6y.s:8850   .debug_loc:000000000000155b .LLST2
     /tmp/ccXFfN6y.s:8872   .debug_loc:00000000000015ba .LLST3
     /tmp/ccXFfN6y.s:8879   .debug_loc:00000000000015dd .LLST4
     /tmp/ccXFfN6y.s:102    .text:0000000000000074 .LBB2
     /tmp/ccXFfN6y.s:119    .text:000000000000008c .LBE2
     /tmp/ccXFfN6y.s:9519   .debug_str:000000000000130c .LASF305
     /tmp/ccXFfN6y.s:8891   .debug_loc:0000000000001614 .LLST5
     /tmp/ccXFfN6y.s:111    .text:0000000000000084 .LVL7
     /tmp/ccXFfN6y.s:9529   .debug_str:0000000000001363 .LASF306
     /tmp/ccXFfN6y.s:9085   .debug_str:000000000000040d .LASF307
     /tmp/ccXFfN6y.s:10     .text:0000000000000000 .LFB5
     /tmp/ccXFfN6y.s:53     .text:0000000000000034 .LFE5
     /tmp/ccXFfN6y.s:8898   .debug_loc:0000000000001637 .LLST0
     /tmp/ccXFfN6y.s:8909   .debug_loc:000000000000166d .LLST1
     /tmp/ccXFfN6y.s:9355   .debug_str:0000000000000d82 .LASF308
     /tmp/ccXFfN6y.s:9015   .debug_str:00000000000001d3 .LASF310
     /tmp/ccXFfN6y.s:8999   .debug_str:0000000000000129 .LASF309
     /tmp/ccXFfN6y.s:9045   .debug_str:00000000000002eb .LASF311
     /tmp/ccXFfN6y.s:9083   .debug_str:00000000000003f9 .LASF312
     /tmp/ccXFfN6y.s:9579   .debug_str:0000000000001516 .LASF313
     /tmp/ccXFfN6y.s:9089   .debug_str:000000000000042c .LASF314
     /tmp/ccXFfN6y.s:9419   .debug_str:0000000000000fd4 .LASF315
     /tmp/ccXFfN6y.s:9065   .debug_str:0000000000000352 .LASF316
     /tmp/ccXFfN6y.s:8983   .debug_str:0000000000000095 .LASF317
     /tmp/ccXFfN6y.s:2836   .text:0000000000001138 .LVL291
     /tmp/ccXFfN6y.s:2858   .text:0000000000001160 .LVL292
     /tmp/ccXFfN6y.s:2882   .text:0000000000001180 .LVL293
     /tmp/ccXFfN6y.s:2886   .text:0000000000001188 .LVL294
     /tmp/ccXFfN6y.s:2902   .text:00000000000011b0 .LVL297
     /tmp/ccXFfN6y.s:2910   .text:00000000000011b4 .LVL298
     /tmp/ccXFfN6y.s:2599   .text:0000000000000ffc .LVL266
     /tmp/ccXFfN6y.s:2614   .text:0000000000001014 .LVL267
     /tmp/ccXFfN6y.s:2627   .text:000000000000102c .LVL269
     /tmp/ccXFfN6y.s:2631   .text:0000000000001030 .LVL270
     /tmp/ccXFfN6y.s:2520   .text:0000000000000f74 .LVL258
     /tmp/ccXFfN6y.s:2544   .text:0000000000000fa0 .LVL259
     /tmp/ccXFfN6y.s:2555   .text:0000000000000fac .LVL260
     /tmp/ccXFfN6y.s:2559   .text:0000000000000fb4 .LVL261
     /tmp/ccXFfN6y.s:2423   .text:0000000000000ecc .LVL247
     /tmp/ccXFfN6y.s:2448   .text:0000000000000ef8 .LVL248
     /tmp/ccXFfN6y.s:2503   .text:0000000000000f68 .LVL256
     /tmp/ccXFfN6y.s:2507   .text:0000000000000f70 .LVL257
     /tmp/ccXFfN6y.s:2497   .text:0000000000000f60 .LVL254
     /tmp/ccXFfN6y.s:2500   .text:0000000000000f64 .LVL255
     /tmp/ccXFfN6y.s:2300   .text:0000000000000dc8 .LVL235
GAS LISTING /tmp/ccXFfN6y.s 			page 103


     /tmp/ccXFfN6y.s:2337   .text:0000000000000e10 .LVL238
     /tmp/ccXFfN6y.s:2361   .text:0000000000000e4c .LVL242
     /tmp/ccXFfN6y.s:2380   .text:0000000000000e6c .LVL243
     /tmp/ccXFfN6y.s:2331   .text:0000000000000e08 .LVL237
     /tmp/ccXFfN6y.s:2341   .text:0000000000000e14 .LVL239
     /tmp/ccXFfN6y.s:2355   .text:0000000000000e38 .LVL240
     /tmp/ccXFfN6y.s:2002   .text:0000000000000b84 .LVL197
     /tmp/ccXFfN6y.s:2022   .text:0000000000000bac .LVL198
     /tmp/ccXFfN6y.s:2155   .text:0000000000000cd4 .LVL221
     /tmp/ccXFfN6y.s:2159   .text:0000000000000cdc .LVL222
     /tmp/ccXFfN6y.s:2072   .text:0000000000000c44 .LVL208
     /tmp/ccXFfN6y.s:2152   .text:0000000000000cd0 .LVL220
     /tmp/ccXFfN6y.s:1916   .text:0000000000000b34 .LVL192
     /tmp/ccXFfN6y.s:1957   .text:0000000000000b80 .LVL196
     /tmp/ccXFfN6y.s:1953   .text:0000000000000b78 .LVL195
     /tmp/ccXFfN6y.s:1637   .text:0000000000000958 .LVL153
     /tmp/ccXFfN6y.s:1657   .text:000000000000097c .LVL154
     /tmp/ccXFfN6y.s:1736   .text:00000000000009fc .LVL168
     /tmp/ccXFfN6y.s:1742   .text:0000000000000a08 .LVL169
     /tmp/ccXFfN6y.s:1713   .text:00000000000009dc .LVL164
     /tmp/ccXFfN6y.s:1717   .text:00000000000009e0 .LVL165
     /tmp/ccXFfN6y.s:1722   .text:00000000000009ec .LVL167
     /tmp/ccXFfN6y.s:1755   .text:0000000000000a18 .LVL171
     /tmp/ccXFfN6y.s:1674   .text:0000000000000994 .LVL156
     /tmp/ccXFfN6y.s:1678   .text:0000000000000998 .LVL157
     /tmp/ccXFfN6y.s:1703   .text:00000000000009d0 .LVL162
     /tmp/ccXFfN6y.s:1776   .text:0000000000000a3c .LVL174
     /tmp/ccXFfN6y.s:1780   .text:0000000000000a40 .LVL175
     /tmp/ccXFfN6y.s:1805   .text:0000000000000a78 .LVL180
     /tmp/ccXFfN6y.s:1832   .text:0000000000000a90 .LVL181
     /tmp/ccXFfN6y.s:1858   .text:0000000000000acc .LVL182
     /tmp/ccXFfN6y.s:1896   .text:0000000000000b24 .LVL189
     /tmp/ccXFfN6y.s:1893   .text:0000000000000b20 .LVL188
     /tmp/ccXFfN6y.s:1899   .text:0000000000000b28 .LVL190
     /tmp/ccXFfN6y.s:1902   .text:0000000000000b2c .LVL191
     /tmp/ccXFfN6y.s:1863   .text:0000000000000adc .LVL184
     /tmp/ccXFfN6y.s:1890   .text:0000000000000b1c .LVL187
     /tmp/ccXFfN6y.s:1599   .text:0000000000000920 .LVL150
     /tmp/ccXFfN6y.s:2755   .text:00000000000010d8 .LVL281
     /tmp/ccXFfN6y.s:2814   .text:0000000000001130 .LVL290
     /tmp/ccXFfN6y.s:2759   .text:00000000000010dc .LVL282
     /tmp/ccXFfN6y.s:2809   .text:0000000000001128 .LVL289
     /tmp/ccXFfN6y.s:2644   .text:0000000000001034 .LVL271
     /tmp/ccXFfN6y.s:2664   .text:0000000000001058 .LVL273
     /tmp/ccXFfN6y.s:2722   .text:00000000000010a8 .LVL280
     /tmp/ccXFfN6y.s:2659   .text:0000000000001050 .LVL272
     /tmp/ccXFfN6y.s:2719   .text:00000000000010a4 .LVL279
     /tmp/ccXFfN6y.s:2677   .text:0000000000001068 .LVL274
     /tmp/ccXFfN6y.s:2681   .text:000000000000106c .LVL275
     /tmp/ccXFfN6y.s:2239   .text:0000000000000d6c .LVL229
     /tmp/ccXFfN6y.s:2281   .text:0000000000000dc0 .LVL234
     /tmp/ccXFfN6y.s:1417   .text:00000000000007e8 .LVL133
     /tmp/ccXFfN6y.s:1525   .text:00000000000008a8 .LVL142
     /tmp/ccXFfN6y.s:1536   .text:00000000000008bc .LVL144
     /tmp/ccXFfN6y.s:1579   .text:000000000000091c .LVL149
     /tmp/ccXFfN6y.s:1465   .text:0000000000000844 .LVL135
     /tmp/ccXFfN6y.s:1530   .text:00000000000008b0 .LVL143
GAS LISTING /tmp/ccXFfN6y.s 			page 104


     /tmp/ccXFfN6y.s:1453   .text:0000000000000830 .LVL134
     /tmp/ccXFfN6y.s:1514   .text:000000000000089c .LVL141
     /tmp/ccXFfN6y.s:1471   .text:0000000000000850 .LVL137
     /tmp/ccXFfN6y.s:1356   .text:0000000000000764 .LVL126
     /tmp/ccXFfN6y.s:1371   .text:0000000000000784 .LVL127
     /tmp/ccXFfN6y.s:1403   .text:00000000000007e0 .LVL132
     /tmp/ccXFfN6y.s:1295   .text:0000000000000718 .LVL123
     /tmp/ccXFfN6y.s:1311   .text:0000000000000738 .LVL125
     /tmp/ccXFfN6y.s:1307   .text:0000000000000730 .LVL124
     /tmp/ccXFfN6y.s:1179   .text:0000000000000688 .LVL110
     /tmp/ccXFfN6y.s:1194   .text:00000000000006a4 .LVL111
     /tmp/ccXFfN6y.s:1278   .text:0000000000000710 .LVL121
     /tmp/ccXFfN6y.s:1283   .text:0000000000000714 .LVL122
     /tmp/ccXFfN6y.s:1227   .text:00000000000006d0 .LVL115
     /tmp/ccXFfN6y.s:1238   .text:00000000000006dc .LVL116
     /tmp/ccXFfN6y.s:1196   .text:00000000000006a8 .LVL112
     /tmp/ccXFfN6y.s:1202   .text:00000000000006ac .LVL113
     /tmp/ccXFfN6y.s:1222   .text:00000000000006c8 .LVL114
     /tmp/ccXFfN6y.s:1246   .text:00000000000006e4 .LVL118
     /tmp/ccXFfN6y.s:1252   .text:00000000000006e8 .LVL119
     /tmp/ccXFfN6y.s:1272   .text:0000000000000704 .LVL120
     /tmp/ccXFfN6y.s:1077   .text:0000000000000610 .LVL96
     /tmp/ccXFfN6y.s:1162   .text:000000000000067c .LVL109
     /tmp/ccXFfN6y.s:1085   .text:000000000000061c .LVL97
     /tmp/ccXFfN6y.s:1088   .text:0000000000000620 .LVL98
     /tmp/ccXFfN6y.s:1119   .text:0000000000000644 .LVL101
     /tmp/ccXFfN6y.s:1153   .text:0000000000000674 .LVL107
     /tmp/ccXFfN6y.s:1155   .text:0000000000000678 .LVL108
     /tmp/ccXFfN6y.s:1108   .text:0000000000000638 .LVL100
     /tmp/ccXFfN6y.s:1150   .text:0000000000000670 .LVL106
     /tmp/ccXFfN6y.s:1123   .text:0000000000000648 .LVL102
     /tmp/ccXFfN6y.s:1132   .text:0000000000000654 .LVL103
     /tmp/ccXFfN6y.s:1138   .text:000000000000065c .LVL104
     /tmp/ccXFfN6y.s:1142   .text:0000000000000660 .LVL105
     /tmp/ccXFfN6y.s:922    .text:0000000000000530 .LVL81
     /tmp/ccXFfN6y.s:941    .text:0000000000000554 .LVL82
     /tmp/ccXFfN6y.s:1063   .text:0000000000000608 .LVL95
     /tmp/ccXFfN6y.s:957    .text:0000000000000574 .LVL84
     /tmp/ccXFfN6y.s:1047   .text:00000000000005f4 .LVL94
     /tmp/ccXFfN6y.s:976    .text:000000000000058c .LVL85
     /tmp/ccXFfN6y.s:980    .text:0000000000000590 .LVL86
     /tmp/ccXFfN6y.s:985    .text:0000000000000598 .LVL87
     /tmp/ccXFfN6y.s:988    .text:000000000000059c .LVL88
     /tmp/ccXFfN6y.s:993    .text:00000000000005a0 .LVL89
     /tmp/ccXFfN6y.s:1021   .text:00000000000005c8 .LVL91
     /tmp/ccXFfN6y.s:868    .text:00000000000004d8 .LVL74
     /tmp/ccXFfN6y.s:888    .text:0000000000000500 .LVL76
     /tmp/ccXFfN6y.s:908    .text:0000000000000528 .LVL80
     /tmp/ccXFfN6y.s:886    .text:00000000000004fc .LVL75
     /tmp/ccXFfN6y.s:905    .text:0000000000000524 .LVL79
     /tmp/ccXFfN6y.s:814    .text:0000000000000480 .LVL67
     /tmp/ccXFfN6y.s:834    .text:00000000000004a8 .LVL69
     /tmp/ccXFfN6y.s:854    .text:00000000000004d0 .LVL73
     /tmp/ccXFfN6y.s:832    .text:00000000000004a4 .LVL68
     /tmp/ccXFfN6y.s:851    .text:00000000000004cc .LVL72
     /tmp/ccXFfN6y.s:758    .text:0000000000000428 .LVL60
     /tmp/ccXFfN6y.s:780    .text:0000000000000450 .LVL62
GAS LISTING /tmp/ccXFfN6y.s 			page 105


     /tmp/ccXFfN6y.s:797    .text:0000000000000474 .LVL65
     /tmp/ccXFfN6y.s:775    .text:0000000000000448 .LVL61
     /tmp/ccXFfN6y.s:800    .text:0000000000000478 .LVL66
     /tmp/ccXFfN6y.s:702    .text:00000000000003d0 .LVL53
     /tmp/ccXFfN6y.s:724    .text:00000000000003f8 .LVL55
     /tmp/ccXFfN6y.s:741    .text:000000000000041c .LVL58
     /tmp/ccXFfN6y.s:719    .text:00000000000003f0 .LVL54
     /tmp/ccXFfN6y.s:744    .text:0000000000000420 .LVL59
     /tmp/ccXFfN6y.s:558    .text:0000000000000320 .LVL49
     /tmp/ccXFfN6y.s:568    .text:0000000000000330 .LVL50
     /tmp/ccXFfN6y.s:526    .text:00000000000002f8 .LVL47
     /tmp/ccXFfN6y.s:538    .text:000000000000030c .LVL48
     /tmp/ccXFfN6y.s:408    .text:0000000000000240 .LVL34
     /tmp/ccXFfN6y.s:429    .text:0000000000000268 .LVL35
     /tmp/ccXFfN6y.s:504    .text:00000000000002e4 .LVL45
     /tmp/ccXFfN6y.s:510    .text:00000000000002f0 .LVL46
     /tmp/ccXFfN6y.s:461    .text:00000000000002a4 .LVL39
     /tmp/ccXFfN6y.s:465    .text:00000000000002a8 .LVL40
     /tmp/ccXFfN6y.s:474    .text:00000000000002b0 .LVL42
     /tmp/ccXFfN6y.s:490    .text:00000000000002d0 .LVL44
     /tmp/ccXFfN6y.s:457    .text:000000000000029c .LVL38
     /tmp/ccXFfN6y.s:470    .text:00000000000002ac .LVL41
     /tmp/ccXFfN6y.s:362    .text:00000000000001f8 .LVL31
     /tmp/ccXFfN6y.s:378    .text:0000000000000218 .LVL33
     /tmp/ccXFfN6y.s:374    .text:0000000000000210 .LVL32
     /tmp/ccXFfN6y.s:320    .text:00000000000001b8 .LVL28
     /tmp/ccXFfN6y.s:336    .text:00000000000001d8 .LVL30
     /tmp/ccXFfN6y.s:332    .text:00000000000001d0 .LVL29
     /tmp/ccXFfN6y.s:249    .text:0000000000000144 .LVL20
     /tmp/ccXFfN6y.s:293    .text:0000000000000198 .LVL25
     /tmp/ccXFfN6y.s:306    .text:00000000000001b0 .LVL27
     /tmp/ccXFfN6y.s:263    .text:000000000000015c .LVL21
     /tmp/ccXFfN6y.s:269    .text:0000000000000164 .LVL22
     /tmp/ccXFfN6y.s:287    .text:0000000000000180 .LVL24
     /tmp/ccXFfN6y.s:156    .text:00000000000000b8 .LVL11
     /tmp/ccXFfN6y.s:177    .text:00000000000000e4 .LVL12
     /tmp/ccXFfN6y.s:218    .text:000000000000012c .LVL15
     /tmp/ccXFfN6y.s:185    .text:00000000000000f8 .LVL13
     /tmp/ccXFfN6y.s:230    .text:000000000000013c .LVL19
     /tmp/ccXFfN6y.s:227    .text:0000000000000138 .LVL18
     /tmp/ccXFfN6y.s:224    .text:0000000000000134 .LVL17
     /tmp/ccXFfN6y.s:221    .text:0000000000000130 .LVL16
     /tmp/ccXFfN6y.s:62     .text:0000000000000034 .LVL3
     /tmp/ccXFfN6y.s:94     .text:000000000000006c .LVL5
     /tmp/ccXFfN6y.s:122    .text:0000000000000090 .LVL9
     /tmp/ccXFfN6y.s:126    .text:0000000000000094 .LVL10
     /tmp/ccXFfN6y.s:90     .text:0000000000000068 .LVL4
     /tmp/ccXFfN6y.s:118    .text:000000000000008c .LVL8
     /tmp/ccXFfN6y.s:106    .text:0000000000000078 .LVL6
     /tmp/ccXFfN6y.s:14     .text:0000000000000000 .LVL0
     /tmp/ccXFfN6y.s:34     .text:000000000000001c .LVL1
     /tmp/ccXFfN6y.s:38     .text:0000000000000020 .LVL2
     /tmp/ccXFfN6y.s:2931   .debug_info:0000000000000000 .Ldebug_info0
     /tmp/ccXFfN6y.s:1198   .text:00000000000006a8 .LBB10
     /tmp/ccXFfN6y.s:1204   .text:00000000000006ac .LBE10
     /tmp/ccXFfN6y.s:1208   .text:00000000000006b0 .LBB11
     /tmp/ccXFfN6y.s:1229   .text:00000000000006d0 .LBE11
GAS LISTING /tmp/ccXFfN6y.s 			page 106


     /tmp/ccXFfN6y.s:1248   .text:00000000000006e4 .LBB12
     /tmp/ccXFfN6y.s:1254   .text:00000000000006e8 .LBE12
     /tmp/ccXFfN6y.s:1258   .text:00000000000006ec .LBB13
     /tmp/ccXFfN6y.s:1280   .text:0000000000000710 .LBE13
     /tmp/ccXFfN6y.s:1707   .text:00000000000009d0 .LBB18
     /tmp/ccXFfN6y.s:1724   .text:00000000000009ec .LBE18
     /tmp/ccXFfN6y.s:1746   .text:0000000000000a08 .LBB19
     /tmp/ccXFfN6y.s:1757   .text:0000000000000a18 .LBE19
     /tmp/ccXFfN6y.s:2442   .text:0000000000000ef0 .LBB24
     /tmp/ccXFfN6y.s:2445   .text:0000000000000ef4 .LBE24
     /tmp/ccXFfN6y.s:2450   .text:0000000000000ef8 .LBB25
     /tmp/ccXFfN6y.s:2472   .text:0000000000000f30 .LBE25
     /tmp/ccXFfN6y.s:2660   .text:0000000000001050 .LBB26
     /tmp/ccXFfN6y.s:2696   .text:0000000000001080 .LBE26
     /tmp/ccXFfN6y.s:2698   .text:0000000000001080 .LBB30
     /tmp/ccXFfN6y.s:2710   .text:0000000000001098 .LBE30

UNDEFINED SYMBOLS
_Z10buddy_freePvm
_Z11buddy_allocm
_ZN8KConsole15trapPrintStringEPKc
_ZN8KConsole18trapPrintStringIntEPKcmi
_Z10buddy_initPvm
_Z14printBuddyInfov
_Z11getDeg2Ceilm
