GAS LISTING /tmp/cc7tQxct.s 			page 1


   1              		.file	"slabTests.cpp"
   2              		.option pic
   3              		.option norelax
   4              		.text
   5              	.Ltext0:
   6              		.align	2
   7              		.globl	_Z12slabInitTestv
   9              	_Z12slabInitTestv:
  10              	.LFB5:
  11              		.file 1 "src/kernel/slabTests.cpp"
   1:src/kernel/slabTests.cpp **** #include "../../h/slabTests.hpp"
   2:src/kernel/slabTests.cpp **** #include "../../h/KConsole.hpp"
   3:src/kernel/slabTests.cpp **** 
   4:src/kernel/slabTests.cpp **** void slabInitTest()
   5:src/kernel/slabTests.cpp **** {
  12              		.loc 1 5 1
  13              		.cfi_startproc
  14 0000 130101FF 		addi	sp,sp,-16
  15              		.cfi_def_cfa_offset 16
  16 0004 23341100 		sd	ra,8(sp)
  17 0008 23308100 		sd	s0,0(sp)
  18              		.cfi_offset 1, -8
  19              		.cfi_offset 8, -16
  20 000c 13040101 		addi	s0,sp,16
  21              		.cfi_def_cfa 8, 0
   6:src/kernel/slabTests.cpp ****     kmem_init((void*)HEAP_START_ADDR, 15);
  22              		.loc 1 6 5
  23              		.loc 1 6 14 is_stmt 0
  24 0010 9305F000 		li	a1,15
  25 0014 97070000 		la	a5,HEAP_START_ADDR
  25      83B70700 
  26 001c 03B50700 		ld	a0,0(a5)
  27 0020 97000000 		call	_Z9kmem_initPvi@plt
  27      E7800000 
  28              	.LVL0:
   7:src/kernel/slabTests.cpp **** }
  29              		.loc 1 7 1
  30 0028 83308100 		ld	ra,8(sp)
  31              		.cfi_restore 1
  32 002c 03340100 		ld	s0,0(sp)
  33              		.cfi_restore 8
  34              		.cfi_def_cfa 2, 16
  35 0030 13010101 		addi	sp,sp,16
  36              		.cfi_def_cfa_offset 0
  37 0034 67800000 		jr	ra
  38              		.cfi_endproc
  39              	.LFE5:
  41              		.section	.rodata.str1.8,"aMS",@progbits,1
  42              		.align	3
  43              	.LC0:
  44 0000 43616368 		.string	"Cache test"
  44      65207465 
  44      737400
  45 000b 00000000 		.align	3
  45      00
  46              	.LC1:
  47 0010 43616368 		.string	"Cache test 2"
GAS LISTING /tmp/cc7tQxct.s 			page 2


  47      65207465 
  47      73742032 
  47      00
  48 001d 000000   		.align	3
  49              	.LC2:
  50 0020 43616368 		.string	"Cache test 3"
  50      65207465 
  50      73742033 
  50      00
  51              		.text
  52              		.align	2
  53              		.globl	_Z19slabCacheCreateTestv
  55              	_Z19slabCacheCreateTestv:
  56              	.LFB6:
   8:src/kernel/slabTests.cpp **** 
   9:src/kernel/slabTests.cpp **** void slabCacheCreateTest()
  10:src/kernel/slabTests.cpp **** {
  57              		.loc 1 10 1 is_stmt 1
  58              		.cfi_startproc
  59 0038 130101FE 		addi	sp,sp,-32
  60              		.cfi_def_cfa_offset 32
  61 003c 233C1100 		sd	ra,24(sp)
  62 0040 23388100 		sd	s0,16(sp)
  63 0044 23349100 		sd	s1,8(sp)
  64 0048 23302101 		sd	s2,0(sp)
  65              		.cfi_offset 1, -8
  66              		.cfi_offset 8, -16
  67              		.cfi_offset 9, -24
  68              		.cfi_offset 18, -32
  69 004c 13040102 		addi	s0,sp,32
  70              		.cfi_def_cfa 8, 0
  11:src/kernel/slabTests.cpp ****     kmem_init((void*)HEAP_START_ADDR, 15);
  71              		.loc 1 11 5
  72              		.loc 1 11 14 is_stmt 0
  73 0050 9305F000 		li	a1,15
  74 0054 97070000 		la	a5,HEAP_START_ADDR
  74      83B70700 
  75 005c 03B50700 		ld	a0,0(a5)
  76 0060 97000000 		call	_Z9kmem_initPvi@plt
  76      E7800000 
  77              	.LVL1:
  12:src/kernel/slabTests.cpp ****     kmem_cache_t* cache = kmem_cache_create("Cache test", 10, nullptr,nullptr);
  78              		.loc 1 12 5 is_stmt 1
  79              		.loc 1 12 44 is_stmt 0
  80 0068 93060000 		li	a3,0
  81 006c 13060000 		li	a2,0
  82 0070 9305A000 		li	a1,10
  83 0074 17050000 		lla	a0,.LC0
  83      13050500 
  84 007c 97000000 		call	_Z17kmem_cache_createPKcmPFvPvES3_@plt
  84      E7800000 
  85              	.LVL2:
  86 0084 93040500 		mv	s1,a0
  87              	.LVL3:
  13:src/kernel/slabTests.cpp ****     kmem_cache_t* cache2 = kmem_cache_create("Cache test 2", 10, nullptr,nullptr);
  88              		.loc 1 13 5 is_stmt 1
  89              		.loc 1 13 45 is_stmt 0
GAS LISTING /tmp/cc7tQxct.s 			page 3


  90 0088 93060000 		li	a3,0
  91 008c 13060000 		li	a2,0
  92 0090 9305A000 		li	a1,10
  93 0094 17050000 		lla	a0,.LC1
  93      13050500 
  94 009c 97000000 		call	_Z17kmem_cache_createPKcmPFvPvES3_@plt
  94      E7800000 
  95              	.LVL4:
  96 00a4 13090500 		mv	s2,a0
  97              	.LVL5:
  14:src/kernel/slabTests.cpp ****     kmem_cache_t* cache3 = kmem_cache_create("Cache test 3", 10, nullptr,nullptr);
  98              		.loc 1 14 5 is_stmt 1
  99              		.loc 1 14 45 is_stmt 0
 100 00a8 93060000 		li	a3,0
 101 00ac 13060000 		li	a2,0
 102 00b0 9305A000 		li	a1,10
 103 00b4 17050000 		lla	a0,.LC2
 103      13050500 
 104              	.LVL6:
 105 00bc 97000000 		call	_Z17kmem_cache_createPKcmPFvPvES3_@plt
 105      E7800000 
 106              	.LVL7:
  15:src/kernel/slabTests.cpp ****     if(cache && cache2 && cache3)
 107              		.loc 1 15 5 is_stmt 1
 108 00c4 638A0400 		beqz	s1,.L3
 109              		.loc 1 15 14 is_stmt 0 discriminator 1
 110 00c8 63080900 		beqz	s2,.L3
 111              		.loc 1 15 24 discriminator 2
 112 00cc 63060500 		beqz	a0,.L3
  16:src/kernel/slabTests.cpp ****         printSlabAllocatorInfo();
 113              		.loc 1 16 9 is_stmt 1
 114              		.loc 1 16 31 is_stmt 0
 115 00d0 97000000 		call	_Z22printSlabAllocatorInfov@plt
 115      E7800000 
 116              	.LVL8:
 117              	.L3:
  17:src/kernel/slabTests.cpp **** }
 118              		.loc 1 17 1
 119 00d8 83308101 		ld	ra,24(sp)
 120              		.cfi_restore 1
 121 00dc 03340101 		ld	s0,16(sp)
 122              		.cfi_restore 8
 123              		.cfi_def_cfa 2, 32
 124 00e0 83348100 		ld	s1,8(sp)
 125              		.cfi_restore 9
 126              	.LVL9:
 127 00e4 03390100 		ld	s2,0(sp)
 128              		.cfi_restore 18
 129              	.LVL10:
 130 00e8 13010102 		addi	sp,sp,32
 131              		.cfi_def_cfa_offset 0
 132 00ec 67800000 		jr	ra
 133              		.cfi_endproc
 134              	.LFE6:
 136              		.align	2
 137              		.globl	_Z20slabCacheCreateTest2v
 139              	_Z20slabCacheCreateTest2v:
GAS LISTING /tmp/cc7tQxct.s 			page 4


 140              	.LFB7:
  18:src/kernel/slabTests.cpp **** 
  19:src/kernel/slabTests.cpp **** void slabCacheCreateTest2()
  20:src/kernel/slabTests.cpp **** {
 141              		.loc 1 20 1 is_stmt 1
 142              		.cfi_startproc
 143 00f0 130101FE 		addi	sp,sp,-32
 144              		.cfi_def_cfa_offset 32
 145 00f4 233C1100 		sd	ra,24(sp)
 146 00f8 23388100 		sd	s0,16(sp)
 147 00fc 23349100 		sd	s1,8(sp)
 148 0100 23302101 		sd	s2,0(sp)
 149              		.cfi_offset 1, -8
 150              		.cfi_offset 8, -16
 151              		.cfi_offset 9, -24
 152              		.cfi_offset 18, -32
 153 0104 13040102 		addi	s0,sp,32
 154              		.cfi_def_cfa 8, 0
  21:src/kernel/slabTests.cpp ****     kmem_init((void*)HEAP_START_ADDR, 15);
 155              		.loc 1 21 5
 156              		.loc 1 21 14 is_stmt 0
 157 0108 9305F000 		li	a1,15
 158 010c 97070000 		la	a5,HEAP_START_ADDR
 158      83B70700 
 159 0114 03B50700 		ld	a0,0(a5)
 160 0118 97000000 		call	_Z9kmem_initPvi@plt
 160      E7800000 
 161              	.LVL11:
  22:src/kernel/slabTests.cpp ****     kmem_cache_t * cache = nullptr;
 162              		.loc 1 22 5 is_stmt 1
  23:src/kernel/slabTests.cpp ****     for(int i = 1;i<=68;i++)
 163              		.loc 1 23 5
 164              	.LBB2:
 165              		.loc 1 23 13 is_stmt 0
 166 0120 93041000 		li	s1,1
 167              	.LBE2:
  22:src/kernel/slabTests.cpp ****     kmem_cache_t * cache = nullptr;
 168              		.loc 1 22 20
 169 0124 13090000 		li	s2,0
 170              	.LVL12:
 171              	.L8:
 172              	.LBB3:
 173              		.loc 1 23 20 is_stmt 1 discriminator 3
 174 0128 93074004 		li	a5,68
 175 012c 63C69702 		bgt	s1,a5,.L7
  24:src/kernel/slabTests.cpp ****     {
  25:src/kernel/slabTests.cpp ****         cache = kmem_cache_create("Cache test", 10, nullptr,nullptr);
 176              		.loc 1 25 9 discriminator 2
 177              		.loc 1 25 34 is_stmt 0 discriminator 2
 178 0130 93060000 		li	a3,0
 179 0134 13060000 		li	a2,0
 180 0138 9305A000 		li	a1,10
 181 013c 17050000 		lla	a0,.LC0
 181      13050500 
 182 0144 97000000 		call	_Z17kmem_cache_createPKcmPFvPvES3_@plt
 182      E7800000 
 183              	.LVL13:
GAS LISTING /tmp/cc7tQxct.s 			page 5


 184 014c 13090500 		mv	s2,a0
 185              	.LVL14:
  23:src/kernel/slabTests.cpp ****     for(int i = 1;i<=68;i++)
 186              		.loc 1 23 5 is_stmt 1 discriminator 2
 187 0150 9B841400 		addiw	s1,s1,1
 188              	.LVL15:
 189 0154 6FF05FFD 		j	.L8
 190              	.LVL16:
 191              	.L7:
 192              	.LBE3:
  26:src/kernel/slabTests.cpp ****     }
  27:src/kernel/slabTests.cpp ****     printSlabAllocatorInfo();
 193              		.loc 1 27 5
 194              		.loc 1 27 27 is_stmt 0
 195 0158 97000000 		call	_Z22printSlabAllocatorInfov@plt
 195      E7800000 
 196              	.LVL17:
  28:src/kernel/slabTests.cpp ****     kmem_cache_destroy(cache);
 197              		.loc 1 28 5 is_stmt 1
 198              		.loc 1 28 23 is_stmt 0
 199 0160 13050900 		mv	a0,s2
 200 0164 97000000 		call	_Z18kmem_cache_destroyP12kmem_cache_s@plt
 200      E7800000 
 201              	.LVL18:
  29:src/kernel/slabTests.cpp ****     printSlabAllocatorInfo();
 202              		.loc 1 29 5 is_stmt 1
 203              		.loc 1 29 27 is_stmt 0
 204 016c 97000000 		call	_Z22printSlabAllocatorInfov@plt
 204      E7800000 
 205              	.LVL19:
  30:src/kernel/slabTests.cpp **** }
 206              		.loc 1 30 1
 207 0174 83308101 		ld	ra,24(sp)
 208              		.cfi_restore 1
 209 0178 03340101 		ld	s0,16(sp)
 210              		.cfi_restore 8
 211              		.cfi_def_cfa 2, 32
 212 017c 83348100 		ld	s1,8(sp)
 213              		.cfi_restore 9
 214              	.LVL20:
 215 0180 03390100 		ld	s2,0(sp)
 216              		.cfi_restore 18
 217              	.LVL21:
 218 0184 13010102 		addi	sp,sp,32
 219              		.cfi_def_cfa_offset 0
 220 0188 67800000 		jr	ra
 221              		.cfi_endproc
 222              	.LFE7:
 224              		.align	2
 225              		.globl	_Z6memsetPKvii
 227              	_Z6memsetPKvii:
 228              	.LFB8:
  31:src/kernel/slabTests.cpp **** //-------------------------------------------------------------------------------------------------
  32:src/kernel/slabTests.cpp **** //OS2 testovi
  33:src/kernel/slabTests.cpp **** 
  34:src/kernel/slabTests.cpp **** #define RUN_NUM (5)
  35:src/kernel/slabTests.cpp **** #define ITERATIONS (1000)
GAS LISTING /tmp/cc7tQxct.s 			page 6


  36:src/kernel/slabTests.cpp **** 
  37:src/kernel/slabTests.cpp **** #define shared_size (7)
  38:src/kernel/slabTests.cpp **** #define MASK (0xA5)
  39:src/kernel/slabTests.cpp **** 
  40:src/kernel/slabTests.cpp **** struct data_s {
  41:src/kernel/slabTests.cpp ****     int id;
  42:src/kernel/slabTests.cpp ****     kmem_cache_t  *shared;
  43:src/kernel/slabTests.cpp ****     int iterations;
  44:src/kernel/slabTests.cpp **** };
  45:src/kernel/slabTests.cpp **** 
  46:src/kernel/slabTests.cpp **** const char * const CACHE_NAMES[] = {"tc_0",
  47:src/kernel/slabTests.cpp ****                                     "tc_1",
  48:src/kernel/slabTests.cpp ****                                     "tc_2",
  49:src/kernel/slabTests.cpp ****                                     "tc_3",
  50:src/kernel/slabTests.cpp ****                                     "tc_4"};
  51:src/kernel/slabTests.cpp **** 
  52:src/kernel/slabTests.cpp **** void memset(const void *data, int size, int value) {
 229              		.loc 1 52 52 is_stmt 1
 230              		.cfi_startproc
 231              	.LVL22:
 232 018c 130101FF 		addi	sp,sp,-16
 233              		.cfi_def_cfa_offset 16
 234 0190 23348100 		sd	s0,8(sp)
 235              		.cfi_offset 8, -8
 236 0194 13040101 		addi	s0,sp,16
 237              		.cfi_def_cfa 8, 0
  53:src/kernel/slabTests.cpp ****     for (int j = 0; j < size; j++) {
 238              		.loc 1 53 5
 239              	.LVL23:
 240              	.LBB4:
 241              		.loc 1 53 14 is_stmt 0
 242 0198 93070000 		li	a5,0
 243              	.LVL24:
 244              	.L12:
 245              		.loc 1 53 23 is_stmt 1 discriminator 3
 246 019c 63DAB700 		bge	a5,a1,.L10
  54:src/kernel/slabTests.cpp ****         *((char *)data + j) = value;
 247              		.loc 1 54 9 discriminator 2
 248              		.loc 1 54 24 is_stmt 0 discriminator 2
 249 01a0 3307F500 		add	a4,a0,a5
 250              		.loc 1 54 29 discriminator 2
 251 01a4 2300C700 		sb	a2,0(a4)
  53:src/kernel/slabTests.cpp ****     for (int j = 0; j < size; j++) {
 252              		.loc 1 53 5 is_stmt 1 discriminator 2
 253 01a8 9B871700 		addiw	a5,a5,1
 254              	.LVL25:
 255 01ac 6FF01FFF 		j	.L12
 256              	.LVL26:
 257              	.L10:
 258              	.LBE4:
  55:src/kernel/slabTests.cpp ****     }
  56:src/kernel/slabTests.cpp **** }
 259              		.loc 1 56 1 is_stmt 0
 260 01b0 03348100 		ld	s0,8(sp)
 261              		.cfi_restore 8
 262              		.cfi_def_cfa 2, 16
 263 01b4 13010101 		addi	sp,sp,16
GAS LISTING /tmp/cc7tQxct.s 			page 7


 264              		.cfi_def_cfa_offset 0
 265 01b8 67800000 		jr	ra
 266              		.cfi_endproc
 267              	.LFE8:
 269              		.align	2
 270              		.globl	_Z9constructPv
 272              	_Z9constructPv:
 273              	.LFB9:
  57:src/kernel/slabTests.cpp **** 
  58:src/kernel/slabTests.cpp **** void construct(void *data) {
 274              		.loc 1 58 28 is_stmt 1
 275              		.cfi_startproc
 276              	.LVL27:
 277 01bc 130101FF 		addi	sp,sp,-16
 278              		.cfi_def_cfa_offset 16
 279 01c0 23341100 		sd	ra,8(sp)
 280 01c4 23308100 		sd	s0,0(sp)
 281              		.cfi_offset 1, -8
 282              		.cfi_offset 8, -16
 283 01c8 13040101 		addi	s0,sp,16
 284              		.cfi_def_cfa 8, 0
  59:src/kernel/slabTests.cpp ****     //static int i = 1;
  60:src/kernel/slabTests.cpp ****     //KConsole::trapPrintInt(i); i++;
  61:src/kernel/slabTests.cpp ****     //KConsole::trapPrintString(" Shared object constructed.\n");
  62:src/kernel/slabTests.cpp ****     memset(data, shared_size, MASK);
 285              		.loc 1 62 5
 286              		.loc 1 62 11 is_stmt 0
 287 01cc 1306500A 		li	a2,165
 288 01d0 93057000 		li	a1,7
 289 01d4 97000000 		call	_Z6memsetPKvii
 289      E7800000 
 290              	.LVL28:
  63:src/kernel/slabTests.cpp **** }
 291              		.loc 1 63 1
 292 01dc 83308100 		ld	ra,8(sp)
 293              		.cfi_restore 1
 294 01e0 03340100 		ld	s0,0(sp)
 295              		.cfi_restore 8
 296              		.cfi_def_cfa 2, 16
 297 01e4 13010101 		addi	sp,sp,16
 298              		.cfi_def_cfa_offset 0
 299 01e8 67800000 		jr	ra
 300              		.cfi_endproc
 301              	.LFE9:
 303              		.align	2
 304              		.globl	_Z5checkPvm
 306              	_Z5checkPvm:
 307              	.LFB10:
  64:src/kernel/slabTests.cpp **** 
  65:src/kernel/slabTests.cpp **** int check(void *data, size_t size) {
 308              		.loc 1 65 36 is_stmt 1
 309              		.cfi_startproc
 310              	.LVL29:
 311 01ec 130101FF 		addi	sp,sp,-16
 312              		.cfi_def_cfa_offset 16
 313 01f0 23348100 		sd	s0,8(sp)
 314              		.cfi_offset 8, -8
GAS LISTING /tmp/cc7tQxct.s 			page 8


 315 01f4 13040101 		addi	s0,sp,16
 316              		.cfi_def_cfa 8, 0
 317 01f8 13060500 		mv	a2,a0
  66:src/kernel/slabTests.cpp ****     int ret = 1;
 318              		.loc 1 66 5
 319              	.LVL30:
  67:src/kernel/slabTests.cpp ****     for (size_t i = 0; i < size; i++) {
 320              		.loc 1 67 5
 321              	.LBB5:
 322              		.loc 1 67 17 is_stmt 0
 323 01fc 93070000 		li	a5,0
 324              	.LBE5:
  66:src/kernel/slabTests.cpp ****     int ret = 1;
 325              		.loc 1 66 9
 326 0200 13051000 		li	a0,1
 327              	.LVL31:
 328 0204 6F008000 		j	.L19
 329              	.LVL32:
 330              	.L18:
 331              	.LBB6:
 332              		.loc 1 67 5 is_stmt 1 discriminator 2
 333 0208 93871700 		addi	a5,a5,1
 334              	.LVL33:
 335              	.L19:
 336              		.loc 1 67 26 discriminator 1
 337 020c 63FEB700 		bgeu	a5,a1,.L17
  68:src/kernel/slabTests.cpp ****         if (((unsigned char *)data)[i] != MASK) {
 338              		.loc 1 68 9
 339              		.loc 1 68 38 is_stmt 0
 340 0210 3307F600 		add	a4,a2,a5
 341 0214 83460700 		lbu	a3,0(a4)
 342              		.loc 1 68 9
 343 0218 1307500A 		li	a4,165
 344 021c E386E6FE 		beq	a3,a4,.L18
  69:src/kernel/slabTests.cpp ****             ret = 0;
 345              		.loc 1 69 17
 346 0220 13050000 		li	a0,0
 347              	.LVL34:
 348 0224 6FF05FFE 		j	.L18
 349              	.LVL35:
 350              	.L17:
 351              	.LBE6:
  70:src/kernel/slabTests.cpp ****         }
  71:src/kernel/slabTests.cpp ****     }
  72:src/kernel/slabTests.cpp **** 
  73:src/kernel/slabTests.cpp ****     return ret;
 352              		.loc 1 73 5 is_stmt 1
  74:src/kernel/slabTests.cpp **** }
 353              		.loc 1 74 1 is_stmt 0
 354 0228 03348100 		ld	s0,8(sp)
 355              		.cfi_restore 8
 356              		.cfi_def_cfa 2, 16
 357 022c 13010101 		addi	sp,sp,16
 358              		.cfi_def_cfa_offset 0
 359 0230 67800000 		jr	ra
 360              		.cfi_endproc
 361              	.LFE10:
GAS LISTING /tmp/cc7tQxct.s 			page 9


 363              		.section	.rodata.str1.8
 364 002d 000000   		.align	3
 365              	.LC3:
 366 0030 56616C75 		.string	"Value not correct!"
 366      65206E6F 
 366      7420636F 
 366      72726563 
 366      742100
 367              		.text
 368              		.align	2
 369              		.globl	_Z4workPv
 371              	_Z4workPv:
 372              	.LFB11:
  75:src/kernel/slabTests.cpp **** 
  76:src/kernel/slabTests.cpp **** struct objects_s {
  77:src/kernel/slabTests.cpp ****     kmem_cache_t *cache;
  78:src/kernel/slabTests.cpp ****     void *data;
  79:src/kernel/slabTests.cpp **** };
  80:src/kernel/slabTests.cpp **** 
  81:src/kernel/slabTests.cpp **** void work(void* pdata)
  82:src/kernel/slabTests.cpp **** {
 373              		.loc 1 82 1 is_stmt 1
 374              		.cfi_startproc
 375              	.LVL36:
 376 0234 130101F8 		addi	sp,sp,-128
 377              		.cfi_def_cfa_offset 128
 378 0238 233C1106 		sd	ra,120(sp)
 379 023c 23388106 		sd	s0,112(sp)
 380 0240 23349106 		sd	s1,104(sp)
 381 0244 23302107 		sd	s2,96(sp)
 382 0248 233C3105 		sd	s3,88(sp)
 383 024c 23384105 		sd	s4,80(sp)
 384 0250 23345105 		sd	s5,72(sp)
 385 0254 23306105 		sd	s6,64(sp)
 386 0258 233C7103 		sd	s7,56(sp)
 387 025c 23388103 		sd	s8,48(sp)
 388 0260 23349103 		sd	s9,40(sp)
 389              		.cfi_offset 1, -8
 390              		.cfi_offset 8, -16
 391              		.cfi_offset 9, -24
 392              		.cfi_offset 18, -32
 393              		.cfi_offset 19, -40
 394              		.cfi_offset 20, -48
 395              		.cfi_offset 21, -56
 396              		.cfi_offset 22, -64
 397              		.cfi_offset 23, -72
 398              		.cfi_offset 24, -80
 399              		.cfi_offset 25, -88
 400 0264 13040108 		addi	s0,sp,128
 401              		.cfi_def_cfa 8, 0
  83:src/kernel/slabTests.cpp ****     struct data_s data = *(struct data_s*) pdata;
 402              		.loc 1 83 5
 403              		.loc 1 83 19 is_stmt 0
 404 0268 033C0500 		ld	s8,0(a0)
 405 026c 233484F9 		sd	s8,-120(s0)
 406 0270 83378500 		ld	a5,8(a0)
 407 0274 2338F4F8 		sd	a5,-112(s0)
GAS LISTING /tmp/cc7tQxct.s 			page 10


 408 0278 83370501 		ld	a5,16(a0)
 409 027c 233CF4F8 		sd	a5,-104(s0)
  84:src/kernel/slabTests.cpp ****     int size = 0;
 410              		.loc 1 84 5 is_stmt 1
 411              	.LVL37:
  85:src/kernel/slabTests.cpp ****     int object_size = data.id + 1;
 412              		.loc 1 85 5
 413              		.loc 1 85 28 is_stmt 0
 414 0280 9B070C00 		sext.w	a5,s8
 415              		.loc 1 85 9
 416 0284 1B0C1C00 		addiw	s8,s8,1
 417              	.LVL38:
  86:src/kernel/slabTests.cpp ****     kmem_cache_t *cache = kmem_cache_create(CACHE_NAMES[data.id], object_size, 0, 0);
 418              		.loc 1 86 5 is_stmt 1
 419              		.loc 1 86 64 is_stmt 0
 420 0288 13973700 		slli	a4,a5,3
 421 028c 97070000 		lla	a5,.LANCHOR0
 421      93870700 
 422              	.LVL39:
 423 0294 B387E700 		add	a5,a5,a4
 424              		.loc 1 86 44
 425 0298 130B0C00 		mv	s6,s8
 426 029c 93060000 		li	a3,0
 427 02a0 13060000 		li	a2,0
 428 02a4 93050C00 		mv	a1,s8
 429 02a8 03B50700 		ld	a0,0(a5)
 430              	.LVL40:
 431 02ac 97000000 		call	_Z17kmem_cache_createPKcmPFvPvES3_@plt
 431      E7800000 
 432              	.LVL41:
 433 02b4 130A0500 		mv	s4,a0
 434              	.LVL42:
  87:src/kernel/slabTests.cpp **** 
  88:src/kernel/slabTests.cpp ****     struct objects_s *objs = (struct objects_s*)(kmalloc(sizeof(struct objects_s) * data.iterations
 435              		.loc 1 88 5 is_stmt 1
 436              		.loc 1 88 90 is_stmt 0
 437 02b8 832B84F9 		lw	s7,-104(s0)
 438              		.loc 1 88 57
 439 02bc 13954B00 		slli	a0,s7,4
 440              	.LVL43:
 441 02c0 97000000 		call	_Z7kmallocm@plt
 441      E7800000 
 442              	.LVL44:
 443 02c8 930A0500 		mv	s5,a0
 444              	.LBB7:
  89:src/kernel/slabTests.cpp **** 
  90:src/kernel/slabTests.cpp ****     for (int i = 0; i < data.iterations; i++) {
 445              		.loc 1 90 14
 446 02cc 93040000 		li	s1,0
 447              	.LBE7:
  84:src/kernel/slabTests.cpp ****     int object_size = data.id + 1;
 448              		.loc 1 84 9
 449 02d0 93090000 		li	s3,0
 450 02d4 6F008003 		j	.L26
 451              	.LVL45:
 452              	.L24:
 453              	.LBB8:
GAS LISTING /tmp/cc7tQxct.s 			page 11


  91:src/kernel/slabTests.cpp ****         if (i % 100 == 0) {
  92:src/kernel/slabTests.cpp ****             objs[size].data = kmem_cache_alloc(data.shared);
  93:src/kernel/slabTests.cpp ****             objs[size].cache = data.shared;
  94:src/kernel/slabTests.cpp ****             if (!check(objs[size].data, shared_size)) {
  95:src/kernel/slabTests.cpp ****                 KConsole::trapPrintString("Value not correct!");
  96:src/kernel/slabTests.cpp ****             }
  97:src/kernel/slabTests.cpp ****         }
  98:src/kernel/slabTests.cpp ****         else {
  99:src/kernel/slabTests.cpp ****             objs[size].data = kmem_cache_alloc(cache);
 454              		.loc 1 99 13 is_stmt 1
 455              		.loc 1 99 22 is_stmt 0
 456 02d8 13994900 		slli	s2,s3,4
 457 02dc 33892A01 		add	s2,s5,s2
 458              		.loc 1 99 47
 459 02e0 13050A00 		mv	a0,s4
 460 02e4 97000000 		call	_Z16kmem_cache_allocP12kmem_cache_s@plt
 460      E7800000 
 461              	.LVL46:
 462              		.loc 1 99 29
 463 02ec 2334A900 		sd	a0,8(s2)
 100:src/kernel/slabTests.cpp ****             objs[size].cache = cache;
 464              		.loc 1 100 13 is_stmt 1
 465              		.loc 1 100 30 is_stmt 0
 466 02f0 23304901 		sd	s4,0(s2)
 101:src/kernel/slabTests.cpp ****             memset(objs[size].data, object_size, MASK);
 467              		.loc 1 101 13 is_stmt 1
 468              		.loc 1 101 19 is_stmt 0
 469 02f4 1306500A 		li	a2,165
 470 02f8 93050C00 		mv	a1,s8
 471 02fc 97000000 		call	_Z6memsetPKvii
 471      E7800000 
 472              	.LVL47:
 473              	.L25:
 102:src/kernel/slabTests.cpp ****         }
 103:src/kernel/slabTests.cpp ****         size++;
 474              		.loc 1 103 9 is_stmt 1 discriminator 2
 475              		.loc 1 103 13 is_stmt 0 discriminator 2
 476 0304 9B891900 		addiw	s3,s3,1
 477              	.LVL48:
  90:src/kernel/slabTests.cpp ****         if (i % 100 == 0) {
 478              		.loc 1 90 5 is_stmt 1 discriminator 2
 479 0308 9B841400 		addiw	s1,s1,1
 480              	.LVL49:
 481              	.L26:
  90:src/kernel/slabTests.cpp ****         if (i % 100 == 0) {
 482              		.loc 1 90 23 discriminator 1
 483 030c 63DA7405 		ble	s7,s1,.L23
  91:src/kernel/slabTests.cpp ****             objs[size].data = kmem_cache_alloc(data.shared);
 484              		.loc 1 91 9
  91:src/kernel/slabTests.cpp ****             objs[size].data = kmem_cache_alloc(data.shared);
 485              		.loc 1 91 15 is_stmt 0
 486 0310 93074006 		li	a5,100
 487 0314 BBE7F402 		remw	a5,s1,a5
  91:src/kernel/slabTests.cpp ****             objs[size].data = kmem_cache_alloc(data.shared);
 488              		.loc 1 91 9
 489 0318 E39007FC 		bnez	a5,.L24
  92:src/kernel/slabTests.cpp ****             objs[size].cache = data.shared;
GAS LISTING /tmp/cc7tQxct.s 			page 12


 490              		.loc 1 92 13 is_stmt 1
  92:src/kernel/slabTests.cpp ****             objs[size].cache = data.shared;
 491              		.loc 1 92 47 is_stmt 0
 492 031c 833C04F9 		ld	s9,-112(s0)
  92:src/kernel/slabTests.cpp ****             objs[size].cache = data.shared;
 493              		.loc 1 92 22
 494 0320 13994900 		slli	s2,s3,4
 495 0324 33892A01 		add	s2,s5,s2
  92:src/kernel/slabTests.cpp ****             objs[size].cache = data.shared;
 496              		.loc 1 92 47
 497 0328 13850C00 		mv	a0,s9
 498 032c 97000000 		call	_Z16kmem_cache_allocP12kmem_cache_s@plt
 498      E7800000 
 499              	.LVL50:
  92:src/kernel/slabTests.cpp ****             objs[size].cache = data.shared;
 500              		.loc 1 92 29
 501 0334 2334A900 		sd	a0,8(s2)
  93:src/kernel/slabTests.cpp ****             if (!check(objs[size].data, shared_size)) {
 502              		.loc 1 93 13 is_stmt 1
  93:src/kernel/slabTests.cpp ****             if (!check(objs[size].data, shared_size)) {
 503              		.loc 1 93 30 is_stmt 0
 504 0338 23309901 		sd	s9,0(s2)
  94:src/kernel/slabTests.cpp ****                 KConsole::trapPrintString("Value not correct!");
 505              		.loc 1 94 13 is_stmt 1
  94:src/kernel/slabTests.cpp ****                 KConsole::trapPrintString("Value not correct!");
 506              		.loc 1 94 23 is_stmt 0
 507 033c 93057000 		li	a1,7
 508 0340 97000000 		call	_Z5checkPvm
 508      E7800000 
 509              	.LVL51:
  94:src/kernel/slabTests.cpp ****                 KConsole::trapPrintString("Value not correct!");
 510              		.loc 1 94 13
 511 0348 E31E05FA 		bnez	a0,.L25
  95:src/kernel/slabTests.cpp ****             }
 512              		.loc 1 95 17 is_stmt 1
  95:src/kernel/slabTests.cpp ****             }
 513              		.loc 1 95 42 is_stmt 0
 514 034c 17050000 		lla	a0,.LC3
 514      13050500 
 515 0354 97000000 		call	_ZN8KConsole15trapPrintStringEPKc@plt
 515      E7800000 
 516              	.LVL52:
 517 035c 6FF09FFA 		j	.L25
 518              	.L23:
 519              	.LBE8:
 104:src/kernel/slabTests.cpp ****     }
 105:src/kernel/slabTests.cpp **** 
 106:src/kernel/slabTests.cpp ****     kmem_cache_info(cache);
 520              		.loc 1 106 5 is_stmt 1
 521              		.loc 1 106 20 is_stmt 0
 522 0360 13050A00 		mv	a0,s4
 523 0364 97000000 		call	_Z15kmem_cache_infoP12kmem_cache_s@plt
 523      E7800000 
 524              	.LVL53:
 107:src/kernel/slabTests.cpp ****     kmem_cache_info(data.shared);
 525              		.loc 1 107 5 is_stmt 1
 526              		.loc 1 107 20 is_stmt 0
GAS LISTING /tmp/cc7tQxct.s 			page 13


 527 036c 033504F9 		ld	a0,-112(s0)
 528 0370 97000000 		call	_Z15kmem_cache_infoP12kmem_cache_s@plt
 528      E7800000 
 529              	.LVL54:
 530              	.LBB9:
 108:src/kernel/slabTests.cpp ****     //printSlabAllocatorInfo();
 109:src/kernel/slabTests.cpp **** 
 110:src/kernel/slabTests.cpp ****     for (int i = 0; i < size; i++) {
 531              		.loc 1 110 14
 532 0378 13090000 		li	s2,0
 533 037c 6F000003 		j	.L30
 534              	.LVL55:
 535              	.L31:
 111:src/kernel/slabTests.cpp ****         if (!check(objs[i].data, (cache == objs[i].cache) ? object_size : shared_size)) {
 536              		.loc 1 111 19
 537 0380 93050B00 		mv	a1,s6
 538 0384 6F004004 		j	.L28
 539              	.L33:
 112:src/kernel/slabTests.cpp ****             KConsole::trapPrintString("Value not correct!");
 540              		.loc 1 112 13 is_stmt 1
 541              		.loc 1 112 38 is_stmt 0
 542 0388 17050000 		lla	a0,.LC3
 542      13050500 
 543 0390 97000000 		call	_ZN8KConsole15trapPrintStringEPKc@plt
 543      E7800000 
 544              	.LVL56:
 545              	.L29:
 113:src/kernel/slabTests.cpp ****         }
 114:src/kernel/slabTests.cpp ****         kmem_cache_free(objs[i].cache, objs[i].data);
 546              		.loc 1 114 9 is_stmt 1
 547              		.loc 1 114 24 is_stmt 0
 548 0398 83B58400 		ld	a1,8(s1)
 549 039c 03B50400 		ld	a0,0(s1)
 550 03a0 97000000 		call	_Z15kmem_cache_freeP12kmem_cache_sPv@plt
 550      E7800000 
 551              	.LVL57:
 110:src/kernel/slabTests.cpp ****         if (!check(objs[i].data, (cache == objs[i].cache) ? object_size : shared_size)) {
 552              		.loc 1 110 5 is_stmt 1
 553 03a8 1B091900 		addiw	s2,s2,1
 554              	.LVL58:
 555              	.L30:
 110:src/kernel/slabTests.cpp ****         if (!check(objs[i].data, (cache == objs[i].cache) ? object_size : shared_size)) {
 556              		.loc 1 110 23 discriminator 1
 557 03ac 63563903 		ble	s3,s2,.L27
 111:src/kernel/slabTests.cpp ****             KConsole::trapPrintString("Value not correct!");
 558              		.loc 1 111 9
 111:src/kernel/slabTests.cpp ****             KConsole::trapPrintString("Value not correct!");
 559              		.loc 1 111 26 is_stmt 0
 560 03b0 93144900 		slli	s1,s2,4
 561 03b4 B3849A00 		add	s1,s5,s1
 111:src/kernel/slabTests.cpp ****             KConsole::trapPrintString("Value not correct!");
 562              		.loc 1 111 19
 563 03b8 03B58400 		ld	a0,8(s1)
 111:src/kernel/slabTests.cpp ****             KConsole::trapPrintString("Value not correct!");
 564              		.loc 1 111 52
 565 03bc 83B70400 		ld	a5,0(s1)
 111:src/kernel/slabTests.cpp ****             KConsole::trapPrintString("Value not correct!");
GAS LISTING /tmp/cc7tQxct.s 			page 14


 566              		.loc 1 111 19
 567 03c0 E38047FD 		beq	a5,s4,.L31
 568 03c4 93057000 		li	a1,7
 569              	.L28:
 111:src/kernel/slabTests.cpp ****             KConsole::trapPrintString("Value not correct!");
 570              		.loc 1 111 19 discriminator 4
 571 03c8 97000000 		call	_Z5checkPvm
 571      E7800000 
 572              	.LVL59:
 111:src/kernel/slabTests.cpp ****             KConsole::trapPrintString("Value not correct!");
 573              		.loc 1 111 9 discriminator 4
 574 03d0 E31405FC 		bnez	a0,.L29
 575 03d4 6FF05FFB 		j	.L33
 576              	.L27:
 577              	.LBE9:
 115:src/kernel/slabTests.cpp ****     }
 116:src/kernel/slabTests.cpp **** 
 117:src/kernel/slabTests.cpp ****     kmem_cache_info(cache);
 578              		.loc 1 117 5 is_stmt 1
 579              		.loc 1 117 20 is_stmt 0
 580 03d8 13050A00 		mv	a0,s4
 581 03dc 97000000 		call	_Z15kmem_cache_infoP12kmem_cache_s@plt
 581      E7800000 
 582              	.LVL60:
 118:src/kernel/slabTests.cpp **** 
 119:src/kernel/slabTests.cpp ****     //kmem_cache_info(cache);
 120:src/kernel/slabTests.cpp ****     //kmem_cache_info(data.shared);
 121:src/kernel/slabTests.cpp ****     //printSlabAllocatorInfo();
 122:src/kernel/slabTests.cpp **** 
 123:src/kernel/slabTests.cpp ****     kfree(objs);
 583              		.loc 1 123 5 is_stmt 1
 584              		.loc 1 123 10 is_stmt 0
 585 03e4 13850A00 		mv	a0,s5
 586 03e8 97000000 		call	_Z5kfreePKv@plt
 586      E7800000 
 587              	.LVL61:
 124:src/kernel/slabTests.cpp ****     kmem_cache_destroy(cache);
 588              		.loc 1 124 5 is_stmt 1
 589              		.loc 1 124 23 is_stmt 0
 590 03f0 13050A00 		mv	a0,s4
 591 03f4 97000000 		call	_Z18kmem_cache_destroyP12kmem_cache_s@plt
 591      E7800000 
 592              	.LVL62:
 125:src/kernel/slabTests.cpp **** 
 126:src/kernel/slabTests.cpp ****     //printSlabAllocatorInfo();
 127:src/kernel/slabTests.cpp **** }
 593              		.loc 1 127 1
 594 03fc 83308107 		ld	ra,120(sp)
 595              		.cfi_restore 1
 596 0400 03340107 		ld	s0,112(sp)
 597              		.cfi_restore 8
 598              		.cfi_def_cfa 2, 128
 599              	.LVL63:
 600 0404 83348106 		ld	s1,104(sp)
 601              		.cfi_restore 9
 602 0408 03390106 		ld	s2,96(sp)
 603              		.cfi_restore 18
GAS LISTING /tmp/cc7tQxct.s 			page 15


 604              	.LVL64:
 605 040c 83398105 		ld	s3,88(sp)
 606              		.cfi_restore 19
 607              	.LVL65:
 608 0410 033A0105 		ld	s4,80(sp)
 609              		.cfi_restore 20
 610              	.LVL66:
 611 0414 833A8104 		ld	s5,72(sp)
 612              		.cfi_restore 21
 613 0418 033B0104 		ld	s6,64(sp)
 614              		.cfi_restore 22
 615 041c 833B8103 		ld	s7,56(sp)
 616              		.cfi_restore 23
 617 0420 033C0103 		ld	s8,48(sp)
 618              		.cfi_restore 24
 619 0424 833C8102 		ld	s9,40(sp)
 620              		.cfi_restore 25
 621 0428 13010108 		addi	sp,sp,128
 622              		.cfi_def_cfa_offset 0
 623              	.LVL67:
 624 042c 67800000 		jr	ra
 625              		.cfi_endproc
 626              	.LFE11:
 628              		.align	2
 629              		.globl	_Z4runsPFvPvEP6data_si
 631              	_Z4runsPFvPvEP6data_si:
 632              	.LFB12:
 128:src/kernel/slabTests.cpp **** 
 129:src/kernel/slabTests.cpp **** void runs(void(*work)(void*), struct data_s* data, int num) {
 633              		.loc 1 129 61 is_stmt 1
 634              		.cfi_startproc
 635              	.LVL68:
 636 0430 130101FB 		addi	sp,sp,-80
 637              		.cfi_def_cfa_offset 80
 638 0434 23341104 		sd	ra,72(sp)
 639 0438 23308104 		sd	s0,64(sp)
 640 043c 233C9102 		sd	s1,56(sp)
 641 0440 23382103 		sd	s2,48(sp)
 642 0444 23343103 		sd	s3,40(sp)
 643              		.cfi_offset 1, -8
 644              		.cfi_offset 8, -16
 645              		.cfi_offset 9, -24
 646              		.cfi_offset 18, -32
 647              		.cfi_offset 19, -40
 648 0448 13040105 		addi	s0,sp,80
 649              		.cfi_def_cfa 8, 0
 650 044c 93090500 		mv	s3,a0
 651 0450 13890500 		mv	s2,a1
 130:src/kernel/slabTests.cpp ****     for (int i = 0; i < RUN_NUM; i++) {
 652              		.loc 1 130 5
 653              	.LVL69:
 654              	.LBB10:
 655              		.loc 1 130 14 is_stmt 0
 656 0454 93040000 		li	s1,0
 657              	.LVL70:
 658              	.L36:
 659              		.loc 1 130 23 is_stmt 1 discriminator 1
GAS LISTING /tmp/cc7tQxct.s 			page 16


 660 0458 93074000 		li	a5,4
 661 045c 63C89702 		bgt	s1,a5,.L34
 662              	.LBB11:
 131:src/kernel/slabTests.cpp ****         struct data_s private_data;
 663              		.loc 1 131 9
 132:src/kernel/slabTests.cpp ****         private_data = *(struct data_s*) data;
 664              		.loc 1 132 9
 665              		.loc 1 132 22 is_stmt 0
 666 0460 83370900 		ld	a5,0(s2)
 667 0464 233CF4FA 		sd	a5,-72(s0)
 668 0468 83378900 		ld	a5,8(s2)
 669 046c 2330F4FC 		sd	a5,-64(s0)
 670 0470 83370901 		ld	a5,16(s2)
 671 0474 2334F4FC 		sd	a5,-56(s0)
 133:src/kernel/slabTests.cpp ****         private_data.id = i;
 672              		.loc 1 133 9 is_stmt 1
 673              		.loc 1 133 25 is_stmt 0
 674 0478 232C94FA 		sw	s1,-72(s0)
 134:src/kernel/slabTests.cpp ****         work(&private_data);
 675              		.loc 1 134 9 is_stmt 1
 676              		.loc 1 134 13 is_stmt 0
 677 047c 130584FB 		addi	a0,s0,-72
 678 0480 E7800900 		jalr	s3
 679              	.LVL71:
 680              	.LBE11:
 130:src/kernel/slabTests.cpp ****         struct data_s private_data;
 681              		.loc 1 130 5 is_stmt 1
 682 0484 9B841400 		addiw	s1,s1,1
 683              	.LVL72:
 684 0488 6FF01FFD 		j	.L36
 685              	.LVL73:
 686              	.L34:
 687              	.LBE10:
 135:src/kernel/slabTests.cpp ****     }
 136:src/kernel/slabTests.cpp **** }
 688              		.loc 1 136 1 is_stmt 0
 689 048c 83308104 		ld	ra,72(sp)
 690              		.cfi_restore 1
 691 0490 03340104 		ld	s0,64(sp)
 692              		.cfi_restore 8
 693              		.cfi_def_cfa 2, 80
 694 0494 83348103 		ld	s1,56(sp)
 695              		.cfi_restore 9
 696              	.LVL74:
 697 0498 03390103 		ld	s2,48(sp)
 698              		.cfi_restore 18
 699              	.LVL75:
 700 049c 83398102 		ld	s3,40(sp)
 701              		.cfi_restore 19
 702              	.LVL76:
 703 04a0 13010105 		addi	sp,sp,80
 704              		.cfi_def_cfa_offset 0
 705 04a4 67800000 		jr	ra
 706              		.cfi_endproc
 707              	.LFE12:
 709              		.section	.rodata.str1.8
 710 0043 00000000 		.align	3
GAS LISTING /tmp/cc7tQxct.s 			page 17


 710      00
 711              	.LC4:
 712 0048 73686172 		.string	"shared object"
 712      6564206F 
 712      626A6563 
 712      7400
 713              		.text
 714              		.align	2
 715              		.globl	_Z7testOS2v
 717              	_Z7testOS2v:
 718              	.LFB13:
 137:src/kernel/slabTests.cpp **** 
 138:src/kernel/slabTests.cpp **** void testOS2()
 139:src/kernel/slabTests.cpp **** {
 719              		.loc 1 139 1 is_stmt 1
 720              		.cfi_startproc
 721 04a8 130101FC 		addi	sp,sp,-64
 722              		.cfi_def_cfa_offset 64
 723 04ac 233C1102 		sd	ra,56(sp)
 724 04b0 23388102 		sd	s0,48(sp)
 725 04b4 23349102 		sd	s1,40(sp)
 726              		.cfi_offset 1, -8
 727              		.cfi_offset 8, -16
 728              		.cfi_offset 9, -24
 729 04b8 13040104 		addi	s0,sp,64
 730              		.cfi_def_cfa 8, 0
 140:src/kernel/slabTests.cpp ****     kmem_cache_t *shared = kmem_cache_create("shared object", shared_size, construct, nullptr);
 731              		.loc 1 140 5
 732              		.loc 1 140 45 is_stmt 0
 733 04bc 93060000 		li	a3,0
 734 04c0 17060000 		lla	a2,_Z9constructPv
 734      13060600 
 735 04c8 93057000 		li	a1,7
 736 04cc 17050000 		lla	a0,.LC4
 736      13050500 
 737 04d4 97000000 		call	_Z17kmem_cache_createPKcmPFvPvES3_@plt
 737      E7800000 
 738              	.LVL77:
 739 04dc 93040500 		mv	s1,a0
 740              	.LVL78:
 141:src/kernel/slabTests.cpp **** 
 142:src/kernel/slabTests.cpp ****     struct data_s data;
 741              		.loc 1 142 5 is_stmt 1
 143:src/kernel/slabTests.cpp ****     data.shared = shared;
 742              		.loc 1 143 5
 743              		.loc 1 143 17 is_stmt 0
 744 04e0 2338A4FC 		sd	a0,-48(s0)
 144:src/kernel/slabTests.cpp ****     data.iterations = ITERATIONS;
 745              		.loc 1 144 5 is_stmt 1
 746              		.loc 1 144 21 is_stmt 0
 747 04e4 9307803E 		li	a5,1000
 748 04e8 232CF4FC 		sw	a5,-40(s0)
 145:src/kernel/slabTests.cpp ****     runs(work, &data, RUN_NUM);
 749              		.loc 1 145 5 is_stmt 1
 750              		.loc 1 145 9 is_stmt 0
 751 04ec 13065000 		li	a2,5
 752 04f0 930584FC 		addi	a1,s0,-56
GAS LISTING /tmp/cc7tQxct.s 			page 18


 753 04f4 17050000 		lla	a0,_Z4workPv
 753      13050500 
 754 04fc 97000000 		call	_Z4runsPFvPvEP6data_si
 754      E7800000 
 755              	.LVL79:
 146:src/kernel/slabTests.cpp **** 
 147:src/kernel/slabTests.cpp ****     kmem_cache_destroy(shared);
 756              		.loc 1 147 5 is_stmt 1
 757              		.loc 1 147 23 is_stmt 0
 758 0504 13850400 		mv	a0,s1
 759 0508 97000000 		call	_Z18kmem_cache_destroyP12kmem_cache_s@plt
 759      E7800000 
 760              	.LVL80:
 148:src/kernel/slabTests.cpp **** }...
 761              		.loc 1 148 1
 762 0510 83308103 		ld	ra,56(sp)
 763              		.cfi_restore 1
 764 0514 03340103 		ld	s0,48(sp)
 765              		.cfi_restore 8
 766              		.cfi_def_cfa 2, 64
 767 0518 83348102 		ld	s1,40(sp)
 768              		.cfi_restore 9
 769              	.LVL81:
 770 051c 13010104 		addi	sp,sp,64
 771              		.cfi_def_cfa_offset 0
 772 0520 67800000 		jr	ra
 773              		.cfi_endproc
 774              	.LFE13:
 776              		.section	.rodata.str1.8
 777 0056 0000     		.align	3
 778              	.LC5:
 779 0058 74635F30 		.string	"tc_0"
 779      00
 780 005d 000000   		.align	3
 781              	.LC6:
 782 0060 74635F31 		.string	"tc_1"
 782      00
 783 0065 000000   		.align	3
 784              	.LC7:
 785 0068 74635F32 		.string	"tc_2"
 785      00
 786 006d 000000   		.align	3
 787              	.LC8:
 788 0070 74635F33 		.string	"tc_3"
 788      00
 789 0075 000000   		.align	3
 790              	.LC9:
 791 0078 74635F34 		.string	"tc_4"
 791      00
 792              		.section	.data.rel.ro.local,"aw"
 793              		.align	3
 794              		.set	.LANCHOR0,. + 0
 797              	_ZL11CACHE_NAMES:
 798 0000 00000000 		.dword	.LC5
 798      00000000 
 799 0008 00000000 		.dword	.LC6
 799      00000000 
GAS LISTING /tmp/cc7tQxct.s 			page 19


 800 0010 00000000 		.dword	.LC7
 800      00000000 
 801 0018 00000000 		.dword	.LC8
 801      00000000 
 802 0020 00000000 		.dword	.LC9
 802      00000000 
 803              		.text
 804              	.Letext0:
 805              		.file 2 "src/kernel/../../h/../lib/hw.h"
 806              		.file 3 "src/kernel/../../h/slabAllocator.hpp"
 807              		.file 4 "src/kernel/../../h/PCB.hpp"
 808              		.file 5 "src/kernel/../../h/KSemaphore.hpp"
 809              		.file 6 "src/kernel/../../h/KConsole.hpp"
GAS LISTING /tmp/cc7tQxct.s 			page 20


DEFINED SYMBOLS
                            *ABS*:0000000000000000 slabTests.cpp
     /tmp/cc7tQxct.s:9      .text:0000000000000000 _Z12slabInitTestv
     /tmp/cc7tQxct.s:13     .text:0000000000000000 .L0 
     /tmp/cc7tQxct.s:14     .text:0000000000000000 .L0 
     /tmp/cc7tQxct.s:15     .text:0000000000000004 .L0 
     /tmp/cc7tQxct.s:18     .text:000000000000000c .L0 
     /tmp/cc7tQxct.s:19     .text:000000000000000c .L0 
     /tmp/cc7tQxct.s:21     .text:0000000000000010 .L0 
     /tmp/cc7tQxct.s:23     .text:0000000000000010 .L0 
     /tmp/cc7tQxct.s:24     .text:0000000000000010 .L0 
     /tmp/cc7tQxct.s:30     .text:0000000000000028 .L0 
     /tmp/cc7tQxct.s:31     .text:000000000000002c .L0 
     /tmp/cc7tQxct.s:33     .text:0000000000000030 .L0 
     /tmp/cc7tQxct.s:34     .text:0000000000000030 .L0 
     /tmp/cc7tQxct.s:36     .text:0000000000000034 .L0 
     /tmp/cc7tQxct.s:38     .text:0000000000000038 .L0 
     /tmp/cc7tQxct.s:55     .text:0000000000000038 _Z19slabCacheCreateTestv
     /tmp/cc7tQxct.s:58     .text:0000000000000038 .L0 
     /tmp/cc7tQxct.s:59     .text:0000000000000038 .L0 
     /tmp/cc7tQxct.s:60     .text:000000000000003c .L0 
     /tmp/cc7tQxct.s:65     .text:000000000000004c .L0 
     /tmp/cc7tQxct.s:66     .text:000000000000004c .L0 
     /tmp/cc7tQxct.s:67     .text:000000000000004c .L0 
     /tmp/cc7tQxct.s:68     .text:000000000000004c .L0 
     /tmp/cc7tQxct.s:70     .text:0000000000000050 .L0 
     /tmp/cc7tQxct.s:72     .text:0000000000000050 .L0 
     /tmp/cc7tQxct.s:73     .text:0000000000000050 .L0 
     /tmp/cc7tQxct.s:79     .text:0000000000000068 .L0 
     /tmp/cc7tQxct.s:80     .text:0000000000000068 .L0 
     /tmp/cc7tQxct.s:89     .text:0000000000000088 .L0 
     /tmp/cc7tQxct.s:90     .text:0000000000000088 .L0 
     /tmp/cc7tQxct.s:99     .text:00000000000000a8 .L0 
     /tmp/cc7tQxct.s:100    .text:00000000000000a8 .L0 
     /tmp/cc7tQxct.s:108    .text:00000000000000c4 .L0 
     /tmp/cc7tQxct.s:110    .text:00000000000000c8 .L0 
     /tmp/cc7tQxct.s:112    .text:00000000000000cc .L0 
     /tmp/cc7tQxct.s:114    .text:00000000000000d0 .L0 
     /tmp/cc7tQxct.s:115    .text:00000000000000d0 .L0 
     /tmp/cc7tQxct.s:119    .text:00000000000000d8 .L0 
     /tmp/cc7tQxct.s:120    .text:00000000000000dc .L0 
     /tmp/cc7tQxct.s:122    .text:00000000000000e0 .L0 
     /tmp/cc7tQxct.s:123    .text:00000000000000e0 .L0 
     /tmp/cc7tQxct.s:125    .text:00000000000000e4 .L0 
     /tmp/cc7tQxct.s:128    .text:00000000000000e8 .L0 
     /tmp/cc7tQxct.s:131    .text:00000000000000ec .L0 
     /tmp/cc7tQxct.s:133    .text:00000000000000f0 .L0 
     /tmp/cc7tQxct.s:139    .text:00000000000000f0 _Z20slabCacheCreateTest2v
     /tmp/cc7tQxct.s:142    .text:00000000000000f0 .L0 
     /tmp/cc7tQxct.s:143    .text:00000000000000f0 .L0 
     /tmp/cc7tQxct.s:144    .text:00000000000000f4 .L0 
     /tmp/cc7tQxct.s:149    .text:0000000000000104 .L0 
     /tmp/cc7tQxct.s:150    .text:0000000000000104 .L0 
     /tmp/cc7tQxct.s:151    .text:0000000000000104 .L0 
     /tmp/cc7tQxct.s:152    .text:0000000000000104 .L0 
     /tmp/cc7tQxct.s:154    .text:0000000000000108 .L0 
     /tmp/cc7tQxct.s:156    .text:0000000000000108 .L0 
GAS LISTING /tmp/cc7tQxct.s 			page 21


     /tmp/cc7tQxct.s:157    .text:0000000000000108 .L0 
     /tmp/cc7tQxct.s:163    .text:0000000000000120 .L0 
     /tmp/cc7tQxct.s:165    .text:0000000000000120 .L0 
     /tmp/cc7tQxct.s:166    .text:0000000000000120 .L0 
     /tmp/cc7tQxct.s:169    .text:0000000000000124 .L0 
     /tmp/cc7tQxct.s:174    .text:0000000000000128 .L0 
     /tmp/cc7tQxct.s:177    .text:0000000000000130 .L0 
     /tmp/cc7tQxct.s:178    .text:0000000000000130 .L0 
     /tmp/cc7tQxct.s:187    .text:0000000000000150 .L0 
     /tmp/cc7tQxct.s:194    .text:0000000000000158 .L0 
     /tmp/cc7tQxct.s:195    .text:0000000000000158 .L0 
     /tmp/cc7tQxct.s:198    .text:0000000000000160 .L0 
     /tmp/cc7tQxct.s:199    .text:0000000000000160 .L0 
     /tmp/cc7tQxct.s:203    .text:000000000000016c .L0 
     /tmp/cc7tQxct.s:204    .text:000000000000016c .L0 
     /tmp/cc7tQxct.s:207    .text:0000000000000174 .L0 
     /tmp/cc7tQxct.s:208    .text:0000000000000178 .L0 
     /tmp/cc7tQxct.s:210    .text:000000000000017c .L0 
     /tmp/cc7tQxct.s:211    .text:000000000000017c .L0 
     /tmp/cc7tQxct.s:213    .text:0000000000000180 .L0 
     /tmp/cc7tQxct.s:216    .text:0000000000000184 .L0 
     /tmp/cc7tQxct.s:219    .text:0000000000000188 .L0 
     /tmp/cc7tQxct.s:221    .text:000000000000018c .L0 
     /tmp/cc7tQxct.s:227    .text:000000000000018c _Z6memsetPKvii
     /tmp/cc7tQxct.s:230    .text:000000000000018c .L0 
     /tmp/cc7tQxct.s:232    .text:000000000000018c .L0 
     /tmp/cc7tQxct.s:233    .text:0000000000000190 .L0 
     /tmp/cc7tQxct.s:235    .text:0000000000000194 .L0 
     /tmp/cc7tQxct.s:237    .text:0000000000000198 .L0 
     /tmp/cc7tQxct.s:241    .text:0000000000000198 .L0 
     /tmp/cc7tQxct.s:242    .text:0000000000000198 .L0 
     /tmp/cc7tQxct.s:246    .text:000000000000019c .L0 
     /tmp/cc7tQxct.s:248    .text:00000000000001a0 .L0 
     /tmp/cc7tQxct.s:249    .text:00000000000001a0 .L0 
     /tmp/cc7tQxct.s:251    .text:00000000000001a4 .L0 
     /tmp/cc7tQxct.s:253    .text:00000000000001a8 .L0 
     /tmp/cc7tQxct.s:260    .text:00000000000001b0 .L0 
     /tmp/cc7tQxct.s:261    .text:00000000000001b4 .L0 
     /tmp/cc7tQxct.s:262    .text:00000000000001b4 .L0 
     /tmp/cc7tQxct.s:264    .text:00000000000001b8 .L0 
     /tmp/cc7tQxct.s:266    .text:00000000000001bc .L0 
     /tmp/cc7tQxct.s:272    .text:00000000000001bc _Z9constructPv
     /tmp/cc7tQxct.s:275    .text:00000000000001bc .L0 
     /tmp/cc7tQxct.s:277    .text:00000000000001bc .L0 
     /tmp/cc7tQxct.s:278    .text:00000000000001c0 .L0 
     /tmp/cc7tQxct.s:281    .text:00000000000001c8 .L0 
     /tmp/cc7tQxct.s:282    .text:00000000000001c8 .L0 
     /tmp/cc7tQxct.s:284    .text:00000000000001cc .L0 
     /tmp/cc7tQxct.s:286    .text:00000000000001cc .L0 
     /tmp/cc7tQxct.s:287    .text:00000000000001cc .L0 
     /tmp/cc7tQxct.s:292    .text:00000000000001dc .L0 
     /tmp/cc7tQxct.s:293    .text:00000000000001e0 .L0 
     /tmp/cc7tQxct.s:295    .text:00000000000001e4 .L0 
     /tmp/cc7tQxct.s:296    .text:00000000000001e4 .L0 
     /tmp/cc7tQxct.s:298    .text:00000000000001e8 .L0 
     /tmp/cc7tQxct.s:300    .text:00000000000001ec .L0 
     /tmp/cc7tQxct.s:306    .text:00000000000001ec _Z5checkPvm
GAS LISTING /tmp/cc7tQxct.s 			page 22


     /tmp/cc7tQxct.s:309    .text:00000000000001ec .L0 
     /tmp/cc7tQxct.s:311    .text:00000000000001ec .L0 
     /tmp/cc7tQxct.s:312    .text:00000000000001f0 .L0 
     /tmp/cc7tQxct.s:314    .text:00000000000001f4 .L0 
     /tmp/cc7tQxct.s:316    .text:00000000000001f8 .L0 
     /tmp/cc7tQxct.s:320    .text:00000000000001fc .L0 
     /tmp/cc7tQxct.s:322    .text:00000000000001fc .L0 
     /tmp/cc7tQxct.s:323    .text:00000000000001fc .L0 
     /tmp/cc7tQxct.s:326    .text:0000000000000200 .L0 
     /tmp/cc7tQxct.s:333    .text:0000000000000208 .L0 
     /tmp/cc7tQxct.s:337    .text:000000000000020c .L0 
     /tmp/cc7tQxct.s:339    .text:0000000000000210 .L0 
     /tmp/cc7tQxct.s:340    .text:0000000000000210 .L0 
     /tmp/cc7tQxct.s:343    .text:0000000000000218 .L0 
     /tmp/cc7tQxct.s:346    .text:0000000000000220 .L0 
     /tmp/cc7tQxct.s:353    .text:0000000000000228 .L0 
     /tmp/cc7tQxct.s:354    .text:0000000000000228 .L0 
     /tmp/cc7tQxct.s:355    .text:000000000000022c .L0 
     /tmp/cc7tQxct.s:356    .text:000000000000022c .L0 
     /tmp/cc7tQxct.s:358    .text:0000000000000230 .L0 
     /tmp/cc7tQxct.s:360    .text:0000000000000234 .L0 
     /tmp/cc7tQxct.s:371    .text:0000000000000234 _Z4workPv
     /tmp/cc7tQxct.s:374    .text:0000000000000234 .L0 
     /tmp/cc7tQxct.s:376    .text:0000000000000234 .L0 
     /tmp/cc7tQxct.s:377    .text:0000000000000238 .L0 
     /tmp/cc7tQxct.s:389    .text:0000000000000264 .L0 
     /tmp/cc7tQxct.s:390    .text:0000000000000264 .L0 
     /tmp/cc7tQxct.s:391    .text:0000000000000264 .L0 
     /tmp/cc7tQxct.s:392    .text:0000000000000264 .L0 
     /tmp/cc7tQxct.s:393    .text:0000000000000264 .L0 
     /tmp/cc7tQxct.s:394    .text:0000000000000264 .L0 
     /tmp/cc7tQxct.s:395    .text:0000000000000264 .L0 
     /tmp/cc7tQxct.s:396    .text:0000000000000264 .L0 
     /tmp/cc7tQxct.s:397    .text:0000000000000264 .L0 
     /tmp/cc7tQxct.s:398    .text:0000000000000264 .L0 
     /tmp/cc7tQxct.s:399    .text:0000000000000264 .L0 
     /tmp/cc7tQxct.s:401    .text:0000000000000268 .L0 
     /tmp/cc7tQxct.s:403    .text:0000000000000268 .L0 
     /tmp/cc7tQxct.s:404    .text:0000000000000268 .L0 
     /tmp/cc7tQxct.s:412    .text:0000000000000280 .L0 
     /tmp/cc7tQxct.s:413    .text:0000000000000280 .L0 
     /tmp/cc7tQxct.s:414    .text:0000000000000280 .L0 
     /tmp/cc7tQxct.s:416    .text:0000000000000284 .L0 
     /tmp/cc7tQxct.s:419    .text:0000000000000288 .L0 
     /tmp/cc7tQxct.s:420    .text:0000000000000288 .L0 
     /tmp/cc7tQxct.s:425    .text:0000000000000298 .L0 
     /tmp/cc7tQxct.s:436    .text:00000000000002b8 .L0 
     /tmp/cc7tQxct.s:437    .text:00000000000002b8 .L0 
     /tmp/cc7tQxct.s:439    .text:00000000000002bc .L0 
     /tmp/cc7tQxct.s:446    .text:00000000000002cc .L0 
     /tmp/cc7tQxct.s:449    .text:00000000000002d0 .L0 
     /tmp/cc7tQxct.s:455    .text:00000000000002d8 .L0 
     /tmp/cc7tQxct.s:456    .text:00000000000002d8 .L0 
     /tmp/cc7tQxct.s:459    .text:00000000000002e0 .L0 
     /tmp/cc7tQxct.s:463    .text:00000000000002ec .L0 
     /tmp/cc7tQxct.s:465    .text:00000000000002f0 .L0 
     /tmp/cc7tQxct.s:466    .text:00000000000002f0 .L0 
GAS LISTING /tmp/cc7tQxct.s 			page 23


     /tmp/cc7tQxct.s:468    .text:00000000000002f4 .L0 
     /tmp/cc7tQxct.s:469    .text:00000000000002f4 .L0 
     /tmp/cc7tQxct.s:475    .text:0000000000000304 .L0 
     /tmp/cc7tQxct.s:476    .text:0000000000000304 .L0 
     /tmp/cc7tQxct.s:479    .text:0000000000000308 .L0 
     /tmp/cc7tQxct.s:483    .text:000000000000030c .L0 
     /tmp/cc7tQxct.s:485    .text:0000000000000310 .L0 
     /tmp/cc7tQxct.s:486    .text:0000000000000310 .L0 
     /tmp/cc7tQxct.s:489    .text:0000000000000318 .L0 
     /tmp/cc7tQxct.s:491    .text:000000000000031c .L0 
     /tmp/cc7tQxct.s:492    .text:000000000000031c .L0 
     /tmp/cc7tQxct.s:494    .text:0000000000000320 .L0 
     /tmp/cc7tQxct.s:497    .text:0000000000000328 .L0 
     /tmp/cc7tQxct.s:501    .text:0000000000000334 .L0 
     /tmp/cc7tQxct.s:503    .text:0000000000000338 .L0 
     /tmp/cc7tQxct.s:504    .text:0000000000000338 .L0 
     /tmp/cc7tQxct.s:506    .text:000000000000033c .L0 
     /tmp/cc7tQxct.s:507    .text:000000000000033c .L0 
     /tmp/cc7tQxct.s:511    .text:0000000000000348 .L0 
     /tmp/cc7tQxct.s:513    .text:000000000000034c .L0 
     /tmp/cc7tQxct.s:514    .text:000000000000034c .L0 
     /tmp/cc7tQxct.s:521    .text:0000000000000360 .L0 
     /tmp/cc7tQxct.s:522    .text:0000000000000360 .L0 
     /tmp/cc7tQxct.s:526    .text:000000000000036c .L0 
     /tmp/cc7tQxct.s:527    .text:000000000000036c .L0 
     /tmp/cc7tQxct.s:532    .text:0000000000000378 .L0 
     /tmp/cc7tQxct.s:537    .text:0000000000000380 .L0 
     /tmp/cc7tQxct.s:541    .text:0000000000000388 .L0 
     /tmp/cc7tQxct.s:542    .text:0000000000000388 .L0 
     /tmp/cc7tQxct.s:547    .text:0000000000000398 .L0 
     /tmp/cc7tQxct.s:548    .text:0000000000000398 .L0 
     /tmp/cc7tQxct.s:553    .text:00000000000003a8 .L0 
     /tmp/cc7tQxct.s:557    .text:00000000000003ac .L0 
     /tmp/cc7tQxct.s:559    .text:00000000000003b0 .L0 
     /tmp/cc7tQxct.s:560    .text:00000000000003b0 .L0 
     /tmp/cc7tQxct.s:563    .text:00000000000003b8 .L0 
     /tmp/cc7tQxct.s:565    .text:00000000000003bc .L0 
     /tmp/cc7tQxct.s:567    .text:00000000000003c0 .L0 
     /tmp/cc7tQxct.s:571    .text:00000000000003c8 .L0 
     /tmp/cc7tQxct.s:574    .text:00000000000003d0 .L0 
     /tmp/cc7tQxct.s:579    .text:00000000000003d8 .L0 
     /tmp/cc7tQxct.s:580    .text:00000000000003d8 .L0 
     /tmp/cc7tQxct.s:584    .text:00000000000003e4 .L0 
     /tmp/cc7tQxct.s:585    .text:00000000000003e4 .L0 
     /tmp/cc7tQxct.s:589    .text:00000000000003f0 .L0 
     /tmp/cc7tQxct.s:590    .text:00000000000003f0 .L0 
     /tmp/cc7tQxct.s:594    .text:00000000000003fc .L0 
     /tmp/cc7tQxct.s:595    .text:0000000000000400 .L0 
     /tmp/cc7tQxct.s:597    .text:0000000000000404 .L0 
     /tmp/cc7tQxct.s:598    .text:0000000000000404 .L0 
     /tmp/cc7tQxct.s:601    .text:0000000000000408 .L0 
     /tmp/cc7tQxct.s:603    .text:000000000000040c .L0 
     /tmp/cc7tQxct.s:606    .text:0000000000000410 .L0 
     /tmp/cc7tQxct.s:609    .text:0000000000000414 .L0 
     /tmp/cc7tQxct.s:612    .text:0000000000000418 .L0 
     /tmp/cc7tQxct.s:614    .text:000000000000041c .L0 
     /tmp/cc7tQxct.s:616    .text:0000000000000420 .L0 
GAS LISTING /tmp/cc7tQxct.s 			page 24


     /tmp/cc7tQxct.s:618    .text:0000000000000424 .L0 
     /tmp/cc7tQxct.s:620    .text:0000000000000428 .L0 
     /tmp/cc7tQxct.s:622    .text:000000000000042c .L0 
     /tmp/cc7tQxct.s:625    .text:0000000000000430 .L0 
     /tmp/cc7tQxct.s:631    .text:0000000000000430 _Z4runsPFvPvEP6data_si
     /tmp/cc7tQxct.s:634    .text:0000000000000430 .L0 
     /tmp/cc7tQxct.s:636    .text:0000000000000430 .L0 
     /tmp/cc7tQxct.s:637    .text:0000000000000434 .L0 
     /tmp/cc7tQxct.s:643    .text:0000000000000448 .L0 
     /tmp/cc7tQxct.s:644    .text:0000000000000448 .L0 
     /tmp/cc7tQxct.s:645    .text:0000000000000448 .L0 
     /tmp/cc7tQxct.s:646    .text:0000000000000448 .L0 
     /tmp/cc7tQxct.s:647    .text:0000000000000448 .L0 
     /tmp/cc7tQxct.s:649    .text:000000000000044c .L0 
     /tmp/cc7tQxct.s:655    .text:0000000000000454 .L0 
     /tmp/cc7tQxct.s:656    .text:0000000000000454 .L0 
     /tmp/cc7tQxct.s:660    .text:0000000000000458 .L0 
     /tmp/cc7tQxct.s:664    .text:0000000000000460 .L0 
     /tmp/cc7tQxct.s:665    .text:0000000000000460 .L0 
     /tmp/cc7tQxct.s:666    .text:0000000000000460 .L0 
     /tmp/cc7tQxct.s:673    .text:0000000000000478 .L0 
     /tmp/cc7tQxct.s:674    .text:0000000000000478 .L0 
     /tmp/cc7tQxct.s:676    .text:000000000000047c .L0 
     /tmp/cc7tQxct.s:677    .text:000000000000047c .L0 
     /tmp/cc7tQxct.s:682    .text:0000000000000484 .L0 
     /tmp/cc7tQxct.s:689    .text:000000000000048c .L0 
     /tmp/cc7tQxct.s:690    .text:0000000000000490 .L0 
     /tmp/cc7tQxct.s:692    .text:0000000000000494 .L0 
     /tmp/cc7tQxct.s:693    .text:0000000000000494 .L0 
     /tmp/cc7tQxct.s:695    .text:0000000000000498 .L0 
     /tmp/cc7tQxct.s:698    .text:000000000000049c .L0 
     /tmp/cc7tQxct.s:701    .text:00000000000004a0 .L0 
     /tmp/cc7tQxct.s:704    .text:00000000000004a4 .L0 
     /tmp/cc7tQxct.s:706    .text:00000000000004a8 .L0 
     /tmp/cc7tQxct.s:717    .text:00000000000004a8 _Z7testOS2v
     /tmp/cc7tQxct.s:720    .text:00000000000004a8 .L0 
     /tmp/cc7tQxct.s:721    .text:00000000000004a8 .L0 
     /tmp/cc7tQxct.s:722    .text:00000000000004ac .L0 
     /tmp/cc7tQxct.s:726    .text:00000000000004b8 .L0 
     /tmp/cc7tQxct.s:727    .text:00000000000004b8 .L0 
     /tmp/cc7tQxct.s:728    .text:00000000000004b8 .L0 
     /tmp/cc7tQxct.s:730    .text:00000000000004bc .L0 
     /tmp/cc7tQxct.s:732    .text:00000000000004bc .L0 
     /tmp/cc7tQxct.s:733    .text:00000000000004bc .L0 
     /tmp/cc7tQxct.s:742    .text:00000000000004e0 .L0 
     /tmp/cc7tQxct.s:743    .text:00000000000004e0 .L0 
     /tmp/cc7tQxct.s:744    .text:00000000000004e0 .L0 
     /tmp/cc7tQxct.s:746    .text:00000000000004e4 .L0 
     /tmp/cc7tQxct.s:747    .text:00000000000004e4 .L0 
     /tmp/cc7tQxct.s:750    .text:00000000000004ec .L0 
     /tmp/cc7tQxct.s:751    .text:00000000000004ec .L0 
     /tmp/cc7tQxct.s:757    .text:0000000000000504 .L0 
     /tmp/cc7tQxct.s:758    .text:0000000000000504 .L0 
     /tmp/cc7tQxct.s:762    .text:0000000000000510 .L0 
     /tmp/cc7tQxct.s:763    .text:0000000000000514 .L0 
     /tmp/cc7tQxct.s:765    .text:0000000000000518 .L0 
     /tmp/cc7tQxct.s:766    .text:0000000000000518 .L0 
GAS LISTING /tmp/cc7tQxct.s 			page 25


     /tmp/cc7tQxct.s:768    .text:000000000000051c .L0 
     /tmp/cc7tQxct.s:771    .text:0000000000000520 .L0 
     /tmp/cc7tQxct.s:773    .text:0000000000000524 .L0 
     /tmp/cc7tQxct.s:794    .data.rel.ro.local:0000000000000000 .LANCHOR0
     /tmp/cc7tQxct.s:797    .data.rel.ro.local:0000000000000000 _ZL11CACHE_NAMES
     /tmp/cc7tQxct.s:810    .text:0000000000000524 .L0 
     /tmp/cc7tQxct.s:25     .text:0000000000000014 .L0 
     /tmp/cc7tQxct.s:74     .text:0000000000000054 .L0 
     /tmp/cc7tQxct.s:43     .rodata.str1.8:0000000000000000 .LC0
     /tmp/cc7tQxct.s:83     .text:0000000000000074 .L0 
     /tmp/cc7tQxct.s:46     .rodata.str1.8:0000000000000010 .LC1
     /tmp/cc7tQxct.s:93     .text:0000000000000094 .L0 
     /tmp/cc7tQxct.s:49     .rodata.str1.8:0000000000000020 .LC2
     /tmp/cc7tQxct.s:103    .text:00000000000000b4 .L0 
     /tmp/cc7tQxct.s:158    .text:000000000000010c .L0 
     /tmp/cc7tQxct.s:181    .text:000000000000013c .L0 
     /tmp/cc7tQxct.s:421    .text:000000000000028c .L0 
     /tmp/cc7tQxct.s:365    .rodata.str1.8:0000000000000030 .LC3
     /tmp/cc7tQxct.s:514    .text:000000000000034c .L0 
     /tmp/cc7tQxct.s:542    .text:0000000000000388 .L0 
     /tmp/cc7tQxct.s:734    .text:00000000000004c0 .L0 
     /tmp/cc7tQxct.s:711    .rodata.str1.8:0000000000000048 .LC4
     /tmp/cc7tQxct.s:736    .text:00000000000004cc .L0 
     /tmp/cc7tQxct.s:753    .text:00000000000004f4 .L0 
     /tmp/cc7tQxct.s:117    .text:00000000000000d8 .L3
     /tmp/cc7tQxct.s:191    .text:0000000000000158 .L7
     /tmp/cc7tQxct.s:171    .text:0000000000000128 .L8
     /tmp/cc7tQxct.s:257    .text:00000000000001b0 .L10
     /tmp/cc7tQxct.s:244    .text:000000000000019c .L12
     /tmp/cc7tQxct.s:335    .text:000000000000020c .L19
     /tmp/cc7tQxct.s:350    .text:0000000000000228 .L17
     /tmp/cc7tQxct.s:330    .text:0000000000000208 .L18
     /tmp/cc7tQxct.s:481    .text:000000000000030c .L26
     /tmp/cc7tQxct.s:518    .text:0000000000000360 .L23
     /tmp/cc7tQxct.s:452    .text:00000000000002d8 .L24
     /tmp/cc7tQxct.s:473    .text:0000000000000304 .L25
     /tmp/cc7tQxct.s:555    .text:00000000000003ac .L30
     /tmp/cc7tQxct.s:569    .text:00000000000003c8 .L28
     /tmp/cc7tQxct.s:576    .text:00000000000003d8 .L27
     /tmp/cc7tQxct.s:535    .text:0000000000000380 .L31
     /tmp/cc7tQxct.s:545    .text:0000000000000398 .L29
     /tmp/cc7tQxct.s:539    .text:0000000000000388 .L33
     /tmp/cc7tQxct.s:686    .text:000000000000048c .L34
     /tmp/cc7tQxct.s:658    .text:0000000000000458 .L36
     /tmp/cc7tQxct.s:778    .rodata.str1.8:0000000000000058 .LC5
     /tmp/cc7tQxct.s:781    .rodata.str1.8:0000000000000060 .LC6
     /tmp/cc7tQxct.s:784    .rodata.str1.8:0000000000000068 .LC7
     /tmp/cc7tQxct.s:787    .rodata.str1.8:0000000000000070 .LC8
     /tmp/cc7tQxct.s:790    .rodata.str1.8:0000000000000078 .LC9
     /tmp/cc7tQxct.s:2791   .debug_abbrev:0000000000000000 .Ldebug_abbrev0
     /tmp/cc7tQxct.s:4135   .debug_str:0000000000000472 .LASF224
     /tmp/cc7tQxct.s:4191   .debug_str:0000000000000723 .LASF225
     /tmp/cc7tQxct.s:4133   .debug_str:0000000000000454 .LASF226
     /tmp/cc7tQxct.s:5      .text:0000000000000000 .Ltext0
     /tmp/cc7tQxct.s:804    .text:0000000000000524 .Letext0
     /tmp/cc7tQxct.s:3995   .debug_line:0000000000000000 .Ldebug_line0
     /tmp/cc7tQxct.s:4159   .debug_str:0000000000000612 .LASF0
GAS LISTING /tmp/cc7tQxct.s 			page 26


     /tmp/cc7tQxct.s:4181   .debug_str:00000000000006d4 .LASF1
     /tmp/cc7tQxct.s:4295   .debug_str:0000000000000af7 .LASF2
     /tmp/cc7tQxct.s:4309   .debug_str:0000000000000b6b .LASF4
     /tmp/cc7tQxct.s:4167   .debug_str:000000000000064b .LASF3
     /tmp/cc7tQxct.s:4013   .debug_str:0000000000000080 .LASF5
     /tmp/cc7tQxct.s:4255   .debug_str:0000000000000980 .LASF6
     /tmp/cc7tQxct.s:4173   .debug_str:0000000000000693 .LASF7
     /tmp/cc7tQxct.s:4131   .debug_str:0000000000000444 .LASF8
     /tmp/cc7tQxct.s:4139   .debug_str:0000000000000556 .LASF9
     /tmp/cc7tQxct.s:4057   .debug_str:0000000000000255 .LASF10
     /tmp/cc7tQxct.s:4345   .debug_str:0000000000000cb7 .LASF11
     /tmp/cc7tQxct.s:4121   .debug_str:0000000000000406 .LASF12
     /tmp/cc7tQxct.s:4069   .debug_str:000000000000028f .LASF13
     /tmp/cc7tQxct.s:4055   .debug_str:0000000000000245 .LASF14
     /tmp/cc7tQxct.s:4351   .debug_str:0000000000000d08 .LASF15
     /tmp/cc7tQxct.s:4103   .debug_str:0000000000000378 .LASF16
     /tmp/cc7tQxct.s:4339   .debug_str:0000000000000c65 .LASF17
     /tmp/cc7tQxct.s:4117   .debug_str:00000000000003e8 .LASF18
     /tmp/cc7tQxct.s:4115   .debug_str:00000000000003db .LASF227
     /tmp/cc7tQxct.s:4371   .debug_str:0000000000000d6b .LASF228
     /tmp/cc7tQxct.s:4363   .debug_str:0000000000000d4a .LASF19
     /tmp/cc7tQxct.s:4327   .debug_str:0000000000000bf9 .LASF20
     /tmp/cc7tQxct.s:4063   .debug_str:0000000000000276 .LASF21
     /tmp/cc7tQxct.s:4041   .debug_str:0000000000000195 .LASF22
     /tmp/cc7tQxct.s:4259   .debug_str:000000000000099a .LASF23
     /tmp/cc7tQxct.s:4061   .debug_str:000000000000026d .LASF24
     /tmp/cc7tQxct.s:4359   .debug_str:0000000000000d37 .LASF92
     /tmp/cc7tQxct.s:4151   .debug_str:00000000000005dc .LASF25
     /tmp/cc7tQxct.s:4017   .debug_str:000000000000008c .LASF31
     /tmp/cc7tQxct.s:4391   .debug_str:0000000000000df3 .LASF229
     /tmp/cc7tQxct.s:4245   .debug_str:0000000000000930 .LASF26
     /tmp/cc7tQxct.s:4179   .debug_str:00000000000006cf .LASF27
     /tmp/cc7tQxct.s:4447   .debug_str:0000000000000f9b .LASF29
     /tmp/cc7tQxct.s:4443   .debug_str:0000000000000f7f .LASF28
     /tmp/cc7tQxct.s:4381   .debug_str:0000000000000da0 .LASF30
     /tmp/cc7tQxct.s:4085   .debug_str:000000000000032a .LASF54
     /tmp/cc7tQxct.s:4025   .debug_str:00000000000000cc .LASF56
     /tmp/cc7tQxct.s:4377   .debug_str:0000000000000d86 .LASF32
     /tmp/cc7tQxct.s:4319   .debug_str:0000000000000bb0 .LASF33
     /tmp/cc7tQxct.s:4187   .debug_str:00000000000006fe .LASF36
     /tmp/cc7tQxct.s:4197   .debug_str:0000000000000762 .LASF38
     /tmp/cc7tQxct.s:4453   .debug_str:0000000000000fe0 .LASF34
     /tmp/cc7tQxct.s:4107   .debug_str:00000000000003a1 .LASF35
     /tmp/cc7tQxct.s:4007   .debug_str:0000000000000059 .LASF80
     /tmp/cc7tQxct.s:4165   .debug_str:000000000000063e .LASF82
     /tmp/cc7tQxct.s:4321   .debug_str:0000000000000bc1 .LASF37
     /tmp/cc7tQxct.s:4225   .debug_str:000000000000084e .LASF39
     /tmp/cc7tQxct.s:4305   .debug_str:0000000000000b3c .LASF40
     /tmp/cc7tQxct.s:4343   .debug_str:0000000000000c9b .LASF41
     /tmp/cc7tQxct.s:4227   .debug_str:0000000000000861 .LASF42
     /tmp/cc7tQxct.s:4001   .debug_str:000000000000001b .LASF43
     /tmp/cc7tQxct.s:4435   .debug_str:0000000000000f4a .LASF44
     /tmp/cc7tQxct.s:4253   .debug_str:0000000000000966 .LASF45
     /tmp/cc7tQxct.s:4337   .debug_str:0000000000000c57 .LASF46
     /tmp/cc7tQxct.s:4271   .debug_str:00000000000009de .LASF47
     /tmp/cc7tQxct.s:4083   .debug_str:000000000000031a .LASF48
     /tmp/cc7tQxct.s:4123   .debug_str:0000000000000415 .LASF49
GAS LISTING /tmp/cc7tQxct.s 			page 27


     /tmp/cc7tQxct.s:4289   .debug_str:0000000000000aca .LASF50
     /tmp/cc7tQxct.s:4205   .debug_str:00000000000007b3 .LASF51
     /tmp/cc7tQxct.s:4437   .debug_str:0000000000000f59 .LASF52
     /tmp/cc7tQxct.s:4169   .debug_str:000000000000065d .LASF53
     /tmp/cc7tQxct.s:4333   .debug_str:0000000000000c3a .LASF55
     /tmp/cc7tQxct.s:4445   .debug_str:0000000000000f85 .LASF57
     /tmp/cc7tQxct.s:4361   .debug_str:0000000000000d3f .LASF58
     /tmp/cc7tQxct.s:4081   .debug_str:0000000000000304 .LASF59
     /tmp/cc7tQxct.s:4317   .debug_str:0000000000000ba8 .LASF60
     /tmp/cc7tQxct.s:4161   .debug_str:000000000000061f .LASF61
     /tmp/cc7tQxct.s:4235   .debug_str:000000000000089b .LASF62
     /tmp/cc7tQxct.s:4075   .debug_str:00000000000002dc .LASF63
     /tmp/cc7tQxct.s:4275   .debug_str:0000000000000a0d .LASF64
     /tmp/cc7tQxct.s:4461   .debug_str:0000000000001018 .LASF65
     /tmp/cc7tQxct.s:4239   .debug_str:00000000000008e0 .LASF66
     /tmp/cc7tQxct.s:4303   .debug_str:0000000000000b29 .LASF67
     /tmp/cc7tQxct.s:4323   .debug_str:0000000000000bca .LASF68
     /tmp/cc7tQxct.s:4409   .debug_str:0000000000000e89 .LASF69
     /tmp/cc7tQxct.s:4213   .debug_str:00000000000007e7 .LASF70
     /tmp/cc7tQxct.s:4393   .debug_str:0000000000000e0b .LASF71
     /tmp/cc7tQxct.s:4341   .debug_str:0000000000000c7b .LASF72
     /tmp/cc7tQxct.s:4249   .debug_str:000000000000093f .LASF73
     /tmp/cc7tQxct.s:4241   .debug_str:0000000000000901 .LASF74
     /tmp/cc7tQxct.s:4095   .debug_str:000000000000034c .LASF75
     /tmp/cc7tQxct.s:4163   .debug_str:0000000000000633 .LASF76
     /tmp/cc7tQxct.s:4217   .debug_str:0000000000000824 .LASF77
     /tmp/cc7tQxct.s:4383   .debug_str:0000000000000db0 .LASF78
     /tmp/cc7tQxct.s:4127   .debug_str:000000000000042b .LASF79
     /tmp/cc7tQxct.s:4441   .debug_str:0000000000000f71 .LASF81
     /tmp/cc7tQxct.s:4035   .debug_str:000000000000014c .LASF83
     /tmp/cc7tQxct.s:4111   .debug_str:00000000000003b7 .LASF84
     /tmp/cc7tQxct.s:4051   .debug_str:0000000000000205 .LASF85
     /tmp/cc7tQxct.s:4433   .debug_str:0000000000000f43 .LASF86
     /tmp/cc7tQxct.s:4049   .debug_str:00000000000001f4 .LASF87
     /tmp/cc7tQxct.s:4005   .debug_str:0000000000000054 .LASF88
     /tmp/cc7tQxct.s:4403   .debug_str:0000000000000e6c .LASF89
     /tmp/cc7tQxct.s:4203   .debug_str:00000000000007ab .LASF90
     /tmp/cc7tQxct.s:4093   .debug_str:0000000000000346 .LASF91
     /tmp/cc7tQxct.s:4389   .debug_str:0000000000000deb .LASF93
     /tmp/cc7tQxct.s:4039   .debug_str:0000000000000184 .LASF94
     /tmp/cc7tQxct.s:4209   .debug_str:00000000000007ce .LASF95
     /tmp/cc7tQxct.s:4279   .debug_str:0000000000000a3e .LASF96
     /tmp/cc7tQxct.s:4137   .debug_str:0000000000000542 .LASF97
     /tmp/cc7tQxct.s:4299   .debug_str:0000000000000b11 .LASF98
     /tmp/cc7tQxct.s:4277   .debug_str:0000000000000a2a .LASF99
     /tmp/cc7tQxct.s:4087   .debug_str:0000000000000333 .LASF100
     /tmp/cc7tQxct.s:4331   .debug_str:0000000000000c23 .LASF101
     /tmp/cc7tQxct.s:4355   .debug_str:0000000000000d27 .LASF102
     /tmp/cc7tQxct.s:4231   .debug_str:0000000000000879 .LASF103
     /tmp/cc7tQxct.s:3999   .debug_str:000000000000000f .LASF104
     /tmp/cc7tQxct.s:4301   .debug_str:0000000000000b1d .LASF105
     /tmp/cc7tQxct.s:4211   .debug_str:00000000000007d3 .LASF106
     /tmp/cc7tQxct.s:4291   .debug_str:0000000000000ad7 .LASF107
     /tmp/cc7tQxct.s:4059   .debug_str:0000000000000264 .LASF108
     /tmp/cc7tQxct.s:4065   .debug_str:0000000000000280 .LASF109
     /tmp/cc7tQxct.s:4229   .debug_str:0000000000000870 .LASF110
     /tmp/cc7tQxct.s:4367   .debug_str:0000000000000d55 .LASF111
GAS LISTING /tmp/cc7tQxct.s 			page 28


     /tmp/cc7tQxct.s:3997   .debug_str:0000000000000000 .LASF112
     /tmp/cc7tQxct.s:4143   .debug_str:0000000000000575 .LASF113
     /tmp/cc7tQxct.s:4387   .debug_str:0000000000000ddc .LASF114
     /tmp/cc7tQxct.s:4347   .debug_str:0000000000000cca .LASF115
     /tmp/cc7tQxct.s:4325   .debug_str:0000000000000be8 .LASF116
     /tmp/cc7tQxct.s:4073   .debug_str:00000000000002b8 .LASF117
     /tmp/cc7tQxct.s:4243   .debug_str:0000000000000920 .LASF118
     /tmp/cc7tQxct.s:4273   .debug_str:00000000000009ea .LASF119
     /tmp/cc7tQxct.s:4157   .debug_str:000000000000060c .LASF120
     /tmp/cc7tQxct.s:4457   .debug_str:0000000000000ff3 .LASF121
     /tmp/cc7tQxct.s:4009   .debug_str:0000000000000069 .LASF122
     /tmp/cc7tQxct.s:4201   .debug_str:0000000000000791 .LASF123
     /tmp/cc7tQxct.s:4451   .debug_str:0000000000000fd0 .LASF124
     /tmp/cc7tQxct.s:4311   .debug_str:0000000000000b72 .LASF125
     /tmp/cc7tQxct.s:4353   .debug_str:0000000000000d14 .LASF126
     /tmp/cc7tQxct.s:4307   .debug_str:0000000000000b45 .LASF127
     /tmp/cc7tQxct.s:4459   .debug_str:000000000000100b .LASF128
     /tmp/cc7tQxct.s:4177   .debug_str:00000000000006ab .LASF129
     /tmp/cc7tQxct.s:4233   .debug_str:0000000000000892 .LASF130
     /tmp/cc7tQxct.s:4037   .debug_str:0000000000000174 .LASF131
     /tmp/cc7tQxct.s:4385   .debug_str:0000000000000dba .LASF132
     /tmp/cc7tQxct.s:4313   .debug_str:0000000000000b95 .LASF133
     /tmp/cc7tQxct.s:4003   .debug_str:0000000000000035 .LASF134
     /tmp/cc7tQxct.s:4031   .debug_str:0000000000000116 .LASF135
     /tmp/cc7tQxct.s:4283   .debug_str:0000000000000a6e .LASF136
     /tmp/cc7tQxct.s:4251   .debug_str:0000000000000953 .LASF137
     /tmp/cc7tQxct.s:4149   .debug_str:00000000000005c8 .LASF138
     /tmp/cc7tQxct.s:4247   .debug_str:0000000000000935 .LASF139
     /tmp/cc7tQxct.s:4183   .debug_str:00000000000006e7 .LASF140
     /tmp/cc7tQxct.s:4269   .debug_str:00000000000009d4 .LASF141
     /tmp/cc7tQxct.s:4411   .debug_str:0000000000000e9c .LASF142
     /tmp/cc7tQxct.s:4357   .debug_str:0000000000000d2e .LASF143
     /tmp/cc7tQxct.s:4369   .debug_str:0000000000000d60 .LASF144
     /tmp/cc7tQxct.s:4405   .debug_str:0000000000000e71 .LASF145
     /tmp/cc7tQxct.s:4419   .debug_str:0000000000000ec5 .LASF146
     /tmp/cc7tQxct.s:4219   .debug_str:000000000000082c .LASF147
     /tmp/cc7tQxct.s:4267   .debug_str:00000000000009c8 .LASF148
     /tmp/cc7tQxct.s:4335   .debug_str:0000000000000c45 .LASF151
     /tmp/cc7tQxct.s:4329   .debug_str:0000000000000c01 .LASF153
     /tmp/cc7tQxct.s:4399   .debug_str:0000000000000e47 .LASF149
     /tmp/cc7tQxct.s:4431   .debug_str:0000000000000f21 .LASF150
     /tmp/cc7tQxct.s:4397   .debug_str:0000000000000e35 .LASF152
     /tmp/cc7tQxct.s:4019   .debug_str:0000000000000097 .LASF154
     /tmp/cc7tQxct.s:4401   .debug_str:0000000000000e59 .LASF155
     /tmp/cc7tQxct.s:4047   .debug_str:00000000000001d1 .LASF156
     /tmp/cc7tQxct.s:4101   .debug_str:0000000000000365 .LASF157
     /tmp/cc7tQxct.s:4043   .debug_str:000000000000019e .LASF158
     /tmp/cc7tQxct.s:4027   .debug_str:00000000000000df .LASF159
     /tmp/cc7tQxct.s:4417   .debug_str:0000000000000eb6 .LASF160
     /tmp/cc7tQxct.s:4215   .debug_str:0000000000000805 .LASF161
     /tmp/cc7tQxct.s:4429   .debug_str:0000000000000f08 .LASF162
     /tmp/cc7tQxct.s:4171   .debug_str:000000000000066a .LASF163
     /tmp/cc7tQxct.s:4189   .debug_str:000000000000070b .LASF164
     /tmp/cc7tQxct.s:4449   .debug_str:0000000000000fa7 .LASF165
     /tmp/cc7tQxct.s:4119   .debug_str:00000000000003f5 .LASF166
     /tmp/cc7tQxct.s:4423   .debug_str:0000000000000ede .LASF167
     /tmp/cc7tQxct.s:4129   .debug_str:0000000000000437 .LASF168
GAS LISTING /tmp/cc7tQxct.s 			page 29


     /tmp/cc7tQxct.s:4439   .debug_str:0000000000000f64 .LASF169
     /tmp/cc7tQxct.s:4141   .debug_str:0000000000000564 .LASF170
     /tmp/cc7tQxct.s:4023   .debug_str:00000000000000c0 .LASF171
     /tmp/cc7tQxct.s:4193   .debug_str:000000000000073c .LASF172
     /tmp/cc7tQxct.s:4207   .debug_str:00000000000007c2 .LASF173
     /tmp/cc7tQxct.s:4029   .debug_str:00000000000000fa .LASF174
     /tmp/cc7tQxct.s:4365   .debug_str:0000000000000d50 .LASF175
     /tmp/cc7tQxct.s:4021   .debug_str:00000000000000b9 .LASF176
     /tmp/cc7tQxct.s:4257   .debug_str:0000000000000993 .LASF177
     /tmp/cc7tQxct.s:4293   .debug_str:0000000000000aec .LASF178
     /tmp/cc7tQxct.s:4263   .debug_str:00000000000009af .LASF179
     /tmp/cc7tQxct.s:4097   .debug_str:0000000000000355 .LASF180
     /tmp/cc7tQxct.s:4455   .debug_str:0000000000000fed .LASF181
     /tmp/cc7tQxct.s:4175   .debug_str:00000000000006a6 .LASF182
     /tmp/cc7tQxct.s:4415   .debug_str:0000000000000eae .LASF183
     /tmp/cc7tQxct.s:4421   .debug_str:0000000000000ed2 .LASF185
     /tmp/cc7tQxct.s:718    .text:00000000000004a8 .LFB13
     /tmp/cc7tQxct.s:774    .text:0000000000000524 .LFE13
     /tmp/cc7tQxct.s:3655   .debug_loc:0000000000000000 .LLST20
     /tmp/cc7tQxct.s:738    .text:00000000000004dc .LVL77
     /tmp/cc7tQxct.s:755    .text:0000000000000504 .LVL79
     /tmp/cc7tQxct.s:760    .text:0000000000000510 .LVL80
     /tmp/cc7tQxct.s:4375   .debug_str:0000000000000d81 .LASF184
     /tmp/cc7tQxct.s:4145   .debug_str:0000000000000597 .LASF186
     /tmp/cc7tQxct.s:632    .text:0000000000000430 .LFB12
     /tmp/cc7tQxct.s:707    .text:00000000000004a8 .LFE12
     /tmp/cc7tQxct.s:4015   .debug_str:0000000000000087 .LASF187
     /tmp/cc7tQxct.s:3662   .debug_loc:0000000000000023 .LLST16
     /tmp/cc7tQxct.s:3680   .debug_loc:000000000000006f .LLST17
     /tmp/cc7tQxct.s:3698   .debug_loc:00000000000000bb .LLST18
     /tmp/cc7tQxct.s:654    .text:0000000000000454 .LBB10
     /tmp/cc7tQxct.s:687    .text:000000000000048c .LBE10
     /tmp/cc7tQxct.s:3712   .debug_loc:00000000000000f4 .LLST19
     /tmp/cc7tQxct.s:662    .text:0000000000000460 .LBB11
     /tmp/cc7tQxct.s:680    .text:0000000000000484 .LBE11
     /tmp/cc7tQxct.s:4265   .debug_str:00000000000009bb .LASF188
     /tmp/cc7tQxct.s:679    .text:0000000000000484 .LVL71
     /tmp/cc7tQxct.s:4221   .debug_str:0000000000000838 .LASF189
     /tmp/cc7tQxct.s:372    .text:0000000000000234 .LFB11
     /tmp/cc7tQxct.s:626    .text:0000000000000430 .LFE11
     /tmp/cc7tQxct.s:4315   .debug_str:0000000000000ba2 .LASF190
     /tmp/cc7tQxct.s:3728   .debug_loc:000000000000013e .LLST10
     /tmp/cc7tQxct.s:4079   .debug_str:00000000000002ff .LASF191
     /tmp/cc7tQxct.s:3742   .debug_loc:0000000000000177 .LLST11
     /tmp/cc7tQxct.s:4407   .debug_str:0000000000000e7d .LASF192
     /tmp/cc7tQxct.s:3758   .debug_loc:00000000000001c1 .LLST12
     /tmp/cc7tQxct.s:3807   .debug_loc:000000000000024c .LLST13
     /tmp/cc7tQxct.s:4067   .debug_str:000000000000028a .LASF230
     /tmp/cc7tQxct.s:3975   .debug_ranges:0000000000000000 .Ldebug_ranges0
     /tmp/cc7tQxct.s:3818   .debug_loc:0000000000000282 .LLST14
     /tmp/cc7tQxct.s:461    .text:00000000000002ec .LVL46
     /tmp/cc7tQxct.s:472    .text:0000000000000304 .LVL47
     /tmp/cc7tQxct.s:499    .text:0000000000000334 .LVL50
     /tmp/cc7tQxct.s:509    .text:0000000000000348 .LVL51
     /tmp/cc7tQxct.s:516    .text:000000000000035c .LVL52
     /tmp/cc7tQxct.s:530    .text:0000000000000378 .LBB9
     /tmp/cc7tQxct.s:577    .text:00000000000003d8 .LBE9
GAS LISTING /tmp/cc7tQxct.s 			page 30


     /tmp/cc7tQxct.s:3825   .debug_loc:00000000000002a5 .LLST15
     /tmp/cc7tQxct.s:544    .text:0000000000000398 .LVL56
     /tmp/cc7tQxct.s:551    .text:00000000000003a8 .LVL57
     /tmp/cc7tQxct.s:572    .text:00000000000003d0 .LVL59
     /tmp/cc7tQxct.s:432    .text:00000000000002b4 .LVL41
     /tmp/cc7tQxct.s:442    .text:00000000000002c8 .LVL44
     /tmp/cc7tQxct.s:524    .text:000000000000036c .LVL53
     /tmp/cc7tQxct.s:529    .text:0000000000000378 .LVL54
     /tmp/cc7tQxct.s:582    .text:00000000000003e4 .LVL60
     /tmp/cc7tQxct.s:587    .text:00000000000003f0 .LVL61
     /tmp/cc7tQxct.s:592    .text:00000000000003fc .LVL62
     /tmp/cc7tQxct.s:4099   .debug_str:000000000000035f .LASF231
     /tmp/cc7tQxct.s:4223   .debug_str:0000000000000842 .LASF232
     /tmp/cc7tQxct.s:307    .text:00000000000001ec .LFB10
     /tmp/cc7tQxct.s:361    .text:0000000000000234 .LFE10
     /tmp/cc7tQxct.s:3832   .debug_loc:00000000000002c8 .LLST7
     /tmp/cc7tQxct.s:3843   .debug_loc:00000000000002fe .LLST8
     /tmp/cc7tQxct.s:3859   .debug_loc:0000000000000348 .LLST9
     /tmp/cc7tQxct.s:4109   .debug_str:00000000000003ad .LASF193
     /tmp/cc7tQxct.s:4011   .debug_str:0000000000000071 .LASF194
     /tmp/cc7tQxct.s:273    .text:00000000000001bc .LFB9
     /tmp/cc7tQxct.s:301    .text:00000000000001ec .LFE9
     /tmp/cc7tQxct.s:3871   .debug_loc:000000000000037f .LLST6
     /tmp/cc7tQxct.s:290    .text:00000000000001dc .LVL28
     /tmp/cc7tQxct.s:4413   .debug_str:0000000000000ea7 .LASF195
     /tmp/cc7tQxct.s:4113   .debug_str:00000000000003cc .LASF196
     /tmp/cc7tQxct.s:228    .text:000000000000018c .LFB8
     /tmp/cc7tQxct.s:267    .text:00000000000001bc .LFE8
     /tmp/cc7tQxct.s:4153   .debug_str:00000000000005e2 .LASF197
     /tmp/cc7tQxct.s:240    .text:0000000000000198 .LBB4
     /tmp/cc7tQxct.s:258    .text:00000000000001b0 .LBE4
     /tmp/cc7tQxct.s:3885   .debug_loc:00000000000003b8 .LLST5
     /tmp/cc7tQxct.s:4395   .debug_str:0000000000000e20 .LASF198
     /tmp/cc7tQxct.s:4147   .debug_str:00000000000005ae .LASF199
     /tmp/cc7tQxct.s:140    .text:00000000000000f0 .LFB7
     /tmp/cc7tQxct.s:222    .text:000000000000018c .LFE7
     /tmp/cc7tQxct.s:3901   .debug_loc:0000000000000402 .LLST3
     /tmp/cc7tQxct.s:3921   .debug_loc:000000000000045f .LLST4
     /tmp/cc7tQxct.s:183    .text:000000000000014c .LVL13
     /tmp/cc7tQxct.s:161    .text:0000000000000120 .LVL11
     /tmp/cc7tQxct.s:196    .text:0000000000000160 .LVL17
     /tmp/cc7tQxct.s:201    .text:000000000000016c .LVL18
     /tmp/cc7tQxct.s:205    .text:0000000000000174 .LVL19
     /tmp/cc7tQxct.s:4053   .debug_str:0000000000000231 .LASF200
     /tmp/cc7tQxct.s:4071   .debug_str:000000000000029f .LASF201
     /tmp/cc7tQxct.s:56     .text:0000000000000038 .LFB6
     /tmp/cc7tQxct.s:134    .text:00000000000000f0 .LFE6
     /tmp/cc7tQxct.s:3937   .debug_loc:00000000000004a9 .LLST0
     /tmp/cc7tQxct.s:4089   .debug_str:0000000000000338 .LASF202
     /tmp/cc7tQxct.s:3944   .debug_loc:00000000000004cc .LLST1
     /tmp/cc7tQxct.s:4091   .debug_str:000000000000033f .LASF203
     /tmp/cc7tQxct.s:3955   .debug_loc:0000000000000502 .LLST2
     /tmp/cc7tQxct.s:77     .text:0000000000000068 .LVL1
     /tmp/cc7tQxct.s:85     .text:0000000000000084 .LVL2
     /tmp/cc7tQxct.s:95     .text:00000000000000a4 .LVL4
     /tmp/cc7tQxct.s:106    .text:00000000000000c4 .LVL7
     /tmp/cc7tQxct.s:116    .text:00000000000000d8 .LVL8
GAS LISTING /tmp/cc7tQxct.s 			page 31


     /tmp/cc7tQxct.s:4261   .debug_str:00000000000009a2 .LASF204
     /tmp/cc7tQxct.s:4379   .debug_str:0000000000000d8e .LASF205
     /tmp/cc7tQxct.s:10     .text:0000000000000000 .LFB5
     /tmp/cc7tQxct.s:39     .text:0000000000000038 .LFE5
     /tmp/cc7tQxct.s:28     .text:0000000000000028 .LVL0
     /tmp/cc7tQxct.s:4033   .debug_str:0000000000000129 .LASF206
     /tmp/cc7tQxct.s:4287   .debug_str:0000000000000ab8 .LASF208
     /tmp/cc7tQxct.s:4237   .debug_str:00000000000008ba .LASF207
     /tmp/cc7tQxct.s:4105   .debug_str:000000000000038e .LASF209
     /tmp/cc7tQxct.s:4155   .debug_str:00000000000005e8 .LASF210
     /tmp/cc7tQxct.s:4077   .debug_str:00000000000002ee .LASF211
     /tmp/cc7tQxct.s:4281   .debug_str:0000000000000a49 .LASF212
     /tmp/cc7tQxct.s:4045   .debug_str:00000000000001c1 .LASF213
     /tmp/cc7tQxct.s:4297   .debug_str:0000000000000b05 .LASF214
     /tmp/cc7tQxct.s:4425   .debug_str:0000000000000ef0 .LASF215
     /tmp/cc7tQxct.s:4285   .debug_str:0000000000000a95 .LASF216
     /tmp/cc7tQxct.s:4373   .debug_str:0000000000000d71 .LASF217
     /tmp/cc7tQxct.s:4185   .debug_str:00000000000006f2 .LASF218
     /tmp/cc7tQxct.s:4125   .debug_str:0000000000000425 .LASF219
     /tmp/cc7tQxct.s:4427   .debug_str:0000000000000ef8 .LASF220
     /tmp/cc7tQxct.s:4195   .debug_str:0000000000000758 .LASF221
     /tmp/cc7tQxct.s:4349   .debug_str:0000000000000cec .LASF222
     /tmp/cc7tQxct.s:4199   .debug_str:000000000000077a .LASF223
     /tmp/cc7tQxct.s:740    .text:00000000000004e0 .LVL78
     /tmp/cc7tQxct.s:769    .text:000000000000051c .LVL81
     /tmp/cc7tQxct.s:635    .text:0000000000000430 .LVL68
     /tmp/cc7tQxct.s:657    .text:0000000000000458 .LVL70
     /tmp/cc7tQxct.s:702    .text:00000000000004a0 .LVL76
     /tmp/cc7tQxct.s:699    .text:000000000000049c .LVL75
     /tmp/cc7tQxct.s:653    .text:0000000000000454 .LVL69
     /tmp/cc7tQxct.s:683    .text:0000000000000488 .LVL72
     /tmp/cc7tQxct.s:685    .text:000000000000048c .LVL73
     /tmp/cc7tQxct.s:696    .text:0000000000000498 .LVL74
     /tmp/cc7tQxct.s:375    .text:0000000000000234 .LVL36
     /tmp/cc7tQxct.s:430    .text:00000000000002ac .LVL40
     /tmp/cc7tQxct.s:411    .text:0000000000000280 .LVL37
     /tmp/cc7tQxct.s:451    .text:00000000000002d8 .LVL45
     /tmp/cc7tQxct.s:477    .text:0000000000000308 .LVL48
     /tmp/cc7tQxct.s:480    .text:000000000000030c .LVL49
     /tmp/cc7tQxct.s:607    .text:0000000000000410 .LVL65
     /tmp/cc7tQxct.s:417    .text:0000000000000288 .LVL38
     /tmp/cc7tQxct.s:422    .text:0000000000000294 .LVL39
     /tmp/cc7tQxct.s:599    .text:0000000000000404 .LVL63
     /tmp/cc7tQxct.s:623    .text:000000000000042c .LVL67
     /tmp/cc7tQxct.s:434    .text:00000000000002b8 .LVL42
     /tmp/cc7tQxct.s:440    .text:00000000000002c0 .LVL43
     /tmp/cc7tQxct.s:610    .text:0000000000000414 .LVL66
     /tmp/cc7tQxct.s:534    .text:0000000000000380 .LVL55
     /tmp/cc7tQxct.s:604    .text:000000000000040c .LVL64
     /tmp/cc7tQxct.s:310    .text:00000000000001ec .LVL29
     /tmp/cc7tQxct.s:327    .text:0000000000000204 .LVL31
     /tmp/cc7tQxct.s:319    .text:00000000000001fc .LVL30
     /tmp/cc7tQxct.s:329    .text:0000000000000208 .LVL32
     /tmp/cc7tQxct.s:347    .text:0000000000000224 .LVL34
     /tmp/cc7tQxct.s:349    .text:0000000000000228 .LVL35
     /tmp/cc7tQxct.s:276    .text:00000000000001bc .LVL27
     /tmp/cc7tQxct.s:239    .text:0000000000000198 .LVL23
GAS LISTING /tmp/cc7tQxct.s 			page 32


     /tmp/cc7tQxct.s:243    .text:000000000000019c .LVL24
     /tmp/cc7tQxct.s:254    .text:00000000000001ac .LVL25
     /tmp/cc7tQxct.s:256    .text:00000000000001b0 .LVL26
     /tmp/cc7tQxct.s:170    .text:0000000000000128 .LVL12
     /tmp/cc7tQxct.s:185    .text:0000000000000150 .LVL14
     /tmp/cc7tQxct.s:190    .text:0000000000000158 .LVL16
     /tmp/cc7tQxct.s:217    .text:0000000000000184 .LVL21
     /tmp/cc7tQxct.s:188    .text:0000000000000154 .LVL15
     /tmp/cc7tQxct.s:214    .text:0000000000000180 .LVL20
     /tmp/cc7tQxct.s:87     .text:0000000000000088 .LVL3
     /tmp/cc7tQxct.s:126    .text:00000000000000e4 .LVL9
     /tmp/cc7tQxct.s:97     .text:00000000000000a8 .LVL5
     /tmp/cc7tQxct.s:104    .text:00000000000000bc .LVL6
     /tmp/cc7tQxct.s:129    .text:00000000000000e8 .LVL10
     /tmp/cc7tQxct.s:811    .debug_info:0000000000000000 .Ldebug_info0
     /tmp/cc7tQxct.s:164    .text:0000000000000120 .LBB2
     /tmp/cc7tQxct.s:167    .text:0000000000000124 .LBE2
     /tmp/cc7tQxct.s:172    .text:0000000000000128 .LBB3
     /tmp/cc7tQxct.s:192    .text:0000000000000158 .LBE3
     /tmp/cc7tQxct.s:321    .text:00000000000001fc .LBB5
     /tmp/cc7tQxct.s:324    .text:0000000000000200 .LBE5
     /tmp/cc7tQxct.s:331    .text:0000000000000208 .LBB6
     /tmp/cc7tQxct.s:351    .text:0000000000000228 .LBE6
     /tmp/cc7tQxct.s:444    .text:00000000000002cc .LBB7
     /tmp/cc7tQxct.s:447    .text:00000000000002d0 .LBE7
     /tmp/cc7tQxct.s:453    .text:00000000000002d8 .LBB8
     /tmp/cc7tQxct.s:519    .text:0000000000000360 .LBE8

UNDEFINED SYMBOLS
HEAP_START_ADDR
_Z9kmem_initPvi
_Z17kmem_cache_createPKcmPFvPvES3_
_Z22printSlabAllocatorInfov
_Z18kmem_cache_destroyP12kmem_cache_s
_Z7kmallocm
_Z16kmem_cache_allocP12kmem_cache_s
_ZN8KConsole15trapPrintStringEPKc
_Z15kmem_cache_infoP12kmem_cache_s
_Z15kmem_cache_freeP12kmem_cache_sPv
_Z5kfreePKv
