GAS LISTING /tmp/ccaspmL3.s 			page 1


   1              		.file	"slabTests.cpp"
   2              		.option pic
   3              		.option norelax
   4              		.text
   5              	.Ltext0:
   6              		.align	2
   7              		.globl	_Z12slabInitTestv
   9              	_Z12slabInitTestv:
  10              	.LFB5:
  11              		.file 1 "src/kernel/slabTests.cpp"
   1:src/kernel/slabTests.cpp **** #include "../../h/slabTests.hpp"
   2:src/kernel/slabTests.cpp **** #include "../../h/KConsole.hpp"
   3:src/kernel/slabTests.cpp **** 
   4:src/kernel/slabTests.cpp **** void slabInitTest()
   5:src/kernel/slabTests.cpp **** {
  12              		.loc 1 5 1
  13              		.cfi_startproc
  14 0000 130101FF 		addi	sp,sp,-16
  15              		.cfi_def_cfa_offset 16
  16 0004 23341100 		sd	ra,8(sp)
  17 0008 23308100 		sd	s0,0(sp)
  18              		.cfi_offset 1, -8
  19              		.cfi_offset 8, -16
  20 000c 13040101 		addi	s0,sp,16
  21              		.cfi_def_cfa 8, 0
   6:src/kernel/slabTests.cpp ****     kmem_init((void*)HEAP_START_ADDR, 15);
  22              		.loc 1 6 5
  23              		.loc 1 6 14 is_stmt 0
  24 0010 9305F000 		li	a1,15
  25 0014 97070000 		la	a5,HEAP_START_ADDR
  25      83B70700 
  26 001c 03B50700 		ld	a0,0(a5)
  27 0020 97000000 		call	_Z9kmem_initPvi@plt
  27      E7800000 
  28              	.LVL0:
   7:src/kernel/slabTests.cpp **** }
  29              		.loc 1 7 1
  30 0028 83308100 		ld	ra,8(sp)
  31              		.cfi_restore 1
  32 002c 03340100 		ld	s0,0(sp)
  33              		.cfi_restore 8
  34              		.cfi_def_cfa 2, 16
  35 0030 13010101 		addi	sp,sp,16
  36              		.cfi_def_cfa_offset 0
  37 0034 67800000 		jr	ra
  38              		.cfi_endproc
  39              	.LFE5:
  41              		.section	.rodata.str1.8,"aMS",@progbits,1
  42              		.align	3
  43              	.LC0:
  44 0000 43616368 		.string	"Cache test"
  44      65207465 
  44      737400
  45 000b 00000000 		.align	3
  45      00
  46              	.LC1:
  47 0010 43616368 		.string	"Cache test 2"
GAS LISTING /tmp/ccaspmL3.s 			page 2


  47      65207465 
  47      73742032 
  47      00
  48 001d 000000   		.align	3
  49              	.LC2:
  50 0020 43616368 		.string	"Cache test 3"
  50      65207465 
  50      73742033 
  50      00
  51              		.text
  52              		.align	2
  53              		.globl	_Z19slabCacheCreateTestv
  55              	_Z19slabCacheCreateTestv:
  56              	.LFB6:
   8:src/kernel/slabTests.cpp **** 
   9:src/kernel/slabTests.cpp **** void slabCacheCreateTest()
  10:src/kernel/slabTests.cpp **** {
  57              		.loc 1 10 1 is_stmt 1
  58              		.cfi_startproc
  59 0038 130101FE 		addi	sp,sp,-32
  60              		.cfi_def_cfa_offset 32
  61 003c 233C1100 		sd	ra,24(sp)
  62 0040 23388100 		sd	s0,16(sp)
  63 0044 23349100 		sd	s1,8(sp)
  64 0048 23302101 		sd	s2,0(sp)
  65              		.cfi_offset 1, -8
  66              		.cfi_offset 8, -16
  67              		.cfi_offset 9, -24
  68              		.cfi_offset 18, -32
  69 004c 13040102 		addi	s0,sp,32
  70              		.cfi_def_cfa 8, 0
  11:src/kernel/slabTests.cpp ****     kmem_init((void*)HEAP_START_ADDR, 15);
  71              		.loc 1 11 5
  72              		.loc 1 11 14 is_stmt 0
  73 0050 9305F000 		li	a1,15
  74 0054 97070000 		la	a5,HEAP_START_ADDR
  74      83B70700 
  75 005c 03B50700 		ld	a0,0(a5)
  76 0060 97000000 		call	_Z9kmem_initPvi@plt
  76      E7800000 
  77              	.LVL1:
  12:src/kernel/slabTests.cpp ****     kmem_cache_t* cache = kmem_cache_create("Cache test", 10, nullptr,nullptr);
  78              		.loc 1 12 5 is_stmt 1
  79              		.loc 1 12 44 is_stmt 0
  80 0068 93060000 		li	a3,0
  81 006c 13060000 		li	a2,0
  82 0070 9305A000 		li	a1,10
  83 0074 17050000 		lla	a0,.LC0
  83      13050500 
  84 007c 97000000 		call	_Z17kmem_cache_createPKcmPFvPvES3_@plt
  84      E7800000 
  85              	.LVL2:
  86 0084 93040500 		mv	s1,a0
  87              	.LVL3:
  13:src/kernel/slabTests.cpp ****     kmem_cache_t* cache2 = kmem_cache_create("Cache test 2", 10, nullptr,nullptr);
  88              		.loc 1 13 5 is_stmt 1
  89              		.loc 1 13 45 is_stmt 0
GAS LISTING /tmp/ccaspmL3.s 			page 3


  90 0088 93060000 		li	a3,0
  91 008c 13060000 		li	a2,0
  92 0090 9305A000 		li	a1,10
  93 0094 17050000 		lla	a0,.LC1
  93      13050500 
  94 009c 97000000 		call	_Z17kmem_cache_createPKcmPFvPvES3_@plt
  94      E7800000 
  95              	.LVL4:
  96 00a4 13090500 		mv	s2,a0
  97              	.LVL5:
  14:src/kernel/slabTests.cpp ****     kmem_cache_t* cache3 = kmem_cache_create("Cache test 3", 10, nullptr,nullptr);
  98              		.loc 1 14 5 is_stmt 1
  99              		.loc 1 14 45 is_stmt 0
 100 00a8 93060000 		li	a3,0
 101 00ac 13060000 		li	a2,0
 102 00b0 9305A000 		li	a1,10
 103 00b4 17050000 		lla	a0,.LC2
 103      13050500 
 104              	.LVL6:
 105 00bc 97000000 		call	_Z17kmem_cache_createPKcmPFvPvES3_@plt
 105      E7800000 
 106              	.LVL7:
  15:src/kernel/slabTests.cpp ****     if(cache && cache2 && cache3)
 107              		.loc 1 15 5 is_stmt 1
 108 00c4 638A0400 		beqz	s1,.L3
 109              		.loc 1 15 14 is_stmt 0 discriminator 1
 110 00c8 63080900 		beqz	s2,.L3
 111              		.loc 1 15 24 discriminator 2
 112 00cc 63060500 		beqz	a0,.L3
  16:src/kernel/slabTests.cpp ****         printSlabAllocatorInfo();
 113              		.loc 1 16 9 is_stmt 1
 114              		.loc 1 16 31 is_stmt 0
 115 00d0 97000000 		call	_Z22printSlabAllocatorInfov@plt
 115      E7800000 
 116              	.LVL8:
 117              	.L3:
  17:src/kernel/slabTests.cpp **** }
 118              		.loc 1 17 1
 119 00d8 83308101 		ld	ra,24(sp)
 120              		.cfi_restore 1
 121 00dc 03340101 		ld	s0,16(sp)
 122              		.cfi_restore 8
 123              		.cfi_def_cfa 2, 32
 124 00e0 83348100 		ld	s1,8(sp)
 125              		.cfi_restore 9
 126              	.LVL9:
 127 00e4 03390100 		ld	s2,0(sp)
 128              		.cfi_restore 18
 129              	.LVL10:
 130 00e8 13010102 		addi	sp,sp,32
 131              		.cfi_def_cfa_offset 0
 132 00ec 67800000 		jr	ra
 133              		.cfi_endproc
 134              	.LFE6:
 136              		.align	2
 137              		.globl	_Z20slabCacheCreateTest2v
 139              	_Z20slabCacheCreateTest2v:
GAS LISTING /tmp/ccaspmL3.s 			page 4


 140              	.LFB7:
  18:src/kernel/slabTests.cpp **** 
  19:src/kernel/slabTests.cpp **** void slabCacheCreateTest2()
  20:src/kernel/slabTests.cpp **** {
 141              		.loc 1 20 1 is_stmt 1
 142              		.cfi_startproc
 143 00f0 130101FE 		addi	sp,sp,-32
 144              		.cfi_def_cfa_offset 32
 145 00f4 233C1100 		sd	ra,24(sp)
 146 00f8 23388100 		sd	s0,16(sp)
 147 00fc 23349100 		sd	s1,8(sp)
 148 0100 23302101 		sd	s2,0(sp)
 149              		.cfi_offset 1, -8
 150              		.cfi_offset 8, -16
 151              		.cfi_offset 9, -24
 152              		.cfi_offset 18, -32
 153 0104 13040102 		addi	s0,sp,32
 154              		.cfi_def_cfa 8, 0
  21:src/kernel/slabTests.cpp ****     kmem_init((void*)HEAP_START_ADDR, 15);
 155              		.loc 1 21 5
 156              		.loc 1 21 14 is_stmt 0
 157 0108 9305F000 		li	a1,15
 158 010c 97070000 		la	a5,HEAP_START_ADDR
 158      83B70700 
 159 0114 03B50700 		ld	a0,0(a5)
 160 0118 97000000 		call	_Z9kmem_initPvi@plt
 160      E7800000 
 161              	.LVL11:
  22:src/kernel/slabTests.cpp ****     kmem_cache_t * cache = nullptr;
 162              		.loc 1 22 5 is_stmt 1
  23:src/kernel/slabTests.cpp ****     for(int i = 1;i<=68;i++)
 163              		.loc 1 23 5
 164              	.LBB2:
 165              		.loc 1 23 13 is_stmt 0
 166 0120 93041000 		li	s1,1
 167              	.LBE2:
  22:src/kernel/slabTests.cpp ****     kmem_cache_t * cache = nullptr;
 168              		.loc 1 22 20
 169 0124 13090000 		li	s2,0
 170              	.LVL12:
 171              	.L8:
 172              	.LBB3:
 173              		.loc 1 23 20 is_stmt 1 discriminator 3
 174 0128 93074004 		li	a5,68
 175 012c 63C69702 		bgt	s1,a5,.L7
  24:src/kernel/slabTests.cpp ****     {
  25:src/kernel/slabTests.cpp ****         cache = kmem_cache_create("Cache test", 10, nullptr,nullptr);
 176              		.loc 1 25 9 discriminator 2
 177              		.loc 1 25 34 is_stmt 0 discriminator 2
 178 0130 93060000 		li	a3,0
 179 0134 13060000 		li	a2,0
 180 0138 9305A000 		li	a1,10
 181 013c 17050000 		lla	a0,.LC0
 181      13050500 
 182 0144 97000000 		call	_Z17kmem_cache_createPKcmPFvPvES3_@plt
 182      E7800000 
 183              	.LVL13:
GAS LISTING /tmp/ccaspmL3.s 			page 5


 184 014c 13090500 		mv	s2,a0
 185              	.LVL14:
  23:src/kernel/slabTests.cpp ****     for(int i = 1;i<=68;i++)
 186              		.loc 1 23 5 is_stmt 1 discriminator 2
 187 0150 9B841400 		addiw	s1,s1,1
 188              	.LVL15:
 189 0154 6FF05FFD 		j	.L8
 190              	.LVL16:
 191              	.L7:
 192              	.LBE3:
  26:src/kernel/slabTests.cpp ****     }
  27:src/kernel/slabTests.cpp ****     printSlabAllocatorInfo();
 193              		.loc 1 27 5
 194              		.loc 1 27 27 is_stmt 0
 195 0158 97000000 		call	_Z22printSlabAllocatorInfov@plt
 195      E7800000 
 196              	.LVL17:
  28:src/kernel/slabTests.cpp ****     kmem_cache_destroy(cache);
 197              		.loc 1 28 5 is_stmt 1
 198              		.loc 1 28 23 is_stmt 0
 199 0160 13050900 		mv	a0,s2
 200 0164 97000000 		call	_Z18kmem_cache_destroyP12kmem_cache_s@plt
 200      E7800000 
 201              	.LVL18:
  29:src/kernel/slabTests.cpp ****     printSlabAllocatorInfo();
 202              		.loc 1 29 5 is_stmt 1
 203              		.loc 1 29 27 is_stmt 0
 204 016c 97000000 		call	_Z22printSlabAllocatorInfov@plt
 204      E7800000 
 205              	.LVL19:
  30:src/kernel/slabTests.cpp **** }
 206              		.loc 1 30 1
 207 0174 83308101 		ld	ra,24(sp)
 208              		.cfi_restore 1
 209 0178 03340101 		ld	s0,16(sp)
 210              		.cfi_restore 8
 211              		.cfi_def_cfa 2, 32
 212 017c 83348100 		ld	s1,8(sp)
 213              		.cfi_restore 9
 214              	.LVL20:
 215 0180 03390100 		ld	s2,0(sp)
 216              		.cfi_restore 18
 217              	.LVL21:
 218 0184 13010102 		addi	sp,sp,32
 219              		.cfi_def_cfa_offset 0
 220 0188 67800000 		jr	ra
 221              		.cfi_endproc
 222              	.LFE7:
 224              		.section	.rodata.str1.8
 225 002d 000000   		.align	3
 226              	.LC3:
 227 0030 4E756C6C 		.string	"Nullptr je\n"
 227      70747220 
 227      6A650A00 
 228 003c 00000000 		.align	3
 229              	.LC4:
 230 0040 692000   		.string	"i "
GAS LISTING /tmp/ccaspmL3.s 			page 6


 231 0043 00000000 		.align	3
 231      00
 232              	.LC5:
 233 0048 6A2000   		.string	"j "
 234              		.text
 235              		.align	2
 236              		.globl	_Z11testKmallocv
 238              	_Z11testKmallocv:
 239              	.LFB8:
  31:src/kernel/slabTests.cpp **** 
  32:src/kernel/slabTests.cpp **** void testKmalloc()
  33:src/kernel/slabTests.cpp **** {
 240              		.loc 1 33 1 is_stmt 1
 241              		.cfi_startproc
 242 018c 130101FC 		addi	sp,sp,-64
 243              		.cfi_def_cfa_offset 64
 244 0190 233C1102 		sd	ra,56(sp)
 245 0194 23388102 		sd	s0,48(sp)
 246 0198 23349102 		sd	s1,40(sp)
 247 019c 23302103 		sd	s2,32(sp)
 248 01a0 233C3101 		sd	s3,24(sp)
 249 01a4 23384101 		sd	s4,16(sp)
 250 01a8 23345101 		sd	s5,8(sp)
 251              		.cfi_offset 1, -8
 252              		.cfi_offset 8, -16
 253              		.cfi_offset 9, -24
 254              		.cfi_offset 18, -32
 255              		.cfi_offset 19, -40
 256              		.cfi_offset 20, -48
 257              		.cfi_offset 21, -56
 258 01ac 13040104 		addi	s0,sp,64
 259              		.cfi_def_cfa 8, 0
  34:src/kernel/slabTests.cpp ****     void** x = (void**)kmalloc(sizeof(void*)*200);
 260              		.loc 1 34 5
 261              		.loc 1 34 31 is_stmt 0
 262 01b0 13050064 		li	a0,1600
 263 01b4 97000000 		call	_Z7kmallocm@plt
 263      E7800000 
 264              	.LVL22:
 265 01bc 130A0500 		mv	s4,a0
 266              	.LVL23:
  35:src/kernel/slabTests.cpp ****     int indeks = 0;
 267              		.loc 1 35 5 is_stmt 1
  36:src/kernel/slabTests.cpp ****     for(int i = 0;i < 10;i++)
 268              		.loc 1 36 5
 269              	.LBB4:
 270              		.loc 1 36 13 is_stmt 0
 271 01c0 930A0000 		li	s5,0
 272              	.LBE4:
  35:src/kernel/slabTests.cpp ****     int indeks = 0;
 273              		.loc 1 35 9
 274 01c4 93040000 		li	s1,0
 275 01c8 6F000008 		j	.L15
 276              	.LVL24:
 277              	.L13:
 278              	.LBB9:
 279              	.LBB5:
GAS LISTING /tmp/ccaspmL3.s 			page 7


  37:src/kernel/slabTests.cpp ****     {
  38:src/kernel/slabTests.cpp ****         for(int j = 5;j<=18;j++)
 280              		.loc 1 38 9 is_stmt 1 discriminator 2
 281 01cc 1B091900 		addiw	s2,s2,1
 282              	.LVL25:
 283              	.LBB6:
  39:src/kernel/slabTests.cpp ****         {
  40:src/kernel/slabTests.cpp ****             void* adr = kmalloc(1 << j);
  41:src/kernel/slabTests.cpp ****             x[indeks++] = adr;
 284              		.loc 1 41 21 is_stmt 0 discriminator 2
 285 01d0 93840900 		mv	s1,s3
 286              	.L14:
 287              	.LVL26:
 288              	.LBE6:
  38:src/kernel/slabTests.cpp ****         {
 289              		.loc 1 38 24 is_stmt 1 discriminator 1
 290 01d4 93072001 		li	a5,18
 291 01d8 63C62707 		bgt	s2,a5,.L12
 292              	.LBB7:
  40:src/kernel/slabTests.cpp ****             x[indeks++] = adr;
 293              		.loc 1 40 13
  40:src/kernel/slabTests.cpp ****             x[indeks++] = adr;
 294              		.loc 1 40 32 is_stmt 0
 295 01dc 13051000 		li	a0,1
 296 01e0 3B152501 		sllw	a0,a0,s2
 297 01e4 97000000 		call	_Z7kmallocm@plt
 297      E7800000 
 298              	.LVL27:
 299              		.loc 1 41 13 is_stmt 1
 300              		.loc 1 41 21 is_stmt 0
 301 01ec 9B891400 		addiw	s3,s1,1
 302              	.LVL28:
 303              		.loc 1 41 23
 304 01f0 93943400 		slli	s1,s1,3
 305              	.LVL29:
 306 01f4 B3049A00 		add	s1,s4,s1
 307              		.loc 1 41 25
 308 01f8 23B0A400 		sd	a0,0(s1)
  42:src/kernel/slabTests.cpp ****             if(adr == nullptr)
 309              		.loc 1 42 13 is_stmt 1
 310 01fc E31805FC 		bnez	a0,.L13
  43:src/kernel/slabTests.cpp ****             {
  44:src/kernel/slabTests.cpp ****                 KConsole::trapPrintString("Nullptr je\n");
 311              		.loc 1 44 17
 312              		.loc 1 44 42 is_stmt 0
 313 0200 17050000 		lla	a0,.LC3
 313      13050500 
 314              	.LVL30:
 315 0208 97000000 		call	_ZN8KConsole15trapPrintStringEPKc@plt
 315      E7800000 
 316              	.LVL31:
  45:src/kernel/slabTests.cpp ****                 KConsole::trapPrintStringInt("i ", i);
 317              		.loc 1 45 17 is_stmt 1
 318              		.loc 1 45 45 is_stmt 0
 319 0210 1306A000 		li	a2,10
 320 0214 93850A00 		mv	a1,s5
 321 0218 17050000 		lla	a0,.LC4
GAS LISTING /tmp/ccaspmL3.s 			page 8


 321      13050500 
 322 0220 97000000 		call	_ZN8KConsole18trapPrintStringIntEPKcmi@plt
 322      E7800000 
 323              	.LVL32:
  46:src/kernel/slabTests.cpp ****                 KConsole::trapPrintStringInt("j ", j);
 324              		.loc 1 46 17 is_stmt 1
 325              		.loc 1 46 45 is_stmt 0
 326 0228 1306A000 		li	a2,10
 327 022c 93050900 		mv	a1,s2
 328 0230 17050000 		lla	a0,.LC5
 328      13050500 
 329 0238 97000000 		call	_ZN8KConsole18trapPrintStringIntEPKcmi@plt
 329      E7800000 
 330              	.LVL33:
 331 0240 6FF0DFF8 		j	.L13
 332              	.LVL34:
 333              	.L12:
 334              	.LBE7:
 335              	.LBE5:
  36:src/kernel/slabTests.cpp ****     {
 336              		.loc 1 36 5 is_stmt 1 discriminator 2
 337 0244 9B8A1A00 		addiw	s5,s5,1
 338              	.LVL35:
 339              	.L15:
  36:src/kernel/slabTests.cpp ****     {
 340              		.loc 1 36 21 discriminator 1
 341 0248 93079000 		li	a5,9
 342 024c 63C65701 		bgt	s5,a5,.L17
 343              	.LBB8:
  38:src/kernel/slabTests.cpp ****         {
 344              		.loc 1 38 17 is_stmt 0
 345 0250 13095000 		li	s2,5
 346 0254 6FF01FF8 		j	.L14
 347              	.L17:
 348              	.LBE8:
 349              	.LBE9:
 350              	.LBB10:
  47:src/kernel/slabTests.cpp ****             }
  48:src/kernel/slabTests.cpp ****         }
  49:src/kernel/slabTests.cpp ****     }
  50:src/kernel/slabTests.cpp ****     for(int i = 0; i < indeks;i++)
 351              		.loc 1 50 13
 352 0258 13090000 		li	s2,0
 353              	.L11:
 354              	.LVL36:
 355              		.loc 1 50 22 is_stmt 1 discriminator 3
 356 025c 63509902 		ble	s1,s2,.L16
  51:src/kernel/slabTests.cpp ****     {
  52:src/kernel/slabTests.cpp ****       kfree(x[i]);
 357              		.loc 1 52 7 discriminator 2
 358              		.loc 1 52 16 is_stmt 0 discriminator 2
 359 0260 93173900 		slli	a5,s2,3
 360 0264 B307FA00 		add	a5,s4,a5
 361              		.loc 1 52 12 discriminator 2
 362 0268 03B50700 		ld	a0,0(a5)
 363 026c 97000000 		call	_Z5kfreePKv@plt
 363      E7800000 
GAS LISTING /tmp/ccaspmL3.s 			page 9


 364              	.LVL37:
  50:src/kernel/slabTests.cpp ****     {
 365              		.loc 1 50 5 is_stmt 1 discriminator 2
 366 0274 1B091900 		addiw	s2,s2,1
 367              	.LVL38:
 368 0278 6FF05FFE 		j	.L11
 369              	.LVL39:
 370              	.L16:
 371              	.LBE10:
  53:src/kernel/slabTests.cpp ****     }
  54:src/kernel/slabTests.cpp ****     printSlabAllocatorInfo();
 372              		.loc 1 54 5
 373              		.loc 1 54 27 is_stmt 0
 374 027c 97000000 		call	_Z22printSlabAllocatorInfov@plt
 374      E7800000 
 375              	.LVL40:
  55:src/kernel/slabTests.cpp **** }
 376              		.loc 1 55 1
 377 0284 83308103 		ld	ra,56(sp)
 378              		.cfi_restore 1
 379 0288 03340103 		ld	s0,48(sp)
 380              		.cfi_restore 8
 381              		.cfi_def_cfa 2, 64
 382 028c 83348102 		ld	s1,40(sp)
 383              		.cfi_restore 9
 384              	.LVL41:
 385 0290 03390102 		ld	s2,32(sp)
 386              		.cfi_restore 18
 387              	.LVL42:
 388 0294 83398101 		ld	s3,24(sp)
 389              		.cfi_restore 19
 390 0298 033A0101 		ld	s4,16(sp)
 391              		.cfi_restore 20
 392              	.LVL43:
 393 029c 833A8100 		ld	s5,8(sp)
 394              		.cfi_restore 21
 395              	.LVL44:
 396 02a0 13010104 		addi	sp,sp,64
 397              		.cfi_def_cfa_offset 0
 398 02a4 67800000 		jr	ra
 399              		.cfi_endproc
 400              	.LFE8:
 402              		.align	2
 403              		.globl	_Z12testKmalloc2v
 405              	_Z12testKmalloc2v:
 406              	.LFB9:
  56:src/kernel/slabTests.cpp **** 
  57:src/kernel/slabTests.cpp **** void testKmalloc2()
  58:src/kernel/slabTests.cpp **** {
 407              		.loc 1 58 1 is_stmt 1
 408              		.cfi_startproc
 409 02a8 130101FD 		addi	sp,sp,-48
 410              		.cfi_def_cfa_offset 48
 411 02ac 23341102 		sd	ra,40(sp)
 412 02b0 23308102 		sd	s0,32(sp)
 413 02b4 233C9100 		sd	s1,24(sp)
 414 02b8 23382101 		sd	s2,16(sp)
GAS LISTING /tmp/ccaspmL3.s 			page 10


 415 02bc 23343101 		sd	s3,8(sp)
 416              		.cfi_offset 1, -8
 417              		.cfi_offset 8, -16
 418              		.cfi_offset 9, -24
 419              		.cfi_offset 18, -32
 420              		.cfi_offset 19, -40
 421 02c0 13040103 		addi	s0,sp,48
 422              		.cfi_def_cfa 8, 0
  59:src/kernel/slabTests.cpp ****     bool flag = false;
 423              		.loc 1 59 5
 424              	.LVL45:
  60:src/kernel/slabTests.cpp ****     for(int i = 0;!flag;i++)
 425              		.loc 1 60 5
 426              	.LBB11:
 427              		.loc 1 60 13 is_stmt 0
 428 02c4 13090000 		li	s2,0
 429              	.LBE11:
  59:src/kernel/slabTests.cpp ****     bool flag = false;
 430              		.loc 1 59 10
 431 02c8 93090000 		li	s3,0
 432 02cc 6F00C004 		j	.L24
 433              	.LVL46:
 434              	.L26:
 435              	.LBB16:
 436              	.LBB12:
 437              	.LBB13:
  61:src/kernel/slabTests.cpp ****     {
  62:src/kernel/slabTests.cpp ****         for(int j = 5;j<=17;j++)
  63:src/kernel/slabTests.cpp ****         {
  64:src/kernel/slabTests.cpp ****             void* adr = kmalloc(1 << j);
  65:src/kernel/slabTests.cpp ****             if(adr == nullptr)
  66:src/kernel/slabTests.cpp ****             {
  67:src/kernel/slabTests.cpp ****                 KConsole::trapPrintString("Nullptr je\n");
 438              		.loc 1 67 17 is_stmt 1
 439              		.loc 1 67 42 is_stmt 0
 440 02d0 17050000 		lla	a0,.LC3
 440      13050500 
 441              	.LVL47:
 442 02d8 97000000 		call	_ZN8KConsole15trapPrintStringEPKc@plt
 442      E7800000 
 443              	.LVL48:
  68:src/kernel/slabTests.cpp ****                 KConsole::trapPrintStringInt("i ", i);
 444              		.loc 1 68 17 is_stmt 1
 445              		.loc 1 68 45 is_stmt 0
 446 02e0 1306A000 		li	a2,10
 447 02e4 93050900 		mv	a1,s2
 448 02e8 17050000 		lla	a0,.LC4
 448      13050500 
 449 02f0 97000000 		call	_ZN8KConsole18trapPrintStringIntEPKcmi@plt
 449      E7800000 
 450              	.LVL49:
  69:src/kernel/slabTests.cpp ****                 KConsole::trapPrintStringInt("j ", j);
 451              		.loc 1 69 17 is_stmt 1
 452              		.loc 1 69 45 is_stmt 0
 453 02f8 1306A000 		li	a2,10
 454 02fc 93850400 		mv	a1,s1
 455 0300 17050000 		lla	a0,.LC5
GAS LISTING /tmp/ccaspmL3.s 			page 11


 455      13050500 
 456 0308 97000000 		call	_ZN8KConsole18trapPrintStringIntEPKcmi@plt
 456      E7800000 
 457              	.LVL50:
  70:src/kernel/slabTests.cpp ****                 flag = true;
 458              		.loc 1 70 17 is_stmt 1
  71:src/kernel/slabTests.cpp ****                 break;
 459              		.loc 1 71 17
  70:src/kernel/slabTests.cpp ****                 flag = true;
 460              		.loc 1 70 22 is_stmt 0
 461 0310 93091000 		li	s3,1
 462              	.LVL51:
 463              	.L21:
 464              	.LBE13:
 465              	.LBE12:
  60:src/kernel/slabTests.cpp ****     {
 466              		.loc 1 60 5 is_stmt 1 discriminator 2
 467 0314 1B091900 		addiw	s2,s2,1
 468              	.LVL52:
 469              	.L24:
  60:src/kernel/slabTests.cpp ****     {
 470              		.loc 1 60 19 discriminator 1
 471 0318 63960902 		bnez	s3,.L19
 472              	.LBB15:
  62:src/kernel/slabTests.cpp ****         {
 473              		.loc 1 62 17 is_stmt 0
 474 031c 93045000 		li	s1,5
 475              	.L23:
 476              	.LVL53:
  62:src/kernel/slabTests.cpp ****         {
 477              		.loc 1 62 24 is_stmt 1 discriminator 1
 478 0320 93071001 		li	a5,17
 479 0324 E3C897FE 		bgt	s1,a5,.L21
 480              	.LBB14:
  64:src/kernel/slabTests.cpp ****             if(adr == nullptr)
 481              		.loc 1 64 13
  64:src/kernel/slabTests.cpp ****             if(adr == nullptr)
 482              		.loc 1 64 32 is_stmt 0
 483 0328 13051000 		li	a0,1
 484 032c 3B159500 		sllw	a0,a0,s1
 485 0330 97000000 		call	_Z7kmallocm@plt
 485      E7800000 
 486              	.LVL54:
  65:src/kernel/slabTests.cpp ****             {
 487              		.loc 1 65 13 is_stmt 1
 488 0338 E30C05F8 		beqz	a0,.L26
 489              	.LBE14:
  62:src/kernel/slabTests.cpp ****         {
 490              		.loc 1 62 9 discriminator 2
 491 033c 9B841400 		addiw	s1,s1,1
 492              	.LVL55:
 493 0340 6FF01FFE 		j	.L23
 494              	.LVL56:
 495              	.L19:
 496              	.LBE15:
 497              	.LBE16:
  72:src/kernel/slabTests.cpp ****             }
GAS LISTING /tmp/ccaspmL3.s 			page 12


  73:src/kernel/slabTests.cpp ****         }
  74:src/kernel/slabTests.cpp ****     }
  75:src/kernel/slabTests.cpp **** }
 498              		.loc 1 75 1 is_stmt 0
 499 0344 83308102 		ld	ra,40(sp)
 500              		.cfi_restore 1
 501 0348 03340102 		ld	s0,32(sp)
 502              		.cfi_restore 8
 503              		.cfi_def_cfa 2, 48
 504 034c 83348101 		ld	s1,24(sp)
 505              		.cfi_restore 9
 506 0350 03390101 		ld	s2,16(sp)
 507              		.cfi_restore 18
 508              	.LVL57:
 509 0354 83398100 		ld	s3,8(sp)
 510              		.cfi_restore 19
 511              	.LVL58:
 512 0358 13010103 		addi	sp,sp,48
 513              		.cfi_def_cfa_offset 0
 514 035c 67800000 		jr	ra
 515              		.cfi_endproc
 516              	.LFE9:
 518              		.align	2
 519              		.globl	_Z6memsetPKvii
 521              	_Z6memsetPKvii:
 522              	.LFB10:
  76:src/kernel/slabTests.cpp **** 
  77:src/kernel/slabTests.cpp **** //-------------------------------------------------------------------------------------------------
  78:src/kernel/slabTests.cpp **** //OS2 testovi
  79:src/kernel/slabTests.cpp **** 
  80:src/kernel/slabTests.cpp **** #define RUN_NUM (5)
  81:src/kernel/slabTests.cpp **** #define ITERATIONS (1000)
  82:src/kernel/slabTests.cpp **** 
  83:src/kernel/slabTests.cpp **** #define shared_size (7)
  84:src/kernel/slabTests.cpp **** #define MASK (0xA5)
  85:src/kernel/slabTests.cpp **** 
  86:src/kernel/slabTests.cpp **** struct data_s {
  87:src/kernel/slabTests.cpp ****     int id;
  88:src/kernel/slabTests.cpp ****     kmem_cache_t  *shared;
  89:src/kernel/slabTests.cpp ****     int iterations;
  90:src/kernel/slabTests.cpp **** };
  91:src/kernel/slabTests.cpp **** 
  92:src/kernel/slabTests.cpp **** const char * const CACHE_NAMES[] = {"tc_0",
  93:src/kernel/slabTests.cpp ****                                     "tc_1",
  94:src/kernel/slabTests.cpp ****                                     "tc_2",
  95:src/kernel/slabTests.cpp ****                                     "tc_3",
  96:src/kernel/slabTests.cpp ****                                     "tc_4"};
  97:src/kernel/slabTests.cpp **** 
  98:src/kernel/slabTests.cpp **** void memset(const void *data, int size, int value) {
 523              		.loc 1 98 52 is_stmt 1
 524              		.cfi_startproc
 525              	.LVL59:
 526 0360 130101FF 		addi	sp,sp,-16
 527              		.cfi_def_cfa_offset 16
 528 0364 23348100 		sd	s0,8(sp)
 529              		.cfi_offset 8, -8
 530 0368 13040101 		addi	s0,sp,16
GAS LISTING /tmp/ccaspmL3.s 			page 13


 531              		.cfi_def_cfa 8, 0
  99:src/kernel/slabTests.cpp ****     for (int j = 0; j < size; j++) {
 532              		.loc 1 99 5
 533              	.LVL60:
 534              	.LBB17:
 535              		.loc 1 99 14 is_stmt 0
 536 036c 93070000 		li	a5,0
 537              	.LVL61:
 538              	.L29:
 539              		.loc 1 99 23 is_stmt 1 discriminator 3
 540 0370 63DAB700 		bge	a5,a1,.L27
 100:src/kernel/slabTests.cpp ****         *((char *)data + j) = value;
 541              		.loc 1 100 9 discriminator 2
 542              		.loc 1 100 24 is_stmt 0 discriminator 2
 543 0374 3307F500 		add	a4,a0,a5
 544              		.loc 1 100 29 discriminator 2
 545 0378 2300C700 		sb	a2,0(a4)
  99:src/kernel/slabTests.cpp ****     for (int j = 0; j < size; j++) {
 546              		.loc 1 99 5 is_stmt 1 discriminator 2
 547 037c 9B871700 		addiw	a5,a5,1
 548              	.LVL62:
 549 0380 6FF01FFF 		j	.L29
 550              	.LVL63:
 551              	.L27:
 552              	.LBE17:
 101:src/kernel/slabTests.cpp ****     }
 102:src/kernel/slabTests.cpp **** }
 553              		.loc 1 102 1 is_stmt 0
 554 0384 03348100 		ld	s0,8(sp)
 555              		.cfi_restore 8
 556              		.cfi_def_cfa 2, 16
 557 0388 13010101 		addi	sp,sp,16
 558              		.cfi_def_cfa_offset 0
 559 038c 67800000 		jr	ra
 560              		.cfi_endproc
 561              	.LFE10:
 563              		.align	2
 564              		.globl	_Z9constructPv
 566              	_Z9constructPv:
 567              	.LFB11:
 103:src/kernel/slabTests.cpp **** 
 104:src/kernel/slabTests.cpp **** void construct(void *data) {
 568              		.loc 1 104 28 is_stmt 1
 569              		.cfi_startproc
 570              	.LVL64:
 571 0390 130101FF 		addi	sp,sp,-16
 572              		.cfi_def_cfa_offset 16
 573 0394 23341100 		sd	ra,8(sp)
 574 0398 23308100 		sd	s0,0(sp)
 575              		.cfi_offset 1, -8
 576              		.cfi_offset 8, -16
 577 039c 13040101 		addi	s0,sp,16
 578              		.cfi_def_cfa 8, 0
 105:src/kernel/slabTests.cpp ****     //static int i = 1;
 106:src/kernel/slabTests.cpp ****     //KConsole::trapPrintInt(i); i++;
 107:src/kernel/slabTests.cpp ****     //KConsole::trapPrintString(" Shared object constructed.\n");
 108:src/kernel/slabTests.cpp ****     memset(data, shared_size, MASK);
GAS LISTING /tmp/ccaspmL3.s 			page 14


 579              		.loc 1 108 5
 580              		.loc 1 108 11 is_stmt 0
 581 03a0 1306500A 		li	a2,165
 582 03a4 93057000 		li	a1,7
 583 03a8 97000000 		call	_Z6memsetPKvii
 583      E7800000 
 584              	.LVL65:
 109:src/kernel/slabTests.cpp **** }
 585              		.loc 1 109 1
 586 03b0 83308100 		ld	ra,8(sp)
 587              		.cfi_restore 1
 588 03b4 03340100 		ld	s0,0(sp)
 589              		.cfi_restore 8
 590              		.cfi_def_cfa 2, 16
 591 03b8 13010101 		addi	sp,sp,16
 592              		.cfi_def_cfa_offset 0
 593 03bc 67800000 		jr	ra
 594              		.cfi_endproc
 595              	.LFE11:
 597              		.align	2
 598              		.globl	_Z5checkPvm
 600              	_Z5checkPvm:
 601              	.LFB12:
 110:src/kernel/slabTests.cpp **** 
 111:src/kernel/slabTests.cpp **** int check(void *data, size_t size) {
 602              		.loc 1 111 36 is_stmt 1
 603              		.cfi_startproc
 604              	.LVL66:
 605 03c0 130101FF 		addi	sp,sp,-16
 606              		.cfi_def_cfa_offset 16
 607 03c4 23348100 		sd	s0,8(sp)
 608              		.cfi_offset 8, -8
 609 03c8 13040101 		addi	s0,sp,16
 610              		.cfi_def_cfa 8, 0
 611 03cc 13060500 		mv	a2,a0
 112:src/kernel/slabTests.cpp ****     int ret = 1;
 612              		.loc 1 112 5
 613              	.LVL67:
 113:src/kernel/slabTests.cpp ****     for (size_t i = 0; i < size; i++) {
 614              		.loc 1 113 5
 615              	.LBB18:
 616              		.loc 1 113 17 is_stmt 0
 617 03d0 93070000 		li	a5,0
 618              	.LBE18:
 112:src/kernel/slabTests.cpp ****     int ret = 1;
 619              		.loc 1 112 9
 620 03d4 13051000 		li	a0,1
 621              	.LVL68:
 622 03d8 6F008000 		j	.L36
 623              	.LVL69:
 624              	.L35:
 625              	.LBB19:
 626              		.loc 1 113 5 is_stmt 1 discriminator 2
 627 03dc 93871700 		addi	a5,a5,1
 628              	.LVL70:
 629              	.L36:
 630              		.loc 1 113 26 discriminator 1
GAS LISTING /tmp/ccaspmL3.s 			page 15


 631 03e0 63FEB700 		bgeu	a5,a1,.L34
 114:src/kernel/slabTests.cpp ****         if (((unsigned char *)data)[i] != MASK) {
 632              		.loc 1 114 9
 633              		.loc 1 114 38 is_stmt 0
 634 03e4 3307F600 		add	a4,a2,a5
 635 03e8 83460700 		lbu	a3,0(a4)
 636              		.loc 1 114 9
 637 03ec 1307500A 		li	a4,165
 638 03f0 E386E6FE 		beq	a3,a4,.L35
 115:src/kernel/slabTests.cpp ****             ret = 0;
 639              		.loc 1 115 17
 640 03f4 13050000 		li	a0,0
 641              	.LVL71:
 642 03f8 6FF05FFE 		j	.L35
 643              	.LVL72:
 644              	.L34:
 645              	.LBE19:
 116:src/kernel/slabTests.cpp ****         }
 117:src/kernel/slabTests.cpp ****     }
 118:src/kernel/slabTests.cpp **** 
 119:src/kernel/slabTests.cpp ****     return ret;
 646              		.loc 1 119 5 is_stmt 1
 120:src/kernel/slabTests.cpp **** }
 647              		.loc 1 120 1 is_stmt 0
 648 03fc 03348100 		ld	s0,8(sp)
 649              		.cfi_restore 8
 650              		.cfi_def_cfa 2, 16
 651 0400 13010101 		addi	sp,sp,16
 652              		.cfi_def_cfa_offset 0
 653 0404 67800000 		jr	ra
 654              		.cfi_endproc
 655              	.LFE12:
 657              		.section	.rodata.str1.8
 658 004b 00000000 		.align	3
 658      00
 659              	.LC6:
 660 0050 56616C75 		.string	"Value not correct!"
 660      65206E6F 
 660      7420636F 
 660      72726563 
 660      742100
 661              		.text
 662              		.align	2
 663              		.globl	_Z4workPv
 665              	_Z4workPv:
 666              	.LFB13:
 121:src/kernel/slabTests.cpp **** 
 122:src/kernel/slabTests.cpp **** struct objects_s {
 123:src/kernel/slabTests.cpp ****     kmem_cache_t *cache;
 124:src/kernel/slabTests.cpp ****     void *data;
 125:src/kernel/slabTests.cpp **** };
 126:src/kernel/slabTests.cpp **** 
 127:src/kernel/slabTests.cpp **** void work(void* pdata)
 128:src/kernel/slabTests.cpp **** {
 667              		.loc 1 128 1 is_stmt 1
 668              		.cfi_startproc
 669              	.LVL73:
GAS LISTING /tmp/ccaspmL3.s 			page 16


 670 0408 130101F8 		addi	sp,sp,-128
 671              		.cfi_def_cfa_offset 128
 672 040c 233C1106 		sd	ra,120(sp)
 673 0410 23388106 		sd	s0,112(sp)
 674 0414 23349106 		sd	s1,104(sp)
 675 0418 23302107 		sd	s2,96(sp)
 676 041c 233C3105 		sd	s3,88(sp)
 677 0420 23384105 		sd	s4,80(sp)
 678 0424 23345105 		sd	s5,72(sp)
 679 0428 23306105 		sd	s6,64(sp)
 680 042c 233C7103 		sd	s7,56(sp)
 681 0430 23388103 		sd	s8,48(sp)
 682 0434 23349103 		sd	s9,40(sp)
 683              		.cfi_offset 1, -8
 684              		.cfi_offset 8, -16
 685              		.cfi_offset 9, -24
 686              		.cfi_offset 18, -32
 687              		.cfi_offset 19, -40
 688              		.cfi_offset 20, -48
 689              		.cfi_offset 21, -56
 690              		.cfi_offset 22, -64
 691              		.cfi_offset 23, -72
 692              		.cfi_offset 24, -80
 693              		.cfi_offset 25, -88
 694 0438 13040108 		addi	s0,sp,128
 695              		.cfi_def_cfa 8, 0
 129:src/kernel/slabTests.cpp ****     struct data_s data = *(struct data_s*) pdata;
 696              		.loc 1 129 5
 697              		.loc 1 129 19 is_stmt 0
 698 043c 033C0500 		ld	s8,0(a0)
 699 0440 233484F9 		sd	s8,-120(s0)
 700 0444 83378500 		ld	a5,8(a0)
 701 0448 2338F4F8 		sd	a5,-112(s0)
 702 044c 83370501 		ld	a5,16(a0)
 703 0450 233CF4F8 		sd	a5,-104(s0)
 130:src/kernel/slabTests.cpp ****     int size = 0;
 704              		.loc 1 130 5 is_stmt 1
 705              	.LVL74:
 131:src/kernel/slabTests.cpp ****     int object_size = data.id + 1;
 706              		.loc 1 131 5
 707              		.loc 1 131 28 is_stmt 0
 708 0454 9B070C00 		sext.w	a5,s8
 709              		.loc 1 131 9
 710 0458 1B0C1C00 		addiw	s8,s8,1
 711              	.LVL75:
 132:src/kernel/slabTests.cpp ****     kmem_cache_t *cache = kmem_cache_create(CACHE_NAMES[data.id], object_size, 0, 0);
 712              		.loc 1 132 5 is_stmt 1
 713              		.loc 1 132 64 is_stmt 0
 714 045c 13973700 		slli	a4,a5,3
 715 0460 97070000 		lla	a5,.LANCHOR0
 715      93870700 
 716              	.LVL76:
 717 0468 B387E700 		add	a5,a5,a4
 718              		.loc 1 132 44
 719 046c 130B0C00 		mv	s6,s8
 720 0470 93060000 		li	a3,0
 721 0474 13060000 		li	a2,0
GAS LISTING /tmp/ccaspmL3.s 			page 17


 722 0478 93050C00 		mv	a1,s8
 723 047c 03B50700 		ld	a0,0(a5)
 724              	.LVL77:
 725 0480 97000000 		call	_Z17kmem_cache_createPKcmPFvPvES3_@plt
 725      E7800000 
 726              	.LVL78:
 727 0488 130A0500 		mv	s4,a0
 728              	.LVL79:
 133:src/kernel/slabTests.cpp **** 
 134:src/kernel/slabTests.cpp ****     struct objects_s *objs = (struct objects_s*)(kmalloc(sizeof(struct objects_s) * data.iterations
 729              		.loc 1 134 5 is_stmt 1
 730              		.loc 1 134 90 is_stmt 0
 731 048c 832B84F9 		lw	s7,-104(s0)
 732              		.loc 1 134 57
 733 0490 13954B00 		slli	a0,s7,4
 734              	.LVL80:
 735 0494 97000000 		call	_Z7kmallocm@plt
 735      E7800000 
 736              	.LVL81:
 737 049c 930A0500 		mv	s5,a0
 738              	.LBB20:
 135:src/kernel/slabTests.cpp **** 
 136:src/kernel/slabTests.cpp ****     for (int i = 0; i < data.iterations; i++) {
 739              		.loc 1 136 14
 740 04a0 93040000 		li	s1,0
 741              	.LBE20:
 130:src/kernel/slabTests.cpp ****     int object_size = data.id + 1;
 742              		.loc 1 130 9
 743 04a4 93090000 		li	s3,0
 744 04a8 6F008003 		j	.L43
 745              	.LVL82:
 746              	.L41:
 747              	.LBB21:
 137:src/kernel/slabTests.cpp ****         if (i % 100 == 0) {
 138:src/kernel/slabTests.cpp ****             objs[size].data = kmem_cache_alloc(data.shared);
 139:src/kernel/slabTests.cpp ****             objs[size].cache = data.shared;
 140:src/kernel/slabTests.cpp ****             if (!check(objs[size].data, shared_size)) {
 141:src/kernel/slabTests.cpp ****                 KConsole::trapPrintString("Value not correct!");
 142:src/kernel/slabTests.cpp ****             }
 143:src/kernel/slabTests.cpp ****         }
 144:src/kernel/slabTests.cpp ****         else {
 145:src/kernel/slabTests.cpp ****             objs[size].data = kmem_cache_alloc(cache);
 748              		.loc 1 145 13 is_stmt 1
 749              		.loc 1 145 22 is_stmt 0
 750 04ac 13994900 		slli	s2,s3,4
 751 04b0 33892A01 		add	s2,s5,s2
 752              		.loc 1 145 47
 753 04b4 13050A00 		mv	a0,s4
 754 04b8 97000000 		call	_Z16kmem_cache_allocP12kmem_cache_s@plt
 754      E7800000 
 755              	.LVL83:
 756              		.loc 1 145 29
 757 04c0 2334A900 		sd	a0,8(s2)
 146:src/kernel/slabTests.cpp ****             objs[size].cache = cache;
 758              		.loc 1 146 13 is_stmt 1
 759              		.loc 1 146 30 is_stmt 0
 760 04c4 23304901 		sd	s4,0(s2)
GAS LISTING /tmp/ccaspmL3.s 			page 18


 147:src/kernel/slabTests.cpp ****             memset(objs[size].data, object_size, MASK);
 761              		.loc 1 147 13 is_stmt 1
 762              		.loc 1 147 19 is_stmt 0
 763 04c8 1306500A 		li	a2,165
 764 04cc 93050C00 		mv	a1,s8
 765 04d0 97000000 		call	_Z6memsetPKvii
 765      E7800000 
 766              	.LVL84:
 767              	.L42:
 148:src/kernel/slabTests.cpp ****         }
 149:src/kernel/slabTests.cpp ****         size++;
 768              		.loc 1 149 9 is_stmt 1 discriminator 2
 769              		.loc 1 149 13 is_stmt 0 discriminator 2
 770 04d8 9B891900 		addiw	s3,s3,1
 771              	.LVL85:
 136:src/kernel/slabTests.cpp ****         if (i % 100 == 0) {
 772              		.loc 1 136 5 is_stmt 1 discriminator 2
 773 04dc 9B841400 		addiw	s1,s1,1
 774              	.LVL86:
 775              	.L43:
 136:src/kernel/slabTests.cpp ****         if (i % 100 == 0) {
 776              		.loc 1 136 23 discriminator 1
 777 04e0 63DA7405 		ble	s7,s1,.L40
 137:src/kernel/slabTests.cpp ****             objs[size].data = kmem_cache_alloc(data.shared);
 778              		.loc 1 137 9
 137:src/kernel/slabTests.cpp ****             objs[size].data = kmem_cache_alloc(data.shared);
 779              		.loc 1 137 15 is_stmt 0
 780 04e4 93074006 		li	a5,100
 781 04e8 BBE7F402 		remw	a5,s1,a5
 137:src/kernel/slabTests.cpp ****             objs[size].data = kmem_cache_alloc(data.shared);
 782              		.loc 1 137 9
 783 04ec E39007FC 		bnez	a5,.L41
 138:src/kernel/slabTests.cpp ****             objs[size].cache = data.shared;
 784              		.loc 1 138 13 is_stmt 1
 138:src/kernel/slabTests.cpp ****             objs[size].cache = data.shared;
 785              		.loc 1 138 47 is_stmt 0
 786 04f0 833C04F9 		ld	s9,-112(s0)
 138:src/kernel/slabTests.cpp ****             objs[size].cache = data.shared;
 787              		.loc 1 138 22
 788 04f4 13994900 		slli	s2,s3,4
 789 04f8 33892A01 		add	s2,s5,s2
 138:src/kernel/slabTests.cpp ****             objs[size].cache = data.shared;
 790              		.loc 1 138 47
 791 04fc 13850C00 		mv	a0,s9
 792 0500 97000000 		call	_Z16kmem_cache_allocP12kmem_cache_s@plt
 792      E7800000 
 793              	.LVL87:
 138:src/kernel/slabTests.cpp ****             objs[size].cache = data.shared;
 794              		.loc 1 138 29
 795 0508 2334A900 		sd	a0,8(s2)
 139:src/kernel/slabTests.cpp ****             if (!check(objs[size].data, shared_size)) {
 796              		.loc 1 139 13 is_stmt 1
 139:src/kernel/slabTests.cpp ****             if (!check(objs[size].data, shared_size)) {
 797              		.loc 1 139 30 is_stmt 0
 798 050c 23309901 		sd	s9,0(s2)
 140:src/kernel/slabTests.cpp ****                 KConsole::trapPrintString("Value not correct!");
 799              		.loc 1 140 13 is_stmt 1
GAS LISTING /tmp/ccaspmL3.s 			page 19


 140:src/kernel/slabTests.cpp ****                 KConsole::trapPrintString("Value not correct!");
 800              		.loc 1 140 23 is_stmt 0
 801 0510 93057000 		li	a1,7
 802 0514 97000000 		call	_Z5checkPvm
 802      E7800000 
 803              	.LVL88:
 140:src/kernel/slabTests.cpp ****                 KConsole::trapPrintString("Value not correct!");
 804              		.loc 1 140 13
 805 051c E31E05FA 		bnez	a0,.L42
 141:src/kernel/slabTests.cpp ****             }
 806              		.loc 1 141 17 is_stmt 1
 141:src/kernel/slabTests.cpp ****             }
 807              		.loc 1 141 42 is_stmt 0
 808 0520 17050000 		lla	a0,.LC6
 808      13050500 
 809 0528 97000000 		call	_ZN8KConsole15trapPrintStringEPKc@plt
 809      E7800000 
 810              	.LVL89:
 811 0530 6FF09FFA 		j	.L42
 812              	.L40:
 813              	.LBE21:
 150:src/kernel/slabTests.cpp ****     }
 151:src/kernel/slabTests.cpp **** 
 152:src/kernel/slabTests.cpp ****     kmem_cache_info(cache);
 814              		.loc 1 152 5 is_stmt 1
 815              		.loc 1 152 20 is_stmt 0
 816 0534 13050A00 		mv	a0,s4
 817 0538 97000000 		call	_Z15kmem_cache_infoP12kmem_cache_s@plt
 817      E7800000 
 818              	.LVL90:
 153:src/kernel/slabTests.cpp ****     kmem_cache_info(data.shared);
 819              		.loc 1 153 5 is_stmt 1
 820              		.loc 1 153 20 is_stmt 0
 821 0540 833B04F9 		ld	s7,-112(s0)
 822 0544 13850B00 		mv	a0,s7
 823 0548 97000000 		call	_Z15kmem_cache_infoP12kmem_cache_s@plt
 823      E7800000 
 824              	.LVL91:
 825              	.LBB22:
 154:src/kernel/slabTests.cpp ****     //printSlabAllocatorInfo();
 155:src/kernel/slabTests.cpp **** 
 156:src/kernel/slabTests.cpp ****     for (int i = 0; i < size; i++) {
 826              		.loc 1 156 14
 827 0550 13090000 		li	s2,0
 828 0554 6F000003 		j	.L47
 829              	.LVL92:
 830              	.L48:
 157:src/kernel/slabTests.cpp ****         if (!check(objs[i].data, (cache == objs[i].cache) ? object_size : shared_size)) {
 831              		.loc 1 157 19
 832 0558 93050B00 		mv	a1,s6
 833 055c 6F004004 		j	.L45
 834              	.L50:
 158:src/kernel/slabTests.cpp ****             KConsole::trapPrintString("Value not correct!");
 835              		.loc 1 158 13 is_stmt 1
 836              		.loc 1 158 38 is_stmt 0
 837 0560 17050000 		lla	a0,.LC6
 837      13050500 
GAS LISTING /tmp/ccaspmL3.s 			page 20


 838 0568 97000000 		call	_ZN8KConsole15trapPrintStringEPKc@plt
 838      E7800000 
 839              	.LVL93:
 840              	.L46:
 159:src/kernel/slabTests.cpp ****         }
 160:src/kernel/slabTests.cpp ****         kmem_cache_free(objs[i].cache, objs[i].data);
 841              		.loc 1 160 9 is_stmt 1
 842              		.loc 1 160 24 is_stmt 0
 843 0570 83B58400 		ld	a1,8(s1)
 844 0574 03B50400 		ld	a0,0(s1)
 845 0578 97000000 		call	_Z15kmem_cache_freeP12kmem_cache_sPv@plt
 845      E7800000 
 846              	.LVL94:
 156:src/kernel/slabTests.cpp ****         if (!check(objs[i].data, (cache == objs[i].cache) ? object_size : shared_size)) {
 847              		.loc 1 156 5 is_stmt 1
 848 0580 1B091900 		addiw	s2,s2,1
 849              	.LVL95:
 850              	.L47:
 156:src/kernel/slabTests.cpp ****         if (!check(objs[i].data, (cache == objs[i].cache) ? object_size : shared_size)) {
 851              		.loc 1 156 23 discriminator 1
 852 0584 63563903 		ble	s3,s2,.L44
 157:src/kernel/slabTests.cpp ****             KConsole::trapPrintString("Value not correct!");
 853              		.loc 1 157 9
 157:src/kernel/slabTests.cpp ****             KConsole::trapPrintString("Value not correct!");
 854              		.loc 1 157 26 is_stmt 0
 855 0588 93144900 		slli	s1,s2,4
 856 058c B3849A00 		add	s1,s5,s1
 157:src/kernel/slabTests.cpp ****             KConsole::trapPrintString("Value not correct!");
 857              		.loc 1 157 19
 858 0590 03B58400 		ld	a0,8(s1)
 157:src/kernel/slabTests.cpp ****             KConsole::trapPrintString("Value not correct!");
 859              		.loc 1 157 52
 860 0594 83B70400 		ld	a5,0(s1)
 157:src/kernel/slabTests.cpp ****             KConsole::trapPrintString("Value not correct!");
 861              		.loc 1 157 19
 862 0598 E38047FD 		beq	a5,s4,.L48
 863 059c 93057000 		li	a1,7
 864              	.L45:
 157:src/kernel/slabTests.cpp ****             KConsole::trapPrintString("Value not correct!");
 865              		.loc 1 157 19 discriminator 4
 866 05a0 97000000 		call	_Z5checkPvm
 866      E7800000 
 867              	.LVL96:
 157:src/kernel/slabTests.cpp ****             KConsole::trapPrintString("Value not correct!");
 868              		.loc 1 157 9 discriminator 4
 869 05a8 E31405FC 		bnez	a0,.L46
 870 05ac 6FF05FFB 		j	.L50
 871              	.L44:
 872              	.LBE22:
 161:src/kernel/slabTests.cpp ****     }
 162:src/kernel/slabTests.cpp ****     kmem_cache_info(data.shared);
 873              		.loc 1 162 5 is_stmt 1
 874              		.loc 1 162 20 is_stmt 0
 875 05b0 13850B00 		mv	a0,s7
 876 05b4 97000000 		call	_Z15kmem_cache_infoP12kmem_cache_s@plt
 876      E7800000 
 877              	.LVL97:
GAS LISTING /tmp/ccaspmL3.s 			page 21


 163:src/kernel/slabTests.cpp ****     //kmem_cache_info(cache);
 164:src/kernel/slabTests.cpp **** 
 165:src/kernel/slabTests.cpp ****     //kmem_cache_info(cache);
 166:src/kernel/slabTests.cpp ****     //kmem_cache_info(data.shared);
 167:src/kernel/slabTests.cpp ****     //printSlabAllocatorInfo();
 168:src/kernel/slabTests.cpp **** 
 169:src/kernel/slabTests.cpp ****     kfree(objs);
 878              		.loc 1 169 5 is_stmt 1
 879              		.loc 1 169 10 is_stmt 0
 880 05bc 13850A00 		mv	a0,s5
 881 05c0 97000000 		call	_Z5kfreePKv@plt
 881      E7800000 
 882              	.LVL98:
 170:src/kernel/slabTests.cpp ****     kmem_cache_destroy(cache);
 883              		.loc 1 170 5 is_stmt 1
 884              		.loc 1 170 23 is_stmt 0
 885 05c8 13050A00 		mv	a0,s4
 886 05cc 97000000 		call	_Z18kmem_cache_destroyP12kmem_cache_s@plt
 886      E7800000 
 887              	.LVL99:
 171:src/kernel/slabTests.cpp **** 
 172:src/kernel/slabTests.cpp ****     //printSlabAllocatorInfo();
 173:src/kernel/slabTests.cpp **** }
 888              		.loc 1 173 1
 889 05d4 83308107 		ld	ra,120(sp)
 890              		.cfi_restore 1
 891 05d8 03340107 		ld	s0,112(sp)
 892              		.cfi_restore 8
 893              		.cfi_def_cfa 2, 128
 894              	.LVL100:
 895 05dc 83348106 		ld	s1,104(sp)
 896              		.cfi_restore 9
 897 05e0 03390106 		ld	s2,96(sp)
 898              		.cfi_restore 18
 899              	.LVL101:
 900 05e4 83398105 		ld	s3,88(sp)
 901              		.cfi_restore 19
 902              	.LVL102:
 903 05e8 033A0105 		ld	s4,80(sp)
 904              		.cfi_restore 20
 905              	.LVL103:
 906 05ec 833A8104 		ld	s5,72(sp)
 907              		.cfi_restore 21
 908 05f0 033B0104 		ld	s6,64(sp)
 909              		.cfi_restore 22
 910 05f4 833B8103 		ld	s7,56(sp)
 911              		.cfi_restore 23
 912 05f8 033C0103 		ld	s8,48(sp)
 913              		.cfi_restore 24
 914 05fc 833C8102 		ld	s9,40(sp)
 915              		.cfi_restore 25
 916 0600 13010108 		addi	sp,sp,128
 917              		.cfi_def_cfa_offset 0
 918              	.LVL104:
 919 0604 67800000 		jr	ra
 920              		.cfi_endproc
 921              	.LFE13:
GAS LISTING /tmp/ccaspmL3.s 			page 22


 923              		.align	2
 924              		.globl	_Z4runsPFvPvEP6data_si
 926              	_Z4runsPFvPvEP6data_si:
 927              	.LFB14:
 174:src/kernel/slabTests.cpp **** 
 175:src/kernel/slabTests.cpp **** void runs(void(*work)(void*), struct data_s* data, int num) {
 928              		.loc 1 175 61 is_stmt 1
 929              		.cfi_startproc
 930              	.LVL105:
 931 0608 130101FB 		addi	sp,sp,-80
 932              		.cfi_def_cfa_offset 80
 933 060c 23341104 		sd	ra,72(sp)
 934 0610 23308104 		sd	s0,64(sp)
 935 0614 233C9102 		sd	s1,56(sp)
 936 0618 23382103 		sd	s2,48(sp)
 937 061c 23343103 		sd	s3,40(sp)
 938              		.cfi_offset 1, -8
 939              		.cfi_offset 8, -16
 940              		.cfi_offset 9, -24
 941              		.cfi_offset 18, -32
 942              		.cfi_offset 19, -40
 943 0620 13040105 		addi	s0,sp,80
 944              		.cfi_def_cfa 8, 0
 945 0624 93090500 		mv	s3,a0
 946 0628 13890500 		mv	s2,a1
 176:src/kernel/slabTests.cpp ****     for (int i = 0; i < RUN_NUM; i++) {
 947              		.loc 1 176 5
 948              	.LVL106:
 949              	.LBB23:
 950              		.loc 1 176 14 is_stmt 0
 951 062c 93040000 		li	s1,0
 952              	.LVL107:
 953              	.L53:
 954              		.loc 1 176 23 is_stmt 1 discriminator 1
 955 0630 93074000 		li	a5,4
 956 0634 63C89702 		bgt	s1,a5,.L51
 957              	.LBB24:
 177:src/kernel/slabTests.cpp ****         struct data_s private_data;
 958              		.loc 1 177 9
 178:src/kernel/slabTests.cpp ****         private_data = *(struct data_s*) data;
 959              		.loc 1 178 9
 960              		.loc 1 178 22 is_stmt 0
 961 0638 83370900 		ld	a5,0(s2)
 962 063c 233CF4FA 		sd	a5,-72(s0)
 963 0640 83378900 		ld	a5,8(s2)
 964 0644 2330F4FC 		sd	a5,-64(s0)
 965 0648 83370901 		ld	a5,16(s2)
 966 064c 2334F4FC 		sd	a5,-56(s0)
 179:src/kernel/slabTests.cpp ****         private_data.id = i;
 967              		.loc 1 179 9 is_stmt 1
 968              		.loc 1 179 25 is_stmt 0
 969 0650 232C94FA 		sw	s1,-72(s0)
 180:src/kernel/slabTests.cpp ****         work(&private_data);
 970              		.loc 1 180 9 is_stmt 1
 971              		.loc 1 180 13 is_stmt 0
 972 0654 130584FB 		addi	a0,s0,-72
 973 0658 E7800900 		jalr	s3
GAS LISTING /tmp/ccaspmL3.s 			page 23


 974              	.LVL108:
 975              	.LBE24:
 176:src/kernel/slabTests.cpp ****         struct data_s private_data;
 976              		.loc 1 176 5 is_stmt 1
 977 065c 9B841400 		addiw	s1,s1,1
 978              	.LVL109:
 979 0660 6FF01FFD 		j	.L53
 980              	.LVL110:
 981              	.L51:
 982              	.LBE23:
 181:src/kernel/slabTests.cpp ****     }
 182:src/kernel/slabTests.cpp **** }
 983              		.loc 1 182 1 is_stmt 0
 984 0664 83308104 		ld	ra,72(sp)
 985              		.cfi_restore 1
 986 0668 03340104 		ld	s0,64(sp)
 987              		.cfi_restore 8
 988              		.cfi_def_cfa 2, 80
 989 066c 83348103 		ld	s1,56(sp)
 990              		.cfi_restore 9
 991              	.LVL111:
 992 0670 03390103 		ld	s2,48(sp)
 993              		.cfi_restore 18
 994              	.LVL112:
 995 0674 83398102 		ld	s3,40(sp)
 996              		.cfi_restore 19
 997              	.LVL113:
 998 0678 13010105 		addi	sp,sp,80
 999              		.cfi_def_cfa_offset 0
 1000 067c 67800000 		jr	ra
 1001              		.cfi_endproc
 1002              	.LFE14:
 1004              		.section	.rodata.str1.8
 1005 0063 00000000 		.align	3
 1005      00
 1006              	.LC7:
 1007 0068 73686172 		.string	"shared object"
 1007      6564206F 
 1007      626A6563 
 1007      7400
 1008              		.text
 1009              		.align	2
 1010              		.globl	_Z7testOS2v
 1012              	_Z7testOS2v:
 1013              	.LFB15:
 183:src/kernel/slabTests.cpp **** 
 184:src/kernel/slabTests.cpp **** void testOS2()
 185:src/kernel/slabTests.cpp **** {
 1014              		.loc 1 185 1 is_stmt 1
 1015              		.cfi_startproc
 1016 0680 130101FC 		addi	sp,sp,-64
 1017              		.cfi_def_cfa_offset 64
 1018 0684 233C1102 		sd	ra,56(sp)
 1019 0688 23388102 		sd	s0,48(sp)
 1020 068c 23349102 		sd	s1,40(sp)
 1021              		.cfi_offset 1, -8
 1022              		.cfi_offset 8, -16
GAS LISTING /tmp/ccaspmL3.s 			page 24


 1023              		.cfi_offset 9, -24
 1024 0690 13040104 		addi	s0,sp,64
 1025              		.cfi_def_cfa 8, 0
 186:src/kernel/slabTests.cpp ****     kmem_cache_t *shared = kmem_cache_create("shared object", shared_size, construct, nullptr);
 1026              		.loc 1 186 5
 1027              		.loc 1 186 45 is_stmt 0
 1028 0694 93060000 		li	a3,0
 1029 0698 17060000 		lla	a2,_Z9constructPv
 1029      13060600 
 1030 06a0 93057000 		li	a1,7
 1031 06a4 17050000 		lla	a0,.LC7
 1031      13050500 
 1032 06ac 97000000 		call	_Z17kmem_cache_createPKcmPFvPvES3_@plt
 1032      E7800000 
 1033              	.LVL114:
 1034 06b4 93040500 		mv	s1,a0
 1035              	.LVL115:
 187:src/kernel/slabTests.cpp **** 
 188:src/kernel/slabTests.cpp ****     struct data_s data;
 1036              		.loc 1 188 5 is_stmt 1
 189:src/kernel/slabTests.cpp ****     data.shared = shared;
 1037              		.loc 1 189 5
 1038              		.loc 1 189 17 is_stmt 0
 1039 06b8 2338A4FC 		sd	a0,-48(s0)
 190:src/kernel/slabTests.cpp ****     data.iterations = ITERATIONS;
 1040              		.loc 1 190 5 is_stmt 1
 1041              		.loc 1 190 21 is_stmt 0
 1042 06bc 9307803E 		li	a5,1000
 1043 06c0 232CF4FC 		sw	a5,-40(s0)
 191:src/kernel/slabTests.cpp ****     runs(work, &data, RUN_NUM);
 1044              		.loc 1 191 5 is_stmt 1
 1045              		.loc 1 191 9 is_stmt 0
 1046 06c4 13065000 		li	a2,5
 1047 06c8 930584FC 		addi	a1,s0,-56
 1048 06cc 17050000 		lla	a0,_Z4workPv
 1048      13050500 
 1049 06d4 97000000 		call	_Z4runsPFvPvEP6data_si
 1049      E7800000 
 1050              	.LVL116:
 192:src/kernel/slabTests.cpp **** 
 193:src/kernel/slabTests.cpp ****     kmem_cache_destroy(shared);
 1051              		.loc 1 193 5 is_stmt 1
 1052              		.loc 1 193 23 is_stmt 0
 1053 06dc 13850400 		mv	a0,s1
 1054 06e0 97000000 		call	_Z18kmem_cache_destroyP12kmem_cache_s@plt
 1054      E7800000 
 1055              	.LVL117:
 194:src/kernel/slabTests.cpp **** }...
 1056              		.loc 1 194 1
 1057 06e8 83308103 		ld	ra,56(sp)
 1058              		.cfi_restore 1
 1059 06ec 03340103 		ld	s0,48(sp)
 1060              		.cfi_restore 8
 1061              		.cfi_def_cfa 2, 64
 1062 06f0 83348102 		ld	s1,40(sp)
 1063              		.cfi_restore 9
 1064              	.LVL118:
GAS LISTING /tmp/ccaspmL3.s 			page 25


 1065 06f4 13010104 		addi	sp,sp,64
 1066              		.cfi_def_cfa_offset 0
 1067 06f8 67800000 		jr	ra
 1068              		.cfi_endproc
 1069              	.LFE15:
 1071              		.section	.rodata.str1.8
 1072 0076 0000     		.align	3
 1073              	.LC8:
 1074 0078 74635F30 		.string	"tc_0"
 1074      00
 1075 007d 000000   		.align	3
 1076              	.LC9:
 1077 0080 74635F31 		.string	"tc_1"
 1077      00
 1078 0085 000000   		.align	3
 1079              	.LC10:
 1080 0088 74635F32 		.string	"tc_2"
 1080      00
 1081 008d 000000   		.align	3
 1082              	.LC11:
 1083 0090 74635F33 		.string	"tc_3"
 1083      00
 1084 0095 000000   		.align	3
 1085              	.LC12:
 1086 0098 74635F34 		.string	"tc_4"
 1086      00
 1087              		.section	.data.rel.ro.local,"aw"
 1088              		.align	3
 1089              		.set	.LANCHOR0,. + 0
 1092              	_ZL11CACHE_NAMES:
 1093 0000 00000000 		.dword	.LC8
 1093      00000000 
 1094 0008 00000000 		.dword	.LC9
 1094      00000000 
 1095 0010 00000000 		.dword	.LC10
 1095      00000000 
 1096 0018 00000000 		.dword	.LC11
 1096      00000000 
 1097 0020 00000000 		.dword	.LC12
 1097      00000000 
 1098              		.text
 1099              	.Letext0:
 1100              		.file 2 "src/kernel/../../h/../lib/hw.h"
 1101              		.file 3 "src/kernel/../../h/slabAllocator.hpp"
 1102              		.file 4 "src/kernel/../../h/PCB.hpp"
 1103              		.file 5 "src/kernel/../../h/KSemaphore.hpp"
 1104              		.file 6 "src/kernel/../../h/KConsole.hpp"
GAS LISTING /tmp/ccaspmL3.s 			page 26


DEFINED SYMBOLS
                            *ABS*:0000000000000000 slabTests.cpp
     /tmp/ccaspmL3.s:9      .text:0000000000000000 _Z12slabInitTestv
     /tmp/ccaspmL3.s:13     .text:0000000000000000 .L0 
     /tmp/ccaspmL3.s:14     .text:0000000000000000 .L0 
     /tmp/ccaspmL3.s:15     .text:0000000000000004 .L0 
     /tmp/ccaspmL3.s:18     .text:000000000000000c .L0 
     /tmp/ccaspmL3.s:19     .text:000000000000000c .L0 
     /tmp/ccaspmL3.s:21     .text:0000000000000010 .L0 
     /tmp/ccaspmL3.s:23     .text:0000000000000010 .L0 
     /tmp/ccaspmL3.s:24     .text:0000000000000010 .L0 
     /tmp/ccaspmL3.s:30     .text:0000000000000028 .L0 
     /tmp/ccaspmL3.s:31     .text:000000000000002c .L0 
     /tmp/ccaspmL3.s:33     .text:0000000000000030 .L0 
     /tmp/ccaspmL3.s:34     .text:0000000000000030 .L0 
     /tmp/ccaspmL3.s:36     .text:0000000000000034 .L0 
     /tmp/ccaspmL3.s:38     .text:0000000000000038 .L0 
     /tmp/ccaspmL3.s:55     .text:0000000000000038 _Z19slabCacheCreateTestv
     /tmp/ccaspmL3.s:58     .text:0000000000000038 .L0 
     /tmp/ccaspmL3.s:59     .text:0000000000000038 .L0 
     /tmp/ccaspmL3.s:60     .text:000000000000003c .L0 
     /tmp/ccaspmL3.s:65     .text:000000000000004c .L0 
     /tmp/ccaspmL3.s:66     .text:000000000000004c .L0 
     /tmp/ccaspmL3.s:67     .text:000000000000004c .L0 
     /tmp/ccaspmL3.s:68     .text:000000000000004c .L0 
     /tmp/ccaspmL3.s:70     .text:0000000000000050 .L0 
     /tmp/ccaspmL3.s:72     .text:0000000000000050 .L0 
     /tmp/ccaspmL3.s:73     .text:0000000000000050 .L0 
     /tmp/ccaspmL3.s:79     .text:0000000000000068 .L0 
     /tmp/ccaspmL3.s:80     .text:0000000000000068 .L0 
     /tmp/ccaspmL3.s:89     .text:0000000000000088 .L0 
     /tmp/ccaspmL3.s:90     .text:0000000000000088 .L0 
     /tmp/ccaspmL3.s:99     .text:00000000000000a8 .L0 
     /tmp/ccaspmL3.s:100    .text:00000000000000a8 .L0 
     /tmp/ccaspmL3.s:108    .text:00000000000000c4 .L0 
     /tmp/ccaspmL3.s:110    .text:00000000000000c8 .L0 
     /tmp/ccaspmL3.s:112    .text:00000000000000cc .L0 
     /tmp/ccaspmL3.s:114    .text:00000000000000d0 .L0 
     /tmp/ccaspmL3.s:115    .text:00000000000000d0 .L0 
     /tmp/ccaspmL3.s:119    .text:00000000000000d8 .L0 
     /tmp/ccaspmL3.s:120    .text:00000000000000dc .L0 
     /tmp/ccaspmL3.s:122    .text:00000000000000e0 .L0 
     /tmp/ccaspmL3.s:123    .text:00000000000000e0 .L0 
     /tmp/ccaspmL3.s:125    .text:00000000000000e4 .L0 
     /tmp/ccaspmL3.s:128    .text:00000000000000e8 .L0 
     /tmp/ccaspmL3.s:131    .text:00000000000000ec .L0 
     /tmp/ccaspmL3.s:133    .text:00000000000000f0 .L0 
     /tmp/ccaspmL3.s:139    .text:00000000000000f0 _Z20slabCacheCreateTest2v
     /tmp/ccaspmL3.s:142    .text:00000000000000f0 .L0 
     /tmp/ccaspmL3.s:143    .text:00000000000000f0 .L0 
     /tmp/ccaspmL3.s:144    .text:00000000000000f4 .L0 
     /tmp/ccaspmL3.s:149    .text:0000000000000104 .L0 
     /tmp/ccaspmL3.s:150    .text:0000000000000104 .L0 
     /tmp/ccaspmL3.s:151    .text:0000000000000104 .L0 
     /tmp/ccaspmL3.s:152    .text:0000000000000104 .L0 
     /tmp/ccaspmL3.s:154    .text:0000000000000108 .L0 
     /tmp/ccaspmL3.s:156    .text:0000000000000108 .L0 
GAS LISTING /tmp/ccaspmL3.s 			page 27


     /tmp/ccaspmL3.s:157    .text:0000000000000108 .L0 
     /tmp/ccaspmL3.s:163    .text:0000000000000120 .L0 
     /tmp/ccaspmL3.s:165    .text:0000000000000120 .L0 
     /tmp/ccaspmL3.s:166    .text:0000000000000120 .L0 
     /tmp/ccaspmL3.s:169    .text:0000000000000124 .L0 
     /tmp/ccaspmL3.s:174    .text:0000000000000128 .L0 
     /tmp/ccaspmL3.s:177    .text:0000000000000130 .L0 
     /tmp/ccaspmL3.s:178    .text:0000000000000130 .L0 
     /tmp/ccaspmL3.s:187    .text:0000000000000150 .L0 
     /tmp/ccaspmL3.s:194    .text:0000000000000158 .L0 
     /tmp/ccaspmL3.s:195    .text:0000000000000158 .L0 
     /tmp/ccaspmL3.s:198    .text:0000000000000160 .L0 
     /tmp/ccaspmL3.s:199    .text:0000000000000160 .L0 
     /tmp/ccaspmL3.s:203    .text:000000000000016c .L0 
     /tmp/ccaspmL3.s:204    .text:000000000000016c .L0 
     /tmp/ccaspmL3.s:207    .text:0000000000000174 .L0 
     /tmp/ccaspmL3.s:208    .text:0000000000000178 .L0 
     /tmp/ccaspmL3.s:210    .text:000000000000017c .L0 
     /tmp/ccaspmL3.s:211    .text:000000000000017c .L0 
     /tmp/ccaspmL3.s:213    .text:0000000000000180 .L0 
     /tmp/ccaspmL3.s:216    .text:0000000000000184 .L0 
     /tmp/ccaspmL3.s:219    .text:0000000000000188 .L0 
     /tmp/ccaspmL3.s:221    .text:000000000000018c .L0 
     /tmp/ccaspmL3.s:238    .text:000000000000018c _Z11testKmallocv
     /tmp/ccaspmL3.s:241    .text:000000000000018c .L0 
     /tmp/ccaspmL3.s:242    .text:000000000000018c .L0 
     /tmp/ccaspmL3.s:243    .text:0000000000000190 .L0 
     /tmp/ccaspmL3.s:251    .text:00000000000001ac .L0 
     /tmp/ccaspmL3.s:252    .text:00000000000001ac .L0 
     /tmp/ccaspmL3.s:253    .text:00000000000001ac .L0 
     /tmp/ccaspmL3.s:254    .text:00000000000001ac .L0 
     /tmp/ccaspmL3.s:255    .text:00000000000001ac .L0 
     /tmp/ccaspmL3.s:256    .text:00000000000001ac .L0 
     /tmp/ccaspmL3.s:257    .text:00000000000001ac .L0 
     /tmp/ccaspmL3.s:259    .text:00000000000001b0 .L0 
     /tmp/ccaspmL3.s:261    .text:00000000000001b0 .L0 
     /tmp/ccaspmL3.s:262    .text:00000000000001b0 .L0 
     /tmp/ccaspmL3.s:268    .text:00000000000001c0 .L0 
     /tmp/ccaspmL3.s:270    .text:00000000000001c0 .L0 
     /tmp/ccaspmL3.s:271    .text:00000000000001c0 .L0 
     /tmp/ccaspmL3.s:274    .text:00000000000001c4 .L0 
     /tmp/ccaspmL3.s:281    .text:00000000000001cc .L0 
     /tmp/ccaspmL3.s:285    .text:00000000000001d0 .L0 
     /tmp/ccaspmL3.s:290    .text:00000000000001d4 .L0 
     /tmp/ccaspmL3.s:294    .text:00000000000001dc .L0 
     /tmp/ccaspmL3.s:295    .text:00000000000001dc .L0 
     /tmp/ccaspmL3.s:300    .text:00000000000001ec .L0 
     /tmp/ccaspmL3.s:301    .text:00000000000001ec .L0 
     /tmp/ccaspmL3.s:304    .text:00000000000001f0 .L0 
     /tmp/ccaspmL3.s:308    .text:00000000000001f8 .L0 
     /tmp/ccaspmL3.s:310    .text:00000000000001fc .L0 
     /tmp/ccaspmL3.s:312    .text:0000000000000200 .L0 
     /tmp/ccaspmL3.s:313    .text:0000000000000200 .L0 
     /tmp/ccaspmL3.s:318    .text:0000000000000210 .L0 
     /tmp/ccaspmL3.s:319    .text:0000000000000210 .L0 
     /tmp/ccaspmL3.s:325    .text:0000000000000228 .L0 
     /tmp/ccaspmL3.s:326    .text:0000000000000228 .L0 
GAS LISTING /tmp/ccaspmL3.s 			page 28


     /tmp/ccaspmL3.s:337    .text:0000000000000244 .L0 
     /tmp/ccaspmL3.s:341    .text:0000000000000248 .L0 
     /tmp/ccaspmL3.s:345    .text:0000000000000250 .L0 
     /tmp/ccaspmL3.s:352    .text:0000000000000258 .L0 
     /tmp/ccaspmL3.s:356    .text:000000000000025c .L0 
     /tmp/ccaspmL3.s:358    .text:0000000000000260 .L0 
     /tmp/ccaspmL3.s:359    .text:0000000000000260 .L0 
     /tmp/ccaspmL3.s:362    .text:0000000000000268 .L0 
     /tmp/ccaspmL3.s:366    .text:0000000000000274 .L0 
     /tmp/ccaspmL3.s:373    .text:000000000000027c .L0 
     /tmp/ccaspmL3.s:374    .text:000000000000027c .L0 
     /tmp/ccaspmL3.s:377    .text:0000000000000284 .L0 
     /tmp/ccaspmL3.s:378    .text:0000000000000288 .L0 
     /tmp/ccaspmL3.s:380    .text:000000000000028c .L0 
     /tmp/ccaspmL3.s:381    .text:000000000000028c .L0 
     /tmp/ccaspmL3.s:383    .text:0000000000000290 .L0 
     /tmp/ccaspmL3.s:386    .text:0000000000000294 .L0 
     /tmp/ccaspmL3.s:389    .text:0000000000000298 .L0 
     /tmp/ccaspmL3.s:391    .text:000000000000029c .L0 
     /tmp/ccaspmL3.s:394    .text:00000000000002a0 .L0 
     /tmp/ccaspmL3.s:397    .text:00000000000002a4 .L0 
     /tmp/ccaspmL3.s:399    .text:00000000000002a8 .L0 
     /tmp/ccaspmL3.s:405    .text:00000000000002a8 _Z12testKmalloc2v
     /tmp/ccaspmL3.s:408    .text:00000000000002a8 .L0 
     /tmp/ccaspmL3.s:409    .text:00000000000002a8 .L0 
     /tmp/ccaspmL3.s:410    .text:00000000000002ac .L0 
     /tmp/ccaspmL3.s:416    .text:00000000000002c0 .L0 
     /tmp/ccaspmL3.s:417    .text:00000000000002c0 .L0 
     /tmp/ccaspmL3.s:418    .text:00000000000002c0 .L0 
     /tmp/ccaspmL3.s:419    .text:00000000000002c0 .L0 
     /tmp/ccaspmL3.s:420    .text:00000000000002c0 .L0 
     /tmp/ccaspmL3.s:422    .text:00000000000002c4 .L0 
     /tmp/ccaspmL3.s:425    .text:00000000000002c4 .L0 
     /tmp/ccaspmL3.s:427    .text:00000000000002c4 .L0 
     /tmp/ccaspmL3.s:428    .text:00000000000002c4 .L0 
     /tmp/ccaspmL3.s:431    .text:00000000000002c8 .L0 
     /tmp/ccaspmL3.s:439    .text:00000000000002d0 .L0 
     /tmp/ccaspmL3.s:440    .text:00000000000002d0 .L0 
     /tmp/ccaspmL3.s:445    .text:00000000000002e0 .L0 
     /tmp/ccaspmL3.s:446    .text:00000000000002e0 .L0 
     /tmp/ccaspmL3.s:452    .text:00000000000002f8 .L0 
     /tmp/ccaspmL3.s:453    .text:00000000000002f8 .L0 
     /tmp/ccaspmL3.s:459    .text:0000000000000310 .L0 
     /tmp/ccaspmL3.s:460    .text:0000000000000310 .L0 
     /tmp/ccaspmL3.s:461    .text:0000000000000310 .L0 
     /tmp/ccaspmL3.s:467    .text:0000000000000314 .L0 
     /tmp/ccaspmL3.s:471    .text:0000000000000318 .L0 
     /tmp/ccaspmL3.s:474    .text:000000000000031c .L0 
     /tmp/ccaspmL3.s:478    .text:0000000000000320 .L0 
     /tmp/ccaspmL3.s:482    .text:0000000000000328 .L0 
     /tmp/ccaspmL3.s:483    .text:0000000000000328 .L0 
     /tmp/ccaspmL3.s:488    .text:0000000000000338 .L0 
     /tmp/ccaspmL3.s:491    .text:000000000000033c .L0 
     /tmp/ccaspmL3.s:499    .text:0000000000000344 .L0 
     /tmp/ccaspmL3.s:500    .text:0000000000000348 .L0 
     /tmp/ccaspmL3.s:502    .text:000000000000034c .L0 
     /tmp/ccaspmL3.s:503    .text:000000000000034c .L0 
GAS LISTING /tmp/ccaspmL3.s 			page 29


     /tmp/ccaspmL3.s:505    .text:0000000000000350 .L0 
     /tmp/ccaspmL3.s:507    .text:0000000000000354 .L0 
     /tmp/ccaspmL3.s:510    .text:0000000000000358 .L0 
     /tmp/ccaspmL3.s:513    .text:000000000000035c .L0 
     /tmp/ccaspmL3.s:515    .text:0000000000000360 .L0 
     /tmp/ccaspmL3.s:521    .text:0000000000000360 _Z6memsetPKvii
     /tmp/ccaspmL3.s:524    .text:0000000000000360 .L0 
     /tmp/ccaspmL3.s:526    .text:0000000000000360 .L0 
     /tmp/ccaspmL3.s:527    .text:0000000000000364 .L0 
     /tmp/ccaspmL3.s:529    .text:0000000000000368 .L0 
     /tmp/ccaspmL3.s:531    .text:000000000000036c .L0 
     /tmp/ccaspmL3.s:535    .text:000000000000036c .L0 
     /tmp/ccaspmL3.s:536    .text:000000000000036c .L0 
     /tmp/ccaspmL3.s:540    .text:0000000000000370 .L0 
     /tmp/ccaspmL3.s:542    .text:0000000000000374 .L0 
     /tmp/ccaspmL3.s:543    .text:0000000000000374 .L0 
     /tmp/ccaspmL3.s:545    .text:0000000000000378 .L0 
     /tmp/ccaspmL3.s:547    .text:000000000000037c .L0 
     /tmp/ccaspmL3.s:554    .text:0000000000000384 .L0 
     /tmp/ccaspmL3.s:555    .text:0000000000000388 .L0 
     /tmp/ccaspmL3.s:556    .text:0000000000000388 .L0 
     /tmp/ccaspmL3.s:558    .text:000000000000038c .L0 
     /tmp/ccaspmL3.s:560    .text:0000000000000390 .L0 
     /tmp/ccaspmL3.s:566    .text:0000000000000390 _Z9constructPv
     /tmp/ccaspmL3.s:569    .text:0000000000000390 .L0 
     /tmp/ccaspmL3.s:571    .text:0000000000000390 .L0 
     /tmp/ccaspmL3.s:572    .text:0000000000000394 .L0 
     /tmp/ccaspmL3.s:575    .text:000000000000039c .L0 
     /tmp/ccaspmL3.s:576    .text:000000000000039c .L0 
     /tmp/ccaspmL3.s:578    .text:00000000000003a0 .L0 
     /tmp/ccaspmL3.s:580    .text:00000000000003a0 .L0 
     /tmp/ccaspmL3.s:581    .text:00000000000003a0 .L0 
     /tmp/ccaspmL3.s:586    .text:00000000000003b0 .L0 
     /tmp/ccaspmL3.s:587    .text:00000000000003b4 .L0 
     /tmp/ccaspmL3.s:589    .text:00000000000003b8 .L0 
     /tmp/ccaspmL3.s:590    .text:00000000000003b8 .L0 
     /tmp/ccaspmL3.s:592    .text:00000000000003bc .L0 
     /tmp/ccaspmL3.s:594    .text:00000000000003c0 .L0 
     /tmp/ccaspmL3.s:600    .text:00000000000003c0 _Z5checkPvm
     /tmp/ccaspmL3.s:603    .text:00000000000003c0 .L0 
     /tmp/ccaspmL3.s:605    .text:00000000000003c0 .L0 
     /tmp/ccaspmL3.s:606    .text:00000000000003c4 .L0 
     /tmp/ccaspmL3.s:608    .text:00000000000003c8 .L0 
     /tmp/ccaspmL3.s:610    .text:00000000000003cc .L0 
     /tmp/ccaspmL3.s:614    .text:00000000000003d0 .L0 
     /tmp/ccaspmL3.s:616    .text:00000000000003d0 .L0 
     /tmp/ccaspmL3.s:617    .text:00000000000003d0 .L0 
     /tmp/ccaspmL3.s:620    .text:00000000000003d4 .L0 
     /tmp/ccaspmL3.s:627    .text:00000000000003dc .L0 
     /tmp/ccaspmL3.s:631    .text:00000000000003e0 .L0 
     /tmp/ccaspmL3.s:633    .text:00000000000003e4 .L0 
     /tmp/ccaspmL3.s:634    .text:00000000000003e4 .L0 
     /tmp/ccaspmL3.s:637    .text:00000000000003ec .L0 
     /tmp/ccaspmL3.s:640    .text:00000000000003f4 .L0 
     /tmp/ccaspmL3.s:647    .text:00000000000003fc .L0 
     /tmp/ccaspmL3.s:648    .text:00000000000003fc .L0 
     /tmp/ccaspmL3.s:649    .text:0000000000000400 .L0 
GAS LISTING /tmp/ccaspmL3.s 			page 30


     /tmp/ccaspmL3.s:650    .text:0000000000000400 .L0 
     /tmp/ccaspmL3.s:652    .text:0000000000000404 .L0 
     /tmp/ccaspmL3.s:654    .text:0000000000000408 .L0 
     /tmp/ccaspmL3.s:665    .text:0000000000000408 _Z4workPv
     /tmp/ccaspmL3.s:668    .text:0000000000000408 .L0 
     /tmp/ccaspmL3.s:670    .text:0000000000000408 .L0 
     /tmp/ccaspmL3.s:671    .text:000000000000040c .L0 
     /tmp/ccaspmL3.s:683    .text:0000000000000438 .L0 
     /tmp/ccaspmL3.s:684    .text:0000000000000438 .L0 
     /tmp/ccaspmL3.s:685    .text:0000000000000438 .L0 
     /tmp/ccaspmL3.s:686    .text:0000000000000438 .L0 
     /tmp/ccaspmL3.s:687    .text:0000000000000438 .L0 
     /tmp/ccaspmL3.s:688    .text:0000000000000438 .L0 
     /tmp/ccaspmL3.s:689    .text:0000000000000438 .L0 
     /tmp/ccaspmL3.s:690    .text:0000000000000438 .L0 
     /tmp/ccaspmL3.s:691    .text:0000000000000438 .L0 
     /tmp/ccaspmL3.s:692    .text:0000000000000438 .L0 
     /tmp/ccaspmL3.s:693    .text:0000000000000438 .L0 
     /tmp/ccaspmL3.s:695    .text:000000000000043c .L0 
     /tmp/ccaspmL3.s:697    .text:000000000000043c .L0 
     /tmp/ccaspmL3.s:698    .text:000000000000043c .L0 
     /tmp/ccaspmL3.s:706    .text:0000000000000454 .L0 
     /tmp/ccaspmL3.s:707    .text:0000000000000454 .L0 
     /tmp/ccaspmL3.s:708    .text:0000000000000454 .L0 
     /tmp/ccaspmL3.s:710    .text:0000000000000458 .L0 
     /tmp/ccaspmL3.s:713    .text:000000000000045c .L0 
     /tmp/ccaspmL3.s:714    .text:000000000000045c .L0 
     /tmp/ccaspmL3.s:719    .text:000000000000046c .L0 
     /tmp/ccaspmL3.s:730    .text:000000000000048c .L0 
     /tmp/ccaspmL3.s:731    .text:000000000000048c .L0 
     /tmp/ccaspmL3.s:733    .text:0000000000000490 .L0 
     /tmp/ccaspmL3.s:740    .text:00000000000004a0 .L0 
     /tmp/ccaspmL3.s:743    .text:00000000000004a4 .L0 
     /tmp/ccaspmL3.s:749    .text:00000000000004ac .L0 
     /tmp/ccaspmL3.s:750    .text:00000000000004ac .L0 
     /tmp/ccaspmL3.s:753    .text:00000000000004b4 .L0 
     /tmp/ccaspmL3.s:757    .text:00000000000004c0 .L0 
     /tmp/ccaspmL3.s:759    .text:00000000000004c4 .L0 
     /tmp/ccaspmL3.s:760    .text:00000000000004c4 .L0 
     /tmp/ccaspmL3.s:762    .text:00000000000004c8 .L0 
     /tmp/ccaspmL3.s:763    .text:00000000000004c8 .L0 
     /tmp/ccaspmL3.s:769    .text:00000000000004d8 .L0 
     /tmp/ccaspmL3.s:770    .text:00000000000004d8 .L0 
     /tmp/ccaspmL3.s:773    .text:00000000000004dc .L0 
     /tmp/ccaspmL3.s:777    .text:00000000000004e0 .L0 
     /tmp/ccaspmL3.s:779    .text:00000000000004e4 .L0 
     /tmp/ccaspmL3.s:780    .text:00000000000004e4 .L0 
     /tmp/ccaspmL3.s:783    .text:00000000000004ec .L0 
     /tmp/ccaspmL3.s:785    .text:00000000000004f0 .L0 
     /tmp/ccaspmL3.s:786    .text:00000000000004f0 .L0 
     /tmp/ccaspmL3.s:788    .text:00000000000004f4 .L0 
     /tmp/ccaspmL3.s:791    .text:00000000000004fc .L0 
     /tmp/ccaspmL3.s:795    .text:0000000000000508 .L0 
     /tmp/ccaspmL3.s:797    .text:000000000000050c .L0 
     /tmp/ccaspmL3.s:798    .text:000000000000050c .L0 
     /tmp/ccaspmL3.s:800    .text:0000000000000510 .L0 
     /tmp/ccaspmL3.s:801    .text:0000000000000510 .L0 
GAS LISTING /tmp/ccaspmL3.s 			page 31


     /tmp/ccaspmL3.s:805    .text:000000000000051c .L0 
     /tmp/ccaspmL3.s:807    .text:0000000000000520 .L0 
     /tmp/ccaspmL3.s:808    .text:0000000000000520 .L0 
     /tmp/ccaspmL3.s:815    .text:0000000000000534 .L0 
     /tmp/ccaspmL3.s:816    .text:0000000000000534 .L0 
     /tmp/ccaspmL3.s:820    .text:0000000000000540 .L0 
     /tmp/ccaspmL3.s:821    .text:0000000000000540 .L0 
     /tmp/ccaspmL3.s:827    .text:0000000000000550 .L0 
     /tmp/ccaspmL3.s:832    .text:0000000000000558 .L0 
     /tmp/ccaspmL3.s:836    .text:0000000000000560 .L0 
     /tmp/ccaspmL3.s:837    .text:0000000000000560 .L0 
     /tmp/ccaspmL3.s:842    .text:0000000000000570 .L0 
     /tmp/ccaspmL3.s:843    .text:0000000000000570 .L0 
     /tmp/ccaspmL3.s:848    .text:0000000000000580 .L0 
     /tmp/ccaspmL3.s:852    .text:0000000000000584 .L0 
     /tmp/ccaspmL3.s:854    .text:0000000000000588 .L0 
     /tmp/ccaspmL3.s:855    .text:0000000000000588 .L0 
     /tmp/ccaspmL3.s:858    .text:0000000000000590 .L0 
     /tmp/ccaspmL3.s:860    .text:0000000000000594 .L0 
     /tmp/ccaspmL3.s:862    .text:0000000000000598 .L0 
     /tmp/ccaspmL3.s:866    .text:00000000000005a0 .L0 
     /tmp/ccaspmL3.s:869    .text:00000000000005a8 .L0 
     /tmp/ccaspmL3.s:874    .text:00000000000005b0 .L0 
     /tmp/ccaspmL3.s:875    .text:00000000000005b0 .L0 
     /tmp/ccaspmL3.s:879    .text:00000000000005bc .L0 
     /tmp/ccaspmL3.s:880    .text:00000000000005bc .L0 
     /tmp/ccaspmL3.s:884    .text:00000000000005c8 .L0 
     /tmp/ccaspmL3.s:885    .text:00000000000005c8 .L0 
     /tmp/ccaspmL3.s:889    .text:00000000000005d4 .L0 
     /tmp/ccaspmL3.s:890    .text:00000000000005d8 .L0 
     /tmp/ccaspmL3.s:892    .text:00000000000005dc .L0 
     /tmp/ccaspmL3.s:893    .text:00000000000005dc .L0 
     /tmp/ccaspmL3.s:896    .text:00000000000005e0 .L0 
     /tmp/ccaspmL3.s:898    .text:00000000000005e4 .L0 
     /tmp/ccaspmL3.s:901    .text:00000000000005e8 .L0 
     /tmp/ccaspmL3.s:904    .text:00000000000005ec .L0 
     /tmp/ccaspmL3.s:907    .text:00000000000005f0 .L0 
     /tmp/ccaspmL3.s:909    .text:00000000000005f4 .L0 
     /tmp/ccaspmL3.s:911    .text:00000000000005f8 .L0 
     /tmp/ccaspmL3.s:913    .text:00000000000005fc .L0 
     /tmp/ccaspmL3.s:915    .text:0000000000000600 .L0 
     /tmp/ccaspmL3.s:917    .text:0000000000000604 .L0 
     /tmp/ccaspmL3.s:920    .text:0000000000000608 .L0 
     /tmp/ccaspmL3.s:926    .text:0000000000000608 _Z4runsPFvPvEP6data_si
     /tmp/ccaspmL3.s:929    .text:0000000000000608 .L0 
     /tmp/ccaspmL3.s:931    .text:0000000000000608 .L0 
     /tmp/ccaspmL3.s:932    .text:000000000000060c .L0 
     /tmp/ccaspmL3.s:938    .text:0000000000000620 .L0 
     /tmp/ccaspmL3.s:939    .text:0000000000000620 .L0 
     /tmp/ccaspmL3.s:940    .text:0000000000000620 .L0 
     /tmp/ccaspmL3.s:941    .text:0000000000000620 .L0 
     /tmp/ccaspmL3.s:942    .text:0000000000000620 .L0 
     /tmp/ccaspmL3.s:944    .text:0000000000000624 .L0 
     /tmp/ccaspmL3.s:950    .text:000000000000062c .L0 
     /tmp/ccaspmL3.s:951    .text:000000000000062c .L0 
     /tmp/ccaspmL3.s:955    .text:0000000000000630 .L0 
     /tmp/ccaspmL3.s:959    .text:0000000000000638 .L0 
GAS LISTING /tmp/ccaspmL3.s 			page 32


     /tmp/ccaspmL3.s:960    .text:0000000000000638 .L0 
     /tmp/ccaspmL3.s:961    .text:0000000000000638 .L0 
     /tmp/ccaspmL3.s:968    .text:0000000000000650 .L0 
     /tmp/ccaspmL3.s:969    .text:0000000000000650 .L0 
     /tmp/ccaspmL3.s:971    .text:0000000000000654 .L0 
     /tmp/ccaspmL3.s:972    .text:0000000000000654 .L0 
     /tmp/ccaspmL3.s:977    .text:000000000000065c .L0 
     /tmp/ccaspmL3.s:984    .text:0000000000000664 .L0 
     /tmp/ccaspmL3.s:985    .text:0000000000000668 .L0 
     /tmp/ccaspmL3.s:987    .text:000000000000066c .L0 
     /tmp/ccaspmL3.s:988    .text:000000000000066c .L0 
     /tmp/ccaspmL3.s:990    .text:0000000000000670 .L0 
     /tmp/ccaspmL3.s:993    .text:0000000000000674 .L0 
     /tmp/ccaspmL3.s:996    .text:0000000000000678 .L0 
     /tmp/ccaspmL3.s:999    .text:000000000000067c .L0 
     /tmp/ccaspmL3.s:1001   .text:0000000000000680 .L0 
     /tmp/ccaspmL3.s:1012   .text:0000000000000680 _Z7testOS2v
     /tmp/ccaspmL3.s:1015   .text:0000000000000680 .L0 
     /tmp/ccaspmL3.s:1016   .text:0000000000000680 .L0 
     /tmp/ccaspmL3.s:1017   .text:0000000000000684 .L0 
     /tmp/ccaspmL3.s:1021   .text:0000000000000690 .L0 
     /tmp/ccaspmL3.s:1022   .text:0000000000000690 .L0 
     /tmp/ccaspmL3.s:1023   .text:0000000000000690 .L0 
     /tmp/ccaspmL3.s:1025   .text:0000000000000694 .L0 
     /tmp/ccaspmL3.s:1027   .text:0000000000000694 .L0 
     /tmp/ccaspmL3.s:1028   .text:0000000000000694 .L0 
     /tmp/ccaspmL3.s:1037   .text:00000000000006b8 .L0 
     /tmp/ccaspmL3.s:1038   .text:00000000000006b8 .L0 
     /tmp/ccaspmL3.s:1039   .text:00000000000006b8 .L0 
     /tmp/ccaspmL3.s:1041   .text:00000000000006bc .L0 
     /tmp/ccaspmL3.s:1042   .text:00000000000006bc .L0 
     /tmp/ccaspmL3.s:1045   .text:00000000000006c4 .L0 
     /tmp/ccaspmL3.s:1046   .text:00000000000006c4 .L0 
     /tmp/ccaspmL3.s:1052   .text:00000000000006dc .L0 
     /tmp/ccaspmL3.s:1053   .text:00000000000006dc .L0 
     /tmp/ccaspmL3.s:1057   .text:00000000000006e8 .L0 
     /tmp/ccaspmL3.s:1058   .text:00000000000006ec .L0 
     /tmp/ccaspmL3.s:1060   .text:00000000000006f0 .L0 
     /tmp/ccaspmL3.s:1061   .text:00000000000006f0 .L0 
     /tmp/ccaspmL3.s:1063   .text:00000000000006f4 .L0 
     /tmp/ccaspmL3.s:1066   .text:00000000000006f8 .L0 
     /tmp/ccaspmL3.s:1068   .text:00000000000006fc .L0 
     /tmp/ccaspmL3.s:1089   .data.rel.ro.local:0000000000000000 .LANCHOR0
     /tmp/ccaspmL3.s:1092   .data.rel.ro.local:0000000000000000 _ZL11CACHE_NAMES
     /tmp/ccaspmL3.s:1105   .text:00000000000006fc .L0 
     /tmp/ccaspmL3.s:25     .text:0000000000000014 .L0 
     /tmp/ccaspmL3.s:74     .text:0000000000000054 .L0 
     /tmp/ccaspmL3.s:43     .rodata.str1.8:0000000000000000 .LC0
     /tmp/ccaspmL3.s:83     .text:0000000000000074 .L0 
     /tmp/ccaspmL3.s:46     .rodata.str1.8:0000000000000010 .LC1
     /tmp/ccaspmL3.s:93     .text:0000000000000094 .L0 
     /tmp/ccaspmL3.s:49     .rodata.str1.8:0000000000000020 .LC2
     /tmp/ccaspmL3.s:103    .text:00000000000000b4 .L0 
     /tmp/ccaspmL3.s:158    .text:000000000000010c .L0 
     /tmp/ccaspmL3.s:181    .text:000000000000013c .L0 
     /tmp/ccaspmL3.s:226    .rodata.str1.8:0000000000000030 .LC3
     /tmp/ccaspmL3.s:313    .text:0000000000000200 .L0 
GAS LISTING /tmp/ccaspmL3.s 			page 33


     /tmp/ccaspmL3.s:229    .rodata.str1.8:0000000000000040 .LC4
     /tmp/ccaspmL3.s:321    .text:0000000000000218 .L0 
     /tmp/ccaspmL3.s:232    .rodata.str1.8:0000000000000048 .LC5
     /tmp/ccaspmL3.s:328    .text:0000000000000230 .L0 
     /tmp/ccaspmL3.s:440    .text:00000000000002d0 .L0 
     /tmp/ccaspmL3.s:448    .text:00000000000002e8 .L0 
     /tmp/ccaspmL3.s:455    .text:0000000000000300 .L0 
     /tmp/ccaspmL3.s:715    .text:0000000000000460 .L0 
     /tmp/ccaspmL3.s:659    .rodata.str1.8:0000000000000050 .LC6
     /tmp/ccaspmL3.s:808    .text:0000000000000520 .L0 
     /tmp/ccaspmL3.s:837    .text:0000000000000560 .L0 
     /tmp/ccaspmL3.s:1029   .text:0000000000000698 .L0 
     /tmp/ccaspmL3.s:1006   .rodata.str1.8:0000000000000068 .LC7
     /tmp/ccaspmL3.s:1031   .text:00000000000006a4 .L0 
     /tmp/ccaspmL3.s:1048   .text:00000000000006cc .L0 
     /tmp/ccaspmL3.s:117    .text:00000000000000d8 .L3
     /tmp/ccaspmL3.s:191    .text:0000000000000158 .L7
     /tmp/ccaspmL3.s:171    .text:0000000000000128 .L8
     /tmp/ccaspmL3.s:339    .text:0000000000000248 .L15
     /tmp/ccaspmL3.s:333    .text:0000000000000244 .L12
     /tmp/ccaspmL3.s:277    .text:00000000000001cc .L13
     /tmp/ccaspmL3.s:347    .text:0000000000000258 .L17
     /tmp/ccaspmL3.s:286    .text:00000000000001d4 .L14
     /tmp/ccaspmL3.s:370    .text:000000000000027c .L16
     /tmp/ccaspmL3.s:353    .text:000000000000025c .L11
     /tmp/ccaspmL3.s:469    .text:0000000000000318 .L24
     /tmp/ccaspmL3.s:495    .text:0000000000000344 .L19
     /tmp/ccaspmL3.s:463    .text:0000000000000314 .L21
     /tmp/ccaspmL3.s:434    .text:00000000000002d0 .L26
     /tmp/ccaspmL3.s:475    .text:0000000000000320 .L23
     /tmp/ccaspmL3.s:551    .text:0000000000000384 .L27
     /tmp/ccaspmL3.s:538    .text:0000000000000370 .L29
     /tmp/ccaspmL3.s:629    .text:00000000000003e0 .L36
     /tmp/ccaspmL3.s:644    .text:00000000000003fc .L34
     /tmp/ccaspmL3.s:624    .text:00000000000003dc .L35
     /tmp/ccaspmL3.s:775    .text:00000000000004e0 .L43
     /tmp/ccaspmL3.s:812    .text:0000000000000534 .L40
     /tmp/ccaspmL3.s:746    .text:00000000000004ac .L41
     /tmp/ccaspmL3.s:767    .text:00000000000004d8 .L42
     /tmp/ccaspmL3.s:850    .text:0000000000000584 .L47
     /tmp/ccaspmL3.s:864    .text:00000000000005a0 .L45
     /tmp/ccaspmL3.s:871    .text:00000000000005b0 .L44
     /tmp/ccaspmL3.s:830    .text:0000000000000558 .L48
     /tmp/ccaspmL3.s:840    .text:0000000000000570 .L46
     /tmp/ccaspmL3.s:834    .text:0000000000000560 .L50
     /tmp/ccaspmL3.s:981    .text:0000000000000664 .L51
     /tmp/ccaspmL3.s:953    .text:0000000000000630 .L53
     /tmp/ccaspmL3.s:1073   .rodata.str1.8:0000000000000078 .LC8
     /tmp/ccaspmL3.s:1076   .rodata.str1.8:0000000000000080 .LC9
     /tmp/ccaspmL3.s:1079   .rodata.str1.8:0000000000000088 .LC10
     /tmp/ccaspmL3.s:1082   .rodata.str1.8:0000000000000090 .LC11
     /tmp/ccaspmL3.s:1085   .rodata.str1.8:0000000000000098 .LC12
     /tmp/ccaspmL3.s:3375   .debug_abbrev:0000000000000000 .Ldebug_abbrev0
     /tmp/ccaspmL3.s:4895   .debug_str:00000000000004a1 .LASF230
     /tmp/ccaspmL3.s:4953   .debug_str:000000000000075f .LASF231
     /tmp/ccaspmL3.s:4893   .debug_str:0000000000000483 .LASF232
     /tmp/ccaspmL3.s:5      .text:0000000000000000 .Ltext0
GAS LISTING /tmp/ccaspmL3.s 			page 34


     /tmp/ccaspmL3.s:1099   .text:00000000000006fc .Letext0
     /tmp/ccaspmL3.s:4749   .debug_line:0000000000000000 .Ldebug_line0
     /tmp/ccaspmL3.s:4919   .debug_str:0000000000000641 .LASF0
     /tmp/ccaspmL3.s:4943   .debug_str:0000000000000710 .LASF1
     /tmp/ccaspmL3.s:5057   .debug_str:0000000000000b33 .LASF2
     /tmp/ccaspmL3.s:5071   .debug_str:0000000000000ba7 .LASF4
     /tmp/ccaspmL3.s:4929   .debug_str:0000000000000687 .LASF3
     /tmp/ccaspmL3.s:4767   .debug_str:0000000000000080 .LASF5
     /tmp/ccaspmL3.s:5017   .debug_str:00000000000009bc .LASF6
     /tmp/ccaspmL3.s:4935   .debug_str:00000000000006cf .LASF7
     /tmp/ccaspmL3.s:4891   .debug_str:0000000000000473 .LASF8
     /tmp/ccaspmL3.s:4899   .debug_str:0000000000000585 .LASF9
     /tmp/ccaspmL3.s:4811   .debug_str:0000000000000255 .LASF10
     /tmp/ccaspmL3.s:5107   .debug_str:0000000000000cf3 .LASF11
     /tmp/ccaspmL3.s:4881   .debug_str:0000000000000435 .LASF12
     /tmp/ccaspmL3.s:4825   .debug_str:000000000000029b .LASF13
     /tmp/ccaspmL3.s:4809   .debug_str:0000000000000245 .LASF14
     /tmp/ccaspmL3.s:5113   .debug_str:0000000000000d3a .LASF15
     /tmp/ccaspmL3.s:4863   .debug_str:00000000000003a7 .LASF16
     /tmp/ccaspmL3.s:5101   .debug_str:0000000000000ca1 .LASF17
     /tmp/ccaspmL3.s:4877   .debug_str:0000000000000417 .LASF18
     /tmp/ccaspmL3.s:4875   .debug_str:000000000000040a .LASF233
     /tmp/ccaspmL3.s:5135   .debug_str:0000000000000da2 .LASF234
     /tmp/ccaspmL3.s:5127   .debug_str:0000000000000d81 .LASF19
     /tmp/ccaspmL3.s:5089   .debug_str:0000000000000c35 .LASF20
     /tmp/ccaspmL3.s:4817   .debug_str:0000000000000276 .LASF21
     /tmp/ccaspmL3.s:4795   .debug_str:0000000000000195 .LASF22
     /tmp/ccaspmL3.s:5021   .debug_str:00000000000009d6 .LASF23
     /tmp/ccaspmL3.s:4815   .debug_str:000000000000026d .LASF24
     /tmp/ccaspmL3.s:5123   .debug_str:0000000000000d6e .LASF92
     /tmp/ccaspmL3.s:4911   .debug_str:000000000000060b .LASF25
     /tmp/ccaspmL3.s:4771   .debug_str:000000000000008c .LASF31
     /tmp/ccaspmL3.s:5155   .debug_str:0000000000000e2a .LASF235
     /tmp/ccaspmL3.s:5007   .debug_str:000000000000096c .LASF26
     /tmp/ccaspmL3.s:4941   .debug_str:000000000000070b .LASF27
     /tmp/ccaspmL3.s:5213   .debug_str:0000000000000fe3 .LASF29
     /tmp/ccaspmL3.s:5209   .debug_str:0000000000000fc7 .LASF28
     /tmp/ccaspmL3.s:5145   .debug_str:0000000000000dd7 .LASF30
     /tmp/ccaspmL3.s:4843   .debug_str:000000000000033d .LASF54
     /tmp/ccaspmL3.s:4779   .debug_str:00000000000000cc .LASF56
     /tmp/ccaspmL3.s:5141   .debug_str:0000000000000dbd .LASF32
     /tmp/ccaspmL3.s:5081   .debug_str:0000000000000bec .LASF33
     /tmp/ccaspmL3.s:4949   .debug_str:000000000000073a .LASF36
     /tmp/ccaspmL3.s:4959   .debug_str:000000000000079e .LASF38
     /tmp/ccaspmL3.s:5219   .debug_str:0000000000001028 .LASF34
     /tmp/ccaspmL3.s:4867   .debug_str:00000000000003d0 .LASF35
     /tmp/ccaspmL3.s:4761   .debug_str:0000000000000059 .LASF80
     /tmp/ccaspmL3.s:4925   .debug_str:000000000000066d .LASF82
     /tmp/ccaspmL3.s:5083   .debug_str:0000000000000bfd .LASF37
     /tmp/ccaspmL3.s:4987   .debug_str:000000000000088a .LASF39
     /tmp/ccaspmL3.s:5067   .debug_str:0000000000000b78 .LASF40
     /tmp/ccaspmL3.s:5105   .debug_str:0000000000000cd7 .LASF41
     /tmp/ccaspmL3.s:4989   .debug_str:000000000000089d .LASF42
     /tmp/ccaspmL3.s:4755   .debug_str:000000000000001b .LASF43
     /tmp/ccaspmL3.s:5199   .debug_str:0000000000000f81 .LASF44
     /tmp/ccaspmL3.s:5015   .debug_str:00000000000009a2 .LASF45
     /tmp/ccaspmL3.s:5099   .debug_str:0000000000000c93 .LASF46
GAS LISTING /tmp/ccaspmL3.s 			page 35


     /tmp/ccaspmL3.s:5033   .debug_str:0000000000000a1a .LASF47
     /tmp/ccaspmL3.s:4839   .debug_str:0000000000000326 .LASF48
     /tmp/ccaspmL3.s:4883   .debug_str:0000000000000444 .LASF49
     /tmp/ccaspmL3.s:5051   .debug_str:0000000000000b06 .LASF50
     /tmp/ccaspmL3.s:4967   .debug_str:00000000000007ef .LASF51
     /tmp/ccaspmL3.s:5203   .debug_str:0000000000000fa1 .LASF52
     /tmp/ccaspmL3.s:4931   .debug_str:0000000000000699 .LASF53
     /tmp/ccaspmL3.s:5095   .debug_str:0000000000000c76 .LASF55
     /tmp/ccaspmL3.s:5211   .debug_str:0000000000000fcd .LASF57
     /tmp/ccaspmL3.s:5125   .debug_str:0000000000000d76 .LASF58
     /tmp/ccaspmL3.s:4837   .debug_str:0000000000000310 .LASF59
     /tmp/ccaspmL3.s:5079   .debug_str:0000000000000be4 .LASF60
     /tmp/ccaspmL3.s:4921   .debug_str:000000000000064e .LASF61
     /tmp/ccaspmL3.s:4997   .debug_str:00000000000008d7 .LASF62
     /tmp/ccaspmL3.s:4831   .debug_str:00000000000002e8 .LASF63
     /tmp/ccaspmL3.s:5037   .debug_str:0000000000000a49 .LASF64
     /tmp/ccaspmL3.s:5227   .debug_str:0000000000001060 .LASF65
     /tmp/ccaspmL3.s:5001   .debug_str:000000000000091c .LASF66
     /tmp/ccaspmL3.s:5065   .debug_str:0000000000000b65 .LASF67
     /tmp/ccaspmL3.s:5085   .debug_str:0000000000000c06 .LASF68
     /tmp/ccaspmL3.s:5173   .debug_str:0000000000000ec0 .LASF69
     /tmp/ccaspmL3.s:4975   .debug_str:0000000000000823 .LASF70
     /tmp/ccaspmL3.s:5157   .debug_str:0000000000000e42 .LASF71
     /tmp/ccaspmL3.s:5103   .debug_str:0000000000000cb7 .LASF72
     /tmp/ccaspmL3.s:5011   .debug_str:000000000000097b .LASF73
     /tmp/ccaspmL3.s:5003   .debug_str:000000000000093d .LASF74
     /tmp/ccaspmL3.s:4853   .debug_str:000000000000035f .LASF75
     /tmp/ccaspmL3.s:4923   .debug_str:0000000000000662 .LASF76
     /tmp/ccaspmL3.s:4979   .debug_str:0000000000000860 .LASF77
     /tmp/ccaspmL3.s:5147   .debug_str:0000000000000de7 .LASF78
     /tmp/ccaspmL3.s:4887   .debug_str:000000000000045a .LASF79
     /tmp/ccaspmL3.s:5207   .debug_str:0000000000000fb9 .LASF81
     /tmp/ccaspmL3.s:4789   .debug_str:000000000000014c .LASF83
     /tmp/ccaspmL3.s:4871   .debug_str:00000000000003e6 .LASF84
     /tmp/ccaspmL3.s:4805   .debug_str:0000000000000205 .LASF85
     /tmp/ccaspmL3.s:5197   .debug_str:0000000000000f7a .LASF86
     /tmp/ccaspmL3.s:4803   .debug_str:00000000000001f4 .LASF87
     /tmp/ccaspmL3.s:4759   .debug_str:0000000000000054 .LASF88
     /tmp/ccaspmL3.s:5167   .debug_str:0000000000000ea3 .LASF89
     /tmp/ccaspmL3.s:4965   .debug_str:00000000000007e7 .LASF90
     /tmp/ccaspmL3.s:4851   .debug_str:0000000000000359 .LASF91
     /tmp/ccaspmL3.s:5153   .debug_str:0000000000000e22 .LASF93
     /tmp/ccaspmL3.s:4793   .debug_str:0000000000000184 .LASF94
     /tmp/ccaspmL3.s:4971   .debug_str:000000000000080a .LASF95
     /tmp/ccaspmL3.s:5041   .debug_str:0000000000000a7a .LASF96
     /tmp/ccaspmL3.s:4897   .debug_str:0000000000000571 .LASF97
     /tmp/ccaspmL3.s:5061   .debug_str:0000000000000b4d .LASF98
     /tmp/ccaspmL3.s:5039   .debug_str:0000000000000a66 .LASF99
     /tmp/ccaspmL3.s:4845   .debug_str:0000000000000346 .LASF100
     /tmp/ccaspmL3.s:5093   .debug_str:0000000000000c5f .LASF101
     /tmp/ccaspmL3.s:5117   .debug_str:0000000000000d59 .LASF102
     /tmp/ccaspmL3.s:4993   .debug_str:00000000000008b5 .LASF103
     /tmp/ccaspmL3.s:4753   .debug_str:000000000000000f .LASF104
     /tmp/ccaspmL3.s:5063   .debug_str:0000000000000b59 .LASF105
     /tmp/ccaspmL3.s:4973   .debug_str:000000000000080f .LASF106
     /tmp/ccaspmL3.s:5053   .debug_str:0000000000000b13 .LASF107
     /tmp/ccaspmL3.s:4813   .debug_str:0000000000000264 .LASF108
GAS LISTING /tmp/ccaspmL3.s 			page 36


     /tmp/ccaspmL3.s:4819   .debug_str:0000000000000280 .LASF109
     /tmp/ccaspmL3.s:4991   .debug_str:00000000000008ac .LASF110
     /tmp/ccaspmL3.s:5131   .debug_str:0000000000000d8c .LASF111
     /tmp/ccaspmL3.s:4751   .debug_str:0000000000000000 .LASF112
     /tmp/ccaspmL3.s:4903   .debug_str:00000000000005a4 .LASF113
     /tmp/ccaspmL3.s:5151   .debug_str:0000000000000e13 .LASF114
     /tmp/ccaspmL3.s:5109   .debug_str:0000000000000d06 .LASF115
     /tmp/ccaspmL3.s:5087   .debug_str:0000000000000c24 .LASF116
     /tmp/ccaspmL3.s:4829   .debug_str:00000000000002c4 .LASF117
     /tmp/ccaspmL3.s:5005   .debug_str:000000000000095c .LASF118
     /tmp/ccaspmL3.s:5035   .debug_str:0000000000000a26 .LASF119
     /tmp/ccaspmL3.s:4917   .debug_str:000000000000063b .LASF120
     /tmp/ccaspmL3.s:5223   .debug_str:000000000000103b .LASF121
     /tmp/ccaspmL3.s:4763   .debug_str:0000000000000069 .LASF122
     /tmp/ccaspmL3.s:4963   .debug_str:00000000000007cd .LASF123
     /tmp/ccaspmL3.s:5217   .debug_str:0000000000001018 .LASF124
     /tmp/ccaspmL3.s:5073   .debug_str:0000000000000bae .LASF125
     /tmp/ccaspmL3.s:5115   .debug_str:0000000000000d46 .LASF126
     /tmp/ccaspmL3.s:5069   .debug_str:0000000000000b81 .LASF127
     /tmp/ccaspmL3.s:5225   .debug_str:0000000000001053 .LASF128
     /tmp/ccaspmL3.s:4939   .debug_str:00000000000006e7 .LASF129
     /tmp/ccaspmL3.s:4995   .debug_str:00000000000008ce .LASF130
     /tmp/ccaspmL3.s:4791   .debug_str:0000000000000174 .LASF131
     /tmp/ccaspmL3.s:5149   .debug_str:0000000000000df1 .LASF132
     /tmp/ccaspmL3.s:5075   .debug_str:0000000000000bd1 .LASF133
     /tmp/ccaspmL3.s:4757   .debug_str:0000000000000035 .LASF134
     /tmp/ccaspmL3.s:4785   .debug_str:0000000000000116 .LASF135
     /tmp/ccaspmL3.s:5045   .debug_str:0000000000000aaa .LASF136
     /tmp/ccaspmL3.s:5013   .debug_str:000000000000098f .LASF137
     /tmp/ccaspmL3.s:4909   .debug_str:00000000000005f7 .LASF138
     /tmp/ccaspmL3.s:5009   .debug_str:0000000000000971 .LASF139
     /tmp/ccaspmL3.s:4945   .debug_str:0000000000000723 .LASF140
     /tmp/ccaspmL3.s:5031   .debug_str:0000000000000a10 .LASF141
     /tmp/ccaspmL3.s:5175   .debug_str:0000000000000ed3 .LASF142
     /tmp/ccaspmL3.s:5121   .debug_str:0000000000000d65 .LASF143
     /tmp/ccaspmL3.s:5133   .debug_str:0000000000000d97 .LASF144
     /tmp/ccaspmL3.s:5169   .debug_str:0000000000000ea8 .LASF145
     /tmp/ccaspmL3.s:5183   .debug_str:0000000000000efc .LASF146
     /tmp/ccaspmL3.s:4981   .debug_str:0000000000000868 .LASF147
     /tmp/ccaspmL3.s:5029   .debug_str:0000000000000a04 .LASF148
     /tmp/ccaspmL3.s:5097   .debug_str:0000000000000c81 .LASF151
     /tmp/ccaspmL3.s:5091   .debug_str:0000000000000c3d .LASF153
     /tmp/ccaspmL3.s:5163   .debug_str:0000000000000e7e .LASF149
     /tmp/ccaspmL3.s:5195   .debug_str:0000000000000f58 .LASF150
     /tmp/ccaspmL3.s:5161   .debug_str:0000000000000e6c .LASF152
     /tmp/ccaspmL3.s:4773   .debug_str:0000000000000097 .LASF154
     /tmp/ccaspmL3.s:5165   .debug_str:0000000000000e90 .LASF155
     /tmp/ccaspmL3.s:4801   .debug_str:00000000000001d1 .LASF156
     /tmp/ccaspmL3.s:4861   .debug_str:0000000000000394 .LASF157
     /tmp/ccaspmL3.s:4797   .debug_str:000000000000019e .LASF158
     /tmp/ccaspmL3.s:4781   .debug_str:00000000000000df .LASF159
     /tmp/ccaspmL3.s:5181   .debug_str:0000000000000eed .LASF160
     /tmp/ccaspmL3.s:4977   .debug_str:0000000000000841 .LASF161
     /tmp/ccaspmL3.s:5193   .debug_str:0000000000000f3f .LASF162
     /tmp/ccaspmL3.s:4933   .debug_str:00000000000006a6 .LASF163
     /tmp/ccaspmL3.s:4951   .debug_str:0000000000000747 .LASF164
     /tmp/ccaspmL3.s:5215   .debug_str:0000000000000fef .LASF165
GAS LISTING /tmp/ccaspmL3.s 			page 37


     /tmp/ccaspmL3.s:4879   .debug_str:0000000000000424 .LASF166
     /tmp/ccaspmL3.s:5187   .debug_str:0000000000000f15 .LASF167
     /tmp/ccaspmL3.s:4889   .debug_str:0000000000000466 .LASF168
     /tmp/ccaspmL3.s:5205   .debug_str:0000000000000fac .LASF169
     /tmp/ccaspmL3.s:4901   .debug_str:0000000000000593 .LASF170
     /tmp/ccaspmL3.s:4777   .debug_str:00000000000000c0 .LASF171
     /tmp/ccaspmL3.s:4955   .debug_str:0000000000000778 .LASF172
     /tmp/ccaspmL3.s:4969   .debug_str:00000000000007fe .LASF173
     /tmp/ccaspmL3.s:4783   .debug_str:00000000000000fa .LASF174
     /tmp/ccaspmL3.s:5129   .debug_str:0000000000000d87 .LASF175
     /tmp/ccaspmL3.s:4775   .debug_str:00000000000000b9 .LASF176
     /tmp/ccaspmL3.s:5019   .debug_str:00000000000009cf .LASF177
     /tmp/ccaspmL3.s:5055   .debug_str:0000000000000b28 .LASF178
     /tmp/ccaspmL3.s:5025   .debug_str:00000000000009eb .LASF179
     /tmp/ccaspmL3.s:4857   .debug_str:0000000000000384 .LASF180
     /tmp/ccaspmL3.s:5221   .debug_str:0000000000001035 .LASF181
     /tmp/ccaspmL3.s:4937   .debug_str:00000000000006e2 .LASF182
     /tmp/ccaspmL3.s:5179   .debug_str:0000000000000ee5 .LASF183
     /tmp/ccaspmL3.s:5185   .debug_str:0000000000000f09 .LASF185
     /tmp/ccaspmL3.s:1013   .text:0000000000000680 .LFB15
     /tmp/ccaspmL3.s:1069   .text:00000000000006fc .LFE15
     /tmp/ccaspmL3.s:4239   .debug_loc:0000000000000000 .LLST30
     /tmp/ccaspmL3.s:1033   .text:00000000000006b4 .LVL114
     /tmp/ccaspmL3.s:1050   .text:00000000000006dc .LVL116
     /tmp/ccaspmL3.s:1055   .text:00000000000006e8 .LVL117
     /tmp/ccaspmL3.s:5139   .debug_str:0000000000000db8 .LASF184
     /tmp/ccaspmL3.s:4905   .debug_str:00000000000005c6 .LASF186
     /tmp/ccaspmL3.s:927    .text:0000000000000608 .LFB14
     /tmp/ccaspmL3.s:1002   .text:0000000000000680 .LFE14
     /tmp/ccaspmL3.s:4769   .debug_str:0000000000000087 .LASF187
     /tmp/ccaspmL3.s:4246   .debug_loc:0000000000000023 .LLST26
     /tmp/ccaspmL3.s:4264   .debug_loc:000000000000006f .LLST27
     /tmp/ccaspmL3.s:4282   .debug_loc:00000000000000bb .LLST28
     /tmp/ccaspmL3.s:949    .text:000000000000062c .LBB23
     /tmp/ccaspmL3.s:982    .text:0000000000000664 .LBE23
     /tmp/ccaspmL3.s:4296   .debug_loc:00000000000000f4 .LLST29
     /tmp/ccaspmL3.s:957    .text:0000000000000638 .LBB24
     /tmp/ccaspmL3.s:975    .text:000000000000065c .LBE24
     /tmp/ccaspmL3.s:5027   .debug_str:00000000000009f7 .LASF188
     /tmp/ccaspmL3.s:974    .text:000000000000065c .LVL108
     /tmp/ccaspmL3.s:4983   .debug_str:0000000000000874 .LASF189
     /tmp/ccaspmL3.s:666    .text:0000000000000408 .LFB13
     /tmp/ccaspmL3.s:921    .text:0000000000000608 .LFE13
     /tmp/ccaspmL3.s:5077   .debug_str:0000000000000bde .LASF190
     /tmp/ccaspmL3.s:4312   .debug_loc:000000000000013e .LLST20
     /tmp/ccaspmL3.s:4835   .debug_str:000000000000030b .LASF191
     /tmp/ccaspmL3.s:4326   .debug_loc:0000000000000177 .LLST21
     /tmp/ccaspmL3.s:5171   .debug_str:0000000000000eb4 .LASF192
     /tmp/ccaspmL3.s:4342   .debug_loc:00000000000001c1 .LLST22
     /tmp/ccaspmL3.s:4391   .debug_loc:000000000000024c .LLST23
     /tmp/ccaspmL3.s:4823   .debug_str:0000000000000296 .LASF236
     /tmp/ccaspmL3.s:4693   .debug_ranges:0000000000000000 .Ldebug_ranges0
     /tmp/ccaspmL3.s:4402   .debug_loc:0000000000000282 .LLST24
     /tmp/ccaspmL3.s:755    .text:00000000000004c0 .LVL83
     /tmp/ccaspmL3.s:766    .text:00000000000004d8 .LVL84
     /tmp/ccaspmL3.s:793    .text:0000000000000508 .LVL87
     /tmp/ccaspmL3.s:803    .text:000000000000051c .LVL88
GAS LISTING /tmp/ccaspmL3.s 			page 38


     /tmp/ccaspmL3.s:810    .text:0000000000000530 .LVL89
     /tmp/ccaspmL3.s:825    .text:0000000000000550 .LBB22
     /tmp/ccaspmL3.s:872    .text:00000000000005b0 .LBE22
     /tmp/ccaspmL3.s:4409   .debug_loc:00000000000002a5 .LLST25
     /tmp/ccaspmL3.s:839    .text:0000000000000570 .LVL93
     /tmp/ccaspmL3.s:846    .text:0000000000000580 .LVL94
     /tmp/ccaspmL3.s:867    .text:00000000000005a8 .LVL96
     /tmp/ccaspmL3.s:726    .text:0000000000000488 .LVL78
     /tmp/ccaspmL3.s:736    .text:000000000000049c .LVL81
     /tmp/ccaspmL3.s:818    .text:0000000000000540 .LVL90
     /tmp/ccaspmL3.s:824    .text:0000000000000550 .LVL91
     /tmp/ccaspmL3.s:877    .text:00000000000005bc .LVL97
     /tmp/ccaspmL3.s:882    .text:00000000000005c8 .LVL98
     /tmp/ccaspmL3.s:887    .text:00000000000005d4 .LVL99
     /tmp/ccaspmL3.s:4859   .debug_str:000000000000038e .LASF237
     /tmp/ccaspmL3.s:4985   .debug_str:000000000000087e .LASF238
     /tmp/ccaspmL3.s:601    .text:00000000000003c0 .LFB12
     /tmp/ccaspmL3.s:655    .text:0000000000000408 .LFE12
     /tmp/ccaspmL3.s:4416   .debug_loc:00000000000002c8 .LLST17
     /tmp/ccaspmL3.s:4427   .debug_loc:00000000000002fe .LLST18
     /tmp/ccaspmL3.s:4443   .debug_loc:0000000000000348 .LLST19
     /tmp/ccaspmL3.s:4869   .debug_str:00000000000003dc .LASF193
     /tmp/ccaspmL3.s:4765   .debug_str:0000000000000071 .LASF194
     /tmp/ccaspmL3.s:567    .text:0000000000000390 .LFB11
     /tmp/ccaspmL3.s:595    .text:00000000000003c0 .LFE11
     /tmp/ccaspmL3.s:4455   .debug_loc:000000000000037f .LLST16
     /tmp/ccaspmL3.s:584    .text:00000000000003b0 .LVL65
     /tmp/ccaspmL3.s:5177   .debug_str:0000000000000ede .LASF195
     /tmp/ccaspmL3.s:4873   .debug_str:00000000000003fb .LASF196
     /tmp/ccaspmL3.s:522    .text:0000000000000360 .LFB10
     /tmp/ccaspmL3.s:561    .text:0000000000000390 .LFE10
     /tmp/ccaspmL3.s:4913   .debug_str:0000000000000611 .LASF197
     /tmp/ccaspmL3.s:534    .text:000000000000036c .LBB17
     /tmp/ccaspmL3.s:552    .text:0000000000000384 .LBE17
     /tmp/ccaspmL3.s:4469   .debug_loc:00000000000003b8 .LLST15
     /tmp/ccaspmL3.s:4927   .debug_str:000000000000067a .LASF198
     /tmp/ccaspmL3.s:5111   .debug_str:0000000000000d28 .LASF199
     /tmp/ccaspmL3.s:406    .text:00000000000002a8 .LFB9
     /tmp/ccaspmL3.s:516    .text:0000000000000360 .LFE9
     /tmp/ccaspmL3.s:5119   .debug_str:0000000000000d60 .LASF200
     /tmp/ccaspmL3.s:4485   .debug_loc:0000000000000402 .LLST11
     /tmp/ccaspmL3.s:4506   .debug_loc:0000000000000460 .LLST12
     /tmp/ccaspmL3.s:4518   .debug_loc:0000000000000497 .LLST13
     /tmp/ccaspmL3.s:4529   .debug_loc:00000000000004cd .LLST14
     /tmp/ccaspmL3.s:443    .text:00000000000002e0 .LVL48
     /tmp/ccaspmL3.s:450    .text:00000000000002f8 .LVL49
     /tmp/ccaspmL3.s:457    .text:0000000000000310 .LVL50
     /tmp/ccaspmL3.s:486    .text:0000000000000338 .LVL54
     /tmp/ccaspmL3.s:4821   .debug_str:000000000000028a .LASF201
     /tmp/ccaspmL3.s:5201   .debug_str:0000000000000f90 .LASF202
     /tmp/ccaspmL3.s:239    .text:000000000000018c .LFB8
     /tmp/ccaspmL3.s:400    .text:00000000000002a8 .LFE8
     /tmp/ccaspmL3.s:4540   .debug_loc:0000000000000503 .LLST5
     /tmp/ccaspmL3.s:4841   .debug_str:0000000000000336 .LASF203
     /tmp/ccaspmL3.s:4551   .debug_loc:0000000000000539 .LLST6
     /tmp/ccaspmL3.s:4573   .debug_loc:0000000000000598 .LLST7
     /tmp/ccaspmL3.s:4585   .debug_loc:00000000000005cf .LLST8
GAS LISTING /tmp/ccaspmL3.s 			page 39


     /tmp/ccaspmL3.s:4596   .debug_loc:0000000000000605 .LLST9
     /tmp/ccaspmL3.s:298    .text:00000000000001ec .LVL27
     /tmp/ccaspmL3.s:316    .text:0000000000000210 .LVL31
     /tmp/ccaspmL3.s:323    .text:0000000000000228 .LVL32
     /tmp/ccaspmL3.s:330    .text:0000000000000240 .LVL33
     /tmp/ccaspmL3.s:350    .text:0000000000000258 .LBB10
     /tmp/ccaspmL3.s:371    .text:000000000000027c .LBE10
     /tmp/ccaspmL3.s:4608   .debug_loc:000000000000063c .LLST10
     /tmp/ccaspmL3.s:364    .text:0000000000000274 .LVL37
     /tmp/ccaspmL3.s:264    .text:00000000000001bc .LVL22
     /tmp/ccaspmL3.s:375    .text:0000000000000284 .LVL40
     /tmp/ccaspmL3.s:5159   .debug_str:0000000000000e57 .LASF204
     /tmp/ccaspmL3.s:4907   .debug_str:00000000000005dd .LASF205
     /tmp/ccaspmL3.s:140    .text:00000000000000f0 .LFB7
     /tmp/ccaspmL3.s:222    .text:000000000000018c .LFE7
     /tmp/ccaspmL3.s:4619   .debug_loc:0000000000000672 .LLST3
     /tmp/ccaspmL3.s:4639   .debug_loc:00000000000006cf .LLST4
     /tmp/ccaspmL3.s:183    .text:000000000000014c .LVL13
     /tmp/ccaspmL3.s:161    .text:0000000000000120 .LVL11
     /tmp/ccaspmL3.s:196    .text:0000000000000160 .LVL17
     /tmp/ccaspmL3.s:201    .text:000000000000016c .LVL18
     /tmp/ccaspmL3.s:205    .text:0000000000000174 .LVL19
     /tmp/ccaspmL3.s:4807   .debug_str:0000000000000231 .LASF206
     /tmp/ccaspmL3.s:4827   .debug_str:00000000000002ab .LASF207
     /tmp/ccaspmL3.s:56     .text:0000000000000038 .LFB6
     /tmp/ccaspmL3.s:134    .text:00000000000000f0 .LFE6
     /tmp/ccaspmL3.s:4655   .debug_loc:0000000000000719 .LLST0
     /tmp/ccaspmL3.s:4847   .debug_str:000000000000034b .LASF208
     /tmp/ccaspmL3.s:4662   .debug_loc:000000000000073c .LLST1
     /tmp/ccaspmL3.s:4849   .debug_str:0000000000000352 .LASF209
     /tmp/ccaspmL3.s:4673   .debug_loc:0000000000000772 .LLST2
     /tmp/ccaspmL3.s:77     .text:0000000000000068 .LVL1
     /tmp/ccaspmL3.s:85     .text:0000000000000084 .LVL2
     /tmp/ccaspmL3.s:95     .text:00000000000000a4 .LVL4
     /tmp/ccaspmL3.s:106    .text:00000000000000c4 .LVL7
     /tmp/ccaspmL3.s:116    .text:00000000000000d8 .LVL8
     /tmp/ccaspmL3.s:5023   .debug_str:00000000000009de .LASF210
     /tmp/ccaspmL3.s:5143   .debug_str:0000000000000dc5 .LASF211
     /tmp/ccaspmL3.s:10     .text:0000000000000000 .LFB5
     /tmp/ccaspmL3.s:39     .text:0000000000000038 .LFE5
     /tmp/ccaspmL3.s:28     .text:0000000000000028 .LVL0
     /tmp/ccaspmL3.s:4787   .debug_str:0000000000000129 .LASF212
     /tmp/ccaspmL3.s:5049   .debug_str:0000000000000af4 .LASF214
     /tmp/ccaspmL3.s:4999   .debug_str:00000000000008f6 .LASF213
     /tmp/ccaspmL3.s:4865   .debug_str:00000000000003bd .LASF215
     /tmp/ccaspmL3.s:4915   .debug_str:0000000000000617 .LASF216
     /tmp/ccaspmL3.s:4833   .debug_str:00000000000002fa .LASF217
     /tmp/ccaspmL3.s:5043   .debug_str:0000000000000a85 .LASF218
     /tmp/ccaspmL3.s:4799   .debug_str:00000000000001c1 .LASF219
     /tmp/ccaspmL3.s:5059   .debug_str:0000000000000b41 .LASF220
     /tmp/ccaspmL3.s:5189   .debug_str:0000000000000f27 .LASF221
     /tmp/ccaspmL3.s:5047   .debug_str:0000000000000ad1 .LASF222
     /tmp/ccaspmL3.s:5137   .debug_str:0000000000000da8 .LASF223
     /tmp/ccaspmL3.s:4947   .debug_str:000000000000072e .LASF224
     /tmp/ccaspmL3.s:4885   .debug_str:0000000000000454 .LASF225
     /tmp/ccaspmL3.s:4855   .debug_str:0000000000000368 .LASF226
     /tmp/ccaspmL3.s:4961   .debug_str:00000000000007b6 .LASF227
GAS LISTING /tmp/ccaspmL3.s 			page 40


     /tmp/ccaspmL3.s:5191   .debug_str:0000000000000f2f .LASF228
     /tmp/ccaspmL3.s:4957   .debug_str:0000000000000794 .LASF229
     /tmp/ccaspmL3.s:1035   .text:00000000000006b8 .LVL115
     /tmp/ccaspmL3.s:1064   .text:00000000000006f4 .LVL118
     /tmp/ccaspmL3.s:930    .text:0000000000000608 .LVL105
     /tmp/ccaspmL3.s:952    .text:0000000000000630 .LVL107
     /tmp/ccaspmL3.s:997    .text:0000000000000678 .LVL113
     /tmp/ccaspmL3.s:994    .text:0000000000000674 .LVL112
     /tmp/ccaspmL3.s:948    .text:000000000000062c .LVL106
     /tmp/ccaspmL3.s:978    .text:0000000000000660 .LVL109
     /tmp/ccaspmL3.s:980    .text:0000000000000664 .LVL110
     /tmp/ccaspmL3.s:991    .text:0000000000000670 .LVL111
     /tmp/ccaspmL3.s:669    .text:0000000000000408 .LVL73
     /tmp/ccaspmL3.s:724    .text:0000000000000480 .LVL77
     /tmp/ccaspmL3.s:705    .text:0000000000000454 .LVL74
     /tmp/ccaspmL3.s:745    .text:00000000000004ac .LVL82
     /tmp/ccaspmL3.s:771    .text:00000000000004dc .LVL85
     /tmp/ccaspmL3.s:774    .text:00000000000004e0 .LVL86
     /tmp/ccaspmL3.s:902    .text:00000000000005e8 .LVL102
     /tmp/ccaspmL3.s:711    .text:000000000000045c .LVL75
     /tmp/ccaspmL3.s:716    .text:0000000000000468 .LVL76
     /tmp/ccaspmL3.s:894    .text:00000000000005dc .LVL100
     /tmp/ccaspmL3.s:918    .text:0000000000000604 .LVL104
     /tmp/ccaspmL3.s:728    .text:000000000000048c .LVL79
     /tmp/ccaspmL3.s:734    .text:0000000000000494 .LVL80
     /tmp/ccaspmL3.s:905    .text:00000000000005ec .LVL103
     /tmp/ccaspmL3.s:829    .text:0000000000000558 .LVL92
     /tmp/ccaspmL3.s:899    .text:00000000000005e4 .LVL101
     /tmp/ccaspmL3.s:604    .text:00000000000003c0 .LVL66
     /tmp/ccaspmL3.s:621    .text:00000000000003d8 .LVL68
     /tmp/ccaspmL3.s:613    .text:00000000000003d0 .LVL67
     /tmp/ccaspmL3.s:623    .text:00000000000003dc .LVL69
     /tmp/ccaspmL3.s:641    .text:00000000000003f8 .LVL71
     /tmp/ccaspmL3.s:643    .text:00000000000003fc .LVL72
     /tmp/ccaspmL3.s:570    .text:0000000000000390 .LVL64
     /tmp/ccaspmL3.s:533    .text:000000000000036c .LVL60
     /tmp/ccaspmL3.s:537    .text:0000000000000370 .LVL61
     /tmp/ccaspmL3.s:548    .text:0000000000000380 .LVL62
     /tmp/ccaspmL3.s:550    .text:0000000000000384 .LVL63
     /tmp/ccaspmL3.s:424    .text:00000000000002c4 .LVL45
     /tmp/ccaspmL3.s:433    .text:00000000000002d0 .LVL46
     /tmp/ccaspmL3.s:462    .text:0000000000000314 .LVL51
     /tmp/ccaspmL3.s:511    .text:0000000000000358 .LVL58
     /tmp/ccaspmL3.s:508    .text:0000000000000354 .LVL57
     /tmp/ccaspmL3.s:468    .text:0000000000000318 .LVL52
     /tmp/ccaspmL3.s:476    .text:0000000000000320 .LVL53
     /tmp/ccaspmL3.s:492    .text:0000000000000340 .LVL55
     /tmp/ccaspmL3.s:441    .text:00000000000002d8 .LVL47
     /tmp/ccaspmL3.s:494    .text:0000000000000344 .LVL56
     /tmp/ccaspmL3.s:266    .text:00000000000001c0 .LVL23
     /tmp/ccaspmL3.s:276    .text:00000000000001cc .LVL24
     /tmp/ccaspmL3.s:392    .text:000000000000029c .LVL43
     /tmp/ccaspmL3.s:287    .text:00000000000001d4 .LVL26
     /tmp/ccaspmL3.s:302    .text:00000000000001f0 .LVL28
     /tmp/ccaspmL3.s:305    .text:00000000000001f4 .LVL29
     /tmp/ccaspmL3.s:332    .text:0000000000000244 .LVL34
     /tmp/ccaspmL3.s:384    .text:0000000000000290 .LVL41
GAS LISTING /tmp/ccaspmL3.s 			page 41


     /tmp/ccaspmL3.s:395    .text:00000000000002a0 .LVL44
     /tmp/ccaspmL3.s:282    .text:00000000000001d0 .LVL25
     /tmp/ccaspmL3.s:338    .text:0000000000000248 .LVL35
     /tmp/ccaspmL3.s:314    .text:0000000000000208 .LVL30
     /tmp/ccaspmL3.s:354    .text:000000000000025c .LVL36
     /tmp/ccaspmL3.s:367    .text:0000000000000278 .LVL38
     /tmp/ccaspmL3.s:369    .text:000000000000027c .LVL39
     /tmp/ccaspmL3.s:387    .text:0000000000000294 .LVL42
     /tmp/ccaspmL3.s:170    .text:0000000000000128 .LVL12
     /tmp/ccaspmL3.s:185    .text:0000000000000150 .LVL14
     /tmp/ccaspmL3.s:190    .text:0000000000000158 .LVL16
     /tmp/ccaspmL3.s:217    .text:0000000000000184 .LVL21
     /tmp/ccaspmL3.s:188    .text:0000000000000154 .LVL15
     /tmp/ccaspmL3.s:214    .text:0000000000000180 .LVL20
     /tmp/ccaspmL3.s:87     .text:0000000000000088 .LVL3
     /tmp/ccaspmL3.s:126    .text:00000000000000e4 .LVL9
     /tmp/ccaspmL3.s:97     .text:00000000000000a8 .LVL5
     /tmp/ccaspmL3.s:104    .text:00000000000000bc .LVL6
     /tmp/ccaspmL3.s:129    .text:00000000000000e8 .LVL10
     /tmp/ccaspmL3.s:1106   .debug_info:0000000000000000 .Ldebug_info0
     /tmp/ccaspmL3.s:164    .text:0000000000000120 .LBB2
     /tmp/ccaspmL3.s:167    .text:0000000000000124 .LBE2
     /tmp/ccaspmL3.s:172    .text:0000000000000128 .LBB3
     /tmp/ccaspmL3.s:192    .text:0000000000000158 .LBE3
     /tmp/ccaspmL3.s:269    .text:00000000000001c0 .LBB4
     /tmp/ccaspmL3.s:272    .text:00000000000001c4 .LBE4
     /tmp/ccaspmL3.s:278    .text:00000000000001cc .LBB9
     /tmp/ccaspmL3.s:349    .text:0000000000000258 .LBE9
     /tmp/ccaspmL3.s:279    .text:00000000000001cc .LBB5
     /tmp/ccaspmL3.s:335    .text:0000000000000244 .LBE5
     /tmp/ccaspmL3.s:343    .text:0000000000000250 .LBB8
     /tmp/ccaspmL3.s:348    .text:0000000000000258 .LBE8
     /tmp/ccaspmL3.s:283    .text:00000000000001d0 .LBB6
     /tmp/ccaspmL3.s:288    .text:00000000000001d4 .LBE6
     /tmp/ccaspmL3.s:292    .text:00000000000001dc .LBB7
     /tmp/ccaspmL3.s:334    .text:0000000000000244 .LBE7
     /tmp/ccaspmL3.s:426    .text:00000000000002c4 .LBB11
     /tmp/ccaspmL3.s:429    .text:00000000000002c8 .LBE11
     /tmp/ccaspmL3.s:435    .text:00000000000002d0 .LBB16
     /tmp/ccaspmL3.s:497    .text:0000000000000344 .LBE16
     /tmp/ccaspmL3.s:436    .text:00000000000002d0 .LBB12
     /tmp/ccaspmL3.s:465    .text:0000000000000314 .LBE12
     /tmp/ccaspmL3.s:472    .text:000000000000031c .LBB15
     /tmp/ccaspmL3.s:496    .text:0000000000000344 .LBE15
     /tmp/ccaspmL3.s:437    .text:00000000000002d0 .LBB13
     /tmp/ccaspmL3.s:464    .text:0000000000000314 .LBE13
     /tmp/ccaspmL3.s:480    .text:0000000000000328 .LBB14
     /tmp/ccaspmL3.s:489    .text:000000000000033c .LBE14
     /tmp/ccaspmL3.s:615    .text:00000000000003d0 .LBB18
     /tmp/ccaspmL3.s:618    .text:00000000000003d4 .LBE18
     /tmp/ccaspmL3.s:625    .text:00000000000003dc .LBB19
     /tmp/ccaspmL3.s:645    .text:00000000000003fc .LBE19
     /tmp/ccaspmL3.s:738    .text:00000000000004a0 .LBB20
     /tmp/ccaspmL3.s:741    .text:00000000000004a4 .LBE20
     /tmp/ccaspmL3.s:747    .text:00000000000004ac .LBB21
     /tmp/ccaspmL3.s:813    .text:0000000000000534 .LBE21

GAS LISTING /tmp/ccaspmL3.s 			page 42


UNDEFINED SYMBOLS
HEAP_START_ADDR
_Z9kmem_initPvi
_Z17kmem_cache_createPKcmPFvPvES3_
_Z22printSlabAllocatorInfov
_Z18kmem_cache_destroyP12kmem_cache_s
_Z7kmallocm
_ZN8KConsole15trapPrintStringEPKc
_ZN8KConsole18trapPrintStringIntEPKcmi
_Z5kfreePKv
_Z16kmem_cache_allocP12kmem_cache_s
_Z15kmem_cache_infoP12kmem_cache_s
_Z15kmem_cache_freeP12kmem_cache_sPv
