GAS LISTING /tmp/ccc39oBq.s 			page 1


   1              		.file	"slabAllocator.cpp"
   2              		.option pic
   3              		.option norelax
   4              		.text
   5              	.Ltext0:
   6              		.align	2
   7              		.globl	_Z6strcpyPKcPc
   9              	_Z6strcpyPKcPc:
  10              	.LFB5:
  11              		.file 1 "src/kernel/slabAllocator.cpp"
   1:src/kernel/slabAllocator.cpp **** #include "../../h/slabAllocator.hpp"
   2:src/kernel/slabAllocator.cpp **** #include "../../h/buddyAllocator.hpp"
   3:src/kernel/slabAllocator.cpp **** #include "../../h/KConsole.hpp"
   4:src/kernel/slabAllocator.cpp **** 
   5:src/kernel/slabAllocator.cpp **** //TODO
   6:src/kernel/slabAllocator.cpp **** //check values of the constants
   7:src/kernel/slabAllocator.cpp **** #define SLAB_ALLOCATED_LOOKUP 512
   8:src/kernel/slabAllocator.cpp **** #define CACHE_NAME_SIZE 64
   9:src/kernel/slabAllocator.cpp **** #define CACHE_BUFFER_SMALL 5
  10:src/kernel/slabAllocator.cpp **** #define CACHE_BUFFER_BIG 17
  11:src/kernel/slabAllocator.cpp **** #define CACHE_BUFFER_SIZE CACHE_BUFFER_BIG - CACHE_BUFFER_SMALL + 1
  12:src/kernel/slabAllocator.cpp **** #define CACHE_OF_CACHES_SLAB_SIZE 2
  13:src/kernel/slabAllocator.cpp **** #define NO_ERROR 0
  14:src/kernel/slabAllocator.cpp **** #define EXPAND_ERROR 0b1
  15:src/kernel/slabAllocator.cpp **** #define DESTROY_ERROR 0b10
  16:src/kernel/slabAllocator.cpp **** #define FREE_ERROR 0b100
  17:src/kernel/slabAllocator.cpp **** #define MAX_NUM_OF_OBJS SLAB_ALLOCATED_LOOKUP*8
  18:src/kernel/slabAllocator.cpp **** 
  19:src/kernel/slabAllocator.cpp **** typedef struct slab_s
  20:src/kernel/slabAllocator.cpp **** {
  21:src/kernel/slabAllocator.cpp ****     slab_s* prev;
  22:src/kernel/slabAllocator.cpp ****     slab_s* next;
  23:src/kernel/slabAllocator.cpp ****     kmem_cache_t* owner;
  24:src/kernel/slabAllocator.cpp ****     size_t numOfObjects;
  25:src/kernel/slabAllocator.cpp ****     size_t numOfAllocatedObjects;
  26:src/kernel/slabAllocator.cpp ****     unsigned char allocated[SLAB_ALLOCATED_LOOKUP];
  27:src/kernel/slabAllocator.cpp **** }slab_t;
  28:src/kernel/slabAllocator.cpp **** 
  29:src/kernel/slabAllocator.cpp **** typedef struct kmem_cache_s
  30:src/kernel/slabAllocator.cpp **** {
  31:src/kernel/slabAllocator.cpp ****     char cacheName[CACHE_NAME_SIZE];
  32:src/kernel/slabAllocator.cpp ****     slab_t* slabs_empty;
  33:src/kernel/slabAllocator.cpp ****     slab_t* slabs_full;
  34:src/kernel/slabAllocator.cpp ****     slab_t* slabs_partial;
  35:src/kernel/slabAllocator.cpp ****     size_t slab_size;
  36:src/kernel/slabAllocator.cpp ****     size_t obj_size;
  37:src/kernel/slabAllocator.cpp ****     void (*ctor)(void*);
  38:src/kernel/slabAllocator.cpp ****     void (*dtor)(void*);
  39:src/kernel/slabAllocator.cpp ****     int errors;
  40:src/kernel/slabAllocator.cpp **** }kmem_cache_t;
  41:src/kernel/slabAllocator.cpp **** 
  42:src/kernel/slabAllocator.cpp **** typedef struct slab_allocator_s
  43:src/kernel/slabAllocator.cpp **** {
  44:src/kernel/slabAllocator.cpp ****     kmem_cache_t* cachesBuffers[CACHE_BUFFER_SIZE];
  45:src/kernel/slabAllocator.cpp ****     kmem_cache_t cacheOfCaches;
  46:src/kernel/slabAllocator.cpp **** }slab_allocator_t;
  47:src/kernel/slabAllocator.cpp **** 
GAS LISTING /tmp/ccc39oBq.s 			page 2


  48:src/kernel/slabAllocator.cpp **** //singleton slab allocator
  49:src/kernel/slabAllocator.cpp **** static slab_allocator_t* slabAllocator = nullptr;
  50:src/kernel/slabAllocator.cpp **** 
  51:src/kernel/slabAllocator.cpp **** //helping functions
  52:src/kernel/slabAllocator.cpp **** void strcpy(const char* src, char* dst)
  53:src/kernel/slabAllocator.cpp **** {
  12              		.loc 1 53 1
  13              		.cfi_startproc
  14              	.LVL0:
  15 0000 130101FF 		addi	sp,sp,-16
  16              		.cfi_def_cfa_offset 16
  17 0004 23348100 		sd	s0,8(sp)
  18              		.cfi_offset 8, -8
  19 0008 13040101 		addi	s0,sp,16
  20              		.cfi_def_cfa 8, 0
  21              	.L3:
  54:src/kernel/slabAllocator.cpp ****     while(*src != '\0')
  22              		.loc 1 54 5
  23              		.loc 1 54 16
  24              		.loc 1 54 11 is_stmt 0
  25 000c 83470500 		lbu	a5,0(a0)
  26              		.loc 1 54 16
  27 0010 638A0700 		beqz	a5,.L2
  55:src/kernel/slabAllocator.cpp ****     {
  56:src/kernel/slabAllocator.cpp ****         *dst = *src;
  28              		.loc 1 56 9 is_stmt 1
  29              		.loc 1 56 14 is_stmt 0
  30 0014 2380F500 		sb	a5,0(a1)
  57:src/kernel/slabAllocator.cpp ****         src++; dst++;
  31              		.loc 1 57 9 is_stmt 1
  32              		.loc 1 57 12 is_stmt 0
  33 0018 13051500 		addi	a0,a0,1
  34              	.LVL1:
  35              		.loc 1 57 16 is_stmt 1
  36              		.loc 1 57 19 is_stmt 0
  37 001c 93851500 		addi	a1,a1,1
  38              	.LVL2:
  54:src/kernel/slabAllocator.cpp ****     while(*src != '\0')
  39              		.loc 1 54 5
  40 0020 6FF0DFFE 		j	.L3
  41              	.L2:
  58:src/kernel/slabAllocator.cpp ****     }
  59:src/kernel/slabAllocator.cpp ****     *dst = *src;
  42              		.loc 1 59 5 is_stmt 1
  43              		.loc 1 59 10 is_stmt 0
  44 0024 2380F500 		sb	a5,0(a1)
  60:src/kernel/slabAllocator.cpp **** }
  45              		.loc 1 60 1
  46 0028 03348100 		ld	s0,8(sp)
  47              		.cfi_restore 8
  48              		.cfi_def_cfa 2, 16
  49 002c 13010101 		addi	sp,sp,16
  50              		.cfi_def_cfa_offset 0
  51 0030 67800000 		jr	ra
  52              		.cfi_endproc
  53              	.LFE5:
  55              		.align	2
GAS LISTING /tmp/ccc39oBq.s 			page 3


  56              		.globl	_Z17destroy_slab_listPP6slab_s
  58              	_Z17destroy_slab_listPP6slab_s:
  59              	.LFB6:
  61:src/kernel/slabAllocator.cpp **** 
  62:src/kernel/slabAllocator.cpp **** int destroy_slab_list(slab_t** slab)
  63:src/kernel/slabAllocator.cpp **** {
  60              		.loc 1 63 1 is_stmt 1
  61              		.cfi_startproc
  62              	.LVL3:
  63 0034 130101FD 		addi	sp,sp,-48
  64              		.cfi_def_cfa_offset 48
  65 0038 23341102 		sd	ra,40(sp)
  66 003c 23308102 		sd	s0,32(sp)
  67 0040 233C9100 		sd	s1,24(sp)
  68 0044 23382101 		sd	s2,16(sp)
  69 0048 23343101 		sd	s3,8(sp)
  70 004c 23304101 		sd	s4,0(sp)
  71              		.cfi_offset 1, -8
  72              		.cfi_offset 8, -16
  73              		.cfi_offset 9, -24
  74              		.cfi_offset 18, -32
  75              		.cfi_offset 19, -40
  76              		.cfi_offset 20, -48
  77 0050 13040103 		addi	s0,sp,48
  78              		.cfi_def_cfa 8, 0
  64:src/kernel/slabAllocator.cpp ****     if(*slab == nullptr) return 0;
  79              		.loc 1 64 5
  80              		.loc 1 64 8 is_stmt 0
  81 0054 83370500 		ld	a5,0(a0)
  82              		.loc 1 64 5
  83 0058 638C0702 		beqz	a5,.L8
  84 005c 93040500 		mv	s1,a0
  65:src/kernel/slabAllocator.cpp ****     size_t sz = (*slab)->owner->slab_size;
  85              		.loc 1 65 5 is_stmt 1
  86              		.loc 1 65 26 is_stmt 0
  87 0060 83B70701 		ld	a5,16(a5)
  88              		.loc 1 65 12
  89 0064 83B98705 		ld	s3,88(a5)
  90              	.LVL4:
  66:src/kernel/slabAllocator.cpp ****     int totalBlocks = 0;
  91              		.loc 1 66 5 is_stmt 1
  92              		.loc 1 66 9 is_stmt 0
  93 0068 13090000 		li	s2,0
  94              	.LVL5:
  95              	.L7:
  67:src/kernel/slabAllocator.cpp ****     while(*slab != nullptr)
  96              		.loc 1 67 5 is_stmt 1
  97              		.loc 1 67 17
  98              		.loc 1 67 11 is_stmt 0
  99 006c 03B50400 		ld	a0,0(s1)
 100              		.loc 1 67 17
 101 0070 63020502 		beqz	a0,.L6
 102              	.LBB2:
  68:src/kernel/slabAllocator.cpp ****     {
  69:src/kernel/slabAllocator.cpp ****         slab_t* nextSlab = (*slab)->next;
 103              		.loc 1 69 9 is_stmt 1
 104              		.loc 1 69 17 is_stmt 0
GAS LISTING /tmp/ccc39oBq.s 			page 4


 105 0074 033A8500 		ld	s4,8(a0)
 106              	.LVL6:
  70:src/kernel/slabAllocator.cpp ****         buddy_free(*slab, sz);
 107              		.loc 1 70 9 is_stmt 1
 108              		.loc 1 70 19 is_stmt 0
 109 0078 93850900 		mv	a1,s3
 110 007c 97000000 		call	_Z10buddy_freePvm@plt
 110      E7800000 
 111              	.LVL7:
  71:src/kernel/slabAllocator.cpp ****         *slab = nextSlab;
 112              		.loc 1 71 9 is_stmt 1
 113              		.loc 1 71 15 is_stmt 0
 114 0084 23B04401 		sd	s4,0(s1)
  72:src/kernel/slabAllocator.cpp ****         totalBlocks+=sz;
 115              		.loc 1 72 9 is_stmt 1
 116              		.loc 1 72 20 is_stmt 0
 117 0088 3B892901 		addw	s2,s3,s2
 118              	.LVL8:
 119              	.LBE2:
  67:src/kernel/slabAllocator.cpp ****     {
 120              		.loc 1 67 5
 121 008c 6FF01FFE 		j	.L7
 122              	.LVL9:
 123              	.L8:
  64:src/kernel/slabAllocator.cpp ****     size_t sz = (*slab)->owner->slab_size;
 124              		.loc 1 64 33
 125 0090 13090000 		li	s2,0
 126              	.LVL10:
 127              	.L6:
  73:src/kernel/slabAllocator.cpp ****     }
  74:src/kernel/slabAllocator.cpp ****     return totalBlocks;
  75:src/kernel/slabAllocator.cpp **** }
 128              		.loc 1 75 1
 129 0094 13050900 		mv	a0,s2
 130 0098 83308102 		ld	ra,40(sp)
 131              		.cfi_restore 1
 132 009c 03340102 		ld	s0,32(sp)
 133              		.cfi_restore 8
 134              		.cfi_def_cfa 2, 48
 135 00a0 83348101 		ld	s1,24(sp)
 136              		.cfi_restore 9
 137 00a4 03390101 		ld	s2,16(sp)
 138              		.cfi_restore 18
 139 00a8 83398100 		ld	s3,8(sp)
 140              		.cfi_restore 19
 141 00ac 033A0100 		ld	s4,0(sp)
 142              		.cfi_restore 20
 143 00b0 13010103 		addi	sp,sp,48
 144              		.cfi_def_cfa_offset 0
 145 00b4 67800000 		jr	ra
 146              		.cfi_endproc
 147              	.LFE6:
 149              		.align	2
 150              		.globl	_Z10init_cacheP12kmem_cache_sPKcmmPFvPvES5_
 152              	_Z10init_cacheP12kmem_cache_sPKcmmPFvPvES5_:
 153              	.LFB7:
  76:src/kernel/slabAllocator.cpp **** 
GAS LISTING /tmp/ccc39oBq.s 			page 5


  77:src/kernel/slabAllocator.cpp **** void init_cache(kmem_cache_t* cachep, const char* cache_name, size_t slab_size, size_t obj_size, vo
  78:src/kernel/slabAllocator.cpp **** {
 154              		.loc 1 78 1 is_stmt 1
 155              		.cfi_startproc
 156              	.LVL11:
 157 00b8 130101FC 		addi	sp,sp,-64
 158              		.cfi_def_cfa_offset 64
 159 00bc 233C1102 		sd	ra,56(sp)
 160 00c0 23388102 		sd	s0,48(sp)
 161 00c4 23349102 		sd	s1,40(sp)
 162 00c8 23302103 		sd	s2,32(sp)
 163 00cc 233C3101 		sd	s3,24(sp)
 164 00d0 23384101 		sd	s4,16(sp)
 165 00d4 23345101 		sd	s5,8(sp)
 166              		.cfi_offset 1, -8
 167              		.cfi_offset 8, -16
 168              		.cfi_offset 9, -24
 169              		.cfi_offset 18, -32
 170              		.cfi_offset 19, -40
 171              		.cfi_offset 20, -48
 172              		.cfi_offset 21, -56
 173 00d8 13040104 		addi	s0,sp,64
 174              		.cfi_def_cfa 8, 0
 175 00dc 93040500 		mv	s1,a0
 176 00e0 13850500 		mv	a0,a1
 177              	.LVL12:
 178 00e4 930A0600 		mv	s5,a2
 179 00e8 138A0600 		mv	s4,a3
 180 00ec 93090700 		mv	s3,a4
 181 00f0 13890700 		mv	s2,a5
  79:src/kernel/slabAllocator.cpp ****     strcpy(cache_name, cachep->cacheName);
 182              		.loc 1 79 5
 183              		.loc 1 79 11 is_stmt 0
 184 00f4 93850400 		mv	a1,s1
 185              	.LVL13:
 186 00f8 97000000 		call	_Z6strcpyPKcPc
 186      E7800000 
 187              	.LVL14:
  80:src/kernel/slabAllocator.cpp ****     cachep->slab_size = slab_size;
 188              		.loc 1 80 5 is_stmt 1
 189              		.loc 1 80 23 is_stmt 0
 190 0100 23BC5405 		sd	s5,88(s1)
  81:src/kernel/slabAllocator.cpp ****     cachep->obj_size = obj_size;
 191              		.loc 1 81 5 is_stmt 1
 192              		.loc 1 81 22 is_stmt 0
 193 0104 23B04407 		sd	s4,96(s1)
  82:src/kernel/slabAllocator.cpp ****     cachep->ctor = ctor;
 194              		.loc 1 82 5 is_stmt 1
 195              		.loc 1 82 18 is_stmt 0
 196 0108 23B43407 		sd	s3,104(s1)
  83:src/kernel/slabAllocator.cpp ****     cachep->dtor = dtor;
 197              		.loc 1 83 5 is_stmt 1
 198              		.loc 1 83 18 is_stmt 0
 199 010c 23B82407 		sd	s2,112(s1)
  84:src/kernel/slabAllocator.cpp **** 
  85:src/kernel/slabAllocator.cpp ****     cachep->slabs_empty = cachep->slabs_partial = cachep->slabs_full = nullptr;
 200              		.loc 1 85 5 is_stmt 1
GAS LISTING /tmp/ccc39oBq.s 			page 6


 201              		.loc 1 85 70 is_stmt 0
 202 0110 23B40404 		sd	zero,72(s1)
 203              		.loc 1 85 49
 204 0114 23B80404 		sd	zero,80(s1)
 205              		.loc 1 85 25
 206 0118 23B00404 		sd	zero,64(s1)
  86:src/kernel/slabAllocator.cpp ****     cachep->errors = NO_ERROR;
 207              		.loc 1 86 5 is_stmt 1
 208              		.loc 1 86 20 is_stmt 0
 209 011c 23AC0406 		sw	zero,120(s1)
  87:src/kernel/slabAllocator.cpp **** }
 210              		.loc 1 87 1
 211 0120 83308103 		ld	ra,56(sp)
 212              		.cfi_restore 1
 213 0124 03340103 		ld	s0,48(sp)
 214              		.cfi_restore 8
 215              		.cfi_def_cfa 2, 64
 216 0128 83348102 		ld	s1,40(sp)
 217              		.cfi_restore 9
 218              	.LVL15:
 219 012c 03390102 		ld	s2,32(sp)
 220              		.cfi_restore 18
 221              	.LVL16:
 222 0130 83398101 		ld	s3,24(sp)
 223              		.cfi_restore 19
 224              	.LVL17:
 225 0134 033A0101 		ld	s4,16(sp)
 226              		.cfi_restore 20
 227              	.LVL18:
 228 0138 833A8100 		ld	s5,8(sp)
 229              		.cfi_restore 21
 230              	.LVL19:
 231 013c 13010104 		addi	sp,sp,64
 232              		.cfi_def_cfa_offset 0
 233 0140 67800000 		jr	ra
 234              		.cfi_endproc
 235              	.LFE7:
 237              		.section	.rodata.str1.8,"aMS",@progbits,1
 238              		.align	3
 239              	.LC0:
 240 0000 43616368 		.string	"Cache of caches"
 240      65206F66 
 240      20636163 
 240      68657300 
 241              		.text
 242              		.align	2
 243              		.globl	_Z19slab_allocator_initP14buddyAllocator
 245              	_Z19slab_allocator_initP14buddyAllocator:
 246              	.LFB8:
  88:src/kernel/slabAllocator.cpp **** 
  89:src/kernel/slabAllocator.cpp **** slab_allocator_t* slab_allocator_init(buddyAllocator *buddy)
  90:src/kernel/slabAllocator.cpp **** {
 247              		.loc 1 90 1 is_stmt 1
 248              		.cfi_startproc
 249              	.LVL20:
 250 0144 130101FE 		addi	sp,sp,-32
 251              		.cfi_def_cfa_offset 32
GAS LISTING /tmp/ccc39oBq.s 			page 7


 252 0148 233C1100 		sd	ra,24(sp)
 253 014c 23388100 		sd	s0,16(sp)
 254 0150 23349100 		sd	s1,8(sp)
 255              		.cfi_offset 1, -8
 256              		.cfi_offset 8, -16
 257              		.cfi_offset 9, -24
 258 0154 13040102 		addi	s0,sp,32
 259              		.cfi_def_cfa 8, 0
  91:src/kernel/slabAllocator.cpp ****     slab_allocator_t* slabAllocatorLocal = (slab_allocator_t*)(buddy + 1);
 260              		.loc 1 91 5
 261              		.loc 1 91 23 is_stmt 0
 262 0158 93040512 		addi	s1,a0,288
 263              	.LVL21:
  92:src/kernel/slabAllocator.cpp **** 
  93:src/kernel/slabAllocator.cpp ****     for(size_t i = 0; i < CACHE_BUFFER_SIZE;i++)
 264              		.loc 1 93 5 is_stmt 1
 265              	.LBB3:
 266              		.loc 1 93 16 is_stmt 0
 267 015c 93070000 		li	a5,0
 268 0160 6F004001 		j	.L14
 269              	.LVL22:
 270              	.L16:
  94:src/kernel/slabAllocator.cpp ****         slabAllocatorLocal->cachesBuffers[i] = nullptr;
 271              		.loc 1 94 9 is_stmt 1 discriminator 2
 272              		.loc 1 94 46 is_stmt 0 discriminator 2
 273 0164 13973700 		slli	a4,a5,3
 274 0168 3307E500 		add	a4,a0,a4
 275 016c 23300712 		sd	zero,288(a4)
  93:src/kernel/slabAllocator.cpp ****         slabAllocatorLocal->cachesBuffers[i] = nullptr;
 276              		.loc 1 93 5 is_stmt 1 discriminator 2
 277 0170 93871700 		addi	a5,a5,1
 278              	.LVL23:
 279              	.L14:
  93:src/kernel/slabAllocator.cpp ****         slabAllocatorLocal->cachesBuffers[i] = nullptr;
 280              		.loc 1 93 25 discriminator 3
 281 0174 1307C000 		li	a4,12
 282 0178 E376F7FE 		bleu	a5,a4,.L16
 283              	.LBE3:
  95:src/kernel/slabAllocator.cpp **** 
  96:src/kernel/slabAllocator.cpp ****     init_cache(&slabAllocatorLocal->cacheOfCaches, "Cache of caches", CACHE_OF_CACHES_SLAB_SIZE, si
 284              		.loc 1 96 5
 285              		.loc 1 96 15 is_stmt 0
 286 017c 93070000 		li	a5,0
 287              	.LVL24:
 288 0180 13070000 		li	a4,0
 289 0184 93060008 		li	a3,128
 290 0188 13062000 		li	a2,2
 291 018c 97050000 		lla	a1,.LC0
 291      93850500 
 292 0194 13058518 		addi	a0,a0,392
 293              	.LVL25:
 294 0198 97000000 		call	_Z10init_cacheP12kmem_cache_sPKcmmPFvPvES5_
 294      E7800000 
 295              	.LVL26:
  97:src/kernel/slabAllocator.cpp **** 
  98:src/kernel/slabAllocator.cpp ****     return slabAllocatorLocal;
 296              		.loc 1 98 5 is_stmt 1
GAS LISTING /tmp/ccc39oBq.s 			page 8


  99:src/kernel/slabAllocator.cpp **** }
 297              		.loc 1 99 1 is_stmt 0
 298 01a0 13850400 		mv	a0,s1
 299 01a4 83308101 		ld	ra,24(sp)
 300              		.cfi_restore 1
 301 01a8 03340101 		ld	s0,16(sp)
 302              		.cfi_restore 8
 303              		.cfi_def_cfa 2, 32
 304 01ac 83348100 		ld	s1,8(sp)
 305              		.cfi_restore 9
 306              	.LVL27:
 307 01b0 13010102 		addi	sp,sp,32
 308              		.cfi_def_cfa_offset 0
 309 01b4 67800000 		jr	ra
 310              		.cfi_endproc
 311              	.LFE8:
 313              		.align	2
 314              		.globl	_Z13checkSetIndexP6slab_si
 316              	_Z13checkSetIndexP6slab_si:
 317              	.LFB9:
 100:src/kernel/slabAllocator.cpp **** 
 101:src/kernel/slabAllocator.cpp **** bool checkSetIndex(slab_t* slab, int index)
 102:src/kernel/slabAllocator.cpp **** {
 318              		.loc 1 102 1 is_stmt 1
 319              		.cfi_startproc
 320              	.LVL28:
 321 01b8 130101FF 		addi	sp,sp,-16
 322              		.cfi_def_cfa_offset 16
 323 01bc 23348100 		sd	s0,8(sp)
 324              		.cfi_offset 8, -8
 325 01c0 13040101 		addi	s0,sp,16
 326              		.cfi_def_cfa 8, 0
 103:src/kernel/slabAllocator.cpp ****     return (uint8)slab->allocated[index / 8] & (1 << (index%8));
 327              		.loc 1 103 5
 328              		.loc 1 103 41 is_stmt 0
 329 01c4 9BD7F541 		sraiw	a5,a1,31
 330 01c8 9BD7D701 		srliw	a5,a5,29
 331 01cc BB85B700 		addw	a1,a5,a1
 332              	.LVL29:
 333 01d0 1BD73540 		sraiw	a4,a1,3
 334              		.loc 1 103 44
 335 01d4 3305E500 		add	a0,a0,a4
 336              	.LVL30:
 337              		.loc 1 103 12
 338 01d8 03458502 		lbu	a0,40(a0)
 339              		.loc 1 103 60
 340 01dc 93F57500 		andi	a1,a1,7
 341 01e0 BB85F540 		subw	a1,a1,a5
 342              		.loc 1 103 63
 343 01e4 3B55B540 		sraw	a0,a0,a1
 104:src/kernel/slabAllocator.cpp **** }
 344              		.loc 1 104 1
 345 01e8 13751500 		andi	a0,a0,1
 346 01ec 03348100 		ld	s0,8(sp)
 347              		.cfi_restore 8
 348              		.cfi_def_cfa 2, 16
 349 01f0 13010101 		addi	sp,sp,16
GAS LISTING /tmp/ccc39oBq.s 			page 9


 350              		.cfi_def_cfa_offset 0
 351 01f4 67800000 		jr	ra
 352              		.cfi_endproc
 353              	.LFE9:
 355              		.align	2
 356              		.globl	_Z17setAllocatedIndexP6slab_si
 358              	_Z17setAllocatedIndexP6slab_si:
 359              	.LFB10:
 105:src/kernel/slabAllocator.cpp **** 
 106:src/kernel/slabAllocator.cpp **** void setAllocatedIndex(slab_t* slab, int index)
 107:src/kernel/slabAllocator.cpp **** {
 360              		.loc 1 107 1 is_stmt 1
 361              		.cfi_startproc
 362              	.LVL31:
 363 01f8 130101FF 		addi	sp,sp,-16
 364              		.cfi_def_cfa_offset 16
 365 01fc 23348100 		sd	s0,8(sp)
 366              		.cfi_offset 8, -8
 367 0200 13040101 		addi	s0,sp,16
 368              		.cfi_def_cfa 8, 0
 108:src/kernel/slabAllocator.cpp ****     slab->allocated[index / 8]=(uint8)slab->allocated[index/8] | (1 << (index%8));
 369              		.loc 1 108 5
 370              		.loc 1 108 60 is_stmt 0
 371 0204 9BD7F541 		sraiw	a5,a1,31
 372 0208 9BD7D701 		srliw	a5,a5,29
 373 020c BB85B700 		addw	a1,a5,a1
 374              	.LVL32:
 375 0210 1BD73540 		sraiw	a4,a1,3
 376              		.loc 1 108 62
 377 0214 3305E500 		add	a0,a0,a4
 378              	.LVL33:
 379              		.loc 1 108 32
 380 0218 03078502 		lb	a4,40(a0)
 381              		.loc 1 108 78
 382 021c 93F57500 		andi	a1,a1,7
 383 0220 BB85F540 		subw	a1,a1,a5
 384              		.loc 1 108 69
 385 0224 93071000 		li	a5,1
 386 0228 BB95B700 		sllw	a1,a5,a1
 387              		.loc 1 108 64
 388 022c B365B700 		or	a1,a4,a1
 389              		.loc 1 108 31
 390 0230 2304B502 		sb	a1,40(a0)
 109:src/kernel/slabAllocator.cpp **** }
 391              		.loc 1 109 1
 392 0234 03348100 		ld	s0,8(sp)
 393              		.cfi_restore 8
 394              		.cfi_def_cfa 2, 16
 395 0238 13010101 		addi	sp,sp,16
 396              		.cfi_def_cfa_offset 0
 397 023c 67800000 		jr	ra
 398              		.cfi_endproc
 399              	.LFE10:
 401              		.align	2
 402              		.globl	_Z14allocateObjectP6slab_s
 404              	_Z14allocateObjectP6slab_s:
 405              	.LFB11:
GAS LISTING /tmp/ccc39oBq.s 			page 10


 110:src/kernel/slabAllocator.cpp **** 
 111:src/kernel/slabAllocator.cpp **** void* allocateObject(slab_t* slab)
 112:src/kernel/slabAllocator.cpp **** {
 406              		.loc 1 112 1 is_stmt 1
 407              		.cfi_startproc
 408              	.LVL34:
 409 0240 130101FD 		addi	sp,sp,-48
 410              		.cfi_def_cfa_offset 48
 411 0244 23341102 		sd	ra,40(sp)
 412 0248 23308102 		sd	s0,32(sp)
 413 024c 233C9100 		sd	s1,24(sp)
 414 0250 23382101 		sd	s2,16(sp)
 415 0254 23343101 		sd	s3,8(sp)
 416              		.cfi_offset 1, -8
 417              		.cfi_offset 8, -16
 418              		.cfi_offset 9, -24
 419              		.cfi_offset 18, -32
 420              		.cfi_offset 19, -40
 421 0258 13040103 		addi	s0,sp,48
 422              		.cfi_def_cfa 8, 0
 423 025c 13090500 		mv	s2,a0
 113:src/kernel/slabAllocator.cpp ****     if(slab == nullptr)
 424              		.loc 1 113 5
 425 0260 63080508 		beqz	a0,.L26
 426              	.LBB4:
 114:src/kernel/slabAllocator.cpp ****         return nullptr;
 115:src/kernel/slabAllocator.cpp ****     int index = -1;
 116:src/kernel/slabAllocator.cpp ****     void* addr = nullptr;
 117:src/kernel/slabAllocator.cpp ****     for(size_t i = 0;i < slab->numOfObjects;i++)
 427              		.loc 1 117 16 is_stmt 0
 428 0264 93040000 		li	s1,0
 429              	.LVL35:
 430              	.L25:
 431              		.loc 1 117 24 is_stmt 1 discriminator 1
 432              		.loc 1 117 32 is_stmt 0 discriminator 1
 433 0268 83378901 		ld	a5,24(s2)
 434              		.loc 1 117 24 discriminator 1
 435 026c 63FEF402 		bleu	a5,s1,.L27
 118:src/kernel/slabAllocator.cpp ****     {
 119:src/kernel/slabAllocator.cpp ****         if(!checkSetIndex(slab, i))
 436              		.loc 1 119 9 is_stmt 1
 437              		.loc 1 119 26 is_stmt 0
 438 0270 9B890400 		sext.w	s3,s1
 439 0274 93850900 		mv	a1,s3
 440 0278 13050900 		mv	a0,s2
 441 027c 97000000 		call	_Z13checkSetIndexP6slab_si
 441      E7800000 
 442              	.LVL36:
 443              		.loc 1 119 9
 444 0284 63060500 		beqz	a0,.L29
 117:src/kernel/slabAllocator.cpp ****     {
 445              		.loc 1 117 5 is_stmt 1 discriminator 2
 446 0288 93841400 		addi	s1,s1,1
 447              	.LVL37:
 448 028c 6FF0DFFD 		j	.L25
 449              	.L29:
 120:src/kernel/slabAllocator.cpp ****         {
GAS LISTING /tmp/ccc39oBq.s 			page 11


 121:src/kernel/slabAllocator.cpp ****             addr = (void*)((size_t)slab + sizeof(slab_t)+ i*slab->owner->obj_size);
 450              		.loc 1 121 13
 451              		.loc 1 121 67 is_stmt 0
 452 0290 83370901 		ld	a5,16(s2)
 453              		.loc 1 121 74
 454 0294 83B70706 		ld	a5,96(a5)
 455              		.loc 1 121 60
 456 0298 B3849702 		mul	s1,a5,s1
 457              	.LVL38:
 458              		.loc 1 121 57
 459 029c B3049900 		add	s1,s2,s1
 460 02a0 93848422 		addi	s1,s1,552
 461              	.LVL39:
 122:src/kernel/slabAllocator.cpp ****             index = i;
 462              		.loc 1 122 13 is_stmt 1
 123:src/kernel/slabAllocator.cpp ****             break;
 463              		.loc 1 123 13
 464 02a4 6F00C000 		j	.L23
 465              	.LVL40:
 466              	.L27:
 467              	.LBE4:
 116:src/kernel/slabAllocator.cpp ****     for(size_t i = 0;i < slab->numOfObjects;i++)
 468              		.loc 1 116 11 is_stmt 0
 469 02a8 93040000 		li	s1,0
 470              	.LVL41:
 115:src/kernel/slabAllocator.cpp ****     void* addr = nullptr;
 471              		.loc 1 115 9
 472 02ac 9309F0FF 		li	s3,-1
 473              	.L23:
 474              	.LVL42:
 124:src/kernel/slabAllocator.cpp ****         }
 125:src/kernel/slabAllocator.cpp ****     }
 126:src/kernel/slabAllocator.cpp ****     if(addr == nullptr)
 475              		.loc 1 126 5 is_stmt 1
 476 02b0 63800402 		beqz	s1,.L21
 127:src/kernel/slabAllocator.cpp ****         return nullptr;
 128:src/kernel/slabAllocator.cpp **** 
 129:src/kernel/slabAllocator.cpp ****     setAllocatedIndex(slab, index);
 477              		.loc 1 129 5
 478              		.loc 1 129 22 is_stmt 0
 479 02b4 93850900 		mv	a1,s3
 480 02b8 13050900 		mv	a0,s2
 481 02bc 97000000 		call	_Z17setAllocatedIndexP6slab_si
 481      E7800000 
 482              	.LVL43:
 130:src/kernel/slabAllocator.cpp ****     slab->numOfAllocatedObjects++;
 483              		.loc 1 130 5 is_stmt 1
 484              		.loc 1 130 11 is_stmt 0
 485 02c4 83370902 		ld	a5,32(s2)
 486              		.loc 1 130 32
 487 02c8 93871700 		addi	a5,a5,1
 488 02cc 2330F902 		sd	a5,32(s2)
 131:src/kernel/slabAllocator.cpp **** 
 132:src/kernel/slabAllocator.cpp ****     return addr;
 489              		.loc 1 132 5 is_stmt 1
 490              	.LVL44:
 491              	.L21:
GAS LISTING /tmp/ccc39oBq.s 			page 12


 133:src/kernel/slabAllocator.cpp **** }
 492              		.loc 1 133 1 is_stmt 0
 493 02d0 13850400 		mv	a0,s1
 494 02d4 83308102 		ld	ra,40(sp)
 495              		.cfi_remember_state
 496              		.cfi_restore 1
 497 02d8 03340102 		ld	s0,32(sp)
 498              		.cfi_restore 8
 499              		.cfi_def_cfa 2, 48
 500 02dc 83348101 		ld	s1,24(sp)
 501              		.cfi_restore 9
 502 02e0 03390101 		ld	s2,16(sp)
 503              		.cfi_restore 18
 504              	.LVL45:
 505 02e4 83398100 		ld	s3,8(sp)
 506              		.cfi_restore 19
 507 02e8 13010103 		addi	sp,sp,48
 508              		.cfi_def_cfa_offset 0
 509 02ec 67800000 		jr	ra
 510              	.LVL46:
 511              	.L26:
 512              		.cfi_restore_state
 114:src/kernel/slabAllocator.cpp ****     int index = -1;
 513              		.loc 1 114 16
 514 02f0 93040500 		mv	s1,a0
 515 02f4 6FF0DFFD 		j	.L21
 516              		.cfi_endproc
 517              	.LFE11:
 519              		.align	2
 520              		.globl	_Z4fullP6slab_s
 522              	_Z4fullP6slab_s:
 523              	.LFB12:
 134:src/kernel/slabAllocator.cpp **** 
 135:src/kernel/slabAllocator.cpp **** bool full(slab_t* slab)
 136:src/kernel/slabAllocator.cpp **** {
 524              		.loc 1 136 1 is_stmt 1
 525              		.cfi_startproc
 526              	.LVL47:
 527 02f8 130101FF 		addi	sp,sp,-16
 528              		.cfi_def_cfa_offset 16
 529 02fc 23348100 		sd	s0,8(sp)
 530              		.cfi_offset 8, -8
 531 0300 13040101 		addi	s0,sp,16
 532              		.cfi_def_cfa 8, 0
 137:src/kernel/slabAllocator.cpp ****     return slab->numOfAllocatedObjects == slab->numOfObjects;
 533              		.loc 1 137 5
 534              		.loc 1 137 18 is_stmt 0
 535 0304 83370502 		ld	a5,32(a0)
 536              		.loc 1 137 49
 537 0308 03358501 		ld	a0,24(a0)
 538              	.LVL48:
 539 030c 3305F540 		sub	a0,a0,a5
 138:src/kernel/slabAllocator.cpp **** }
 540              		.loc 1 138 1
 541 0310 13351500 		seqz	a0,a0
 542 0314 03348100 		ld	s0,8(sp)
 543              		.cfi_restore 8
GAS LISTING /tmp/ccc39oBq.s 			page 13


 544              		.cfi_def_cfa 2, 16
 545 0318 13010101 		addi	sp,sp,16
 546              		.cfi_def_cfa_offset 0
 547 031c 67800000 		jr	ra
 548              		.cfi_endproc
 549              	.LFE12:
 551              		.align	2
 552              		.globl	_Z5emptyP6slab_s
 554              	_Z5emptyP6slab_s:
 555              	.LFB13:
 139:src/kernel/slabAllocator.cpp **** 
 140:src/kernel/slabAllocator.cpp **** bool empty(slab_t* slab)
 141:src/kernel/slabAllocator.cpp **** {
 556              		.loc 1 141 1 is_stmt 1
 557              		.cfi_startproc
 558              	.LVL49:
 559 0320 130101FF 		addi	sp,sp,-16
 560              		.cfi_def_cfa_offset 16
 561 0324 23348100 		sd	s0,8(sp)
 562              		.cfi_offset 8, -8
 563 0328 13040101 		addi	s0,sp,16
 564              		.cfi_def_cfa 8, 0
 142:src/kernel/slabAllocator.cpp ****     return slab->numOfAllocatedObjects == 0;
 565              		.loc 1 142 5
 566              		.loc 1 142 18 is_stmt 0
 567 032c 03350502 		ld	a0,32(a0)
 568              	.LVL50:
 143:src/kernel/slabAllocator.cpp **** }
 569              		.loc 1 143 1
 570 0330 13351500 		seqz	a0,a0
 571 0334 03348100 		ld	s0,8(sp)
 572              		.cfi_restore 8
 573              		.cfi_def_cfa 2, 16
 574 0338 13010101 		addi	sp,sp,16
 575              		.cfi_def_cfa_offset 0
 576 033c 67800000 		jr	ra
 577              		.cfi_endproc
 578              	.LFE13:
 580              		.align	2
 581              		.globl	_Z18insertIntoSlabListP6slab_sPS0_
 583              	_Z18insertIntoSlabListP6slab_sPS0_:
 584              	.LFB14:
 144:src/kernel/slabAllocator.cpp **** 
 145:src/kernel/slabAllocator.cpp **** void insertIntoSlabList(slab_t* slab, slab_t** slab_head)
 146:src/kernel/slabAllocator.cpp **** {
 585              		.loc 1 146 1 is_stmt 1
 586              		.cfi_startproc
 587              	.LVL51:
 588 0340 130101FF 		addi	sp,sp,-16
 589              		.cfi_def_cfa_offset 16
 590 0344 23348100 		sd	s0,8(sp)
 591              		.cfi_offset 8, -8
 592 0348 13040101 		addi	s0,sp,16
 593              		.cfi_def_cfa 8, 0
 147:src/kernel/slabAllocator.cpp ****     if(slab == nullptr)
 594              		.loc 1 147 5
 595 034c 630E0500 		beqz	a0,.L34
GAS LISTING /tmp/ccc39oBq.s 			page 14


 148:src/kernel/slabAllocator.cpp ****         return;
 149:src/kernel/slabAllocator.cpp ****     slab->prev = nullptr;
 596              		.loc 1 149 5
 597              		.loc 1 149 16 is_stmt 0
 598 0350 23300500 		sd	zero,0(a0)
 150:src/kernel/slabAllocator.cpp ****     slab->next = *slab_head;
 599              		.loc 1 150 5 is_stmt 1
 600              		.loc 1 150 18 is_stmt 0
 601 0354 83B70500 		ld	a5,0(a1)
 602              		.loc 1 150 16
 603 0358 2334F500 		sd	a5,8(a0)
 151:src/kernel/slabAllocator.cpp ****     if(*slab_head != nullptr)
 604              		.loc 1 151 5 is_stmt 1
 605 035c 63840700 		beqz	a5,.L36
 152:src/kernel/slabAllocator.cpp ****         (*slab_head)->prev = slab;
 606              		.loc 1 152 9
 607              		.loc 1 152 28 is_stmt 0
 608 0360 23B0A700 		sd	a0,0(a5)
 609              	.L36:
 153:src/kernel/slabAllocator.cpp ****     *slab_head = slab;
 610              		.loc 1 153 5 is_stmt 1
 611              		.loc 1 153 16 is_stmt 0
 612 0364 23B0A500 		sd	a0,0(a1)
 613              	.L34:
 154:src/kernel/slabAllocator.cpp **** }
 614              		.loc 1 154 1
 615 0368 03348100 		ld	s0,8(sp)
 616              		.cfi_restore 8
 617              		.cfi_def_cfa 2, 16
 618 036c 13010101 		addi	sp,sp,16
 619              		.cfi_def_cfa_offset 0
 620 0370 67800000 		jr	ra
 621              		.cfi_endproc
 622              	.LFE14:
 624              		.align	2
 625              		.globl	_Z18removeFromSlabListP6slab_sPS0_
 627              	_Z18removeFromSlabListP6slab_sPS0_:
 628              	.LFB15:
 155:src/kernel/slabAllocator.cpp **** 
 156:src/kernel/slabAllocator.cpp **** void removeFromSlabList(slab_t* slab, slab_t** slab_head)
 157:src/kernel/slabAllocator.cpp **** {
 629              		.loc 1 157 1 is_stmt 1
 630              		.cfi_startproc
 631              	.LVL52:
 632 0374 130101FF 		addi	sp,sp,-16
 633              		.cfi_def_cfa_offset 16
 634 0378 23348100 		sd	s0,8(sp)
 635              		.cfi_offset 8, -8
 636 037c 13040101 		addi	s0,sp,16
 637              		.cfi_def_cfa 8, 0
 158:src/kernel/slabAllocator.cpp ****     if(slab->prev == nullptr) //same as slab == *slab_head
 638              		.loc 1 158 5
 639              		.loc 1 158 14 is_stmt 0
 640 0380 83370500 		ld	a5,0(a0)
 641              		.loc 1 158 5
 642 0384 63860702 		beqz	a5,.L44
 159:src/kernel/slabAllocator.cpp ****     {
GAS LISTING /tmp/ccc39oBq.s 			page 15


 160:src/kernel/slabAllocator.cpp ****         if(slab->next) slab->next->prev = nullptr;
 161:src/kernel/slabAllocator.cpp ****         (*slab_head) = slab->next;
 162:src/kernel/slabAllocator.cpp ****         slab->next = slab->prev = nullptr;
 163:src/kernel/slabAllocator.cpp ****     }
 164:src/kernel/slabAllocator.cpp ****     else
 165:src/kernel/slabAllocator.cpp ****     {
 166:src/kernel/slabAllocator.cpp ****         slab->prev->next = slab->next;
 643              		.loc 1 166 9 is_stmt 1
 644              		.loc 1 166 34 is_stmt 0
 645 0388 03378500 		ld	a4,8(a0)
 646              		.loc 1 166 26
 647 038c 23B4E700 		sd	a4,8(a5)
 167:src/kernel/slabAllocator.cpp ****         if(slab->next) slab->next->prev = slab->prev;
 648              		.loc 1 167 9 is_stmt 1
 649 0390 63060700 		beqz	a4,.L42
 650              		.loc 1 167 24 discriminator 1
 651              		.loc 1 167 49 is_stmt 0 discriminator 1
 652 0394 83370500 		ld	a5,0(a0)
 653              		.loc 1 167 41 discriminator 1
 654 0398 2330F700 		sd	a5,0(a4)
 655              	.L42:
 168:src/kernel/slabAllocator.cpp ****         slab->next = slab->prev = nullptr;
 656              		.loc 1 168 9 is_stmt 1
 657              		.loc 1 168 33 is_stmt 0
 658 039c 23300500 		sd	zero,0(a0)
 659              		.loc 1 168 20
 660 03a0 23340500 		sd	zero,8(a0)
 661              	.L38:
 169:src/kernel/slabAllocator.cpp ****     }
 170:src/kernel/slabAllocator.cpp **** }
 662              		.loc 1 170 1
 663 03a4 03348100 		ld	s0,8(sp)
 664              		.cfi_remember_state
 665              		.cfi_restore 8
 666              		.cfi_def_cfa 2, 16
 667 03a8 13010101 		addi	sp,sp,16
 668              		.cfi_def_cfa_offset 0
 669 03ac 67800000 		jr	ra
 670              	.L44:
 671              		.cfi_restore_state
 160:src/kernel/slabAllocator.cpp ****         (*slab_head) = slab->next;
 672              		.loc 1 160 9 is_stmt 1
 160:src/kernel/slabAllocator.cpp ****         (*slab_head) = slab->next;
 673              		.loc 1 160 18 is_stmt 0
 674 03b0 83378500 		ld	a5,8(a0)
 160:src/kernel/slabAllocator.cpp ****         (*slab_head) = slab->next;
 675              		.loc 1 160 9
 676 03b4 63840700 		beqz	a5,.L40
 160:src/kernel/slabAllocator.cpp ****         (*slab_head) = slab->next;
 677              		.loc 1 160 24 is_stmt 1 discriminator 1
 160:src/kernel/slabAllocator.cpp ****         (*slab_head) = slab->next;
 678              		.loc 1 160 41 is_stmt 0 discriminator 1
 679 03b8 23B00700 		sd	zero,0(a5)
 680              	.L40:
 161:src/kernel/slabAllocator.cpp ****         slab->next = slab->prev = nullptr;
 681              		.loc 1 161 9 is_stmt 1
 161:src/kernel/slabAllocator.cpp ****         slab->next = slab->prev = nullptr;
GAS LISTING /tmp/ccc39oBq.s 			page 16


 682              		.loc 1 161 30 is_stmt 0
 683 03bc 83378500 		ld	a5,8(a0)
 161:src/kernel/slabAllocator.cpp ****         slab->next = slab->prev = nullptr;
 684              		.loc 1 161 22
 685 03c0 23B0F500 		sd	a5,0(a1)
 162:src/kernel/slabAllocator.cpp ****     }
 686              		.loc 1 162 9 is_stmt 1
 162:src/kernel/slabAllocator.cpp ****     }
 687              		.loc 1 162 33 is_stmt 0
 688 03c4 23300500 		sd	zero,0(a0)
 162:src/kernel/slabAllocator.cpp ****     }
 689              		.loc 1 162 20
 690 03c8 23340500 		sd	zero,8(a0)
 691 03cc 6FF09FFD 		j	.L38
 692              		.cfi_endproc
 693              	.LFE15:
 695              		.align	2
 696              		.globl	_Z16putPartialToFullP12kmem_cache_s
 698              	_Z16putPartialToFullP12kmem_cache_s:
 699              	.LFB16:
 171:src/kernel/slabAllocator.cpp **** 
 172:src/kernel/slabAllocator.cpp **** void putPartialToFull(kmem_cache_t* cachep)
 173:src/kernel/slabAllocator.cpp **** {
 700              		.loc 1 173 1 is_stmt 1
 701              		.cfi_startproc
 702              	.LVL53:
 703 03d0 130101FE 		addi	sp,sp,-32
 704              		.cfi_def_cfa_offset 32
 705 03d4 233C1100 		sd	ra,24(sp)
 706 03d8 23388100 		sd	s0,16(sp)
 707 03dc 23349100 		sd	s1,8(sp)
 708 03e0 23302101 		sd	s2,0(sp)
 709              		.cfi_offset 1, -8
 710              		.cfi_offset 8, -16
 711              		.cfi_offset 9, -24
 712              		.cfi_offset 18, -32
 713 03e4 13040102 		addi	s0,sp,32
 714              		.cfi_def_cfa 8, 0
 715 03e8 93040500 		mv	s1,a0
 174:src/kernel/slabAllocator.cpp ****     slab_t* slab = cachep->slabs_partial;
 716              		.loc 1 174 5
 717              		.loc 1 174 13 is_stmt 0
 718 03ec 03390505 		ld	s2,80(a0)
 719              	.LVL54:
 175:src/kernel/slabAllocator.cpp ****     removeFromSlabList(slab, &cachep->slabs_partial);
 720              		.loc 1 175 5 is_stmt 1
 721              		.loc 1 175 23 is_stmt 0
 722 03f0 93050505 		addi	a1,a0,80
 723 03f4 13050900 		mv	a0,s2
 724              	.LVL55:
 725 03f8 97000000 		call	_Z18removeFromSlabListP6slab_sPS0_
 725      E7800000 
 726              	.LVL56:
 176:src/kernel/slabAllocator.cpp ****     insertIntoSlabList(slab, &cachep->slabs_full);
 727              		.loc 1 176 5 is_stmt 1
 728              		.loc 1 176 23 is_stmt 0
 729 0400 93858404 		addi	a1,s1,72
GAS LISTING /tmp/ccc39oBq.s 			page 17


 730 0404 13050900 		mv	a0,s2
 731 0408 97000000 		call	_Z18insertIntoSlabListP6slab_sPS0_
 731      E7800000 
 732              	.LVL57:
 177:src/kernel/slabAllocator.cpp **** }
 733              		.loc 1 177 1
 734 0410 83308101 		ld	ra,24(sp)
 735              		.cfi_restore 1
 736 0414 03340101 		ld	s0,16(sp)
 737              		.cfi_restore 8
 738              		.cfi_def_cfa 2, 32
 739 0418 83348100 		ld	s1,8(sp)
 740              		.cfi_restore 9
 741              	.LVL58:
 742 041c 03390100 		ld	s2,0(sp)
 743              		.cfi_restore 18
 744              	.LVL59:
 745 0420 13010102 		addi	sp,sp,32
 746              		.cfi_def_cfa_offset 0
 747 0424 67800000 		jr	ra
 748              		.cfi_endproc
 749              	.LFE16:
 751              		.align	2
 752              		.globl	_Z17putEmptyToPartialP12kmem_cache_s
 754              	_Z17putEmptyToPartialP12kmem_cache_s:
 755              	.LFB17:
 178:src/kernel/slabAllocator.cpp **** 
 179:src/kernel/slabAllocator.cpp **** void putEmptyToPartial(kmem_cache_t* cachep)
 180:src/kernel/slabAllocator.cpp **** {
 756              		.loc 1 180 1 is_stmt 1
 757              		.cfi_startproc
 758              	.LVL60:
 759 0428 130101FE 		addi	sp,sp,-32
 760              		.cfi_def_cfa_offset 32
 761 042c 233C1100 		sd	ra,24(sp)
 762 0430 23388100 		sd	s0,16(sp)
 763 0434 23349100 		sd	s1,8(sp)
 764 0438 23302101 		sd	s2,0(sp)
 765              		.cfi_offset 1, -8
 766              		.cfi_offset 8, -16
 767              		.cfi_offset 9, -24
 768              		.cfi_offset 18, -32
 769 043c 13040102 		addi	s0,sp,32
 770              		.cfi_def_cfa 8, 0
 771 0440 93040500 		mv	s1,a0
 181:src/kernel/slabAllocator.cpp ****     slab_t* slab = cachep->slabs_empty;
 772              		.loc 1 181 5
 773              		.loc 1 181 13 is_stmt 0
 774 0444 03390504 		ld	s2,64(a0)
 775              	.LVL61:
 182:src/kernel/slabAllocator.cpp ****     removeFromSlabList(slab, &cachep->slabs_empty);
 776              		.loc 1 182 5 is_stmt 1
 777              		.loc 1 182 23 is_stmt 0
 778 0448 93050504 		addi	a1,a0,64
 779 044c 13050900 		mv	a0,s2
 780              	.LVL62:
 781 0450 97000000 		call	_Z18removeFromSlabListP6slab_sPS0_
GAS LISTING /tmp/ccc39oBq.s 			page 18


 781      E7800000 
 782              	.LVL63:
 183:src/kernel/slabAllocator.cpp ****     insertIntoSlabList(slab, &cachep->slabs_partial);
 783              		.loc 1 183 5 is_stmt 1
 784              		.loc 1 183 23 is_stmt 0
 785 0458 93850405 		addi	a1,s1,80
 786 045c 13050900 		mv	a0,s2
 787 0460 97000000 		call	_Z18insertIntoSlabListP6slab_sPS0_
 787      E7800000 
 788              	.LVL64:
 184:src/kernel/slabAllocator.cpp **** }
 789              		.loc 1 184 1
 790 0468 83308101 		ld	ra,24(sp)
 791              		.cfi_restore 1
 792 046c 03340101 		ld	s0,16(sp)
 793              		.cfi_restore 8
 794              		.cfi_def_cfa 2, 32
 795 0470 83348100 		ld	s1,8(sp)
 796              		.cfi_restore 9
 797              	.LVL65:
 798 0474 03390100 		ld	s2,0(sp)
 799              		.cfi_restore 18
 800              	.LVL66:
 801 0478 13010102 		addi	sp,sp,32
 802              		.cfi_def_cfa_offset 0
 803 047c 67800000 		jr	ra
 804              		.cfi_endproc
 805              	.LFE17:
 807              		.align	2
 808              		.globl	_Z14removeFullSlabP12kmem_cache_sP6slab_s
 810              	_Z14removeFullSlabP12kmem_cache_sP6slab_s:
 811              	.LFB18:
 185:src/kernel/slabAllocator.cpp **** 
 186:src/kernel/slabAllocator.cpp **** void removeFullSlab(kmem_cache_t* cachep, slab_t* slab)
 187:src/kernel/slabAllocator.cpp **** {
 812              		.loc 1 187 1 is_stmt 1
 813              		.cfi_startproc
 814              	.LVL67:
 815 0480 130101FE 		addi	sp,sp,-32
 816              		.cfi_def_cfa_offset 32
 817 0484 233C1100 		sd	ra,24(sp)
 818 0488 23388100 		sd	s0,16(sp)
 819 048c 23349100 		sd	s1,8(sp)
 820 0490 23302101 		sd	s2,0(sp)
 821              		.cfi_offset 1, -8
 822              		.cfi_offset 8, -16
 823              		.cfi_offset 9, -24
 824              		.cfi_offset 18, -32
 825 0494 13040102 		addi	s0,sp,32
 826              		.cfi_def_cfa 8, 0
 827 0498 13090500 		mv	s2,a0
 828 049c 93840500 		mv	s1,a1
 188:src/kernel/slabAllocator.cpp ****     removeFromSlabList(slab, &cachep->slabs_full);
 829              		.loc 1 188 5
 830              		.loc 1 188 23 is_stmt 0
 831 04a0 93058504 		addi	a1,a0,72
 832              	.LVL68:
GAS LISTING /tmp/ccc39oBq.s 			page 19


 833 04a4 13850400 		mv	a0,s1
 834              	.LVL69:
 835 04a8 97000000 		call	_Z18removeFromSlabListP6slab_sPS0_
 835      E7800000 
 836              	.LVL70:
 189:src/kernel/slabAllocator.cpp ****     insertIntoSlabList(slab, &cachep->slabs_partial);
 837              		.loc 1 189 5 is_stmt 1
 838              		.loc 1 189 23 is_stmt 0
 839 04b0 93050905 		addi	a1,s2,80
 840 04b4 13850400 		mv	a0,s1
 841 04b8 97000000 		call	_Z18insertIntoSlabListP6slab_sPS0_
 841      E7800000 
 842              	.LVL71:
 190:src/kernel/slabAllocator.cpp **** }
 843              		.loc 1 190 1
 844 04c0 83308101 		ld	ra,24(sp)
 845              		.cfi_restore 1
 846 04c4 03340101 		ld	s0,16(sp)
 847              		.cfi_restore 8
 848              		.cfi_def_cfa 2, 32
 849 04c8 83348100 		ld	s1,8(sp)
 850              		.cfi_restore 9
 851              	.LVL72:
 852 04cc 03390100 		ld	s2,0(sp)
 853              		.cfi_restore 18
 854              	.LVL73:
 855 04d0 13010102 		addi	sp,sp,32
 856              		.cfi_def_cfa_offset 0
 857 04d4 67800000 		jr	ra
 858              		.cfi_endproc
 859              	.LFE18:
 861              		.align	2
 862              		.globl	_Z17removePartialSlabP12kmem_cache_sP6slab_s
 864              	_Z17removePartialSlabP12kmem_cache_sP6slab_s:
 865              	.LFB19:
 191:src/kernel/slabAllocator.cpp **** 
 192:src/kernel/slabAllocator.cpp **** void removePartialSlab(kmem_cache_t * cachep, slab_t* slab)
 193:src/kernel/slabAllocator.cpp **** {
 866              		.loc 1 193 1 is_stmt 1
 867              		.cfi_startproc
 868              	.LVL74:
 869 04d8 130101FE 		addi	sp,sp,-32
 870              		.cfi_def_cfa_offset 32
 871 04dc 233C1100 		sd	ra,24(sp)
 872 04e0 23388100 		sd	s0,16(sp)
 873 04e4 23349100 		sd	s1,8(sp)
 874 04e8 23302101 		sd	s2,0(sp)
 875              		.cfi_offset 1, -8
 876              		.cfi_offset 8, -16
 877              		.cfi_offset 9, -24
 878              		.cfi_offset 18, -32
 879 04ec 13040102 		addi	s0,sp,32
 880              		.cfi_def_cfa 8, 0
 881 04f0 13090500 		mv	s2,a0
 882 04f4 93840500 		mv	s1,a1
 194:src/kernel/slabAllocator.cpp ****     removeFromSlabList(slab, &cachep->slabs_partial);
 883              		.loc 1 194 5
GAS LISTING /tmp/ccc39oBq.s 			page 20


 884              		.loc 1 194 23 is_stmt 0
 885 04f8 93050505 		addi	a1,a0,80
 886              	.LVL75:
 887 04fc 13850400 		mv	a0,s1
 888              	.LVL76:
 889 0500 97000000 		call	_Z18removeFromSlabListP6slab_sPS0_
 889      E7800000 
 890              	.LVL77:
 195:src/kernel/slabAllocator.cpp ****     insertIntoSlabList(slab, &cachep->slabs_empty);
 891              		.loc 1 195 5 is_stmt 1
 892              		.loc 1 195 23 is_stmt 0
 893 0508 93050904 		addi	a1,s2,64
 894 050c 13850400 		mv	a0,s1
 895 0510 97000000 		call	_Z18insertIntoSlabListP6slab_sPS0_
 895      E7800000 
 896              	.LVL78:
 196:src/kernel/slabAllocator.cpp **** }
 897              		.loc 1 196 1
 898 0518 83308101 		ld	ra,24(sp)
 899              		.cfi_restore 1
 900 051c 03340101 		ld	s0,16(sp)
 901              		.cfi_restore 8
 902              		.cfi_def_cfa 2, 32
 903 0520 83348100 		ld	s1,8(sp)
 904              		.cfi_restore 9
 905              	.LVL79:
 906 0524 03390100 		ld	s2,0(sp)
 907              		.cfi_restore 18
 908              	.LVL80:
 909 0528 13010102 		addi	sp,sp,32
 910              		.cfi_def_cfa_offset 0
 911 052c 67800000 		jr	ra
 912              		.cfi_endproc
 913              	.LFE19:
 915              		.align	2
 916              		.globl	_Z12allocateSlabP12kmem_cache_s
 918              	_Z12allocateSlabP12kmem_cache_s:
 919              	.LFB20:
 197:src/kernel/slabAllocator.cpp **** 
 198:src/kernel/slabAllocator.cpp **** void allocateSlab(kmem_cache_t* cachep)
 199:src/kernel/slabAllocator.cpp **** {
 920              		.loc 1 199 1 is_stmt 1
 921              		.cfi_startproc
 922              	.LVL81:
 923 0530 130101FD 		addi	sp,sp,-48
 924              		.cfi_def_cfa_offset 48
 925 0534 23341102 		sd	ra,40(sp)
 926 0538 23308102 		sd	s0,32(sp)
 927 053c 233C9100 		sd	s1,24(sp)
 928 0540 23382101 		sd	s2,16(sp)
 929 0544 23343101 		sd	s3,8(sp)
 930              		.cfi_offset 1, -8
 931              		.cfi_offset 8, -16
 932              		.cfi_offset 9, -24
 933              		.cfi_offset 18, -32
 934              		.cfi_offset 19, -40
 935 0548 13040103 		addi	s0,sp,48
GAS LISTING /tmp/ccc39oBq.s 			page 21


 936              		.cfi_def_cfa 8, 0
 937 054c 93090500 		mv	s3,a0
 200:src/kernel/slabAllocator.cpp ****     slab_t* newSlab = (slab_t*)buddy_alloc(cachep->slab_size);
 938              		.loc 1 200 5
 939              		.loc 1 200 43 is_stmt 0
 940 0550 03358505 		ld	a0,88(a0)
 941              	.LVL82:
 942 0554 97000000 		call	_Z11buddy_allocm@plt
 942      E7800000 
 943              	.LVL83:
 201:src/kernel/slabAllocator.cpp ****     if(newSlab == nullptr)
 944              		.loc 1 201 5 is_stmt 1
 945 055c 630C0508 		beqz	a0,.L53
 946 0560 93040500 		mv	s1,a0
 202:src/kernel/slabAllocator.cpp ****         return;
 203:src/kernel/slabAllocator.cpp ****     newSlab->next = cachep->slabs_empty;
 947              		.loc 1 203 5
 948              		.loc 1 203 29 is_stmt 0
 949 0564 83B70904 		ld	a5,64(s3)
 950              		.loc 1 203 19
 951 0568 2334F500 		sd	a5,8(a0)
 204:src/kernel/slabAllocator.cpp ****     if(cachep->slabs_empty != nullptr)
 952              		.loc 1 204 5 is_stmt 1
 953 056c 63840700 		beqz	a5,.L55
 205:src/kernel/slabAllocator.cpp ****         cachep->slabs_empty->prev = newSlab;
 954              		.loc 1 205 9
 955              		.loc 1 205 35 is_stmt 0
 956 0570 23B0A700 		sd	a0,0(a5)
 957              	.LVL84:
 958              	.L55:
 206:src/kernel/slabAllocator.cpp ****     cachep->slabs_empty = newSlab;
 959              		.loc 1 206 5 is_stmt 1
 960              		.loc 1 206 25 is_stmt 0
 961 0574 23B09904 		sd	s1,64(s3)
 207:src/kernel/slabAllocator.cpp ****     newSlab->prev = nullptr;
 962              		.loc 1 207 5 is_stmt 1
 963              		.loc 1 207 19 is_stmt 0
 964 0578 23B00400 		sd	zero,0(s1)
 208:src/kernel/slabAllocator.cpp **** 
 209:src/kernel/slabAllocator.cpp ****     newSlab->numOfAllocatedObjects = 0;
 965              		.loc 1 209 5 is_stmt 1
 966              		.loc 1 209 36 is_stmt 0
 967 057c 23B00402 		sd	zero,32(s1)
 210:src/kernel/slabAllocator.cpp ****     newSlab->owner = cachep;
 968              		.loc 1 210 5 is_stmt 1
 969              		.loc 1 210 20 is_stmt 0
 970 0580 23B83401 		sd	s3,16(s1)
 211:src/kernel/slabAllocator.cpp ****     size_t sizeInBytes = cachep->slab_size*BLOCK_SIZE;
 971              		.loc 1 211 5 is_stmt 1
 972              		.loc 1 211 34 is_stmt 0
 973 0584 83B68905 		ld	a3,88(s3)
 974              		.loc 1 211 12
 975 0588 9396C600 		slli	a3,a3,12
 976              	.LVL85:
 212:src/kernel/slabAllocator.cpp ****     newSlab->numOfObjects = (sizeInBytes - sizeof(slab_t)) / cachep->obj_size; // TODO can this par
 977              		.loc 1 212 5 is_stmt 1
 978              		.loc 1 212 42 is_stmt 0
GAS LISTING /tmp/ccc39oBq.s 			page 22


 979 058c 938686DD 		addi	a3,a3,-552
 980              	.LVL86:
 981              		.loc 1 212 70
 982 0590 83B70906 		ld	a5,96(s3)
 983              		.loc 1 212 60
 984 0594 B3D6F602 		divu	a3,a3,a5
 985              	.LVL87:
 986              		.loc 1 212 27
 987 0598 23BCD400 		sd	a3,24(s1)
 988              	.LVL88:
 213:src/kernel/slabAllocator.cpp ****     for(size_t i = 0; i < (newSlab->numOfObjects + 7) / 8;i++)
 989              		.loc 1 213 5 is_stmt 1
 990              	.LBB5:
 991              		.loc 1 213 16 is_stmt 0
 992 059c 13070000 		li	a4,0
 993              	.LVL89:
 994              	.L57:
 995              		.loc 1 213 25 is_stmt 1 discriminator 3
 996              		.loc 1 213 50 is_stmt 0 discriminator 3
 997 05a0 93877600 		addi	a5,a3,7
 998              		.loc 1 213 55 discriminator 3
 999 05a4 93D73700 		srli	a5,a5,3
 1000              		.loc 1 213 25 discriminator 3
 1001 05a8 637AF700 		bleu	a5,a4,.L56
 214:src/kernel/slabAllocator.cpp ****         newSlab->allocated[i] = 0;
 1002              		.loc 1 214 9 is_stmt 1 discriminator 2
 1003              		.loc 1 214 31 is_stmt 0 discriminator 2
 1004 05ac B387E400 		add	a5,s1,a4
 1005 05b0 23840702 		sb	zero,40(a5)
 213:src/kernel/slabAllocator.cpp ****     for(size_t i = 0; i < (newSlab->numOfObjects + 7) / 8;i++)
 1006              		.loc 1 213 5 is_stmt 1 discriminator 2
 1007 05b4 13071700 		addi	a4,a4,1
 1008              	.LVL90:
 1009 05b8 6FF09FFE 		j	.L57
 1010              	.L56:
 1011              	.LBE5:
 215:src/kernel/slabAllocator.cpp **** 
 216:src/kernel/slabAllocator.cpp ****     if(cachep->ctor != nullptr)
 1012              		.loc 1 216 5
 1013              	.LBB6:
 1014              		.loc 1 216 16 is_stmt 0
 1015 05bc 83B78906 		ld	a5,104(s3)
 1016              		.loc 1 216 5
 1017 05c0 638A0702 		beqz	a5,.L53
 1018              	.LBB7:
 217:src/kernel/slabAllocator.cpp ****     {
 218:src/kernel/slabAllocator.cpp ****         for(size_t i = 0;i < newSlab->numOfObjects;i++)
 1019              		.loc 1 218 20
 1020 05c4 13090000 		li	s2,0
 1021              	.LVL91:
 1022              	.L58:
 1023              		.loc 1 218 28 is_stmt 1 discriminator 3
 1024              		.loc 1 218 39 is_stmt 0 discriminator 3
 1025 05c8 83B78401 		ld	a5,24(s1)
 1026              		.loc 1 218 28 discriminator 3
 1027 05cc 6374F902 		bleu	a5,s2,.L53
 219:src/kernel/slabAllocator.cpp ****             cachep->ctor((void*)((size_t)newSlab + sizeof(slab_t) + i*newSlab->owner->obj_size));
GAS LISTING /tmp/ccc39oBq.s 			page 23


 1028              		.loc 1 219 13 is_stmt 1 discriminator 2
 1029              		.loc 1 219 21 is_stmt 0 discriminator 2
 1030 05d0 83B78906 		ld	a5,104(s3)
 1031              		.loc 1 219 80 discriminator 2
 1032 05d4 03B70401 		ld	a4,16(s1)
 1033              		.loc 1 219 87 discriminator 2
 1034 05d8 03350706 		ld	a0,96(a4)
 1035              		.loc 1 219 70 discriminator 2
 1036 05dc 33052503 		mul	a0,a0,s2
 1037              		.loc 1 219 67 discriminator 2
 1038 05e0 3385A400 		add	a0,s1,a0
 1039              		.loc 1 219 25 discriminator 2
 1040 05e4 13058522 		addi	a0,a0,552
 1041 05e8 E7800700 		jalr	a5
 1042              	.LVL92:
 218:src/kernel/slabAllocator.cpp ****             cachep->ctor((void*)((size_t)newSlab + sizeof(slab_t) + i*newSlab->owner->obj_size));
 1043              		.loc 1 218 9 is_stmt 1 discriminator 2
 1044 05ec 13091900 		addi	s2,s2,1
 1045              	.LVL93:
 1046 05f0 6FF09FFD 		j	.L58
 1047              	.LVL94:
 1048              	.L53:
 1049              	.LBE7:
 1050              	.LBE6:
 220:src/kernel/slabAllocator.cpp ****     }
 221:src/kernel/slabAllocator.cpp **** }
 1051              		.loc 1 221 1 is_stmt 0
 1052 05f4 83308102 		ld	ra,40(sp)
 1053              		.cfi_restore 1
 1054 05f8 03340102 		ld	s0,32(sp)
 1055              		.cfi_restore 8
 1056              		.cfi_def_cfa 2, 48
 1057 05fc 83348101 		ld	s1,24(sp)
 1058              		.cfi_restore 9
 1059 0600 03390101 		ld	s2,16(sp)
 1060              		.cfi_restore 18
 1061 0604 83398100 		ld	s3,8(sp)
 1062              		.cfi_restore 19
 1063              	.LVL95:
 1064 0608 13010103 		addi	sp,sp,48
 1065              		.cfi_def_cfa_offset 0
 1066 060c 67800000 		jr	ra
 1067              		.cfi_endproc
 1068              	.LFE20:
 1070              		.align	2
 1071              		.globl	_Z18getOptimalSlabSizem
 1073              	_Z18getOptimalSlabSizem:
 1074              	.LFB21:
 222:src/kernel/slabAllocator.cpp **** 
 223:src/kernel/slabAllocator.cpp **** size_t getOptimalSlabSize(size_t obj_size)
 224:src/kernel/slabAllocator.cpp **** {
 1075              		.loc 1 224 1 is_stmt 1
 1076              		.cfi_startproc
 1077              	.LVL96:
 1078 0610 130101FF 		addi	sp,sp,-16
 1079              		.cfi_def_cfa_offset 16
 1080 0614 23348100 		sd	s0,8(sp)
GAS LISTING /tmp/ccc39oBq.s 			page 24


 1081              		.cfi_offset 8, -8
 1082 0618 13040101 		addi	s0,sp,16
 1083              		.cfi_def_cfa 8, 0
 225:src/kernel/slabAllocator.cpp ****     size_t bestSize = BLOCK_SIZE;
 1084              		.loc 1 225 5
 1085              	.LVL97:
 1086              		.loc 1 225 12 is_stmt 0
 1087 061c B7170000 		li	a5,4096
 1088              	.LVL98:
 1089              	.L62:
 226:src/kernel/slabAllocator.cpp ****     while(bestSize < obj_size + sizeof(slab_t))
 1090              		.loc 1 226 5 is_stmt 1
 1091              		.loc 1 226 20
 1092              		.loc 1 226 31 is_stmt 0
 1093 0620 13078522 		addi	a4,a0,552
 1094              		.loc 1 226 20
 1095 0624 63F6E700 		bleu	a4,a5,.L61
 227:src/kernel/slabAllocator.cpp ****         bestSize<<=1;
 1096              		.loc 1 227 9 is_stmt 1
 1097              		.loc 1 227 17 is_stmt 0
 1098 0628 93971700 		slli	a5,a5,1
 1099              	.LVL99:
 226:src/kernel/slabAllocator.cpp ****     while(bestSize < obj_size + sizeof(slab_t))
 1100              		.loc 1 226 5
 1101 062c 6FF05FFF 		j	.L62
 1102              	.L61:
 228:src/kernel/slabAllocator.cpp ****     size_t optimalWaste = (bestSize - sizeof(slab_t)) % obj_size;
 1103              		.loc 1 228 5 is_stmt 1
 1104              		.loc 1 228 37 is_stmt 0
 1105 0630 938587DD 		addi	a1,a5,-552
 1106              		.loc 1 228 12
 1107 0634 B3F5A502 		remu	a1,a1,a0
 1108              	.LVL100:
 229:src/kernel/slabAllocator.cpp ****     size_t oldSize = bestSize;
 1109              		.loc 1 229 5 is_stmt 1
 230:src/kernel/slabAllocator.cpp **** 
 231:src/kernel/slabAllocator.cpp ****     static size_t lowerConst = 1;
 1110              		.loc 1 231 5
 232:src/kernel/slabAllocator.cpp ****     static size_t highConst = 4;
 1111              		.loc 1 232 5
 233:src/kernel/slabAllocator.cpp ****     for(size_t i = lowerConst;i<=highConst;i++)
 1112              		.loc 1 233 5
 228:src/kernel/slabAllocator.cpp ****     size_t oldSize = bestSize;
 1113              		.loc 1 228 12 is_stmt 0
 1114 0638 13830700 		mv	t1,a5
 1115              	.LBB8:
 1116              		.loc 1 233 16
 1117 063c 93061000 		li	a3,1
 1118 0640 6F008000 		j	.L65
 1119              	.LVL101:
 1120              	.L64:
 1121              		.loc 1 233 5 is_stmt 1 discriminator 2
 1122 0644 93861600 		addi	a3,a3,1
 1123              	.LVL102:
 1124              	.L65:
 1125              		.loc 1 233 32 discriminator 1
 1126 0648 13074000 		li	a4,4
GAS LISTING /tmp/ccc39oBq.s 			page 25


 1127 064c 6366D702 		bgtu	a3,a4,.L68
 1128              	.LBB9:
 234:src/kernel/slabAllocator.cpp ****     {
 235:src/kernel/slabAllocator.cpp ****         size_t newSize = oldSize << i;
 1129              		.loc 1 235 9
 1130              		.loc 1 235 16 is_stmt 0
 1131 0650 3396D700 		sll	a2,a5,a3
 1132              	.LVL103:
 236:src/kernel/slabAllocator.cpp ****         size_t newWaste = (newSize - sizeof(slab_t)) % obj_size;
 1133              		.loc 1 236 9 is_stmt 1
 1134              		.loc 1 236 36 is_stmt 0
 1135 0654 130786DD 		addi	a4,a2,-552
 1136              		.loc 1 236 16
 1137 0658 3378A702 		remu	a6,a4,a0
 1138              	.LVL104:
 237:src/kernel/slabAllocator.cpp ****         size_t numOfObjs = (newSize - sizeof(slab_t)) / obj_size;
 1139              		.loc 1 237 9 is_stmt 1
 1140              		.loc 1 237 16 is_stmt 0
 1141 065c 3357A702 		divu	a4,a4,a0
 1142              	.LVL105:
 238:src/kernel/slabAllocator.cpp ****         if(newWaste < optimalWaste && numOfObjs <= MAX_NUM_OF_OBJS)
 1143              		.loc 1 238 9 is_stmt 1
 1144 0660 E372B8FE 		bleu	a1,a6,.L64
 1145              		.loc 1 238 36 is_stmt 0 discriminator 1
 1146 0664 B7180000 		li	a7,4096
 1147 0668 E3EEE8FC 		bgtu	a4,a7,.L64
 239:src/kernel/slabAllocator.cpp ****         {
 240:src/kernel/slabAllocator.cpp ****             optimalWaste = newWaste;
 1148              		.loc 1 240 26
 1149 066c 93050800 		mv	a1,a6
 1150              	.LVL106:
 241:src/kernel/slabAllocator.cpp ****             bestSize = newSize;
 1151              		.loc 1 241 22
 1152 0670 13030600 		mv	t1,a2
 1153              	.LVL107:
 1154 0674 6FF01FFD 		j	.L64
 1155              	.LVL108:
 1156              	.L68:
 1157              	.LBE9:
 1158              	.LBE8:
 1159              	.LBB10:
 242:src/kernel/slabAllocator.cpp ****         }
 243:src/kernel/slabAllocator.cpp ****     }
 244:src/kernel/slabAllocator.cpp ****     for(size_t i = lowerConst;i<=highConst;i++)
 1160              		.loc 1 244 16
 1161 0678 13061000 		li	a2,1
 1162 067c 6F008000 		j	.L63
 1163              	.LVL109:
 1164              	.L67:
 1165              		.loc 1 244 5 is_stmt 1 discriminator 2
 1166 0680 13061600 		addi	a2,a2,1
 1167              	.LVL110:
 1168              	.L63:
 1169              		.loc 1 244 32 discriminator 1
 1170 0684 13074000 		li	a4,4
 1171 0688 6368C702 		bgtu	a2,a4,.L66
 1172              	.LBB11:
GAS LISTING /tmp/ccc39oBq.s 			page 26


 245:src/kernel/slabAllocator.cpp ****     {
 246:src/kernel/slabAllocator.cpp ****         size_t newSize = oldSize + i*BLOCK_SIZE;
 1173              		.loc 1 246 9
 1174              		.loc 1 246 37 is_stmt 0
 1175 068c 9316C600 		slli	a3,a2,12
 1176              		.loc 1 246 16
 1177 0690 B386F600 		add	a3,a3,a5
 1178              	.LVL111:
 247:src/kernel/slabAllocator.cpp ****         size_t newWaste = (newSize - sizeof(slab_t)) % obj_size;
 1179              		.loc 1 247 9 is_stmt 1
 1180              		.loc 1 247 36 is_stmt 0
 1181 0694 138786DD 		addi	a4,a3,-552
 1182              		.loc 1 247 16
 1183 0698 3378A702 		remu	a6,a4,a0
 1184              	.LVL112:
 248:src/kernel/slabAllocator.cpp ****         size_t numOfObjs = (newSize - sizeof(slab_t)) / obj_size;
 1185              		.loc 1 248 9 is_stmt 1
 1186              		.loc 1 248 16 is_stmt 0
 1187 069c 3357A702 		divu	a4,a4,a0
 1188              	.LVL113:
 249:src/kernel/slabAllocator.cpp ****         if(newWaste < optimalWaste && numOfObjs <= MAX_NUM_OF_OBJS)
 1189              		.loc 1 249 9 is_stmt 1
 1190 06a0 E370B8FE 		bleu	a1,a6,.L67
 1191              		.loc 1 249 36 is_stmt 0 discriminator 1
 1192 06a4 B7180000 		li	a7,4096
 1193 06a8 E3ECE8FC 		bgtu	a4,a7,.L67
 250:src/kernel/slabAllocator.cpp ****         {
 251:src/kernel/slabAllocator.cpp ****             optimalWaste = newWaste;
 1194              		.loc 1 251 26
 1195 06ac 93050800 		mv	a1,a6
 1196              	.LVL114:
 252:src/kernel/slabAllocator.cpp ****             bestSize = newSize;
 1197              		.loc 1 252 22
 1198 06b0 13830600 		mv	t1,a3
 1199              	.LVL115:
 1200 06b4 6FF0DFFC 		j	.L67
 1201              	.LVL116:
 1202              	.L66:
 1203              	.LBE11:
 1204              	.LBE10:
 253:src/kernel/slabAllocator.cpp ****         }
 254:src/kernel/slabAllocator.cpp ****     }
 255:src/kernel/slabAllocator.cpp **** 
 256:src/kernel/slabAllocator.cpp ****     return bestSize / BLOCK_SIZE;
 1205              		.loc 1 256 5 is_stmt 1
 257:src/kernel/slabAllocator.cpp **** }
 1206              		.loc 1 257 1 is_stmt 0
 1207 06b8 1355C300 		srli	a0,t1,12
 1208              	.LVL117:
 1209 06bc 03348100 		ld	s0,8(sp)
 1210              		.cfi_restore 8
 1211              		.cfi_def_cfa 2, 16
 1212 06c0 13010101 		addi	sp,sp,16
 1213              		.cfi_def_cfa_offset 0
 1214 06c4 67800000 		jr	ra
 1215              		.cfi_endproc
 1216              	.LFE21:
GAS LISTING /tmp/ccc39oBq.s 			page 27


 1218              		.align	2
 1219              		.globl	_Z8findSlabP12kmem_cache_sPKv
 1221              	_Z8findSlabP12kmem_cache_sPKv:
 1222              	.LFB22:
 258:src/kernel/slabAllocator.cpp **** 
 259:src/kernel/slabAllocator.cpp **** //finds the slab where objp is
 260:src/kernel/slabAllocator.cpp **** slab_t* findSlab(kmem_cache_t* cachep, const void* objp)
 261:src/kernel/slabAllocator.cpp **** {
 1223              		.loc 1 261 1 is_stmt 1
 1224              		.cfi_startproc
 1225              	.LVL118:
 1226 06c8 130101FF 		addi	sp,sp,-16
 1227              		.cfi_def_cfa_offset 16
 1228 06cc 23348100 		sd	s0,8(sp)
 1229              		.cfi_offset 8, -8
 1230 06d0 13040101 		addi	s0,sp,16
 1231              		.cfi_def_cfa 8, 0
 1232 06d4 93060500 		mv	a3,a0
 262:src/kernel/slabAllocator.cpp ****     if(cachep == nullptr || objp == nullptr)
 1233              		.loc 1 262 5
 1234 06d8 630C0502 		beqz	a0,.L72
 1235              		.loc 1 262 26 is_stmt 0 discriminator 1
 1236 06dc 638A0506 		beqz	a1,.L80
 263:src/kernel/slabAllocator.cpp ****         return nullptr;
 264:src/kernel/slabAllocator.cpp ****     slab_t* slab = cachep->slabs_full;
 1237              		.loc 1 264 5 is_stmt 1
 1238              		.loc 1 264 13 is_stmt 0
 1239 06e0 03358504 		ld	a0,72(a0)
 1240              	.LVL119:
 1241 06e4 6F008000 		j	.L76
 1242              	.LVL120:
 1243              	.L75:
 1244              	.LBB12:
 265:src/kernel/slabAllocator.cpp ****     while(slab != nullptr)
 266:src/kernel/slabAllocator.cpp ****     {
 267:src/kernel/slabAllocator.cpp ****         size_t endAddr = (size_t)slab + sizeof(slab_t) + slab->numOfObjects*slab->owner->obj_size;
 268:src/kernel/slabAllocator.cpp ****         if((size_t)objp > (size_t)slab && (size_t)objp < endAddr)
 269:src/kernel/slabAllocator.cpp ****             return slab;
 270:src/kernel/slabAllocator.cpp ****         slab = slab->next;
 1245              		.loc 1 270 9 is_stmt 1
 1246              		.loc 1 270 14 is_stmt 0
 1247 06e8 03358500 		ld	a0,8(a0)
 1248              	.LVL121:
 1249              	.L76:
 1250              	.LBE12:
 265:src/kernel/slabAllocator.cpp ****     while(slab != nullptr)
 1251              		.loc 1 265 5 is_stmt 1
 265:src/kernel/slabAllocator.cpp ****     while(slab != nullptr)
 1252              		.loc 1 265 16
 1253 06ec 63080502 		beqz	a0,.L74
 1254              	.LBB13:
 267:src/kernel/slabAllocator.cpp ****         if((size_t)objp > (size_t)slab && (size_t)objp < endAddr)
 1255              		.loc 1 267 9
 267:src/kernel/slabAllocator.cpp ****         if((size_t)objp > (size_t)slab && (size_t)objp < endAddr)
 1256              		.loc 1 267 64 is_stmt 0
 1257 06f0 83378501 		ld	a5,24(a0)
 267:src/kernel/slabAllocator.cpp ****         if((size_t)objp > (size_t)slab && (size_t)objp < endAddr)
GAS LISTING /tmp/ccc39oBq.s 			page 28


 1258              		.loc 1 267 83
 1259 06f4 03370501 		ld	a4,16(a0)
 267:src/kernel/slabAllocator.cpp ****         if((size_t)objp > (size_t)slab && (size_t)objp < endAddr)
 1260              		.loc 1 267 90
 1261 06f8 03370706 		ld	a4,96(a4)
 267:src/kernel/slabAllocator.cpp ****         if((size_t)objp > (size_t)slab && (size_t)objp < endAddr)
 1262              		.loc 1 267 76
 1263 06fc B387E702 		mul	a5,a5,a4
 267:src/kernel/slabAllocator.cpp ****         if((size_t)objp > (size_t)slab && (size_t)objp < endAddr)
 1264              		.loc 1 267 56
 1265 0700 B387A700 		add	a5,a5,a0
 267:src/kernel/slabAllocator.cpp ****         if((size_t)objp > (size_t)slab && (size_t)objp < endAddr)
 1266              		.loc 1 267 16
 1267 0704 93878722 		addi	a5,a5,552
 1268              	.LVL122:
 268:src/kernel/slabAllocator.cpp ****             return slab;
 1269              		.loc 1 268 9 is_stmt 1
 1270 0708 E370B5FE 		bgeu	a0,a1,.L75
 268:src/kernel/slabAllocator.cpp ****             return slab;
 1271              		.loc 1 268 40 is_stmt 0 discriminator 1
 1272 070c E3FEF5FC 		bgeu	a1,a5,.L75
 1273              	.LVL123:
 1274              	.L72:
 1275              	.LBE13:
 271:src/kernel/slabAllocator.cpp ****     }
 272:src/kernel/slabAllocator.cpp **** 
 273:src/kernel/slabAllocator.cpp ****     slab = cachep->slabs_partial;
 274:src/kernel/slabAllocator.cpp ****     while(slab != nullptr)
 275:src/kernel/slabAllocator.cpp ****     {
 276:src/kernel/slabAllocator.cpp ****         size_t endAddr = (size_t)slab + sizeof(slab_t) + slab->numOfObjects*slab->owner->obj_size;
 277:src/kernel/slabAllocator.cpp ****         if((size_t)objp > (size_t)slab && (size_t)objp < endAddr)
 278:src/kernel/slabAllocator.cpp ****             return slab;
 279:src/kernel/slabAllocator.cpp ****         slab = slab->next;
 280:src/kernel/slabAllocator.cpp ****     }
 281:src/kernel/slabAllocator.cpp **** 
 282:src/kernel/slabAllocator.cpp ****     return nullptr;
 283:src/kernel/slabAllocator.cpp **** }
 1276              		.loc 1 283 1
 1277 0710 03348100 		ld	s0,8(sp)
 1278              		.cfi_remember_state
 1279              		.cfi_restore 8
 1280              		.cfi_def_cfa 2, 16
 1281 0714 13010101 		addi	sp,sp,16
 1282              		.cfi_def_cfa_offset 0
 1283 0718 67800000 		jr	ra
 1284              	.LVL124:
 1285              	.L74:
 1286              		.cfi_restore_state
 273:src/kernel/slabAllocator.cpp ****     while(slab != nullptr)
 1287              		.loc 1 273 5 is_stmt 1
 273:src/kernel/slabAllocator.cpp ****     while(slab != nullptr)
 1288              		.loc 1 273 10 is_stmt 0
 1289 071c 03B50605 		ld	a0,80(a3)
 1290              	.LVL125:
 1291 0720 6F008000 		j	.L78
 1292              	.LVL126:
 1293              	.L77:
GAS LISTING /tmp/ccc39oBq.s 			page 29


 1294              	.LBB14:
 279:src/kernel/slabAllocator.cpp ****     }
 1295              		.loc 1 279 9 is_stmt 1
 279:src/kernel/slabAllocator.cpp ****     }
 1296              		.loc 1 279 14 is_stmt 0
 1297 0724 03358500 		ld	a0,8(a0)
 1298              	.LVL127:
 1299              	.L78:
 1300              	.LBE14:
 274:src/kernel/slabAllocator.cpp ****     {
 1301              		.loc 1 274 5 is_stmt 1
 274:src/kernel/slabAllocator.cpp ****     {
 1302              		.loc 1 274 16
 1303 0728 E30405FE 		beqz	a0,.L72
 1304              	.LBB15:
 276:src/kernel/slabAllocator.cpp ****         if((size_t)objp > (size_t)slab && (size_t)objp < endAddr)
 1305              		.loc 1 276 9
 276:src/kernel/slabAllocator.cpp ****         if((size_t)objp > (size_t)slab && (size_t)objp < endAddr)
 1306              		.loc 1 276 64 is_stmt 0
 1307 072c 83378501 		ld	a5,24(a0)
 276:src/kernel/slabAllocator.cpp ****         if((size_t)objp > (size_t)slab && (size_t)objp < endAddr)
 1308              		.loc 1 276 83
 1309 0730 03370501 		ld	a4,16(a0)
 276:src/kernel/slabAllocator.cpp ****         if((size_t)objp > (size_t)slab && (size_t)objp < endAddr)
 1310              		.loc 1 276 90
 1311 0734 03370706 		ld	a4,96(a4)
 276:src/kernel/slabAllocator.cpp ****         if((size_t)objp > (size_t)slab && (size_t)objp < endAddr)
 1312              		.loc 1 276 76
 1313 0738 B387E702 		mul	a5,a5,a4
 276:src/kernel/slabAllocator.cpp ****         if((size_t)objp > (size_t)slab && (size_t)objp < endAddr)
 1314              		.loc 1 276 56
 1315 073c B387A700 		add	a5,a5,a0
 276:src/kernel/slabAllocator.cpp ****         if((size_t)objp > (size_t)slab && (size_t)objp < endAddr)
 1316              		.loc 1 276 16
 1317 0740 93878722 		addi	a5,a5,552
 1318              	.LVL128:
 277:src/kernel/slabAllocator.cpp ****             return slab;
 1319              		.loc 1 277 9 is_stmt 1
 1320 0744 E370B5FE 		bgeu	a0,a1,.L77
 277:src/kernel/slabAllocator.cpp ****             return slab;
 1321              		.loc 1 277 40 is_stmt 0 discriminator 1
 1322 0748 E3FEF5FC 		bgeu	a1,a5,.L77
 1323 074c 6FF05FFC 		j	.L72
 1324              	.LVL129:
 1325              	.L80:
 1326              	.LBE15:
 263:src/kernel/slabAllocator.cpp ****     slab_t* slab = cachep->slabs_full;
 1327              		.loc 1 263 16
 1328 0750 13850500 		mv	a0,a1
 1329              	.LVL130:
 1330 0754 6FF0DFFB 		j	.L72
 1331              		.cfi_endproc
 1332              	.LFE22:
 1334              		.align	2
 1335              		.globl	_Z19resetAllocatedIndexP6slab_si
 1337              	_Z19resetAllocatedIndexP6slab_si:
 1338              	.LFB23:
GAS LISTING /tmp/ccc39oBq.s 			page 30


 284:src/kernel/slabAllocator.cpp **** 
 285:src/kernel/slabAllocator.cpp **** void resetAllocatedIndex(slab_t* slab, int index)
 286:src/kernel/slabAllocator.cpp **** {
 1339              		.loc 1 286 1 is_stmt 1
 1340              		.cfi_startproc
 1341              	.LVL131:
 1342 0758 130101FF 		addi	sp,sp,-16
 1343              		.cfi_def_cfa_offset 16
 1344 075c 23348100 		sd	s0,8(sp)
 1345              		.cfi_offset 8, -8
 1346 0760 13040101 		addi	s0,sp,16
 1347              		.cfi_def_cfa 8, 0
 287:src/kernel/slabAllocator.cpp ****     slab->allocated[index / 8]=(uint8)slab->allocated[index/8] & ~(1 << (index%8));
 1348              		.loc 1 287 5
 1349              		.loc 1 287 60 is_stmt 0
 1350 0764 9BD7F541 		sraiw	a5,a1,31
 1351 0768 9BD7D701 		srliw	a5,a5,29
 1352 076c BB85B700 		addw	a1,a5,a1
 1353              	.LVL132:
 1354 0770 1BD73540 		sraiw	a4,a1,3
 1355              		.loc 1 287 62
 1356 0774 3305E500 		add	a0,a0,a4
 1357              	.LVL133:
 1358              		.loc 1 287 32
 1359 0778 03078502 		lb	a4,40(a0)
 1360              		.loc 1 287 79
 1361 077c 93F57500 		andi	a1,a1,7
 1362 0780 BB85F540 		subw	a1,a1,a5
 1363              		.loc 1 287 70
 1364 0784 93071000 		li	a5,1
 1365 0788 BB95B700 		sllw	a1,a5,a1
 1366              		.loc 1 287 64
 1367 078c 93C5F5FF 		not	a1,a1
 1368 0790 B375B700 		and	a1,a4,a1
 1369              		.loc 1 287 31
 1370 0794 2304B502 		sb	a1,40(a0)
 288:src/kernel/slabAllocator.cpp **** }
 1371              		.loc 1 288 1
 1372 0798 03348100 		ld	s0,8(sp)
 1373              		.cfi_restore 8
 1374              		.cfi_def_cfa 2, 16
 1375 079c 13010101 		addi	sp,sp,16
 1376              		.cfi_def_cfa_offset 0
 1377 07a0 67800000 		jr	ra
 1378              		.cfi_endproc
 1379              	.LFE23:
 1381              		.section	.rodata.str1.8
 1382              		.align	3
 1383              	.LC1:
 1384 0010 4F6E6520 		.string	"One slab info---------\n"
 1384      736C6162 
 1384      20696E66 
 1384      6F2D2D2D 
 1384      2D2D2D2D 
 1385              		.align	3
 1386              	.LC2:
 1387 0028 536C6162 		.string	"Slab address "
GAS LISTING /tmp/ccc39oBq.s 			page 31


 1387      20616464 
 1387      72657373 
 1387      2000
 1388 0036 0000     		.align	3
 1389              	.LC3:
 1390 0038 4E756D62 		.string	"Number of allocated objects "
 1390      6572206F 
 1390      6620616C 
 1390      6C6F6361 
 1390      74656420 
 1391 0055 000000   		.align	3
 1392              	.LC4:
 1393 0058 4E756D62 		.string	"Number of objects "
 1393      6572206F 
 1393      66206F62 
 1393      6A656374 
 1393      732000
 1394              		.text
 1395              		.align	2
 1396              		.globl	_Z13printSlabInfoP6slab_s
 1398              	_Z13printSlabInfoP6slab_s:
 1399              	.LFB24:
 289:src/kernel/slabAllocator.cpp **** 
 290:src/kernel/slabAllocator.cpp **** void printSlabInfo(slab_t* slab)
 291:src/kernel/slabAllocator.cpp **** {
 1400              		.loc 1 291 1 is_stmt 1
 1401              		.cfi_startproc
 1402              	.LVL134:
 1403 07a4 130101FE 		addi	sp,sp,-32
 1404              		.cfi_def_cfa_offset 32
 1405 07a8 233C1100 		sd	ra,24(sp)
 1406 07ac 23388100 		sd	s0,16(sp)
 1407 07b0 23349100 		sd	s1,8(sp)
 1408              		.cfi_offset 1, -8
 1409              		.cfi_offset 8, -16
 1410              		.cfi_offset 9, -24
 1411 07b4 13040102 		addi	s0,sp,32
 1412              		.cfi_def_cfa 8, 0
 1413 07b8 93040500 		mv	s1,a0
 292:src/kernel/slabAllocator.cpp ****     KConsole::trapPrintString("One slab info---------\n");
 1414              		.loc 1 292 5
 1415              		.loc 1 292 30 is_stmt 0
 1416 07bc 17050000 		lla	a0,.LC1
 1416      13050500 
 1417              	.LVL135:
 1418 07c4 97000000 		call	_ZN8KConsole15trapPrintStringEPKc@plt
 1418      E7800000 
 1419              	.LVL136:
 293:src/kernel/slabAllocator.cpp ****     KConsole::trapPrintStringInt("Slab address ",(size_t)slab,16);
 1420              		.loc 1 293 5 is_stmt 1
 1421              		.loc 1 293 33 is_stmt 0
 1422 07cc 13060001 		li	a2,16
 1423 07d0 93850400 		mv	a1,s1
 1424 07d4 17050000 		lla	a0,.LC2
 1424      13050500 
 1425 07dc 97000000 		call	_ZN8KConsole18trapPrintStringIntEPKcmi@plt
 1425      E7800000 
GAS LISTING /tmp/ccc39oBq.s 			page 32


 1426              	.LVL137:
 294:src/kernel/slabAllocator.cpp ****     KConsole::trapPrintStringInt("Number of allocated objects ",slab->numOfAllocatedObjects);
 1427              		.loc 1 294 5 is_stmt 1
 1428              		.loc 1 294 33 is_stmt 0
 1429 07e4 1306A000 		li	a2,10
 1430 07e8 83B50402 		ld	a1,32(s1)
 1431 07ec 17050000 		lla	a0,.LC3
 1431      13050500 
 1432 07f4 97000000 		call	_ZN8KConsole18trapPrintStringIntEPKcmi@plt
 1432      E7800000 
 1433              	.LVL138:
 295:src/kernel/slabAllocator.cpp ****     KConsole::trapPrintStringInt("Number of objects ", slab->numOfObjects);
 1434              		.loc 1 295 5 is_stmt 1
 1435              		.loc 1 295 33 is_stmt 0
 1436 07fc 1306A000 		li	a2,10
 1437 0800 83B58401 		ld	a1,24(s1)
 1438 0804 17050000 		lla	a0,.LC4
 1438      13050500 
 1439 080c 97000000 		call	_ZN8KConsole18trapPrintStringIntEPKcmi@plt
 1439      E7800000 
 1440              	.LVL139:
 296:src/kernel/slabAllocator.cpp ****     /*for(size_t i = 0;i < (slab->numOfObjects + 7) / 8;i++)
 297:src/kernel/slabAllocator.cpp ****     {
 298:src/kernel/slabAllocator.cpp ****         KConsole::trapPrintInt(i);
 299:src/kernel/slabAllocator.cpp ****         KConsole::trapPrintString(" : ");
 300:src/kernel/slabAllocator.cpp ****         KConsole::trapPrintInt((size_t)slab->allocated[i], 16);
 301:src/kernel/slabAllocator.cpp ****         KConsole::trapPrintString("\n");
 302:src/kernel/slabAllocator.cpp ****     }*/
 303:src/kernel/slabAllocator.cpp **** }
 1441              		.loc 1 303 1
 1442 0814 83308101 		ld	ra,24(sp)
 1443              		.cfi_restore 1
 1444 0818 03340101 		ld	s0,16(sp)
 1445              		.cfi_restore 8
 1446              		.cfi_def_cfa 2, 32
 1447 081c 83348100 		ld	s1,8(sp)
 1448              		.cfi_restore 9
 1449              	.LVL140:
 1450 0820 13010102 		addi	sp,sp,32
 1451              		.cfi_def_cfa_offset 0
 1452 0824 67800000 		jr	ra
 1453              		.cfi_endproc
 1454              	.LFE24:
 1456              		.align	2
 1457              		.globl	_Z16free_slab_objectP6slab_sPKv
 1459              	_Z16free_slab_objectP6slab_sPKv:
 1460              	.LFB25:
 304:src/kernel/slabAllocator.cpp **** 
 305:src/kernel/slabAllocator.cpp **** void free_slab_object(slab_t* slab, const void* objp)
 306:src/kernel/slabAllocator.cpp **** {
 1461              		.loc 1 306 1 is_stmt 1
 1462              		.cfi_startproc
 1463              	.LVL141:
 307:src/kernel/slabAllocator.cpp ****     if(slab == nullptr || objp == nullptr)
 1464              		.loc 1 307 5
 1465 0828 630A0512 		beqz	a0,.L93
 306:src/kernel/slabAllocator.cpp ****     if(slab == nullptr || objp == nullptr)
GAS LISTING /tmp/ccc39oBq.s 			page 33


 1466              		.loc 1 306 1 is_stmt 0 discriminator 1
 1467 082c 130101FD 		addi	sp,sp,-48
 1468              		.cfi_def_cfa_offset 48
 1469 0830 23341102 		sd	ra,40(sp)
 1470 0834 23308102 		sd	s0,32(sp)
 1471 0838 233C9100 		sd	s1,24(sp)
 1472 083c 23382101 		sd	s2,16(sp)
 1473 0840 23343101 		sd	s3,8(sp)
 1474 0844 23304101 		sd	s4,0(sp)
 1475              		.cfi_offset 1, -8
 1476              		.cfi_offset 8, -16
 1477              		.cfi_offset 9, -24
 1478              		.cfi_offset 18, -32
 1479              		.cfi_offset 19, -40
 1480              		.cfi_offset 20, -48
 1481 0848 13040103 		addi	s0,sp,48
 1482              		.cfi_def_cfa 8, 0
 1483 084c 93040500 		mv	s1,a0
 1484 0850 93890500 		mv	s3,a1
 1485              		.loc 1 307 24 discriminator 1
 1486 0854 63840508 		beqz	a1,.L86
 308:src/kernel/slabAllocator.cpp ****         return;
 309:src/kernel/slabAllocator.cpp ****     int indexOfObject = ((size_t)objp - sizeof(slab_t) - (size_t)slab) / slab->owner->obj_size;
 1487              		.loc 1 309 5 is_stmt 1
 1488              		.loc 1 309 56 is_stmt 0
 1489 0858 3389A540 		sub	s2,a1,a0
 1490 085c 130989DD 		addi	s2,s2,-552
 1491              		.loc 1 309 80
 1492 0860 033A0501 		ld	s4,16(a0)
 1493              		.loc 1 309 87
 1494 0864 83370A06 		ld	a5,96(s4)
 1495              		.loc 1 309 72
 1496 0868 3359F902 		divu	s2,s2,a5
 1497              		.loc 1 309 9
 1498 086c 1B090900 		sext.w	s2,s2
 1499              	.LVL142:
 310:src/kernel/slabAllocator.cpp ****     if((size_t)objp != (size_t)slab + sizeof(slab_t) + indexOfObject*slab->owner->obj_size) //addre
 1500              		.loc 1 310 5 is_stmt 1
 1501              		.loc 1 310 69 is_stmt 0
 1502 0870 B3872703 		mul	a5,a5,s2
 1503              		.loc 1 310 54
 1504 0874 B307F500 		add	a5,a0,a5
 1505 0878 93878722 		addi	a5,a5,552
 1506              		.loc 1 310 5
 1507 087c 6390F506 		bne	a1,a5,.L86
 311:src/kernel/slabAllocator.cpp ****         return;
 312:src/kernel/slabAllocator.cpp **** 
 313:src/kernel/slabAllocator.cpp ****     if(!checkSetIndex(slab, indexOfObject))
 1508              		.loc 1 313 5 is_stmt 1
 1509              		.loc 1 313 22 is_stmt 0
 1510 0880 93050900 		mv	a1,s2
 1511              	.LVL143:
 1512 0884 97000000 		call	_Z13checkSetIndexP6slab_si
 1512      E7800000 
 1513              	.LVL144:
 1514              		.loc 1 313 5
 1515 088c 63080504 		beqz	a0,.L86
GAS LISTING /tmp/ccc39oBq.s 			page 34


 314:src/kernel/slabAllocator.cpp ****         return;
 315:src/kernel/slabAllocator.cpp **** 
 316:src/kernel/slabAllocator.cpp ****     kmem_cache_t* cachep = slab->owner;
 1516              		.loc 1 316 5 is_stmt 1
 1517              	.LVL145:
 317:src/kernel/slabAllocator.cpp ****     if(cachep->dtor != nullptr)
 1518              		.loc 1 317 5
 1519              		.loc 1 317 16 is_stmt 0
 1520 0890 83370A07 		ld	a5,112(s4)
 1521              		.loc 1 317 5
 1522 0894 63860700 		beqz	a5,.L88
 318:src/kernel/slabAllocator.cpp ****         cachep->dtor((void*)objp);
 1523              		.loc 1 318 9 is_stmt 1
 1524              		.loc 1 318 21 is_stmt 0
 1525 0898 13850900 		mv	a0,s3
 1526 089c E7800700 		jalr	a5
 1527              	.LVL146:
 1528              	.L88:
 319:src/kernel/slabAllocator.cpp ****     if(cachep->ctor != nullptr)
 1529              		.loc 1 319 5 is_stmt 1
 1530              		.loc 1 319 16 is_stmt 0
 1531 08a0 83378A06 		ld	a5,104(s4)
 1532              		.loc 1 319 5
 1533 08a4 63860700 		beqz	a5,.L89
 320:src/kernel/slabAllocator.cpp ****         cachep->ctor((void*)objp);
 1534              		.loc 1 320 9 is_stmt 1
 1535              		.loc 1 320 21 is_stmt 0
 1536 08a8 13850900 		mv	a0,s3
 1537 08ac E7800700 		jalr	a5
 1538              	.LVL147:
 1539              	.L89:
 321:src/kernel/slabAllocator.cpp **** 
 322:src/kernel/slabAllocator.cpp ****     resetAllocatedIndex(slab, indexOfObject);
 1540              		.loc 1 322 5 is_stmt 1
 1541              		.loc 1 322 24 is_stmt 0
 1542 08b0 93050900 		mv	a1,s2
 1543 08b4 13850400 		mv	a0,s1
 1544 08b8 97000000 		call	_Z19resetAllocatedIndexP6slab_si
 1544      E7800000 
 1545              	.LVL148:
 323:src/kernel/slabAllocator.cpp ****     if(slab->numOfObjects == slab->numOfAllocatedObjects)
 1546              		.loc 1 323 5 is_stmt 1
 1547              		.loc 1 323 14 is_stmt 0
 1548 08c0 03B78401 		ld	a4,24(s1)
 1549              		.loc 1 323 36
 1550 08c4 83B70402 		ld	a5,32(s1)
 1551              		.loc 1 323 5
 1552 08c8 630AF702 		beq	a4,a5,.L96
 324:src/kernel/slabAllocator.cpp ****     {
 325:src/kernel/slabAllocator.cpp ****         removeFullSlab(slab->owner, slab);
 326:src/kernel/slabAllocator.cpp ****         slab->numOfAllocatedObjects--;
 327:src/kernel/slabAllocator.cpp ****         if(empty(slab))
 328:src/kernel/slabAllocator.cpp ****             removePartialSlab(slab->owner, slab);
 329:src/kernel/slabAllocator.cpp ****     }
 330:src/kernel/slabAllocator.cpp ****     else if(slab->numOfAllocatedObjects == 1)
 1553              		.loc 1 330 10 is_stmt 1
 1554 08cc 13071000 		li	a4,1
GAS LISTING /tmp/ccc39oBq.s 			page 35


 1555 08d0 6386E706 		beq	a5,a4,.L97
 331:src/kernel/slabAllocator.cpp ****     {
 332:src/kernel/slabAllocator.cpp ****         removePartialSlab(slab->owner, slab);
 333:src/kernel/slabAllocator.cpp ****         slab->numOfAllocatedObjects--;
 334:src/kernel/slabAllocator.cpp ****     }
 335:src/kernel/slabAllocator.cpp ****     else
 336:src/kernel/slabAllocator.cpp ****         slab->numOfAllocatedObjects--;
 1556              		.loc 1 336 9
 1557              		.loc 1 336 36 is_stmt 0
 1558 08d4 9387F7FF 		addi	a5,a5,-1
 1559 08d8 23B0F402 		sd	a5,32(s1)
 1560              	.LVL149:
 1561              	.L86:
 337:src/kernel/slabAllocator.cpp **** }
 1562              		.loc 1 337 1
 1563 08dc 83308102 		ld	ra,40(sp)
 1564              		.cfi_remember_state
 1565              		.cfi_restore 1
 1566 08e0 03340102 		ld	s0,32(sp)
 1567              		.cfi_restore 8
 1568              		.cfi_def_cfa 2, 48
 1569 08e4 83348101 		ld	s1,24(sp)
 1570              		.cfi_restore 9
 1571              	.LVL150:
 1572 08e8 03390101 		ld	s2,16(sp)
 1573              		.cfi_restore 18
 1574 08ec 83398100 		ld	s3,8(sp)
 1575              		.cfi_restore 19
 1576              	.LVL151:
 1577 08f0 033A0100 		ld	s4,0(sp)
 1578              		.cfi_restore 20
 1579 08f4 13010103 		addi	sp,sp,48
 1580              		.cfi_def_cfa_offset 0
 1581 08f8 67800000 		jr	ra
 1582              	.LVL152:
 1583              	.L96:
 1584              		.cfi_restore_state
 325:src/kernel/slabAllocator.cpp ****         slab->numOfAllocatedObjects--;
 1585              		.loc 1 325 9 is_stmt 1
 325:src/kernel/slabAllocator.cpp ****         slab->numOfAllocatedObjects--;
 1586              		.loc 1 325 23 is_stmt 0
 1587 08fc 93850400 		mv	a1,s1
 1588 0900 03B50401 		ld	a0,16(s1)
 1589 0904 97000000 		call	_Z14removeFullSlabP12kmem_cache_sP6slab_s
 1589      E7800000 
 1590              	.LVL153:
 326:src/kernel/slabAllocator.cpp ****         if(empty(slab))
 1591              		.loc 1 326 9 is_stmt 1
 326:src/kernel/slabAllocator.cpp ****         if(empty(slab))
 1592              		.loc 1 326 15 is_stmt 0
 1593 090c 83B70402 		ld	a5,32(s1)
 326:src/kernel/slabAllocator.cpp ****         if(empty(slab))
 1594              		.loc 1 326 36
 1595 0910 9387F7FF 		addi	a5,a5,-1
 1596 0914 23B0F402 		sd	a5,32(s1)
 327:src/kernel/slabAllocator.cpp ****             removePartialSlab(slab->owner, slab);
 1597              		.loc 1 327 9 is_stmt 1
GAS LISTING /tmp/ccc39oBq.s 			page 36


 327:src/kernel/slabAllocator.cpp ****             removePartialSlab(slab->owner, slab);
 1598              		.loc 1 327 17 is_stmt 0
 1599 0918 13850400 		mv	a0,s1
 1600 091c 97000000 		call	_Z5emptyP6slab_s
 1600      E7800000 
 1601              	.LVL154:
 327:src/kernel/slabAllocator.cpp ****             removePartialSlab(slab->owner, slab);
 1602              		.loc 1 327 9
 1603 0924 E30C05FA 		beqz	a0,.L86
 328:src/kernel/slabAllocator.cpp ****     }
 1604              		.loc 1 328 13 is_stmt 1
 328:src/kernel/slabAllocator.cpp ****     }
 1605              		.loc 1 328 30 is_stmt 0
 1606 0928 93850400 		mv	a1,s1
 1607 092c 03B50401 		ld	a0,16(s1)
 1608 0930 97000000 		call	_Z17removePartialSlabP12kmem_cache_sP6slab_s
 1608      E7800000 
 1609              	.LVL155:
 1610 0938 6FF05FFA 		j	.L86
 1611              	.L97:
 332:src/kernel/slabAllocator.cpp ****         slab->numOfAllocatedObjects--;
 1612              		.loc 1 332 9 is_stmt 1
 332:src/kernel/slabAllocator.cpp ****         slab->numOfAllocatedObjects--;
 1613              		.loc 1 332 26 is_stmt 0
 1614 093c 93850400 		mv	a1,s1
 1615 0940 03B50401 		ld	a0,16(s1)
 1616 0944 97000000 		call	_Z17removePartialSlabP12kmem_cache_sP6slab_s
 1616      E7800000 
 1617              	.LVL156:
 333:src/kernel/slabAllocator.cpp ****     }
 1618              		.loc 1 333 9 is_stmt 1
 333:src/kernel/slabAllocator.cpp ****     }
 1619              		.loc 1 333 15 is_stmt 0
 1620 094c 83B70402 		ld	a5,32(s1)
 333:src/kernel/slabAllocator.cpp ****     }
 1621              		.loc 1 333 36
 1622 0950 9387F7FF 		addi	a5,a5,-1
 1623 0954 23B0F402 		sd	a5,32(s1)
 1624 0958 6FF05FF8 		j	.L86
 1625              	.LVL157:
 1626              	.L93:
 1627              		.cfi_def_cfa_register 2
 1628              		.cfi_restore 1
 1629              		.cfi_restore 8
 1630              		.cfi_restore 9
 1631              		.cfi_restore 18
 1632              		.cfi_restore 19
 1633              		.cfi_restore 20
 1634 095c 67800000 		ret
 1635              		.cfi_endproc
 1636              	.LFE25:
 1638              		.align	2
 1639              		.globl	_Z9kmem_initPvi
 1641              	_Z9kmem_initPvi:
 1642              	.LFB27:
 338:src/kernel/slabAllocator.cpp **** 
 339:src/kernel/slabAllocator.cpp **** void printSlabAllocatorInfo()
GAS LISTING /tmp/ccc39oBq.s 			page 37


 340:src/kernel/slabAllocator.cpp **** {
 341:src/kernel/slabAllocator.cpp ****     KConsole::trapPrintString("\n\n\n\n\n\n\n\n\n");
 342:src/kernel/slabAllocator.cpp ****     KConsole::trapPrintString("Slab allocator info-------------------------------------------------
 343:src/kernel/slabAllocator.cpp ****     KConsole::trapPrintStringInt("Slab allocator address ", (size_t)slabAllocator, 16);
 344:src/kernel/slabAllocator.cpp ****     KConsole::trapPrintString("Cache of caches info\n");
 345:src/kernel/slabAllocator.cpp ****     kmem_cache_info(&slabAllocator->cacheOfCaches);
 346:src/kernel/slabAllocator.cpp ****     KConsole::trapPrintString("Caches for buffers\n");
 347:src/kernel/slabAllocator.cpp ****     for(size_t i = 0;i < CACHE_BUFFER_SIZE;i++)
 348:src/kernel/slabAllocator.cpp ****     {
 349:src/kernel/slabAllocator.cpp ****         if(slabAllocator->cachesBuffers[i] != nullptr)
 350:src/kernel/slabAllocator.cpp ****         {
 351:src/kernel/slabAllocator.cpp ****             kmem_cache_info(slabAllocator->cachesBuffers[i]);
 352:src/kernel/slabAllocator.cpp ****         }
 353:src/kernel/slabAllocator.cpp ****     }
 354:src/kernel/slabAllocator.cpp ****     KConsole::trapPrintString("\n\n\n\n\n\n\n\n\n");
 355:src/kernel/slabAllocator.cpp ****     printBuddyInfo();
 356:src/kernel/slabAllocator.cpp **** }
 357:src/kernel/slabAllocator.cpp **** 
 358:src/kernel/slabAllocator.cpp **** //slab allocator public interface------------------------------------------------------------------
 359:src/kernel/slabAllocator.cpp **** void kmem_init(void *space, int block_num)
 360:src/kernel/slabAllocator.cpp **** {
 1643              		.loc 1 360 1 is_stmt 1
 1644              		.cfi_startproc
 1645              	.LVL158:
 1646 0960 130101FF 		addi	sp,sp,-16
 1647              		.cfi_def_cfa_offset 16
 1648 0964 23341100 		sd	ra,8(sp)
 1649 0968 23308100 		sd	s0,0(sp)
 1650              		.cfi_offset 1, -8
 1651              		.cfi_offset 8, -16
 1652 096c 13040101 		addi	s0,sp,16
 1653              		.cfi_def_cfa 8, 0
 361:src/kernel/slabAllocator.cpp ****     buddyAllocator* buddy = buddy_init(space, block_num);
 1654              		.loc 1 361 5
 1655              		.loc 1 361 39 is_stmt 0
 1656 0970 97000000 		call	_Z10buddy_initPvm@plt
 1656      E7800000 
 1657              	.LVL159:
 362:src/kernel/slabAllocator.cpp ****     slabAllocator = slab_allocator_init(buddy);
 1658              		.loc 1 362 5 is_stmt 1
 1659              		.loc 1 362 40 is_stmt 0
 1660 0978 97000000 		call	_Z19slab_allocator_initP14buddyAllocator
 1660      E7800000 
 1661              	.LVL160:
 1662              		.loc 1 362 19
 1663 0980 97070000 		sd	a0,.LANCHOR0,a5
 1663      23B0A700 
 363:src/kernel/slabAllocator.cpp **** }
 1664              		.loc 1 363 1
 1665 0988 83308100 		ld	ra,8(sp)
 1666              		.cfi_restore 1
 1667 098c 03340100 		ld	s0,0(sp)
 1668              		.cfi_restore 8
 1669              		.cfi_def_cfa 2, 16
 1670 0990 13010101 		addi	sp,sp,16
 1671              		.cfi_def_cfa_offset 0
 1672 0994 67800000 		jr	ra
GAS LISTING /tmp/ccc39oBq.s 			page 38


 1673              		.cfi_endproc
 1674              	.LFE27:
 1676              		.align	2
 1677              		.globl	_Z16kmem_cache_allocP12kmem_cache_s
 1679              	_Z16kmem_cache_allocP12kmem_cache_s:
 1680              	.LFB29:
 364:src/kernel/slabAllocator.cpp **** 
 365:src/kernel/slabAllocator.cpp **** kmem_cache_t *kmem_cache_create(const char *name, size_t size,
 366:src/kernel/slabAllocator.cpp ****                                 void (*ctor)(void *),
 367:src/kernel/slabAllocator.cpp ****                                 void (*dtor)(void *))
 368:src/kernel/slabAllocator.cpp **** {
 369:src/kernel/slabAllocator.cpp ****     kmem_cache_t* newCache = (kmem_cache_t*)kmem_cache_alloc(&slabAllocator->cacheOfCaches);
 370:src/kernel/slabAllocator.cpp ****     if(newCache == nullptr)
 371:src/kernel/slabAllocator.cpp ****         return nullptr;
 372:src/kernel/slabAllocator.cpp ****     init_cache(newCache, name, getOptimalSlabSize(size), size, ctor,dtor);
 373:src/kernel/slabAllocator.cpp ****     return newCache;
 374:src/kernel/slabAllocator.cpp **** }
 375:src/kernel/slabAllocator.cpp **** 
 376:src/kernel/slabAllocator.cpp **** void *kmem_cache_alloc(kmem_cache_t *cachep)
 377:src/kernel/slabAllocator.cpp **** {
 1681              		.loc 1 377 1 is_stmt 1
 1682              		.cfi_startproc
 1683              	.LVL161:
 1684 0998 130101FE 		addi	sp,sp,-32
 1685              		.cfi_def_cfa_offset 32
 1686 099c 233C1100 		sd	ra,24(sp)
 1687 09a0 23388100 		sd	s0,16(sp)
 1688 09a4 23349100 		sd	s1,8(sp)
 1689 09a8 23302101 		sd	s2,0(sp)
 1690              		.cfi_offset 1, -8
 1691              		.cfi_offset 8, -16
 1692              		.cfi_offset 9, -24
 1693              		.cfi_offset 18, -32
 1694 09ac 13040102 		addi	s0,sp,32
 1695              		.cfi_def_cfa 8, 0
 1696 09b0 93040500 		mv	s1,a0
 378:src/kernel/slabAllocator.cpp ****     if(cachep == nullptr)
 1697              		.loc 1 378 5
 1698 09b4 630A0510 		beqz	a0,.L108
 379:src/kernel/slabAllocator.cpp ****         return nullptr;
 380:src/kernel/slabAllocator.cpp **** 
 381:src/kernel/slabAllocator.cpp ****     if(cachep->slabs_partial != nullptr)
 1699              		.loc 1 381 5
 1700              	.LBB16:
 1701              		.loc 1 381 16 is_stmt 0
 1702 09b8 03350505 		ld	a0,80(a0)
 1703              	.LVL162:
 1704              		.loc 1 381 5
 1705 09bc 631A0504 		bnez	a0,.L110
 1706              	.LBE16:
 382:src/kernel/slabAllocator.cpp ****     {
 383:src/kernel/slabAllocator.cpp ****         void* allocatedAddr = allocateObject(cachep->slabs_partial);
 384:src/kernel/slabAllocator.cpp ****         if(full(cachep->slabs_partial))
 385:src/kernel/slabAllocator.cpp ****             putPartialToFull(cachep);
 386:src/kernel/slabAllocator.cpp ****         return allocatedAddr;
 387:src/kernel/slabAllocator.cpp ****     }
 388:src/kernel/slabAllocator.cpp ****     else if(cachep->slabs_empty != nullptr)
GAS LISTING /tmp/ccc39oBq.s 			page 39


 1707              		.loc 1 388 10 is_stmt 1
 1708              	.LBB23:
 1709              	.LBB17:
 1710              		.loc 1 388 21 is_stmt 0
 1711 09c0 03B50404 		ld	a0,64(s1)
 1712              		.loc 1 388 10
 1713 09c4 630A0508 		beqz	a0,.L104
 1714              	.LBB18:
 389:src/kernel/slabAllocator.cpp ****     {
 390:src/kernel/slabAllocator.cpp ****         void* allocatedAddr = allocateObject(cachep->slabs_empty);
 1715              		.loc 1 390 9 is_stmt 1
 1716              		.loc 1 390 45 is_stmt 0
 1717 09c8 97000000 		call	_Z14allocateObjectP6slab_s
 1717      E7800000 
 1718              	.LVL163:
 1719 09d0 13090500 		mv	s2,a0
 1720              	.LVL164:
 391:src/kernel/slabAllocator.cpp ****         if(!empty(cachep->slabs_empty))
 1721              		.loc 1 391 9 is_stmt 1
 1722              		.loc 1 391 18 is_stmt 0
 1723 09d4 03B50404 		ld	a0,64(s1)
 1724              	.LVL165:
 1725 09d8 97000000 		call	_Z5emptyP6slab_s
 1725      E7800000 
 1726              	.LVL166:
 1727              		.loc 1 391 9
 1728 09e0 63160504 		bnez	a0,.L100
 392:src/kernel/slabAllocator.cpp ****         {
 393:src/kernel/slabAllocator.cpp ****             putEmptyToPartial(cachep);
 1729              		.loc 1 393 13 is_stmt 1
 1730              		.loc 1 393 30 is_stmt 0
 1731 09e4 13850400 		mv	a0,s1
 1732 09e8 97000000 		call	_Z17putEmptyToPartialP12kmem_cache_s
 1732      E7800000 
 1733              	.LVL167:
 394:src/kernel/slabAllocator.cpp ****             if(full(cachep->slabs_partial))
 1734              		.loc 1 394 13 is_stmt 1
 1735              		.loc 1 394 20 is_stmt 0
 1736 09f0 03B50405 		ld	a0,80(s1)
 1737 09f4 97000000 		call	_Z4fullP6slab_s
 1737      E7800000 
 1738              	.LVL168:
 1739              		.loc 1 394 13
 1740 09fc 63080502 		beqz	a0,.L100
 395:src/kernel/slabAllocator.cpp ****                 putPartialToFull(cachep);
 1741              		.loc 1 395 17 is_stmt 1
 1742              		.loc 1 395 33 is_stmt 0
 1743 0a00 13850400 		mv	a0,s1
 1744 0a04 97000000 		call	_Z16putPartialToFullP12kmem_cache_s
 1744      E7800000 
 1745              	.LVL169:
 396:src/kernel/slabAllocator.cpp ****         }
 397:src/kernel/slabAllocator.cpp ****         return allocatedAddr;
 1746              		.loc 1 397 9 is_stmt 1
 1747              		.loc 1 397 16 is_stmt 0
 1748 0a0c 6F000002 		j	.L100
 1749              	.LVL170:
GAS LISTING /tmp/ccc39oBq.s 			page 40


 1750              	.L110:
 1751              	.LBE18:
 1752              	.LBE17:
 1753              	.LBB20:
 383:src/kernel/slabAllocator.cpp ****         if(full(cachep->slabs_partial))
 1754              		.loc 1 383 9 is_stmt 1
 383:src/kernel/slabAllocator.cpp ****         if(full(cachep->slabs_partial))
 1755              		.loc 1 383 45 is_stmt 0
 1756 0a10 97000000 		call	_Z14allocateObjectP6slab_s
 1756      E7800000 
 1757              	.LVL171:
 1758 0a18 13090500 		mv	s2,a0
 1759              	.LVL172:
 384:src/kernel/slabAllocator.cpp ****             putPartialToFull(cachep);
 1760              		.loc 1 384 9 is_stmt 1
 384:src/kernel/slabAllocator.cpp ****             putPartialToFull(cachep);
 1761              		.loc 1 384 16 is_stmt 0
 1762 0a1c 03B50405 		ld	a0,80(s1)
 1763              	.LVL173:
 1764 0a20 97000000 		call	_Z4fullP6slab_s
 1764      E7800000 
 1765              	.LVL174:
 384:src/kernel/slabAllocator.cpp ****             putPartialToFull(cachep);
 1766              		.loc 1 384 9
 1767 0a28 63100502 		bnez	a0,.L111
 1768              	.LVL175:
 1769              	.L100:
 1770              	.LBE20:
 1771              	.LBE23:
 398:src/kernel/slabAllocator.cpp ****     }
 399:src/kernel/slabAllocator.cpp ****     else
 400:src/kernel/slabAllocator.cpp ****     {
 401:src/kernel/slabAllocator.cpp ****         allocateSlab(cachep);
 402:src/kernel/slabAllocator.cpp ****         if(cachep->slabs_empty == nullptr)
 403:src/kernel/slabAllocator.cpp ****         {
 404:src/kernel/slabAllocator.cpp ****             cachep->errors|=EXPAND_ERROR;
 405:src/kernel/slabAllocator.cpp ****             return nullptr;
 406:src/kernel/slabAllocator.cpp ****         }
 407:src/kernel/slabAllocator.cpp ****         void* allocatedAddr = allocateObject(cachep->slabs_empty);
 408:src/kernel/slabAllocator.cpp ****         if(!empty(cachep->slabs_empty))
 409:src/kernel/slabAllocator.cpp ****         {
 410:src/kernel/slabAllocator.cpp ****             putEmptyToPartial(cachep);
 411:src/kernel/slabAllocator.cpp ****             if(full(cachep->slabs_partial))
 412:src/kernel/slabAllocator.cpp ****                 putPartialToFull(cachep);
 413:src/kernel/slabAllocator.cpp ****         }
 414:src/kernel/slabAllocator.cpp ****         return allocatedAddr;
 415:src/kernel/slabAllocator.cpp ****     }
 416:src/kernel/slabAllocator.cpp ****     return nullptr;
 417:src/kernel/slabAllocator.cpp **** }
 1772              		.loc 1 417 1
 1773 0a2c 13050900 		mv	a0,s2
 1774 0a30 83308101 		ld	ra,24(sp)
 1775              		.cfi_remember_state
 1776              		.cfi_restore 1
 1777 0a34 03340101 		ld	s0,16(sp)
 1778              		.cfi_restore 8
 1779              		.cfi_def_cfa 2, 32
GAS LISTING /tmp/ccc39oBq.s 			page 41


 1780 0a38 83348100 		ld	s1,8(sp)
 1781              		.cfi_restore 9
 1782              	.LVL176:
 1783 0a3c 03390100 		ld	s2,0(sp)
 1784              		.cfi_restore 18
 1785 0a40 13010102 		addi	sp,sp,32
 1786              		.cfi_def_cfa_offset 0
 1787 0a44 67800000 		jr	ra
 1788              	.LVL177:
 1789              	.L111:
 1790              		.cfi_restore_state
 1791              	.LBB24:
 1792              	.LBB21:
 385:src/kernel/slabAllocator.cpp ****         return allocatedAddr;
 1793              		.loc 1 385 13 is_stmt 1
 385:src/kernel/slabAllocator.cpp ****         return allocatedAddr;
 1794              		.loc 1 385 29 is_stmt 0
 1795 0a48 13850400 		mv	a0,s1
 1796 0a4c 97000000 		call	_Z16putPartialToFullP12kmem_cache_s
 1796      E7800000 
 1797              	.LVL178:
 386:src/kernel/slabAllocator.cpp ****     }
 1798              		.loc 1 386 9 is_stmt 1
 386:src/kernel/slabAllocator.cpp ****     }
 1799              		.loc 1 386 16 is_stmt 0
 1800 0a54 6FF09FFD 		j	.L100
 1801              	.LVL179:
 1802              	.L104:
 1803              	.LBE21:
 1804              	.LBB22:
 1805              	.LBB19:
 401:src/kernel/slabAllocator.cpp ****         if(cachep->slabs_empty == nullptr)
 1806              		.loc 1 401 9 is_stmt 1
 401:src/kernel/slabAllocator.cpp ****         if(cachep->slabs_empty == nullptr)
 1807              		.loc 1 401 21 is_stmt 0
 1808 0a58 13850400 		mv	a0,s1
 1809 0a5c 97000000 		call	_Z12allocateSlabP12kmem_cache_s
 1809      E7800000 
 1810              	.LVL180:
 402:src/kernel/slabAllocator.cpp ****         {
 1811              		.loc 1 402 9 is_stmt 1
 402:src/kernel/slabAllocator.cpp ****         {
 1812              		.loc 1 402 20 is_stmt 0
 1813 0a64 03B90404 		ld	s2,64(s1)
 402:src/kernel/slabAllocator.cpp ****         {
 1814              		.loc 1 402 9
 1815 0a68 63080904 		beqz	s2,.L112
 407:src/kernel/slabAllocator.cpp ****         if(!empty(cachep->slabs_empty))
 1816              		.loc 1 407 9 is_stmt 1
 407:src/kernel/slabAllocator.cpp ****         if(!empty(cachep->slabs_empty))
 1817              		.loc 1 407 45 is_stmt 0
 1818 0a6c 13050900 		mv	a0,s2
 1819 0a70 97000000 		call	_Z14allocateObjectP6slab_s
 1819      E7800000 
 1820              	.LVL181:
 1821 0a78 13090500 		mv	s2,a0
 1822              	.LVL182:
GAS LISTING /tmp/ccc39oBq.s 			page 42


 408:src/kernel/slabAllocator.cpp ****         {
 1823              		.loc 1 408 9 is_stmt 1
 408:src/kernel/slabAllocator.cpp ****         {
 1824              		.loc 1 408 18 is_stmt 0
 1825 0a7c 03B50404 		ld	a0,64(s1)
 1826              	.LVL183:
 1827 0a80 97000000 		call	_Z5emptyP6slab_s
 1827      E7800000 
 1828              	.LVL184:
 408:src/kernel/slabAllocator.cpp ****         {
 1829              		.loc 1 408 9
 1830 0a88 E31205FA 		bnez	a0,.L100
 410:src/kernel/slabAllocator.cpp ****             if(full(cachep->slabs_partial))
 1831              		.loc 1 410 13 is_stmt 1
 410:src/kernel/slabAllocator.cpp ****             if(full(cachep->slabs_partial))
 1832              		.loc 1 410 30 is_stmt 0
 1833 0a8c 13850400 		mv	a0,s1
 1834 0a90 97000000 		call	_Z17putEmptyToPartialP12kmem_cache_s
 1834      E7800000 
 1835              	.LVL185:
 411:src/kernel/slabAllocator.cpp ****                 putPartialToFull(cachep);
 1836              		.loc 1 411 13 is_stmt 1
 411:src/kernel/slabAllocator.cpp ****                 putPartialToFull(cachep);
 1837              		.loc 1 411 20 is_stmt 0
 1838 0a98 03B50405 		ld	a0,80(s1)
 1839 0a9c 97000000 		call	_Z4fullP6slab_s
 1839      E7800000 
 1840              	.LVL186:
 411:src/kernel/slabAllocator.cpp ****                 putPartialToFull(cachep);
 1841              		.loc 1 411 13
 1842 0aa4 E30405F8 		beqz	a0,.L100
 412:src/kernel/slabAllocator.cpp ****         }
 1843              		.loc 1 412 17 is_stmt 1
 412:src/kernel/slabAllocator.cpp ****         }
 1844              		.loc 1 412 33 is_stmt 0
 1845 0aa8 13850400 		mv	a0,s1
 1846 0aac 97000000 		call	_Z16putPartialToFullP12kmem_cache_s
 1846      E7800000 
 1847              	.LVL187:
 414:src/kernel/slabAllocator.cpp ****     }
 1848              		.loc 1 414 9 is_stmt 1
 414:src/kernel/slabAllocator.cpp ****     }
 1849              		.loc 1 414 16 is_stmt 0
 1850 0ab4 6FF09FF7 		j	.L100
 1851              	.LVL188:
 1852              	.L112:
 404:src/kernel/slabAllocator.cpp ****             return nullptr;
 1853              		.loc 1 404 13 is_stmt 1
 404:src/kernel/slabAllocator.cpp ****             return nullptr;
 1854              		.loc 1 404 27 is_stmt 0
 1855 0ab8 83A78407 		lw	a5,120(s1)
 1856 0abc 93E71700 		ori	a5,a5,1
 1857 0ac0 23ACF406 		sw	a5,120(s1)
 405:src/kernel/slabAllocator.cpp ****         }
 1858              		.loc 1 405 13 is_stmt 1
 405:src/kernel/slabAllocator.cpp ****         }
 1859              		.loc 1 405 20 is_stmt 0
GAS LISTING /tmp/ccc39oBq.s 			page 43


 1860 0ac4 6FF09FF6 		j	.L100
 1861              	.L108:
 1862              	.LBE19:
 1863              	.LBE22:
 1864              	.LBE24:
 379:src/kernel/slabAllocator.cpp **** 
 1865              		.loc 1 379 16
 1866 0ac8 13090500 		mv	s2,a0
 1867 0acc 6FF01FF6 		j	.L100
 1868              		.cfi_endproc
 1869              	.LFE29:
 1871              		.align	2
 1872              		.globl	_Z17kmem_cache_createPKcmPFvPvES3_
 1874              	_Z17kmem_cache_createPKcmPFvPvES3_:
 1875              	.LFB28:
 368:src/kernel/slabAllocator.cpp ****     kmem_cache_t* newCache = (kmem_cache_t*)kmem_cache_alloc(&slabAllocator->cacheOfCaches);
 1876              		.loc 1 368 1 is_stmt 1
 1877              		.cfi_startproc
 1878              	.LVL189:
 1879 0ad0 130101FC 		addi	sp,sp,-64
 1880              		.cfi_def_cfa_offset 64
 1881 0ad4 233C1102 		sd	ra,56(sp)
 1882 0ad8 23388102 		sd	s0,48(sp)
 1883 0adc 23349102 		sd	s1,40(sp)
 1884 0ae0 23302103 		sd	s2,32(sp)
 1885 0ae4 233C3101 		sd	s3,24(sp)
 1886 0ae8 23384101 		sd	s4,16(sp)
 1887 0aec 23345101 		sd	s5,8(sp)
 1888              		.cfi_offset 1, -8
 1889              		.cfi_offset 8, -16
 1890              		.cfi_offset 9, -24
 1891              		.cfi_offset 18, -32
 1892              		.cfi_offset 19, -40
 1893              		.cfi_offset 20, -48
 1894              		.cfi_offset 21, -56
 1895 0af0 13040104 		addi	s0,sp,64
 1896              		.cfi_def_cfa 8, 0
 1897 0af4 93090500 		mv	s3,a0
 1898 0af8 13890500 		mv	s2,a1
 1899 0afc 130A0600 		mv	s4,a2
 1900 0b00 938A0600 		mv	s5,a3
 369:src/kernel/slabAllocator.cpp ****     if(newCache == nullptr)
 1901              		.loc 1 369 5
 369:src/kernel/slabAllocator.cpp ****     if(newCache == nullptr)
 1902              		.loc 1 369 61 is_stmt 0
 1903 0b04 17050000 		ld	a0,.LANCHOR0
 1903      03350500 
 1904              	.LVL190:
 1905 0b0c 13058506 		addi	a0,a0,104
 1906 0b10 97000000 		call	_Z16kmem_cache_allocP12kmem_cache_s
 1906      E7800000 
 1907              	.LVL191:
 1908 0b18 93040500 		mv	s1,a0
 1909              	.LVL192:
 370:src/kernel/slabAllocator.cpp ****         return nullptr;
 1910              		.loc 1 370 5 is_stmt 1
 1911 0b1c 63080502 		beqz	a0,.L113
GAS LISTING /tmp/ccc39oBq.s 			page 44


 372:src/kernel/slabAllocator.cpp ****     return newCache;
 1912              		.loc 1 372 5
 372:src/kernel/slabAllocator.cpp ****     return newCache;
 1913              		.loc 1 372 15 is_stmt 0
 1914 0b20 13050900 		mv	a0,s2
 1915 0b24 97000000 		call	_Z18getOptimalSlabSizem
 1915      E7800000 
 1916              	.LVL193:
 1917 0b2c 13060500 		mv	a2,a0
 1918 0b30 93870A00 		mv	a5,s5
 1919 0b34 13070A00 		mv	a4,s4
 1920 0b38 93060900 		mv	a3,s2
 1921 0b3c 93850900 		mv	a1,s3
 1922 0b40 13850400 		mv	a0,s1
 1923 0b44 97000000 		call	_Z10init_cacheP12kmem_cache_sPKcmmPFvPvES5_
 1923      E7800000 
 1924              	.LVL194:
 373:src/kernel/slabAllocator.cpp **** }
 1925              		.loc 1 373 5 is_stmt 1
 1926              	.L113:
 374:src/kernel/slabAllocator.cpp **** 
 1927              		.loc 1 374 1 is_stmt 0
 1928 0b4c 13850400 		mv	a0,s1
 1929 0b50 83308103 		ld	ra,56(sp)
 1930              		.cfi_restore 1
 1931 0b54 03340103 		ld	s0,48(sp)
 1932              		.cfi_restore 8
 1933              		.cfi_def_cfa 2, 64
 1934 0b58 83348102 		ld	s1,40(sp)
 1935              		.cfi_restore 9
 1936              	.LVL195:
 1937 0b5c 03390102 		ld	s2,32(sp)
 1938              		.cfi_restore 18
 1939              	.LVL196:
 1940 0b60 83398101 		ld	s3,24(sp)
 1941              		.cfi_restore 19
 1942              	.LVL197:
 1943 0b64 033A0101 		ld	s4,16(sp)
 1944              		.cfi_restore 20
 1945              	.LVL198:
 1946 0b68 833A8100 		ld	s5,8(sp)
 1947              		.cfi_restore 21
 1948              	.LVL199:
 1949 0b6c 13010104 		addi	sp,sp,64
 1950              		.cfi_def_cfa_offset 0
 1951 0b70 67800000 		jr	ra
 1952              		.cfi_endproc
 1953              	.LFE28:
 1955              		.align	2
 1956              		.globl	_Z15kmem_cache_freeP12kmem_cache_sPv
 1958              	_Z15kmem_cache_freeP12kmem_cache_sPv:
 1959              	.LFB30:
 418:src/kernel/slabAllocator.cpp **** 
 419:src/kernel/slabAllocator.cpp **** void kmem_cache_free(kmem_cache_t *cachep, void *objp)
 420:src/kernel/slabAllocator.cpp **** {
 1960              		.loc 1 420 1 is_stmt 1
 1961              		.cfi_startproc
GAS LISTING /tmp/ccc39oBq.s 			page 45


 1962              	.LVL200:
 421:src/kernel/slabAllocator.cpp ****     if(cachep == nullptr || objp == nullptr)
 1963              		.loc 1 421 5
 1964 0b74 63060504 		beqz	a0,.L119
 420:src/kernel/slabAllocator.cpp ****     if(cachep == nullptr || objp == nullptr)
 1965              		.loc 1 420 1 is_stmt 0 discriminator 1
 1966 0b78 130101FE 		addi	sp,sp,-32
 1967              		.cfi_def_cfa_offset 32
 1968 0b7c 233C1100 		sd	ra,24(sp)
 1969 0b80 23388100 		sd	s0,16(sp)
 1970 0b84 23349100 		sd	s1,8(sp)
 1971              		.cfi_offset 1, -8
 1972              		.cfi_offset 8, -16
 1973              		.cfi_offset 9, -24
 1974 0b88 13040102 		addi	s0,sp,32
 1975              		.cfi_def_cfa 8, 0
 1976 0b8c 93840500 		mv	s1,a1
 1977              		.loc 1 421 26 discriminator 1
 1978 0b90 638E0500 		beqz	a1,.L116
 422:src/kernel/slabAllocator.cpp ****         return;
 423:src/kernel/slabAllocator.cpp ****     slab_t* slab = findSlab(cachep, objp);
 1979              		.loc 1 423 5 is_stmt 1
 1980              		.loc 1 423 28 is_stmt 0
 1981 0b94 97000000 		call	_Z8findSlabP12kmem_cache_sPKv
 1981      E7800000 
 1982              	.LVL201:
 424:src/kernel/slabAllocator.cpp ****     if(slab == nullptr) return;
 1983              		.loc 1 424 5 is_stmt 1
 1984 0b9c 63080500 		beqz	a0,.L116
 425:src/kernel/slabAllocator.cpp **** 
 426:src/kernel/slabAllocator.cpp ****     free_slab_object(slab, objp);
 1985              		.loc 1 426 5
 1986              		.loc 1 426 21 is_stmt 0
 1987 0ba0 93850400 		mv	a1,s1
 1988 0ba4 97000000 		call	_Z16free_slab_objectP6slab_sPKv
 1988      E7800000 
 1989              	.LVL202:
 1990              	.L116:
 427:src/kernel/slabAllocator.cpp **** }
 1991              		.loc 1 427 1
 1992 0bac 83308101 		ld	ra,24(sp)
 1993              		.cfi_restore 1
 1994 0bb0 03340101 		ld	s0,16(sp)
 1995              		.cfi_restore 8
 1996              		.cfi_def_cfa 2, 32
 1997 0bb4 83348100 		ld	s1,8(sp)
 1998              		.cfi_restore 9
 1999              	.LVL203:
 2000 0bb8 13010102 		addi	sp,sp,32
 2001              		.cfi_def_cfa_offset 0
 2002 0bbc 67800000 		jr	ra
 2003              	.LVL204:
 2004              	.L119:
 2005 0bc0 67800000 		ret
 2006              		.cfi_endproc
 2007              	.LFE30:
 2009              		.section	.rodata.str1.8
GAS LISTING /tmp/ccc39oBq.s 			page 46


 2010 006b 00000000 		.align	3
 2010      00
 2011              	.LC5:
 2012 0070 0A0A0A0A 		.string	"\n\n\n\n\n"
 2012      0A00
 2013 0076 0000     		.align	3
 2014              	.LC6:
 2015 0078 4B6D656D 		.string	"Kmem Cache Info-------------------------------------\n"
 2015      20436163 
 2015      68652049 
 2015      6E666F2D 
 2015      2D2D2D2D 
 2016 00ae 0000     		.align	3
 2017              	.LC7:
 2018 00b0 43616368 		.string	"Cache Name "
 2018      65204E61 
 2018      6D652000 
 2019 00bc 00000000 		.align	3
 2020              	.LC8:
 2021 00c0 0A00     		.string	"\n"
 2022 00c2 00000000 		.align	3
 2022      0000
 2023              	.LC9:
 2024 00c8 43616368 		.string	"Cache slab size in blocks "
 2024      6520736C 
 2024      61622073 
 2024      697A6520 
 2024      696E2062 
 2025 00e3 00000000 		.align	3
 2025      00
 2026              	.LC10:
 2027 00e8 43616368 		.string	"Cache obj size in bytes "
 2027      65206F62 
 2027      6A207369 
 2027      7A652069 
 2027      6E206279 
 2028 0101 00000000 		.align	3
 2028      000000
 2029              	.LC11:
 2030 0108 536C6162 		.string	"Slabs info-------------------\n"
 2030      7320696E 
 2030      666F2D2D 
 2030      2D2D2D2D 
 2030      2D2D2D2D 
 2031 0127 00       		.align	3
 2032              	.LC12:
 2033 0128 46756C6C 		.string	"Full slabs\n"
 2033      20736C61 
 2033      62730A00 
 2034 0134 00000000 		.align	3
 2035              	.LC13:
 2036 0138 50617274 		.string	"Partial slabs\n"
 2036      69616C20 
 2036      736C6162 
 2036      730A00
 2037 0147 00       		.align	3
 2038              	.LC14:
GAS LISTING /tmp/ccc39oBq.s 			page 47


 2039 0148 456D7074 		.string	"Empty slabs\n"
 2039      7920736C 
 2039      6162730A 
 2039      00
 2040              		.text
 2041              		.align	2
 2042              		.globl	_Z15kmem_cache_infoP12kmem_cache_s
 2044              	_Z15kmem_cache_infoP12kmem_cache_s:
 2045              	.LFB31:
 428:src/kernel/slabAllocator.cpp **** 
 429:src/kernel/slabAllocator.cpp **** //TODO what needs to be printed
 430:src/kernel/slabAllocator.cpp **** void kmem_cache_info(kmem_cache_t *cachep)
 431:src/kernel/slabAllocator.cpp **** {
 2046              		.loc 1 431 1 is_stmt 1
 2047              		.cfi_startproc
 2048              	.LVL205:
 432:src/kernel/slabAllocator.cpp ****     if(cachep == nullptr)
 2049              		.loc 1 432 5
 2050 0bc4 630C0514 		beqz	a0,.L131
 431:src/kernel/slabAllocator.cpp ****     if(cachep == nullptr)
 2051              		.loc 1 431 1 is_stmt 0
 2052 0bc8 130101FE 		addi	sp,sp,-32
 2053              		.cfi_def_cfa_offset 32
 2054 0bcc 233C1100 		sd	ra,24(sp)
 2055 0bd0 23388100 		sd	s0,16(sp)
 2056 0bd4 23349100 		sd	s1,8(sp)
 2057 0bd8 23302101 		sd	s2,0(sp)
 2058              		.cfi_offset 1, -8
 2059              		.cfi_offset 8, -16
 2060              		.cfi_offset 9, -24
 2061              		.cfi_offset 18, -32
 2062 0bdc 13040102 		addi	s0,sp,32
 2063              		.cfi_def_cfa 8, 0
 2064 0be0 13090500 		mv	s2,a0
 433:src/kernel/slabAllocator.cpp ****         return;
 434:src/kernel/slabAllocator.cpp ****     KConsole::trapPrintString("\n\n\n\n\n");
 2065              		.loc 1 434 5 is_stmt 1
 2066              		.loc 1 434 30 is_stmt 0
 2067 0be4 17050000 		lla	a0,.LC5
 2067      13050500 
 2068              	.LVL206:
 2069 0bec 97000000 		call	_ZN8KConsole15trapPrintStringEPKc@plt
 2069      E7800000 
 2070              	.LVL207:
 435:src/kernel/slabAllocator.cpp ****     KConsole::trapPrintString("Kmem Cache Info-------------------------------------\n");
 2071              		.loc 1 435 5 is_stmt 1
 2072              		.loc 1 435 30 is_stmt 0
 2073 0bf4 17050000 		lla	a0,.LC6
 2073      13050500 
 2074 0bfc 97000000 		call	_ZN8KConsole15trapPrintStringEPKc@plt
 2074      E7800000 
 2075              	.LVL208:
 436:src/kernel/slabAllocator.cpp ****     KConsole::trapPrintString("Cache Name ");
 2076              		.loc 1 436 5 is_stmt 1
 2077              		.loc 1 436 30 is_stmt 0
 2078 0c04 17050000 		lla	a0,.LC7
 2078      13050500 
GAS LISTING /tmp/ccc39oBq.s 			page 48


 2079 0c0c 97000000 		call	_ZN8KConsole15trapPrintStringEPKc@plt
 2079      E7800000 
 2080              	.LVL209:
 437:src/kernel/slabAllocator.cpp ****     KConsole::trapPrintString(cachep->cacheName); KConsole::trapPrintString("\n");
 2081              		.loc 1 437 5 is_stmt 1
 2082              		.loc 1 437 30 is_stmt 0
 2083 0c14 13050900 		mv	a0,s2
 2084 0c18 97000000 		call	_ZN8KConsole15trapPrintStringEPKc@plt
 2084      E7800000 
 2085              	.LVL210:
 2086              		.loc 1 437 51 is_stmt 1
 2087              		.loc 1 437 76 is_stmt 0
 2088 0c20 17050000 		lla	a0,.LC8
 2088      13050500 
 2089 0c28 97000000 		call	_ZN8KConsole15trapPrintStringEPKc@plt
 2089      E7800000 
 2090              	.LVL211:
 438:src/kernel/slabAllocator.cpp ****     KConsole::trapPrintStringInt("Cache slab size in blocks ", cachep->slab_size);
 2091              		.loc 1 438 5 is_stmt 1
 2092              		.loc 1 438 33 is_stmt 0
 2093 0c30 1306A000 		li	a2,10
 2094 0c34 83358905 		ld	a1,88(s2)
 2095 0c38 17050000 		lla	a0,.LC9
 2095      13050500 
 2096 0c40 97000000 		call	_ZN8KConsole18trapPrintStringIntEPKcmi@plt
 2096      E7800000 
 2097              	.LVL212:
 439:src/kernel/slabAllocator.cpp ****     KConsole::trapPrintStringInt("Cache obj size in bytes ", cachep->obj_size);
 2098              		.loc 1 439 5 is_stmt 1
 2099              		.loc 1 439 33 is_stmt 0
 2100 0c48 1306A000 		li	a2,10
 2101 0c4c 83350906 		ld	a1,96(s2)
 2102 0c50 17050000 		lla	a0,.LC10
 2102      13050500 
 2103 0c58 97000000 		call	_ZN8KConsole18trapPrintStringIntEPKcmi@plt
 2103      E7800000 
 2104              	.LVL213:
 440:src/kernel/slabAllocator.cpp ****     
 441:src/kernel/slabAllocator.cpp ****     KConsole::trapPrintString("Slabs info-------------------\n");
 2105              		.loc 1 441 5 is_stmt 1
 2106              		.loc 1 441 30 is_stmt 0
 2107 0c60 17050000 		lla	a0,.LC11
 2107      13050500 
 2108 0c68 97000000 		call	_ZN8KConsole15trapPrintStringEPKc@plt
 2108      E7800000 
 2109              	.LVL214:
 442:src/kernel/slabAllocator.cpp **** 
 443:src/kernel/slabAllocator.cpp ****     KConsole::trapPrintString("Full slabs\n");
 2110              		.loc 1 443 5 is_stmt 1
 2111              		.loc 1 443 30 is_stmt 0
 2112 0c70 17050000 		lla	a0,.LC12
 2112      13050500 
 2113 0c78 97000000 		call	_ZN8KConsole15trapPrintStringEPKc@plt
 2113      E7800000 
 2114              	.LVL215:
 444:src/kernel/slabAllocator.cpp ****     slab_t* slab = cachep->slabs_full;
 2115              		.loc 1 444 5 is_stmt 1
GAS LISTING /tmp/ccc39oBq.s 			page 49


 2116              		.loc 1 444 13 is_stmt 0
 2117 0c80 83348904 		ld	s1,72(s2)
 2118              	.LVL216:
 2119              	.L125:
 445:src/kernel/slabAllocator.cpp ****     while(slab != nullptr)
 2120              		.loc 1 445 5 is_stmt 1
 2121              		.loc 1 445 16
 2122 0c84 638C0400 		beqz	s1,.L124
 446:src/kernel/slabAllocator.cpp ****     {
 447:src/kernel/slabAllocator.cpp ****         printSlabInfo(slab);
 2123              		.loc 1 447 9
 2124              		.loc 1 447 22 is_stmt 0
 2125 0c88 13850400 		mv	a0,s1
 2126 0c8c 97000000 		call	_Z13printSlabInfoP6slab_s
 2126      E7800000 
 2127              	.LVL217:
 448:src/kernel/slabAllocator.cpp ****         slab = slab->next;
 2128              		.loc 1 448 9 is_stmt 1
 2129              		.loc 1 448 14 is_stmt 0
 2130 0c94 83B48400 		ld	s1,8(s1)
 2131              	.LVL218:
 445:src/kernel/slabAllocator.cpp ****     while(slab != nullptr)
 2132              		.loc 1 445 5
 2133 0c98 6FF0DFFE 		j	.L125
 2134              	.L124:
 449:src/kernel/slabAllocator.cpp ****     }
 450:src/kernel/slabAllocator.cpp **** 
 451:src/kernel/slabAllocator.cpp ****     KConsole::trapPrintString("Partial slabs\n");
 2135              		.loc 1 451 5 is_stmt 1
 2136              		.loc 1 451 30 is_stmt 0
 2137 0c9c 17050000 		lla	a0,.LC13
 2137      13050500 
 2138 0ca4 97000000 		call	_ZN8KConsole15trapPrintStringEPKc@plt
 2138      E7800000 
 2139              	.LVL219:
 452:src/kernel/slabAllocator.cpp ****     slab = cachep->slabs_partial;
 2140              		.loc 1 452 5 is_stmt 1
 2141              		.loc 1 452 10 is_stmt 0
 2142 0cac 83340905 		ld	s1,80(s2)
 2143              	.LVL220:
 2144              	.L127:
 453:src/kernel/slabAllocator.cpp ****     while(slab != nullptr)
 2145              		.loc 1 453 5 is_stmt 1
 2146              		.loc 1 453 16
 2147 0cb0 638C0400 		beqz	s1,.L126
 454:src/kernel/slabAllocator.cpp ****     {
 455:src/kernel/slabAllocator.cpp ****         printSlabInfo(slab);
 2148              		.loc 1 455 9
 2149              		.loc 1 455 22 is_stmt 0
 2150 0cb4 13850400 		mv	a0,s1
 2151 0cb8 97000000 		call	_Z13printSlabInfoP6slab_s
 2151      E7800000 
 2152              	.LVL221:
 456:src/kernel/slabAllocator.cpp ****         slab = slab->next;
 2153              		.loc 1 456 9 is_stmt 1
 2154              		.loc 1 456 14 is_stmt 0
 2155 0cc0 83B48400 		ld	s1,8(s1)
GAS LISTING /tmp/ccc39oBq.s 			page 50


 2156              	.LVL222:
 453:src/kernel/slabAllocator.cpp ****     while(slab != nullptr)
 2157              		.loc 1 453 5
 2158 0cc4 6FF0DFFE 		j	.L127
 2159              	.L126:
 457:src/kernel/slabAllocator.cpp ****     }
 458:src/kernel/slabAllocator.cpp **** 
 459:src/kernel/slabAllocator.cpp ****     KConsole::trapPrintString("Empty slabs\n");
 2160              		.loc 1 459 5 is_stmt 1
 2161              		.loc 1 459 30 is_stmt 0
 2162 0cc8 17050000 		lla	a0,.LC14
 2162      13050500 
 2163 0cd0 97000000 		call	_ZN8KConsole15trapPrintStringEPKc@plt
 2163      E7800000 
 2164              	.LVL223:
 460:src/kernel/slabAllocator.cpp ****     slab = cachep->slabs_empty;
 2165              		.loc 1 460 5 is_stmt 1
 2166              		.loc 1 460 10 is_stmt 0
 2167 0cd8 83340904 		ld	s1,64(s2)
 2168              	.LVL224:
 2169              	.L129:
 461:src/kernel/slabAllocator.cpp ****     while(slab != nullptr)
 2170              		.loc 1 461 5 is_stmt 1
 2171              		.loc 1 461 16
 2172 0cdc 638C0400 		beqz	s1,.L128
 462:src/kernel/slabAllocator.cpp ****     {
 463:src/kernel/slabAllocator.cpp ****         printSlabInfo(slab);
 2173              		.loc 1 463 9
 2174              		.loc 1 463 22 is_stmt 0
 2175 0ce0 13850400 		mv	a0,s1
 2176 0ce4 97000000 		call	_Z13printSlabInfoP6slab_s
 2176      E7800000 
 2177              	.LVL225:
 464:src/kernel/slabAllocator.cpp ****         slab = slab->next;
 2178              		.loc 1 464 9 is_stmt 1
 2179              		.loc 1 464 14 is_stmt 0
 2180 0cec 83B48400 		ld	s1,8(s1)
 2181              	.LVL226:
 461:src/kernel/slabAllocator.cpp ****     while(slab != nullptr)
 2182              		.loc 1 461 5
 2183 0cf0 6FF0DFFE 		j	.L129
 2184              	.L128:
 465:src/kernel/slabAllocator.cpp ****     }
 466:src/kernel/slabAllocator.cpp **** 
 467:src/kernel/slabAllocator.cpp ****     KConsole::trapPrintString("\n\n\n\n\n");
 2185              		.loc 1 467 5 is_stmt 1
 2186              		.loc 1 467 30 is_stmt 0
 2187 0cf4 17050000 		lla	a0,.LC5
 2187      13050500 
 2188 0cfc 97000000 		call	_ZN8KConsole15trapPrintStringEPKc@plt
 2188      E7800000 
 2189              	.LVL227:
 468:src/kernel/slabAllocator.cpp **** }
 2190              		.loc 1 468 1
 2191 0d04 83308101 		ld	ra,24(sp)
 2192              		.cfi_restore 1
 2193 0d08 03340101 		ld	s0,16(sp)
GAS LISTING /tmp/ccc39oBq.s 			page 51


 2194              		.cfi_restore 8
 2195              		.cfi_def_cfa 2, 32
 2196 0d0c 83348100 		ld	s1,8(sp)
 2197              		.cfi_restore 9
 2198              	.LVL228:
 2199 0d10 03390100 		ld	s2,0(sp)
 2200              		.cfi_restore 18
 2201              	.LVL229:
 2202 0d14 13010102 		addi	sp,sp,32
 2203              		.cfi_def_cfa_offset 0
 2204 0d18 67800000 		jr	ra
 2205              	.LVL230:
 2206              	.L131:
 2207 0d1c 67800000 		ret
 2208              		.cfi_endproc
 2209              	.LFE31:
 2211              		.section	.rodata.str1.8
 2212 0155 000000   		.align	3
 2213              	.LC15:
 2214 0158 0A0A0A0A 		.string	"\n\n\n\n\n\n\n\n\n"
 2214      0A0A0A0A 
 2214      0A00
 2215 0162 00000000 		.align	3
 2215      0000
 2216              	.LC16:
 2217 0168 536C6162 		.string	"Slab allocator info----------------------------------------------------------\n"
 2217      20616C6C 
 2217      6F636174 
 2217      6F722069 
 2217      6E666F2D 
 2218 01b7 00       		.align	3
 2219              	.LC17:
 2220 01b8 536C6162 		.string	"Slab allocator address "
 2220      20616C6C 
 2220      6F636174 
 2220      6F722061 
 2220      64647265 
 2221              		.align	3
 2222              	.LC18:
 2223 01d0 43616368 		.string	"Cache of caches info\n"
 2223      65206F66 
 2223      20636163 
 2223      68657320 
 2223      696E666F 
 2224 01e6 0000     		.align	3
 2225              	.LC19:
 2226 01e8 43616368 		.string	"Caches for buffers\n"
 2226      65732066 
 2226      6F722062 
 2226      75666665 
 2226      72730A00 
 2227              		.text
 2228              		.align	2
 2229              		.globl	_Z22printSlabAllocatorInfov
 2231              	_Z22printSlabAllocatorInfov:
 2232              	.LFB26:
 340:src/kernel/slabAllocator.cpp ****     KConsole::trapPrintString("\n\n\n\n\n\n\n\n\n");
GAS LISTING /tmp/ccc39oBq.s 			page 52


 2233              		.loc 1 340 1 is_stmt 1
 2234              		.cfi_startproc
 2235 0d20 130101FE 		addi	sp,sp,-32
 2236              		.cfi_def_cfa_offset 32
 2237 0d24 233C1100 		sd	ra,24(sp)
 2238 0d28 23388100 		sd	s0,16(sp)
 2239 0d2c 23349100 		sd	s1,8(sp)
 2240              		.cfi_offset 1, -8
 2241              		.cfi_offset 8, -16
 2242              		.cfi_offset 9, -24
 2243 0d30 13040102 		addi	s0,sp,32
 2244              		.cfi_def_cfa 8, 0
 341:src/kernel/slabAllocator.cpp ****     KConsole::trapPrintString("Slab allocator info-------------------------------------------------
 2245              		.loc 1 341 5
 341:src/kernel/slabAllocator.cpp ****     KConsole::trapPrintString("Slab allocator info-------------------------------------------------
 2246              		.loc 1 341 30 is_stmt 0
 2247 0d34 17050000 		lla	a0,.LC15
 2247      13050500 
 2248 0d3c 97000000 		call	_ZN8KConsole15trapPrintStringEPKc@plt
 2248      E7800000 
 2249              	.LVL231:
 342:src/kernel/slabAllocator.cpp ****     KConsole::trapPrintStringInt("Slab allocator address ", (size_t)slabAllocator, 16);
 2250              		.loc 1 342 5 is_stmt 1
 342:src/kernel/slabAllocator.cpp ****     KConsole::trapPrintStringInt("Slab allocator address ", (size_t)slabAllocator, 16);
 2251              		.loc 1 342 30 is_stmt 0
 2252 0d44 17050000 		lla	a0,.LC16
 2252      13050500 
 2253 0d4c 97000000 		call	_ZN8KConsole15trapPrintStringEPKc@plt
 2253      E7800000 
 2254              	.LVL232:
 343:src/kernel/slabAllocator.cpp ****     KConsole::trapPrintString("Cache of caches info\n");
 2255              		.loc 1 343 5 is_stmt 1
 343:src/kernel/slabAllocator.cpp ****     KConsole::trapPrintString("Cache of caches info\n");
 2256              		.loc 1 343 33 is_stmt 0
 2257 0d54 97040000 		lla	s1,.LANCHOR0
 2257      93840400 
 2258 0d5c 13060001 		li	a2,16
 2259 0d60 83B50400 		ld	a1,0(s1)
 2260 0d64 17050000 		lla	a0,.LC17
 2260      13050500 
 2261 0d6c 97000000 		call	_ZN8KConsole18trapPrintStringIntEPKcmi@plt
 2261      E7800000 
 2262              	.LVL233:
 344:src/kernel/slabAllocator.cpp ****     kmem_cache_info(&slabAllocator->cacheOfCaches);
 2263              		.loc 1 344 5 is_stmt 1
 344:src/kernel/slabAllocator.cpp ****     kmem_cache_info(&slabAllocator->cacheOfCaches);
 2264              		.loc 1 344 30 is_stmt 0
 2265 0d74 17050000 		lla	a0,.LC18
 2265      13050500 
 2266 0d7c 97000000 		call	_ZN8KConsole15trapPrintStringEPKc@plt
 2266      E7800000 
 2267              	.LVL234:
 345:src/kernel/slabAllocator.cpp ****     KConsole::trapPrintString("Caches for buffers\n");
 2268              		.loc 1 345 5 is_stmt 1
 345:src/kernel/slabAllocator.cpp ****     KConsole::trapPrintString("Caches for buffers\n");
 2269              		.loc 1 345 37 is_stmt 0
 2270 0d84 03B50400 		ld	a0,0(s1)
GAS LISTING /tmp/ccc39oBq.s 			page 53


 345:src/kernel/slabAllocator.cpp ****     KConsole::trapPrintString("Caches for buffers\n");
 2271              		.loc 1 345 20
 2272 0d88 13058506 		addi	a0,a0,104
 2273 0d8c 97000000 		call	_Z15kmem_cache_infoP12kmem_cache_s
 2273      E7800000 
 2274              	.LVL235:
 346:src/kernel/slabAllocator.cpp ****     for(size_t i = 0;i < CACHE_BUFFER_SIZE;i++)
 2275              		.loc 1 346 5 is_stmt 1
 346:src/kernel/slabAllocator.cpp ****     for(size_t i = 0;i < CACHE_BUFFER_SIZE;i++)
 2276              		.loc 1 346 30 is_stmt 0
 2277 0d94 17050000 		lla	a0,.LC19
 2277      13050500 
 2278 0d9c 97000000 		call	_ZN8KConsole15trapPrintStringEPKc@plt
 2278      E7800000 
 2279              	.LVL236:
 347:src/kernel/slabAllocator.cpp ****     {
 2280              		.loc 1 347 5 is_stmt 1
 2281              	.LBB25:
 347:src/kernel/slabAllocator.cpp ****     {
 2282              		.loc 1 347 16 is_stmt 0
 2283 0da4 93040000 		li	s1,0
 2284 0da8 6F000001 		j	.L137
 2285              	.LVL237:
 2286              	.L139:
 351:src/kernel/slabAllocator.cpp ****         }
 2287              		.loc 1 351 13 is_stmt 1
 351:src/kernel/slabAllocator.cpp ****         }
 2288              		.loc 1 351 28 is_stmt 0
 2289 0dac 97000000 		call	_Z15kmem_cache_infoP12kmem_cache_s
 2289      E7800000 
 2290              	.LVL238:
 2291              	.L136:
 347:src/kernel/slabAllocator.cpp ****     {
 2292              		.loc 1 347 5 is_stmt 1 discriminator 2
 2293 0db4 93841400 		addi	s1,s1,1
 2294              	.LVL239:
 2295              	.L137:
 347:src/kernel/slabAllocator.cpp ****     {
 2296              		.loc 1 347 24 discriminator 1
 2297 0db8 9307C000 		li	a5,12
 2298 0dbc 63E09702 		bgtu	s1,a5,.L135
 349:src/kernel/slabAllocator.cpp ****         {
 2299              		.loc 1 349 9
 349:src/kernel/slabAllocator.cpp ****         {
 2300              		.loc 1 349 42 is_stmt 0
 2301 0dc0 93973400 		slli	a5,s1,3
 2302 0dc4 17070000 		ld	a4,.LANCHOR0
 2302      03370700 
 2303 0dcc B307F700 		add	a5,a4,a5
 2304 0dd0 03B50700 		ld	a0,0(a5)
 349:src/kernel/slabAllocator.cpp ****         {
 2305              		.loc 1 349 9
 2306 0dd4 E31C05FC 		bnez	a0,.L139
 2307 0dd8 6FF0DFFD 		j	.L136
 2308              	.L135:
 2309              	.LBE25:
 354:src/kernel/slabAllocator.cpp ****     printBuddyInfo();
GAS LISTING /tmp/ccc39oBq.s 			page 54


 2310              		.loc 1 354 5 is_stmt 1
 354:src/kernel/slabAllocator.cpp ****     printBuddyInfo();
 2311              		.loc 1 354 30 is_stmt 0
 2312 0ddc 17050000 		lla	a0,.LC15
 2312      13050500 
 2313 0de4 97000000 		call	_ZN8KConsole15trapPrintStringEPKc@plt
 2313      E7800000 
 2314              	.LVL240:
 355:src/kernel/slabAllocator.cpp **** }
 2315              		.loc 1 355 5 is_stmt 1
 355:src/kernel/slabAllocator.cpp **** }
 2316              		.loc 1 355 19 is_stmt 0
 2317 0dec 97000000 		call	_Z14printBuddyInfov@plt
 2317      E7800000 
 2318              	.LVL241:
 356:src/kernel/slabAllocator.cpp **** 
 2319              		.loc 1 356 1
 2320 0df4 83308101 		ld	ra,24(sp)
 2321              		.cfi_restore 1
 2322 0df8 03340101 		ld	s0,16(sp)
 2323              		.cfi_restore 8
 2324              		.cfi_def_cfa 2, 32
 2325 0dfc 83348100 		ld	s1,8(sp)
 2326              		.cfi_restore 9
 2327              	.LVL242:
 2328 0e00 13010102 		addi	sp,sp,32
 2329              		.cfi_def_cfa_offset 0
 2330 0e04 67800000 		jr	ra
 2331              		.cfi_endproc
 2332              	.LFE26:
 2334              		.section	.rodata.str1.8
 2335 01fc 00000000 		.align	3
 2336              	.LC20:
 2337 0200 43616368 		.string	"Cache for small buffers"
 2337      6520666F 
 2337      7220736D 
 2337      616C6C20 
 2337      62756666 
 2338              		.text
 2339              		.align	2
 2340              		.globl	_Z7kmallocm
 2342              	_Z7kmallocm:
 2343              	.LFB32:
 469:src/kernel/slabAllocator.cpp **** 
 470:src/kernel/slabAllocator.cpp **** void *kmalloc(size_t size)
 471:src/kernel/slabAllocator.cpp **** {
 2344              		.loc 1 471 1 is_stmt 1
 2345              		.cfi_startproc
 2346              	.LVL243:
 2347 0e08 130101FD 		addi	sp,sp,-48
 2348              		.cfi_def_cfa_offset 48
 2349 0e0c 23341102 		sd	ra,40(sp)
 2350 0e10 23308102 		sd	s0,32(sp)
 2351 0e14 233C9100 		sd	s1,24(sp)
 2352 0e18 23382101 		sd	s2,16(sp)
 2353 0e1c 23343101 		sd	s3,8(sp)
 2354              		.cfi_offset 1, -8
GAS LISTING /tmp/ccc39oBq.s 			page 55


 2355              		.cfi_offset 8, -16
 2356              		.cfi_offset 9, -24
 2357              		.cfi_offset 18, -32
 2358              		.cfi_offset 19, -40
 2359 0e20 13040103 		addi	s0,sp,48
 2360              		.cfi_def_cfa 8, 0
 472:src/kernel/slabAllocator.cpp ****     size_t level = getDeg2Ceil(size);
 2361              		.loc 1 472 5
 2362              		.loc 1 472 31 is_stmt 0
 2363 0e24 97000000 		call	_Z11getDeg2Ceilm@plt
 2363      E7800000 
 2364              	.LVL244:
 473:src/kernel/slabAllocator.cpp ****     if(level < CACHE_BUFFER_SMALL)
 2365              		.loc 1 473 5 is_stmt 1
 2366 0e2c 93074000 		li	a5,4
 2367 0e30 63FAA700 		bleu	a0,a5,.L144
 474:src/kernel/slabAllocator.cpp ****         level = CACHE_BUFFER_SMALL;
 475:src/kernel/slabAllocator.cpp ****     if(level > CACHE_BUFFER_BIG)
 2368              		.loc 1 475 5
 2369 0e34 93071001 		li	a5,17
 2370 0e38 63F8A700 		bleu	a0,a5,.L141
 476:src/kernel/slabAllocator.cpp ****         return nullptr;
 2371              		.loc 1 476 16 is_stmt 0
 2372 0e3c 13090000 		li	s2,0
 2373 0e40 6F00C004 		j	.L140
 2374              	.L144:
 474:src/kernel/slabAllocator.cpp ****         level = CACHE_BUFFER_SMALL;
 2375              		.loc 1 474 15
 2376 0e44 13055000 		li	a0,5
 2377              	.LVL245:
 2378              	.L141:
 477:src/kernel/slabAllocator.cpp ****     size = (1 << level);
 2379              		.loc 1 477 5 is_stmt 1
 2380              		.loc 1 477 15 is_stmt 0
 2381 0e48 93061000 		li	a3,1
 2382 0e4c BB99A600 		sllw	s3,a3,a0
 2383              	.LVL246:
 478:src/kernel/slabAllocator.cpp ****     size_t index = level - CACHE_BUFFER_SMALL;
 2384              		.loc 1 478 5 is_stmt 1
 2385              		.loc 1 478 12 is_stmt 0
 2386 0e50 9304B5FF 		addi	s1,a0,-5
 2387              	.LVL247:
 479:src/kernel/slabAllocator.cpp ****     if(slabAllocator->cachesBuffers[index] == nullptr)
 2388              		.loc 1 479 5 is_stmt 1
 2389              		.loc 1 479 42 is_stmt 0
 2390 0e54 17090000 		ld	s2,.LANCHOR0
 2390      03390900 
 2391 0e5c 93973400 		slli	a5,s1,3
 2392 0e60 B307F900 		add	a5,s2,a5
 2393 0e64 83B70700 		ld	a5,0(a5)
 2394              		.loc 1 479 5
 2395 0e68 63820704 		beqz	a5,.L147
 2396              	.L143:
 480:src/kernel/slabAllocator.cpp ****     {
 481:src/kernel/slabAllocator.cpp ****         slabAllocator->cachesBuffers[index] = (kmem_cache_t*)kmem_cache_alloc(&slabAllocator->cache
 482:src/kernel/slabAllocator.cpp ****         if(slabAllocator->cachesBuffers[index] == nullptr)
 483:src/kernel/slabAllocator.cpp ****             return nullptr;
GAS LISTING /tmp/ccc39oBq.s 			page 56


 484:src/kernel/slabAllocator.cpp ****         init_cache(slabAllocator->cachesBuffers[index], "Cache for small buffers", getOptimalSlabSi
 485:src/kernel/slabAllocator.cpp ****     }
 486:src/kernel/slabAllocator.cpp **** 
 487:src/kernel/slabAllocator.cpp ****     return kmem_cache_alloc(slabAllocator->cachesBuffers[index]);
 2397              		.loc 1 487 5 is_stmt 1
 2398              		.loc 1 487 28 is_stmt 0
 2399 0e6c 13953400 		slli	a0,s1,3
 2400 0e70 97040000 		ld	s1,.LANCHOR0
 2400      83B40400 
 2401              	.LVL248:
 2402 0e78 3385A400 		add	a0,s1,a0
 2403 0e7c 03350500 		ld	a0,0(a0)
 2404 0e80 97000000 		call	_Z16kmem_cache_allocP12kmem_cache_s
 2404      E7800000 
 2405              	.LVL249:
 2406 0e88 13090500 		mv	s2,a0
 2407              	.LVL250:
 2408              	.L140:
 488:src/kernel/slabAllocator.cpp **** }
 2409              		.loc 1 488 1
 2410 0e8c 13050900 		mv	a0,s2
 2411 0e90 83308102 		ld	ra,40(sp)
 2412              		.cfi_remember_state
 2413              		.cfi_restore 1
 2414 0e94 03340102 		ld	s0,32(sp)
 2415              		.cfi_restore 8
 2416              		.cfi_def_cfa 2, 48
 2417 0e98 83348101 		ld	s1,24(sp)
 2418              		.cfi_restore 9
 2419 0e9c 03390101 		ld	s2,16(sp)
 2420              		.cfi_restore 18
 2421 0ea0 83398100 		ld	s3,8(sp)
 2422              		.cfi_restore 19
 2423 0ea4 13010103 		addi	sp,sp,48
 2424              		.cfi_def_cfa_offset 0
 2425 0ea8 67800000 		jr	ra
 2426              	.LVL251:
 2427              	.L147:
 2428              		.cfi_restore_state
 481:src/kernel/slabAllocator.cpp ****         if(slabAllocator->cachesBuffers[index] == nullptr)
 2429              		.loc 1 481 9 is_stmt 1
 481:src/kernel/slabAllocator.cpp ****         if(slabAllocator->cachesBuffers[index] == nullptr)
 2430              		.loc 1 481 78 is_stmt 0
 2431 0eac 13058906 		addi	a0,s2,104
 2432 0eb0 97000000 		call	_Z16kmem_cache_allocP12kmem_cache_s
 2432      E7800000 
 2433              	.LVL252:
 481:src/kernel/slabAllocator.cpp ****         if(slabAllocator->cachesBuffers[index] == nullptr)
 2434              		.loc 1 481 45
 2435 0eb8 13973400 		slli	a4,s1,3
 2436 0ebc 3309E900 		add	s2,s2,a4
 2437 0ec0 2330A900 		sd	a0,0(s2)
 482:src/kernel/slabAllocator.cpp ****             return nullptr;
 2438              		.loc 1 482 9 is_stmt 1
 482:src/kernel/slabAllocator.cpp ****             return nullptr;
 2439              		.loc 1 482 46 is_stmt 0
 2440 0ec4 97070000 		ld	a5,.LANCHOR0
GAS LISTING /tmp/ccc39oBq.s 			page 57


 2440      83B70700 
 2441 0ecc B387E700 		add	a5,a5,a4
 2442 0ed0 03B90700 		ld	s2,0(a5)
 482:src/kernel/slabAllocator.cpp ****             return nullptr;
 2443              		.loc 1 482 9
 2444 0ed4 E30C09FA 		beqz	s2,.L140
 484:src/kernel/slabAllocator.cpp ****     }
 2445              		.loc 1 484 9 is_stmt 1
 484:src/kernel/slabAllocator.cpp ****     }
 2446              		.loc 1 484 19 is_stmt 0
 2447 0ed8 13850900 		mv	a0,s3
 2448 0edc 97000000 		call	_Z18getOptimalSlabSizem
 2448      E7800000 
 2449              	.LVL253:
 2450 0ee4 13060500 		mv	a2,a0
 2451 0ee8 93070000 		li	a5,0
 2452 0eec 13070000 		li	a4,0
 2453 0ef0 93860900 		mv	a3,s3
 2454 0ef4 97050000 		lla	a1,.LC20
 2454      93850500 
 2455 0efc 13050900 		mv	a0,s2
 2456 0f00 97000000 		call	_Z10init_cacheP12kmem_cache_sPKcmmPFvPvES5_
 2456      E7800000 
 2457              	.LVL254:
 2458 0f08 6FF05FF6 		j	.L143
 2459              		.cfi_endproc
 2460              	.LFE32:
 2462              		.align	2
 2463              		.globl	_Z5kfreePKv
 2465              	_Z5kfreePKv:
 2466              	.LFB33:
 489:src/kernel/slabAllocator.cpp **** 
 490:src/kernel/slabAllocator.cpp **** void kfree(const void *objp)
 491:src/kernel/slabAllocator.cpp **** {
 2467              		.loc 1 491 1 is_stmt 1
 2468              		.cfi_startproc
 2469              	.LVL255:
 492:src/kernel/slabAllocator.cpp ****     if(objp == nullptr)
 2470              		.loc 1 492 5
 2471 0f0c 63020508 		beqz	a0,.L153
 491:src/kernel/slabAllocator.cpp ****     if(objp == nullptr)
 2472              		.loc 1 491 1 is_stmt 0
 2473 0f10 130101FE 		addi	sp,sp,-32
 2474              		.cfi_def_cfa_offset 32
 2475 0f14 233C1100 		sd	ra,24(sp)
 2476 0f18 23388100 		sd	s0,16(sp)
 2477 0f1c 23349100 		sd	s1,8(sp)
 2478 0f20 23302101 		sd	s2,0(sp)
 2479              		.cfi_offset 1, -8
 2480              		.cfi_offset 8, -16
 2481              		.cfi_offset 9, -24
 2482              		.cfi_offset 18, -32
 2483 0f24 13040102 		addi	s0,sp,32
 2484              		.cfi_def_cfa 8, 0
 2485 0f28 13090500 		mv	s2,a0
 2486              	.LBB26:
 493:src/kernel/slabAllocator.cpp ****         return;
GAS LISTING /tmp/ccc39oBq.s 			page 58


 494:src/kernel/slabAllocator.cpp ****     slab_t* slab = nullptr;
 495:src/kernel/slabAllocator.cpp ****     for(size_t i = 0;i < CACHE_BUFFER_SIZE;i++)
 2487              		.loc 1 495 16
 2488 0f2c 93040000 		li	s1,0
 2489              	.LBE26:
 494:src/kernel/slabAllocator.cpp ****     for(size_t i = 0;i < CACHE_BUFFER_SIZE;i++)
 2490              		.loc 1 494 13
 2491 0f30 13050000 		li	a0,0
 2492              	.LVL256:
 2493              	.L151:
 2494              	.LBB27:
 2495              		.loc 1 495 24 is_stmt 1 discriminator 1
 2496 0f34 9307C000 		li	a5,12
 2497 0f38 63E89702 		bgtu	s1,a5,.L150
 496:src/kernel/slabAllocator.cpp ****     {
 497:src/kernel/slabAllocator.cpp ****         slab = findSlab(slabAllocator->cachesBuffers[i], objp);
 2498              		.loc 1 497 9
 2499              		.loc 1 497 24 is_stmt 0
 2500 0f3c 93973400 		slli	a5,s1,3
 2501 0f40 17070000 		ld	a4,.LANCHOR0
 2501      03370700 
 2502 0f48 B307F700 		add	a5,a4,a5
 2503 0f4c 93050900 		mv	a1,s2
 2504 0f50 03B50700 		ld	a0,0(a5)
 2505              	.LVL257:
 2506 0f54 97000000 		call	_Z8findSlabP12kmem_cache_sPKv
 2506      E7800000 
 2507              	.LVL258:
 498:src/kernel/slabAllocator.cpp ****         if(slab != nullptr) break;
 2508              		.loc 1 498 9 is_stmt 1
 2509 0f5c 63160500 		bnez	a0,.L150
 495:src/kernel/slabAllocator.cpp ****     {
 2510              		.loc 1 495 5 discriminator 2
 2511 0f60 93841400 		addi	s1,s1,1
 2512              	.LVL259:
 2513 0f64 6FF01FFD 		j	.L151
 2514              	.L150:
 2515              	.LBE27:
 499:src/kernel/slabAllocator.cpp ****     }
 500:src/kernel/slabAllocator.cpp ****     if(slab != nullptr)
 2516              		.loc 1 500 5
 2517 0f68 63080500 		beqz	a0,.L148
 501:src/kernel/slabAllocator.cpp ****     {
 502:src/kernel/slabAllocator.cpp ****         free_slab_object(slab, objp);
 2518              		.loc 1 502 9
 2519              		.loc 1 502 25 is_stmt 0
 2520 0f6c 93050900 		mv	a1,s2
 2521 0f70 97000000 		call	_Z16free_slab_objectP6slab_sPKv
 2521      E7800000 
 2522              	.LVL260:
 2523              	.L148:
 503:src/kernel/slabAllocator.cpp ****     }
 504:src/kernel/slabAllocator.cpp **** }
 2524              		.loc 1 504 1
 2525 0f78 83308101 		ld	ra,24(sp)
 2526              		.cfi_restore 1
 2527 0f7c 03340101 		ld	s0,16(sp)
GAS LISTING /tmp/ccc39oBq.s 			page 59


 2528              		.cfi_restore 8
 2529              		.cfi_def_cfa 2, 32
 2530 0f80 83348100 		ld	s1,8(sp)
 2531              		.cfi_restore 9
 2532              	.LVL261:
 2533 0f84 03390100 		ld	s2,0(sp)
 2534              		.cfi_restore 18
 2535              	.LVL262:
 2536 0f88 13010102 		addi	sp,sp,32
 2537              		.cfi_def_cfa_offset 0
 2538 0f8c 67800000 		jr	ra
 2539              	.LVL263:
 2540              	.L153:
 2541 0f90 67800000 		ret
 2542              		.cfi_endproc
 2543              	.LFE33:
 2545              		.align	2
 2546              		.globl	_Z18kmem_cache_destroyP12kmem_cache_s
 2548              	_Z18kmem_cache_destroyP12kmem_cache_s:
 2549              	.LFB34:
 505:src/kernel/slabAllocator.cpp **** 
 506:src/kernel/slabAllocator.cpp **** void kmem_cache_destroy(kmem_cache_t *cachep)
 507:src/kernel/slabAllocator.cpp **** {
 2550              		.loc 1 507 1 is_stmt 1
 2551              		.cfi_startproc
 2552              	.LVL264:
 2553 0f94 130101FE 		addi	sp,sp,-32
 2554              		.cfi_def_cfa_offset 32
 2555 0f98 233C1100 		sd	ra,24(sp)
 2556 0f9c 23388100 		sd	s0,16(sp)
 2557 0fa0 23349100 		sd	s1,8(sp)
 2558              		.cfi_offset 1, -8
 2559              		.cfi_offset 8, -16
 2560              		.cfi_offset 9, -24
 2561 0fa4 13040102 		addi	s0,sp,32
 2562              		.cfi_def_cfa 8, 0
 2563 0fa8 93040500 		mv	s1,a0
 508:src/kernel/slabAllocator.cpp ****     if(cachep->slabs_partial != nullptr || cachep->slabs_full != nullptr) {
 2564              		.loc 1 508 5
 2565              		.loc 1 508 16 is_stmt 0
 2566 0fac 83370505 		ld	a5,80(a0)
 2567              		.loc 1 508 5
 2568 0fb0 63820702 		beqz	a5,.L161
 2569              	.L157:
 509:src/kernel/slabAllocator.cpp ****         cachep->errors |= DESTROY_ERROR;
 2570              		.loc 1 509 9 is_stmt 1
 2571              		.loc 1 509 24 is_stmt 0
 2572 0fb4 83A78407 		lw	a5,120(s1)
 2573 0fb8 93E72700 		ori	a5,a5,2
 2574 0fbc 23ACF406 		sw	a5,120(s1)
 510:src/kernel/slabAllocator.cpp ****         return;
 2575              		.loc 1 510 9 is_stmt 1
 2576              	.LVL265:
 2577              	.L156:
 511:src/kernel/slabAllocator.cpp ****     }
 512:src/kernel/slabAllocator.cpp ****     destroy_slab_list(&cachep->slabs_empty);
 513:src/kernel/slabAllocator.cpp ****     destroy_slab_list(&cachep->slabs_partial);
GAS LISTING /tmp/ccc39oBq.s 			page 60


 514:src/kernel/slabAllocator.cpp ****     destroy_slab_list(&cachep->slabs_full);
 515:src/kernel/slabAllocator.cpp ****     kmem_cache_free(&slabAllocator->cacheOfCaches,cachep);
 516:src/kernel/slabAllocator.cpp **** }
 2578              		.loc 1 516 1 is_stmt 0
 2579 0fc0 83308101 		ld	ra,24(sp)
 2580              		.cfi_remember_state
 2581              		.cfi_restore 1
 2582 0fc4 03340101 		ld	s0,16(sp)
 2583              		.cfi_restore 8
 2584              		.cfi_def_cfa 2, 32
 2585 0fc8 83348100 		ld	s1,8(sp)
 2586              		.cfi_restore 9
 2587              	.LVL266:
 2588 0fcc 13010102 		addi	sp,sp,32
 2589              		.cfi_def_cfa_offset 0
 2590 0fd0 67800000 		jr	ra
 2591              	.LVL267:
 2592              	.L161:
 2593              		.cfi_restore_state
 508:src/kernel/slabAllocator.cpp ****         cachep->errors |= DESTROY_ERROR;
 2594              		.loc 1 508 52 discriminator 1
 2595 0fd4 83378504 		ld	a5,72(a0)
 508:src/kernel/slabAllocator.cpp ****         cachep->errors |= DESTROY_ERROR;
 2596              		.loc 1 508 41 discriminator 1
 2597 0fd8 E39E07FC 		bnez	a5,.L157
 512:src/kernel/slabAllocator.cpp ****     destroy_slab_list(&cachep->slabs_partial);
 2598              		.loc 1 512 5 is_stmt 1
 512:src/kernel/slabAllocator.cpp ****     destroy_slab_list(&cachep->slabs_partial);
 2599              		.loc 1 512 22 is_stmt 0
 2600 0fdc 13050504 		addi	a0,a0,64
 2601 0fe0 97000000 		call	_Z17destroy_slab_listPP6slab_s
 2601      E7800000 
 2602              	.LVL268:
 513:src/kernel/slabAllocator.cpp ****     destroy_slab_list(&cachep->slabs_full);
 2603              		.loc 1 513 5 is_stmt 1
 513:src/kernel/slabAllocator.cpp ****     destroy_slab_list(&cachep->slabs_full);
 2604              		.loc 1 513 22 is_stmt 0
 2605 0fe8 13850405 		addi	a0,s1,80
 2606 0fec 97000000 		call	_Z17destroy_slab_listPP6slab_s
 2606      E7800000 
 2607              	.LVL269:
 514:src/kernel/slabAllocator.cpp ****     kmem_cache_free(&slabAllocator->cacheOfCaches,cachep);
 2608              		.loc 1 514 5 is_stmt 1
 514:src/kernel/slabAllocator.cpp ****     kmem_cache_free(&slabAllocator->cacheOfCaches,cachep);
 2609              		.loc 1 514 22 is_stmt 0
 2610 0ff4 13858404 		addi	a0,s1,72
 2611 0ff8 97000000 		call	_Z17destroy_slab_listPP6slab_s
 2611      E7800000 
 2612              	.LVL270:
 515:src/kernel/slabAllocator.cpp **** }
 2613              		.loc 1 515 5 is_stmt 1
 515:src/kernel/slabAllocator.cpp **** }
 2614              		.loc 1 515 20 is_stmt 0
 2615 1000 93850400 		mv	a1,s1
 2616 1004 17050000 		ld	a0,.LANCHOR0
 2616      03350500 
 2617 100c 13058506 		addi	a0,a0,104
GAS LISTING /tmp/ccc39oBq.s 			page 61


 2618 1010 97000000 		call	_Z15kmem_cache_freeP12kmem_cache_sPv
 2618      E7800000 
 2619              	.LVL271:
 2620 1018 6FF09FFA 		j	.L156
 2621              		.cfi_endproc
 2622              	.LFE34:
 2624              		.align	2
 2625              		.globl	_Z17kmem_cache_shrinkP12kmem_cache_s
 2627              	_Z17kmem_cache_shrinkP12kmem_cache_s:
 2628              	.LFB35:
 517:src/kernel/slabAllocator.cpp **** 
 518:src/kernel/slabAllocator.cpp **** int kmem_cache_shrink(kmem_cache_t *cachep)
 519:src/kernel/slabAllocator.cpp **** {
 2629              		.loc 1 519 1 is_stmt 1
 2630              		.cfi_startproc
 2631              	.LVL272:
 520:src/kernel/slabAllocator.cpp ****     if(cachep == nullptr)
 2632              		.loc 1 520 5
 2633 101c 63080502 		beqz	a0,.L164
 519:src/kernel/slabAllocator.cpp ****     if(cachep == nullptr)
 2634              		.loc 1 519 1 is_stmt 0
 2635 1020 130101FF 		addi	sp,sp,-16
 2636              		.cfi_def_cfa_offset 16
 2637 1024 23341100 		sd	ra,8(sp)
 2638 1028 23308100 		sd	s0,0(sp)
 2639              		.cfi_offset 1, -8
 2640              		.cfi_offset 8, -16
 2641 102c 13040101 		addi	s0,sp,16
 2642              		.cfi_def_cfa 8, 0
 521:src/kernel/slabAllocator.cpp ****         return 0;
 522:src/kernel/slabAllocator.cpp ****     int totalBlocks = destroy_slab_list(&cachep->slabs_empty);
 2643              		.loc 1 522 5 is_stmt 1
 2644              		.loc 1 522 40 is_stmt 0
 2645 1030 13050504 		addi	a0,a0,64
 2646              	.LVL273:
 2647 1034 97000000 		call	_Z17destroy_slab_listPP6slab_s
 2647      E7800000 
 2648              	.LVL274:
 523:src/kernel/slabAllocator.cpp ****     return totalBlocks;
 2649              		.loc 1 523 5 is_stmt 1
 524:src/kernel/slabAllocator.cpp **** }
 2650              		.loc 1 524 1 is_stmt 0
 2651 103c 83308100 		ld	ra,8(sp)
 2652              		.cfi_restore 1
 2653 1040 03340100 		ld	s0,0(sp)
 2654              		.cfi_restore 8
 2655              		.cfi_def_cfa 2, 16
 2656 1044 13010101 		addi	sp,sp,16
 2657              		.cfi_def_cfa_offset 0
 2658 1048 67800000 		jr	ra
 2659              	.LVL275:
 2660              	.L164:
 521:src/kernel/slabAllocator.cpp ****         return 0;
 2661              		.loc 1 521 16
 2662 104c 13050000 		li	a0,0
 2663              	.LVL276:
 2664              		.loc 1 524 1
GAS LISTING /tmp/ccc39oBq.s 			page 62


 2665 1050 67800000 		ret
 2666              		.cfi_endproc
 2667              	.LFE35:
 2669              		.section	.rodata.str1.8
 2670              		.align	3
 2671              	.LC21:
 2672 0218 45585041 		.string	"EXPAND ERROR\n"
 2672      4E442045 
 2672      52524F52 
 2672      0A00
 2673 0226 0000     		.align	3
 2674              	.LC22:
 2675 0228 44455354 		.string	"DESTROY ERROR"
 2675      524F5920 
 2675      4552524F 
 2675      5200
 2676              		.text
 2677              		.align	2
 2678              		.globl	_Z16kmem_cache_errorP12kmem_cache_s
 2680              	_Z16kmem_cache_errorP12kmem_cache_s:
 2681              	.LFB36:
 525:src/kernel/slabAllocator.cpp **** 
 526:src/kernel/slabAllocator.cpp **** int kmem_cache_error(kmem_cache_t *cachep)
 527:src/kernel/slabAllocator.cpp **** {
 2682              		.loc 1 527 1 is_stmt 1
 2683              		.cfi_startproc
 2684              	.LVL277:
 528:src/kernel/slabAllocator.cpp ****     if(cachep == nullptr)
 2685              		.loc 1 528 5
 2686 1054 630C0506 		beqz	a0,.L174
 527:src/kernel/slabAllocator.cpp ****     if(cachep == nullptr)
 2687              		.loc 1 527 1 is_stmt 0
 2688 1058 130101FE 		addi	sp,sp,-32
 2689              		.cfi_def_cfa_offset 32
 2690 105c 233C1100 		sd	ra,24(sp)
 2691 1060 23388100 		sd	s0,16(sp)
 2692 1064 23349100 		sd	s1,8(sp)
 2693              		.cfi_offset 1, -8
 2694              		.cfi_offset 8, -16
 2695              		.cfi_offset 9, -24
 2696 1068 13040102 		addi	s0,sp,32
 2697              		.cfi_def_cfa 8, 0
 2698 106c 93040500 		mv	s1,a0
 529:src/kernel/slabAllocator.cpp ****         return 0;
 530:src/kernel/slabAllocator.cpp **** 
 531:src/kernel/slabAllocator.cpp ****     if(cachep->errors & EXPAND_ERROR)
 2699              		.loc 1 531 5 is_stmt 1
 2700              		.loc 1 531 16 is_stmt 0
 2701 1070 83278507 		lw	a5,120(a0)
 2702              		.loc 1 531 23
 2703 1074 93F71700 		andi	a5,a5,1
 2704              		.loc 1 531 5
 2705 1078 63960702 		bnez	a5,.L177
 2706              	.LVL278:
 2707              	.L171:
 532:src/kernel/slabAllocator.cpp ****         KConsole::trapPrintString("EXPAND ERROR\n");
 533:src/kernel/slabAllocator.cpp ****     if(cachep->errors & DESTROY_ERROR)
GAS LISTING /tmp/ccc39oBq.s 			page 63


 2708              		.loc 1 533 5 is_stmt 1
 2709              		.loc 1 533 16 is_stmt 0
 2710 107c 83A78407 		lw	a5,120(s1)
 2711              		.loc 1 533 23
 2712 1080 93F72700 		andi	a5,a5,2
 2713              		.loc 1 533 5
 2714 1084 639A0702 		bnez	a5,.L178
 2715              	.L172:
 534:src/kernel/slabAllocator.cpp ****         KConsole::trapPrintString("DESTROY ERROR");
 535:src/kernel/slabAllocator.cpp **** 
 536:src/kernel/slabAllocator.cpp ****     cachep->errors = NO_ERROR;
 2716              		.loc 1 536 5 is_stmt 1
 2717              		.loc 1 536 20 is_stmt 0
 2718 1088 23AC0406 		sw	zero,120(s1)
 537:src/kernel/slabAllocator.cpp **** 
 538:src/kernel/slabAllocator.cpp ****     return cachep->errors;
 2719              		.loc 1 538 5 is_stmt 1
 539:src/kernel/slabAllocator.cpp **** }
 2720              		.loc 1 539 1 is_stmt 0
 2721 108c 13050000 		li	a0,0
 2722 1090 83308101 		ld	ra,24(sp)
 2723              		.cfi_remember_state
 2724              		.cfi_restore 1
 2725 1094 03340101 		ld	s0,16(sp)
 2726              		.cfi_restore 8
 2727              		.cfi_def_cfa 2, 32
 2728 1098 83348100 		ld	s1,8(sp)
 2729              		.cfi_restore 9
 2730              	.LVL279:
 2731 109c 13010102 		addi	sp,sp,32
 2732              		.cfi_def_cfa_offset 0
 2733 10a0 67800000 		jr	ra
 2734              	.LVL280:
 2735              	.L177:
 2736              		.cfi_restore_state
 532:src/kernel/slabAllocator.cpp ****     if(cachep->errors & DESTROY_ERROR)
 2737              		.loc 1 532 9 is_stmt 1
 532:src/kernel/slabAllocator.cpp ****     if(cachep->errors & DESTROY_ERROR)
 2738              		.loc 1 532 34 is_stmt 0
 2739 10a4 17050000 		lla	a0,.LC21
 2739      13050500 
 2740 10ac 97000000 		call	_ZN8KConsole15trapPrintStringEPKc@plt
 2740      E7800000 
 2741              	.LVL281:
 2742 10b4 6FF09FFC 		j	.L171
 2743              	.L178:
 534:src/kernel/slabAllocator.cpp **** 
 2744              		.loc 1 534 9 is_stmt 1
 534:src/kernel/slabAllocator.cpp **** 
 2745              		.loc 1 534 34 is_stmt 0
 2746 10b8 17050000 		lla	a0,.LC22
 2746      13050500 
 2747 10c0 97000000 		call	_ZN8KConsole15trapPrintStringEPKc@plt
 2747      E7800000 
 2748              	.LVL282:
 2749 10c8 6FF01FFC 		j	.L172
 2750              	.LVL283:
GAS LISTING /tmp/ccc39oBq.s 			page 64


 2751              	.L174:
 2752              		.cfi_def_cfa_register 2
 2753              		.cfi_restore 1
 2754              		.cfi_restore 8
 2755              		.cfi_restore 9
 2756              		.loc 1 539 1
 2757 10cc 13050000 		li	a0,0
 2758              	.LVL284:
 2759 10d0 67800000 		ret
 2760              		.cfi_endproc
 2761              	.LFE36:
 2763              		.bss
 2764              		.align	3
 2765              		.set	.LANCHOR0,. + 0
 2768              	_ZL13slabAllocator:
 2769 0000 00000000 		.zero	8
 2769      00000000 
 2770              		.text
 2771              	.Letext0:
 2772              		.file 2 "src/kernel/../../h/../lib/hw.h"
 2773              		.file 3 "src/kernel/../../h/slabAllocator.hpp"
 2774              		.file 4 "src/kernel/../../h/buddyAllocator.hpp"
 2775              		.file 5 "src/kernel/../../h/PCB.hpp"
 2776              		.file 6 "src/kernel/../../h/KSemaphore.hpp"
 2777              		.file 7 "src/kernel/../../h/KConsole.hpp"
GAS LISTING /tmp/ccc39oBq.s 			page 65


DEFINED SYMBOLS
                            *ABS*:0000000000000000 slabAllocator.cpp
     /tmp/ccc39oBq.s:9      .text:0000000000000000 _Z6strcpyPKcPc
     /tmp/ccc39oBq.s:13     .text:0000000000000000 .L0 
     /tmp/ccc39oBq.s:15     .text:0000000000000000 .L0 
     /tmp/ccc39oBq.s:16     .text:0000000000000004 .L0 
     /tmp/ccc39oBq.s:18     .text:0000000000000008 .L0 
     /tmp/ccc39oBq.s:20     .text:000000000000000c .L0 
     /tmp/ccc39oBq.s:23     .text:000000000000000c .L0 
     /tmp/ccc39oBq.s:24     .text:000000000000000c .L0 
     /tmp/ccc39oBq.s:25     .text:000000000000000c .L0 
     /tmp/ccc39oBq.s:27     .text:0000000000000010 .L0 
     /tmp/ccc39oBq.s:29     .text:0000000000000014 .L0 
     /tmp/ccc39oBq.s:30     .text:0000000000000014 .L0 
     /tmp/ccc39oBq.s:32     .text:0000000000000018 .L0 
     /tmp/ccc39oBq.s:33     .text:0000000000000018 .L0 
     /tmp/ccc39oBq.s:36     .text:000000000000001c .L0 
     /tmp/ccc39oBq.s:37     .text:000000000000001c .L0 
     /tmp/ccc39oBq.s:40     .text:0000000000000020 .L0 
     /tmp/ccc39oBq.s:43     .text:0000000000000024 .L0 
     /tmp/ccc39oBq.s:44     .text:0000000000000024 .L0 
     /tmp/ccc39oBq.s:46     .text:0000000000000028 .L0 
     /tmp/ccc39oBq.s:47     .text:000000000000002c .L0 
     /tmp/ccc39oBq.s:48     .text:000000000000002c .L0 
     /tmp/ccc39oBq.s:50     .text:0000000000000030 .L0 
     /tmp/ccc39oBq.s:52     .text:0000000000000034 .L0 
     /tmp/ccc39oBq.s:58     .text:0000000000000034 _Z17destroy_slab_listPP6slab_s
     /tmp/ccc39oBq.s:61     .text:0000000000000034 .L0 
     /tmp/ccc39oBq.s:63     .text:0000000000000034 .L0 
     /tmp/ccc39oBq.s:64     .text:0000000000000038 .L0 
     /tmp/ccc39oBq.s:71     .text:0000000000000050 .L0 
     /tmp/ccc39oBq.s:72     .text:0000000000000050 .L0 
     /tmp/ccc39oBq.s:73     .text:0000000000000050 .L0 
     /tmp/ccc39oBq.s:74     .text:0000000000000050 .L0 
     /tmp/ccc39oBq.s:75     .text:0000000000000050 .L0 
     /tmp/ccc39oBq.s:76     .text:0000000000000050 .L0 
     /tmp/ccc39oBq.s:78     .text:0000000000000054 .L0 
     /tmp/ccc39oBq.s:80     .text:0000000000000054 .L0 
     /tmp/ccc39oBq.s:81     .text:0000000000000054 .L0 
     /tmp/ccc39oBq.s:83     .text:0000000000000058 .L0 
     /tmp/ccc39oBq.s:86     .text:0000000000000060 .L0 
     /tmp/ccc39oBq.s:87     .text:0000000000000060 .L0 
     /tmp/ccc39oBq.s:89     .text:0000000000000064 .L0 
     /tmp/ccc39oBq.s:92     .text:0000000000000068 .L0 
     /tmp/ccc39oBq.s:93     .text:0000000000000068 .L0 
     /tmp/ccc39oBq.s:97     .text:000000000000006c .L0 
     /tmp/ccc39oBq.s:98     .text:000000000000006c .L0 
     /tmp/ccc39oBq.s:99     .text:000000000000006c .L0 
     /tmp/ccc39oBq.s:101    .text:0000000000000070 .L0 
     /tmp/ccc39oBq.s:104    .text:0000000000000074 .L0 
     /tmp/ccc39oBq.s:105    .text:0000000000000074 .L0 
     /tmp/ccc39oBq.s:108    .text:0000000000000078 .L0 
     /tmp/ccc39oBq.s:109    .text:0000000000000078 .L0 
     /tmp/ccc39oBq.s:113    .text:0000000000000084 .L0 
     /tmp/ccc39oBq.s:114    .text:0000000000000084 .L0 
     /tmp/ccc39oBq.s:116    .text:0000000000000088 .L0 
     /tmp/ccc39oBq.s:117    .text:0000000000000088 .L0 
GAS LISTING /tmp/ccc39oBq.s 			page 66


     /tmp/ccc39oBq.s:121    .text:000000000000008c .L0 
     /tmp/ccc39oBq.s:125    .text:0000000000000090 .L0 
     /tmp/ccc39oBq.s:129    .text:0000000000000094 .L0 
     /tmp/ccc39oBq.s:131    .text:000000000000009c .L0 
     /tmp/ccc39oBq.s:133    .text:00000000000000a0 .L0 
     /tmp/ccc39oBq.s:134    .text:00000000000000a0 .L0 
     /tmp/ccc39oBq.s:136    .text:00000000000000a4 .L0 
     /tmp/ccc39oBq.s:138    .text:00000000000000a8 .L0 
     /tmp/ccc39oBq.s:140    .text:00000000000000ac .L0 
     /tmp/ccc39oBq.s:142    .text:00000000000000b0 .L0 
     /tmp/ccc39oBq.s:144    .text:00000000000000b4 .L0 
     /tmp/ccc39oBq.s:146    .text:00000000000000b8 .L0 
     /tmp/ccc39oBq.s:152    .text:00000000000000b8 _Z10init_cacheP12kmem_cache_sPKcmmPFvPvES5_
     /tmp/ccc39oBq.s:155    .text:00000000000000b8 .L0 
     /tmp/ccc39oBq.s:157    .text:00000000000000b8 .L0 
     /tmp/ccc39oBq.s:158    .text:00000000000000bc .L0 
     /tmp/ccc39oBq.s:166    .text:00000000000000d8 .L0 
     /tmp/ccc39oBq.s:167    .text:00000000000000d8 .L0 
     /tmp/ccc39oBq.s:168    .text:00000000000000d8 .L0 
     /tmp/ccc39oBq.s:169    .text:00000000000000d8 .L0 
     /tmp/ccc39oBq.s:170    .text:00000000000000d8 .L0 
     /tmp/ccc39oBq.s:171    .text:00000000000000d8 .L0 
     /tmp/ccc39oBq.s:172    .text:00000000000000d8 .L0 
     /tmp/ccc39oBq.s:174    .text:00000000000000dc .L0 
     /tmp/ccc39oBq.s:183    .text:00000000000000f4 .L0 
     /tmp/ccc39oBq.s:184    .text:00000000000000f4 .L0 
     /tmp/ccc39oBq.s:189    .text:0000000000000100 .L0 
     /tmp/ccc39oBq.s:190    .text:0000000000000100 .L0 
     /tmp/ccc39oBq.s:192    .text:0000000000000104 .L0 
     /tmp/ccc39oBq.s:193    .text:0000000000000104 .L0 
     /tmp/ccc39oBq.s:195    .text:0000000000000108 .L0 
     /tmp/ccc39oBq.s:196    .text:0000000000000108 .L0 
     /tmp/ccc39oBq.s:198    .text:000000000000010c .L0 
     /tmp/ccc39oBq.s:199    .text:000000000000010c .L0 
     /tmp/ccc39oBq.s:201    .text:0000000000000110 .L0 
     /tmp/ccc39oBq.s:202    .text:0000000000000110 .L0 
     /tmp/ccc39oBq.s:204    .text:0000000000000114 .L0 
     /tmp/ccc39oBq.s:206    .text:0000000000000118 .L0 
     /tmp/ccc39oBq.s:208    .text:000000000000011c .L0 
     /tmp/ccc39oBq.s:209    .text:000000000000011c .L0 
     /tmp/ccc39oBq.s:211    .text:0000000000000120 .L0 
     /tmp/ccc39oBq.s:212    .text:0000000000000124 .L0 
     /tmp/ccc39oBq.s:214    .text:0000000000000128 .L0 
     /tmp/ccc39oBq.s:215    .text:0000000000000128 .L0 
     /tmp/ccc39oBq.s:217    .text:000000000000012c .L0 
     /tmp/ccc39oBq.s:220    .text:0000000000000130 .L0 
     /tmp/ccc39oBq.s:223    .text:0000000000000134 .L0 
     /tmp/ccc39oBq.s:226    .text:0000000000000138 .L0 
     /tmp/ccc39oBq.s:229    .text:000000000000013c .L0 
     /tmp/ccc39oBq.s:232    .text:0000000000000140 .L0 
     /tmp/ccc39oBq.s:234    .text:0000000000000144 .L0 
     /tmp/ccc39oBq.s:245    .text:0000000000000144 _Z19slab_allocator_initP14buddyAllocator
     /tmp/ccc39oBq.s:248    .text:0000000000000144 .L0 
     /tmp/ccc39oBq.s:250    .text:0000000000000144 .L0 
     /tmp/ccc39oBq.s:251    .text:0000000000000148 .L0 
     /tmp/ccc39oBq.s:255    .text:0000000000000154 .L0 
     /tmp/ccc39oBq.s:256    .text:0000000000000154 .L0 
GAS LISTING /tmp/ccc39oBq.s 			page 67


     /tmp/ccc39oBq.s:257    .text:0000000000000154 .L0 
     /tmp/ccc39oBq.s:259    .text:0000000000000158 .L0 
     /tmp/ccc39oBq.s:261    .text:0000000000000158 .L0 
     /tmp/ccc39oBq.s:262    .text:0000000000000158 .L0 
     /tmp/ccc39oBq.s:266    .text:000000000000015c .L0 
     /tmp/ccc39oBq.s:267    .text:000000000000015c .L0 
     /tmp/ccc39oBq.s:272    .text:0000000000000164 .L0 
     /tmp/ccc39oBq.s:273    .text:0000000000000164 .L0 
     /tmp/ccc39oBq.s:277    .text:0000000000000170 .L0 
     /tmp/ccc39oBq.s:281    .text:0000000000000174 .L0 
     /tmp/ccc39oBq.s:285    .text:000000000000017c .L0 
     /tmp/ccc39oBq.s:286    .text:000000000000017c .L0 
     /tmp/ccc39oBq.s:297    .text:00000000000001a0 .L0 
     /tmp/ccc39oBq.s:298    .text:00000000000001a0 .L0 
     /tmp/ccc39oBq.s:300    .text:00000000000001a8 .L0 
     /tmp/ccc39oBq.s:302    .text:00000000000001ac .L0 
     /tmp/ccc39oBq.s:303    .text:00000000000001ac .L0 
     /tmp/ccc39oBq.s:305    .text:00000000000001b0 .L0 
     /tmp/ccc39oBq.s:308    .text:00000000000001b4 .L0 
     /tmp/ccc39oBq.s:310    .text:00000000000001b8 .L0 
     /tmp/ccc39oBq.s:316    .text:00000000000001b8 _Z13checkSetIndexP6slab_si
     /tmp/ccc39oBq.s:319    .text:00000000000001b8 .L0 
     /tmp/ccc39oBq.s:321    .text:00000000000001b8 .L0 
     /tmp/ccc39oBq.s:322    .text:00000000000001bc .L0 
     /tmp/ccc39oBq.s:324    .text:00000000000001c0 .L0 
     /tmp/ccc39oBq.s:326    .text:00000000000001c4 .L0 
     /tmp/ccc39oBq.s:328    .text:00000000000001c4 .L0 
     /tmp/ccc39oBq.s:329    .text:00000000000001c4 .L0 
     /tmp/ccc39oBq.s:335    .text:00000000000001d4 .L0 
     /tmp/ccc39oBq.s:338    .text:00000000000001d8 .L0 
     /tmp/ccc39oBq.s:340    .text:00000000000001dc .L0 
     /tmp/ccc39oBq.s:343    .text:00000000000001e4 .L0 
     /tmp/ccc39oBq.s:345    .text:00000000000001e8 .L0 
     /tmp/ccc39oBq.s:347    .text:00000000000001f0 .L0 
     /tmp/ccc39oBq.s:348    .text:00000000000001f0 .L0 
     /tmp/ccc39oBq.s:350    .text:00000000000001f4 .L0 
     /tmp/ccc39oBq.s:352    .text:00000000000001f8 .L0 
     /tmp/ccc39oBq.s:358    .text:00000000000001f8 _Z17setAllocatedIndexP6slab_si
     /tmp/ccc39oBq.s:361    .text:00000000000001f8 .L0 
     /tmp/ccc39oBq.s:363    .text:00000000000001f8 .L0 
     /tmp/ccc39oBq.s:364    .text:00000000000001fc .L0 
     /tmp/ccc39oBq.s:366    .text:0000000000000200 .L0 
     /tmp/ccc39oBq.s:368    .text:0000000000000204 .L0 
     /tmp/ccc39oBq.s:370    .text:0000000000000204 .L0 
     /tmp/ccc39oBq.s:371    .text:0000000000000204 .L0 
     /tmp/ccc39oBq.s:377    .text:0000000000000214 .L0 
     /tmp/ccc39oBq.s:380    .text:0000000000000218 .L0 
     /tmp/ccc39oBq.s:382    .text:000000000000021c .L0 
     /tmp/ccc39oBq.s:385    .text:0000000000000224 .L0 
     /tmp/ccc39oBq.s:388    .text:000000000000022c .L0 
     /tmp/ccc39oBq.s:390    .text:0000000000000230 .L0 
     /tmp/ccc39oBq.s:392    .text:0000000000000234 .L0 
     /tmp/ccc39oBq.s:393    .text:0000000000000238 .L0 
     /tmp/ccc39oBq.s:394    .text:0000000000000238 .L0 
     /tmp/ccc39oBq.s:396    .text:000000000000023c .L0 
     /tmp/ccc39oBq.s:398    .text:0000000000000240 .L0 
     /tmp/ccc39oBq.s:404    .text:0000000000000240 _Z14allocateObjectP6slab_s
GAS LISTING /tmp/ccc39oBq.s 			page 68


     /tmp/ccc39oBq.s:407    .text:0000000000000240 .L0 
     /tmp/ccc39oBq.s:409    .text:0000000000000240 .L0 
     /tmp/ccc39oBq.s:410    .text:0000000000000244 .L0 
     /tmp/ccc39oBq.s:416    .text:0000000000000258 .L0 
     /tmp/ccc39oBq.s:417    .text:0000000000000258 .L0 
     /tmp/ccc39oBq.s:418    .text:0000000000000258 .L0 
     /tmp/ccc39oBq.s:419    .text:0000000000000258 .L0 
     /tmp/ccc39oBq.s:420    .text:0000000000000258 .L0 
     /tmp/ccc39oBq.s:422    .text:000000000000025c .L0 
     /tmp/ccc39oBq.s:425    .text:0000000000000260 .L0 
     /tmp/ccc39oBq.s:428    .text:0000000000000264 .L0 
     /tmp/ccc39oBq.s:432    .text:0000000000000268 .L0 
     /tmp/ccc39oBq.s:433    .text:0000000000000268 .L0 
     /tmp/ccc39oBq.s:435    .text:000000000000026c .L0 
     /tmp/ccc39oBq.s:437    .text:0000000000000270 .L0 
     /tmp/ccc39oBq.s:438    .text:0000000000000270 .L0 
     /tmp/ccc39oBq.s:444    .text:0000000000000284 .L0 
     /tmp/ccc39oBq.s:446    .text:0000000000000288 .L0 
     /tmp/ccc39oBq.s:451    .text:0000000000000290 .L0 
     /tmp/ccc39oBq.s:452    .text:0000000000000290 .L0 
     /tmp/ccc39oBq.s:454    .text:0000000000000294 .L0 
     /tmp/ccc39oBq.s:456    .text:0000000000000298 .L0 
     /tmp/ccc39oBq.s:459    .text:000000000000029c .L0 
     /tmp/ccc39oBq.s:463    .text:00000000000002a4 .L0 
     /tmp/ccc39oBq.s:464    .text:00000000000002a4 .L0 
     /tmp/ccc39oBq.s:469    .text:00000000000002a8 .L0 
     /tmp/ccc39oBq.s:472    .text:00000000000002ac .L0 
     /tmp/ccc39oBq.s:476    .text:00000000000002b0 .L0 
     /tmp/ccc39oBq.s:478    .text:00000000000002b4 .L0 
     /tmp/ccc39oBq.s:479    .text:00000000000002b4 .L0 
     /tmp/ccc39oBq.s:484    .text:00000000000002c4 .L0 
     /tmp/ccc39oBq.s:485    .text:00000000000002c4 .L0 
     /tmp/ccc39oBq.s:487    .text:00000000000002c8 .L0 
     /tmp/ccc39oBq.s:492    .text:00000000000002d0 .L0 
     /tmp/ccc39oBq.s:493    .text:00000000000002d0 .L0 
     /tmp/ccc39oBq.s:495    .text:00000000000002d8 .L0 
     /tmp/ccc39oBq.s:496    .text:00000000000002d8 .L0 
     /tmp/ccc39oBq.s:498    .text:00000000000002dc .L0 
     /tmp/ccc39oBq.s:499    .text:00000000000002dc .L0 
     /tmp/ccc39oBq.s:501    .text:00000000000002e0 .L0 
     /tmp/ccc39oBq.s:503    .text:00000000000002e4 .L0 
     /tmp/ccc39oBq.s:506    .text:00000000000002e8 .L0 
     /tmp/ccc39oBq.s:508    .text:00000000000002ec .L0 
     /tmp/ccc39oBq.s:512    .text:00000000000002f0 .L0 
     /tmp/ccc39oBq.s:514    .text:00000000000002f0 .L0 
     /tmp/ccc39oBq.s:516    .text:00000000000002f8 .L0 
     /tmp/ccc39oBq.s:522    .text:00000000000002f8 _Z4fullP6slab_s
     /tmp/ccc39oBq.s:525    .text:00000000000002f8 .L0 
     /tmp/ccc39oBq.s:527    .text:00000000000002f8 .L0 
     /tmp/ccc39oBq.s:528    .text:00000000000002fc .L0 
     /tmp/ccc39oBq.s:530    .text:0000000000000300 .L0 
     /tmp/ccc39oBq.s:532    .text:0000000000000304 .L0 
     /tmp/ccc39oBq.s:534    .text:0000000000000304 .L0 
     /tmp/ccc39oBq.s:535    .text:0000000000000304 .L0 
     /tmp/ccc39oBq.s:537    .text:0000000000000308 .L0 
     /tmp/ccc39oBq.s:541    .text:0000000000000310 .L0 
     /tmp/ccc39oBq.s:543    .text:0000000000000318 .L0 
GAS LISTING /tmp/ccc39oBq.s 			page 69


     /tmp/ccc39oBq.s:544    .text:0000000000000318 .L0 
     /tmp/ccc39oBq.s:546    .text:000000000000031c .L0 
     /tmp/ccc39oBq.s:548    .text:0000000000000320 .L0 
     /tmp/ccc39oBq.s:554    .text:0000000000000320 _Z5emptyP6slab_s
     /tmp/ccc39oBq.s:557    .text:0000000000000320 .L0 
     /tmp/ccc39oBq.s:559    .text:0000000000000320 .L0 
     /tmp/ccc39oBq.s:560    .text:0000000000000324 .L0 
     /tmp/ccc39oBq.s:562    .text:0000000000000328 .L0 
     /tmp/ccc39oBq.s:564    .text:000000000000032c .L0 
     /tmp/ccc39oBq.s:566    .text:000000000000032c .L0 
     /tmp/ccc39oBq.s:567    .text:000000000000032c .L0 
     /tmp/ccc39oBq.s:570    .text:0000000000000330 .L0 
     /tmp/ccc39oBq.s:572    .text:0000000000000338 .L0 
     /tmp/ccc39oBq.s:573    .text:0000000000000338 .L0 
     /tmp/ccc39oBq.s:575    .text:000000000000033c .L0 
     /tmp/ccc39oBq.s:577    .text:0000000000000340 .L0 
     /tmp/ccc39oBq.s:583    .text:0000000000000340 _Z18insertIntoSlabListP6slab_sPS0_
     /tmp/ccc39oBq.s:586    .text:0000000000000340 .L0 
     /tmp/ccc39oBq.s:588    .text:0000000000000340 .L0 
     /tmp/ccc39oBq.s:589    .text:0000000000000344 .L0 
     /tmp/ccc39oBq.s:591    .text:0000000000000348 .L0 
     /tmp/ccc39oBq.s:593    .text:000000000000034c .L0 
     /tmp/ccc39oBq.s:595    .text:000000000000034c .L0 
     /tmp/ccc39oBq.s:597    .text:0000000000000350 .L0 
     /tmp/ccc39oBq.s:598    .text:0000000000000350 .L0 
     /tmp/ccc39oBq.s:600    .text:0000000000000354 .L0 
     /tmp/ccc39oBq.s:601    .text:0000000000000354 .L0 
     /tmp/ccc39oBq.s:603    .text:0000000000000358 .L0 
     /tmp/ccc39oBq.s:605    .text:000000000000035c .L0 
     /tmp/ccc39oBq.s:607    .text:0000000000000360 .L0 
     /tmp/ccc39oBq.s:608    .text:0000000000000360 .L0 
     /tmp/ccc39oBq.s:611    .text:0000000000000364 .L0 
     /tmp/ccc39oBq.s:612    .text:0000000000000364 .L0 
     /tmp/ccc39oBq.s:615    .text:0000000000000368 .L0 
     /tmp/ccc39oBq.s:616    .text:000000000000036c .L0 
     /tmp/ccc39oBq.s:617    .text:000000000000036c .L0 
     /tmp/ccc39oBq.s:619    .text:0000000000000370 .L0 
     /tmp/ccc39oBq.s:621    .text:0000000000000374 .L0 
     /tmp/ccc39oBq.s:627    .text:0000000000000374 _Z18removeFromSlabListP6slab_sPS0_
     /tmp/ccc39oBq.s:630    .text:0000000000000374 .L0 
     /tmp/ccc39oBq.s:632    .text:0000000000000374 .L0 
     /tmp/ccc39oBq.s:633    .text:0000000000000378 .L0 
     /tmp/ccc39oBq.s:635    .text:000000000000037c .L0 
     /tmp/ccc39oBq.s:637    .text:0000000000000380 .L0 
     /tmp/ccc39oBq.s:639    .text:0000000000000380 .L0 
     /tmp/ccc39oBq.s:640    .text:0000000000000380 .L0 
     /tmp/ccc39oBq.s:642    .text:0000000000000384 .L0 
     /tmp/ccc39oBq.s:644    .text:0000000000000388 .L0 
     /tmp/ccc39oBq.s:645    .text:0000000000000388 .L0 
     /tmp/ccc39oBq.s:647    .text:000000000000038c .L0 
     /tmp/ccc39oBq.s:649    .text:0000000000000390 .L0 
     /tmp/ccc39oBq.s:651    .text:0000000000000394 .L0 
     /tmp/ccc39oBq.s:652    .text:0000000000000394 .L0 
     /tmp/ccc39oBq.s:654    .text:0000000000000398 .L0 
     /tmp/ccc39oBq.s:657    .text:000000000000039c .L0 
     /tmp/ccc39oBq.s:658    .text:000000000000039c .L0 
     /tmp/ccc39oBq.s:660    .text:00000000000003a0 .L0 
GAS LISTING /tmp/ccc39oBq.s 			page 70


     /tmp/ccc39oBq.s:663    .text:00000000000003a4 .L0 
     /tmp/ccc39oBq.s:664    .text:00000000000003a8 .L0 
     /tmp/ccc39oBq.s:665    .text:00000000000003a8 .L0 
     /tmp/ccc39oBq.s:666    .text:00000000000003a8 .L0 
     /tmp/ccc39oBq.s:668    .text:00000000000003ac .L0 
     /tmp/ccc39oBq.s:671    .text:00000000000003b0 .L0 
     /tmp/ccc39oBq.s:673    .text:00000000000003b0 .L0 
     /tmp/ccc39oBq.s:674    .text:00000000000003b0 .L0 
     /tmp/ccc39oBq.s:676    .text:00000000000003b4 .L0 
     /tmp/ccc39oBq.s:678    .text:00000000000003b8 .L0 
     /tmp/ccc39oBq.s:679    .text:00000000000003b8 .L0 
     /tmp/ccc39oBq.s:682    .text:00000000000003bc .L0 
     /tmp/ccc39oBq.s:683    .text:00000000000003bc .L0 
     /tmp/ccc39oBq.s:685    .text:00000000000003c0 .L0 
     /tmp/ccc39oBq.s:687    .text:00000000000003c4 .L0 
     /tmp/ccc39oBq.s:688    .text:00000000000003c4 .L0 
     /tmp/ccc39oBq.s:690    .text:00000000000003c8 .L0 
     /tmp/ccc39oBq.s:692    .text:00000000000003d0 .L0 
     /tmp/ccc39oBq.s:698    .text:00000000000003d0 _Z16putPartialToFullP12kmem_cache_s
     /tmp/ccc39oBq.s:701    .text:00000000000003d0 .L0 
     /tmp/ccc39oBq.s:703    .text:00000000000003d0 .L0 
     /tmp/ccc39oBq.s:704    .text:00000000000003d4 .L0 
     /tmp/ccc39oBq.s:709    .text:00000000000003e4 .L0 
     /tmp/ccc39oBq.s:710    .text:00000000000003e4 .L0 
     /tmp/ccc39oBq.s:711    .text:00000000000003e4 .L0 
     /tmp/ccc39oBq.s:712    .text:00000000000003e4 .L0 
     /tmp/ccc39oBq.s:714    .text:00000000000003e8 .L0 
     /tmp/ccc39oBq.s:717    .text:00000000000003ec .L0 
     /tmp/ccc39oBq.s:718    .text:00000000000003ec .L0 
     /tmp/ccc39oBq.s:721    .text:00000000000003f0 .L0 
     /tmp/ccc39oBq.s:722    .text:00000000000003f0 .L0 
     /tmp/ccc39oBq.s:728    .text:0000000000000400 .L0 
     /tmp/ccc39oBq.s:729    .text:0000000000000400 .L0 
     /tmp/ccc39oBq.s:734    .text:0000000000000410 .L0 
     /tmp/ccc39oBq.s:735    .text:0000000000000414 .L0 
     /tmp/ccc39oBq.s:737    .text:0000000000000418 .L0 
     /tmp/ccc39oBq.s:738    .text:0000000000000418 .L0 
     /tmp/ccc39oBq.s:740    .text:000000000000041c .L0 
     /tmp/ccc39oBq.s:743    .text:0000000000000420 .L0 
     /tmp/ccc39oBq.s:746    .text:0000000000000424 .L0 
     /tmp/ccc39oBq.s:748    .text:0000000000000428 .L0 
     /tmp/ccc39oBq.s:754    .text:0000000000000428 _Z17putEmptyToPartialP12kmem_cache_s
     /tmp/ccc39oBq.s:757    .text:0000000000000428 .L0 
     /tmp/ccc39oBq.s:759    .text:0000000000000428 .L0 
     /tmp/ccc39oBq.s:760    .text:000000000000042c .L0 
     /tmp/ccc39oBq.s:765    .text:000000000000043c .L0 
     /tmp/ccc39oBq.s:766    .text:000000000000043c .L0 
     /tmp/ccc39oBq.s:767    .text:000000000000043c .L0 
     /tmp/ccc39oBq.s:768    .text:000000000000043c .L0 
     /tmp/ccc39oBq.s:770    .text:0000000000000440 .L0 
     /tmp/ccc39oBq.s:773    .text:0000000000000444 .L0 
     /tmp/ccc39oBq.s:774    .text:0000000000000444 .L0 
     /tmp/ccc39oBq.s:777    .text:0000000000000448 .L0 
     /tmp/ccc39oBq.s:778    .text:0000000000000448 .L0 
     /tmp/ccc39oBq.s:784    .text:0000000000000458 .L0 
     /tmp/ccc39oBq.s:785    .text:0000000000000458 .L0 
     /tmp/ccc39oBq.s:790    .text:0000000000000468 .L0 
GAS LISTING /tmp/ccc39oBq.s 			page 71


     /tmp/ccc39oBq.s:791    .text:000000000000046c .L0 
     /tmp/ccc39oBq.s:793    .text:0000000000000470 .L0 
     /tmp/ccc39oBq.s:794    .text:0000000000000470 .L0 
     /tmp/ccc39oBq.s:796    .text:0000000000000474 .L0 
     /tmp/ccc39oBq.s:799    .text:0000000000000478 .L0 
     /tmp/ccc39oBq.s:802    .text:000000000000047c .L0 
     /tmp/ccc39oBq.s:804    .text:0000000000000480 .L0 
     /tmp/ccc39oBq.s:810    .text:0000000000000480 _Z14removeFullSlabP12kmem_cache_sP6slab_s
     /tmp/ccc39oBq.s:813    .text:0000000000000480 .L0 
     /tmp/ccc39oBq.s:815    .text:0000000000000480 .L0 
     /tmp/ccc39oBq.s:816    .text:0000000000000484 .L0 
     /tmp/ccc39oBq.s:821    .text:0000000000000494 .L0 
     /tmp/ccc39oBq.s:822    .text:0000000000000494 .L0 
     /tmp/ccc39oBq.s:823    .text:0000000000000494 .L0 
     /tmp/ccc39oBq.s:824    .text:0000000000000494 .L0 
     /tmp/ccc39oBq.s:826    .text:0000000000000498 .L0 
     /tmp/ccc39oBq.s:830    .text:00000000000004a0 .L0 
     /tmp/ccc39oBq.s:831    .text:00000000000004a0 .L0 
     /tmp/ccc39oBq.s:838    .text:00000000000004b0 .L0 
     /tmp/ccc39oBq.s:839    .text:00000000000004b0 .L0 
     /tmp/ccc39oBq.s:844    .text:00000000000004c0 .L0 
     /tmp/ccc39oBq.s:845    .text:00000000000004c4 .L0 
     /tmp/ccc39oBq.s:847    .text:00000000000004c8 .L0 
     /tmp/ccc39oBq.s:848    .text:00000000000004c8 .L0 
     /tmp/ccc39oBq.s:850    .text:00000000000004cc .L0 
     /tmp/ccc39oBq.s:853    .text:00000000000004d0 .L0 
     /tmp/ccc39oBq.s:856    .text:00000000000004d4 .L0 
     /tmp/ccc39oBq.s:858    .text:00000000000004d8 .L0 
     /tmp/ccc39oBq.s:864    .text:00000000000004d8 _Z17removePartialSlabP12kmem_cache_sP6slab_s
     /tmp/ccc39oBq.s:867    .text:00000000000004d8 .L0 
     /tmp/ccc39oBq.s:869    .text:00000000000004d8 .L0 
     /tmp/ccc39oBq.s:870    .text:00000000000004dc .L0 
     /tmp/ccc39oBq.s:875    .text:00000000000004ec .L0 
     /tmp/ccc39oBq.s:876    .text:00000000000004ec .L0 
     /tmp/ccc39oBq.s:877    .text:00000000000004ec .L0 
     /tmp/ccc39oBq.s:878    .text:00000000000004ec .L0 
     /tmp/ccc39oBq.s:880    .text:00000000000004f0 .L0 
     /tmp/ccc39oBq.s:884    .text:00000000000004f8 .L0 
     /tmp/ccc39oBq.s:885    .text:00000000000004f8 .L0 
     /tmp/ccc39oBq.s:892    .text:0000000000000508 .L0 
     /tmp/ccc39oBq.s:893    .text:0000000000000508 .L0 
     /tmp/ccc39oBq.s:898    .text:0000000000000518 .L0 
     /tmp/ccc39oBq.s:899    .text:000000000000051c .L0 
     /tmp/ccc39oBq.s:901    .text:0000000000000520 .L0 
     /tmp/ccc39oBq.s:902    .text:0000000000000520 .L0 
     /tmp/ccc39oBq.s:904    .text:0000000000000524 .L0 
     /tmp/ccc39oBq.s:907    .text:0000000000000528 .L0 
     /tmp/ccc39oBq.s:910    .text:000000000000052c .L0 
     /tmp/ccc39oBq.s:912    .text:0000000000000530 .L0 
     /tmp/ccc39oBq.s:918    .text:0000000000000530 _Z12allocateSlabP12kmem_cache_s
     /tmp/ccc39oBq.s:921    .text:0000000000000530 .L0 
     /tmp/ccc39oBq.s:923    .text:0000000000000530 .L0 
     /tmp/ccc39oBq.s:924    .text:0000000000000534 .L0 
     /tmp/ccc39oBq.s:930    .text:0000000000000548 .L0 
     /tmp/ccc39oBq.s:931    .text:0000000000000548 .L0 
     /tmp/ccc39oBq.s:932    .text:0000000000000548 .L0 
     /tmp/ccc39oBq.s:933    .text:0000000000000548 .L0 
GAS LISTING /tmp/ccc39oBq.s 			page 72


     /tmp/ccc39oBq.s:934    .text:0000000000000548 .L0 
     /tmp/ccc39oBq.s:936    .text:000000000000054c .L0 
     /tmp/ccc39oBq.s:939    .text:0000000000000550 .L0 
     /tmp/ccc39oBq.s:940    .text:0000000000000550 .L0 
     /tmp/ccc39oBq.s:945    .text:000000000000055c .L0 
     /tmp/ccc39oBq.s:948    .text:0000000000000564 .L0 
     /tmp/ccc39oBq.s:949    .text:0000000000000564 .L0 
     /tmp/ccc39oBq.s:951    .text:0000000000000568 .L0 
     /tmp/ccc39oBq.s:953    .text:000000000000056c .L0 
     /tmp/ccc39oBq.s:955    .text:0000000000000570 .L0 
     /tmp/ccc39oBq.s:956    .text:0000000000000570 .L0 
     /tmp/ccc39oBq.s:960    .text:0000000000000574 .L0 
     /tmp/ccc39oBq.s:961    .text:0000000000000574 .L0 
     /tmp/ccc39oBq.s:963    .text:0000000000000578 .L0 
     /tmp/ccc39oBq.s:964    .text:0000000000000578 .L0 
     /tmp/ccc39oBq.s:966    .text:000000000000057c .L0 
     /tmp/ccc39oBq.s:967    .text:000000000000057c .L0 
     /tmp/ccc39oBq.s:969    .text:0000000000000580 .L0 
     /tmp/ccc39oBq.s:970    .text:0000000000000580 .L0 
     /tmp/ccc39oBq.s:972    .text:0000000000000584 .L0 
     /tmp/ccc39oBq.s:973    .text:0000000000000584 .L0 
     /tmp/ccc39oBq.s:975    .text:0000000000000588 .L0 
     /tmp/ccc39oBq.s:978    .text:000000000000058c .L0 
     /tmp/ccc39oBq.s:979    .text:000000000000058c .L0 
     /tmp/ccc39oBq.s:982    .text:0000000000000590 .L0 
     /tmp/ccc39oBq.s:984    .text:0000000000000594 .L0 
     /tmp/ccc39oBq.s:987    .text:0000000000000598 .L0 
     /tmp/ccc39oBq.s:991    .text:000000000000059c .L0 
     /tmp/ccc39oBq.s:992    .text:000000000000059c .L0 
     /tmp/ccc39oBq.s:996    .text:00000000000005a0 .L0 
     /tmp/ccc39oBq.s:997    .text:00000000000005a0 .L0 
     /tmp/ccc39oBq.s:999    .text:00000000000005a4 .L0 
     /tmp/ccc39oBq.s:1001   .text:00000000000005a8 .L0 
     /tmp/ccc39oBq.s:1003   .text:00000000000005ac .L0 
     /tmp/ccc39oBq.s:1004   .text:00000000000005ac .L0 
     /tmp/ccc39oBq.s:1007   .text:00000000000005b4 .L0 
     /tmp/ccc39oBq.s:1014   .text:00000000000005bc .L0 
     /tmp/ccc39oBq.s:1015   .text:00000000000005bc .L0 
     /tmp/ccc39oBq.s:1017   .text:00000000000005c0 .L0 
     /tmp/ccc39oBq.s:1020   .text:00000000000005c4 .L0 
     /tmp/ccc39oBq.s:1024   .text:00000000000005c8 .L0 
     /tmp/ccc39oBq.s:1025   .text:00000000000005c8 .L0 
     /tmp/ccc39oBq.s:1027   .text:00000000000005cc .L0 
     /tmp/ccc39oBq.s:1029   .text:00000000000005d0 .L0 
     /tmp/ccc39oBq.s:1030   .text:00000000000005d0 .L0 
     /tmp/ccc39oBq.s:1032   .text:00000000000005d4 .L0 
     /tmp/ccc39oBq.s:1034   .text:00000000000005d8 .L0 
     /tmp/ccc39oBq.s:1036   .text:00000000000005dc .L0 
     /tmp/ccc39oBq.s:1038   .text:00000000000005e0 .L0 
     /tmp/ccc39oBq.s:1040   .text:00000000000005e4 .L0 
     /tmp/ccc39oBq.s:1044   .text:00000000000005ec .L0 
     /tmp/ccc39oBq.s:1052   .text:00000000000005f4 .L0 
     /tmp/ccc39oBq.s:1053   .text:00000000000005f8 .L0 
     /tmp/ccc39oBq.s:1055   .text:00000000000005fc .L0 
     /tmp/ccc39oBq.s:1056   .text:00000000000005fc .L0 
     /tmp/ccc39oBq.s:1058   .text:0000000000000600 .L0 
     /tmp/ccc39oBq.s:1060   .text:0000000000000604 .L0 
GAS LISTING /tmp/ccc39oBq.s 			page 73


     /tmp/ccc39oBq.s:1062   .text:0000000000000608 .L0 
     /tmp/ccc39oBq.s:1065   .text:000000000000060c .L0 
     /tmp/ccc39oBq.s:1067   .text:0000000000000610 .L0 
     /tmp/ccc39oBq.s:1073   .text:0000000000000610 _Z18getOptimalSlabSizem
     /tmp/ccc39oBq.s:1076   .text:0000000000000610 .L0 
     /tmp/ccc39oBq.s:1078   .text:0000000000000610 .L0 
     /tmp/ccc39oBq.s:1079   .text:0000000000000614 .L0 
     /tmp/ccc39oBq.s:1081   .text:0000000000000618 .L0 
     /tmp/ccc39oBq.s:1083   .text:000000000000061c .L0 
     /tmp/ccc39oBq.s:1086   .text:000000000000061c .L0 
     /tmp/ccc39oBq.s:1087   .text:000000000000061c .L0 
     /tmp/ccc39oBq.s:1091   .text:0000000000000620 .L0 
     /tmp/ccc39oBq.s:1092   .text:0000000000000620 .L0 
     /tmp/ccc39oBq.s:1093   .text:0000000000000620 .L0 
     /tmp/ccc39oBq.s:1095   .text:0000000000000624 .L0 
     /tmp/ccc39oBq.s:1097   .text:0000000000000628 .L0 
     /tmp/ccc39oBq.s:1098   .text:0000000000000628 .L0 
     /tmp/ccc39oBq.s:1101   .text:000000000000062c .L0 
     /tmp/ccc39oBq.s:1104   .text:0000000000000630 .L0 
     /tmp/ccc39oBq.s:1105   .text:0000000000000630 .L0 
     /tmp/ccc39oBq.s:1107   .text:0000000000000634 .L0 
     /tmp/ccc39oBq.s:1110   .text:0000000000000638 .L0 
     /tmp/ccc39oBq.s:1111   .text:0000000000000638 .L0 
     /tmp/ccc39oBq.s:1112   .text:0000000000000638 .L0 
     /tmp/ccc39oBq.s:1113   .text:0000000000000638 .L0 
     /tmp/ccc39oBq.s:1114   .text:0000000000000638 .L0 
     /tmp/ccc39oBq.s:1117   .text:000000000000063c .L0 
     /tmp/ccc39oBq.s:1122   .text:0000000000000644 .L0 
     /tmp/ccc39oBq.s:1126   .text:0000000000000648 .L0 
     /tmp/ccc39oBq.s:1130   .text:0000000000000650 .L0 
     /tmp/ccc39oBq.s:1131   .text:0000000000000650 .L0 
     /tmp/ccc39oBq.s:1134   .text:0000000000000654 .L0 
     /tmp/ccc39oBq.s:1135   .text:0000000000000654 .L0 
     /tmp/ccc39oBq.s:1137   .text:0000000000000658 .L0 
     /tmp/ccc39oBq.s:1140   .text:000000000000065c .L0 
     /tmp/ccc39oBq.s:1141   .text:000000000000065c .L0 
     /tmp/ccc39oBq.s:1144   .text:0000000000000660 .L0 
     /tmp/ccc39oBq.s:1146   .text:0000000000000664 .L0 
     /tmp/ccc39oBq.s:1149   .text:000000000000066c .L0 
     /tmp/ccc39oBq.s:1152   .text:0000000000000670 .L0 
     /tmp/ccc39oBq.s:1161   .text:0000000000000678 .L0 
     /tmp/ccc39oBq.s:1166   .text:0000000000000680 .L0 
     /tmp/ccc39oBq.s:1170   .text:0000000000000684 .L0 
     /tmp/ccc39oBq.s:1174   .text:000000000000068c .L0 
     /tmp/ccc39oBq.s:1175   .text:000000000000068c .L0 
     /tmp/ccc39oBq.s:1177   .text:0000000000000690 .L0 
     /tmp/ccc39oBq.s:1180   .text:0000000000000694 .L0 
     /tmp/ccc39oBq.s:1181   .text:0000000000000694 .L0 
     /tmp/ccc39oBq.s:1183   .text:0000000000000698 .L0 
     /tmp/ccc39oBq.s:1186   .text:000000000000069c .L0 
     /tmp/ccc39oBq.s:1187   .text:000000000000069c .L0 
     /tmp/ccc39oBq.s:1190   .text:00000000000006a0 .L0 
     /tmp/ccc39oBq.s:1192   .text:00000000000006a4 .L0 
     /tmp/ccc39oBq.s:1195   .text:00000000000006ac .L0 
     /tmp/ccc39oBq.s:1198   .text:00000000000006b0 .L0 
     /tmp/ccc39oBq.s:1206   .text:00000000000006b8 .L0 
     /tmp/ccc39oBq.s:1207   .text:00000000000006b8 .L0 
GAS LISTING /tmp/ccc39oBq.s 			page 74


     /tmp/ccc39oBq.s:1210   .text:00000000000006c0 .L0 
     /tmp/ccc39oBq.s:1211   .text:00000000000006c0 .L0 
     /tmp/ccc39oBq.s:1213   .text:00000000000006c4 .L0 
     /tmp/ccc39oBq.s:1215   .text:00000000000006c8 .L0 
     /tmp/ccc39oBq.s:1221   .text:00000000000006c8 _Z8findSlabP12kmem_cache_sPKv
     /tmp/ccc39oBq.s:1224   .text:00000000000006c8 .L0 
     /tmp/ccc39oBq.s:1226   .text:00000000000006c8 .L0 
     /tmp/ccc39oBq.s:1227   .text:00000000000006cc .L0 
     /tmp/ccc39oBq.s:1229   .text:00000000000006d0 .L0 
     /tmp/ccc39oBq.s:1231   .text:00000000000006d4 .L0 
     /tmp/ccc39oBq.s:1234   .text:00000000000006d8 .L0 
     /tmp/ccc39oBq.s:1236   .text:00000000000006dc .L0 
     /tmp/ccc39oBq.s:1238   .text:00000000000006e0 .L0 
     /tmp/ccc39oBq.s:1239   .text:00000000000006e0 .L0 
     /tmp/ccc39oBq.s:1246   .text:00000000000006e8 .L0 
     /tmp/ccc39oBq.s:1247   .text:00000000000006e8 .L0 
     /tmp/ccc39oBq.s:1252   .text:00000000000006ec .L0 
     /tmp/ccc39oBq.s:1253   .text:00000000000006ec .L0 
     /tmp/ccc39oBq.s:1256   .text:00000000000006f0 .L0 
     /tmp/ccc39oBq.s:1257   .text:00000000000006f0 .L0 
     /tmp/ccc39oBq.s:1259   .text:00000000000006f4 .L0 
     /tmp/ccc39oBq.s:1261   .text:00000000000006f8 .L0 
     /tmp/ccc39oBq.s:1263   .text:00000000000006fc .L0 
     /tmp/ccc39oBq.s:1265   .text:0000000000000700 .L0 
     /tmp/ccc39oBq.s:1267   .text:0000000000000704 .L0 
     /tmp/ccc39oBq.s:1270   .text:0000000000000708 .L0 
     /tmp/ccc39oBq.s:1272   .text:000000000000070c .L0 
     /tmp/ccc39oBq.s:1277   .text:0000000000000710 .L0 
     /tmp/ccc39oBq.s:1278   .text:0000000000000714 .L0 
     /tmp/ccc39oBq.s:1279   .text:0000000000000714 .L0 
     /tmp/ccc39oBq.s:1280   .text:0000000000000714 .L0 
     /tmp/ccc39oBq.s:1282   .text:0000000000000718 .L0 
     /tmp/ccc39oBq.s:1286   .text:000000000000071c .L0 
     /tmp/ccc39oBq.s:1288   .text:000000000000071c .L0 
     /tmp/ccc39oBq.s:1289   .text:000000000000071c .L0 
     /tmp/ccc39oBq.s:1296   .text:0000000000000724 .L0 
     /tmp/ccc39oBq.s:1297   .text:0000000000000724 .L0 
     /tmp/ccc39oBq.s:1302   .text:0000000000000728 .L0 
     /tmp/ccc39oBq.s:1303   .text:0000000000000728 .L0 
     /tmp/ccc39oBq.s:1306   .text:000000000000072c .L0 
     /tmp/ccc39oBq.s:1307   .text:000000000000072c .L0 
     /tmp/ccc39oBq.s:1309   .text:0000000000000730 .L0 
     /tmp/ccc39oBq.s:1311   .text:0000000000000734 .L0 
     /tmp/ccc39oBq.s:1313   .text:0000000000000738 .L0 
     /tmp/ccc39oBq.s:1315   .text:000000000000073c .L0 
     /tmp/ccc39oBq.s:1317   .text:0000000000000740 .L0 
     /tmp/ccc39oBq.s:1320   .text:0000000000000744 .L0 
     /tmp/ccc39oBq.s:1322   .text:0000000000000748 .L0 
     /tmp/ccc39oBq.s:1328   .text:0000000000000750 .L0 
     /tmp/ccc39oBq.s:1331   .text:0000000000000758 .L0 
     /tmp/ccc39oBq.s:1337   .text:0000000000000758 _Z19resetAllocatedIndexP6slab_si
     /tmp/ccc39oBq.s:1340   .text:0000000000000758 .L0 
     /tmp/ccc39oBq.s:1342   .text:0000000000000758 .L0 
     /tmp/ccc39oBq.s:1343   .text:000000000000075c .L0 
     /tmp/ccc39oBq.s:1345   .text:0000000000000760 .L0 
     /tmp/ccc39oBq.s:1347   .text:0000000000000764 .L0 
     /tmp/ccc39oBq.s:1349   .text:0000000000000764 .L0 
GAS LISTING /tmp/ccc39oBq.s 			page 75


     /tmp/ccc39oBq.s:1350   .text:0000000000000764 .L0 
     /tmp/ccc39oBq.s:1356   .text:0000000000000774 .L0 
     /tmp/ccc39oBq.s:1359   .text:0000000000000778 .L0 
     /tmp/ccc39oBq.s:1361   .text:000000000000077c .L0 
     /tmp/ccc39oBq.s:1364   .text:0000000000000784 .L0 
     /tmp/ccc39oBq.s:1367   .text:000000000000078c .L0 
     /tmp/ccc39oBq.s:1370   .text:0000000000000794 .L0 
     /tmp/ccc39oBq.s:1372   .text:0000000000000798 .L0 
     /tmp/ccc39oBq.s:1373   .text:000000000000079c .L0 
     /tmp/ccc39oBq.s:1374   .text:000000000000079c .L0 
     /tmp/ccc39oBq.s:1376   .text:00000000000007a0 .L0 
     /tmp/ccc39oBq.s:1378   .text:00000000000007a4 .L0 
     /tmp/ccc39oBq.s:1398   .text:00000000000007a4 _Z13printSlabInfoP6slab_s
     /tmp/ccc39oBq.s:1401   .text:00000000000007a4 .L0 
     /tmp/ccc39oBq.s:1403   .text:00000000000007a4 .L0 
     /tmp/ccc39oBq.s:1404   .text:00000000000007a8 .L0 
     /tmp/ccc39oBq.s:1408   .text:00000000000007b4 .L0 
     /tmp/ccc39oBq.s:1409   .text:00000000000007b4 .L0 
     /tmp/ccc39oBq.s:1410   .text:00000000000007b4 .L0 
     /tmp/ccc39oBq.s:1412   .text:00000000000007b8 .L0 
     /tmp/ccc39oBq.s:1415   .text:00000000000007bc .L0 
     /tmp/ccc39oBq.s:1416   .text:00000000000007bc .L0 
     /tmp/ccc39oBq.s:1421   .text:00000000000007cc .L0 
     /tmp/ccc39oBq.s:1422   .text:00000000000007cc .L0 
     /tmp/ccc39oBq.s:1428   .text:00000000000007e4 .L0 
     /tmp/ccc39oBq.s:1429   .text:00000000000007e4 .L0 
     /tmp/ccc39oBq.s:1435   .text:00000000000007fc .L0 
     /tmp/ccc39oBq.s:1436   .text:00000000000007fc .L0 
     /tmp/ccc39oBq.s:1442   .text:0000000000000814 .L0 
     /tmp/ccc39oBq.s:1443   .text:0000000000000818 .L0 
     /tmp/ccc39oBq.s:1445   .text:000000000000081c .L0 
     /tmp/ccc39oBq.s:1446   .text:000000000000081c .L0 
     /tmp/ccc39oBq.s:1448   .text:0000000000000820 .L0 
     /tmp/ccc39oBq.s:1451   .text:0000000000000824 .L0 
     /tmp/ccc39oBq.s:1453   .text:0000000000000828 .L0 
     /tmp/ccc39oBq.s:1459   .text:0000000000000828 _Z16free_slab_objectP6slab_sPKv
     /tmp/ccc39oBq.s:1462   .text:0000000000000828 .L0 
     /tmp/ccc39oBq.s:1464   .text:0000000000000828 .L0 
     /tmp/ccc39oBq.s:1465   .text:0000000000000828 .L0 
     /tmp/ccc39oBq.s:1467   .text:000000000000082c .L0 
     /tmp/ccc39oBq.s:1468   .text:0000000000000830 .L0 
     /tmp/ccc39oBq.s:1475   .text:0000000000000848 .L0 
     /tmp/ccc39oBq.s:1476   .text:0000000000000848 .L0 
     /tmp/ccc39oBq.s:1477   .text:0000000000000848 .L0 
     /tmp/ccc39oBq.s:1478   .text:0000000000000848 .L0 
     /tmp/ccc39oBq.s:1479   .text:0000000000000848 .L0 
     /tmp/ccc39oBq.s:1480   .text:0000000000000848 .L0 
     /tmp/ccc39oBq.s:1482   .text:000000000000084c .L0 
     /tmp/ccc39oBq.s:1486   .text:0000000000000854 .L0 
     /tmp/ccc39oBq.s:1488   .text:0000000000000858 .L0 
     /tmp/ccc39oBq.s:1489   .text:0000000000000858 .L0 
     /tmp/ccc39oBq.s:1492   .text:0000000000000860 .L0 
     /tmp/ccc39oBq.s:1494   .text:0000000000000864 .L0 
     /tmp/ccc39oBq.s:1496   .text:0000000000000868 .L0 
     /tmp/ccc39oBq.s:1498   .text:000000000000086c .L0 
     /tmp/ccc39oBq.s:1501   .text:0000000000000870 .L0 
     /tmp/ccc39oBq.s:1502   .text:0000000000000870 .L0 
GAS LISTING /tmp/ccc39oBq.s 			page 76


     /tmp/ccc39oBq.s:1504   .text:0000000000000874 .L0 
     /tmp/ccc39oBq.s:1507   .text:000000000000087c .L0 
     /tmp/ccc39oBq.s:1509   .text:0000000000000880 .L0 
     /tmp/ccc39oBq.s:1510   .text:0000000000000880 .L0 
     /tmp/ccc39oBq.s:1515   .text:000000000000088c .L0 
     /tmp/ccc39oBq.s:1518   .text:0000000000000890 .L0 
     /tmp/ccc39oBq.s:1519   .text:0000000000000890 .L0 
     /tmp/ccc39oBq.s:1520   .text:0000000000000890 .L0 
     /tmp/ccc39oBq.s:1522   .text:0000000000000894 .L0 
     /tmp/ccc39oBq.s:1524   .text:0000000000000898 .L0 
     /tmp/ccc39oBq.s:1525   .text:0000000000000898 .L0 
     /tmp/ccc39oBq.s:1530   .text:00000000000008a0 .L0 
     /tmp/ccc39oBq.s:1531   .text:00000000000008a0 .L0 
     /tmp/ccc39oBq.s:1533   .text:00000000000008a4 .L0 
     /tmp/ccc39oBq.s:1535   .text:00000000000008a8 .L0 
     /tmp/ccc39oBq.s:1536   .text:00000000000008a8 .L0 
     /tmp/ccc39oBq.s:1541   .text:00000000000008b0 .L0 
     /tmp/ccc39oBq.s:1542   .text:00000000000008b0 .L0 
     /tmp/ccc39oBq.s:1547   .text:00000000000008c0 .L0 
     /tmp/ccc39oBq.s:1548   .text:00000000000008c0 .L0 
     /tmp/ccc39oBq.s:1550   .text:00000000000008c4 .L0 
     /tmp/ccc39oBq.s:1552   .text:00000000000008c8 .L0 
     /tmp/ccc39oBq.s:1554   .text:00000000000008cc .L0 
     /tmp/ccc39oBq.s:1557   .text:00000000000008d4 .L0 
     /tmp/ccc39oBq.s:1558   .text:00000000000008d4 .L0 
     /tmp/ccc39oBq.s:1563   .text:00000000000008dc .L0 
     /tmp/ccc39oBq.s:1564   .text:00000000000008e0 .L0 
     /tmp/ccc39oBq.s:1565   .text:00000000000008e0 .L0 
     /tmp/ccc39oBq.s:1567   .text:00000000000008e4 .L0 
     /tmp/ccc39oBq.s:1568   .text:00000000000008e4 .L0 
     /tmp/ccc39oBq.s:1570   .text:00000000000008e8 .L0 
     /tmp/ccc39oBq.s:1573   .text:00000000000008ec .L0 
     /tmp/ccc39oBq.s:1575   .text:00000000000008f0 .L0 
     /tmp/ccc39oBq.s:1578   .text:00000000000008f4 .L0 
     /tmp/ccc39oBq.s:1580   .text:00000000000008f8 .L0 
     /tmp/ccc39oBq.s:1584   .text:00000000000008fc .L0 
     /tmp/ccc39oBq.s:1586   .text:00000000000008fc .L0 
     /tmp/ccc39oBq.s:1587   .text:00000000000008fc .L0 
     /tmp/ccc39oBq.s:1592   .text:000000000000090c .L0 
     /tmp/ccc39oBq.s:1593   .text:000000000000090c .L0 
     /tmp/ccc39oBq.s:1595   .text:0000000000000910 .L0 
     /tmp/ccc39oBq.s:1598   .text:0000000000000918 .L0 
     /tmp/ccc39oBq.s:1599   .text:0000000000000918 .L0 
     /tmp/ccc39oBq.s:1603   .text:0000000000000924 .L0 
     /tmp/ccc39oBq.s:1605   .text:0000000000000928 .L0 
     /tmp/ccc39oBq.s:1606   .text:0000000000000928 .L0 
     /tmp/ccc39oBq.s:1613   .text:000000000000093c .L0 
     /tmp/ccc39oBq.s:1614   .text:000000000000093c .L0 
     /tmp/ccc39oBq.s:1619   .text:000000000000094c .L0 
     /tmp/ccc39oBq.s:1620   .text:000000000000094c .L0 
     /tmp/ccc39oBq.s:1622   .text:0000000000000950 .L0 
     /tmp/ccc39oBq.s:1627   .text:000000000000095c .L0 
     /tmp/ccc39oBq.s:1628   .text:000000000000095c .L0 
     /tmp/ccc39oBq.s:1629   .text:000000000000095c .L0 
     /tmp/ccc39oBq.s:1630   .text:000000000000095c .L0 
     /tmp/ccc39oBq.s:1631   .text:000000000000095c .L0 
     /tmp/ccc39oBq.s:1632   .text:000000000000095c .L0 
GAS LISTING /tmp/ccc39oBq.s 			page 77


     /tmp/ccc39oBq.s:1633   .text:000000000000095c .L0 
     /tmp/ccc39oBq.s:1635   .text:0000000000000960 .L0 
     /tmp/ccc39oBq.s:1641   .text:0000000000000960 _Z9kmem_initPvi
     /tmp/ccc39oBq.s:1644   .text:0000000000000960 .L0 
     /tmp/ccc39oBq.s:1646   .text:0000000000000960 .L0 
     /tmp/ccc39oBq.s:1647   .text:0000000000000964 .L0 
     /tmp/ccc39oBq.s:1650   .text:000000000000096c .L0 
     /tmp/ccc39oBq.s:1651   .text:000000000000096c .L0 
     /tmp/ccc39oBq.s:1653   .text:0000000000000970 .L0 
     /tmp/ccc39oBq.s:1655   .text:0000000000000970 .L0 
     /tmp/ccc39oBq.s:1656   .text:0000000000000970 .L0 
     /tmp/ccc39oBq.s:1659   .text:0000000000000978 .L0 
     /tmp/ccc39oBq.s:1660   .text:0000000000000978 .L0 
     /tmp/ccc39oBq.s:1663   .text:0000000000000980 .L0 
     /tmp/ccc39oBq.s:1665   .text:0000000000000988 .L0 
     /tmp/ccc39oBq.s:1666   .text:000000000000098c .L0 
     /tmp/ccc39oBq.s:1668   .text:0000000000000990 .L0 
     /tmp/ccc39oBq.s:1669   .text:0000000000000990 .L0 
     /tmp/ccc39oBq.s:1671   .text:0000000000000994 .L0 
     /tmp/ccc39oBq.s:1673   .text:0000000000000998 .L0 
     /tmp/ccc39oBq.s:1679   .text:0000000000000998 _Z16kmem_cache_allocP12kmem_cache_s
     /tmp/ccc39oBq.s:1682   .text:0000000000000998 .L0 
     /tmp/ccc39oBq.s:1684   .text:0000000000000998 .L0 
     /tmp/ccc39oBq.s:1685   .text:000000000000099c .L0 
     /tmp/ccc39oBq.s:1690   .text:00000000000009ac .L0 
     /tmp/ccc39oBq.s:1691   .text:00000000000009ac .L0 
     /tmp/ccc39oBq.s:1692   .text:00000000000009ac .L0 
     /tmp/ccc39oBq.s:1693   .text:00000000000009ac .L0 
     /tmp/ccc39oBq.s:1695   .text:00000000000009b0 .L0 
     /tmp/ccc39oBq.s:1698   .text:00000000000009b4 .L0 
     /tmp/ccc39oBq.s:1701   .text:00000000000009b8 .L0 
     /tmp/ccc39oBq.s:1702   .text:00000000000009b8 .L0 
     /tmp/ccc39oBq.s:1705   .text:00000000000009bc .L0 
     /tmp/ccc39oBq.s:1710   .text:00000000000009c0 .L0 
     /tmp/ccc39oBq.s:1711   .text:00000000000009c0 .L0 
     /tmp/ccc39oBq.s:1713   .text:00000000000009c4 .L0 
     /tmp/ccc39oBq.s:1716   .text:00000000000009c8 .L0 
     /tmp/ccc39oBq.s:1717   .text:00000000000009c8 .L0 
     /tmp/ccc39oBq.s:1722   .text:00000000000009d4 .L0 
     /tmp/ccc39oBq.s:1723   .text:00000000000009d4 .L0 
     /tmp/ccc39oBq.s:1728   .text:00000000000009e0 .L0 
     /tmp/ccc39oBq.s:1730   .text:00000000000009e4 .L0 
     /tmp/ccc39oBq.s:1731   .text:00000000000009e4 .L0 
     /tmp/ccc39oBq.s:1735   .text:00000000000009f0 .L0 
     /tmp/ccc39oBq.s:1736   .text:00000000000009f0 .L0 
     /tmp/ccc39oBq.s:1740   .text:00000000000009fc .L0 
     /tmp/ccc39oBq.s:1742   .text:0000000000000a00 .L0 
     /tmp/ccc39oBq.s:1743   .text:0000000000000a00 .L0 
     /tmp/ccc39oBq.s:1747   .text:0000000000000a0c .L0 
     /tmp/ccc39oBq.s:1748   .text:0000000000000a0c .L0 
     /tmp/ccc39oBq.s:1755   .text:0000000000000a10 .L0 
     /tmp/ccc39oBq.s:1756   .text:0000000000000a10 .L0 
     /tmp/ccc39oBq.s:1761   .text:0000000000000a1c .L0 
     /tmp/ccc39oBq.s:1762   .text:0000000000000a1c .L0 
     /tmp/ccc39oBq.s:1767   .text:0000000000000a28 .L0 
     /tmp/ccc39oBq.s:1773   .text:0000000000000a2c .L0 
     /tmp/ccc39oBq.s:1775   .text:0000000000000a34 .L0 
GAS LISTING /tmp/ccc39oBq.s 			page 78


     /tmp/ccc39oBq.s:1776   .text:0000000000000a34 .L0 
     /tmp/ccc39oBq.s:1778   .text:0000000000000a38 .L0 
     /tmp/ccc39oBq.s:1779   .text:0000000000000a38 .L0 
     /tmp/ccc39oBq.s:1781   .text:0000000000000a3c .L0 
     /tmp/ccc39oBq.s:1784   .text:0000000000000a40 .L0 
     /tmp/ccc39oBq.s:1786   .text:0000000000000a44 .L0 
     /tmp/ccc39oBq.s:1790   .text:0000000000000a48 .L0 
     /tmp/ccc39oBq.s:1794   .text:0000000000000a48 .L0 
     /tmp/ccc39oBq.s:1795   .text:0000000000000a48 .L0 
     /tmp/ccc39oBq.s:1799   .text:0000000000000a54 .L0 
     /tmp/ccc39oBq.s:1800   .text:0000000000000a54 .L0 
     /tmp/ccc39oBq.s:1807   .text:0000000000000a58 .L0 
     /tmp/ccc39oBq.s:1808   .text:0000000000000a58 .L0 
     /tmp/ccc39oBq.s:1812   .text:0000000000000a64 .L0 
     /tmp/ccc39oBq.s:1813   .text:0000000000000a64 .L0 
     /tmp/ccc39oBq.s:1815   .text:0000000000000a68 .L0 
     /tmp/ccc39oBq.s:1817   .text:0000000000000a6c .L0 
     /tmp/ccc39oBq.s:1818   .text:0000000000000a6c .L0 
     /tmp/ccc39oBq.s:1824   .text:0000000000000a7c .L0 
     /tmp/ccc39oBq.s:1825   .text:0000000000000a7c .L0 
     /tmp/ccc39oBq.s:1830   .text:0000000000000a88 .L0 
     /tmp/ccc39oBq.s:1832   .text:0000000000000a8c .L0 
     /tmp/ccc39oBq.s:1833   .text:0000000000000a8c .L0 
     /tmp/ccc39oBq.s:1837   .text:0000000000000a98 .L0 
     /tmp/ccc39oBq.s:1838   .text:0000000000000a98 .L0 
     /tmp/ccc39oBq.s:1842   .text:0000000000000aa4 .L0 
     /tmp/ccc39oBq.s:1844   .text:0000000000000aa8 .L0 
     /tmp/ccc39oBq.s:1845   .text:0000000000000aa8 .L0 
     /tmp/ccc39oBq.s:1849   .text:0000000000000ab4 .L0 
     /tmp/ccc39oBq.s:1850   .text:0000000000000ab4 .L0 
     /tmp/ccc39oBq.s:1854   .text:0000000000000ab8 .L0 
     /tmp/ccc39oBq.s:1855   .text:0000000000000ab8 .L0 
     /tmp/ccc39oBq.s:1859   .text:0000000000000ac4 .L0 
     /tmp/ccc39oBq.s:1860   .text:0000000000000ac4 .L0 
     /tmp/ccc39oBq.s:1866   .text:0000000000000ac8 .L0 
     /tmp/ccc39oBq.s:1868   .text:0000000000000ad0 .L0 
     /tmp/ccc39oBq.s:1874   .text:0000000000000ad0 _Z17kmem_cache_createPKcmPFvPvES3_
     /tmp/ccc39oBq.s:1877   .text:0000000000000ad0 .L0 
     /tmp/ccc39oBq.s:1879   .text:0000000000000ad0 .L0 
     /tmp/ccc39oBq.s:1880   .text:0000000000000ad4 .L0 
     /tmp/ccc39oBq.s:1888   .text:0000000000000af0 .L0 
     /tmp/ccc39oBq.s:1889   .text:0000000000000af0 .L0 
     /tmp/ccc39oBq.s:1890   .text:0000000000000af0 .L0 
     /tmp/ccc39oBq.s:1891   .text:0000000000000af0 .L0 
     /tmp/ccc39oBq.s:1892   .text:0000000000000af0 .L0 
     /tmp/ccc39oBq.s:1893   .text:0000000000000af0 .L0 
     /tmp/ccc39oBq.s:1894   .text:0000000000000af0 .L0 
     /tmp/ccc39oBq.s:1896   .text:0000000000000af4 .L0 
     /tmp/ccc39oBq.s:1902   .text:0000000000000b04 .L0 
     /tmp/ccc39oBq.s:1903   .text:0000000000000b04 .L0 
     /tmp/ccc39oBq.s:1911   .text:0000000000000b1c .L0 
     /tmp/ccc39oBq.s:1913   .text:0000000000000b20 .L0 
     /tmp/ccc39oBq.s:1914   .text:0000000000000b20 .L0 
     /tmp/ccc39oBq.s:1927   .text:0000000000000b4c .L0 
     /tmp/ccc39oBq.s:1928   .text:0000000000000b4c .L0 
     /tmp/ccc39oBq.s:1930   .text:0000000000000b54 .L0 
     /tmp/ccc39oBq.s:1932   .text:0000000000000b58 .L0 
GAS LISTING /tmp/ccc39oBq.s 			page 79


     /tmp/ccc39oBq.s:1933   .text:0000000000000b58 .L0 
     /tmp/ccc39oBq.s:1935   .text:0000000000000b5c .L0 
     /tmp/ccc39oBq.s:1938   .text:0000000000000b60 .L0 
     /tmp/ccc39oBq.s:1941   .text:0000000000000b64 .L0 
     /tmp/ccc39oBq.s:1944   .text:0000000000000b68 .L0 
     /tmp/ccc39oBq.s:1947   .text:0000000000000b6c .L0 
     /tmp/ccc39oBq.s:1950   .text:0000000000000b70 .L0 
     /tmp/ccc39oBq.s:1952   .text:0000000000000b74 .L0 
     /tmp/ccc39oBq.s:1958   .text:0000000000000b74 _Z15kmem_cache_freeP12kmem_cache_sPv
     /tmp/ccc39oBq.s:1961   .text:0000000000000b74 .L0 
     /tmp/ccc39oBq.s:1963   .text:0000000000000b74 .L0 
     /tmp/ccc39oBq.s:1964   .text:0000000000000b74 .L0 
     /tmp/ccc39oBq.s:1966   .text:0000000000000b78 .L0 
     /tmp/ccc39oBq.s:1967   .text:0000000000000b7c .L0 
     /tmp/ccc39oBq.s:1971   .text:0000000000000b88 .L0 
     /tmp/ccc39oBq.s:1972   .text:0000000000000b88 .L0 
     /tmp/ccc39oBq.s:1973   .text:0000000000000b88 .L0 
     /tmp/ccc39oBq.s:1975   .text:0000000000000b8c .L0 
     /tmp/ccc39oBq.s:1978   .text:0000000000000b90 .L0 
     /tmp/ccc39oBq.s:1980   .text:0000000000000b94 .L0 
     /tmp/ccc39oBq.s:1981   .text:0000000000000b94 .L0 
     /tmp/ccc39oBq.s:1984   .text:0000000000000b9c .L0 
     /tmp/ccc39oBq.s:1986   .text:0000000000000ba0 .L0 
     /tmp/ccc39oBq.s:1987   .text:0000000000000ba0 .L0 
     /tmp/ccc39oBq.s:1992   .text:0000000000000bac .L0 
     /tmp/ccc39oBq.s:1993   .text:0000000000000bb0 .L0 
     /tmp/ccc39oBq.s:1995   .text:0000000000000bb4 .L0 
     /tmp/ccc39oBq.s:1996   .text:0000000000000bb4 .L0 
     /tmp/ccc39oBq.s:1998   .text:0000000000000bb8 .L0 
     /tmp/ccc39oBq.s:2001   .text:0000000000000bbc .L0 
     /tmp/ccc39oBq.s:2006   .text:0000000000000bc4 .L0 
     /tmp/ccc39oBq.s:2044   .text:0000000000000bc4 _Z15kmem_cache_infoP12kmem_cache_s
     /tmp/ccc39oBq.s:2047   .text:0000000000000bc4 .L0 
     /tmp/ccc39oBq.s:2049   .text:0000000000000bc4 .L0 
     /tmp/ccc39oBq.s:2050   .text:0000000000000bc4 .L0 
     /tmp/ccc39oBq.s:2052   .text:0000000000000bc8 .L0 
     /tmp/ccc39oBq.s:2053   .text:0000000000000bcc .L0 
     /tmp/ccc39oBq.s:2058   .text:0000000000000bdc .L0 
     /tmp/ccc39oBq.s:2059   .text:0000000000000bdc .L0 
     /tmp/ccc39oBq.s:2060   .text:0000000000000bdc .L0 
     /tmp/ccc39oBq.s:2061   .text:0000000000000bdc .L0 
     /tmp/ccc39oBq.s:2063   .text:0000000000000be0 .L0 
     /tmp/ccc39oBq.s:2066   .text:0000000000000be4 .L0 
     /tmp/ccc39oBq.s:2067   .text:0000000000000be4 .L0 
     /tmp/ccc39oBq.s:2072   .text:0000000000000bf4 .L0 
     /tmp/ccc39oBq.s:2073   .text:0000000000000bf4 .L0 
     /tmp/ccc39oBq.s:2077   .text:0000000000000c04 .L0 
     /tmp/ccc39oBq.s:2078   .text:0000000000000c04 .L0 
     /tmp/ccc39oBq.s:2082   .text:0000000000000c14 .L0 
     /tmp/ccc39oBq.s:2083   .text:0000000000000c14 .L0 
     /tmp/ccc39oBq.s:2087   .text:0000000000000c20 .L0 
     /tmp/ccc39oBq.s:2088   .text:0000000000000c20 .L0 
     /tmp/ccc39oBq.s:2092   .text:0000000000000c30 .L0 
     /tmp/ccc39oBq.s:2093   .text:0000000000000c30 .L0 
     /tmp/ccc39oBq.s:2099   .text:0000000000000c48 .L0 
     /tmp/ccc39oBq.s:2100   .text:0000000000000c48 .L0 
     /tmp/ccc39oBq.s:2106   .text:0000000000000c60 .L0 
GAS LISTING /tmp/ccc39oBq.s 			page 80


     /tmp/ccc39oBq.s:2107   .text:0000000000000c60 .L0 
     /tmp/ccc39oBq.s:2111   .text:0000000000000c70 .L0 
     /tmp/ccc39oBq.s:2112   .text:0000000000000c70 .L0 
     /tmp/ccc39oBq.s:2116   .text:0000000000000c80 .L0 
     /tmp/ccc39oBq.s:2117   .text:0000000000000c80 .L0 
     /tmp/ccc39oBq.s:2121   .text:0000000000000c84 .L0 
     /tmp/ccc39oBq.s:2122   .text:0000000000000c84 .L0 
     /tmp/ccc39oBq.s:2124   .text:0000000000000c88 .L0 
     /tmp/ccc39oBq.s:2125   .text:0000000000000c88 .L0 
     /tmp/ccc39oBq.s:2129   .text:0000000000000c94 .L0 
     /tmp/ccc39oBq.s:2130   .text:0000000000000c94 .L0 
     /tmp/ccc39oBq.s:2133   .text:0000000000000c98 .L0 
     /tmp/ccc39oBq.s:2136   .text:0000000000000c9c .L0 
     /tmp/ccc39oBq.s:2137   .text:0000000000000c9c .L0 
     /tmp/ccc39oBq.s:2141   .text:0000000000000cac .L0 
     /tmp/ccc39oBq.s:2142   .text:0000000000000cac .L0 
     /tmp/ccc39oBq.s:2146   .text:0000000000000cb0 .L0 
     /tmp/ccc39oBq.s:2147   .text:0000000000000cb0 .L0 
     /tmp/ccc39oBq.s:2149   .text:0000000000000cb4 .L0 
     /tmp/ccc39oBq.s:2150   .text:0000000000000cb4 .L0 
     /tmp/ccc39oBq.s:2154   .text:0000000000000cc0 .L0 
     /tmp/ccc39oBq.s:2155   .text:0000000000000cc0 .L0 
     /tmp/ccc39oBq.s:2158   .text:0000000000000cc4 .L0 
     /tmp/ccc39oBq.s:2161   .text:0000000000000cc8 .L0 
     /tmp/ccc39oBq.s:2162   .text:0000000000000cc8 .L0 
     /tmp/ccc39oBq.s:2166   .text:0000000000000cd8 .L0 
     /tmp/ccc39oBq.s:2167   .text:0000000000000cd8 .L0 
     /tmp/ccc39oBq.s:2171   .text:0000000000000cdc .L0 
     /tmp/ccc39oBq.s:2172   .text:0000000000000cdc .L0 
     /tmp/ccc39oBq.s:2174   .text:0000000000000ce0 .L0 
     /tmp/ccc39oBq.s:2175   .text:0000000000000ce0 .L0 
     /tmp/ccc39oBq.s:2179   .text:0000000000000cec .L0 
     /tmp/ccc39oBq.s:2180   .text:0000000000000cec .L0 
     /tmp/ccc39oBq.s:2183   .text:0000000000000cf0 .L0 
     /tmp/ccc39oBq.s:2186   .text:0000000000000cf4 .L0 
     /tmp/ccc39oBq.s:2187   .text:0000000000000cf4 .L0 
     /tmp/ccc39oBq.s:2191   .text:0000000000000d04 .L0 
     /tmp/ccc39oBq.s:2192   .text:0000000000000d08 .L0 
     /tmp/ccc39oBq.s:2194   .text:0000000000000d0c .L0 
     /tmp/ccc39oBq.s:2195   .text:0000000000000d0c .L0 
     /tmp/ccc39oBq.s:2197   .text:0000000000000d10 .L0 
     /tmp/ccc39oBq.s:2200   .text:0000000000000d14 .L0 
     /tmp/ccc39oBq.s:2203   .text:0000000000000d18 .L0 
     /tmp/ccc39oBq.s:2208   .text:0000000000000d20 .L0 
     /tmp/ccc39oBq.s:2231   .text:0000000000000d20 _Z22printSlabAllocatorInfov
     /tmp/ccc39oBq.s:2234   .text:0000000000000d20 .L0 
     /tmp/ccc39oBq.s:2235   .text:0000000000000d20 .L0 
     /tmp/ccc39oBq.s:2236   .text:0000000000000d24 .L0 
     /tmp/ccc39oBq.s:2240   .text:0000000000000d30 .L0 
     /tmp/ccc39oBq.s:2241   .text:0000000000000d30 .L0 
     /tmp/ccc39oBq.s:2242   .text:0000000000000d30 .L0 
     /tmp/ccc39oBq.s:2244   .text:0000000000000d34 .L0 
     /tmp/ccc39oBq.s:2246   .text:0000000000000d34 .L0 
     /tmp/ccc39oBq.s:2247   .text:0000000000000d34 .L0 
     /tmp/ccc39oBq.s:2251   .text:0000000000000d44 .L0 
     /tmp/ccc39oBq.s:2252   .text:0000000000000d44 .L0 
     /tmp/ccc39oBq.s:2256   .text:0000000000000d54 .L0 
GAS LISTING /tmp/ccc39oBq.s 			page 81


     /tmp/ccc39oBq.s:2257   .text:0000000000000d54 .L0 
     /tmp/ccc39oBq.s:2264   .text:0000000000000d74 .L0 
     /tmp/ccc39oBq.s:2265   .text:0000000000000d74 .L0 
     /tmp/ccc39oBq.s:2269   .text:0000000000000d84 .L0 
     /tmp/ccc39oBq.s:2270   .text:0000000000000d84 .L0 
     /tmp/ccc39oBq.s:2272   .text:0000000000000d88 .L0 
     /tmp/ccc39oBq.s:2276   .text:0000000000000d94 .L0 
     /tmp/ccc39oBq.s:2277   .text:0000000000000d94 .L0 
     /tmp/ccc39oBq.s:2282   .text:0000000000000da4 .L0 
     /tmp/ccc39oBq.s:2283   .text:0000000000000da4 .L0 
     /tmp/ccc39oBq.s:2288   .text:0000000000000dac .L0 
     /tmp/ccc39oBq.s:2289   .text:0000000000000dac .L0 
     /tmp/ccc39oBq.s:2293   .text:0000000000000db4 .L0 
     /tmp/ccc39oBq.s:2297   .text:0000000000000db8 .L0 
     /tmp/ccc39oBq.s:2300   .text:0000000000000dc0 .L0 
     /tmp/ccc39oBq.s:2301   .text:0000000000000dc0 .L0 
     /tmp/ccc39oBq.s:2306   .text:0000000000000dd4 .L0 
     /tmp/ccc39oBq.s:2311   .text:0000000000000ddc .L0 
     /tmp/ccc39oBq.s:2312   .text:0000000000000ddc .L0 
     /tmp/ccc39oBq.s:2316   .text:0000000000000dec .L0 
     /tmp/ccc39oBq.s:2317   .text:0000000000000dec .L0 
     /tmp/ccc39oBq.s:2320   .text:0000000000000df4 .L0 
     /tmp/ccc39oBq.s:2321   .text:0000000000000df8 .L0 
     /tmp/ccc39oBq.s:2323   .text:0000000000000dfc .L0 
     /tmp/ccc39oBq.s:2324   .text:0000000000000dfc .L0 
     /tmp/ccc39oBq.s:2326   .text:0000000000000e00 .L0 
     /tmp/ccc39oBq.s:2329   .text:0000000000000e04 .L0 
     /tmp/ccc39oBq.s:2331   .text:0000000000000e08 .L0 
     /tmp/ccc39oBq.s:2342   .text:0000000000000e08 _Z7kmallocm
     /tmp/ccc39oBq.s:2345   .text:0000000000000e08 .L0 
     /tmp/ccc39oBq.s:2347   .text:0000000000000e08 .L0 
     /tmp/ccc39oBq.s:2348   .text:0000000000000e0c .L0 
     /tmp/ccc39oBq.s:2354   .text:0000000000000e20 .L0 
     /tmp/ccc39oBq.s:2355   .text:0000000000000e20 .L0 
     /tmp/ccc39oBq.s:2356   .text:0000000000000e20 .L0 
     /tmp/ccc39oBq.s:2357   .text:0000000000000e20 .L0 
     /tmp/ccc39oBq.s:2358   .text:0000000000000e20 .L0 
     /tmp/ccc39oBq.s:2360   .text:0000000000000e24 .L0 
     /tmp/ccc39oBq.s:2362   .text:0000000000000e24 .L0 
     /tmp/ccc39oBq.s:2363   .text:0000000000000e24 .L0 
     /tmp/ccc39oBq.s:2366   .text:0000000000000e2c .L0 
     /tmp/ccc39oBq.s:2369   .text:0000000000000e34 .L0 
     /tmp/ccc39oBq.s:2372   .text:0000000000000e3c .L0 
     /tmp/ccc39oBq.s:2376   .text:0000000000000e44 .L0 
     /tmp/ccc39oBq.s:2380   .text:0000000000000e48 .L0 
     /tmp/ccc39oBq.s:2381   .text:0000000000000e48 .L0 
     /tmp/ccc39oBq.s:2385   .text:0000000000000e50 .L0 
     /tmp/ccc39oBq.s:2386   .text:0000000000000e50 .L0 
     /tmp/ccc39oBq.s:2389   .text:0000000000000e54 .L0 
     /tmp/ccc39oBq.s:2390   .text:0000000000000e54 .L0 
     /tmp/ccc39oBq.s:2395   .text:0000000000000e68 .L0 
     /tmp/ccc39oBq.s:2398   .text:0000000000000e6c .L0 
     /tmp/ccc39oBq.s:2399   .text:0000000000000e6c .L0 
     /tmp/ccc39oBq.s:2410   .text:0000000000000e8c .L0 
     /tmp/ccc39oBq.s:2412   .text:0000000000000e94 .L0 
     /tmp/ccc39oBq.s:2413   .text:0000000000000e94 .L0 
     /tmp/ccc39oBq.s:2415   .text:0000000000000e98 .L0 
GAS LISTING /tmp/ccc39oBq.s 			page 82


     /tmp/ccc39oBq.s:2416   .text:0000000000000e98 .L0 
     /tmp/ccc39oBq.s:2418   .text:0000000000000e9c .L0 
     /tmp/ccc39oBq.s:2420   .text:0000000000000ea0 .L0 
     /tmp/ccc39oBq.s:2422   .text:0000000000000ea4 .L0 
     /tmp/ccc39oBq.s:2424   .text:0000000000000ea8 .L0 
     /tmp/ccc39oBq.s:2428   .text:0000000000000eac .L0 
     /tmp/ccc39oBq.s:2430   .text:0000000000000eac .L0 
     /tmp/ccc39oBq.s:2431   .text:0000000000000eac .L0 
     /tmp/ccc39oBq.s:2435   .text:0000000000000eb8 .L0 
     /tmp/ccc39oBq.s:2439   .text:0000000000000ec4 .L0 
     /tmp/ccc39oBq.s:2440   .text:0000000000000ec4 .L0 
     /tmp/ccc39oBq.s:2444   .text:0000000000000ed4 .L0 
     /tmp/ccc39oBq.s:2446   .text:0000000000000ed8 .L0 
     /tmp/ccc39oBq.s:2447   .text:0000000000000ed8 .L0 
     /tmp/ccc39oBq.s:2459   .text:0000000000000f0c .L0 
     /tmp/ccc39oBq.s:2465   .text:0000000000000f0c _Z5kfreePKv
     /tmp/ccc39oBq.s:2468   .text:0000000000000f0c .L0 
     /tmp/ccc39oBq.s:2470   .text:0000000000000f0c .L0 
     /tmp/ccc39oBq.s:2471   .text:0000000000000f0c .L0 
     /tmp/ccc39oBq.s:2473   .text:0000000000000f10 .L0 
     /tmp/ccc39oBq.s:2474   .text:0000000000000f14 .L0 
     /tmp/ccc39oBq.s:2479   .text:0000000000000f24 .L0 
     /tmp/ccc39oBq.s:2480   .text:0000000000000f24 .L0 
     /tmp/ccc39oBq.s:2481   .text:0000000000000f24 .L0 
     /tmp/ccc39oBq.s:2482   .text:0000000000000f24 .L0 
     /tmp/ccc39oBq.s:2484   .text:0000000000000f28 .L0 
     /tmp/ccc39oBq.s:2488   .text:0000000000000f2c .L0 
     /tmp/ccc39oBq.s:2491   .text:0000000000000f30 .L0 
     /tmp/ccc39oBq.s:2496   .text:0000000000000f34 .L0 
     /tmp/ccc39oBq.s:2499   .text:0000000000000f3c .L0 
     /tmp/ccc39oBq.s:2500   .text:0000000000000f3c .L0 
     /tmp/ccc39oBq.s:2509   .text:0000000000000f5c .L0 
     /tmp/ccc39oBq.s:2511   .text:0000000000000f60 .L0 
     /tmp/ccc39oBq.s:2517   .text:0000000000000f68 .L0 
     /tmp/ccc39oBq.s:2519   .text:0000000000000f6c .L0 
     /tmp/ccc39oBq.s:2520   .text:0000000000000f6c .L0 
     /tmp/ccc39oBq.s:2525   .text:0000000000000f78 .L0 
     /tmp/ccc39oBq.s:2526   .text:0000000000000f7c .L0 
     /tmp/ccc39oBq.s:2528   .text:0000000000000f80 .L0 
     /tmp/ccc39oBq.s:2529   .text:0000000000000f80 .L0 
     /tmp/ccc39oBq.s:2531   .text:0000000000000f84 .L0 
     /tmp/ccc39oBq.s:2534   .text:0000000000000f88 .L0 
     /tmp/ccc39oBq.s:2537   .text:0000000000000f8c .L0 
     /tmp/ccc39oBq.s:2542   .text:0000000000000f94 .L0 
     /tmp/ccc39oBq.s:2548   .text:0000000000000f94 _Z18kmem_cache_destroyP12kmem_cache_s
     /tmp/ccc39oBq.s:2551   .text:0000000000000f94 .L0 
     /tmp/ccc39oBq.s:2553   .text:0000000000000f94 .L0 
     /tmp/ccc39oBq.s:2554   .text:0000000000000f98 .L0 
     /tmp/ccc39oBq.s:2558   .text:0000000000000fa4 .L0 
     /tmp/ccc39oBq.s:2559   .text:0000000000000fa4 .L0 
     /tmp/ccc39oBq.s:2560   .text:0000000000000fa4 .L0 
     /tmp/ccc39oBq.s:2562   .text:0000000000000fa8 .L0 
     /tmp/ccc39oBq.s:2565   .text:0000000000000fac .L0 
     /tmp/ccc39oBq.s:2566   .text:0000000000000fac .L0 
     /tmp/ccc39oBq.s:2568   .text:0000000000000fb0 .L0 
     /tmp/ccc39oBq.s:2571   .text:0000000000000fb4 .L0 
     /tmp/ccc39oBq.s:2572   .text:0000000000000fb4 .L0 
GAS LISTING /tmp/ccc39oBq.s 			page 83


     /tmp/ccc39oBq.s:2578   .text:0000000000000fc0 .L0 
     /tmp/ccc39oBq.s:2579   .text:0000000000000fc0 .L0 
     /tmp/ccc39oBq.s:2580   .text:0000000000000fc4 .L0 
     /tmp/ccc39oBq.s:2581   .text:0000000000000fc4 .L0 
     /tmp/ccc39oBq.s:2583   .text:0000000000000fc8 .L0 
     /tmp/ccc39oBq.s:2584   .text:0000000000000fc8 .L0 
     /tmp/ccc39oBq.s:2586   .text:0000000000000fcc .L0 
     /tmp/ccc39oBq.s:2589   .text:0000000000000fd0 .L0 
     /tmp/ccc39oBq.s:2593   .text:0000000000000fd4 .L0 
     /tmp/ccc39oBq.s:2595   .text:0000000000000fd4 .L0 
     /tmp/ccc39oBq.s:2597   .text:0000000000000fd8 .L0 
     /tmp/ccc39oBq.s:2599   .text:0000000000000fdc .L0 
     /tmp/ccc39oBq.s:2600   .text:0000000000000fdc .L0 
     /tmp/ccc39oBq.s:2604   .text:0000000000000fe8 .L0 
     /tmp/ccc39oBq.s:2605   .text:0000000000000fe8 .L0 
     /tmp/ccc39oBq.s:2609   .text:0000000000000ff4 .L0 
     /tmp/ccc39oBq.s:2610   .text:0000000000000ff4 .L0 
     /tmp/ccc39oBq.s:2614   .text:0000000000001000 .L0 
     /tmp/ccc39oBq.s:2615   .text:0000000000001000 .L0 
     /tmp/ccc39oBq.s:2621   .text:000000000000101c .L0 
     /tmp/ccc39oBq.s:2627   .text:000000000000101c _Z17kmem_cache_shrinkP12kmem_cache_s
     /tmp/ccc39oBq.s:2630   .text:000000000000101c .L0 
     /tmp/ccc39oBq.s:2632   .text:000000000000101c .L0 
     /tmp/ccc39oBq.s:2633   .text:000000000000101c .L0 
     /tmp/ccc39oBq.s:2635   .text:0000000000001020 .L0 
     /tmp/ccc39oBq.s:2636   .text:0000000000001024 .L0 
     /tmp/ccc39oBq.s:2639   .text:000000000000102c .L0 
     /tmp/ccc39oBq.s:2640   .text:000000000000102c .L0 
     /tmp/ccc39oBq.s:2642   .text:0000000000001030 .L0 
     /tmp/ccc39oBq.s:2644   .text:0000000000001030 .L0 
     /tmp/ccc39oBq.s:2645   .text:0000000000001030 .L0 
     /tmp/ccc39oBq.s:2650   .text:000000000000103c .L0 
     /tmp/ccc39oBq.s:2651   .text:000000000000103c .L0 
     /tmp/ccc39oBq.s:2652   .text:0000000000001040 .L0 
     /tmp/ccc39oBq.s:2654   .text:0000000000001044 .L0 
     /tmp/ccc39oBq.s:2655   .text:0000000000001044 .L0 
     /tmp/ccc39oBq.s:2657   .text:0000000000001048 .L0 
     /tmp/ccc39oBq.s:2662   .text:000000000000104c .L0 
     /tmp/ccc39oBq.s:2665   .text:0000000000001050 .L0 
     /tmp/ccc39oBq.s:2666   .text:0000000000001054 .L0 
     /tmp/ccc39oBq.s:2680   .text:0000000000001054 _Z16kmem_cache_errorP12kmem_cache_s
     /tmp/ccc39oBq.s:2683   .text:0000000000001054 .L0 
     /tmp/ccc39oBq.s:2685   .text:0000000000001054 .L0 
     /tmp/ccc39oBq.s:2686   .text:0000000000001054 .L0 
     /tmp/ccc39oBq.s:2688   .text:0000000000001058 .L0 
     /tmp/ccc39oBq.s:2689   .text:000000000000105c .L0 
     /tmp/ccc39oBq.s:2693   .text:0000000000001068 .L0 
     /tmp/ccc39oBq.s:2694   .text:0000000000001068 .L0 
     /tmp/ccc39oBq.s:2695   .text:0000000000001068 .L0 
     /tmp/ccc39oBq.s:2697   .text:000000000000106c .L0 
     /tmp/ccc39oBq.s:2700   .text:0000000000001070 .L0 
     /tmp/ccc39oBq.s:2701   .text:0000000000001070 .L0 
     /tmp/ccc39oBq.s:2703   .text:0000000000001074 .L0 
     /tmp/ccc39oBq.s:2705   .text:0000000000001078 .L0 
     /tmp/ccc39oBq.s:2709   .text:000000000000107c .L0 
     /tmp/ccc39oBq.s:2710   .text:000000000000107c .L0 
     /tmp/ccc39oBq.s:2712   .text:0000000000001080 .L0 
GAS LISTING /tmp/ccc39oBq.s 			page 84


     /tmp/ccc39oBq.s:2714   .text:0000000000001084 .L0 
     /tmp/ccc39oBq.s:2717   .text:0000000000001088 .L0 
     /tmp/ccc39oBq.s:2718   .text:0000000000001088 .L0 
     /tmp/ccc39oBq.s:2720   .text:000000000000108c .L0 
     /tmp/ccc39oBq.s:2721   .text:000000000000108c .L0 
     /tmp/ccc39oBq.s:2723   .text:0000000000001094 .L0 
     /tmp/ccc39oBq.s:2724   .text:0000000000001094 .L0 
     /tmp/ccc39oBq.s:2726   .text:0000000000001098 .L0 
     /tmp/ccc39oBq.s:2727   .text:0000000000001098 .L0 
     /tmp/ccc39oBq.s:2729   .text:000000000000109c .L0 
     /tmp/ccc39oBq.s:2732   .text:00000000000010a0 .L0 
     /tmp/ccc39oBq.s:2736   .text:00000000000010a4 .L0 
     /tmp/ccc39oBq.s:2738   .text:00000000000010a4 .L0 
     /tmp/ccc39oBq.s:2739   .text:00000000000010a4 .L0 
     /tmp/ccc39oBq.s:2745   .text:00000000000010b8 .L0 
     /tmp/ccc39oBq.s:2746   .text:00000000000010b8 .L0 
     /tmp/ccc39oBq.s:2752   .text:00000000000010cc .L0 
     /tmp/ccc39oBq.s:2753   .text:00000000000010cc .L0 
     /tmp/ccc39oBq.s:2754   .text:00000000000010cc .L0 
     /tmp/ccc39oBq.s:2755   .text:00000000000010cc .L0 
     /tmp/ccc39oBq.s:2757   .text:00000000000010cc .L0 
     /tmp/ccc39oBq.s:2760   .text:00000000000010d4 .L0 
     /tmp/ccc39oBq.s:2765   .bss:0000000000000000 .LANCHOR0
     /tmp/ccc39oBq.s:2768   .bss:0000000000000000 _ZL13slabAllocator
     /tmp/ccc39oBq.s:2778   .text:00000000000010d4 .L0 
     /tmp/ccc39oBq.s:239    .rodata.str1.8:0000000000000000 .LC0
     /tmp/ccc39oBq.s:291    .text:000000000000018c .L0 
     /tmp/ccc39oBq.s:1383   .rodata.str1.8:0000000000000010 .LC1
     /tmp/ccc39oBq.s:1416   .text:00000000000007bc .L0 
     /tmp/ccc39oBq.s:1386   .rodata.str1.8:0000000000000028 .LC2
     /tmp/ccc39oBq.s:1424   .text:00000000000007d4 .L0 
     /tmp/ccc39oBq.s:1389   .rodata.str1.8:0000000000000038 .LC3
     /tmp/ccc39oBq.s:1431   .text:00000000000007ec .L0 
     /tmp/ccc39oBq.s:1392   .rodata.str1.8:0000000000000058 .LC4
     /tmp/ccc39oBq.s:1438   .text:0000000000000804 .L0 
     /tmp/ccc39oBq.s:1663   .text:0000000000000980 .L0 
     /tmp/ccc39oBq.s:1903   .text:0000000000000b04 .L0 
     /tmp/ccc39oBq.s:2011   .rodata.str1.8:0000000000000070 .LC5
     /tmp/ccc39oBq.s:2067   .text:0000000000000be4 .L0 
     /tmp/ccc39oBq.s:2014   .rodata.str1.8:0000000000000078 .LC6
     /tmp/ccc39oBq.s:2073   .text:0000000000000bf4 .L0 
     /tmp/ccc39oBq.s:2017   .rodata.str1.8:00000000000000b0 .LC7
     /tmp/ccc39oBq.s:2078   .text:0000000000000c04 .L0 
     /tmp/ccc39oBq.s:2020   .rodata.str1.8:00000000000000c0 .LC8
     /tmp/ccc39oBq.s:2088   .text:0000000000000c20 .L0 
     /tmp/ccc39oBq.s:2023   .rodata.str1.8:00000000000000c8 .LC9
     /tmp/ccc39oBq.s:2095   .text:0000000000000c38 .L0 
     /tmp/ccc39oBq.s:2026   .rodata.str1.8:00000000000000e8 .LC10
     /tmp/ccc39oBq.s:2102   .text:0000000000000c50 .L0 
     /tmp/ccc39oBq.s:2029   .rodata.str1.8:0000000000000108 .LC11
     /tmp/ccc39oBq.s:2107   .text:0000000000000c60 .L0 
     /tmp/ccc39oBq.s:2032   .rodata.str1.8:0000000000000128 .LC12
     /tmp/ccc39oBq.s:2112   .text:0000000000000c70 .L0 
     /tmp/ccc39oBq.s:2035   .rodata.str1.8:0000000000000138 .LC13
     /tmp/ccc39oBq.s:2137   .text:0000000000000c9c .L0 
     /tmp/ccc39oBq.s:2038   .rodata.str1.8:0000000000000148 .LC14
     /tmp/ccc39oBq.s:2162   .text:0000000000000cc8 .L0 
GAS LISTING /tmp/ccc39oBq.s 			page 85


     /tmp/ccc39oBq.s:2187   .text:0000000000000cf4 .L0 
     /tmp/ccc39oBq.s:2213   .rodata.str1.8:0000000000000158 .LC15
     /tmp/ccc39oBq.s:2247   .text:0000000000000d34 .L0 
     /tmp/ccc39oBq.s:2216   .rodata.str1.8:0000000000000168 .LC16
     /tmp/ccc39oBq.s:2252   .text:0000000000000d44 .L0 
     /tmp/ccc39oBq.s:2257   .text:0000000000000d54 .L0 
     /tmp/ccc39oBq.s:2219   .rodata.str1.8:00000000000001b8 .LC17
     /tmp/ccc39oBq.s:2260   .text:0000000000000d64 .L0 
     /tmp/ccc39oBq.s:2222   .rodata.str1.8:00000000000001d0 .LC18
     /tmp/ccc39oBq.s:2265   .text:0000000000000d74 .L0 
     /tmp/ccc39oBq.s:2225   .rodata.str1.8:00000000000001e8 .LC19
     /tmp/ccc39oBq.s:2277   .text:0000000000000d94 .L0 
     /tmp/ccc39oBq.s:2302   .text:0000000000000dc4 .L0 
     /tmp/ccc39oBq.s:2312   .text:0000000000000ddc .L0 
     /tmp/ccc39oBq.s:2390   .text:0000000000000e54 .L0 
     /tmp/ccc39oBq.s:2400   .text:0000000000000e70 .L0 
     /tmp/ccc39oBq.s:2440   .text:0000000000000ec4 .L0 
     /tmp/ccc39oBq.s:2336   .rodata.str1.8:0000000000000200 .LC20
     /tmp/ccc39oBq.s:2454   .text:0000000000000ef4 .L0 
     /tmp/ccc39oBq.s:2501   .text:0000000000000f40 .L0 
     /tmp/ccc39oBq.s:2616   .text:0000000000001004 .L0 
     /tmp/ccc39oBq.s:2671   .rodata.str1.8:0000000000000218 .LC21
     /tmp/ccc39oBq.s:2739   .text:00000000000010a4 .L0 
     /tmp/ccc39oBq.s:2674   .rodata.str1.8:0000000000000228 .LC22
     /tmp/ccc39oBq.s:2746   .text:00000000000010b8 .L0 
     /tmp/ccc39oBq.s:41     .text:0000000000000024 .L2
     /tmp/ccc39oBq.s:21     .text:000000000000000c .L3
     /tmp/ccc39oBq.s:123    .text:0000000000000090 .L8
     /tmp/ccc39oBq.s:127    .text:0000000000000094 .L6
     /tmp/ccc39oBq.s:95     .text:000000000000006c .L7
     /tmp/ccc39oBq.s:279    .text:0000000000000174 .L14
     /tmp/ccc39oBq.s:270    .text:0000000000000164 .L16
     /tmp/ccc39oBq.s:511    .text:00000000000002f0 .L26
     /tmp/ccc39oBq.s:466    .text:00000000000002a8 .L27
     /tmp/ccc39oBq.s:449    .text:0000000000000290 .L29
     /tmp/ccc39oBq.s:430    .text:0000000000000268 .L25
     /tmp/ccc39oBq.s:473    .text:00000000000002b0 .L23
     /tmp/ccc39oBq.s:491    .text:00000000000002d0 .L21
     /tmp/ccc39oBq.s:613    .text:0000000000000368 .L34
     /tmp/ccc39oBq.s:609    .text:0000000000000364 .L36
     /tmp/ccc39oBq.s:670    .text:00000000000003b0 .L44
     /tmp/ccc39oBq.s:655    .text:000000000000039c .L42
     /tmp/ccc39oBq.s:680    .text:00000000000003bc .L40
     /tmp/ccc39oBq.s:661    .text:00000000000003a4 .L38
     /tmp/ccc39oBq.s:1048   .text:00000000000005f4 .L53
     /tmp/ccc39oBq.s:958    .text:0000000000000574 .L55
     /tmp/ccc39oBq.s:1010   .text:00000000000005bc .L56
     /tmp/ccc39oBq.s:994    .text:00000000000005a0 .L57
     /tmp/ccc39oBq.s:1022   .text:00000000000005c8 .L58
     /tmp/ccc39oBq.s:1102   .text:0000000000000630 .L61
     /tmp/ccc39oBq.s:1089   .text:0000000000000620 .L62
     /tmp/ccc39oBq.s:1124   .text:0000000000000648 .L65
     /tmp/ccc39oBq.s:1156   .text:0000000000000678 .L68
     /tmp/ccc39oBq.s:1120   .text:0000000000000644 .L64
     /tmp/ccc39oBq.s:1168   .text:0000000000000684 .L63
     /tmp/ccc39oBq.s:1202   .text:00000000000006b8 .L66
     /tmp/ccc39oBq.s:1164   .text:0000000000000680 .L67
GAS LISTING /tmp/ccc39oBq.s 			page 86


     /tmp/ccc39oBq.s:1274   .text:0000000000000710 .L72
     /tmp/ccc39oBq.s:1325   .text:0000000000000750 .L80
     /tmp/ccc39oBq.s:1249   .text:00000000000006ec .L76
     /tmp/ccc39oBq.s:1285   .text:000000000000071c .L74
     /tmp/ccc39oBq.s:1243   .text:00000000000006e8 .L75
     /tmp/ccc39oBq.s:1299   .text:0000000000000728 .L78
     /tmp/ccc39oBq.s:1293   .text:0000000000000724 .L77
     /tmp/ccc39oBq.s:1626   .text:000000000000095c .L93
     /tmp/ccc39oBq.s:1561   .text:00000000000008dc .L86
     /tmp/ccc39oBq.s:1528   .text:00000000000008a0 .L88
     /tmp/ccc39oBq.s:1539   .text:00000000000008b0 .L89
     /tmp/ccc39oBq.s:1583   .text:00000000000008fc .L96
     /tmp/ccc39oBq.s:1611   .text:000000000000093c .L97
     /tmp/ccc39oBq.s:1861   .text:0000000000000ac8 .L108
     /tmp/ccc39oBq.s:1750   .text:0000000000000a10 .L110
     /tmp/ccc39oBq.s:1802   .text:0000000000000a58 .L104
     /tmp/ccc39oBq.s:1769   .text:0000000000000a2c .L100
     /tmp/ccc39oBq.s:1789   .text:0000000000000a48 .L111
     /tmp/ccc39oBq.s:1852   .text:0000000000000ab8 .L112
     /tmp/ccc39oBq.s:1926   .text:0000000000000b4c .L113
     /tmp/ccc39oBq.s:2004   .text:0000000000000bc0 .L119
     /tmp/ccc39oBq.s:1990   .text:0000000000000bac .L116
     /tmp/ccc39oBq.s:2206   .text:0000000000000d1c .L131
     /tmp/ccc39oBq.s:2134   .text:0000000000000c9c .L124
     /tmp/ccc39oBq.s:2119   .text:0000000000000c84 .L125
     /tmp/ccc39oBq.s:2159   .text:0000000000000cc8 .L126
     /tmp/ccc39oBq.s:2144   .text:0000000000000cb0 .L127
     /tmp/ccc39oBq.s:2184   .text:0000000000000cf4 .L128
     /tmp/ccc39oBq.s:2169   .text:0000000000000cdc .L129
     /tmp/ccc39oBq.s:2295   .text:0000000000000db8 .L137
     /tmp/ccc39oBq.s:2308   .text:0000000000000ddc .L135
     /tmp/ccc39oBq.s:2286   .text:0000000000000dac .L139
     /tmp/ccc39oBq.s:2291   .text:0000000000000db4 .L136
     /tmp/ccc39oBq.s:2374   .text:0000000000000e44 .L144
     /tmp/ccc39oBq.s:2378   .text:0000000000000e48 .L141
     /tmp/ccc39oBq.s:2408   .text:0000000000000e8c .L140
     /tmp/ccc39oBq.s:2427   .text:0000000000000eac .L147
     /tmp/ccc39oBq.s:2396   .text:0000000000000e6c .L143
     /tmp/ccc39oBq.s:2540   .text:0000000000000f90 .L153
     /tmp/ccc39oBq.s:2514   .text:0000000000000f68 .L150
     /tmp/ccc39oBq.s:2493   .text:0000000000000f34 .L151
     /tmp/ccc39oBq.s:2523   .text:0000000000000f78 .L148
     /tmp/ccc39oBq.s:2592   .text:0000000000000fd4 .L161
     /tmp/ccc39oBq.s:2569   .text:0000000000000fb4 .L157
     /tmp/ccc39oBq.s:2577   .text:0000000000000fc0 .L156
     /tmp/ccc39oBq.s:2660   .text:000000000000104c .L164
     /tmp/ccc39oBq.s:2751   .text:00000000000010cc .L174
     /tmp/ccc39oBq.s:2735   .text:00000000000010a4 .L177
     /tmp/ccc39oBq.s:2743   .text:00000000000010b8 .L178
     /tmp/ccc39oBq.s:2707   .text:000000000000107c .L171
     /tmp/ccc39oBq.s:2715   .text:0000000000001088 .L172
     /tmp/ccc39oBq.s:6348   .debug_abbrev:0000000000000000 .Ldebug_abbrev0
     /tmp/ccc39oBq.s:8923   .debug_str:0000000000000600 .LASF314
     /tmp/ccc39oBq.s:9025   .debug_str:0000000000000a18 .LASF315
     /tmp/ccc39oBq.s:8921   .debug_str:00000000000005e2 .LASF316
     /tmp/ccc39oBq.s:5      .text:0000000000000000 .Ltext0
     /tmp/ccc39oBq.s:2771   .text:00000000000010d4 .Letext0
GAS LISTING /tmp/ccc39oBq.s 			page 87


     /tmp/ccc39oBq.s:8729   .debug_line:0000000000000000 .Ldebug_line0
     /tmp/ccc39oBq.s:8959   .debug_str:0000000000000814 .LASF0
     /tmp/ccc39oBq.s:8989   .debug_str:000000000000091c .LASF1
     /tmp/ccc39oBq.s:9141   .debug_str:0000000000000e4f .LASF2
     /tmp/ccc39oBq.s:8887   .debug_str:00000000000004ee .LASF3
     /tmp/ccc39oBq.s:9157   .debug_str:0000000000000ece .LASF4
     /tmp/ccc39oBq.s:8971   .debug_str:0000000000000863 .LASF5
     /tmp/ccc39oBq.s:8753   .debug_str:00000000000000c9 .LASF6
     /tmp/ccc39oBq.s:9095   .debug_str:0000000000000cba .LASF7
     /tmp/ccc39oBq.s:8981   .debug_str:00000000000008cd .LASF8
     /tmp/ccc39oBq.s:8917   .debug_str:00000000000005c8 .LASF9
     /tmp/ccc39oBq.s:8931   .debug_str:0000000000000703 .LASF10
     /tmp/ccc39oBq.s:8813   .debug_str:0000000000000306 .LASF11
     /tmp/ccc39oBq.s:9207   .debug_str:0000000000001092 .LASF12
     /tmp/ccc39oBq.s:8903   .debug_str:0000000000000555 .LASF13
     /tmp/ccc39oBq.s:8833   .debug_str:0000000000000374 .LASF14
     /tmp/ccc39oBq.s:8811   .debug_str:00000000000002f6 .LASF15
     /tmp/ccc39oBq.s:9211   .debug_str:00000000000010c7 .LASF16
     /tmp/ccc39oBq.s:8875   .debug_str:000000000000049c .LASF17
     /tmp/ccc39oBq.s:9197   .debug_str:0000000000001023 .LASF18
     /tmp/ccc39oBq.s:8899   .debug_str:0000000000000537 .LASF19
     /tmp/ccc39oBq.s:8897   .debug_str:000000000000052a .LASF30
     /tmp/ccc39oBq.s:8919   .debug_str:00000000000005d8 .LASF20
     /tmp/ccc39oBq.s:8895   .debug_str:000000000000051e .LASF21
     /tmp/ccc39oBq.s:9045   .debug_str:0000000000000af6 .LASF22
     /tmp/ccc39oBq.s:8925   .debug_str:00000000000006d0 .LASF23
     /tmp/ccc39oBq.s:9189   .debug_str:0000000000000fee .LASF24
     /tmp/ccc39oBq.s:9307   .debug_str:00000000000013d6 .LASF25
     /tmp/ccc39oBq.s:9023   .debug_str:0000000000000a13 .LASF26
     /tmp/ccc39oBq.s:8957   .debug_str:000000000000080f .LASF27
     /tmp/ccc39oBq.s:8967   .debug_str:000000000000084a .LASF28
     /tmp/ccc39oBq.s:9229   .debug_str:000000000000111b .LASF29
     /tmp/ccc39oBq.s:9099   .debug_str:0000000000000cd5 .LASF31
     /tmp/ccc39oBq.s:8815   .debug_str:0000000000000315 .LASF32
     /tmp/ccc39oBq.s:9127   .debug_str:0000000000000dcd .LASF33
     /tmp/ccc39oBq.s:9223   .debug_str:0000000000001104 .LASF34
     /tmp/ccc39oBq.s:9003   .debug_str:0000000000000979 .LASF35
     /tmp/ccc39oBq.s:9019   .debug_str:00000000000009fa .LASF36
     /tmp/ccc39oBq.s:9029   .debug_str:0000000000000a44 .LASF37
     /tmp/ccc39oBq.s:9239   .debug_str:0000000000001149 .LASF38
     /tmp/ccc39oBq.s:9283   .debug_str:00000000000012ef .LASF39
     /tmp/ccc39oBq.s:8993   .debug_str:000000000000093a .LASF40
     /tmp/ccc39oBq.s:8891   .debug_str:0000000000000502 .LASF41
     /tmp/ccc39oBq.s:9233   .debug_str:000000000000112b .LASF317
     /tmp/ccc39oBq.s:9225   .debug_str:000000000000110a .LASF42
     /tmp/ccc39oBq.s:9179   .debug_str:0000000000000f89 .LASF43
     /tmp/ccc39oBq.s:8823   .debug_str:0000000000000338 .LASF44
     /tmp/ccc39oBq.s:8791   .debug_str:000000000000021d .LASF45
     /tmp/ccc39oBq.s:9097   .debug_str:0000000000000ccd .LASF46
     /tmp/ccc39oBq.s:8821   .debug_str:000000000000032f .LASF47
     /tmp/ccc39oBq.s:9221   .debug_str:00000000000010fc .LASF48
     /tmp/ccc39oBq.s:8949   .debug_str:00000000000007cb .LASF49
     /tmp/ccc39oBq.s:8755   .debug_str:00000000000000d0 .LASF55
     /tmp/ccc39oBq.s:9271   .debug_str:000000000000126b .LASF318
     /tmp/ccc39oBq.s:9079   .debug_str:0000000000000c52 .LASF50
     /tmp/ccc39oBq.s:8987   .debug_str:0000000000000917 .LASF51
     /tmp/ccc39oBq.s:9347   .debug_str:0000000000001504 .LASF53
GAS LISTING /tmp/ccc39oBq.s 			page 88


     /tmp/ccc39oBq.s:9339   .debug_str:00000000000014d2 .LASF52
     /tmp/ccc39oBq.s:9247   .debug_str:000000000000118f .LASF54
     /tmp/ccc39oBq.s:8861   .debug_str:0000000000000457 .LASF78
     /tmp/ccc39oBq.s:8767   .debug_str:0000000000000149 .LASF80
     /tmp/ccc39oBq.s:9237   .debug_str:0000000000001141 .LASF56
     /tmp/ccc39oBq.s:9167   .debug_str:0000000000000f28 .LASF57
     /tmp/ccc39oBq.s:8997   .debug_str:000000000000094f .LASF60
     /tmp/ccc39oBq.s:9011   .debug_str:00000000000009a9 .LASF62
     /tmp/ccc39oBq.s:9355   .debug_str:000000000000156d .LASF58
     /tmp/ccc39oBq.s:8883   .debug_str:00000000000004d5 .LASF59
     /tmp/ccc39oBq.s:8743   .debug_str:000000000000007d .LASF104
     /tmp/ccc39oBq.s:8845   .debug_str:00000000000003ec .LASF106
     /tmp/ccc39oBq.s:9171   .debug_str:0000000000000f45 .LASF61
     /tmp/ccc39oBq.s:9049   .debug_str:0000000000000b07 .LASF63
     /tmp/ccc39oBq.s:9151   .debug_str:0000000000000e94 .LASF64
     /tmp/ccc39oBq.s:9205   .debug_str:0000000000001076 .LASF65
     /tmp/ccc39oBq.s:9051   .debug_str:0000000000000b1a .LASF66
     /tmp/ccc39oBq.s:8737   .debug_str:000000000000003f .LASF67
     /tmp/ccc39oBq.s:9327   .debug_str:000000000000147f .LASF68
     /tmp/ccc39oBq.s:9093   .debug_str:0000000000000ca0 .LASF69
     /tmp/ccc39oBq.s:9195   .debug_str:0000000000001015 .LASF70
     /tmp/ccc39oBq.s:9109   .debug_str:0000000000000d0c .LASF71
     /tmp/ccc39oBq.s:8851   .debug_str:000000000000041c .LASF72
     /tmp/ccc39oBq.s:8907   .debug_str:000000000000057a .LASF73
     /tmp/ccc39oBq.s:9135   .debug_str:0000000000000e20 .LASF74
     /tmp/ccc39oBq.s:9329   .debug_str:000000000000148e .LASF75
     /tmp/ccc39oBq.s:9331   .debug_str:000000000000149d .LASF76
     /tmp/ccc39oBq.s:8973   .debug_str:0000000000000875 .LASF77
     /tmp/ccc39oBq.s:9191   .debug_str:0000000000000ff8 .LASF79
     /tmp/ccc39oBq.s:9345   .debug_str:00000000000014ee .LASF81
     /tmp/ccc39oBq.s:8935   .debug_str:000000000000073a .LASF82
     /tmp/ccc39oBq.s:8905   .debug_str:0000000000000564 .LASF83
     /tmp/ccc39oBq.s:9163   .debug_str:0000000000000f05 .LASF84
     /tmp/ccc39oBq.s:8961   .debug_str:0000000000000821 .LASF85
     /tmp/ccc39oBq.s:9059   .debug_str:0000000000000b54 .LASF86
     /tmp/ccc39oBq.s:8839   .debug_str:00000000000003c4 .LASF87
     /tmp/ccc39oBq.s:9117   .debug_str:0000000000000d5e .LASF88
     /tmp/ccc39oBq.s:9367   .debug_str:00000000000015d9 .LASF89
     /tmp/ccc39oBq.s:9065   .debug_str:0000000000000b9d .LASF90
     /tmp/ccc39oBq.s:9149   .debug_str:0000000000000e81 .LASF91
     /tmp/ccc39oBq.s:9173   .debug_str:0000000000000f4e .LASF92
     /tmp/ccc39oBq.s:9293   .debug_str:0000000000001331 .LASF93
     /tmp/ccc39oBq.s:9037   .debug_str:0000000000000aa5 .LASF94
     /tmp/ccc39oBq.s:9275   .debug_str:00000000000012ad .LASF95
     /tmp/ccc39oBq.s:9203   .debug_str:0000000000001056 .LASF96
     /tmp/ccc39oBq.s:9087   .debug_str:0000000000000c74 .LASF97
     /tmp/ccc39oBq.s:9069   .debug_str:0000000000000bea .LASF98
     /tmp/ccc39oBq.s:8869   .debug_str:000000000000047a .LASF99
     /tmp/ccc39oBq.s:8963   .debug_str:0000000000000835 .LASF100
     /tmp/ccc39oBq.s:9041   .debug_str:0000000000000ae2 .LASF101
     /tmp/ccc39oBq.s:9251   .debug_str:00000000000011aa .LASF102
     /tmp/ccc39oBq.s:8911   .debug_str:0000000000000590 .LASF103
     /tmp/ccc39oBq.s:9337   .debug_str:00000000000014c4 .LASF105
     /tmp/ccc39oBq.s:8777   .debug_str:00000000000001ab .LASF107
     /tmp/ccc39oBq.s:8893   .debug_str:0000000000000509 .LASF108
     /tmp/ccc39oBq.s:8805   .debug_str:00000000000002b7 .LASF109
     /tmp/ccc39oBq.s:9325   .debug_str:0000000000001478 .LASF110
GAS LISTING /tmp/ccc39oBq.s 			page 89


     /tmp/ccc39oBq.s:8801   .debug_str:0000000000000281 .LASF111
     /tmp/ccc39oBq.s:8741   .debug_str:0000000000000078 .LASF112
     /tmp/ccc39oBq.s:9289   .debug_str:0000000000001320 .LASF113
     /tmp/ccc39oBq.s:9017   .debug_str:00000000000009f2 .LASF114
     /tmp/ccc39oBq.s:8867   .debug_str:0000000000000474 .LASF115
     /tmp/ccc39oBq.s:9269   .debug_str:0000000000001263 .LASF116
     /tmp/ccc39oBq.s:8789   .debug_str:000000000000020c .LASF117
     /tmp/ccc39oBq.s:9257   .debug_str:00000000000011d5 .LASF118
     /tmp/ccc39oBq.s:9123   .debug_str:0000000000000d9d .LASF119
     /tmp/ccc39oBq.s:8927   .debug_str:00000000000006de .LASF120
     /tmp/ccc39oBq.s:9145   .debug_str:0000000000000e69 .LASF121
     /tmp/ccc39oBq.s:9121   .debug_str:0000000000000d89 .LASF122
     /tmp/ccc39oBq.s:8863   .debug_str:0000000000000460 .LASF123
     /tmp/ccc39oBq.s:9187   .debug_str:0000000000000fd7 .LASF124
     /tmp/ccc39oBq.s:9215   .debug_str:00000000000010e6 .LASF125
     /tmp/ccc39oBq.s:9055   .debug_str:0000000000000b32 .LASF126
     /tmp/ccc39oBq.s:8733   .debug_str:000000000000000f .LASF127
     /tmp/ccc39oBq.s:9147   .debug_str:0000000000000e75 .LASF128
     /tmp/ccc39oBq.s:9031   .debug_str:0000000000000a50 .LASF129
     /tmp/ccc39oBq.s:9139   .debug_str:0000000000000e3a .LASF130
     /tmp/ccc39oBq.s:8817   .debug_str:000000000000031a .LASF131
     /tmp/ccc39oBq.s:8825   .debug_str:0000000000000342 .LASF132
     /tmp/ccc39oBq.s:9053   .debug_str:0000000000000b29 .LASF133
     /tmp/ccc39oBq.s:9155   .debug_str:0000000000000ec3 .LASF134
     /tmp/ccc39oBq.s:8731   .debug_str:0000000000000000 .LASF135
     /tmp/ccc39oBq.s:8943   .debug_str:0000000000000788 .LASF136
     /tmp/ccc39oBq.s:9267   .debug_str:0000000000001254 .LASF137
     /tmp/ccc39oBq.s:9209   .debug_str:00000000000010a5 .LASF138
     /tmp/ccc39oBq.s:9175   .debug_str:0000000000000f6c .LASF139
     /tmp/ccc39oBq.s:8837   .debug_str:00000000000003a0 .LASF140
     /tmp/ccc39oBq.s:9077   .debug_str:0000000000000c42 .LASF141
     /tmp/ccc39oBq.s:9113   .debug_str:0000000000000d2a .LASF142
     /tmp/ccc39oBq.s:9075   .debug_str:0000000000000c3c .LASF143
     /tmp/ccc39oBq.s:9359   .debug_str:00000000000015a0 .LASF144
     /tmp/ccc39oBq.s:8745   .debug_str:000000000000008d .LASF145
     /tmp/ccc39oBq.s:9015   .debug_str:00000000000009d8 .LASF146
     /tmp/ccc39oBq.s:9353   .debug_str:000000000000155d .LASF147
     /tmp/ccc39oBq.s:9159   .debug_str:0000000000000ed5 .LASF148
     /tmp/ccc39oBq.s:9213   .debug_str:00000000000010d3 .LASF149
     /tmp/ccc39oBq.s:9153   .debug_str:0000000000000e9d .LASF150
     /tmp/ccc39oBq.s:9361   .debug_str:00000000000015b8 .LASF151
     /tmp/ccc39oBq.s:8985   .debug_str:00000000000008f3 .LASF152
     /tmp/ccc39oBq.s:9057   .debug_str:0000000000000b4b .LASF153
     /tmp/ccc39oBq.s:8787   .debug_str:00000000000001fc .LASF154
     /tmp/ccc39oBq.s:9259   .debug_str:00000000000011da .LASF155
     /tmp/ccc39oBq.s:9161   .debug_str:0000000000000ef8 .LASF156
     /tmp/ccc39oBq.s:8739   .debug_str:0000000000000059 .LASF157
     /tmp/ccc39oBq.s:8775   .debug_str:0000000000000198 .LASF158
     /tmp/ccc39oBq.s:9071   .debug_str:0000000000000c09 .LASF159
     /tmp/ccc39oBq.s:9089   .debug_str:0000000000000c88 .LASF160
     /tmp/ccc39oBq.s:8947   .debug_str:00000000000007b7 .LASF161
     /tmp/ccc39oBq.s:9081   .debug_str:0000000000000c57 .LASF162
     /tmp/ccc39oBq.s:8991   .debug_str:000000000000092f .LASF163
     /tmp/ccc39oBq.s:9107   .debug_str:0000000000000d02 .LASF164
     /tmp/ccc39oBq.s:9295   .debug_str:0000000000001344 .LASF165
     /tmp/ccc39oBq.s:9219   .debug_str:00000000000010f3 .LASF166
     /tmp/ccc39oBq.s:9231   .debug_str:0000000000001120 .LASF167
GAS LISTING /tmp/ccc39oBq.s 			page 90


     /tmp/ccc39oBq.s:9291   .debug_str:0000000000001325 .LASF168
     /tmp/ccc39oBq.s:9305   .debug_str:00000000000013c9 .LASF169
     /tmp/ccc39oBq.s:9043   .debug_str:0000000000000aea .LASF170
     /tmp/ccc39oBq.s:9105   .debug_str:0000000000000cf6 .LASF171
     /tmp/ccc39oBq.s:9193   .debug_str:0000000000001003 .LASF174
     /tmp/ccc39oBq.s:9181   .debug_str:0000000000000f91 .LASF176
     /tmp/ccc39oBq.s:9281   .debug_str:00000000000012dd .LASF172
     /tmp/ccc39oBq.s:9323   .debug_str:0000000000001456 .LASF173
     /tmp/ccc39oBq.s:9279   .debug_str:00000000000012cb .LASF175
     /tmp/ccc39oBq.s:8759   .debug_str:00000000000000fb .LASF177
     /tmp/ccc39oBq.s:8983   .debug_str:00000000000008e0 .LASF178
     /tmp/ccc39oBq.s:8799   .debug_str:000000000000025e .LASF179
     /tmp/ccc39oBq.s:8873   .debug_str:0000000000000489 .LASF180
     /tmp/ccc39oBq.s:8793   .debug_str:0000000000000226 .LASF181
     /tmp/ccc39oBq.s:8769   .debug_str:000000000000015c .LASF182
     /tmp/ccc39oBq.s:9303   .debug_str:00000000000013ba .LASF183
     /tmp/ccc39oBq.s:9039   .debug_str:0000000000000ac3 .LASF184
     /tmp/ccc39oBq.s:9321   .debug_str:000000000000143d .LASF185
     /tmp/ccc39oBq.s:8975   .debug_str:0000000000000882 .LASF186
     /tmp/ccc39oBq.s:9001   .debug_str:0000000000000961 .LASF187
     /tmp/ccc39oBq.s:9349   .debug_str:0000000000001510 .LASF188
     /tmp/ccc39oBq.s:8901   .debug_str:0000000000000544 .LASF189
     /tmp/ccc39oBq.s:9313   .debug_str:0000000000001405 .LASF190
     /tmp/ccc39oBq.s:8913   .debug_str:000000000000059c .LASF191
     /tmp/ccc39oBq.s:9333   .debug_str:00000000000014a8 .LASF192
     /tmp/ccc39oBq.s:8939   .debug_str:0000000000000766 .LASF193
     /tmp/ccc39oBq.s:8761   .debug_str:000000000000011d .LASF194
     /tmp/ccc39oBq.s:9005   .debug_str:000000000000097e .LASF195
     /tmp/ccc39oBq.s:9073   .debug_str:0000000000000c30 .LASF196
     /tmp/ccc39oBq.s:8771   .debug_str:0000000000000177 .LASF197
     /tmp/ccc39oBq.s:9243   .debug_str:0000000000001176 .LASF198
     /tmp/ccc39oBq.s:8773   .debug_str:0000000000000193 .LASF199
     /tmp/ccc39oBq.s:9217   .debug_str:00000000000010ed .LASF200
     /tmp/ccc39oBq.s:9137   .debug_str:0000000000000e2d .LASF201
     /tmp/ccc39oBq.s:8749   .debug_str:00000000000000a0 .LASF202
     /tmp/ccc39oBq.s:9063   .debug_str:0000000000000b93 .LASF203
     /tmp/ccc39oBq.s:8877   .debug_str:00000000000004b2 .LASF204
     /tmp/ccc39oBq.s:8977   .debug_str:00000000000008ab .LASF205
     /tmp/ccc39oBq.s:9119   .debug_str:0000000000000d7b .LASF206
     /tmp/ccc39oBq.s:9103   .debug_str:0000000000000ce8 .LASF207
     /tmp/ccc39oBq.s:8979   .debug_str:00000000000008bc .LASF208
     /tmp/ccc39oBq.s:9315   .debug_str:0000000000001417 .LASF209
     /tmp/ccc39oBq.s:9341   .debug_str:00000000000014d8 .LASF210
     /tmp/ccc39oBq.s:9351   .debug_str:0000000000001539 .LASF212
     /tmp/ccc39oBq.s:2681   .text:0000000000001054 .LFB36
     /tmp/ccc39oBq.s:2761   .text:00000000000010d4 .LFE36
     /tmp/ccc39oBq.s:8951   .debug_str:00000000000007d1 .LASF214
     /tmp/ccc39oBq.s:7384   .debug_loc:0000000000000000 .LLST86
     /tmp/ccc39oBq.s:2741   .text:00000000000010b4 .LVL281
     /tmp/ccc39oBq.s:2748   .text:00000000000010c8 .LVL282
     /tmp/ccc39oBq.s:9185   .debug_str:0000000000000fc5 .LASF211
     /tmp/ccc39oBq.s:9299   .debug_str:0000000000001372 .LASF213
     /tmp/ccc39oBq.s:2628   .text:000000000000101c .LFB35
     /tmp/ccc39oBq.s:2667   .text:0000000000001054 .LFE35
     /tmp/ccc39oBq.s:7417   .debug_loc:0000000000000088 .LLST84
     /tmp/ccc39oBq.s:9169   .debug_str:0000000000000f39 .LASF215
     /tmp/ccc39oBq.s:7448   .debug_loc:00000000000000ff .LLST85
GAS LISTING /tmp/ccc39oBq.s 			page 91


     /tmp/ccc39oBq.s:2648   .text:000000000000103c .LVL274
     /tmp/ccc39oBq.s:8879   .debug_str:00000000000004b9 .LASF216
     /tmp/ccc39oBq.s:9357   .debug_str:000000000000157a .LASF218
     /tmp/ccc39oBq.s:2549   .text:0000000000000f94 .LFB34
     /tmp/ccc39oBq.s:2622   .text:000000000000101c .LFE34
     /tmp/ccc39oBq.s:7455   .debug_loc:0000000000000122 .LLST83
     /tmp/ccc39oBq.s:2602   .text:0000000000000fe8 .LVL268
     /tmp/ccc39oBq.s:2607   .text:0000000000000ff4 .LVL269
     /tmp/ccc39oBq.s:2612   .text:0000000000001000 .LVL270
     /tmp/ccc39oBq.s:2619   .text:0000000000001018 .LVL271
     /tmp/ccc39oBq.s:8909   .debug_str:000000000000058a .LASF217
     /tmp/ccc39oBq.s:8995   .debug_str:0000000000000943 .LASF219
     /tmp/ccc39oBq.s:2466   .text:0000000000000f0c .LFB33
     /tmp/ccc39oBq.s:2543   .text:0000000000000f94 .LFE33
     /tmp/ccc39oBq.s:9009   .debug_str:00000000000009a4 .LASF220
     /tmp/ccc39oBq.s:7477   .debug_loc:0000000000000181 .LLST80
     /tmp/ccc39oBq.s:9091   .debug_str:0000000000000c9b .LASF221
     /tmp/ccc39oBq.s:7499   .debug_loc:00000000000001e0 .LLST81
     /tmp/ccc39oBq.s:8703   .debug_ranges:0000000000000000 .Ldebug_ranges0
     /tmp/ccc39oBq.s:7510   .debug_loc:0000000000000216 .LLST82
     /tmp/ccc39oBq.s:2507   .text:0000000000000f5c .LVL258
     /tmp/ccc39oBq.s:2522   .text:0000000000000f78 .LVL260
     /tmp/ccc39oBq.s:9317   .debug_str:0000000000001425 .LASF222
     /tmp/ccc39oBq.s:9143   .debug_str:0000000000000e5d .LASF223
     /tmp/ccc39oBq.s:2343   .text:0000000000000e08 .LFB32
     /tmp/ccc39oBq.s:2460   .text:0000000000000f0c .LFE32
     /tmp/ccc39oBq.s:8843   .debug_str:00000000000003e7 .LASF224
     /tmp/ccc39oBq.s:7517   .debug_loc:0000000000000239 .LLST77
     /tmp/ccc39oBq.s:8871   .debug_str:0000000000000483 .LASF225
     /tmp/ccc39oBq.s:7539   .debug_loc:0000000000000298 .LLST78
     /tmp/ccc39oBq.s:8785   .debug_str:00000000000001f6 .LASF226
     /tmp/ccc39oBq.s:7546   .debug_loc:00000000000002bb .LLST79
     /tmp/ccc39oBq.s:2364   .text:0000000000000e2c .LVL244
     /tmp/ccc39oBq.s:2405   .text:0000000000000e88 .LVL249
     /tmp/ccc39oBq.s:2433   .text:0000000000000eb8 .LVL252
     /tmp/ccc39oBq.s:2449   .text:0000000000000ee4 .LVL253
     /tmp/ccc39oBq.s:2457   .text:0000000000000f08 .LVL254
     /tmp/ccc39oBq.s:9235   .debug_str:0000000000001131 .LASF227
     /tmp/ccc39oBq.s:9129   .debug_str:0000000000000dd8 .LASF228
     /tmp/ccc39oBq.s:2045   .text:0000000000000bc4 .LFB31
     /tmp/ccc39oBq.s:2209   .text:0000000000000d20 .LFE31
     /tmp/ccc39oBq.s:7557   .debug_loc:00000000000002f1 .LLST74
     /tmp/ccc39oBq.s:7579   .debug_loc:0000000000000350 .LLST75
     /tmp/ccc39oBq.s:2070   .text:0000000000000bf4 .LVL207
     /tmp/ccc39oBq.s:2075   .text:0000000000000c04 .LVL208
     /tmp/ccc39oBq.s:2080   .text:0000000000000c14 .LVL209
     /tmp/ccc39oBq.s:2085   .text:0000000000000c20 .LVL210
     /tmp/ccc39oBq.s:2090   .text:0000000000000c30 .LVL211
     /tmp/ccc39oBq.s:2097   .text:0000000000000c48 .LVL212
     /tmp/ccc39oBq.s:2104   .text:0000000000000c60 .LVL213
     /tmp/ccc39oBq.s:2109   .text:0000000000000c70 .LVL214
     /tmp/ccc39oBq.s:2114   .text:0000000000000c80 .LVL215
     /tmp/ccc39oBq.s:2127   .text:0000000000000c94 .LVL217
     /tmp/ccc39oBq.s:2139   .text:0000000000000cac .LVL219
     /tmp/ccc39oBq.s:2152   .text:0000000000000cc0 .LVL221
     /tmp/ccc39oBq.s:2164   .text:0000000000000cd8 .LVL223
     /tmp/ccc39oBq.s:2177   .text:0000000000000cec .LVL225
GAS LISTING /tmp/ccc39oBq.s 			page 92


     /tmp/ccc39oBq.s:2189   .text:0000000000000d04 .LVL227
     /tmp/ccc39oBq.s:8797   .debug_str:000000000000024e .LASF229
     /tmp/ccc39oBq.s:9125   .debug_str:0000000000000da8 .LASF230
     /tmp/ccc39oBq.s:1959   .text:0000000000000b74 .LFB30
     /tmp/ccc39oBq.s:2007   .text:0000000000000bc4 .LFE30
     /tmp/ccc39oBq.s:7586   .debug_loc:0000000000000373 .LLST71
     /tmp/ccc39oBq.s:7604   .debug_loc:00000000000003bf .LLST72
     /tmp/ccc39oBq.s:7626   .debug_loc:000000000000041e .LLST73
     /tmp/ccc39oBq.s:1982   .text:0000000000000b9c .LVL201
     /tmp/ccc39oBq.s:1989   .text:0000000000000bac .LVL202
     /tmp/ccc39oBq.s:8841   .debug_str:00000000000003d6 .LASF231
     /tmp/ccc39oBq.s:8953   .debug_str:00000000000007d8 .LASF232
     /tmp/ccc39oBq.s:1680   .text:0000000000000998 .LFB29
     /tmp/ccc39oBq.s:1869   .text:0000000000000ad0 .LFE29
     /tmp/ccc39oBq.s:7633   .debug_loc:0000000000000441 .LLST62
     /tmp/ccc39oBq.s:8889   .debug_str:00000000000004f4 .LASF233
     /tmp/ccc39oBq.s:7655   .debug_loc:00000000000004a0 .LLST65
     /tmp/ccc39oBq.s:1757   .text:0000000000000a18 .LVL171
     /tmp/ccc39oBq.s:1765   .text:0000000000000a28 .LVL174
     /tmp/ccc39oBq.s:1797   .text:0000000000000a54 .LVL178
     /tmp/ccc39oBq.s:1714   .text:00000000000009c8 .LBB18
     /tmp/ccc39oBq.s:1751   .text:0000000000000a10 .LBE18
     /tmp/ccc39oBq.s:7670   .debug_loc:00000000000004e9 .LLST63
     /tmp/ccc39oBq.s:1718   .text:00000000000009d0 .LVL163
     /tmp/ccc39oBq.s:1726   .text:00000000000009e0 .LVL166
     /tmp/ccc39oBq.s:1733   .text:00000000000009f0 .LVL167
     /tmp/ccc39oBq.s:1738   .text:00000000000009fc .LVL168
     /tmp/ccc39oBq.s:1745   .text:0000000000000a0c .LVL169
     /tmp/ccc39oBq.s:1805   .text:0000000000000a58 .LBB19
     /tmp/ccc39oBq.s:1862   .text:0000000000000ac8 .LBE19
     /tmp/ccc39oBq.s:7681   .debug_loc:000000000000051f .LLST64
     /tmp/ccc39oBq.s:1810   .text:0000000000000a64 .LVL180
     /tmp/ccc39oBq.s:1820   .text:0000000000000a78 .LVL181
     /tmp/ccc39oBq.s:1828   .text:0000000000000a88 .LVL184
     /tmp/ccc39oBq.s:1835   .text:0000000000000a98 .LVL185
     /tmp/ccc39oBq.s:1840   .text:0000000000000aa4 .LVL186
     /tmp/ccc39oBq.s:1847   .text:0000000000000ab4 .LVL187
     /tmp/ccc39oBq.s:9133   .debug_str:0000000000000e0e .LASF234
     /tmp/ccc39oBq.s:9297   .debug_str:000000000000134f .LASF235
     /tmp/ccc39oBq.s:1875   .text:0000000000000ad0 .LFB28
     /tmp/ccc39oBq.s:1953   .text:0000000000000b74 .LFE28
     /tmp/ccc39oBq.s:8999   .debug_str:000000000000095c .LASF236
     /tmp/ccc39oBq.s:7692   .debug_loc:0000000000000555 .LLST66
     /tmp/ccc39oBq.s:7710   .debug_loc:00000000000005a1 .LLST67
     /tmp/ccc39oBq.s:7728   .debug_loc:00000000000005ed .LLST68
     /tmp/ccc39oBq.s:7746   .debug_loc:0000000000000639 .LLST69
     /tmp/ccc39oBq.s:9199   .debug_str:0000000000001039 .LASF237
     /tmp/ccc39oBq.s:7764   .debug_loc:0000000000000685 .LLST70
     /tmp/ccc39oBq.s:1907   .text:0000000000000b18 .LVL191
     /tmp/ccc39oBq.s:1916   .text:0000000000000b2c .LVL193
     /tmp/ccc39oBq.s:1924   .text:0000000000000b4c .LVL194
     /tmp/ccc39oBq.s:9007   .debug_str:000000000000099a .LASF238
     /tmp/ccc39oBq.s:9319   .debug_str:000000000000142d .LASF239
     /tmp/ccc39oBq.s:1642   .text:0000000000000960 .LFB27
     /tmp/ccc39oBq.s:1674   .text:0000000000000998 .LFE27
     /tmp/ccc39oBq.s:8783   .debug_str:00000000000001f0 .LASF240
     /tmp/ccc39oBq.s:7775   .debug_loc:00000000000006bb .LLST59
GAS LISTING /tmp/ccc39oBq.s 			page 93


     /tmp/ccc39oBq.s:9363   .debug_str:00000000000015c5 .LASF241
     /tmp/ccc39oBq.s:7789   .debug_loc:00000000000006f4 .LLST60
     /tmp/ccc39oBq.s:9047   .debug_str:0000000000000b01 .LASF242
     /tmp/ccc39oBq.s:7803   .debug_loc:000000000000072d .LLST61
     /tmp/ccc39oBq.s:1657   .text:0000000000000978 .LVL159
     /tmp/ccc39oBq.s:1661   .text:0000000000000980 .LVL160
     /tmp/ccc39oBq.s:9013   .debug_str:00000000000009c1 .LASF243
     /tmp/ccc39oBq.s:8835   .debug_str:0000000000000384 .LASF244
     /tmp/ccc39oBq.s:2232   .text:0000000000000d20 .LFB26
     /tmp/ccc39oBq.s:2332   .text:0000000000000e08 .LFE26
     /tmp/ccc39oBq.s:2281   .text:0000000000000da4 .LBB25
     /tmp/ccc39oBq.s:2309   .text:0000000000000ddc .LBE25
     /tmp/ccc39oBq.s:7810   .debug_loc:0000000000000750 .LLST76
     /tmp/ccc39oBq.s:2290   .text:0000000000000db4 .LVL238
     /tmp/ccc39oBq.s:2249   .text:0000000000000d44 .LVL231
     /tmp/ccc39oBq.s:2254   .text:0000000000000d54 .LVL232
     /tmp/ccc39oBq.s:2262   .text:0000000000000d74 .LVL233
     /tmp/ccc39oBq.s:2267   .text:0000000000000d84 .LVL234
     /tmp/ccc39oBq.s:2274   .text:0000000000000d94 .LVL235
     /tmp/ccc39oBq.s:2279   .text:0000000000000da4 .LVL236
     /tmp/ccc39oBq.s:2314   .text:0000000000000dec .LVL240
     /tmp/ccc39oBq.s:2318   .text:0000000000000df4 .LVL241
     /tmp/ccc39oBq.s:8941   .debug_str:0000000000000777 .LASF245
     /tmp/ccc39oBq.s:9061   .debug_str:0000000000000b73 .LASF246
     /tmp/ccc39oBq.s:1460   .text:0000000000000828 .LFB25
     /tmp/ccc39oBq.s:1636   .text:0000000000000960 .LFE25
     /tmp/ccc39oBq.s:7822   .debug_loc:0000000000000787 .LLST55
     /tmp/ccc39oBq.s:7848   .debug_loc:00000000000007f9 .LLST56
     /tmp/ccc39oBq.s:9309   .debug_str:00000000000013df .LASF247
     /tmp/ccc39oBq.s:7874   .debug_loc:000000000000086b .LLST57
     /tmp/ccc39oBq.s:7885   .debug_loc:00000000000008a1 .LLST58
     /tmp/ccc39oBq.s:1513   .text:000000000000088c .LVL144
     /tmp/ccc39oBq.s:1527   .text:00000000000008a0 .LVL146
     /tmp/ccc39oBq.s:1538   .text:00000000000008b0 .LVL147
     /tmp/ccc39oBq.s:1545   .text:00000000000008c0 .LVL148
     /tmp/ccc39oBq.s:1590   .text:000000000000090c .LVL153
     /tmp/ccc39oBq.s:1601   .text:0000000000000924 .LVL154
     /tmp/ccc39oBq.s:1609   .text:0000000000000938 .LVL155
     /tmp/ccc39oBq.s:1617   .text:000000000000094c .LVL156
     /tmp/ccc39oBq.s:8765   .debug_str:000000000000013b .LASF248
     /tmp/ccc39oBq.s:9285   .debug_str:00000000000012ff .LASF249
     /tmp/ccc39oBq.s:1399   .text:00000000000007a4 .LFB24
     /tmp/ccc39oBq.s:1454   .text:0000000000000828 .LFE24
     /tmp/ccc39oBq.s:7896   .debug_loc:00000000000008d7 .LLST54
     /tmp/ccc39oBq.s:1419   .text:00000000000007cc .LVL136
     /tmp/ccc39oBq.s:1426   .text:00000000000007e4 .LVL137
     /tmp/ccc39oBq.s:1433   .text:00000000000007fc .LVL138
     /tmp/ccc39oBq.s:1440   .text:0000000000000814 .LVL139
     /tmp/ccc39oBq.s:9201   .debug_str:0000000000001042 .LASF250
     /tmp/ccc39oBq.s:8937   .debug_str:0000000000000745 .LASF251
     /tmp/ccc39oBq.s:1338   .text:0000000000000758 .LFB23
     /tmp/ccc39oBq.s:1379   .text:00000000000007a4 .LFE23
     /tmp/ccc39oBq.s:7914   .debug_loc:0000000000000923 .LLST52
     /tmp/ccc39oBq.s:7928   .debug_loc:000000000000095c .LLST53
     /tmp/ccc39oBq.s:8881   .debug_str:00000000000004cc .LASF252
     /tmp/ccc39oBq.s:9265   .debug_str:0000000000001236 .LASF253
     /tmp/ccc39oBq.s:1222   .text:00000000000006c8 .LFB22
GAS LISTING /tmp/ccc39oBq.s 			page 94


     /tmp/ccc39oBq.s:1332   .text:0000000000000758 .LFE22
     /tmp/ccc39oBq.s:7942   .debug_loc:0000000000000995 .LLST48
     /tmp/ccc39oBq.s:7961   .debug_loc:00000000000009f1 .LLST49
     /tmp/ccc39oBq.s:8807   .debug_str:00000000000002e3 .LASF254
     /tmp/ccc39oBq.s:7972   .debug_loc:0000000000000a27 .LLST50
     /tmp/ccc39oBq.s:7983   .debug_loc:0000000000000a5d .LLST51
     /tmp/ccc39oBq.s:9131   .debug_str:0000000000000dfb .LASF255
     /tmp/ccc39oBq.s:9311   .debug_str:00000000000013ed .LASF282
     /tmp/ccc39oBq.s:1074   .text:0000000000000610 .LFB21
     /tmp/ccc39oBq.s:1216   .text:00000000000006c8 .LFE21
     /tmp/ccc39oBq.s:7994   .debug_loc:0000000000000a93 .LLST38
     /tmp/ccc39oBq.s:8855   .debug_str:000000000000043d .LASF256
     /tmp/ccc39oBq.s:8008   .debug_loc:0000000000000acc .LLST39
     /tmp/ccc39oBq.s:8885   .debug_str:00000000000004e1 .LASF257
     /tmp/ccc39oBq.s:8033   .debug_loc:0000000000000b3e .LLST40
     /tmp/ccc39oBq.s:8857   .debug_str:0000000000000446 .LASF258
     /tmp/ccc39oBq.s:9249   .debug_str:000000000000119f .LASF259
     /tmp/ccc39oBq.s:9021   .debug_str:0000000000000a09 .LASF260
     /tmp/ccc39oBq.s:1115   .text:000000000000063c .LBB8
     /tmp/ccc39oBq.s:1158   .text:0000000000000678 .LBE8
     /tmp/ccc39oBq.s:8048   .debug_loc:0000000000000b87 .LLST41
     /tmp/ccc39oBq.s:1128   .text:0000000000000650 .LBB9
     /tmp/ccc39oBq.s:1157   .text:0000000000000678 .LBE9
     /tmp/ccc39oBq.s:9101   .debug_str:0000000000000ce0 .LASF261
     /tmp/ccc39oBq.s:8060   .debug_loc:0000000000000bbe .LLST42
     /tmp/ccc39oBq.s:8859   .debug_str:000000000000044e .LASF262
     /tmp/ccc39oBq.s:8071   .debug_loc:0000000000000bf4 .LLST43
     /tmp/ccc39oBq.s:9365   .debug_str:00000000000015cf .LASF263
     /tmp/ccc39oBq.s:8082   .debug_loc:0000000000000c2a .LLST44
     /tmp/ccc39oBq.s:1159   .text:0000000000000678 .LBB10
     /tmp/ccc39oBq.s:1204   .text:00000000000006b8 .LBE10
     /tmp/ccc39oBq.s:1172   .text:000000000000068c .LBB11
     /tmp/ccc39oBq.s:1203   .text:00000000000006b8 .LBE11
     /tmp/ccc39oBq.s:8093   .debug_loc:0000000000000c60 .LLST45
     /tmp/ccc39oBq.s:8104   .debug_loc:0000000000000c96 .LLST46
     /tmp/ccc39oBq.s:8115   .debug_loc:0000000000000ccc .LLST47
     /tmp/ccc39oBq.s:8945   .debug_str:00000000000007aa .LASF264
     /tmp/ccc39oBq.s:8757   .debug_str:00000000000000db .LASF268
     /tmp/ccc39oBq.s:919    .text:0000000000000530 .LFB20
     /tmp/ccc39oBq.s:1068   .text:0000000000000610 .LFE20
     /tmp/ccc39oBq.s:8126   .debug_loc:0000000000000d02 .LLST33
     /tmp/ccc39oBq.s:9083   .debug_str:0000000000000c61 .LASF265
     /tmp/ccc39oBq.s:8144   .debug_loc:0000000000000d4e .LLST34
     /tmp/ccc39oBq.s:8819   .debug_str:0000000000000323 .LASF266
     /tmp/ccc39oBq.s:8155   .debug_loc:0000000000000d84 .LLST35
     /tmp/ccc39oBq.s:990    .text:000000000000059c .LBB5
     /tmp/ccc39oBq.s:1011   .text:00000000000005bc .LBE5
     /tmp/ccc39oBq.s:8180   .debug_loc:0000000000000dd8 .LLST36
     /tmp/ccc39oBq.s:1018   .text:00000000000005c4 .LBB7
     /tmp/ccc39oBq.s:1049   .text:00000000000005f4 .LBE7
     /tmp/ccc39oBq.s:8192   .debug_loc:0000000000000e0f .LLST37
     /tmp/ccc39oBq.s:943    .text:000000000000055c .LVL83
     /tmp/ccc39oBq.s:9111   .debug_str:0000000000000d18 .LASF267
     /tmp/ccc39oBq.s:9035   .debug_str:0000000000000a78 .LASF269
     /tmp/ccc39oBq.s:865    .text:00000000000004d8 .LFB19
     /tmp/ccc39oBq.s:913    .text:0000000000000530 .LFE19
     /tmp/ccc39oBq.s:8199   .debug_loc:0000000000000e32 .LLST31
GAS LISTING /tmp/ccc39oBq.s 			page 95


     /tmp/ccc39oBq.s:8217   .debug_loc:0000000000000e7e .LLST32
     /tmp/ccc39oBq.s:890    .text:0000000000000508 .LVL77
     /tmp/ccc39oBq.s:896    .text:0000000000000518 .LVL78
     /tmp/ccc39oBq.s:8865   .debug_str:0000000000000465 .LASF270
     /tmp/ccc39oBq.s:9273   .debug_str:0000000000001283 .LASF271
     /tmp/ccc39oBq.s:811    .text:0000000000000480 .LFB18
     /tmp/ccc39oBq.s:859    .text:00000000000004d8 .LFE18
     /tmp/ccc39oBq.s:8235   .debug_loc:0000000000000eca .LLST29
     /tmp/ccc39oBq.s:8253   .debug_loc:0000000000000f16 .LLST30
     /tmp/ccc39oBq.s:836    .text:00000000000004b0 .LVL70
     /tmp/ccc39oBq.s:842    .text:00000000000004c0 .LVL71
     /tmp/ccc39oBq.s:8969   .debug_str:0000000000000851 .LASF272
     /tmp/ccc39oBq.s:8803   .debug_str:0000000000000292 .LASF273
     /tmp/ccc39oBq.s:755    .text:0000000000000428 .LFB17
     /tmp/ccc39oBq.s:805    .text:0000000000000480 .LFE17
     /tmp/ccc39oBq.s:8271   .debug_loc:0000000000000f62 .LLST27
     /tmp/ccc39oBq.s:8289   .debug_loc:0000000000000fae .LLST28
     /tmp/ccc39oBq.s:782    .text:0000000000000458 .LVL63
     /tmp/ccc39oBq.s:788    .text:0000000000000468 .LVL64
     /tmp/ccc39oBq.s:8781   .debug_str:00000000000001df .LASF274
     /tmp/ccc39oBq.s:8735   .debug_str:000000000000001b .LASF275
     /tmp/ccc39oBq.s:699    .text:00000000000003d0 .LFB16
     /tmp/ccc39oBq.s:749    .text:0000000000000428 .LFE16
     /tmp/ccc39oBq.s:8296   .debug_loc:0000000000000fd1 .LLST25
     /tmp/ccc39oBq.s:8314   .debug_loc:000000000000101d .LLST26
     /tmp/ccc39oBq.s:726    .text:0000000000000400 .LVL56
     /tmp/ccc39oBq.s:732    .text:0000000000000410 .LVL57
     /tmp/ccc39oBq.s:8751   .debug_str:00000000000000b6 .LASF276
     /tmp/ccc39oBq.s:9301   .debug_str:0000000000001397 .LASF277
     /tmp/ccc39oBq.s:628    .text:0000000000000374 .LFB15
     /tmp/ccc39oBq.s:693    .text:00000000000003d0 .LFE15
     /tmp/ccc39oBq.s:8965   .debug_str:0000000000000840 .LASF278
     /tmp/ccc39oBq.s:8955   .debug_str:00000000000007fc .LASF279
     /tmp/ccc39oBq.s:9241   .debug_str:0000000000001153 .LASF280
     /tmp/ccc39oBq.s:584    .text:0000000000000340 .LFB14
     /tmp/ccc39oBq.s:622    .text:0000000000000374 .LFE14
     /tmp/ccc39oBq.s:8827   .debug_str:000000000000034c .LASF281
     /tmp/ccc39oBq.s:8929   .debug_str:00000000000006f2 .LASF283
     /tmp/ccc39oBq.s:555    .text:0000000000000320 .LFB13
     /tmp/ccc39oBq.s:578    .text:0000000000000340 .LFE13
     /tmp/ccc39oBq.s:8321   .debug_loc:0000000000001040 .LLST24
     /tmp/ccc39oBq.s:9343   .debug_str:00000000000014e9 .LASF284
     /tmp/ccc39oBq.s:8831   .debug_str:0000000000000364 .LASF285
     /tmp/ccc39oBq.s:523    .text:00000000000002f8 .LFB12
     /tmp/ccc39oBq.s:549    .text:0000000000000320 .LFE12
     /tmp/ccc39oBq.s:8335   .debug_loc:0000000000001079 .LLST23
     /tmp/ccc39oBq.s:9027   .debug_str:0000000000000a35 .LASF286
     /tmp/ccc39oBq.s:9261   .debug_str:00000000000011fc .LASF287
     /tmp/ccc39oBq.s:405    .text:0000000000000240 .LFB11
     /tmp/ccc39oBq.s:517    .text:00000000000002f8 .LFE11
     /tmp/ccc39oBq.s:8349   .debug_loc:00000000000010b2 .LLST19
     /tmp/ccc39oBq.s:8371   .debug_loc:0000000000001111 .LLST20
     /tmp/ccc39oBq.s:8795   .debug_str:0000000000000249 .LASF288
     /tmp/ccc39oBq.s:8382   .debug_loc:0000000000001147 .LLST21
     /tmp/ccc39oBq.s:426    .text:0000000000000264 .LBB4
     /tmp/ccc39oBq.s:467    .text:00000000000002a8 .LBE4
     /tmp/ccc39oBq.s:8393   .debug_loc:000000000000117d .LLST22
GAS LISTING /tmp/ccc39oBq.s 			page 96


     /tmp/ccc39oBq.s:442    .text:0000000000000284 .LVL36
     /tmp/ccc39oBq.s:482    .text:00000000000002c4 .LVL43
     /tmp/ccc39oBq.s:9183   .debug_str:0000000000000fb3 .LASF289
     /tmp/ccc39oBq.s:9263   .debug_str:0000000000001217 .LASF290
     /tmp/ccc39oBq.s:359    .text:00000000000001f8 .LFB10
     /tmp/ccc39oBq.s:399    .text:0000000000000240 .LFE10
     /tmp/ccc39oBq.s:8404   .debug_loc:00000000000011b3 .LLST17
     /tmp/ccc39oBq.s:8418   .debug_loc:00000000000011ec .LLST18
     /tmp/ccc39oBq.s:9255   .debug_str:00000000000011c7 .LASF291
     /tmp/ccc39oBq.s:9165   .debug_str:0000000000000f0d .LASF292
     /tmp/ccc39oBq.s:317    .text:00000000000001b8 .LFB9
     /tmp/ccc39oBq.s:353    .text:00000000000001f8 .LFE9
     /tmp/ccc39oBq.s:8432   .debug_loc:0000000000001225 .LLST15
     /tmp/ccc39oBq.s:8446   .debug_loc:000000000000125e .LLST16
     /tmp/ccc39oBq.s:9033   .debug_str:0000000000000a64 .LASF293
     /tmp/ccc39oBq.s:8933   .debug_str:0000000000000711 .LASF294
     /tmp/ccc39oBq.s:246    .text:0000000000000144 .LFB8
     /tmp/ccc39oBq.s:311    .text:00000000000001b8 .LFE8
     /tmp/ccc39oBq.s:8460   .debug_loc:0000000000001297 .LLST12
     /tmp/ccc39oBq.s:9253   .debug_str:00000000000011b4 .LASF295
     /tmp/ccc39oBq.s:8485   .debug_loc:00000000000012fc .LLST13
     /tmp/ccc39oBq.s:265    .text:000000000000015c .LBB3
     /tmp/ccc39oBq.s:283    .text:000000000000017c .LBE3
     /tmp/ccc39oBq.s:8496   .debug_loc:0000000000001332 .LLST14
     /tmp/ccc39oBq.s:295    .text:00000000000001a0 .LVL26
     /tmp/ccc39oBq.s:9227   .debug_str:0000000000001110 .LASF296
     /tmp/ccc39oBq.s:9067   .debug_str:0000000000000bbe .LASF297
     /tmp/ccc39oBq.s:153    .text:00000000000000b8 .LFB7
     /tmp/ccc39oBq.s:235    .text:0000000000000144 .LFE7
     /tmp/ccc39oBq.s:8508   .debug_loc:0000000000001369 .LLST6
     /tmp/ccc39oBq.s:9085   .debug_str:0000000000000c69 .LASF298
     /tmp/ccc39oBq.s:8526   .debug_loc:00000000000013b5 .LLST7
     /tmp/ccc39oBq.s:8544   .debug_loc:0000000000001401 .LLST8
     /tmp/ccc39oBq.s:8563   .debug_loc:000000000000144e .LLST9
     /tmp/ccc39oBq.s:8582   .debug_loc:000000000000149b .LLST10
     /tmp/ccc39oBq.s:8601   .debug_loc:00000000000014e8 .LLST11
     /tmp/ccc39oBq.s:187    .text:0000000000000100 .LVL14
     /tmp/ccc39oBq.s:9245   .debug_str:000000000000117d .LASF299
     /tmp/ccc39oBq.s:8915   .debug_str:00000000000005a9 .LASF300
     /tmp/ccc39oBq.s:59     .text:0000000000000034 .LFB6
     /tmp/ccc39oBq.s:147    .text:00000000000000b8 .LFE6
     /tmp/ccc39oBq.s:8620   .debug_loc:0000000000001535 .LLST2
     /tmp/ccc39oBq.s:8642   .debug_loc:0000000000001594 .LLST3
     /tmp/ccc39oBq.s:8649   .debug_loc:00000000000015b7 .LLST4
     /tmp/ccc39oBq.s:102    .text:0000000000000074 .LBB2
     /tmp/ccc39oBq.s:119    .text:000000000000008c .LBE2
     /tmp/ccc39oBq.s:9277   .debug_str:00000000000012c2 .LASF301
     /tmp/ccc39oBq.s:8661   .debug_loc:00000000000015ee .LLST5
     /tmp/ccc39oBq.s:111    .text:0000000000000084 .LVL7
     /tmp/ccc39oBq.s:9287   .debug_str:0000000000001319 .LASF302
     /tmp/ccc39oBq.s:8849   .debug_str:000000000000040d .LASF303
     /tmp/ccc39oBq.s:10     .text:0000000000000000 .LFB5
     /tmp/ccc39oBq.s:53     .text:0000000000000034 .LFE5
     /tmp/ccc39oBq.s:8668   .debug_loc:0000000000001611 .LLST0
     /tmp/ccc39oBq.s:8679   .debug_loc:0000000000001647 .LLST1
     /tmp/ccc39oBq.s:9115   .debug_str:0000000000000d4d .LASF304
     /tmp/ccc39oBq.s:8779   .debug_str:00000000000001d3 .LASF306
GAS LISTING /tmp/ccc39oBq.s 			page 97


     /tmp/ccc39oBq.s:8763   .debug_str:0000000000000129 .LASF305
     /tmp/ccc39oBq.s:8809   .debug_str:00000000000002eb .LASF307
     /tmp/ccc39oBq.s:8847   .debug_str:00000000000003f9 .LASF308
     /tmp/ccc39oBq.s:9335   .debug_str:00000000000014b5 .LASF309
     /tmp/ccc39oBq.s:8853   .debug_str:000000000000042c .LASF310
     /tmp/ccc39oBq.s:9177   .debug_str:0000000000000f7d .LASF311
     /tmp/ccc39oBq.s:8829   .debug_str:0000000000000352 .LASF312
     /tmp/ccc39oBq.s:8747   .debug_str:0000000000000095 .LASF313
     /tmp/ccc39oBq.s:2684   .text:0000000000001054 .LVL277
     /tmp/ccc39oBq.s:2706   .text:000000000000107c .LVL278
     /tmp/ccc39oBq.s:2730   .text:000000000000109c .LVL279
     /tmp/ccc39oBq.s:2734   .text:00000000000010a4 .LVL280
     /tmp/ccc39oBq.s:2750   .text:00000000000010cc .LVL283
     /tmp/ccc39oBq.s:2758   .text:00000000000010d0 .LVL284
     /tmp/ccc39oBq.s:2631   .text:000000000000101c .LVL272
     /tmp/ccc39oBq.s:2646   .text:0000000000001034 .LVL273
     /tmp/ccc39oBq.s:2659   .text:000000000000104c .LVL275
     /tmp/ccc39oBq.s:2663   .text:0000000000001050 .LVL276
     /tmp/ccc39oBq.s:2552   .text:0000000000000f94 .LVL264
     /tmp/ccc39oBq.s:2576   .text:0000000000000fc0 .LVL265
     /tmp/ccc39oBq.s:2587   .text:0000000000000fcc .LVL266
     /tmp/ccc39oBq.s:2591   .text:0000000000000fd4 .LVL267
     /tmp/ccc39oBq.s:2469   .text:0000000000000f0c .LVL255
     /tmp/ccc39oBq.s:2492   .text:0000000000000f34 .LVL256
     /tmp/ccc39oBq.s:2535   .text:0000000000000f88 .LVL262
     /tmp/ccc39oBq.s:2539   .text:0000000000000f90 .LVL263
     /tmp/ccc39oBq.s:2505   .text:0000000000000f54 .LVL257
     /tmp/ccc39oBq.s:2532   .text:0000000000000f84 .LVL261
     /tmp/ccc39oBq.s:2346   .text:0000000000000e08 .LVL243
     /tmp/ccc39oBq.s:2383   .text:0000000000000e50 .LVL246
     /tmp/ccc39oBq.s:2407   .text:0000000000000e8c .LVL250
     /tmp/ccc39oBq.s:2426   .text:0000000000000eac .LVL251
     /tmp/ccc39oBq.s:2377   .text:0000000000000e48 .LVL245
     /tmp/ccc39oBq.s:2387   .text:0000000000000e54 .LVL247
     /tmp/ccc39oBq.s:2401   .text:0000000000000e78 .LVL248
     /tmp/ccc39oBq.s:2048   .text:0000000000000bc4 .LVL205
     /tmp/ccc39oBq.s:2068   .text:0000000000000bec .LVL206
     /tmp/ccc39oBq.s:2201   .text:0000000000000d14 .LVL229
     /tmp/ccc39oBq.s:2205   .text:0000000000000d1c .LVL230
     /tmp/ccc39oBq.s:2118   .text:0000000000000c84 .LVL216
     /tmp/ccc39oBq.s:2198   .text:0000000000000d10 .LVL228
     /tmp/ccc39oBq.s:1962   .text:0000000000000b74 .LVL200
     /tmp/ccc39oBq.s:2003   .text:0000000000000bc0 .LVL204
     /tmp/ccc39oBq.s:1999   .text:0000000000000bb8 .LVL203
     /tmp/ccc39oBq.s:1683   .text:0000000000000998 .LVL161
     /tmp/ccc39oBq.s:1703   .text:00000000000009bc .LVL162
     /tmp/ccc39oBq.s:1782   .text:0000000000000a3c .LVL176
     /tmp/ccc39oBq.s:1788   .text:0000000000000a48 .LVL177
     /tmp/ccc39oBq.s:1759   .text:0000000000000a1c .LVL172
     /tmp/ccc39oBq.s:1763   .text:0000000000000a20 .LVL173
     /tmp/ccc39oBq.s:1768   .text:0000000000000a2c .LVL175
     /tmp/ccc39oBq.s:1801   .text:0000000000000a58 .LVL179
     /tmp/ccc39oBq.s:1720   .text:00000000000009d4 .LVL164
     /tmp/ccc39oBq.s:1724   .text:00000000000009d8 .LVL165
     /tmp/ccc39oBq.s:1749   .text:0000000000000a10 .LVL170
     /tmp/ccc39oBq.s:1822   .text:0000000000000a7c .LVL182
     /tmp/ccc39oBq.s:1826   .text:0000000000000a80 .LVL183
GAS LISTING /tmp/ccc39oBq.s 			page 98


     /tmp/ccc39oBq.s:1851   .text:0000000000000ab8 .LVL188
     /tmp/ccc39oBq.s:1878   .text:0000000000000ad0 .LVL189
     /tmp/ccc39oBq.s:1904   .text:0000000000000b0c .LVL190
     /tmp/ccc39oBq.s:1942   .text:0000000000000b64 .LVL197
     /tmp/ccc39oBq.s:1939   .text:0000000000000b60 .LVL196
     /tmp/ccc39oBq.s:1945   .text:0000000000000b68 .LVL198
     /tmp/ccc39oBq.s:1948   .text:0000000000000b6c .LVL199
     /tmp/ccc39oBq.s:1909   .text:0000000000000b1c .LVL192
     /tmp/ccc39oBq.s:1936   .text:0000000000000b5c .LVL195
     /tmp/ccc39oBq.s:1645   .text:0000000000000960 .LVL158
     /tmp/ccc39oBq.s:2285   .text:0000000000000dac .LVL237
     /tmp/ccc39oBq.s:2327   .text:0000000000000e00 .LVL242
     /tmp/ccc39oBq.s:1463   .text:0000000000000828 .LVL141
     /tmp/ccc39oBq.s:1571   .text:00000000000008e8 .LVL150
     /tmp/ccc39oBq.s:1582   .text:00000000000008fc .LVL152
     /tmp/ccc39oBq.s:1625   .text:000000000000095c .LVL157
     /tmp/ccc39oBq.s:1511   .text:0000000000000884 .LVL143
     /tmp/ccc39oBq.s:1576   .text:00000000000008f0 .LVL151
     /tmp/ccc39oBq.s:1499   .text:0000000000000870 .LVL142
     /tmp/ccc39oBq.s:1560   .text:00000000000008dc .LVL149
     /tmp/ccc39oBq.s:1517   .text:0000000000000890 .LVL145
     /tmp/ccc39oBq.s:1402   .text:00000000000007a4 .LVL134
     /tmp/ccc39oBq.s:1417   .text:00000000000007c4 .LVL135
     /tmp/ccc39oBq.s:1449   .text:0000000000000820 .LVL140
     /tmp/ccc39oBq.s:1341   .text:0000000000000758 .LVL131
     /tmp/ccc39oBq.s:1357   .text:0000000000000778 .LVL133
     /tmp/ccc39oBq.s:1353   .text:0000000000000770 .LVL132
     /tmp/ccc39oBq.s:1225   .text:00000000000006c8 .LVL118
     /tmp/ccc39oBq.s:1240   .text:00000000000006e4 .LVL119
     /tmp/ccc39oBq.s:1324   .text:0000000000000750 .LVL129
     /tmp/ccc39oBq.s:1329   .text:0000000000000754 .LVL130
     /tmp/ccc39oBq.s:1273   .text:0000000000000710 .LVL123
     /tmp/ccc39oBq.s:1284   .text:000000000000071c .LVL124
     /tmp/ccc39oBq.s:1242   .text:00000000000006e8 .LVL120
     /tmp/ccc39oBq.s:1248   .text:00000000000006ec .LVL121
     /tmp/ccc39oBq.s:1268   .text:0000000000000708 .LVL122
     /tmp/ccc39oBq.s:1292   .text:0000000000000724 .LVL126
     /tmp/ccc39oBq.s:1298   .text:0000000000000728 .LVL127
     /tmp/ccc39oBq.s:1318   .text:0000000000000744 .LVL128
     /tmp/ccc39oBq.s:1077   .text:0000000000000610 .LVL96
     /tmp/ccc39oBq.s:1208   .text:00000000000006bc .LVL117
     /tmp/ccc39oBq.s:1085   .text:000000000000061c .LVL97
     /tmp/ccc39oBq.s:1088   .text:0000000000000620 .LVL98
     /tmp/ccc39oBq.s:1119   .text:0000000000000644 .LVL101
     /tmp/ccc39oBq.s:1153   .text:0000000000000674 .LVL107
     /tmp/ccc39oBq.s:1155   .text:0000000000000678 .LVL108
     /tmp/ccc39oBq.s:1199   .text:00000000000006b4 .LVL115
     /tmp/ccc39oBq.s:1201   .text:00000000000006b8 .LVL116
     /tmp/ccc39oBq.s:1108   .text:0000000000000638 .LVL100
     /tmp/ccc39oBq.s:1150   .text:0000000000000670 .LVL106
     /tmp/ccc39oBq.s:1196   .text:00000000000006b0 .LVL114
     /tmp/ccc39oBq.s:1163   .text:0000000000000680 .LVL109
     /tmp/ccc39oBq.s:1123   .text:0000000000000648 .LVL102
     /tmp/ccc39oBq.s:1132   .text:0000000000000654 .LVL103
     /tmp/ccc39oBq.s:1138   .text:000000000000065c .LVL104
     /tmp/ccc39oBq.s:1142   .text:0000000000000660 .LVL105
     /tmp/ccc39oBq.s:1167   .text:0000000000000684 .LVL110
GAS LISTING /tmp/ccc39oBq.s 			page 99


     /tmp/ccc39oBq.s:1178   .text:0000000000000694 .LVL111
     /tmp/ccc39oBq.s:1184   .text:000000000000069c .LVL112
     /tmp/ccc39oBq.s:1188   .text:00000000000006a0 .LVL113
     /tmp/ccc39oBq.s:922    .text:0000000000000530 .LVL81
     /tmp/ccc39oBq.s:941    .text:0000000000000554 .LVL82
     /tmp/ccc39oBq.s:1063   .text:0000000000000608 .LVL95
     /tmp/ccc39oBq.s:957    .text:0000000000000574 .LVL84
     /tmp/ccc39oBq.s:1047   .text:00000000000005f4 .LVL94
     /tmp/ccc39oBq.s:976    .text:000000000000058c .LVL85
     /tmp/ccc39oBq.s:980    .text:0000000000000590 .LVL86
     /tmp/ccc39oBq.s:985    .text:0000000000000598 .LVL87
     /tmp/ccc39oBq.s:988    .text:000000000000059c .LVL88
     /tmp/ccc39oBq.s:993    .text:00000000000005a0 .LVL89
     /tmp/ccc39oBq.s:1021   .text:00000000000005c8 .LVL91
     /tmp/ccc39oBq.s:868    .text:00000000000004d8 .LVL74
     /tmp/ccc39oBq.s:888    .text:0000000000000500 .LVL76
     /tmp/ccc39oBq.s:908    .text:0000000000000528 .LVL80
     /tmp/ccc39oBq.s:886    .text:00000000000004fc .LVL75
     /tmp/ccc39oBq.s:905    .text:0000000000000524 .LVL79
     /tmp/ccc39oBq.s:814    .text:0000000000000480 .LVL67
     /tmp/ccc39oBq.s:834    .text:00000000000004a8 .LVL69
     /tmp/ccc39oBq.s:854    .text:00000000000004d0 .LVL73
     /tmp/ccc39oBq.s:832    .text:00000000000004a4 .LVL68
     /tmp/ccc39oBq.s:851    .text:00000000000004cc .LVL72
     /tmp/ccc39oBq.s:758    .text:0000000000000428 .LVL60
     /tmp/ccc39oBq.s:780    .text:0000000000000450 .LVL62
     /tmp/ccc39oBq.s:797    .text:0000000000000474 .LVL65
     /tmp/ccc39oBq.s:775    .text:0000000000000448 .LVL61
     /tmp/ccc39oBq.s:800    .text:0000000000000478 .LVL66
     /tmp/ccc39oBq.s:702    .text:00000000000003d0 .LVL53
     /tmp/ccc39oBq.s:724    .text:00000000000003f8 .LVL55
     /tmp/ccc39oBq.s:741    .text:000000000000041c .LVL58
     /tmp/ccc39oBq.s:719    .text:00000000000003f0 .LVL54
     /tmp/ccc39oBq.s:744    .text:0000000000000420 .LVL59
     /tmp/ccc39oBq.s:558    .text:0000000000000320 .LVL49
     /tmp/ccc39oBq.s:568    .text:0000000000000330 .LVL50
     /tmp/ccc39oBq.s:526    .text:00000000000002f8 .LVL47
     /tmp/ccc39oBq.s:538    .text:000000000000030c .LVL48
     /tmp/ccc39oBq.s:408    .text:0000000000000240 .LVL34
     /tmp/ccc39oBq.s:429    .text:0000000000000268 .LVL35
     /tmp/ccc39oBq.s:504    .text:00000000000002e4 .LVL45
     /tmp/ccc39oBq.s:510    .text:00000000000002f0 .LVL46
     /tmp/ccc39oBq.s:461    .text:00000000000002a4 .LVL39
     /tmp/ccc39oBq.s:465    .text:00000000000002a8 .LVL40
     /tmp/ccc39oBq.s:474    .text:00000000000002b0 .LVL42
     /tmp/ccc39oBq.s:490    .text:00000000000002d0 .LVL44
     /tmp/ccc39oBq.s:457    .text:000000000000029c .LVL38
     /tmp/ccc39oBq.s:470    .text:00000000000002ac .LVL41
     /tmp/ccc39oBq.s:362    .text:00000000000001f8 .LVL31
     /tmp/ccc39oBq.s:378    .text:0000000000000218 .LVL33
     /tmp/ccc39oBq.s:374    .text:0000000000000210 .LVL32
     /tmp/ccc39oBq.s:320    .text:00000000000001b8 .LVL28
     /tmp/ccc39oBq.s:336    .text:00000000000001d8 .LVL30
     /tmp/ccc39oBq.s:332    .text:00000000000001d0 .LVL29
     /tmp/ccc39oBq.s:249    .text:0000000000000144 .LVL20
     /tmp/ccc39oBq.s:293    .text:0000000000000198 .LVL25
     /tmp/ccc39oBq.s:306    .text:00000000000001b0 .LVL27
GAS LISTING /tmp/ccc39oBq.s 			page 100


     /tmp/ccc39oBq.s:263    .text:000000000000015c .LVL21
     /tmp/ccc39oBq.s:269    .text:0000000000000164 .LVL22
     /tmp/ccc39oBq.s:287    .text:0000000000000180 .LVL24
     /tmp/ccc39oBq.s:156    .text:00000000000000b8 .LVL11
     /tmp/ccc39oBq.s:177    .text:00000000000000e4 .LVL12
     /tmp/ccc39oBq.s:218    .text:000000000000012c .LVL15
     /tmp/ccc39oBq.s:185    .text:00000000000000f8 .LVL13
     /tmp/ccc39oBq.s:230    .text:000000000000013c .LVL19
     /tmp/ccc39oBq.s:227    .text:0000000000000138 .LVL18
     /tmp/ccc39oBq.s:224    .text:0000000000000134 .LVL17
     /tmp/ccc39oBq.s:221    .text:0000000000000130 .LVL16
     /tmp/ccc39oBq.s:62     .text:0000000000000034 .LVL3
     /tmp/ccc39oBq.s:94     .text:000000000000006c .LVL5
     /tmp/ccc39oBq.s:122    .text:0000000000000090 .LVL9
     /tmp/ccc39oBq.s:126    .text:0000000000000094 .LVL10
     /tmp/ccc39oBq.s:90     .text:0000000000000068 .LVL4
     /tmp/ccc39oBq.s:118    .text:000000000000008c .LVL8
     /tmp/ccc39oBq.s:106    .text:0000000000000078 .LVL6
     /tmp/ccc39oBq.s:14     .text:0000000000000000 .LVL0
     /tmp/ccc39oBq.s:34     .text:000000000000001c .LVL1
     /tmp/ccc39oBq.s:38     .text:0000000000000020 .LVL2
     /tmp/ccc39oBq.s:2779   .debug_info:0000000000000000 .Ldebug_info0
     /tmp/ccc39oBq.s:1244   .text:00000000000006e8 .LBB12
     /tmp/ccc39oBq.s:1250   .text:00000000000006ec .LBE12
     /tmp/ccc39oBq.s:1254   .text:00000000000006f0 .LBB13
     /tmp/ccc39oBq.s:1275   .text:0000000000000710 .LBE13
     /tmp/ccc39oBq.s:1294   .text:0000000000000724 .LBB14
     /tmp/ccc39oBq.s:1300   .text:0000000000000728 .LBE14
     /tmp/ccc39oBq.s:1304   .text:000000000000072c .LBB15
     /tmp/ccc39oBq.s:1326   .text:0000000000000750 .LBE15
     /tmp/ccc39oBq.s:1753   .text:0000000000000a10 .LBB20
     /tmp/ccc39oBq.s:1770   .text:0000000000000a2c .LBE20
     /tmp/ccc39oBq.s:1792   .text:0000000000000a48 .LBB21
     /tmp/ccc39oBq.s:1803   .text:0000000000000a58 .LBE21
     /tmp/ccc39oBq.s:2486   .text:0000000000000f2c .LBB26
     /tmp/ccc39oBq.s:2489   .text:0000000000000f30 .LBE26
     /tmp/ccc39oBq.s:2494   .text:0000000000000f34 .LBB27
     /tmp/ccc39oBq.s:2515   .text:0000000000000f68 .LBE27

UNDEFINED SYMBOLS
_Z10buddy_freePvm
_Z11buddy_allocm
_ZN8KConsole15trapPrintStringEPKc
_ZN8KConsole18trapPrintStringIntEPKcmi
_Z10buddy_initPvm
_Z14printBuddyInfov
_Z11getDeg2Ceilm
