GAS LISTING /tmp/ccXZbqyZ.s 			page 1


   1              		.file	"slabTests.cpp"
   2              		.option pic
   3              		.option norelax
   4              		.text
   5              	.Ltext0:
   6              		.align	2
   7              		.globl	_Z12slabInitTestv
   9              	_Z12slabInitTestv:
  10              	.LFB5:
  11              		.file 1 "src/kernel/slabTests.cpp"
   1:src/kernel/slabTests.cpp **** #include "../../h/slabTests.hpp"
   2:src/kernel/slabTests.cpp **** #include "../../h/KConsole.hpp"
   3:src/kernel/slabTests.cpp **** 
   4:src/kernel/slabTests.cpp **** void slabInitTest()
   5:src/kernel/slabTests.cpp **** {
  12              		.loc 1 5 1
  13              		.cfi_startproc
  14 0000 130101FF 		addi	sp,sp,-16
  15              		.cfi_def_cfa_offset 16
  16 0004 23341100 		sd	ra,8(sp)
  17 0008 23308100 		sd	s0,0(sp)
  18              		.cfi_offset 1, -8
  19              		.cfi_offset 8, -16
  20 000c 13040101 		addi	s0,sp,16
  21              		.cfi_def_cfa 8, 0
   6:src/kernel/slabTests.cpp ****     kmem_init((void*)HEAP_START_ADDR, 15);
  22              		.loc 1 6 5
  23              		.loc 1 6 14 is_stmt 0
  24 0010 9305F000 		li	a1,15
  25 0014 97070000 		la	a5,HEAP_START_ADDR
  25      83B70700 
  26 001c 03B50700 		ld	a0,0(a5)
  27 0020 97000000 		call	_Z9kmem_initPvi@plt
  27      E7800000 
  28              	.LVL0:
   7:src/kernel/slabTests.cpp **** }
  29              		.loc 1 7 1
  30 0028 83308100 		ld	ra,8(sp)
  31              		.cfi_restore 1
  32 002c 03340100 		ld	s0,0(sp)
  33              		.cfi_restore 8
  34              		.cfi_def_cfa 2, 16
  35 0030 13010101 		addi	sp,sp,16
  36              		.cfi_def_cfa_offset 0
  37 0034 67800000 		jr	ra
  38              		.cfi_endproc
  39              	.LFE5:
  41              		.section	.rodata.str1.8,"aMS",@progbits,1
  42              		.align	3
  43              	.LC0:
  44 0000 43616368 		.string	"Cache test"
  44      65207465 
  44      737400
  45 000b 00000000 		.align	3
  45      00
  46              	.LC1:
  47 0010 43616368 		.string	"Cache test 2"
GAS LISTING /tmp/ccXZbqyZ.s 			page 2


  47      65207465 
  47      73742032 
  47      00
  48 001d 000000   		.align	3
  49              	.LC2:
  50 0020 43616368 		.string	"Cache test 3"
  50      65207465 
  50      73742033 
  50      00
  51              		.text
  52              		.align	2
  53              		.globl	_Z19slabCacheCreateTestv
  55              	_Z19slabCacheCreateTestv:
  56              	.LFB6:
   8:src/kernel/slabTests.cpp **** 
   9:src/kernel/slabTests.cpp **** void slabCacheCreateTest()
  10:src/kernel/slabTests.cpp **** {
  57              		.loc 1 10 1 is_stmt 1
  58              		.cfi_startproc
  59 0038 130101FE 		addi	sp,sp,-32
  60              		.cfi_def_cfa_offset 32
  61 003c 233C1100 		sd	ra,24(sp)
  62 0040 23388100 		sd	s0,16(sp)
  63 0044 23349100 		sd	s1,8(sp)
  64 0048 23302101 		sd	s2,0(sp)
  65              		.cfi_offset 1, -8
  66              		.cfi_offset 8, -16
  67              		.cfi_offset 9, -24
  68              		.cfi_offset 18, -32
  69 004c 13040102 		addi	s0,sp,32
  70              		.cfi_def_cfa 8, 0
  11:src/kernel/slabTests.cpp ****     kmem_init((void*)HEAP_START_ADDR, 15);
  71              		.loc 1 11 5
  72              		.loc 1 11 14 is_stmt 0
  73 0050 9305F000 		li	a1,15
  74 0054 97070000 		la	a5,HEAP_START_ADDR
  74      83B70700 
  75 005c 03B50700 		ld	a0,0(a5)
  76 0060 97000000 		call	_Z9kmem_initPvi@plt
  76      E7800000 
  77              	.LVL1:
  12:src/kernel/slabTests.cpp ****     kmem_cache_t* cache = kmem_cache_create("Cache test", 10, nullptr,nullptr);
  78              		.loc 1 12 5 is_stmt 1
  79              		.loc 1 12 44 is_stmt 0
  80 0068 93060000 		li	a3,0
  81 006c 13060000 		li	a2,0
  82 0070 9305A000 		li	a1,10
  83 0074 17050000 		lla	a0,.LC0
  83      13050500 
  84 007c 97000000 		call	_Z17kmem_cache_createPKcmPFvPvES3_@plt
  84      E7800000 
  85              	.LVL2:
  86 0084 93040500 		mv	s1,a0
  87              	.LVL3:
  13:src/kernel/slabTests.cpp ****     kmem_cache_t* cache2 = kmem_cache_create("Cache test 2", 10, nullptr,nullptr);
  88              		.loc 1 13 5 is_stmt 1
  89              		.loc 1 13 45 is_stmt 0
GAS LISTING /tmp/ccXZbqyZ.s 			page 3


  90 0088 93060000 		li	a3,0
  91 008c 13060000 		li	a2,0
  92 0090 9305A000 		li	a1,10
  93 0094 17050000 		lla	a0,.LC1
  93      13050500 
  94 009c 97000000 		call	_Z17kmem_cache_createPKcmPFvPvES3_@plt
  94      E7800000 
  95              	.LVL4:
  96 00a4 13090500 		mv	s2,a0
  97              	.LVL5:
  14:src/kernel/slabTests.cpp ****     kmem_cache_t* cache3 = kmem_cache_create("Cache test 3", 10, nullptr,nullptr);
  98              		.loc 1 14 5 is_stmt 1
  99              		.loc 1 14 45 is_stmt 0
 100 00a8 93060000 		li	a3,0
 101 00ac 13060000 		li	a2,0
 102 00b0 9305A000 		li	a1,10
 103 00b4 17050000 		lla	a0,.LC2
 103      13050500 
 104              	.LVL6:
 105 00bc 97000000 		call	_Z17kmem_cache_createPKcmPFvPvES3_@plt
 105      E7800000 
 106              	.LVL7:
  15:src/kernel/slabTests.cpp ****     if(cache && cache2 && cache3)
 107              		.loc 1 15 5 is_stmt 1
 108 00c4 638A0400 		beqz	s1,.L3
 109              		.loc 1 15 14 is_stmt 0 discriminator 1
 110 00c8 63080900 		beqz	s2,.L3
 111              		.loc 1 15 24 discriminator 2
 112 00cc 63060500 		beqz	a0,.L3
  16:src/kernel/slabTests.cpp ****         printSlabAllocatorInfo();
 113              		.loc 1 16 9 is_stmt 1
 114              		.loc 1 16 31 is_stmt 0
 115 00d0 97000000 		call	_Z22printSlabAllocatorInfov@plt
 115      E7800000 
 116              	.LVL8:
 117              	.L3:
  17:src/kernel/slabTests.cpp **** }
 118              		.loc 1 17 1
 119 00d8 83308101 		ld	ra,24(sp)
 120              		.cfi_restore 1
 121 00dc 03340101 		ld	s0,16(sp)
 122              		.cfi_restore 8
 123              		.cfi_def_cfa 2, 32
 124 00e0 83348100 		ld	s1,8(sp)
 125              		.cfi_restore 9
 126              	.LVL9:
 127 00e4 03390100 		ld	s2,0(sp)
 128              		.cfi_restore 18
 129              	.LVL10:
 130 00e8 13010102 		addi	sp,sp,32
 131              		.cfi_def_cfa_offset 0
 132 00ec 67800000 		jr	ra
 133              		.cfi_endproc
 134              	.LFE6:
 136              		.align	2
 137              		.globl	_Z20slabCacheCreateTest2v
 139              	_Z20slabCacheCreateTest2v:
GAS LISTING /tmp/ccXZbqyZ.s 			page 4


 140              	.LFB7:
  18:src/kernel/slabTests.cpp **** 
  19:src/kernel/slabTests.cpp **** void slabCacheCreateTest2()
  20:src/kernel/slabTests.cpp **** {
 141              		.loc 1 20 1 is_stmt 1
 142              		.cfi_startproc
 143 00f0 130101FE 		addi	sp,sp,-32
 144              		.cfi_def_cfa_offset 32
 145 00f4 233C1100 		sd	ra,24(sp)
 146 00f8 23388100 		sd	s0,16(sp)
 147 00fc 23349100 		sd	s1,8(sp)
 148 0100 23302101 		sd	s2,0(sp)
 149              		.cfi_offset 1, -8
 150              		.cfi_offset 8, -16
 151              		.cfi_offset 9, -24
 152              		.cfi_offset 18, -32
 153 0104 13040102 		addi	s0,sp,32
 154              		.cfi_def_cfa 8, 0
  21:src/kernel/slabTests.cpp ****     kmem_init((void*)HEAP_START_ADDR, 15);
 155              		.loc 1 21 5
 156              		.loc 1 21 14 is_stmt 0
 157 0108 9305F000 		li	a1,15
 158 010c 97070000 		la	a5,HEAP_START_ADDR
 158      83B70700 
 159 0114 03B50700 		ld	a0,0(a5)
 160 0118 97000000 		call	_Z9kmem_initPvi@plt
 160      E7800000 
 161              	.LVL11:
  22:src/kernel/slabTests.cpp ****     kmem_cache_t * cache = nullptr;
 162              		.loc 1 22 5 is_stmt 1
  23:src/kernel/slabTests.cpp ****     for(int i = 1;i<=68;i++)
 163              		.loc 1 23 5
 164              	.LBB2:
 165              		.loc 1 23 13 is_stmt 0
 166 0120 93041000 		li	s1,1
 167              	.LBE2:
  22:src/kernel/slabTests.cpp ****     kmem_cache_t * cache = nullptr;
 168              		.loc 1 22 20
 169 0124 13090000 		li	s2,0
 170              	.LVL12:
 171              	.L8:
 172              	.LBB3:
 173              		.loc 1 23 20 is_stmt 1 discriminator 3
 174 0128 93074004 		li	a5,68
 175 012c 63C69702 		bgt	s1,a5,.L7
  24:src/kernel/slabTests.cpp ****     {
  25:src/kernel/slabTests.cpp ****         cache = kmem_cache_create("Cache test", 10, nullptr,nullptr);
 176              		.loc 1 25 9 discriminator 2
 177              		.loc 1 25 34 is_stmt 0 discriminator 2
 178 0130 93060000 		li	a3,0
 179 0134 13060000 		li	a2,0
 180 0138 9305A000 		li	a1,10
 181 013c 17050000 		lla	a0,.LC0
 181      13050500 
 182 0144 97000000 		call	_Z17kmem_cache_createPKcmPFvPvES3_@plt
 182      E7800000 
 183              	.LVL13:
GAS LISTING /tmp/ccXZbqyZ.s 			page 5


 184 014c 13090500 		mv	s2,a0
 185              	.LVL14:
  23:src/kernel/slabTests.cpp ****     for(int i = 1;i<=68;i++)
 186              		.loc 1 23 5 is_stmt 1 discriminator 2
 187 0150 9B841400 		addiw	s1,s1,1
 188              	.LVL15:
 189 0154 6FF05FFD 		j	.L8
 190              	.LVL16:
 191              	.L7:
 192              	.LBE3:
  26:src/kernel/slabTests.cpp ****     }
  27:src/kernel/slabTests.cpp ****     printSlabAllocatorInfo();
 193              		.loc 1 27 5
 194              		.loc 1 27 27 is_stmt 0
 195 0158 97000000 		call	_Z22printSlabAllocatorInfov@plt
 195      E7800000 
 196              	.LVL17:
  28:src/kernel/slabTests.cpp ****     kmem_cache_destroy(cache);
 197              		.loc 1 28 5 is_stmt 1
 198              		.loc 1 28 23 is_stmt 0
 199 0160 13050900 		mv	a0,s2
 200 0164 97000000 		call	_Z18kmem_cache_destroyP12kmem_cache_s@plt
 200      E7800000 
 201              	.LVL18:
  29:src/kernel/slabTests.cpp ****     printSlabAllocatorInfo();
 202              		.loc 1 29 5 is_stmt 1
 203              		.loc 1 29 27 is_stmt 0
 204 016c 97000000 		call	_Z22printSlabAllocatorInfov@plt
 204      E7800000 
 205              	.LVL19:
  30:src/kernel/slabTests.cpp **** }
 206              		.loc 1 30 1
 207 0174 83308101 		ld	ra,24(sp)
 208              		.cfi_restore 1
 209 0178 03340101 		ld	s0,16(sp)
 210              		.cfi_restore 8
 211              		.cfi_def_cfa 2, 32
 212 017c 83348100 		ld	s1,8(sp)
 213              		.cfi_restore 9
 214              	.LVL20:
 215 0180 03390100 		ld	s2,0(sp)
 216              		.cfi_restore 18
 217              	.LVL21:
 218 0184 13010102 		addi	sp,sp,32
 219              		.cfi_def_cfa_offset 0
 220 0188 67800000 		jr	ra
 221              		.cfi_endproc
 222              	.LFE7:
 224              		.section	.rodata.str1.8
 225 002d 000000   		.align	3
 226              	.LC3:
 227 0030 4E756C6C 		.string	"Nullptr je\n"
 227      70747220 
 227      6A650A00 
 228 003c 00000000 		.align	3
 229              	.LC4:
 230 0040 692000   		.string	"i "
GAS LISTING /tmp/ccXZbqyZ.s 			page 6


 231 0043 00000000 		.align	3
 231      00
 232              	.LC5:
 233 0048 6A2000   		.string	"j "
 234              		.text
 235              		.align	2
 236              		.globl	_Z11testKmallocv
 238              	_Z11testKmallocv:
 239              	.LFB8:
  31:src/kernel/slabTests.cpp **** 
  32:src/kernel/slabTests.cpp **** void testKmalloc()
  33:src/kernel/slabTests.cpp **** {
 240              		.loc 1 33 1 is_stmt 1
 241              		.cfi_startproc
 242 018c 130101FC 		addi	sp,sp,-64
 243              		.cfi_def_cfa_offset 64
 244 0190 233C1102 		sd	ra,56(sp)
 245 0194 23388102 		sd	s0,48(sp)
 246 0198 23349102 		sd	s1,40(sp)
 247 019c 23302103 		sd	s2,32(sp)
 248 01a0 233C3101 		sd	s3,24(sp)
 249 01a4 23384101 		sd	s4,16(sp)
 250 01a8 23345101 		sd	s5,8(sp)
 251              		.cfi_offset 1, -8
 252              		.cfi_offset 8, -16
 253              		.cfi_offset 9, -24
 254              		.cfi_offset 18, -32
 255              		.cfi_offset 19, -40
 256              		.cfi_offset 20, -48
 257              		.cfi_offset 21, -56
 258 01ac 13040104 		addi	s0,sp,64
 259              		.cfi_def_cfa 8, 0
  34:src/kernel/slabTests.cpp ****     void** x = (void**)kmalloc(sizeof(void*)*200);
 260              		.loc 1 34 5
 261              		.loc 1 34 31 is_stmt 0
 262 01b0 13050064 		li	a0,1600
 263 01b4 97000000 		call	_Z7kmallocm@plt
 263      E7800000 
 264              	.LVL22:
 265 01bc 130A0500 		mv	s4,a0
 266              	.LVL23:
  35:src/kernel/slabTests.cpp ****     int indeks = 0;
 267              		.loc 1 35 5 is_stmt 1
  36:src/kernel/slabTests.cpp ****     for(int i = 0;i < 10;i++)
 268              		.loc 1 36 5
 269              	.LBB4:
 270              		.loc 1 36 13 is_stmt 0
 271 01c0 930A0000 		li	s5,0
 272              	.LBE4:
  35:src/kernel/slabTests.cpp ****     int indeks = 0;
 273              		.loc 1 35 9
 274 01c4 93040000 		li	s1,0
 275 01c8 6F000008 		j	.L15
 276              	.LVL24:
 277              	.L13:
 278              	.LBB9:
 279              	.LBB5:
GAS LISTING /tmp/ccXZbqyZ.s 			page 7


  37:src/kernel/slabTests.cpp ****     {
  38:src/kernel/slabTests.cpp ****         for(int j = 5;j<=18;j++)
 280              		.loc 1 38 9 is_stmt 1 discriminator 2
 281 01cc 1B091900 		addiw	s2,s2,1
 282              	.LVL25:
 283              	.LBB6:
  39:src/kernel/slabTests.cpp ****         {
  40:src/kernel/slabTests.cpp ****             void* adr = kmalloc(1 << j);
  41:src/kernel/slabTests.cpp ****             x[indeks++] = adr;
 284              		.loc 1 41 21 is_stmt 0 discriminator 2
 285 01d0 93840900 		mv	s1,s3
 286              	.L14:
 287              	.LVL26:
 288              	.LBE6:
  38:src/kernel/slabTests.cpp ****         {
 289              		.loc 1 38 24 is_stmt 1 discriminator 1
 290 01d4 93072001 		li	a5,18
 291 01d8 63C62707 		bgt	s2,a5,.L12
 292              	.LBB7:
  40:src/kernel/slabTests.cpp ****             x[indeks++] = adr;
 293              		.loc 1 40 13
  40:src/kernel/slabTests.cpp ****             x[indeks++] = adr;
 294              		.loc 1 40 32 is_stmt 0
 295 01dc 13051000 		li	a0,1
 296 01e0 3B152501 		sllw	a0,a0,s2
 297 01e4 97000000 		call	_Z7kmallocm@plt
 297      E7800000 
 298              	.LVL27:
 299              		.loc 1 41 13 is_stmt 1
 300              		.loc 1 41 21 is_stmt 0
 301 01ec 9B891400 		addiw	s3,s1,1
 302              	.LVL28:
 303              		.loc 1 41 23
 304 01f0 93943400 		slli	s1,s1,3
 305              	.LVL29:
 306 01f4 B3049A00 		add	s1,s4,s1
 307              		.loc 1 41 25
 308 01f8 23B0A400 		sd	a0,0(s1)
  42:src/kernel/slabTests.cpp ****             if(adr == nullptr)
 309              		.loc 1 42 13 is_stmt 1
 310 01fc E31805FC 		bnez	a0,.L13
  43:src/kernel/slabTests.cpp ****             {
  44:src/kernel/slabTests.cpp ****                 KConsole::trapPrintString("Nullptr je\n");
 311              		.loc 1 44 17
 312              		.loc 1 44 42 is_stmt 0
 313 0200 17050000 		lla	a0,.LC3
 313      13050500 
 314              	.LVL30:
 315 0208 97000000 		call	_ZN8KConsole15trapPrintStringEPKc@plt
 315      E7800000 
 316              	.LVL31:
  45:src/kernel/slabTests.cpp ****                 KConsole::trapPrintStringInt("i ", i);
 317              		.loc 1 45 17 is_stmt 1
 318              		.loc 1 45 45 is_stmt 0
 319 0210 1306A000 		li	a2,10
 320 0214 93850A00 		mv	a1,s5
 321 0218 17050000 		lla	a0,.LC4
GAS LISTING /tmp/ccXZbqyZ.s 			page 8


 321      13050500 
 322 0220 97000000 		call	_ZN8KConsole18trapPrintStringIntEPKcmi@plt
 322      E7800000 
 323              	.LVL32:
  46:src/kernel/slabTests.cpp ****                 KConsole::trapPrintStringInt("j ", j);
 324              		.loc 1 46 17 is_stmt 1
 325              		.loc 1 46 45 is_stmt 0
 326 0228 1306A000 		li	a2,10
 327 022c 93050900 		mv	a1,s2
 328 0230 17050000 		lla	a0,.LC5
 328      13050500 
 329 0238 97000000 		call	_ZN8KConsole18trapPrintStringIntEPKcmi@plt
 329      E7800000 
 330              	.LVL33:
 331 0240 6FF0DFF8 		j	.L13
 332              	.LVL34:
 333              	.L12:
 334              	.LBE7:
 335              	.LBE5:
  36:src/kernel/slabTests.cpp ****     {
 336              		.loc 1 36 5 is_stmt 1 discriminator 2
 337 0244 9B8A1A00 		addiw	s5,s5,1
 338              	.LVL35:
 339              	.L15:
  36:src/kernel/slabTests.cpp ****     {
 340              		.loc 1 36 21 discriminator 1
 341 0248 93079000 		li	a5,9
 342 024c 63C65701 		bgt	s5,a5,.L17
 343              	.LBB8:
  38:src/kernel/slabTests.cpp ****         {
 344              		.loc 1 38 17 is_stmt 0
 345 0250 13095000 		li	s2,5
 346 0254 6FF01FF8 		j	.L14
 347              	.L17:
 348              	.LBE8:
 349              	.LBE9:
 350              	.LBB10:
  47:src/kernel/slabTests.cpp ****             }
  48:src/kernel/slabTests.cpp ****         }
  49:src/kernel/slabTests.cpp ****     }
  50:src/kernel/slabTests.cpp ****     for(int i = 0; i < indeks;i++)
 351              		.loc 1 50 13
 352 0258 13090000 		li	s2,0
 353              	.L11:
 354              	.LVL36:
 355              		.loc 1 50 22 is_stmt 1 discriminator 3
 356 025c 63509902 		ble	s1,s2,.L16
  51:src/kernel/slabTests.cpp ****     {
  52:src/kernel/slabTests.cpp ****         kfree(x[i]);
 357              		.loc 1 52 9 discriminator 2
 358              		.loc 1 52 18 is_stmt 0 discriminator 2
 359 0260 93173900 		slli	a5,s2,3
 360 0264 B307FA00 		add	a5,s4,a5
 361              		.loc 1 52 14 discriminator 2
 362 0268 03B50700 		ld	a0,0(a5)
 363 026c 97000000 		call	_Z5kfreePKv@plt
 363      E7800000 
GAS LISTING /tmp/ccXZbqyZ.s 			page 9


 364              	.LVL37:
  50:src/kernel/slabTests.cpp ****     {
 365              		.loc 1 50 5 is_stmt 1 discriminator 2
 366 0274 1B091900 		addiw	s2,s2,1
 367              	.LVL38:
 368 0278 6FF05FFE 		j	.L11
 369              	.LVL39:
 370              	.L16:
 371              	.LBE10:
  53:src/kernel/slabTests.cpp ****     }
  54:src/kernel/slabTests.cpp ****     printSlabAllocatorInfo();
 372              		.loc 1 54 5
 373              		.loc 1 54 27 is_stmt 0
 374 027c 97000000 		call	_Z22printSlabAllocatorInfov@plt
 374      E7800000 
 375              	.LVL40:
  55:src/kernel/slabTests.cpp **** }
 376              		.loc 1 55 1
 377 0284 83308103 		ld	ra,56(sp)
 378              		.cfi_restore 1
 379 0288 03340103 		ld	s0,48(sp)
 380              		.cfi_restore 8
 381              		.cfi_def_cfa 2, 64
 382 028c 83348102 		ld	s1,40(sp)
 383              		.cfi_restore 9
 384              	.LVL41:
 385 0290 03390102 		ld	s2,32(sp)
 386              		.cfi_restore 18
 387              	.LVL42:
 388 0294 83398101 		ld	s3,24(sp)
 389              		.cfi_restore 19
 390 0298 033A0101 		ld	s4,16(sp)
 391              		.cfi_restore 20
 392              	.LVL43:
 393 029c 833A8100 		ld	s5,8(sp)
 394              		.cfi_restore 21
 395              	.LVL44:
 396 02a0 13010104 		addi	sp,sp,64
 397              		.cfi_def_cfa_offset 0
 398 02a4 67800000 		jr	ra
 399              		.cfi_endproc
 400              	.LFE8:
 402              		.align	2
 403              		.globl	_Z6memsetPKvii
 405              	_Z6memsetPKvii:
 406              	.LFB9:
  56:src/kernel/slabTests.cpp **** 
  57:src/kernel/slabTests.cpp **** 
  58:src/kernel/slabTests.cpp **** //-------------------------------------------------------------------------------------------------
  59:src/kernel/slabTests.cpp **** //OS2 testovi
  60:src/kernel/slabTests.cpp **** 
  61:src/kernel/slabTests.cpp **** #define RUN_NUM (5)
  62:src/kernel/slabTests.cpp **** #define ITERATIONS (1000)
  63:src/kernel/slabTests.cpp **** 
  64:src/kernel/slabTests.cpp **** #define shared_size (7)
  65:src/kernel/slabTests.cpp **** #define MASK (0xA5)
  66:src/kernel/slabTests.cpp **** 
GAS LISTING /tmp/ccXZbqyZ.s 			page 10


  67:src/kernel/slabTests.cpp **** struct data_s {
  68:src/kernel/slabTests.cpp ****     int id;
  69:src/kernel/slabTests.cpp ****     kmem_cache_t  *shared;
  70:src/kernel/slabTests.cpp ****     int iterations;
  71:src/kernel/slabTests.cpp **** };
  72:src/kernel/slabTests.cpp **** 
  73:src/kernel/slabTests.cpp **** const char * const CACHE_NAMES[] = {"tc_0",
  74:src/kernel/slabTests.cpp ****                                     "tc_1",
  75:src/kernel/slabTests.cpp ****                                     "tc_2",
  76:src/kernel/slabTests.cpp ****                                     "tc_3",
  77:src/kernel/slabTests.cpp ****                                     "tc_4"};
  78:src/kernel/slabTests.cpp **** 
  79:src/kernel/slabTests.cpp **** void memset(const void *data, int size, int value) {
 407              		.loc 1 79 52 is_stmt 1
 408              		.cfi_startproc
 409              	.LVL45:
 410 02a8 130101FF 		addi	sp,sp,-16
 411              		.cfi_def_cfa_offset 16
 412 02ac 23348100 		sd	s0,8(sp)
 413              		.cfi_offset 8, -8
 414 02b0 13040101 		addi	s0,sp,16
 415              		.cfi_def_cfa 8, 0
  80:src/kernel/slabTests.cpp ****     for (int j = 0; j < size; j++) {
 416              		.loc 1 80 5
 417              	.LVL46:
 418              	.LBB11:
 419              		.loc 1 80 14 is_stmt 0
 420 02b4 93070000 		li	a5,0
 421              	.LVL47:
 422              	.L21:
 423              		.loc 1 80 23 is_stmt 1 discriminator 3
 424 02b8 63DAB700 		bge	a5,a1,.L19
  81:src/kernel/slabTests.cpp ****         *((char *)data + j) = value;
 425              		.loc 1 81 9 discriminator 2
 426              		.loc 1 81 24 is_stmt 0 discriminator 2
 427 02bc 3307F500 		add	a4,a0,a5
 428              		.loc 1 81 29 discriminator 2
 429 02c0 2300C700 		sb	a2,0(a4)
  80:src/kernel/slabTests.cpp ****     for (int j = 0; j < size; j++) {
 430              		.loc 1 80 5 is_stmt 1 discriminator 2
 431 02c4 9B871700 		addiw	a5,a5,1
 432              	.LVL48:
 433 02c8 6FF01FFF 		j	.L21
 434              	.LVL49:
 435              	.L19:
 436              	.LBE11:
  82:src/kernel/slabTests.cpp ****     }
  83:src/kernel/slabTests.cpp **** }
 437              		.loc 1 83 1 is_stmt 0
 438 02cc 03348100 		ld	s0,8(sp)
 439              		.cfi_restore 8
 440              		.cfi_def_cfa 2, 16
 441 02d0 13010101 		addi	sp,sp,16
 442              		.cfi_def_cfa_offset 0
 443 02d4 67800000 		jr	ra
 444              		.cfi_endproc
 445              	.LFE9:
GAS LISTING /tmp/ccXZbqyZ.s 			page 11


 447              		.align	2
 448              		.globl	_Z9constructPv
 450              	_Z9constructPv:
 451              	.LFB10:
  84:src/kernel/slabTests.cpp **** 
  85:src/kernel/slabTests.cpp **** void construct(void *data) {
 452              		.loc 1 85 28 is_stmt 1
 453              		.cfi_startproc
 454              	.LVL50:
 455 02d8 130101FF 		addi	sp,sp,-16
 456              		.cfi_def_cfa_offset 16
 457 02dc 23341100 		sd	ra,8(sp)
 458 02e0 23308100 		sd	s0,0(sp)
 459              		.cfi_offset 1, -8
 460              		.cfi_offset 8, -16
 461 02e4 13040101 		addi	s0,sp,16
 462              		.cfi_def_cfa 8, 0
  86:src/kernel/slabTests.cpp ****     //static int i = 1;
  87:src/kernel/slabTests.cpp ****     //KConsole::trapPrintInt(i); i++;
  88:src/kernel/slabTests.cpp ****     //KConsole::trapPrintString(" Shared object constructed.\n");
  89:src/kernel/slabTests.cpp ****     memset(data, shared_size, MASK);
 463              		.loc 1 89 5
 464              		.loc 1 89 11 is_stmt 0
 465 02e8 1306500A 		li	a2,165
 466 02ec 93057000 		li	a1,7
 467 02f0 97000000 		call	_Z6memsetPKvii
 467      E7800000 
 468              	.LVL51:
  90:src/kernel/slabTests.cpp **** }
 469              		.loc 1 90 1
 470 02f8 83308100 		ld	ra,8(sp)
 471              		.cfi_restore 1
 472 02fc 03340100 		ld	s0,0(sp)
 473              		.cfi_restore 8
 474              		.cfi_def_cfa 2, 16
 475 0300 13010101 		addi	sp,sp,16
 476              		.cfi_def_cfa_offset 0
 477 0304 67800000 		jr	ra
 478              		.cfi_endproc
 479              	.LFE10:
 481              		.align	2
 482              		.globl	_Z5checkPvm
 484              	_Z5checkPvm:
 485              	.LFB11:
  91:src/kernel/slabTests.cpp **** 
  92:src/kernel/slabTests.cpp **** int check(void *data, size_t size) {
 486              		.loc 1 92 36 is_stmt 1
 487              		.cfi_startproc
 488              	.LVL52:
 489 0308 130101FF 		addi	sp,sp,-16
 490              		.cfi_def_cfa_offset 16
 491 030c 23348100 		sd	s0,8(sp)
 492              		.cfi_offset 8, -8
 493 0310 13040101 		addi	s0,sp,16
 494              		.cfi_def_cfa 8, 0
 495 0314 13060500 		mv	a2,a0
  93:src/kernel/slabTests.cpp ****     int ret = 1;
GAS LISTING /tmp/ccXZbqyZ.s 			page 12


 496              		.loc 1 93 5
 497              	.LVL53:
  94:src/kernel/slabTests.cpp ****     for (size_t i = 0; i < size; i++) {
 498              		.loc 1 94 5
 499              	.LBB12:
 500              		.loc 1 94 17 is_stmt 0
 501 0318 93070000 		li	a5,0
 502              	.LBE12:
  93:src/kernel/slabTests.cpp ****     int ret = 1;
 503              		.loc 1 93 9
 504 031c 13051000 		li	a0,1
 505              	.LVL54:
 506 0320 6F008000 		j	.L28
 507              	.LVL55:
 508              	.L27:
 509              	.LBB13:
 510              		.loc 1 94 5 is_stmt 1 discriminator 2
 511 0324 93871700 		addi	a5,a5,1
 512              	.LVL56:
 513              	.L28:
 514              		.loc 1 94 26 discriminator 1
 515 0328 63FEB700 		bgeu	a5,a1,.L26
  95:src/kernel/slabTests.cpp ****         if (((unsigned char *)data)[i] != MASK) {
 516              		.loc 1 95 9
 517              		.loc 1 95 38 is_stmt 0
 518 032c 3307F600 		add	a4,a2,a5
 519 0330 83460700 		lbu	a3,0(a4)
 520              		.loc 1 95 9
 521 0334 1307500A 		li	a4,165
 522 0338 E386E6FE 		beq	a3,a4,.L27
  96:src/kernel/slabTests.cpp ****             ret = 0;
 523              		.loc 1 96 17
 524 033c 13050000 		li	a0,0
 525              	.LVL57:
 526 0340 6FF05FFE 		j	.L27
 527              	.LVL58:
 528              	.L26:
 529              	.LBE13:
  97:src/kernel/slabTests.cpp ****         }
  98:src/kernel/slabTests.cpp ****     }
  99:src/kernel/slabTests.cpp **** 
 100:src/kernel/slabTests.cpp ****     return ret;
 530              		.loc 1 100 5 is_stmt 1
 101:src/kernel/slabTests.cpp **** }
 531              		.loc 1 101 1 is_stmt 0
 532 0344 03348100 		ld	s0,8(sp)
 533              		.cfi_restore 8
 534              		.cfi_def_cfa 2, 16
 535 0348 13010101 		addi	sp,sp,16
 536              		.cfi_def_cfa_offset 0
 537 034c 67800000 		jr	ra
 538              		.cfi_endproc
 539              	.LFE11:
 541              		.section	.rodata.str1.8
 542 004b 00000000 		.align	3
 542      00
 543              	.LC6:
GAS LISTING /tmp/ccXZbqyZ.s 			page 13


 544 0050 56616C75 		.string	"Value not correct!"
 544      65206E6F 
 544      7420636F 
 544      72726563 
 544      742100
 545              		.text
 546              		.align	2
 547              		.globl	_Z4workPv
 549              	_Z4workPv:
 550              	.LFB12:
 102:src/kernel/slabTests.cpp **** 
 103:src/kernel/slabTests.cpp **** struct objects_s {
 104:src/kernel/slabTests.cpp ****     kmem_cache_t *cache;
 105:src/kernel/slabTests.cpp ****     void *data;
 106:src/kernel/slabTests.cpp **** };
 107:src/kernel/slabTests.cpp **** 
 108:src/kernel/slabTests.cpp **** void work(void* pdata)
 109:src/kernel/slabTests.cpp **** {
 551              		.loc 1 109 1 is_stmt 1
 552              		.cfi_startproc
 553              	.LVL59:
 554 0350 130101F8 		addi	sp,sp,-128
 555              		.cfi_def_cfa_offset 128
 556 0354 233C1106 		sd	ra,120(sp)
 557 0358 23388106 		sd	s0,112(sp)
 558 035c 23349106 		sd	s1,104(sp)
 559 0360 23302107 		sd	s2,96(sp)
 560 0364 233C3105 		sd	s3,88(sp)
 561 0368 23384105 		sd	s4,80(sp)
 562 036c 23345105 		sd	s5,72(sp)
 563 0370 23306105 		sd	s6,64(sp)
 564 0374 233C7103 		sd	s7,56(sp)
 565 0378 23388103 		sd	s8,48(sp)
 566 037c 23349103 		sd	s9,40(sp)
 567              		.cfi_offset 1, -8
 568              		.cfi_offset 8, -16
 569              		.cfi_offset 9, -24
 570              		.cfi_offset 18, -32
 571              		.cfi_offset 19, -40
 572              		.cfi_offset 20, -48
 573              		.cfi_offset 21, -56
 574              		.cfi_offset 22, -64
 575              		.cfi_offset 23, -72
 576              		.cfi_offset 24, -80
 577              		.cfi_offset 25, -88
 578 0380 13040108 		addi	s0,sp,128
 579              		.cfi_def_cfa 8, 0
 110:src/kernel/slabTests.cpp ****     struct data_s data = *(struct data_s*) pdata;
 580              		.loc 1 110 5
 581              		.loc 1 110 19 is_stmt 0
 582 0384 033C0500 		ld	s8,0(a0)
 583 0388 233484F9 		sd	s8,-120(s0)
 584 038c 83378500 		ld	a5,8(a0)
 585 0390 2338F4F8 		sd	a5,-112(s0)
 586 0394 83370501 		ld	a5,16(a0)
 587 0398 233CF4F8 		sd	a5,-104(s0)
 111:src/kernel/slabTests.cpp ****     int size = 0;
GAS LISTING /tmp/ccXZbqyZ.s 			page 14


 588              		.loc 1 111 5 is_stmt 1
 589              	.LVL60:
 112:src/kernel/slabTests.cpp ****     int object_size = data.id + 1;
 590              		.loc 1 112 5
 591              		.loc 1 112 28 is_stmt 0
 592 039c 9B070C00 		sext.w	a5,s8
 593              		.loc 1 112 9
 594 03a0 1B0C1C00 		addiw	s8,s8,1
 595              	.LVL61:
 113:src/kernel/slabTests.cpp ****     kmem_cache_t *cache = kmem_cache_create(CACHE_NAMES[data.id], object_size, 0, 0);
 596              		.loc 1 113 5 is_stmt 1
 597              		.loc 1 113 64 is_stmt 0
 598 03a4 13973700 		slli	a4,a5,3
 599 03a8 97070000 		lla	a5,.LANCHOR0
 599      93870700 
 600              	.LVL62:
 601 03b0 B387E700 		add	a5,a5,a4
 602              		.loc 1 113 44
 603 03b4 130B0C00 		mv	s6,s8
 604 03b8 93060000 		li	a3,0
 605 03bc 13060000 		li	a2,0
 606 03c0 93050C00 		mv	a1,s8
 607 03c4 03B50700 		ld	a0,0(a5)
 608              	.LVL63:
 609 03c8 97000000 		call	_Z17kmem_cache_createPKcmPFvPvES3_@plt
 609      E7800000 
 610              	.LVL64:
 611 03d0 130A0500 		mv	s4,a0
 612              	.LVL65:
 114:src/kernel/slabTests.cpp **** 
 115:src/kernel/slabTests.cpp ****     struct objects_s *objs = (struct objects_s*)(kmalloc(sizeof(struct objects_s) * data.iterations
 613              		.loc 1 115 5 is_stmt 1
 614              		.loc 1 115 90 is_stmt 0
 615 03d4 832B84F9 		lw	s7,-104(s0)
 616              		.loc 1 115 57
 617 03d8 13954B00 		slli	a0,s7,4
 618              	.LVL66:
 619 03dc 97000000 		call	_Z7kmallocm@plt
 619      E7800000 
 620              	.LVL67:
 621 03e4 930A0500 		mv	s5,a0
 622              	.LBB14:
 116:src/kernel/slabTests.cpp **** 
 117:src/kernel/slabTests.cpp ****     for (int i = 0; i < data.iterations; i++) {
 623              		.loc 1 117 14
 624 03e8 93040000 		li	s1,0
 625              	.LBE14:
 111:src/kernel/slabTests.cpp ****     int object_size = data.id + 1;
 626              		.loc 1 111 9
 627 03ec 93090000 		li	s3,0
 628 03f0 6F008003 		j	.L35
 629              	.LVL68:
 630              	.L33:
 631              	.LBB15:
 118:src/kernel/slabTests.cpp ****         if (i % 100 == 0) {
 119:src/kernel/slabTests.cpp ****             objs[size].data = kmem_cache_alloc(data.shared);
 120:src/kernel/slabTests.cpp ****             objs[size].cache = data.shared;
GAS LISTING /tmp/ccXZbqyZ.s 			page 15


 121:src/kernel/slabTests.cpp ****             if (!check(objs[size].data, shared_size)) {
 122:src/kernel/slabTests.cpp ****                 KConsole::trapPrintString("Value not correct!");
 123:src/kernel/slabTests.cpp ****             }
 124:src/kernel/slabTests.cpp ****         }
 125:src/kernel/slabTests.cpp ****         else {
 126:src/kernel/slabTests.cpp ****             objs[size].data = kmem_cache_alloc(cache);
 632              		.loc 1 126 13 is_stmt 1
 633              		.loc 1 126 22 is_stmt 0
 634 03f4 13994900 		slli	s2,s3,4
 635 03f8 33892A01 		add	s2,s5,s2
 636              		.loc 1 126 47
 637 03fc 13050A00 		mv	a0,s4
 638 0400 97000000 		call	_Z16kmem_cache_allocP12kmem_cache_s@plt
 638      E7800000 
 639              	.LVL69:
 640              		.loc 1 126 29
 641 0408 2334A900 		sd	a0,8(s2)
 127:src/kernel/slabTests.cpp ****             objs[size].cache = cache;
 642              		.loc 1 127 13 is_stmt 1
 643              		.loc 1 127 30 is_stmt 0
 644 040c 23304901 		sd	s4,0(s2)
 128:src/kernel/slabTests.cpp ****             memset(objs[size].data, object_size, MASK);
 645              		.loc 1 128 13 is_stmt 1
 646              		.loc 1 128 19 is_stmt 0
 647 0410 1306500A 		li	a2,165
 648 0414 93050C00 		mv	a1,s8
 649 0418 97000000 		call	_Z6memsetPKvii
 649      E7800000 
 650              	.LVL70:
 651              	.L34:
 129:src/kernel/slabTests.cpp ****         }
 130:src/kernel/slabTests.cpp ****         size++;
 652              		.loc 1 130 9 is_stmt 1 discriminator 2
 653              		.loc 1 130 13 is_stmt 0 discriminator 2
 654 0420 9B891900 		addiw	s3,s3,1
 655              	.LVL71:
 117:src/kernel/slabTests.cpp ****         if (i % 100 == 0) {
 656              		.loc 1 117 5 is_stmt 1 discriminator 2
 657 0424 9B841400 		addiw	s1,s1,1
 658              	.LVL72:
 659              	.L35:
 117:src/kernel/slabTests.cpp ****         if (i % 100 == 0) {
 660              		.loc 1 117 23 discriminator 1
 661 0428 63DA7405 		ble	s7,s1,.L32
 118:src/kernel/slabTests.cpp ****             objs[size].data = kmem_cache_alloc(data.shared);
 662              		.loc 1 118 9
 118:src/kernel/slabTests.cpp ****             objs[size].data = kmem_cache_alloc(data.shared);
 663              		.loc 1 118 15 is_stmt 0
 664 042c 93074006 		li	a5,100
 665 0430 BBE7F402 		remw	a5,s1,a5
 118:src/kernel/slabTests.cpp ****             objs[size].data = kmem_cache_alloc(data.shared);
 666              		.loc 1 118 9
 667 0434 E39007FC 		bnez	a5,.L33
 119:src/kernel/slabTests.cpp ****             objs[size].cache = data.shared;
 668              		.loc 1 119 13 is_stmt 1
 119:src/kernel/slabTests.cpp ****             objs[size].cache = data.shared;
 669              		.loc 1 119 47 is_stmt 0
GAS LISTING /tmp/ccXZbqyZ.s 			page 16


 670 0438 833C04F9 		ld	s9,-112(s0)
 119:src/kernel/slabTests.cpp ****             objs[size].cache = data.shared;
 671              		.loc 1 119 22
 672 043c 13994900 		slli	s2,s3,4
 673 0440 33892A01 		add	s2,s5,s2
 119:src/kernel/slabTests.cpp ****             objs[size].cache = data.shared;
 674              		.loc 1 119 47
 675 0444 13850C00 		mv	a0,s9
 676 0448 97000000 		call	_Z16kmem_cache_allocP12kmem_cache_s@plt
 676      E7800000 
 677              	.LVL73:
 119:src/kernel/slabTests.cpp ****             objs[size].cache = data.shared;
 678              		.loc 1 119 29
 679 0450 2334A900 		sd	a0,8(s2)
 120:src/kernel/slabTests.cpp ****             if (!check(objs[size].data, shared_size)) {
 680              		.loc 1 120 13 is_stmt 1
 120:src/kernel/slabTests.cpp ****             if (!check(objs[size].data, shared_size)) {
 681              		.loc 1 120 30 is_stmt 0
 682 0454 23309901 		sd	s9,0(s2)
 121:src/kernel/slabTests.cpp ****                 KConsole::trapPrintString("Value not correct!");
 683              		.loc 1 121 13 is_stmt 1
 121:src/kernel/slabTests.cpp ****                 KConsole::trapPrintString("Value not correct!");
 684              		.loc 1 121 23 is_stmt 0
 685 0458 93057000 		li	a1,7
 686 045c 97000000 		call	_Z5checkPvm
 686      E7800000 
 687              	.LVL74:
 121:src/kernel/slabTests.cpp ****                 KConsole::trapPrintString("Value not correct!");
 688              		.loc 1 121 13
 689 0464 E31E05FA 		bnez	a0,.L34
 122:src/kernel/slabTests.cpp ****             }
 690              		.loc 1 122 17 is_stmt 1
 122:src/kernel/slabTests.cpp ****             }
 691              		.loc 1 122 42 is_stmt 0
 692 0468 17050000 		lla	a0,.LC6
 692      13050500 
 693 0470 97000000 		call	_ZN8KConsole15trapPrintStringEPKc@plt
 693      E7800000 
 694              	.LVL75:
 695 0478 6FF09FFA 		j	.L34
 696              	.L32:
 697              	.LBE15:
 131:src/kernel/slabTests.cpp ****     }
 132:src/kernel/slabTests.cpp **** 
 133:src/kernel/slabTests.cpp ****     kmem_cache_info(cache);
 698              		.loc 1 133 5 is_stmt 1
 699              		.loc 1 133 20 is_stmt 0
 700 047c 13050A00 		mv	a0,s4
 701 0480 97000000 		call	_Z15kmem_cache_infoP12kmem_cache_s@plt
 701      E7800000 
 702              	.LVL76:
 134:src/kernel/slabTests.cpp ****     kmem_cache_info(data.shared);
 703              		.loc 1 134 5 is_stmt 1
 704              		.loc 1 134 20 is_stmt 0
 705 0488 033504F9 		ld	a0,-112(s0)
 706 048c 97000000 		call	_Z15kmem_cache_infoP12kmem_cache_s@plt
 706      E7800000 
GAS LISTING /tmp/ccXZbqyZ.s 			page 17


 707              	.LVL77:
 708              	.LBB16:
 135:src/kernel/slabTests.cpp ****     //printSlabAllocatorInfo();
 136:src/kernel/slabTests.cpp **** 
 137:src/kernel/slabTests.cpp ****     for (int i = 0; i < size; i++) {
 709              		.loc 1 137 14
 710 0494 13090000 		li	s2,0
 711 0498 6F000003 		j	.L39
 712              	.LVL78:
 713              	.L40:
 138:src/kernel/slabTests.cpp ****         if (!check(objs[i].data, (cache == objs[i].cache) ? object_size : shared_size)) {
 714              		.loc 1 138 19
 715 049c 93050B00 		mv	a1,s6
 716 04a0 6F004004 		j	.L37
 717              	.L42:
 139:src/kernel/slabTests.cpp ****             KConsole::trapPrintString("Value not correct!");
 718              		.loc 1 139 13 is_stmt 1
 719              		.loc 1 139 38 is_stmt 0
 720 04a4 17050000 		lla	a0,.LC6
 720      13050500 
 721 04ac 97000000 		call	_ZN8KConsole15trapPrintStringEPKc@plt
 721      E7800000 
 722              	.LVL79:
 723              	.L38:
 140:src/kernel/slabTests.cpp ****         }
 141:src/kernel/slabTests.cpp ****         kmem_cache_free(objs[i].cache, objs[i].data);
 724              		.loc 1 141 9 is_stmt 1
 725              		.loc 1 141 24 is_stmt 0
 726 04b4 83B58400 		ld	a1,8(s1)
 727 04b8 03B50400 		ld	a0,0(s1)
 728 04bc 97000000 		call	_Z15kmem_cache_freeP12kmem_cache_sPv@plt
 728      E7800000 
 729              	.LVL80:
 137:src/kernel/slabTests.cpp ****         if (!check(objs[i].data, (cache == objs[i].cache) ? object_size : shared_size)) {
 730              		.loc 1 137 5 is_stmt 1
 731 04c4 1B091900 		addiw	s2,s2,1
 732              	.LVL81:
 733              	.L39:
 137:src/kernel/slabTests.cpp ****         if (!check(objs[i].data, (cache == objs[i].cache) ? object_size : shared_size)) {
 734              		.loc 1 137 23 discriminator 1
 735 04c8 63563903 		ble	s3,s2,.L36
 138:src/kernel/slabTests.cpp ****             KConsole::trapPrintString("Value not correct!");
 736              		.loc 1 138 9
 138:src/kernel/slabTests.cpp ****             KConsole::trapPrintString("Value not correct!");
 737              		.loc 1 138 26 is_stmt 0
 738 04cc 93144900 		slli	s1,s2,4
 739 04d0 B3849A00 		add	s1,s5,s1
 138:src/kernel/slabTests.cpp ****             KConsole::trapPrintString("Value not correct!");
 740              		.loc 1 138 19
 741 04d4 03B58400 		ld	a0,8(s1)
 138:src/kernel/slabTests.cpp ****             KConsole::trapPrintString("Value not correct!");
 742              		.loc 1 138 52
 743 04d8 83B70400 		ld	a5,0(s1)
 138:src/kernel/slabTests.cpp ****             KConsole::trapPrintString("Value not correct!");
 744              		.loc 1 138 19
 745 04dc E38047FD 		beq	a5,s4,.L40
 746 04e0 93057000 		li	a1,7
GAS LISTING /tmp/ccXZbqyZ.s 			page 18


 747              	.L37:
 138:src/kernel/slabTests.cpp ****             KConsole::trapPrintString("Value not correct!");
 748              		.loc 1 138 19 discriminator 4
 749 04e4 97000000 		call	_Z5checkPvm
 749      E7800000 
 750              	.LVL82:
 138:src/kernel/slabTests.cpp ****             KConsole::trapPrintString("Value not correct!");
 751              		.loc 1 138 9 discriminator 4
 752 04ec E31405FC 		bnez	a0,.L38
 753 04f0 6FF05FFB 		j	.L42
 754              	.L36:
 755              	.LBE16:
 142:src/kernel/slabTests.cpp ****     }
 143:src/kernel/slabTests.cpp **** 
 144:src/kernel/slabTests.cpp ****     kmem_cache_info(cache);
 756              		.loc 1 144 5 is_stmt 1
 757              		.loc 1 144 20 is_stmt 0
 758 04f4 13050A00 		mv	a0,s4
 759 04f8 97000000 		call	_Z15kmem_cache_infoP12kmem_cache_s@plt
 759      E7800000 
 760              	.LVL83:
 145:src/kernel/slabTests.cpp **** 
 146:src/kernel/slabTests.cpp ****     //kmem_cache_info(cache);
 147:src/kernel/slabTests.cpp ****     //kmem_cache_info(data.shared);
 148:src/kernel/slabTests.cpp ****     //printSlabAllocatorInfo();
 149:src/kernel/slabTests.cpp **** 
 150:src/kernel/slabTests.cpp ****     kfree(objs);
 761              		.loc 1 150 5 is_stmt 1
 762              		.loc 1 150 10 is_stmt 0
 763 0500 13850A00 		mv	a0,s5
 764 0504 97000000 		call	_Z5kfreePKv@plt
 764      E7800000 
 765              	.LVL84:
 151:src/kernel/slabTests.cpp ****     kmem_cache_destroy(cache);
 766              		.loc 1 151 5 is_stmt 1
 767              		.loc 1 151 23 is_stmt 0
 768 050c 13050A00 		mv	a0,s4
 769 0510 97000000 		call	_Z18kmem_cache_destroyP12kmem_cache_s@plt
 769      E7800000 
 770              	.LVL85:
 152:src/kernel/slabTests.cpp **** 
 153:src/kernel/slabTests.cpp ****     //printSlabAllocatorInfo();
 154:src/kernel/slabTests.cpp **** }
 771              		.loc 1 154 1
 772 0518 83308107 		ld	ra,120(sp)
 773              		.cfi_restore 1
 774 051c 03340107 		ld	s0,112(sp)
 775              		.cfi_restore 8
 776              		.cfi_def_cfa 2, 128
 777              	.LVL86:
 778 0520 83348106 		ld	s1,104(sp)
 779              		.cfi_restore 9
 780 0524 03390106 		ld	s2,96(sp)
 781              		.cfi_restore 18
 782              	.LVL87:
 783 0528 83398105 		ld	s3,88(sp)
 784              		.cfi_restore 19
GAS LISTING /tmp/ccXZbqyZ.s 			page 19


 785              	.LVL88:
 786 052c 033A0105 		ld	s4,80(sp)
 787              		.cfi_restore 20
 788              	.LVL89:
 789 0530 833A8104 		ld	s5,72(sp)
 790              		.cfi_restore 21
 791 0534 033B0104 		ld	s6,64(sp)
 792              		.cfi_restore 22
 793 0538 833B8103 		ld	s7,56(sp)
 794              		.cfi_restore 23
 795 053c 033C0103 		ld	s8,48(sp)
 796              		.cfi_restore 24
 797 0540 833C8102 		ld	s9,40(sp)
 798              		.cfi_restore 25
 799 0544 13010108 		addi	sp,sp,128
 800              		.cfi_def_cfa_offset 0
 801              	.LVL90:
 802 0548 67800000 		jr	ra
 803              		.cfi_endproc
 804              	.LFE12:
 806              		.align	2
 807              		.globl	_Z4runsPFvPvEP6data_si
 809              	_Z4runsPFvPvEP6data_si:
 810              	.LFB13:
 155:src/kernel/slabTests.cpp **** 
 156:src/kernel/slabTests.cpp **** void runs(void(*work)(void*), struct data_s* data, int num) {
 811              		.loc 1 156 61 is_stmt 1
 812              		.cfi_startproc
 813              	.LVL91:
 814 054c 130101FB 		addi	sp,sp,-80
 815              		.cfi_def_cfa_offset 80
 816 0550 23341104 		sd	ra,72(sp)
 817 0554 23308104 		sd	s0,64(sp)
 818 0558 233C9102 		sd	s1,56(sp)
 819 055c 23382103 		sd	s2,48(sp)
 820 0560 23343103 		sd	s3,40(sp)
 821              		.cfi_offset 1, -8
 822              		.cfi_offset 8, -16
 823              		.cfi_offset 9, -24
 824              		.cfi_offset 18, -32
 825              		.cfi_offset 19, -40
 826 0564 13040105 		addi	s0,sp,80
 827              		.cfi_def_cfa 8, 0
 828 0568 93090500 		mv	s3,a0
 829 056c 13890500 		mv	s2,a1
 157:src/kernel/slabTests.cpp ****     for (int i = 0; i < RUN_NUM; i++) {
 830              		.loc 1 157 5
 831              	.LVL92:
 832              	.LBB17:
 833              		.loc 1 157 14 is_stmt 0
 834 0570 93040000 		li	s1,0
 835              	.LVL93:
 836              	.L45:
 837              		.loc 1 157 23 is_stmt 1 discriminator 1
 838 0574 93074000 		li	a5,4
 839 0578 63C89702 		bgt	s1,a5,.L43
 840              	.LBB18:
GAS LISTING /tmp/ccXZbqyZ.s 			page 20


 158:src/kernel/slabTests.cpp ****         struct data_s private_data;
 841              		.loc 1 158 9
 159:src/kernel/slabTests.cpp ****         private_data = *(struct data_s*) data;
 842              		.loc 1 159 9
 843              		.loc 1 159 22 is_stmt 0
 844 057c 83370900 		ld	a5,0(s2)
 845 0580 233CF4FA 		sd	a5,-72(s0)
 846 0584 83378900 		ld	a5,8(s2)
 847 0588 2330F4FC 		sd	a5,-64(s0)
 848 058c 83370901 		ld	a5,16(s2)
 849 0590 2334F4FC 		sd	a5,-56(s0)
 160:src/kernel/slabTests.cpp ****         private_data.id = i;
 850              		.loc 1 160 9 is_stmt 1
 851              		.loc 1 160 25 is_stmt 0
 852 0594 232C94FA 		sw	s1,-72(s0)
 161:src/kernel/slabTests.cpp ****         work(&private_data);
 853              		.loc 1 161 9 is_stmt 1
 854              		.loc 1 161 13 is_stmt 0
 855 0598 130584FB 		addi	a0,s0,-72
 856 059c E7800900 		jalr	s3
 857              	.LVL94:
 858              	.LBE18:
 157:src/kernel/slabTests.cpp ****         struct data_s private_data;
 859              		.loc 1 157 5 is_stmt 1
 860 05a0 9B841400 		addiw	s1,s1,1
 861              	.LVL95:
 862 05a4 6FF01FFD 		j	.L45
 863              	.LVL96:
 864              	.L43:
 865              	.LBE17:
 162:src/kernel/slabTests.cpp ****     }
 163:src/kernel/slabTests.cpp **** }
 866              		.loc 1 163 1 is_stmt 0
 867 05a8 83308104 		ld	ra,72(sp)
 868              		.cfi_restore 1
 869 05ac 03340104 		ld	s0,64(sp)
 870              		.cfi_restore 8
 871              		.cfi_def_cfa 2, 80
 872 05b0 83348103 		ld	s1,56(sp)
 873              		.cfi_restore 9
 874              	.LVL97:
 875 05b4 03390103 		ld	s2,48(sp)
 876              		.cfi_restore 18
 877              	.LVL98:
 878 05b8 83398102 		ld	s3,40(sp)
 879              		.cfi_restore 19
 880              	.LVL99:
 881 05bc 13010105 		addi	sp,sp,80
 882              		.cfi_def_cfa_offset 0
 883 05c0 67800000 		jr	ra
 884              		.cfi_endproc
 885              	.LFE13:
 887              		.section	.rodata.str1.8
 888 0063 00000000 		.align	3
 888      00
 889              	.LC7:
 890 0068 73686172 		.string	"shared object"
GAS LISTING /tmp/ccXZbqyZ.s 			page 21


 890      6564206F 
 890      626A6563 
 890      7400
 891              		.text
 892              		.align	2
 893              		.globl	_Z7testOS2v
 895              	_Z7testOS2v:
 896              	.LFB14:
 164:src/kernel/slabTests.cpp **** 
 165:src/kernel/slabTests.cpp **** void testOS2()
 166:src/kernel/slabTests.cpp **** {
 897              		.loc 1 166 1 is_stmt 1
 898              		.cfi_startproc
 899 05c4 130101FC 		addi	sp,sp,-64
 900              		.cfi_def_cfa_offset 64
 901 05c8 233C1102 		sd	ra,56(sp)
 902 05cc 23388102 		sd	s0,48(sp)
 903 05d0 23349102 		sd	s1,40(sp)
 904              		.cfi_offset 1, -8
 905              		.cfi_offset 8, -16
 906              		.cfi_offset 9, -24
 907 05d4 13040104 		addi	s0,sp,64
 908              		.cfi_def_cfa 8, 0
 167:src/kernel/slabTests.cpp ****     kmem_cache_t *shared = kmem_cache_create("shared object", shared_size, construct, nullptr);
 909              		.loc 1 167 5
 910              		.loc 1 167 45 is_stmt 0
 911 05d8 93060000 		li	a3,0
 912 05dc 17060000 		lla	a2,_Z9constructPv
 912      13060600 
 913 05e4 93057000 		li	a1,7
 914 05e8 17050000 		lla	a0,.LC7
 914      13050500 
 915 05f0 97000000 		call	_Z17kmem_cache_createPKcmPFvPvES3_@plt
 915      E7800000 
 916              	.LVL100:
 917 05f8 93040500 		mv	s1,a0
 918              	.LVL101:
 168:src/kernel/slabTests.cpp **** 
 169:src/kernel/slabTests.cpp ****     struct data_s data;
 919              		.loc 1 169 5 is_stmt 1
 170:src/kernel/slabTests.cpp ****     data.shared = shared;
 920              		.loc 1 170 5
 921              		.loc 1 170 17 is_stmt 0
 922 05fc 2338A4FC 		sd	a0,-48(s0)
 171:src/kernel/slabTests.cpp ****     data.iterations = ITERATIONS;
 923              		.loc 1 171 5 is_stmt 1
 924              		.loc 1 171 21 is_stmt 0
 925 0600 9307803E 		li	a5,1000
 926 0604 232CF4FC 		sw	a5,-40(s0)
 172:src/kernel/slabTests.cpp ****     runs(work, &data, RUN_NUM);
 927              		.loc 1 172 5 is_stmt 1
 928              		.loc 1 172 9 is_stmt 0
 929 0608 13065000 		li	a2,5
 930 060c 930584FC 		addi	a1,s0,-56
 931 0610 17050000 		lla	a0,_Z4workPv
 931      13050500 
 932 0618 97000000 		call	_Z4runsPFvPvEP6data_si
GAS LISTING /tmp/ccXZbqyZ.s 			page 22


 932      E7800000 
 933              	.LVL102:
 173:src/kernel/slabTests.cpp **** 
 174:src/kernel/slabTests.cpp ****     kmem_cache_destroy(shared);
 934              		.loc 1 174 5 is_stmt 1
 935              		.loc 1 174 23 is_stmt 0
 936 0620 13850400 		mv	a0,s1
 937 0624 97000000 		call	_Z18kmem_cache_destroyP12kmem_cache_s@plt
 937      E7800000 
 938              	.LVL103:
 175:src/kernel/slabTests.cpp **** }...
 939              		.loc 1 175 1
 940 062c 83308103 		ld	ra,56(sp)
 941              		.cfi_restore 1
 942 0630 03340103 		ld	s0,48(sp)
 943              		.cfi_restore 8
 944              		.cfi_def_cfa 2, 64
 945 0634 83348102 		ld	s1,40(sp)
 946              		.cfi_restore 9
 947              	.LVL104:
 948 0638 13010104 		addi	sp,sp,64
 949              		.cfi_def_cfa_offset 0
 950 063c 67800000 		jr	ra
 951              		.cfi_endproc
 952              	.LFE14:
 954              		.section	.rodata.str1.8
 955 0076 0000     		.align	3
 956              	.LC8:
 957 0078 74635F30 		.string	"tc_0"
 957      00
 958 007d 000000   		.align	3
 959              	.LC9:
 960 0080 74635F31 		.string	"tc_1"
 960      00
 961 0085 000000   		.align	3
 962              	.LC10:
 963 0088 74635F32 		.string	"tc_2"
 963      00
 964 008d 000000   		.align	3
 965              	.LC11:
 966 0090 74635F33 		.string	"tc_3"
 966      00
 967 0095 000000   		.align	3
 968              	.LC12:
 969 0098 74635F34 		.string	"tc_4"
 969      00
 970              		.section	.data.rel.ro.local,"aw"
 971              		.align	3
 972              		.set	.LANCHOR0,. + 0
 975              	_ZL11CACHE_NAMES:
 976 0000 00000000 		.dword	.LC8
 976      00000000 
 977 0008 00000000 		.dword	.LC9
 977      00000000 
 978 0010 00000000 		.dword	.LC10
 978      00000000 
 979 0018 00000000 		.dword	.LC11
GAS LISTING /tmp/ccXZbqyZ.s 			page 23


 979      00000000 
 980 0020 00000000 		.dword	.LC12
 980      00000000 
 981              		.text
 982              	.Letext0:
 983              		.file 2 "src/kernel/../../h/../lib/hw.h"
 984              		.file 3 "src/kernel/../../h/slabAllocator.hpp"
 985              		.file 4 "src/kernel/../../h/PCB.hpp"
 986              		.file 5 "src/kernel/../../h/KSemaphore.hpp"
 987              		.file 6 "src/kernel/../../h/KConsole.hpp"
GAS LISTING /tmp/ccXZbqyZ.s 			page 24


DEFINED SYMBOLS
                            *ABS*:0000000000000000 slabTests.cpp
     /tmp/ccXZbqyZ.s:9      .text:0000000000000000 _Z12slabInitTestv
     /tmp/ccXZbqyZ.s:13     .text:0000000000000000 .L0 
     /tmp/ccXZbqyZ.s:14     .text:0000000000000000 .L0 
     /tmp/ccXZbqyZ.s:15     .text:0000000000000004 .L0 
     /tmp/ccXZbqyZ.s:18     .text:000000000000000c .L0 
     /tmp/ccXZbqyZ.s:19     .text:000000000000000c .L0 
     /tmp/ccXZbqyZ.s:21     .text:0000000000000010 .L0 
     /tmp/ccXZbqyZ.s:23     .text:0000000000000010 .L0 
     /tmp/ccXZbqyZ.s:24     .text:0000000000000010 .L0 
     /tmp/ccXZbqyZ.s:30     .text:0000000000000028 .L0 
     /tmp/ccXZbqyZ.s:31     .text:000000000000002c .L0 
     /tmp/ccXZbqyZ.s:33     .text:0000000000000030 .L0 
     /tmp/ccXZbqyZ.s:34     .text:0000000000000030 .L0 
     /tmp/ccXZbqyZ.s:36     .text:0000000000000034 .L0 
     /tmp/ccXZbqyZ.s:38     .text:0000000000000038 .L0 
     /tmp/ccXZbqyZ.s:55     .text:0000000000000038 _Z19slabCacheCreateTestv
     /tmp/ccXZbqyZ.s:58     .text:0000000000000038 .L0 
     /tmp/ccXZbqyZ.s:59     .text:0000000000000038 .L0 
     /tmp/ccXZbqyZ.s:60     .text:000000000000003c .L0 
     /tmp/ccXZbqyZ.s:65     .text:000000000000004c .L0 
     /tmp/ccXZbqyZ.s:66     .text:000000000000004c .L0 
     /tmp/ccXZbqyZ.s:67     .text:000000000000004c .L0 
     /tmp/ccXZbqyZ.s:68     .text:000000000000004c .L0 
     /tmp/ccXZbqyZ.s:70     .text:0000000000000050 .L0 
     /tmp/ccXZbqyZ.s:72     .text:0000000000000050 .L0 
     /tmp/ccXZbqyZ.s:73     .text:0000000000000050 .L0 
     /tmp/ccXZbqyZ.s:79     .text:0000000000000068 .L0 
     /tmp/ccXZbqyZ.s:80     .text:0000000000000068 .L0 
     /tmp/ccXZbqyZ.s:89     .text:0000000000000088 .L0 
     /tmp/ccXZbqyZ.s:90     .text:0000000000000088 .L0 
     /tmp/ccXZbqyZ.s:99     .text:00000000000000a8 .L0 
     /tmp/ccXZbqyZ.s:100    .text:00000000000000a8 .L0 
     /tmp/ccXZbqyZ.s:108    .text:00000000000000c4 .L0 
     /tmp/ccXZbqyZ.s:110    .text:00000000000000c8 .L0 
     /tmp/ccXZbqyZ.s:112    .text:00000000000000cc .L0 
     /tmp/ccXZbqyZ.s:114    .text:00000000000000d0 .L0 
     /tmp/ccXZbqyZ.s:115    .text:00000000000000d0 .L0 
     /tmp/ccXZbqyZ.s:119    .text:00000000000000d8 .L0 
     /tmp/ccXZbqyZ.s:120    .text:00000000000000dc .L0 
     /tmp/ccXZbqyZ.s:122    .text:00000000000000e0 .L0 
     /tmp/ccXZbqyZ.s:123    .text:00000000000000e0 .L0 
     /tmp/ccXZbqyZ.s:125    .text:00000000000000e4 .L0 
     /tmp/ccXZbqyZ.s:128    .text:00000000000000e8 .L0 
     /tmp/ccXZbqyZ.s:131    .text:00000000000000ec .L0 
     /tmp/ccXZbqyZ.s:133    .text:00000000000000f0 .L0 
     /tmp/ccXZbqyZ.s:139    .text:00000000000000f0 _Z20slabCacheCreateTest2v
     /tmp/ccXZbqyZ.s:142    .text:00000000000000f0 .L0 
     /tmp/ccXZbqyZ.s:143    .text:00000000000000f0 .L0 
     /tmp/ccXZbqyZ.s:144    .text:00000000000000f4 .L0 
     /tmp/ccXZbqyZ.s:149    .text:0000000000000104 .L0 
     /tmp/ccXZbqyZ.s:150    .text:0000000000000104 .L0 
     /tmp/ccXZbqyZ.s:151    .text:0000000000000104 .L0 
     /tmp/ccXZbqyZ.s:152    .text:0000000000000104 .L0 
     /tmp/ccXZbqyZ.s:154    .text:0000000000000108 .L0 
     /tmp/ccXZbqyZ.s:156    .text:0000000000000108 .L0 
GAS LISTING /tmp/ccXZbqyZ.s 			page 25


     /tmp/ccXZbqyZ.s:157    .text:0000000000000108 .L0 
     /tmp/ccXZbqyZ.s:163    .text:0000000000000120 .L0 
     /tmp/ccXZbqyZ.s:165    .text:0000000000000120 .L0 
     /tmp/ccXZbqyZ.s:166    .text:0000000000000120 .L0 
     /tmp/ccXZbqyZ.s:169    .text:0000000000000124 .L0 
     /tmp/ccXZbqyZ.s:174    .text:0000000000000128 .L0 
     /tmp/ccXZbqyZ.s:177    .text:0000000000000130 .L0 
     /tmp/ccXZbqyZ.s:178    .text:0000000000000130 .L0 
     /tmp/ccXZbqyZ.s:187    .text:0000000000000150 .L0 
     /tmp/ccXZbqyZ.s:194    .text:0000000000000158 .L0 
     /tmp/ccXZbqyZ.s:195    .text:0000000000000158 .L0 
     /tmp/ccXZbqyZ.s:198    .text:0000000000000160 .L0 
     /tmp/ccXZbqyZ.s:199    .text:0000000000000160 .L0 
     /tmp/ccXZbqyZ.s:203    .text:000000000000016c .L0 
     /tmp/ccXZbqyZ.s:204    .text:000000000000016c .L0 
     /tmp/ccXZbqyZ.s:207    .text:0000000000000174 .L0 
     /tmp/ccXZbqyZ.s:208    .text:0000000000000178 .L0 
     /tmp/ccXZbqyZ.s:210    .text:000000000000017c .L0 
     /tmp/ccXZbqyZ.s:211    .text:000000000000017c .L0 
     /tmp/ccXZbqyZ.s:213    .text:0000000000000180 .L0 
     /tmp/ccXZbqyZ.s:216    .text:0000000000000184 .L0 
     /tmp/ccXZbqyZ.s:219    .text:0000000000000188 .L0 
     /tmp/ccXZbqyZ.s:221    .text:000000000000018c .L0 
     /tmp/ccXZbqyZ.s:238    .text:000000000000018c _Z11testKmallocv
     /tmp/ccXZbqyZ.s:241    .text:000000000000018c .L0 
     /tmp/ccXZbqyZ.s:242    .text:000000000000018c .L0 
     /tmp/ccXZbqyZ.s:243    .text:0000000000000190 .L0 
     /tmp/ccXZbqyZ.s:251    .text:00000000000001ac .L0 
     /tmp/ccXZbqyZ.s:252    .text:00000000000001ac .L0 
     /tmp/ccXZbqyZ.s:253    .text:00000000000001ac .L0 
     /tmp/ccXZbqyZ.s:254    .text:00000000000001ac .L0 
     /tmp/ccXZbqyZ.s:255    .text:00000000000001ac .L0 
     /tmp/ccXZbqyZ.s:256    .text:00000000000001ac .L0 
     /tmp/ccXZbqyZ.s:257    .text:00000000000001ac .L0 
     /tmp/ccXZbqyZ.s:259    .text:00000000000001b0 .L0 
     /tmp/ccXZbqyZ.s:261    .text:00000000000001b0 .L0 
     /tmp/ccXZbqyZ.s:262    .text:00000000000001b0 .L0 
     /tmp/ccXZbqyZ.s:268    .text:00000000000001c0 .L0 
     /tmp/ccXZbqyZ.s:270    .text:00000000000001c0 .L0 
     /tmp/ccXZbqyZ.s:271    .text:00000000000001c0 .L0 
     /tmp/ccXZbqyZ.s:274    .text:00000000000001c4 .L0 
     /tmp/ccXZbqyZ.s:281    .text:00000000000001cc .L0 
     /tmp/ccXZbqyZ.s:285    .text:00000000000001d0 .L0 
     /tmp/ccXZbqyZ.s:290    .text:00000000000001d4 .L0 
     /tmp/ccXZbqyZ.s:294    .text:00000000000001dc .L0 
     /tmp/ccXZbqyZ.s:295    .text:00000000000001dc .L0 
     /tmp/ccXZbqyZ.s:300    .text:00000000000001ec .L0 
     /tmp/ccXZbqyZ.s:301    .text:00000000000001ec .L0 
     /tmp/ccXZbqyZ.s:304    .text:00000000000001f0 .L0 
     /tmp/ccXZbqyZ.s:308    .text:00000000000001f8 .L0 
     /tmp/ccXZbqyZ.s:310    .text:00000000000001fc .L0 
     /tmp/ccXZbqyZ.s:312    .text:0000000000000200 .L0 
     /tmp/ccXZbqyZ.s:313    .text:0000000000000200 .L0 
     /tmp/ccXZbqyZ.s:318    .text:0000000000000210 .L0 
     /tmp/ccXZbqyZ.s:319    .text:0000000000000210 .L0 
     /tmp/ccXZbqyZ.s:325    .text:0000000000000228 .L0 
     /tmp/ccXZbqyZ.s:326    .text:0000000000000228 .L0 
GAS LISTING /tmp/ccXZbqyZ.s 			page 26


     /tmp/ccXZbqyZ.s:337    .text:0000000000000244 .L0 
     /tmp/ccXZbqyZ.s:341    .text:0000000000000248 .L0 
     /tmp/ccXZbqyZ.s:345    .text:0000000000000250 .L0 
     /tmp/ccXZbqyZ.s:352    .text:0000000000000258 .L0 
     /tmp/ccXZbqyZ.s:356    .text:000000000000025c .L0 
     /tmp/ccXZbqyZ.s:358    .text:0000000000000260 .L0 
     /tmp/ccXZbqyZ.s:359    .text:0000000000000260 .L0 
     /tmp/ccXZbqyZ.s:362    .text:0000000000000268 .L0 
     /tmp/ccXZbqyZ.s:366    .text:0000000000000274 .L0 
     /tmp/ccXZbqyZ.s:373    .text:000000000000027c .L0 
     /tmp/ccXZbqyZ.s:374    .text:000000000000027c .L0 
     /tmp/ccXZbqyZ.s:377    .text:0000000000000284 .L0 
     /tmp/ccXZbqyZ.s:378    .text:0000000000000288 .L0 
     /tmp/ccXZbqyZ.s:380    .text:000000000000028c .L0 
     /tmp/ccXZbqyZ.s:381    .text:000000000000028c .L0 
     /tmp/ccXZbqyZ.s:383    .text:0000000000000290 .L0 
     /tmp/ccXZbqyZ.s:386    .text:0000000000000294 .L0 
     /tmp/ccXZbqyZ.s:389    .text:0000000000000298 .L0 
     /tmp/ccXZbqyZ.s:391    .text:000000000000029c .L0 
     /tmp/ccXZbqyZ.s:394    .text:00000000000002a0 .L0 
     /tmp/ccXZbqyZ.s:397    .text:00000000000002a4 .L0 
     /tmp/ccXZbqyZ.s:399    .text:00000000000002a8 .L0 
     /tmp/ccXZbqyZ.s:405    .text:00000000000002a8 _Z6memsetPKvii
     /tmp/ccXZbqyZ.s:408    .text:00000000000002a8 .L0 
     /tmp/ccXZbqyZ.s:410    .text:00000000000002a8 .L0 
     /tmp/ccXZbqyZ.s:411    .text:00000000000002ac .L0 
     /tmp/ccXZbqyZ.s:413    .text:00000000000002b0 .L0 
     /tmp/ccXZbqyZ.s:415    .text:00000000000002b4 .L0 
     /tmp/ccXZbqyZ.s:419    .text:00000000000002b4 .L0 
     /tmp/ccXZbqyZ.s:420    .text:00000000000002b4 .L0 
     /tmp/ccXZbqyZ.s:424    .text:00000000000002b8 .L0 
     /tmp/ccXZbqyZ.s:426    .text:00000000000002bc .L0 
     /tmp/ccXZbqyZ.s:427    .text:00000000000002bc .L0 
     /tmp/ccXZbqyZ.s:429    .text:00000000000002c0 .L0 
     /tmp/ccXZbqyZ.s:431    .text:00000000000002c4 .L0 
     /tmp/ccXZbqyZ.s:438    .text:00000000000002cc .L0 
     /tmp/ccXZbqyZ.s:439    .text:00000000000002d0 .L0 
     /tmp/ccXZbqyZ.s:440    .text:00000000000002d0 .L0 
     /tmp/ccXZbqyZ.s:442    .text:00000000000002d4 .L0 
     /tmp/ccXZbqyZ.s:444    .text:00000000000002d8 .L0 
     /tmp/ccXZbqyZ.s:450    .text:00000000000002d8 _Z9constructPv
     /tmp/ccXZbqyZ.s:453    .text:00000000000002d8 .L0 
     /tmp/ccXZbqyZ.s:455    .text:00000000000002d8 .L0 
     /tmp/ccXZbqyZ.s:456    .text:00000000000002dc .L0 
     /tmp/ccXZbqyZ.s:459    .text:00000000000002e4 .L0 
     /tmp/ccXZbqyZ.s:460    .text:00000000000002e4 .L0 
     /tmp/ccXZbqyZ.s:462    .text:00000000000002e8 .L0 
     /tmp/ccXZbqyZ.s:464    .text:00000000000002e8 .L0 
     /tmp/ccXZbqyZ.s:465    .text:00000000000002e8 .L0 
     /tmp/ccXZbqyZ.s:470    .text:00000000000002f8 .L0 
     /tmp/ccXZbqyZ.s:471    .text:00000000000002fc .L0 
     /tmp/ccXZbqyZ.s:473    .text:0000000000000300 .L0 
     /tmp/ccXZbqyZ.s:474    .text:0000000000000300 .L0 
     /tmp/ccXZbqyZ.s:476    .text:0000000000000304 .L0 
     /tmp/ccXZbqyZ.s:478    .text:0000000000000308 .L0 
     /tmp/ccXZbqyZ.s:484    .text:0000000000000308 _Z5checkPvm
     /tmp/ccXZbqyZ.s:487    .text:0000000000000308 .L0 
GAS LISTING /tmp/ccXZbqyZ.s 			page 27


     /tmp/ccXZbqyZ.s:489    .text:0000000000000308 .L0 
     /tmp/ccXZbqyZ.s:490    .text:000000000000030c .L0 
     /tmp/ccXZbqyZ.s:492    .text:0000000000000310 .L0 
     /tmp/ccXZbqyZ.s:494    .text:0000000000000314 .L0 
     /tmp/ccXZbqyZ.s:498    .text:0000000000000318 .L0 
     /tmp/ccXZbqyZ.s:500    .text:0000000000000318 .L0 
     /tmp/ccXZbqyZ.s:501    .text:0000000000000318 .L0 
     /tmp/ccXZbqyZ.s:504    .text:000000000000031c .L0 
     /tmp/ccXZbqyZ.s:511    .text:0000000000000324 .L0 
     /tmp/ccXZbqyZ.s:515    .text:0000000000000328 .L0 
     /tmp/ccXZbqyZ.s:517    .text:000000000000032c .L0 
     /tmp/ccXZbqyZ.s:518    .text:000000000000032c .L0 
     /tmp/ccXZbqyZ.s:521    .text:0000000000000334 .L0 
     /tmp/ccXZbqyZ.s:524    .text:000000000000033c .L0 
     /tmp/ccXZbqyZ.s:531    .text:0000000000000344 .L0 
     /tmp/ccXZbqyZ.s:532    .text:0000000000000344 .L0 
     /tmp/ccXZbqyZ.s:533    .text:0000000000000348 .L0 
     /tmp/ccXZbqyZ.s:534    .text:0000000000000348 .L0 
     /tmp/ccXZbqyZ.s:536    .text:000000000000034c .L0 
     /tmp/ccXZbqyZ.s:538    .text:0000000000000350 .L0 
     /tmp/ccXZbqyZ.s:549    .text:0000000000000350 _Z4workPv
     /tmp/ccXZbqyZ.s:552    .text:0000000000000350 .L0 
     /tmp/ccXZbqyZ.s:554    .text:0000000000000350 .L0 
     /tmp/ccXZbqyZ.s:555    .text:0000000000000354 .L0 
     /tmp/ccXZbqyZ.s:567    .text:0000000000000380 .L0 
     /tmp/ccXZbqyZ.s:568    .text:0000000000000380 .L0 
     /tmp/ccXZbqyZ.s:569    .text:0000000000000380 .L0 
     /tmp/ccXZbqyZ.s:570    .text:0000000000000380 .L0 
     /tmp/ccXZbqyZ.s:571    .text:0000000000000380 .L0 
     /tmp/ccXZbqyZ.s:572    .text:0000000000000380 .L0 
     /tmp/ccXZbqyZ.s:573    .text:0000000000000380 .L0 
     /tmp/ccXZbqyZ.s:574    .text:0000000000000380 .L0 
     /tmp/ccXZbqyZ.s:575    .text:0000000000000380 .L0 
     /tmp/ccXZbqyZ.s:576    .text:0000000000000380 .L0 
     /tmp/ccXZbqyZ.s:577    .text:0000000000000380 .L0 
     /tmp/ccXZbqyZ.s:579    .text:0000000000000384 .L0 
     /tmp/ccXZbqyZ.s:581    .text:0000000000000384 .L0 
     /tmp/ccXZbqyZ.s:582    .text:0000000000000384 .L0 
     /tmp/ccXZbqyZ.s:590    .text:000000000000039c .L0 
     /tmp/ccXZbqyZ.s:591    .text:000000000000039c .L0 
     /tmp/ccXZbqyZ.s:592    .text:000000000000039c .L0 
     /tmp/ccXZbqyZ.s:594    .text:00000000000003a0 .L0 
     /tmp/ccXZbqyZ.s:597    .text:00000000000003a4 .L0 
     /tmp/ccXZbqyZ.s:598    .text:00000000000003a4 .L0 
     /tmp/ccXZbqyZ.s:603    .text:00000000000003b4 .L0 
     /tmp/ccXZbqyZ.s:614    .text:00000000000003d4 .L0 
     /tmp/ccXZbqyZ.s:615    .text:00000000000003d4 .L0 
     /tmp/ccXZbqyZ.s:617    .text:00000000000003d8 .L0 
     /tmp/ccXZbqyZ.s:624    .text:00000000000003e8 .L0 
     /tmp/ccXZbqyZ.s:627    .text:00000000000003ec .L0 
     /tmp/ccXZbqyZ.s:633    .text:00000000000003f4 .L0 
     /tmp/ccXZbqyZ.s:634    .text:00000000000003f4 .L0 
     /tmp/ccXZbqyZ.s:637    .text:00000000000003fc .L0 
     /tmp/ccXZbqyZ.s:641    .text:0000000000000408 .L0 
     /tmp/ccXZbqyZ.s:643    .text:000000000000040c .L0 
     /tmp/ccXZbqyZ.s:644    .text:000000000000040c .L0 
     /tmp/ccXZbqyZ.s:646    .text:0000000000000410 .L0 
GAS LISTING /tmp/ccXZbqyZ.s 			page 28


     /tmp/ccXZbqyZ.s:647    .text:0000000000000410 .L0 
     /tmp/ccXZbqyZ.s:653    .text:0000000000000420 .L0 
     /tmp/ccXZbqyZ.s:654    .text:0000000000000420 .L0 
     /tmp/ccXZbqyZ.s:657    .text:0000000000000424 .L0 
     /tmp/ccXZbqyZ.s:661    .text:0000000000000428 .L0 
     /tmp/ccXZbqyZ.s:663    .text:000000000000042c .L0 
     /tmp/ccXZbqyZ.s:664    .text:000000000000042c .L0 
     /tmp/ccXZbqyZ.s:667    .text:0000000000000434 .L0 
     /tmp/ccXZbqyZ.s:669    .text:0000000000000438 .L0 
     /tmp/ccXZbqyZ.s:670    .text:0000000000000438 .L0 
     /tmp/ccXZbqyZ.s:672    .text:000000000000043c .L0 
     /tmp/ccXZbqyZ.s:675    .text:0000000000000444 .L0 
     /tmp/ccXZbqyZ.s:679    .text:0000000000000450 .L0 
     /tmp/ccXZbqyZ.s:681    .text:0000000000000454 .L0 
     /tmp/ccXZbqyZ.s:682    .text:0000000000000454 .L0 
     /tmp/ccXZbqyZ.s:684    .text:0000000000000458 .L0 
     /tmp/ccXZbqyZ.s:685    .text:0000000000000458 .L0 
     /tmp/ccXZbqyZ.s:689    .text:0000000000000464 .L0 
     /tmp/ccXZbqyZ.s:691    .text:0000000000000468 .L0 
     /tmp/ccXZbqyZ.s:692    .text:0000000000000468 .L0 
     /tmp/ccXZbqyZ.s:699    .text:000000000000047c .L0 
     /tmp/ccXZbqyZ.s:700    .text:000000000000047c .L0 
     /tmp/ccXZbqyZ.s:704    .text:0000000000000488 .L0 
     /tmp/ccXZbqyZ.s:705    .text:0000000000000488 .L0 
     /tmp/ccXZbqyZ.s:710    .text:0000000000000494 .L0 
     /tmp/ccXZbqyZ.s:715    .text:000000000000049c .L0 
     /tmp/ccXZbqyZ.s:719    .text:00000000000004a4 .L0 
     /tmp/ccXZbqyZ.s:720    .text:00000000000004a4 .L0 
     /tmp/ccXZbqyZ.s:725    .text:00000000000004b4 .L0 
     /tmp/ccXZbqyZ.s:726    .text:00000000000004b4 .L0 
     /tmp/ccXZbqyZ.s:731    .text:00000000000004c4 .L0 
     /tmp/ccXZbqyZ.s:735    .text:00000000000004c8 .L0 
     /tmp/ccXZbqyZ.s:737    .text:00000000000004cc .L0 
     /tmp/ccXZbqyZ.s:738    .text:00000000000004cc .L0 
     /tmp/ccXZbqyZ.s:741    .text:00000000000004d4 .L0 
     /tmp/ccXZbqyZ.s:743    .text:00000000000004d8 .L0 
     /tmp/ccXZbqyZ.s:745    .text:00000000000004dc .L0 
     /tmp/ccXZbqyZ.s:749    .text:00000000000004e4 .L0 
     /tmp/ccXZbqyZ.s:752    .text:00000000000004ec .L0 
     /tmp/ccXZbqyZ.s:757    .text:00000000000004f4 .L0 
     /tmp/ccXZbqyZ.s:758    .text:00000000000004f4 .L0 
     /tmp/ccXZbqyZ.s:762    .text:0000000000000500 .L0 
     /tmp/ccXZbqyZ.s:763    .text:0000000000000500 .L0 
     /tmp/ccXZbqyZ.s:767    .text:000000000000050c .L0 
     /tmp/ccXZbqyZ.s:768    .text:000000000000050c .L0 
     /tmp/ccXZbqyZ.s:772    .text:0000000000000518 .L0 
     /tmp/ccXZbqyZ.s:773    .text:000000000000051c .L0 
     /tmp/ccXZbqyZ.s:775    .text:0000000000000520 .L0 
     /tmp/ccXZbqyZ.s:776    .text:0000000000000520 .L0 
     /tmp/ccXZbqyZ.s:779    .text:0000000000000524 .L0 
     /tmp/ccXZbqyZ.s:781    .text:0000000000000528 .L0 
     /tmp/ccXZbqyZ.s:784    .text:000000000000052c .L0 
     /tmp/ccXZbqyZ.s:787    .text:0000000000000530 .L0 
     /tmp/ccXZbqyZ.s:790    .text:0000000000000534 .L0 
     /tmp/ccXZbqyZ.s:792    .text:0000000000000538 .L0 
     /tmp/ccXZbqyZ.s:794    .text:000000000000053c .L0 
     /tmp/ccXZbqyZ.s:796    .text:0000000000000540 .L0 
GAS LISTING /tmp/ccXZbqyZ.s 			page 29


     /tmp/ccXZbqyZ.s:798    .text:0000000000000544 .L0 
     /tmp/ccXZbqyZ.s:800    .text:0000000000000548 .L0 
     /tmp/ccXZbqyZ.s:803    .text:000000000000054c .L0 
     /tmp/ccXZbqyZ.s:809    .text:000000000000054c _Z4runsPFvPvEP6data_si
     /tmp/ccXZbqyZ.s:812    .text:000000000000054c .L0 
     /tmp/ccXZbqyZ.s:814    .text:000000000000054c .L0 
     /tmp/ccXZbqyZ.s:815    .text:0000000000000550 .L0 
     /tmp/ccXZbqyZ.s:821    .text:0000000000000564 .L0 
     /tmp/ccXZbqyZ.s:822    .text:0000000000000564 .L0 
     /tmp/ccXZbqyZ.s:823    .text:0000000000000564 .L0 
     /tmp/ccXZbqyZ.s:824    .text:0000000000000564 .L0 
     /tmp/ccXZbqyZ.s:825    .text:0000000000000564 .L0 
     /tmp/ccXZbqyZ.s:827    .text:0000000000000568 .L0 
     /tmp/ccXZbqyZ.s:833    .text:0000000000000570 .L0 
     /tmp/ccXZbqyZ.s:834    .text:0000000000000570 .L0 
     /tmp/ccXZbqyZ.s:838    .text:0000000000000574 .L0 
     /tmp/ccXZbqyZ.s:842    .text:000000000000057c .L0 
     /tmp/ccXZbqyZ.s:843    .text:000000000000057c .L0 
     /tmp/ccXZbqyZ.s:844    .text:000000000000057c .L0 
     /tmp/ccXZbqyZ.s:851    .text:0000000000000594 .L0 
     /tmp/ccXZbqyZ.s:852    .text:0000000000000594 .L0 
     /tmp/ccXZbqyZ.s:854    .text:0000000000000598 .L0 
     /tmp/ccXZbqyZ.s:855    .text:0000000000000598 .L0 
     /tmp/ccXZbqyZ.s:860    .text:00000000000005a0 .L0 
     /tmp/ccXZbqyZ.s:867    .text:00000000000005a8 .L0 
     /tmp/ccXZbqyZ.s:868    .text:00000000000005ac .L0 
     /tmp/ccXZbqyZ.s:870    .text:00000000000005b0 .L0 
     /tmp/ccXZbqyZ.s:871    .text:00000000000005b0 .L0 
     /tmp/ccXZbqyZ.s:873    .text:00000000000005b4 .L0 
     /tmp/ccXZbqyZ.s:876    .text:00000000000005b8 .L0 
     /tmp/ccXZbqyZ.s:879    .text:00000000000005bc .L0 
     /tmp/ccXZbqyZ.s:882    .text:00000000000005c0 .L0 
     /tmp/ccXZbqyZ.s:884    .text:00000000000005c4 .L0 
     /tmp/ccXZbqyZ.s:895    .text:00000000000005c4 _Z7testOS2v
     /tmp/ccXZbqyZ.s:898    .text:00000000000005c4 .L0 
     /tmp/ccXZbqyZ.s:899    .text:00000000000005c4 .L0 
     /tmp/ccXZbqyZ.s:900    .text:00000000000005c8 .L0 
     /tmp/ccXZbqyZ.s:904    .text:00000000000005d4 .L0 
     /tmp/ccXZbqyZ.s:905    .text:00000000000005d4 .L0 
     /tmp/ccXZbqyZ.s:906    .text:00000000000005d4 .L0 
     /tmp/ccXZbqyZ.s:908    .text:00000000000005d8 .L0 
     /tmp/ccXZbqyZ.s:910    .text:00000000000005d8 .L0 
     /tmp/ccXZbqyZ.s:911    .text:00000000000005d8 .L0 
     /tmp/ccXZbqyZ.s:920    .text:00000000000005fc .L0 
     /tmp/ccXZbqyZ.s:921    .text:00000000000005fc .L0 
     /tmp/ccXZbqyZ.s:922    .text:00000000000005fc .L0 
     /tmp/ccXZbqyZ.s:924    .text:0000000000000600 .L0 
     /tmp/ccXZbqyZ.s:925    .text:0000000000000600 .L0 
     /tmp/ccXZbqyZ.s:928    .text:0000000000000608 .L0 
     /tmp/ccXZbqyZ.s:929    .text:0000000000000608 .L0 
     /tmp/ccXZbqyZ.s:935    .text:0000000000000620 .L0 
     /tmp/ccXZbqyZ.s:936    .text:0000000000000620 .L0 
     /tmp/ccXZbqyZ.s:940    .text:000000000000062c .L0 
     /tmp/ccXZbqyZ.s:941    .text:0000000000000630 .L0 
     /tmp/ccXZbqyZ.s:943    .text:0000000000000634 .L0 
     /tmp/ccXZbqyZ.s:944    .text:0000000000000634 .L0 
     /tmp/ccXZbqyZ.s:946    .text:0000000000000638 .L0 
GAS LISTING /tmp/ccXZbqyZ.s 			page 30


     /tmp/ccXZbqyZ.s:949    .text:000000000000063c .L0 
     /tmp/ccXZbqyZ.s:951    .text:0000000000000640 .L0 
     /tmp/ccXZbqyZ.s:972    .data.rel.ro.local:0000000000000000 .LANCHOR0
     /tmp/ccXZbqyZ.s:975    .data.rel.ro.local:0000000000000000 _ZL11CACHE_NAMES
     /tmp/ccXZbqyZ.s:988    .text:0000000000000640 .L0 
     /tmp/ccXZbqyZ.s:25     .text:0000000000000014 .L0 
     /tmp/ccXZbqyZ.s:74     .text:0000000000000054 .L0 
     /tmp/ccXZbqyZ.s:43     .rodata.str1.8:0000000000000000 .LC0
     /tmp/ccXZbqyZ.s:83     .text:0000000000000074 .L0 
     /tmp/ccXZbqyZ.s:46     .rodata.str1.8:0000000000000010 .LC1
     /tmp/ccXZbqyZ.s:93     .text:0000000000000094 .L0 
     /tmp/ccXZbqyZ.s:49     .rodata.str1.8:0000000000000020 .LC2
     /tmp/ccXZbqyZ.s:103    .text:00000000000000b4 .L0 
     /tmp/ccXZbqyZ.s:158    .text:000000000000010c .L0 
     /tmp/ccXZbqyZ.s:181    .text:000000000000013c .L0 
     /tmp/ccXZbqyZ.s:226    .rodata.str1.8:0000000000000030 .LC3
     /tmp/ccXZbqyZ.s:313    .text:0000000000000200 .L0 
     /tmp/ccXZbqyZ.s:229    .rodata.str1.8:0000000000000040 .LC4
     /tmp/ccXZbqyZ.s:321    .text:0000000000000218 .L0 
     /tmp/ccXZbqyZ.s:232    .rodata.str1.8:0000000000000048 .LC5
     /tmp/ccXZbqyZ.s:328    .text:0000000000000230 .L0 
     /tmp/ccXZbqyZ.s:599    .text:00000000000003a8 .L0 
     /tmp/ccXZbqyZ.s:543    .rodata.str1.8:0000000000000050 .LC6
     /tmp/ccXZbqyZ.s:692    .text:0000000000000468 .L0 
     /tmp/ccXZbqyZ.s:720    .text:00000000000004a4 .L0 
     /tmp/ccXZbqyZ.s:912    .text:00000000000005dc .L0 
     /tmp/ccXZbqyZ.s:889    .rodata.str1.8:0000000000000068 .LC7
     /tmp/ccXZbqyZ.s:914    .text:00000000000005e8 .L0 
     /tmp/ccXZbqyZ.s:931    .text:0000000000000610 .L0 
     /tmp/ccXZbqyZ.s:117    .text:00000000000000d8 .L3
     /tmp/ccXZbqyZ.s:191    .text:0000000000000158 .L7
     /tmp/ccXZbqyZ.s:171    .text:0000000000000128 .L8
     /tmp/ccXZbqyZ.s:339    .text:0000000000000248 .L15
     /tmp/ccXZbqyZ.s:333    .text:0000000000000244 .L12
     /tmp/ccXZbqyZ.s:277    .text:00000000000001cc .L13
     /tmp/ccXZbqyZ.s:347    .text:0000000000000258 .L17
     /tmp/ccXZbqyZ.s:286    .text:00000000000001d4 .L14
     /tmp/ccXZbqyZ.s:370    .text:000000000000027c .L16
     /tmp/ccXZbqyZ.s:353    .text:000000000000025c .L11
     /tmp/ccXZbqyZ.s:435    .text:00000000000002cc .L19
     /tmp/ccXZbqyZ.s:422    .text:00000000000002b8 .L21
     /tmp/ccXZbqyZ.s:513    .text:0000000000000328 .L28
     /tmp/ccXZbqyZ.s:528    .text:0000000000000344 .L26
     /tmp/ccXZbqyZ.s:508    .text:0000000000000324 .L27
     /tmp/ccXZbqyZ.s:659    .text:0000000000000428 .L35
     /tmp/ccXZbqyZ.s:696    .text:000000000000047c .L32
     /tmp/ccXZbqyZ.s:630    .text:00000000000003f4 .L33
     /tmp/ccXZbqyZ.s:651    .text:0000000000000420 .L34
     /tmp/ccXZbqyZ.s:733    .text:00000000000004c8 .L39
     /tmp/ccXZbqyZ.s:747    .text:00000000000004e4 .L37
     /tmp/ccXZbqyZ.s:754    .text:00000000000004f4 .L36
     /tmp/ccXZbqyZ.s:713    .text:000000000000049c .L40
     /tmp/ccXZbqyZ.s:723    .text:00000000000004b4 .L38
     /tmp/ccXZbqyZ.s:717    .text:00000000000004a4 .L42
     /tmp/ccXZbqyZ.s:864    .text:00000000000005a8 .L43
     /tmp/ccXZbqyZ.s:836    .text:0000000000000574 .L45
     /tmp/ccXZbqyZ.s:956    .rodata.str1.8:0000000000000078 .LC8
GAS LISTING /tmp/ccXZbqyZ.s 			page 31


     /tmp/ccXZbqyZ.s:959    .rodata.str1.8:0000000000000080 .LC9
     /tmp/ccXZbqyZ.s:962    .rodata.str1.8:0000000000000088 .LC10
     /tmp/ccXZbqyZ.s:965    .rodata.str1.8:0000000000000090 .LC11
     /tmp/ccXZbqyZ.s:968    .rodata.str1.8:0000000000000098 .LC12
     /tmp/ccXZbqyZ.s:3134   .debug_abbrev:0000000000000000 .Ldebug_abbrev0
     /tmp/ccXZbqyZ.s:4579   .debug_str:0000000000000485 .LASF227
     /tmp/ccXZbqyZ.s:4635   .debug_str:0000000000000736 .LASF228
     /tmp/ccXZbqyZ.s:4577   .debug_str:0000000000000467 .LASF229
     /tmp/ccXZbqyZ.s:5      .text:0000000000000000 .Ltext0
     /tmp/ccXZbqyZ.s:982    .text:0000000000000640 .Letext0
     /tmp/ccXZbqyZ.s:4435   .debug_line:0000000000000000 .Ldebug_line0
     /tmp/ccXZbqyZ.s:4603   .debug_str:0000000000000625 .LASF0
     /tmp/ccXZbqyZ.s:4625   .debug_str:00000000000006e7 .LASF1
     /tmp/ccXZbqyZ.s:4739   .debug_str:0000000000000b0a .LASF2
     /tmp/ccXZbqyZ.s:4753   .debug_str:0000000000000b7e .LASF4
     /tmp/ccXZbqyZ.s:4611   .debug_str:000000000000065e .LASF3
     /tmp/ccXZbqyZ.s:4453   .debug_str:0000000000000080 .LASF5
     /tmp/ccXZbqyZ.s:4699   .debug_str:0000000000000993 .LASF6
     /tmp/ccXZbqyZ.s:4617   .debug_str:00000000000006a6 .LASF7
     /tmp/ccXZbqyZ.s:4575   .debug_str:0000000000000457 .LASF8
     /tmp/ccXZbqyZ.s:4583   .debug_str:0000000000000569 .LASF9
     /tmp/ccXZbqyZ.s:4497   .debug_str:0000000000000255 .LASF10
     /tmp/ccXZbqyZ.s:4789   .debug_str:0000000000000cca .LASF11
     /tmp/ccXZbqyZ.s:4565   .debug_str:0000000000000419 .LASF12
     /tmp/ccXZbqyZ.s:4511   .debug_str:000000000000029b .LASF13
     /tmp/ccXZbqyZ.s:4495   .debug_str:0000000000000245 .LASF14
     /tmp/ccXZbqyZ.s:4795   .debug_str:0000000000000d1b .LASF15
     /tmp/ccXZbqyZ.s:4547   .debug_str:000000000000038b .LASF16
     /tmp/ccXZbqyZ.s:4783   .debug_str:0000000000000c78 .LASF17
     /tmp/ccXZbqyZ.s:4561   .debug_str:00000000000003fb .LASF18
     /tmp/ccXZbqyZ.s:4559   .debug_str:00000000000003ee .LASF230
     /tmp/ccXZbqyZ.s:4815   .debug_str:0000000000000d7e .LASF231
     /tmp/ccXZbqyZ.s:4807   .debug_str:0000000000000d5d .LASF19
     /tmp/ccXZbqyZ.s:4771   .debug_str:0000000000000c0c .LASF20
     /tmp/ccXZbqyZ.s:4503   .debug_str:0000000000000276 .LASF21
     /tmp/ccXZbqyZ.s:4481   .debug_str:0000000000000195 .LASF22
     /tmp/ccXZbqyZ.s:4703   .debug_str:00000000000009ad .LASF23
     /tmp/ccXZbqyZ.s:4501   .debug_str:000000000000026d .LASF24
     /tmp/ccXZbqyZ.s:4803   .debug_str:0000000000000d4a .LASF92
     /tmp/ccXZbqyZ.s:4595   .debug_str:00000000000005ef .LASF25
     /tmp/ccXZbqyZ.s:4457   .debug_str:000000000000008c .LASF31
     /tmp/ccXZbqyZ.s:4835   .debug_str:0000000000000e06 .LASF232
     /tmp/ccXZbqyZ.s:4689   .debug_str:0000000000000943 .LASF26
     /tmp/ccXZbqyZ.s:4623   .debug_str:00000000000006e2 .LASF27
     /tmp/ccXZbqyZ.s:4893   .debug_str:0000000000000fbf .LASF29
     /tmp/ccXZbqyZ.s:4889   .debug_str:0000000000000fa3 .LASF28
     /tmp/ccXZbqyZ.s:4825   .debug_str:0000000000000db3 .LASF30
     /tmp/ccXZbqyZ.s:4529   .debug_str:000000000000033d .LASF54
     /tmp/ccXZbqyZ.s:4465   .debug_str:00000000000000cc .LASF56
     /tmp/ccXZbqyZ.s:4821   .debug_str:0000000000000d99 .LASF32
     /tmp/ccXZbqyZ.s:4763   .debug_str:0000000000000bc3 .LASF33
     /tmp/ccXZbqyZ.s:4631   .debug_str:0000000000000711 .LASF36
     /tmp/ccXZbqyZ.s:4641   .debug_str:0000000000000775 .LASF38
     /tmp/ccXZbqyZ.s:4899   .debug_str:0000000000001004 .LASF34
     /tmp/ccXZbqyZ.s:4551   .debug_str:00000000000003b4 .LASF35
     /tmp/ccXZbqyZ.s:4447   .debug_str:0000000000000059 .LASF80
     /tmp/ccXZbqyZ.s:4609   .debug_str:0000000000000651 .LASF82
GAS LISTING /tmp/ccXZbqyZ.s 			page 32


     /tmp/ccXZbqyZ.s:4765   .debug_str:0000000000000bd4 .LASF37
     /tmp/ccXZbqyZ.s:4669   .debug_str:0000000000000861 .LASF39
     /tmp/ccXZbqyZ.s:4749   .debug_str:0000000000000b4f .LASF40
     /tmp/ccXZbqyZ.s:4787   .debug_str:0000000000000cae .LASF41
     /tmp/ccXZbqyZ.s:4671   .debug_str:0000000000000874 .LASF42
     /tmp/ccXZbqyZ.s:4441   .debug_str:000000000000001b .LASF43
     /tmp/ccXZbqyZ.s:4879   .debug_str:0000000000000f5d .LASF44
     /tmp/ccXZbqyZ.s:4697   .debug_str:0000000000000979 .LASF45
     /tmp/ccXZbqyZ.s:4781   .debug_str:0000000000000c6a .LASF46
     /tmp/ccXZbqyZ.s:4715   .debug_str:00000000000009f1 .LASF47
     /tmp/ccXZbqyZ.s:4525   .debug_str:0000000000000326 .LASF48
     /tmp/ccXZbqyZ.s:4567   .debug_str:0000000000000428 .LASF49
     /tmp/ccXZbqyZ.s:4733   .debug_str:0000000000000add .LASF50
     /tmp/ccXZbqyZ.s:4649   .debug_str:00000000000007c6 .LASF51
     /tmp/ccXZbqyZ.s:4883   .debug_str:0000000000000f7d .LASF52
     /tmp/ccXZbqyZ.s:4613   .debug_str:0000000000000670 .LASF53
     /tmp/ccXZbqyZ.s:4777   .debug_str:0000000000000c4d .LASF55
     /tmp/ccXZbqyZ.s:4891   .debug_str:0000000000000fa9 .LASF57
     /tmp/ccXZbqyZ.s:4805   .debug_str:0000000000000d52 .LASF58
     /tmp/ccXZbqyZ.s:4523   .debug_str:0000000000000310 .LASF59
     /tmp/ccXZbqyZ.s:4761   .debug_str:0000000000000bbb .LASF60
     /tmp/ccXZbqyZ.s:4605   .debug_str:0000000000000632 .LASF61
     /tmp/ccXZbqyZ.s:4679   .debug_str:00000000000008ae .LASF62
     /tmp/ccXZbqyZ.s:4517   .debug_str:00000000000002e8 .LASF63
     /tmp/ccXZbqyZ.s:4719   .debug_str:0000000000000a20 .LASF64
     /tmp/ccXZbqyZ.s:4907   .debug_str:000000000000103c .LASF65
     /tmp/ccXZbqyZ.s:4683   .debug_str:00000000000008f3 .LASF66
     /tmp/ccXZbqyZ.s:4747   .debug_str:0000000000000b3c .LASF67
     /tmp/ccXZbqyZ.s:4767   .debug_str:0000000000000bdd .LASF68
     /tmp/ccXZbqyZ.s:4853   .debug_str:0000000000000e9c .LASF69
     /tmp/ccXZbqyZ.s:4657   .debug_str:00000000000007fa .LASF70
     /tmp/ccXZbqyZ.s:4837   .debug_str:0000000000000e1e .LASF71
     /tmp/ccXZbqyZ.s:4785   .debug_str:0000000000000c8e .LASF72
     /tmp/ccXZbqyZ.s:4693   .debug_str:0000000000000952 .LASF73
     /tmp/ccXZbqyZ.s:4685   .debug_str:0000000000000914 .LASF74
     /tmp/ccXZbqyZ.s:4539   .debug_str:000000000000035f .LASF75
     /tmp/ccXZbqyZ.s:4607   .debug_str:0000000000000646 .LASF76
     /tmp/ccXZbqyZ.s:4661   .debug_str:0000000000000837 .LASF77
     /tmp/ccXZbqyZ.s:4827   .debug_str:0000000000000dc3 .LASF78
     /tmp/ccXZbqyZ.s:4571   .debug_str:000000000000043e .LASF79
     /tmp/ccXZbqyZ.s:4887   .debug_str:0000000000000f95 .LASF81
     /tmp/ccXZbqyZ.s:4475   .debug_str:000000000000014c .LASF83
     /tmp/ccXZbqyZ.s:4555   .debug_str:00000000000003ca .LASF84
     /tmp/ccXZbqyZ.s:4491   .debug_str:0000000000000205 .LASF85
     /tmp/ccXZbqyZ.s:4877   .debug_str:0000000000000f56 .LASF86
     /tmp/ccXZbqyZ.s:4489   .debug_str:00000000000001f4 .LASF87
     /tmp/ccXZbqyZ.s:4445   .debug_str:0000000000000054 .LASF88
     /tmp/ccXZbqyZ.s:4847   .debug_str:0000000000000e7f .LASF89
     /tmp/ccXZbqyZ.s:4647   .debug_str:00000000000007be .LASF90
     /tmp/ccXZbqyZ.s:4537   .debug_str:0000000000000359 .LASF91
     /tmp/ccXZbqyZ.s:4833   .debug_str:0000000000000dfe .LASF93
     /tmp/ccXZbqyZ.s:4479   .debug_str:0000000000000184 .LASF94
     /tmp/ccXZbqyZ.s:4653   .debug_str:00000000000007e1 .LASF95
     /tmp/ccXZbqyZ.s:4723   .debug_str:0000000000000a51 .LASF96
     /tmp/ccXZbqyZ.s:4581   .debug_str:0000000000000555 .LASF97
     /tmp/ccXZbqyZ.s:4743   .debug_str:0000000000000b24 .LASF98
     /tmp/ccXZbqyZ.s:4721   .debug_str:0000000000000a3d .LASF99
GAS LISTING /tmp/ccXZbqyZ.s 			page 33


     /tmp/ccXZbqyZ.s:4531   .debug_str:0000000000000346 .LASF100
     /tmp/ccXZbqyZ.s:4775   .debug_str:0000000000000c36 .LASF101
     /tmp/ccXZbqyZ.s:4799   .debug_str:0000000000000d3a .LASF102
     /tmp/ccXZbqyZ.s:4675   .debug_str:000000000000088c .LASF103
     /tmp/ccXZbqyZ.s:4439   .debug_str:000000000000000f .LASF104
     /tmp/ccXZbqyZ.s:4745   .debug_str:0000000000000b30 .LASF105
     /tmp/ccXZbqyZ.s:4655   .debug_str:00000000000007e6 .LASF106
     /tmp/ccXZbqyZ.s:4735   .debug_str:0000000000000aea .LASF107
     /tmp/ccXZbqyZ.s:4499   .debug_str:0000000000000264 .LASF108
     /tmp/ccXZbqyZ.s:4505   .debug_str:0000000000000280 .LASF109
     /tmp/ccXZbqyZ.s:4673   .debug_str:0000000000000883 .LASF110
     /tmp/ccXZbqyZ.s:4811   .debug_str:0000000000000d68 .LASF111
     /tmp/ccXZbqyZ.s:4437   .debug_str:0000000000000000 .LASF112
     /tmp/ccXZbqyZ.s:4587   .debug_str:0000000000000588 .LASF113
     /tmp/ccXZbqyZ.s:4831   .debug_str:0000000000000def .LASF114
     /tmp/ccXZbqyZ.s:4791   .debug_str:0000000000000cdd .LASF115
     /tmp/ccXZbqyZ.s:4769   .debug_str:0000000000000bfb .LASF116
     /tmp/ccXZbqyZ.s:4515   .debug_str:00000000000002c4 .LASF117
     /tmp/ccXZbqyZ.s:4687   .debug_str:0000000000000933 .LASF118
     /tmp/ccXZbqyZ.s:4717   .debug_str:00000000000009fd .LASF119
     /tmp/ccXZbqyZ.s:4601   .debug_str:000000000000061f .LASF120
     /tmp/ccXZbqyZ.s:4903   .debug_str:0000000000001017 .LASF121
     /tmp/ccXZbqyZ.s:4449   .debug_str:0000000000000069 .LASF122
     /tmp/ccXZbqyZ.s:4645   .debug_str:00000000000007a4 .LASF123
     /tmp/ccXZbqyZ.s:4897   .debug_str:0000000000000ff4 .LASF124
     /tmp/ccXZbqyZ.s:4755   .debug_str:0000000000000b85 .LASF125
     /tmp/ccXZbqyZ.s:4797   .debug_str:0000000000000d27 .LASF126
     /tmp/ccXZbqyZ.s:4751   .debug_str:0000000000000b58 .LASF127
     /tmp/ccXZbqyZ.s:4905   .debug_str:000000000000102f .LASF128
     /tmp/ccXZbqyZ.s:4621   .debug_str:00000000000006be .LASF129
     /tmp/ccXZbqyZ.s:4677   .debug_str:00000000000008a5 .LASF130
     /tmp/ccXZbqyZ.s:4477   .debug_str:0000000000000174 .LASF131
     /tmp/ccXZbqyZ.s:4829   .debug_str:0000000000000dcd .LASF132
     /tmp/ccXZbqyZ.s:4757   .debug_str:0000000000000ba8 .LASF133
     /tmp/ccXZbqyZ.s:4443   .debug_str:0000000000000035 .LASF134
     /tmp/ccXZbqyZ.s:4471   .debug_str:0000000000000116 .LASF135
     /tmp/ccXZbqyZ.s:4727   .debug_str:0000000000000a81 .LASF136
     /tmp/ccXZbqyZ.s:4695   .debug_str:0000000000000966 .LASF137
     /tmp/ccXZbqyZ.s:4593   .debug_str:00000000000005db .LASF138
     /tmp/ccXZbqyZ.s:4691   .debug_str:0000000000000948 .LASF139
     /tmp/ccXZbqyZ.s:4627   .debug_str:00000000000006fa .LASF140
     /tmp/ccXZbqyZ.s:4713   .debug_str:00000000000009e7 .LASF141
     /tmp/ccXZbqyZ.s:4855   .debug_str:0000000000000eaf .LASF142
     /tmp/ccXZbqyZ.s:4801   .debug_str:0000000000000d41 .LASF143
     /tmp/ccXZbqyZ.s:4813   .debug_str:0000000000000d73 .LASF144
     /tmp/ccXZbqyZ.s:4849   .debug_str:0000000000000e84 .LASF145
     /tmp/ccXZbqyZ.s:4863   .debug_str:0000000000000ed8 .LASF146
     /tmp/ccXZbqyZ.s:4663   .debug_str:000000000000083f .LASF147
     /tmp/ccXZbqyZ.s:4711   .debug_str:00000000000009db .LASF148
     /tmp/ccXZbqyZ.s:4779   .debug_str:0000000000000c58 .LASF151
     /tmp/ccXZbqyZ.s:4773   .debug_str:0000000000000c14 .LASF153
     /tmp/ccXZbqyZ.s:4843   .debug_str:0000000000000e5a .LASF149
     /tmp/ccXZbqyZ.s:4875   .debug_str:0000000000000f34 .LASF150
     /tmp/ccXZbqyZ.s:4841   .debug_str:0000000000000e48 .LASF152
     /tmp/ccXZbqyZ.s:4459   .debug_str:0000000000000097 .LASF154
     /tmp/ccXZbqyZ.s:4845   .debug_str:0000000000000e6c .LASF155
     /tmp/ccXZbqyZ.s:4487   .debug_str:00000000000001d1 .LASF156
GAS LISTING /tmp/ccXZbqyZ.s 			page 34


     /tmp/ccXZbqyZ.s:4545   .debug_str:0000000000000378 .LASF157
     /tmp/ccXZbqyZ.s:4483   .debug_str:000000000000019e .LASF158
     /tmp/ccXZbqyZ.s:4467   .debug_str:00000000000000df .LASF159
     /tmp/ccXZbqyZ.s:4861   .debug_str:0000000000000ec9 .LASF160
     /tmp/ccXZbqyZ.s:4659   .debug_str:0000000000000818 .LASF161
     /tmp/ccXZbqyZ.s:4873   .debug_str:0000000000000f1b .LASF162
     /tmp/ccXZbqyZ.s:4615   .debug_str:000000000000067d .LASF163
     /tmp/ccXZbqyZ.s:4633   .debug_str:000000000000071e .LASF164
     /tmp/ccXZbqyZ.s:4895   .debug_str:0000000000000fcb .LASF165
     /tmp/ccXZbqyZ.s:4563   .debug_str:0000000000000408 .LASF166
     /tmp/ccXZbqyZ.s:4867   .debug_str:0000000000000ef1 .LASF167
     /tmp/ccXZbqyZ.s:4573   .debug_str:000000000000044a .LASF168
     /tmp/ccXZbqyZ.s:4885   .debug_str:0000000000000f88 .LASF169
     /tmp/ccXZbqyZ.s:4585   .debug_str:0000000000000577 .LASF170
     /tmp/ccXZbqyZ.s:4463   .debug_str:00000000000000c0 .LASF171
     /tmp/ccXZbqyZ.s:4637   .debug_str:000000000000074f .LASF172
     /tmp/ccXZbqyZ.s:4651   .debug_str:00000000000007d5 .LASF173
     /tmp/ccXZbqyZ.s:4469   .debug_str:00000000000000fa .LASF174
     /tmp/ccXZbqyZ.s:4809   .debug_str:0000000000000d63 .LASF175
     /tmp/ccXZbqyZ.s:4461   .debug_str:00000000000000b9 .LASF176
     /tmp/ccXZbqyZ.s:4701   .debug_str:00000000000009a6 .LASF177
     /tmp/ccXZbqyZ.s:4737   .debug_str:0000000000000aff .LASF178
     /tmp/ccXZbqyZ.s:4707   .debug_str:00000000000009c2 .LASF179
     /tmp/ccXZbqyZ.s:4541   .debug_str:0000000000000368 .LASF180
     /tmp/ccXZbqyZ.s:4901   .debug_str:0000000000001011 .LASF181
     /tmp/ccXZbqyZ.s:4619   .debug_str:00000000000006b9 .LASF182
     /tmp/ccXZbqyZ.s:4859   .debug_str:0000000000000ec1 .LASF183
     /tmp/ccXZbqyZ.s:4865   .debug_str:0000000000000ee5 .LASF185
     /tmp/ccXZbqyZ.s:896    .text:00000000000005c4 .LFB14
     /tmp/ccXZbqyZ.s:952    .text:0000000000000640 .LFE14
     /tmp/ccXZbqyZ.s:3998   .debug_loc:0000000000000000 .LLST26
     /tmp/ccXZbqyZ.s:916    .text:00000000000005f8 .LVL100
     /tmp/ccXZbqyZ.s:933    .text:0000000000000620 .LVL102
     /tmp/ccXZbqyZ.s:938    .text:000000000000062c .LVL103
     /tmp/ccXZbqyZ.s:4819   .debug_str:0000000000000d94 .LASF184
     /tmp/ccXZbqyZ.s:4589   .debug_str:00000000000005aa .LASF186
     /tmp/ccXZbqyZ.s:810    .text:000000000000054c .LFB13
     /tmp/ccXZbqyZ.s:885    .text:00000000000005c4 .LFE13
     /tmp/ccXZbqyZ.s:4455   .debug_str:0000000000000087 .LASF187
     /tmp/ccXZbqyZ.s:4005   .debug_loc:0000000000000023 .LLST22
     /tmp/ccXZbqyZ.s:4023   .debug_loc:000000000000006f .LLST23
     /tmp/ccXZbqyZ.s:4041   .debug_loc:00000000000000bb .LLST24
     /tmp/ccXZbqyZ.s:832    .text:0000000000000570 .LBB17
     /tmp/ccXZbqyZ.s:865    .text:00000000000005a8 .LBE17
     /tmp/ccXZbqyZ.s:4055   .debug_loc:00000000000000f4 .LLST25
     /tmp/ccXZbqyZ.s:840    .text:000000000000057c .LBB18
     /tmp/ccXZbqyZ.s:858    .text:00000000000005a0 .LBE18
     /tmp/ccXZbqyZ.s:4709   .debug_str:00000000000009ce .LASF188
     /tmp/ccXZbqyZ.s:857    .text:00000000000005a0 .LVL94
     /tmp/ccXZbqyZ.s:4665   .debug_str:000000000000084b .LASF189
     /tmp/ccXZbqyZ.s:550    .text:0000000000000350 .LFB12
     /tmp/ccXZbqyZ.s:804    .text:000000000000054c .LFE12
     /tmp/ccXZbqyZ.s:4759   .debug_str:0000000000000bb5 .LASF190
     /tmp/ccXZbqyZ.s:4071   .debug_loc:000000000000013e .LLST16
     /tmp/ccXZbqyZ.s:4521   .debug_str:000000000000030b .LASF191
     /tmp/ccXZbqyZ.s:4085   .debug_loc:0000000000000177 .LLST17
     /tmp/ccXZbqyZ.s:4851   .debug_str:0000000000000e90 .LASF192
GAS LISTING /tmp/ccXZbqyZ.s 			page 35


     /tmp/ccXZbqyZ.s:4101   .debug_loc:00000000000001c1 .LLST18
     /tmp/ccXZbqyZ.s:4150   .debug_loc:000000000000024c .LLST19
     /tmp/ccXZbqyZ.s:4509   .debug_str:0000000000000296 .LASF233
     /tmp/ccXZbqyZ.s:4397   .debug_ranges:0000000000000000 .Ldebug_ranges0
     /tmp/ccXZbqyZ.s:4161   .debug_loc:0000000000000282 .LLST20
     /tmp/ccXZbqyZ.s:639    .text:0000000000000408 .LVL69
     /tmp/ccXZbqyZ.s:650    .text:0000000000000420 .LVL70
     /tmp/ccXZbqyZ.s:677    .text:0000000000000450 .LVL73
     /tmp/ccXZbqyZ.s:687    .text:0000000000000464 .LVL74
     /tmp/ccXZbqyZ.s:694    .text:0000000000000478 .LVL75
     /tmp/ccXZbqyZ.s:708    .text:0000000000000494 .LBB16
     /tmp/ccXZbqyZ.s:755    .text:00000000000004f4 .LBE16
     /tmp/ccXZbqyZ.s:4168   .debug_loc:00000000000002a5 .LLST21
     /tmp/ccXZbqyZ.s:722    .text:00000000000004b4 .LVL79
     /tmp/ccXZbqyZ.s:729    .text:00000000000004c4 .LVL80
     /tmp/ccXZbqyZ.s:750    .text:00000000000004ec .LVL82
     /tmp/ccXZbqyZ.s:610    .text:00000000000003d0 .LVL64
     /tmp/ccXZbqyZ.s:620    .text:00000000000003e4 .LVL67
     /tmp/ccXZbqyZ.s:702    .text:0000000000000488 .LVL76
     /tmp/ccXZbqyZ.s:707    .text:0000000000000494 .LVL77
     /tmp/ccXZbqyZ.s:760    .text:0000000000000500 .LVL83
     /tmp/ccXZbqyZ.s:765    .text:000000000000050c .LVL84
     /tmp/ccXZbqyZ.s:770    .text:0000000000000518 .LVL85
     /tmp/ccXZbqyZ.s:4543   .debug_str:0000000000000372 .LASF234
     /tmp/ccXZbqyZ.s:4667   .debug_str:0000000000000855 .LASF235
     /tmp/ccXZbqyZ.s:485    .text:0000000000000308 .LFB11
     /tmp/ccXZbqyZ.s:539    .text:0000000000000350 .LFE11
     /tmp/ccXZbqyZ.s:4175   .debug_loc:00000000000002c8 .LLST13
     /tmp/ccXZbqyZ.s:4186   .debug_loc:00000000000002fe .LLST14
     /tmp/ccXZbqyZ.s:4202   .debug_loc:0000000000000348 .LLST15
     /tmp/ccXZbqyZ.s:4553   .debug_str:00000000000003c0 .LASF193
     /tmp/ccXZbqyZ.s:4451   .debug_str:0000000000000071 .LASF194
     /tmp/ccXZbqyZ.s:451    .text:00000000000002d8 .LFB10
     /tmp/ccXZbqyZ.s:479    .text:0000000000000308 .LFE10
     /tmp/ccXZbqyZ.s:4214   .debug_loc:000000000000037f .LLST12
     /tmp/ccXZbqyZ.s:468    .text:00000000000002f8 .LVL51
     /tmp/ccXZbqyZ.s:4857   .debug_str:0000000000000eba .LASF195
     /tmp/ccXZbqyZ.s:4557   .debug_str:00000000000003df .LASF196
     /tmp/ccXZbqyZ.s:406    .text:00000000000002a8 .LFB9
     /tmp/ccXZbqyZ.s:445    .text:00000000000002d8 .LFE9
     /tmp/ccXZbqyZ.s:4597   .debug_str:00000000000005f5 .LASF197
     /tmp/ccXZbqyZ.s:418    .text:00000000000002b4 .LBB11
     /tmp/ccXZbqyZ.s:436    .text:00000000000002cc .LBE11
     /tmp/ccXZbqyZ.s:4228   .debug_loc:00000000000003b8 .LLST11
     /tmp/ccXZbqyZ.s:4507   .debug_str:000000000000028a .LASF198
     /tmp/ccXZbqyZ.s:4881   .debug_str:0000000000000f6c .LASF199
     /tmp/ccXZbqyZ.s:239    .text:000000000000018c .LFB8
     /tmp/ccXZbqyZ.s:400    .text:00000000000002a8 .LFE8
     /tmp/ccXZbqyZ.s:4244   .debug_loc:0000000000000402 .LLST5
     /tmp/ccXZbqyZ.s:4527   .debug_str:0000000000000336 .LASF200
     /tmp/ccXZbqyZ.s:4255   .debug_loc:0000000000000438 .LLST6
     /tmp/ccXZbqyZ.s:4277   .debug_loc:0000000000000497 .LLST7
     /tmp/ccXZbqyZ.s:4289   .debug_loc:00000000000004ce .LLST8
     /tmp/ccXZbqyZ.s:4300   .debug_loc:0000000000000504 .LLST9
     /tmp/ccXZbqyZ.s:298    .text:00000000000001ec .LVL27
     /tmp/ccXZbqyZ.s:316    .text:0000000000000210 .LVL31
     /tmp/ccXZbqyZ.s:323    .text:0000000000000228 .LVL32
GAS LISTING /tmp/ccXZbqyZ.s 			page 36


     /tmp/ccXZbqyZ.s:330    .text:0000000000000240 .LVL33
     /tmp/ccXZbqyZ.s:350    .text:0000000000000258 .LBB10
     /tmp/ccXZbqyZ.s:371    .text:000000000000027c .LBE10
     /tmp/ccXZbqyZ.s:4312   .debug_loc:000000000000053b .LLST10
     /tmp/ccXZbqyZ.s:364    .text:0000000000000274 .LVL37
     /tmp/ccXZbqyZ.s:264    .text:00000000000001bc .LVL22
     /tmp/ccXZbqyZ.s:375    .text:0000000000000284 .LVL40
     /tmp/ccXZbqyZ.s:4839   .debug_str:0000000000000e33 .LASF201
     /tmp/ccXZbqyZ.s:4591   .debug_str:00000000000005c1 .LASF202
     /tmp/ccXZbqyZ.s:140    .text:00000000000000f0 .LFB7
     /tmp/ccXZbqyZ.s:222    .text:000000000000018c .LFE7
     /tmp/ccXZbqyZ.s:4323   .debug_loc:0000000000000571 .LLST3
     /tmp/ccXZbqyZ.s:4343   .debug_loc:00000000000005ce .LLST4
     /tmp/ccXZbqyZ.s:183    .text:000000000000014c .LVL13
     /tmp/ccXZbqyZ.s:161    .text:0000000000000120 .LVL11
     /tmp/ccXZbqyZ.s:196    .text:0000000000000160 .LVL17
     /tmp/ccXZbqyZ.s:201    .text:000000000000016c .LVL18
     /tmp/ccXZbqyZ.s:205    .text:0000000000000174 .LVL19
     /tmp/ccXZbqyZ.s:4493   .debug_str:0000000000000231 .LASF203
     /tmp/ccXZbqyZ.s:4513   .debug_str:00000000000002ab .LASF204
     /tmp/ccXZbqyZ.s:56     .text:0000000000000038 .LFB6
     /tmp/ccXZbqyZ.s:134    .text:00000000000000f0 .LFE6
     /tmp/ccXZbqyZ.s:4359   .debug_loc:0000000000000618 .LLST0
     /tmp/ccXZbqyZ.s:4533   .debug_str:000000000000034b .LASF205
     /tmp/ccXZbqyZ.s:4366   .debug_loc:000000000000063b .LLST1
     /tmp/ccXZbqyZ.s:4535   .debug_str:0000000000000352 .LASF206
     /tmp/ccXZbqyZ.s:4377   .debug_loc:0000000000000671 .LLST2
     /tmp/ccXZbqyZ.s:77     .text:0000000000000068 .LVL1
     /tmp/ccXZbqyZ.s:85     .text:0000000000000084 .LVL2
     /tmp/ccXZbqyZ.s:95     .text:00000000000000a4 .LVL4
     /tmp/ccXZbqyZ.s:106    .text:00000000000000c4 .LVL7
     /tmp/ccXZbqyZ.s:116    .text:00000000000000d8 .LVL8
     /tmp/ccXZbqyZ.s:4705   .debug_str:00000000000009b5 .LASF207
     /tmp/ccXZbqyZ.s:4823   .debug_str:0000000000000da1 .LASF208
     /tmp/ccXZbqyZ.s:10     .text:0000000000000000 .LFB5
     /tmp/ccXZbqyZ.s:39     .text:0000000000000038 .LFE5
     /tmp/ccXZbqyZ.s:28     .text:0000000000000028 .LVL0
     /tmp/ccXZbqyZ.s:4473   .debug_str:0000000000000129 .LASF209
     /tmp/ccXZbqyZ.s:4731   .debug_str:0000000000000acb .LASF211
     /tmp/ccXZbqyZ.s:4681   .debug_str:00000000000008cd .LASF210
     /tmp/ccXZbqyZ.s:4549   .debug_str:00000000000003a1 .LASF212
     /tmp/ccXZbqyZ.s:4599   .debug_str:00000000000005fb .LASF213
     /tmp/ccXZbqyZ.s:4519   .debug_str:00000000000002fa .LASF214
     /tmp/ccXZbqyZ.s:4725   .debug_str:0000000000000a5c .LASF215
     /tmp/ccXZbqyZ.s:4485   .debug_str:00000000000001c1 .LASF216
     /tmp/ccXZbqyZ.s:4741   .debug_str:0000000000000b18 .LASF217
     /tmp/ccXZbqyZ.s:4869   .debug_str:0000000000000f03 .LASF218
     /tmp/ccXZbqyZ.s:4729   .debug_str:0000000000000aa8 .LASF219
     /tmp/ccXZbqyZ.s:4817   .debug_str:0000000000000d84 .LASF220
     /tmp/ccXZbqyZ.s:4629   .debug_str:0000000000000705 .LASF221
     /tmp/ccXZbqyZ.s:4569   .debug_str:0000000000000438 .LASF222
     /tmp/ccXZbqyZ.s:4793   .debug_str:0000000000000cff .LASF223
     /tmp/ccXZbqyZ.s:4643   .debug_str:000000000000078d .LASF224
     /tmp/ccXZbqyZ.s:4871   .debug_str:0000000000000f0b .LASF225
     /tmp/ccXZbqyZ.s:4639   .debug_str:000000000000076b .LASF226
     /tmp/ccXZbqyZ.s:918    .text:00000000000005fc .LVL101
     /tmp/ccXZbqyZ.s:947    .text:0000000000000638 .LVL104
GAS LISTING /tmp/ccXZbqyZ.s 			page 37


     /tmp/ccXZbqyZ.s:813    .text:000000000000054c .LVL91
     /tmp/ccXZbqyZ.s:835    .text:0000000000000574 .LVL93
     /tmp/ccXZbqyZ.s:880    .text:00000000000005bc .LVL99
     /tmp/ccXZbqyZ.s:877    .text:00000000000005b8 .LVL98
     /tmp/ccXZbqyZ.s:831    .text:0000000000000570 .LVL92
     /tmp/ccXZbqyZ.s:861    .text:00000000000005a4 .LVL95
     /tmp/ccXZbqyZ.s:863    .text:00000000000005a8 .LVL96
     /tmp/ccXZbqyZ.s:874    .text:00000000000005b4 .LVL97
     /tmp/ccXZbqyZ.s:553    .text:0000000000000350 .LVL59
     /tmp/ccXZbqyZ.s:608    .text:00000000000003c8 .LVL63
     /tmp/ccXZbqyZ.s:589    .text:000000000000039c .LVL60
     /tmp/ccXZbqyZ.s:629    .text:00000000000003f4 .LVL68
     /tmp/ccXZbqyZ.s:655    .text:0000000000000424 .LVL71
     /tmp/ccXZbqyZ.s:658    .text:0000000000000428 .LVL72
     /tmp/ccXZbqyZ.s:785    .text:000000000000052c .LVL88
     /tmp/ccXZbqyZ.s:595    .text:00000000000003a4 .LVL61
     /tmp/ccXZbqyZ.s:600    .text:00000000000003b0 .LVL62
     /tmp/ccXZbqyZ.s:777    .text:0000000000000520 .LVL86
     /tmp/ccXZbqyZ.s:801    .text:0000000000000548 .LVL90
     /tmp/ccXZbqyZ.s:612    .text:00000000000003d4 .LVL65
     /tmp/ccXZbqyZ.s:618    .text:00000000000003dc .LVL66
     /tmp/ccXZbqyZ.s:788    .text:0000000000000530 .LVL89
     /tmp/ccXZbqyZ.s:712    .text:000000000000049c .LVL78
     /tmp/ccXZbqyZ.s:782    .text:0000000000000528 .LVL87
     /tmp/ccXZbqyZ.s:488    .text:0000000000000308 .LVL52
     /tmp/ccXZbqyZ.s:505    .text:0000000000000320 .LVL54
     /tmp/ccXZbqyZ.s:497    .text:0000000000000318 .LVL53
     /tmp/ccXZbqyZ.s:507    .text:0000000000000324 .LVL55
     /tmp/ccXZbqyZ.s:525    .text:0000000000000340 .LVL57
     /tmp/ccXZbqyZ.s:527    .text:0000000000000344 .LVL58
     /tmp/ccXZbqyZ.s:454    .text:00000000000002d8 .LVL50
     /tmp/ccXZbqyZ.s:417    .text:00000000000002b4 .LVL46
     /tmp/ccXZbqyZ.s:421    .text:00000000000002b8 .LVL47
     /tmp/ccXZbqyZ.s:432    .text:00000000000002c8 .LVL48
     /tmp/ccXZbqyZ.s:434    .text:00000000000002cc .LVL49
     /tmp/ccXZbqyZ.s:266    .text:00000000000001c0 .LVL23
     /tmp/ccXZbqyZ.s:276    .text:00000000000001cc .LVL24
     /tmp/ccXZbqyZ.s:392    .text:000000000000029c .LVL43
     /tmp/ccXZbqyZ.s:287    .text:00000000000001d4 .LVL26
     /tmp/ccXZbqyZ.s:302    .text:00000000000001f0 .LVL28
     /tmp/ccXZbqyZ.s:305    .text:00000000000001f4 .LVL29
     /tmp/ccXZbqyZ.s:332    .text:0000000000000244 .LVL34
     /tmp/ccXZbqyZ.s:384    .text:0000000000000290 .LVL41
     /tmp/ccXZbqyZ.s:395    .text:00000000000002a0 .LVL44
     /tmp/ccXZbqyZ.s:282    .text:00000000000001d0 .LVL25
     /tmp/ccXZbqyZ.s:338    .text:0000000000000248 .LVL35
     /tmp/ccXZbqyZ.s:314    .text:0000000000000208 .LVL30
     /tmp/ccXZbqyZ.s:354    .text:000000000000025c .LVL36
     /tmp/ccXZbqyZ.s:367    .text:0000000000000278 .LVL38
     /tmp/ccXZbqyZ.s:369    .text:000000000000027c .LVL39
     /tmp/ccXZbqyZ.s:387    .text:0000000000000294 .LVL42
     /tmp/ccXZbqyZ.s:170    .text:0000000000000128 .LVL12
     /tmp/ccXZbqyZ.s:185    .text:0000000000000150 .LVL14
     /tmp/ccXZbqyZ.s:190    .text:0000000000000158 .LVL16
     /tmp/ccXZbqyZ.s:217    .text:0000000000000184 .LVL21
     /tmp/ccXZbqyZ.s:188    .text:0000000000000154 .LVL15
     /tmp/ccXZbqyZ.s:214    .text:0000000000000180 .LVL20
GAS LISTING /tmp/ccXZbqyZ.s 			page 38


     /tmp/ccXZbqyZ.s:87     .text:0000000000000088 .LVL3
     /tmp/ccXZbqyZ.s:126    .text:00000000000000e4 .LVL9
     /tmp/ccXZbqyZ.s:97     .text:00000000000000a8 .LVL5
     /tmp/ccXZbqyZ.s:104    .text:00000000000000bc .LVL6
     /tmp/ccXZbqyZ.s:129    .text:00000000000000e8 .LVL10
     /tmp/ccXZbqyZ.s:989    .debug_info:0000000000000000 .Ldebug_info0
     /tmp/ccXZbqyZ.s:164    .text:0000000000000120 .LBB2
     /tmp/ccXZbqyZ.s:167    .text:0000000000000124 .LBE2
     /tmp/ccXZbqyZ.s:172    .text:0000000000000128 .LBB3
     /tmp/ccXZbqyZ.s:192    .text:0000000000000158 .LBE3
     /tmp/ccXZbqyZ.s:269    .text:00000000000001c0 .LBB4
     /tmp/ccXZbqyZ.s:272    .text:00000000000001c4 .LBE4
     /tmp/ccXZbqyZ.s:278    .text:00000000000001cc .LBB9
     /tmp/ccXZbqyZ.s:349    .text:0000000000000258 .LBE9
     /tmp/ccXZbqyZ.s:279    .text:00000000000001cc .LBB5
     /tmp/ccXZbqyZ.s:335    .text:0000000000000244 .LBE5
     /tmp/ccXZbqyZ.s:343    .text:0000000000000250 .LBB8
     /tmp/ccXZbqyZ.s:348    .text:0000000000000258 .LBE8
     /tmp/ccXZbqyZ.s:283    .text:00000000000001d0 .LBB6
     /tmp/ccXZbqyZ.s:288    .text:00000000000001d4 .LBE6
     /tmp/ccXZbqyZ.s:292    .text:00000000000001dc .LBB7
     /tmp/ccXZbqyZ.s:334    .text:0000000000000244 .LBE7
     /tmp/ccXZbqyZ.s:499    .text:0000000000000318 .LBB12
     /tmp/ccXZbqyZ.s:502    .text:000000000000031c .LBE12
     /tmp/ccXZbqyZ.s:509    .text:0000000000000324 .LBB13
     /tmp/ccXZbqyZ.s:529    .text:0000000000000344 .LBE13
     /tmp/ccXZbqyZ.s:622    .text:00000000000003e8 .LBB14
     /tmp/ccXZbqyZ.s:625    .text:00000000000003ec .LBE14
     /tmp/ccXZbqyZ.s:631    .text:00000000000003f4 .LBB15
     /tmp/ccXZbqyZ.s:697    .text:000000000000047c .LBE15

UNDEFINED SYMBOLS
HEAP_START_ADDR
_Z9kmem_initPvi
_Z17kmem_cache_createPKcmPFvPvES3_
_Z22printSlabAllocatorInfov
_Z18kmem_cache_destroyP12kmem_cache_s
_Z7kmallocm
_ZN8KConsole15trapPrintStringEPKc
_ZN8KConsole18trapPrintStringIntEPKcmi
_Z5kfreePKv
_Z16kmem_cache_allocP12kmem_cache_s
_Z15kmem_cache_infoP12kmem_cache_s
_Z15kmem_cache_freeP12kmem_cache_sPv
