GAS LISTING /tmp/ccmqG3lh.s 			page 1


   1              		.file	"slabAllocator.cpp"
   2              		.option pic
   3              		.option norelax
   4              		.text
   5              	.Ltext0:
   6              		.align	2
   7              		.globl	_Z6strcpyPKcPc
   9              	_Z6strcpyPKcPc:
  10              	.LFB5:
  11              		.file 1 "src/kernel/slabAllocator.cpp"
   1:src/kernel/slabAllocator.cpp **** #include "../../h/slabAllocator.hpp"
   2:src/kernel/slabAllocator.cpp **** #include "../../h/buddyAllocator.hpp"
   3:src/kernel/slabAllocator.cpp **** #include "../../h/KConsole.hpp"
   4:src/kernel/slabAllocator.cpp **** 
   5:src/kernel/slabAllocator.cpp **** //TODO
   6:src/kernel/slabAllocator.cpp **** //check values of the constants
   7:src/kernel/slabAllocator.cpp **** #define SLAB_ALLOCATED_LOOKUP 512
   8:src/kernel/slabAllocator.cpp **** #define CACHE_NAME_SIZE 64
   9:src/kernel/slabAllocator.cpp **** #define CACHE_BUFFER_SMALL 5
  10:src/kernel/slabAllocator.cpp **** #define CACHE_BUFFER_BIG 17
  11:src/kernel/slabAllocator.cpp **** #define CACHE_BUFFER_SIZE CACHE_BUFFER_BIG - CACHE_BUFFER_SMALL + 1
  12:src/kernel/slabAllocator.cpp **** #define CACHE_OF_CACHES_SLAB_SIZE 2
  13:src/kernel/slabAllocator.cpp **** #define NO_ERROR 0
  14:src/kernel/slabAllocator.cpp **** #define EXPAND_ERROR 0b1
  15:src/kernel/slabAllocator.cpp **** #define DESTROY_ERROR 0b10
  16:src/kernel/slabAllocator.cpp **** #define FREE_ERROR 0b100
  17:src/kernel/slabAllocator.cpp **** #define MAX_NUM_OF_OBJS SLAB_ALLOCATED_LOOKUP*8
  18:src/kernel/slabAllocator.cpp **** 
  19:src/kernel/slabAllocator.cpp **** typedef struct slab_s
  20:src/kernel/slabAllocator.cpp **** {
  21:src/kernel/slabAllocator.cpp ****     slab_s* prev;
  22:src/kernel/slabAllocator.cpp ****     slab_s* next;
  23:src/kernel/slabAllocator.cpp ****     kmem_cache_t* owner;
  24:src/kernel/slabAllocator.cpp ****     size_t numOfObjects;
  25:src/kernel/slabAllocator.cpp ****     size_t numOfAllocatedObjects;
  26:src/kernel/slabAllocator.cpp ****     void* startAddr;
  27:src/kernel/slabAllocator.cpp ****     unsigned char allocated[SLAB_ALLOCATED_LOOKUP];
  28:src/kernel/slabAllocator.cpp **** }slab_t;
  29:src/kernel/slabAllocator.cpp **** 
  30:src/kernel/slabAllocator.cpp **** typedef struct kmem_cache_s
  31:src/kernel/slabAllocator.cpp **** {
  32:src/kernel/slabAllocator.cpp ****     char cacheName[CACHE_NAME_SIZE];
  33:src/kernel/slabAllocator.cpp ****     slab_t* slabs_empty;
  34:src/kernel/slabAllocator.cpp ****     slab_t* slabs_full;
  35:src/kernel/slabAllocator.cpp ****     slab_t* slabs_partial;
  36:src/kernel/slabAllocator.cpp ****     size_t slab_size;
  37:src/kernel/slabAllocator.cpp ****     size_t obj_size;
  38:src/kernel/slabAllocator.cpp ****     void (*ctor)(void*);
  39:src/kernel/slabAllocator.cpp ****     void (*dtor)(void*);
  40:src/kernel/slabAllocator.cpp ****     int errors;
  41:src/kernel/slabAllocator.cpp **** }kmem_cache_t;
  42:src/kernel/slabAllocator.cpp **** 
  43:src/kernel/slabAllocator.cpp **** typedef struct slab_allocator_s
  44:src/kernel/slabAllocator.cpp **** {
  45:src/kernel/slabAllocator.cpp ****     kmem_cache_t* cachesBuffers[CACHE_BUFFER_SIZE];
  46:src/kernel/slabAllocator.cpp ****     kmem_cache_t cacheOfCaches;
  47:src/kernel/slabAllocator.cpp **** }slab_allocator_t;
GAS LISTING /tmp/ccmqG3lh.s 			page 2


  48:src/kernel/slabAllocator.cpp **** 
  49:src/kernel/slabAllocator.cpp **** //singleton slab allocator
  50:src/kernel/slabAllocator.cpp **** static slab_allocator_t* slabAllocator = nullptr;
  51:src/kernel/slabAllocator.cpp **** static kmem_cache_t* cacheOfSlabs = nullptr;
  52:src/kernel/slabAllocator.cpp **** //helping functions
  53:src/kernel/slabAllocator.cpp **** void strcpy(const char* src, char* dst)
  54:src/kernel/slabAllocator.cpp **** {
  12              		.loc 1 54 1
  13              		.cfi_startproc
  14              	.LVL0:
  15 0000 130101FF 		addi	sp,sp,-16
  16              		.cfi_def_cfa_offset 16
  17 0004 23348100 		sd	s0,8(sp)
  18              		.cfi_offset 8, -8
  19 0008 13040101 		addi	s0,sp,16
  20              		.cfi_def_cfa 8, 0
  21              	.L3:
  55:src/kernel/slabAllocator.cpp ****     while(*src != '\0')
  22              		.loc 1 55 5
  23              		.loc 1 55 16
  24              		.loc 1 55 11 is_stmt 0
  25 000c 83470500 		lbu	a5,0(a0)
  26              		.loc 1 55 16
  27 0010 638A0700 		beqz	a5,.L2
  56:src/kernel/slabAllocator.cpp ****     {
  57:src/kernel/slabAllocator.cpp ****         *dst = *src;
  28              		.loc 1 57 9 is_stmt 1
  29              		.loc 1 57 14 is_stmt 0
  30 0014 2380F500 		sb	a5,0(a1)
  58:src/kernel/slabAllocator.cpp ****         src++; dst++;
  31              		.loc 1 58 9 is_stmt 1
  32              		.loc 1 58 12 is_stmt 0
  33 0018 13051500 		addi	a0,a0,1
  34              	.LVL1:
  35              		.loc 1 58 16 is_stmt 1
  36              		.loc 1 58 19 is_stmt 0
  37 001c 93851500 		addi	a1,a1,1
  38              	.LVL2:
  55:src/kernel/slabAllocator.cpp ****     while(*src != '\0')
  39              		.loc 1 55 5
  40 0020 6FF0DFFE 		j	.L3
  41              	.L2:
  59:src/kernel/slabAllocator.cpp ****     }
  60:src/kernel/slabAllocator.cpp ****     *dst = *src;
  42              		.loc 1 60 5 is_stmt 1
  43              		.loc 1 60 10 is_stmt 0
  44 0024 2380F500 		sb	a5,0(a1)
  61:src/kernel/slabAllocator.cpp **** }
  45              		.loc 1 61 1
  46 0028 03348100 		ld	s0,8(sp)
  47              		.cfi_restore 8
  48              		.cfi_def_cfa 2, 16
  49 002c 13010101 		addi	sp,sp,16
  50              		.cfi_def_cfa_offset 0
  51 0030 67800000 		jr	ra
  52              		.cfi_endproc
  53              	.LFE5:
GAS LISTING /tmp/ccmqG3lh.s 			page 3


  55              		.align	2
  56              		.globl	_Z17destroy_slab_listPP6slab_s
  58              	_Z17destroy_slab_listPP6slab_s:
  59              	.LFB6:
  62:src/kernel/slabAllocator.cpp **** 
  63:src/kernel/slabAllocator.cpp **** int destroy_slab_list(slab_t** slab)
  64:src/kernel/slabAllocator.cpp **** {
  60              		.loc 1 64 1 is_stmt 1
  61              		.cfi_startproc
  62              	.LVL3:
  63 0034 130101FD 		addi	sp,sp,-48
  64              		.cfi_def_cfa_offset 48
  65 0038 23341102 		sd	ra,40(sp)
  66 003c 23308102 		sd	s0,32(sp)
  67 0040 233C9100 		sd	s1,24(sp)
  68 0044 23382101 		sd	s2,16(sp)
  69 0048 23343101 		sd	s3,8(sp)
  70 004c 23304101 		sd	s4,0(sp)
  71              		.cfi_offset 1, -8
  72              		.cfi_offset 8, -16
  73              		.cfi_offset 9, -24
  74              		.cfi_offset 18, -32
  75              		.cfi_offset 19, -40
  76              		.cfi_offset 20, -48
  77 0050 13040103 		addi	s0,sp,48
  78              		.cfi_def_cfa 8, 0
  65:src/kernel/slabAllocator.cpp ****     if(*slab == nullptr) return 0;
  79              		.loc 1 65 5
  80              		.loc 1 65 8 is_stmt 0
  81 0054 83370500 		ld	a5,0(a0)
  82              		.loc 1 65 5
  83 0058 638C0702 		beqz	a5,.L8
  84 005c 93040500 		mv	s1,a0
  66:src/kernel/slabAllocator.cpp ****     size_t sz = (*slab)->owner->slab_size;
  85              		.loc 1 66 5 is_stmt 1
  86              		.loc 1 66 26 is_stmt 0
  87 0060 83B70701 		ld	a5,16(a5)
  88              		.loc 1 66 12
  89 0064 83B98705 		ld	s3,88(a5)
  90              	.LVL4:
  67:src/kernel/slabAllocator.cpp ****     int totalBlocks = 0;
  91              		.loc 1 67 5 is_stmt 1
  92              		.loc 1 67 9 is_stmt 0
  93 0068 13090000 		li	s2,0
  94              	.LVL5:
  95              	.L7:
  68:src/kernel/slabAllocator.cpp ****     while(*slab != nullptr)
  96              		.loc 1 68 5 is_stmt 1
  97              		.loc 1 68 17
  98              		.loc 1 68 11 is_stmt 0
  99 006c 03B50400 		ld	a0,0(s1)
 100              		.loc 1 68 17
 101 0070 63020502 		beqz	a0,.L6
 102              	.LBB2:
  69:src/kernel/slabAllocator.cpp ****     {
  70:src/kernel/slabAllocator.cpp ****         slab_t* nextSlab = (*slab)->next;
 103              		.loc 1 70 9 is_stmt 1
GAS LISTING /tmp/ccmqG3lh.s 			page 4


 104              		.loc 1 70 17 is_stmt 0
 105 0074 033A8500 		ld	s4,8(a0)
 106              	.LVL6:
  71:src/kernel/slabAllocator.cpp ****         buddy_free(*slab, sz);
 107              		.loc 1 71 9 is_stmt 1
 108              		.loc 1 71 19 is_stmt 0
 109 0078 93850900 		mv	a1,s3
 110 007c 97000000 		call	_Z10buddy_freePvm@plt
 110      E7800000 
 111              	.LVL7:
  72:src/kernel/slabAllocator.cpp ****         *slab = nextSlab;
 112              		.loc 1 72 9 is_stmt 1
 113              		.loc 1 72 15 is_stmt 0
 114 0084 23B04401 		sd	s4,0(s1)
  73:src/kernel/slabAllocator.cpp ****         totalBlocks+=sz;
 115              		.loc 1 73 9 is_stmt 1
 116              		.loc 1 73 20 is_stmt 0
 117 0088 3B892901 		addw	s2,s3,s2
 118              	.LVL8:
 119              	.LBE2:
  68:src/kernel/slabAllocator.cpp ****     {
 120              		.loc 1 68 5
 121 008c 6FF01FFE 		j	.L7
 122              	.LVL9:
 123              	.L8:
  65:src/kernel/slabAllocator.cpp ****     size_t sz = (*slab)->owner->slab_size;
 124              		.loc 1 65 33
 125 0090 13090000 		li	s2,0
 126              	.LVL10:
 127              	.L6:
  74:src/kernel/slabAllocator.cpp ****     }
  75:src/kernel/slabAllocator.cpp ****     return totalBlocks;
  76:src/kernel/slabAllocator.cpp **** }
 128              		.loc 1 76 1
 129 0094 13050900 		mv	a0,s2
 130 0098 83308102 		ld	ra,40(sp)
 131              		.cfi_restore 1
 132 009c 03340102 		ld	s0,32(sp)
 133              		.cfi_restore 8
 134              		.cfi_def_cfa 2, 48
 135 00a0 83348101 		ld	s1,24(sp)
 136              		.cfi_restore 9
 137 00a4 03390101 		ld	s2,16(sp)
 138              		.cfi_restore 18
 139 00a8 83398100 		ld	s3,8(sp)
 140              		.cfi_restore 19
 141 00ac 033A0100 		ld	s4,0(sp)
 142              		.cfi_restore 20
 143 00b0 13010103 		addi	sp,sp,48
 144              		.cfi_def_cfa_offset 0
 145 00b4 67800000 		jr	ra
 146              		.cfi_endproc
 147              	.LFE6:
 149              		.align	2
 150              		.globl	_Z10init_cacheP12kmem_cache_sPKcmmPFvPvES5_
 152              	_Z10init_cacheP12kmem_cache_sPKcmmPFvPvES5_:
 153              	.LFB7:
GAS LISTING /tmp/ccmqG3lh.s 			page 5


  77:src/kernel/slabAllocator.cpp **** 
  78:src/kernel/slabAllocator.cpp **** void init_cache(kmem_cache_t* cachep, const char* cache_name, size_t slab_size, size_t obj_size, vo
  79:src/kernel/slabAllocator.cpp **** {
 154              		.loc 1 79 1 is_stmt 1
 155              		.cfi_startproc
 156              	.LVL11:
 157 00b8 130101FC 		addi	sp,sp,-64
 158              		.cfi_def_cfa_offset 64
 159 00bc 233C1102 		sd	ra,56(sp)
 160 00c0 23388102 		sd	s0,48(sp)
 161 00c4 23349102 		sd	s1,40(sp)
 162 00c8 23302103 		sd	s2,32(sp)
 163 00cc 233C3101 		sd	s3,24(sp)
 164 00d0 23384101 		sd	s4,16(sp)
 165 00d4 23345101 		sd	s5,8(sp)
 166              		.cfi_offset 1, -8
 167              		.cfi_offset 8, -16
 168              		.cfi_offset 9, -24
 169              		.cfi_offset 18, -32
 170              		.cfi_offset 19, -40
 171              		.cfi_offset 20, -48
 172              		.cfi_offset 21, -56
 173 00d8 13040104 		addi	s0,sp,64
 174              		.cfi_def_cfa 8, 0
 175 00dc 93040500 		mv	s1,a0
 176 00e0 13850500 		mv	a0,a1
 177              	.LVL12:
 178 00e4 930A0600 		mv	s5,a2
 179 00e8 138A0600 		mv	s4,a3
 180 00ec 93090700 		mv	s3,a4
 181 00f0 13890700 		mv	s2,a5
  80:src/kernel/slabAllocator.cpp ****     strcpy(cache_name, cachep->cacheName);
 182              		.loc 1 80 5
 183              		.loc 1 80 11 is_stmt 0
 184 00f4 93850400 		mv	a1,s1
 185              	.LVL13:
 186 00f8 97000000 		call	_Z6strcpyPKcPc
 186      E7800000 
 187              	.LVL14:
  81:src/kernel/slabAllocator.cpp ****     cachep->slab_size = slab_size;
 188              		.loc 1 81 5 is_stmt 1
 189              		.loc 1 81 23 is_stmt 0
 190 0100 23BC5405 		sd	s5,88(s1)
  82:src/kernel/slabAllocator.cpp ****     cachep->obj_size = obj_size;
 191              		.loc 1 82 5 is_stmt 1
 192              		.loc 1 82 22 is_stmt 0
 193 0104 23B04407 		sd	s4,96(s1)
  83:src/kernel/slabAllocator.cpp ****     cachep->ctor = ctor;
 194              		.loc 1 83 5 is_stmt 1
 195              		.loc 1 83 18 is_stmt 0
 196 0108 23B43407 		sd	s3,104(s1)
  84:src/kernel/slabAllocator.cpp ****     cachep->dtor = dtor;
 197              		.loc 1 84 5 is_stmt 1
 198              		.loc 1 84 18 is_stmt 0
 199 010c 23B82407 		sd	s2,112(s1)
  85:src/kernel/slabAllocator.cpp **** 
  86:src/kernel/slabAllocator.cpp ****     cachep->slabs_empty = cachep->slabs_partial = cachep->slabs_full = nullptr;
GAS LISTING /tmp/ccmqG3lh.s 			page 6


 200              		.loc 1 86 5 is_stmt 1
 201              		.loc 1 86 70 is_stmt 0
 202 0110 23B40404 		sd	zero,72(s1)
 203              		.loc 1 86 49
 204 0114 23B80404 		sd	zero,80(s1)
 205              		.loc 1 86 25
 206 0118 23B00404 		sd	zero,64(s1)
  87:src/kernel/slabAllocator.cpp ****     cachep->errors = NO_ERROR;
 207              		.loc 1 87 5 is_stmt 1
 208              		.loc 1 87 20 is_stmt 0
 209 011c 23AC0406 		sw	zero,120(s1)
  88:src/kernel/slabAllocator.cpp **** }
 210              		.loc 1 88 1
 211 0120 83308103 		ld	ra,56(sp)
 212              		.cfi_restore 1
 213 0124 03340103 		ld	s0,48(sp)
 214              		.cfi_restore 8
 215              		.cfi_def_cfa 2, 64
 216 0128 83348102 		ld	s1,40(sp)
 217              		.cfi_restore 9
 218              	.LVL15:
 219 012c 03390102 		ld	s2,32(sp)
 220              		.cfi_restore 18
 221              	.LVL16:
 222 0130 83398101 		ld	s3,24(sp)
 223              		.cfi_restore 19
 224              	.LVL17:
 225 0134 033A0101 		ld	s4,16(sp)
 226              		.cfi_restore 20
 227              	.LVL18:
 228 0138 833A8100 		ld	s5,8(sp)
 229              		.cfi_restore 21
 230              	.LVL19:
 231 013c 13010104 		addi	sp,sp,64
 232              		.cfi_def_cfa_offset 0
 233 0140 67800000 		jr	ra
 234              		.cfi_endproc
 235              	.LFE7:
 237              		.section	.rodata.str1.8,"aMS",@progbits,1
 238              		.align	3
 239              	.LC0:
 240 0000 43616368 		.string	"Cache of caches"
 240      65206F66 
 240      20636163 
 240      68657300 
 241              		.text
 242              		.align	2
 243              		.globl	_Z19slab_allocator_initP14buddyAllocator
 245              	_Z19slab_allocator_initP14buddyAllocator:
 246              	.LFB8:
  89:src/kernel/slabAllocator.cpp **** 
  90:src/kernel/slabAllocator.cpp **** slab_allocator_t* slab_allocator_init(buddyAllocator *buddy)
  91:src/kernel/slabAllocator.cpp **** {
 247              		.loc 1 91 1 is_stmt 1
 248              		.cfi_startproc
 249              	.LVL20:
 250 0144 130101FE 		addi	sp,sp,-32
GAS LISTING /tmp/ccmqG3lh.s 			page 7


 251              		.cfi_def_cfa_offset 32
 252 0148 233C1100 		sd	ra,24(sp)
 253 014c 23388100 		sd	s0,16(sp)
 254 0150 23349100 		sd	s1,8(sp)
 255              		.cfi_offset 1, -8
 256              		.cfi_offset 8, -16
 257              		.cfi_offset 9, -24
 258 0154 13040102 		addi	s0,sp,32
 259              		.cfi_def_cfa 8, 0
  92:src/kernel/slabAllocator.cpp ****     slab_allocator_t* slabAllocatorLocal = (slab_allocator_t*)(buddy + 1);
 260              		.loc 1 92 5
 261              		.loc 1 92 23 is_stmt 0
 262 0158 93040512 		addi	s1,a0,288
 263              	.LVL21:
  93:src/kernel/slabAllocator.cpp **** 
  94:src/kernel/slabAllocator.cpp ****     for(size_t i = 0; i < CACHE_BUFFER_SIZE;i++)
 264              		.loc 1 94 5 is_stmt 1
 265              	.LBB3:
 266              		.loc 1 94 16 is_stmt 0
 267 015c 93070000 		li	a5,0
 268 0160 6F004001 		j	.L14
 269              	.LVL22:
 270              	.L16:
  95:src/kernel/slabAllocator.cpp ****         slabAllocatorLocal->cachesBuffers[i] = nullptr;
 271              		.loc 1 95 9 is_stmt 1 discriminator 2
 272              		.loc 1 95 46 is_stmt 0 discriminator 2
 273 0164 13973700 		slli	a4,a5,3
 274 0168 3307E500 		add	a4,a0,a4
 275 016c 23300712 		sd	zero,288(a4)
  94:src/kernel/slabAllocator.cpp ****         slabAllocatorLocal->cachesBuffers[i] = nullptr;
 276              		.loc 1 94 5 is_stmt 1 discriminator 2
 277 0170 93871700 		addi	a5,a5,1
 278              	.LVL23:
 279              	.L14:
  94:src/kernel/slabAllocator.cpp ****         slabAllocatorLocal->cachesBuffers[i] = nullptr;
 280              		.loc 1 94 25 discriminator 3
 281 0174 1307C000 		li	a4,12
 282 0178 E376F7FE 		bleu	a5,a4,.L16
 283              	.LBE3:
  96:src/kernel/slabAllocator.cpp **** 
  97:src/kernel/slabAllocator.cpp ****     init_cache(&slabAllocatorLocal->cacheOfCaches, "Cache of caches", CACHE_OF_CACHES_SLAB_SIZE, si
 284              		.loc 1 97 5
 285              		.loc 1 97 15 is_stmt 0
 286 017c 93070000 		li	a5,0
 287              	.LVL24:
 288 0180 13070000 		li	a4,0
 289 0184 93060008 		li	a3,128
 290 0188 13062000 		li	a2,2
 291 018c 97050000 		lla	a1,.LC0
 291      93850500 
 292 0194 13058518 		addi	a0,a0,392
 293              	.LVL25:
 294 0198 97000000 		call	_Z10init_cacheP12kmem_cache_sPKcmmPFvPvES5_
 294      E7800000 
 295              	.LVL26:
  98:src/kernel/slabAllocator.cpp **** 
  99:src/kernel/slabAllocator.cpp ****     return slabAllocatorLocal;
GAS LISTING /tmp/ccmqG3lh.s 			page 8


 296              		.loc 1 99 5 is_stmt 1
 100:src/kernel/slabAllocator.cpp **** }
 297              		.loc 1 100 1 is_stmt 0
 298 01a0 13850400 		mv	a0,s1
 299 01a4 83308101 		ld	ra,24(sp)
 300              		.cfi_restore 1
 301 01a8 03340101 		ld	s0,16(sp)
 302              		.cfi_restore 8
 303              		.cfi_def_cfa 2, 32
 304 01ac 83348100 		ld	s1,8(sp)
 305              		.cfi_restore 9
 306              	.LVL27:
 307 01b0 13010102 		addi	sp,sp,32
 308              		.cfi_def_cfa_offset 0
 309 01b4 67800000 		jr	ra
 310              		.cfi_endproc
 311              	.LFE8:
 313              		.align	2
 314              		.globl	_Z13checkSetIndexP6slab_si
 316              	_Z13checkSetIndexP6slab_si:
 317              	.LFB9:
 101:src/kernel/slabAllocator.cpp **** 
 102:src/kernel/slabAllocator.cpp **** bool checkSetIndex(slab_t* slab, int index)
 103:src/kernel/slabAllocator.cpp **** {
 318              		.loc 1 103 1 is_stmt 1
 319              		.cfi_startproc
 320              	.LVL28:
 321 01b8 130101FF 		addi	sp,sp,-16
 322              		.cfi_def_cfa_offset 16
 323 01bc 23348100 		sd	s0,8(sp)
 324              		.cfi_offset 8, -8
 325 01c0 13040101 		addi	s0,sp,16
 326              		.cfi_def_cfa 8, 0
 104:src/kernel/slabAllocator.cpp ****     return (uint8)slab->allocated[index / 8] & (1 << (index%8));
 327              		.loc 1 104 5
 328              		.loc 1 104 41 is_stmt 0
 329 01c4 9BD7F541 		sraiw	a5,a1,31
 330 01c8 9BD7D701 		srliw	a5,a5,29
 331 01cc BB85B700 		addw	a1,a5,a1
 332              	.LVL29:
 333 01d0 1BD73540 		sraiw	a4,a1,3
 334              		.loc 1 104 44
 335 01d4 3305E500 		add	a0,a0,a4
 336              	.LVL30:
 337              		.loc 1 104 12
 338 01d8 03450503 		lbu	a0,48(a0)
 339              		.loc 1 104 60
 340 01dc 93F57500 		andi	a1,a1,7
 341 01e0 BB85F540 		subw	a1,a1,a5
 342              		.loc 1 104 63
 343 01e4 3B55B540 		sraw	a0,a0,a1
 105:src/kernel/slabAllocator.cpp **** }
 344              		.loc 1 105 1
 345 01e8 13751500 		andi	a0,a0,1
 346 01ec 03348100 		ld	s0,8(sp)
 347              		.cfi_restore 8
 348              		.cfi_def_cfa 2, 16
GAS LISTING /tmp/ccmqG3lh.s 			page 9


 349 01f0 13010101 		addi	sp,sp,16
 350              		.cfi_def_cfa_offset 0
 351 01f4 67800000 		jr	ra
 352              		.cfi_endproc
 353              	.LFE9:
 355              		.align	2
 356              		.globl	_Z17setAllocatedIndexP6slab_si
 358              	_Z17setAllocatedIndexP6slab_si:
 359              	.LFB10:
 106:src/kernel/slabAllocator.cpp **** 
 107:src/kernel/slabAllocator.cpp **** void setAllocatedIndex(slab_t* slab, int index)
 108:src/kernel/slabAllocator.cpp **** {
 360              		.loc 1 108 1 is_stmt 1
 361              		.cfi_startproc
 362              	.LVL31:
 363 01f8 130101FF 		addi	sp,sp,-16
 364              		.cfi_def_cfa_offset 16
 365 01fc 23348100 		sd	s0,8(sp)
 366              		.cfi_offset 8, -8
 367 0200 13040101 		addi	s0,sp,16
 368              		.cfi_def_cfa 8, 0
 109:src/kernel/slabAllocator.cpp ****     slab->allocated[index / 8]=(uint8)slab->allocated[index/8] | (1 << (index%8));
 369              		.loc 1 109 5
 370              		.loc 1 109 60 is_stmt 0
 371 0204 9BD7F541 		sraiw	a5,a1,31
 372 0208 9BD7D701 		srliw	a5,a5,29
 373 020c BB85B700 		addw	a1,a5,a1
 374              	.LVL32:
 375 0210 1BD73540 		sraiw	a4,a1,3
 376              		.loc 1 109 62
 377 0214 3305E500 		add	a0,a0,a4
 378              	.LVL33:
 379              		.loc 1 109 32
 380 0218 03070503 		lb	a4,48(a0)
 381              		.loc 1 109 78
 382 021c 93F57500 		andi	a1,a1,7
 383 0220 BB85F540 		subw	a1,a1,a5
 384              		.loc 1 109 69
 385 0224 93071000 		li	a5,1
 386 0228 BB95B700 		sllw	a1,a5,a1
 387              		.loc 1 109 64
 388 022c B365B700 		or	a1,a4,a1
 389              		.loc 1 109 31
 390 0230 2308B502 		sb	a1,48(a0)
 110:src/kernel/slabAllocator.cpp **** }
 391              		.loc 1 110 1
 392 0234 03348100 		ld	s0,8(sp)
 393              		.cfi_restore 8
 394              		.cfi_def_cfa 2, 16
 395 0238 13010101 		addi	sp,sp,16
 396              		.cfi_def_cfa_offset 0
 397 023c 67800000 		jr	ra
 398              		.cfi_endproc
 399              	.LFE10:
 401              		.align	2
 402              		.globl	_Z14allocateObjectP6slab_s
 404              	_Z14allocateObjectP6slab_s:
GAS LISTING /tmp/ccmqG3lh.s 			page 10


 405              	.LFB11:
 111:src/kernel/slabAllocator.cpp **** 
 112:src/kernel/slabAllocator.cpp **** void* allocateObject(slab_t* slab)
 113:src/kernel/slabAllocator.cpp **** {
 406              		.loc 1 113 1 is_stmt 1
 407              		.cfi_startproc
 408              	.LVL34:
 409 0240 130101FD 		addi	sp,sp,-48
 410              		.cfi_def_cfa_offset 48
 411 0244 23341102 		sd	ra,40(sp)
 412 0248 23308102 		sd	s0,32(sp)
 413 024c 233C9100 		sd	s1,24(sp)
 414 0250 23382101 		sd	s2,16(sp)
 415 0254 23343101 		sd	s3,8(sp)
 416              		.cfi_offset 1, -8
 417              		.cfi_offset 8, -16
 418              		.cfi_offset 9, -24
 419              		.cfi_offset 18, -32
 420              		.cfi_offset 19, -40
 421 0258 13040103 		addi	s0,sp,48
 422              		.cfi_def_cfa 8, 0
 423 025c 13090500 		mv	s2,a0
 114:src/kernel/slabAllocator.cpp ****     if(slab == nullptr)
 424              		.loc 1 114 5
 425 0260 63080508 		beqz	a0,.L26
 426              	.LBB4:
 115:src/kernel/slabAllocator.cpp ****         return nullptr;
 116:src/kernel/slabAllocator.cpp ****     int index = -1;
 117:src/kernel/slabAllocator.cpp ****     void* addr = nullptr;
 118:src/kernel/slabAllocator.cpp ****     for(size_t i = 0;i < slab->numOfObjects;i++)
 427              		.loc 1 118 16 is_stmt 0
 428 0264 93040000 		li	s1,0
 429              	.LVL35:
 430              	.L25:
 431              		.loc 1 118 24 is_stmt 1 discriminator 1
 432              		.loc 1 118 32 is_stmt 0 discriminator 1
 433 0268 83378901 		ld	a5,24(s2)
 434              		.loc 1 118 24 discriminator 1
 435 026c 63FEF402 		bleu	a5,s1,.L27
 119:src/kernel/slabAllocator.cpp ****     {
 120:src/kernel/slabAllocator.cpp ****         if(!checkSetIndex(slab, i))
 436              		.loc 1 120 9 is_stmt 1
 437              		.loc 1 120 26 is_stmt 0
 438 0270 9B890400 		sext.w	s3,s1
 439 0274 93850900 		mv	a1,s3
 440 0278 13050900 		mv	a0,s2
 441 027c 97000000 		call	_Z13checkSetIndexP6slab_si
 441      E7800000 
 442              	.LVL36:
 443              		.loc 1 120 9
 444 0284 63060500 		beqz	a0,.L29
 118:src/kernel/slabAllocator.cpp ****     {
 445              		.loc 1 118 5 is_stmt 1 discriminator 2
 446 0288 93841400 		addi	s1,s1,1
 447              	.LVL37:
 448 028c 6FF0DFFD 		j	.L25
 449              	.L29:
GAS LISTING /tmp/ccmqG3lh.s 			page 11


 121:src/kernel/slabAllocator.cpp ****         {
 122:src/kernel/slabAllocator.cpp ****             addr = (void*)((size_t)slab->startAddr + i*slab->owner->obj_size);
 450              		.loc 1 122 13
 451              		.loc 1 122 42 is_stmt 0
 452 0290 83378902 		ld	a5,40(s2)
 453              		.loc 1 122 62
 454 0294 03370901 		ld	a4,16(s2)
 455              		.loc 1 122 69
 456 0298 03370706 		ld	a4,96(a4)
 457              		.loc 1 122 55
 458 029c B3049702 		mul	s1,a4,s1
 459              	.LVL38:
 460              		.loc 1 122 52
 461 02a0 B3849700 		add	s1,a5,s1
 462              	.LVL39:
 123:src/kernel/slabAllocator.cpp ****             index = i;
 463              		.loc 1 123 13 is_stmt 1
 124:src/kernel/slabAllocator.cpp ****             break;
 464              		.loc 1 124 13
 465 02a4 6F00C000 		j	.L23
 466              	.LVL40:
 467              	.L27:
 468              	.LBE4:
 117:src/kernel/slabAllocator.cpp ****     for(size_t i = 0;i < slab->numOfObjects;i++)
 469              		.loc 1 117 11 is_stmt 0
 470 02a8 93040000 		li	s1,0
 471              	.LVL41:
 116:src/kernel/slabAllocator.cpp ****     void* addr = nullptr;
 472              		.loc 1 116 9
 473 02ac 9309F0FF 		li	s3,-1
 474              	.L23:
 475              	.LVL42:
 125:src/kernel/slabAllocator.cpp ****         }
 126:src/kernel/slabAllocator.cpp ****     }
 127:src/kernel/slabAllocator.cpp ****     if(addr == nullptr)
 476              		.loc 1 127 5 is_stmt 1
 477 02b0 63800402 		beqz	s1,.L21
 128:src/kernel/slabAllocator.cpp ****         return nullptr;
 129:src/kernel/slabAllocator.cpp **** 
 130:src/kernel/slabAllocator.cpp ****     setAllocatedIndex(slab, index);
 478              		.loc 1 130 5
 479              		.loc 1 130 22 is_stmt 0
 480 02b4 93850900 		mv	a1,s3
 481 02b8 13050900 		mv	a0,s2
 482 02bc 97000000 		call	_Z17setAllocatedIndexP6slab_si
 482      E7800000 
 483              	.LVL43:
 131:src/kernel/slabAllocator.cpp ****     slab->numOfAllocatedObjects++;
 484              		.loc 1 131 5 is_stmt 1
 485              		.loc 1 131 11 is_stmt 0
 486 02c4 83370902 		ld	a5,32(s2)
 487              		.loc 1 131 32
 488 02c8 93871700 		addi	a5,a5,1
 489 02cc 2330F902 		sd	a5,32(s2)
 132:src/kernel/slabAllocator.cpp **** 
 133:src/kernel/slabAllocator.cpp ****     return addr;
 490              		.loc 1 133 5 is_stmt 1
GAS LISTING /tmp/ccmqG3lh.s 			page 12


 491              	.LVL44:
 492              	.L21:
 134:src/kernel/slabAllocator.cpp **** }
 493              		.loc 1 134 1 is_stmt 0
 494 02d0 13850400 		mv	a0,s1
 495 02d4 83308102 		ld	ra,40(sp)
 496              		.cfi_remember_state
 497              		.cfi_restore 1
 498 02d8 03340102 		ld	s0,32(sp)
 499              		.cfi_restore 8
 500              		.cfi_def_cfa 2, 48
 501 02dc 83348101 		ld	s1,24(sp)
 502              		.cfi_restore 9
 503 02e0 03390101 		ld	s2,16(sp)
 504              		.cfi_restore 18
 505              	.LVL45:
 506 02e4 83398100 		ld	s3,8(sp)
 507              		.cfi_restore 19
 508 02e8 13010103 		addi	sp,sp,48
 509              		.cfi_def_cfa_offset 0
 510 02ec 67800000 		jr	ra
 511              	.LVL46:
 512              	.L26:
 513              		.cfi_restore_state
 115:src/kernel/slabAllocator.cpp ****     int index = -1;
 514              		.loc 1 115 16
 515 02f0 93040500 		mv	s1,a0
 516 02f4 6FF0DFFD 		j	.L21
 517              		.cfi_endproc
 518              	.LFE11:
 520              		.align	2
 521              		.globl	_Z4fullP6slab_s
 523              	_Z4fullP6slab_s:
 524              	.LFB12:
 135:src/kernel/slabAllocator.cpp **** 
 136:src/kernel/slabAllocator.cpp **** bool full(slab_t* slab)
 137:src/kernel/slabAllocator.cpp **** {
 525              		.loc 1 137 1 is_stmt 1
 526              		.cfi_startproc
 527              	.LVL47:
 528 02f8 130101FF 		addi	sp,sp,-16
 529              		.cfi_def_cfa_offset 16
 530 02fc 23348100 		sd	s0,8(sp)
 531              		.cfi_offset 8, -8
 532 0300 13040101 		addi	s0,sp,16
 533              		.cfi_def_cfa 8, 0
 138:src/kernel/slabAllocator.cpp ****     return slab->numOfAllocatedObjects == slab->numOfObjects;
 534              		.loc 1 138 5
 535              		.loc 1 138 18 is_stmt 0
 536 0304 83370502 		ld	a5,32(a0)
 537              		.loc 1 138 49
 538 0308 03358501 		ld	a0,24(a0)
 539              	.LVL48:
 540 030c 3305F540 		sub	a0,a0,a5
 139:src/kernel/slabAllocator.cpp **** }
 541              		.loc 1 139 1
 542 0310 13351500 		seqz	a0,a0
GAS LISTING /tmp/ccmqG3lh.s 			page 13


 543 0314 03348100 		ld	s0,8(sp)
 544              		.cfi_restore 8
 545              		.cfi_def_cfa 2, 16
 546 0318 13010101 		addi	sp,sp,16
 547              		.cfi_def_cfa_offset 0
 548 031c 67800000 		jr	ra
 549              		.cfi_endproc
 550              	.LFE12:
 552              		.align	2
 553              		.globl	_Z5emptyP6slab_s
 555              	_Z5emptyP6slab_s:
 556              	.LFB13:
 140:src/kernel/slabAllocator.cpp **** 
 141:src/kernel/slabAllocator.cpp **** bool empty(slab_t* slab)
 142:src/kernel/slabAllocator.cpp **** {
 557              		.loc 1 142 1 is_stmt 1
 558              		.cfi_startproc
 559              	.LVL49:
 560 0320 130101FF 		addi	sp,sp,-16
 561              		.cfi_def_cfa_offset 16
 562 0324 23348100 		sd	s0,8(sp)
 563              		.cfi_offset 8, -8
 564 0328 13040101 		addi	s0,sp,16
 565              		.cfi_def_cfa 8, 0
 143:src/kernel/slabAllocator.cpp ****     return slab->numOfAllocatedObjects == 0;
 566              		.loc 1 143 5
 567              		.loc 1 143 18 is_stmt 0
 568 032c 03350502 		ld	a0,32(a0)
 569              	.LVL50:
 144:src/kernel/slabAllocator.cpp **** }
 570              		.loc 1 144 1
 571 0330 13351500 		seqz	a0,a0
 572 0334 03348100 		ld	s0,8(sp)
 573              		.cfi_restore 8
 574              		.cfi_def_cfa 2, 16
 575 0338 13010101 		addi	sp,sp,16
 576              		.cfi_def_cfa_offset 0
 577 033c 67800000 		jr	ra
 578              		.cfi_endproc
 579              	.LFE13:
 581              		.align	2
 582              		.globl	_Z18insertIntoSlabListP6slab_sPS0_
 584              	_Z18insertIntoSlabListP6slab_sPS0_:
 585              	.LFB14:
 145:src/kernel/slabAllocator.cpp **** 
 146:src/kernel/slabAllocator.cpp **** void insertIntoSlabList(slab_t* slab, slab_t** slab_head)
 147:src/kernel/slabAllocator.cpp **** {
 586              		.loc 1 147 1 is_stmt 1
 587              		.cfi_startproc
 588              	.LVL51:
 589 0340 130101FF 		addi	sp,sp,-16
 590              		.cfi_def_cfa_offset 16
 591 0344 23348100 		sd	s0,8(sp)
 592              		.cfi_offset 8, -8
 593 0348 13040101 		addi	s0,sp,16
 594              		.cfi_def_cfa 8, 0
 148:src/kernel/slabAllocator.cpp ****     if(slab == nullptr)
GAS LISTING /tmp/ccmqG3lh.s 			page 14


 595              		.loc 1 148 5
 596 034c 630E0500 		beqz	a0,.L34
 149:src/kernel/slabAllocator.cpp ****         return;
 150:src/kernel/slabAllocator.cpp ****     slab->prev = nullptr;
 597              		.loc 1 150 5
 598              		.loc 1 150 16 is_stmt 0
 599 0350 23300500 		sd	zero,0(a0)
 151:src/kernel/slabAllocator.cpp ****     slab->next = *slab_head;
 600              		.loc 1 151 5 is_stmt 1
 601              		.loc 1 151 18 is_stmt 0
 602 0354 83B70500 		ld	a5,0(a1)
 603              		.loc 1 151 16
 604 0358 2334F500 		sd	a5,8(a0)
 152:src/kernel/slabAllocator.cpp ****     if(*slab_head != nullptr)
 605              		.loc 1 152 5 is_stmt 1
 606 035c 63840700 		beqz	a5,.L36
 153:src/kernel/slabAllocator.cpp ****         (*slab_head)->prev = slab;
 607              		.loc 1 153 9
 608              		.loc 1 153 28 is_stmt 0
 609 0360 23B0A700 		sd	a0,0(a5)
 610              	.L36:
 154:src/kernel/slabAllocator.cpp ****     *slab_head = slab;
 611              		.loc 1 154 5 is_stmt 1
 612              		.loc 1 154 16 is_stmt 0
 613 0364 23B0A500 		sd	a0,0(a1)
 614              	.L34:
 155:src/kernel/slabAllocator.cpp **** }
 615              		.loc 1 155 1
 616 0368 03348100 		ld	s0,8(sp)
 617              		.cfi_restore 8
 618              		.cfi_def_cfa 2, 16
 619 036c 13010101 		addi	sp,sp,16
 620              		.cfi_def_cfa_offset 0
 621 0370 67800000 		jr	ra
 622              		.cfi_endproc
 623              	.LFE14:
 625              		.align	2
 626              		.globl	_Z18removeFromSlabListP6slab_sPS0_
 628              	_Z18removeFromSlabListP6slab_sPS0_:
 629              	.LFB15:
 156:src/kernel/slabAllocator.cpp **** 
 157:src/kernel/slabAllocator.cpp **** void removeFromSlabList(slab_t* slab, slab_t** slab_head)
 158:src/kernel/slabAllocator.cpp **** {
 630              		.loc 1 158 1 is_stmt 1
 631              		.cfi_startproc
 632              	.LVL52:
 633 0374 130101FF 		addi	sp,sp,-16
 634              		.cfi_def_cfa_offset 16
 635 0378 23348100 		sd	s0,8(sp)
 636              		.cfi_offset 8, -8
 637 037c 13040101 		addi	s0,sp,16
 638              		.cfi_def_cfa 8, 0
 159:src/kernel/slabAllocator.cpp ****     if(slab->prev == nullptr) //same as slab == *slab_head
 639              		.loc 1 159 5
 640              		.loc 1 159 14 is_stmt 0
 641 0380 83370500 		ld	a5,0(a0)
 642              		.loc 1 159 5
GAS LISTING /tmp/ccmqG3lh.s 			page 15


 643 0384 63860702 		beqz	a5,.L44
 160:src/kernel/slabAllocator.cpp ****     {
 161:src/kernel/slabAllocator.cpp ****         if(slab->next) slab->next->prev = nullptr;
 162:src/kernel/slabAllocator.cpp ****         (*slab_head) = slab->next;
 163:src/kernel/slabAllocator.cpp ****         slab->next = slab->prev = nullptr;
 164:src/kernel/slabAllocator.cpp ****     }
 165:src/kernel/slabAllocator.cpp ****     else
 166:src/kernel/slabAllocator.cpp ****     {
 167:src/kernel/slabAllocator.cpp ****         slab->prev->next = slab->next;
 644              		.loc 1 167 9 is_stmt 1
 645              		.loc 1 167 34 is_stmt 0
 646 0388 03378500 		ld	a4,8(a0)
 647              		.loc 1 167 26
 648 038c 23B4E700 		sd	a4,8(a5)
 168:src/kernel/slabAllocator.cpp ****         if(slab->next) slab->next->prev = slab->prev;
 649              		.loc 1 168 9 is_stmt 1
 650 0390 63060700 		beqz	a4,.L42
 651              		.loc 1 168 24 discriminator 1
 652              		.loc 1 168 49 is_stmt 0 discriminator 1
 653 0394 83370500 		ld	a5,0(a0)
 654              		.loc 1 168 41 discriminator 1
 655 0398 2330F700 		sd	a5,0(a4)
 656              	.L42:
 169:src/kernel/slabAllocator.cpp ****         slab->next = slab->prev = nullptr;
 657              		.loc 1 169 9 is_stmt 1
 658              		.loc 1 169 33 is_stmt 0
 659 039c 23300500 		sd	zero,0(a0)
 660              		.loc 1 169 20
 661 03a0 23340500 		sd	zero,8(a0)
 662              	.L38:
 170:src/kernel/slabAllocator.cpp ****     }
 171:src/kernel/slabAllocator.cpp **** }
 663              		.loc 1 171 1
 664 03a4 03348100 		ld	s0,8(sp)
 665              		.cfi_remember_state
 666              		.cfi_restore 8
 667              		.cfi_def_cfa 2, 16
 668 03a8 13010101 		addi	sp,sp,16
 669              		.cfi_def_cfa_offset 0
 670 03ac 67800000 		jr	ra
 671              	.L44:
 672              		.cfi_restore_state
 161:src/kernel/slabAllocator.cpp ****         (*slab_head) = slab->next;
 673              		.loc 1 161 9 is_stmt 1
 161:src/kernel/slabAllocator.cpp ****         (*slab_head) = slab->next;
 674              		.loc 1 161 18 is_stmt 0
 675 03b0 83378500 		ld	a5,8(a0)
 161:src/kernel/slabAllocator.cpp ****         (*slab_head) = slab->next;
 676              		.loc 1 161 9
 677 03b4 63840700 		beqz	a5,.L40
 161:src/kernel/slabAllocator.cpp ****         (*slab_head) = slab->next;
 678              		.loc 1 161 24 is_stmt 1 discriminator 1
 161:src/kernel/slabAllocator.cpp ****         (*slab_head) = slab->next;
 679              		.loc 1 161 41 is_stmt 0 discriminator 1
 680 03b8 23B00700 		sd	zero,0(a5)
 681              	.L40:
 162:src/kernel/slabAllocator.cpp ****         slab->next = slab->prev = nullptr;
GAS LISTING /tmp/ccmqG3lh.s 			page 16


 682              		.loc 1 162 9 is_stmt 1
 162:src/kernel/slabAllocator.cpp ****         slab->next = slab->prev = nullptr;
 683              		.loc 1 162 30 is_stmt 0
 684 03bc 83378500 		ld	a5,8(a0)
 162:src/kernel/slabAllocator.cpp ****         slab->next = slab->prev = nullptr;
 685              		.loc 1 162 22
 686 03c0 23B0F500 		sd	a5,0(a1)
 163:src/kernel/slabAllocator.cpp ****     }
 687              		.loc 1 163 9 is_stmt 1
 163:src/kernel/slabAllocator.cpp ****     }
 688              		.loc 1 163 33 is_stmt 0
 689 03c4 23300500 		sd	zero,0(a0)
 163:src/kernel/slabAllocator.cpp ****     }
 690              		.loc 1 163 20
 691 03c8 23340500 		sd	zero,8(a0)
 692 03cc 6FF09FFD 		j	.L38
 693              		.cfi_endproc
 694              	.LFE15:
 696              		.align	2
 697              		.globl	_Z16putPartialToFullP12kmem_cache_s
 699              	_Z16putPartialToFullP12kmem_cache_s:
 700              	.LFB16:
 172:src/kernel/slabAllocator.cpp **** 
 173:src/kernel/slabAllocator.cpp **** void putPartialToFull(kmem_cache_t* cachep)
 174:src/kernel/slabAllocator.cpp **** {
 701              		.loc 1 174 1 is_stmt 1
 702              		.cfi_startproc
 703              	.LVL53:
 704 03d0 130101FE 		addi	sp,sp,-32
 705              		.cfi_def_cfa_offset 32
 706 03d4 233C1100 		sd	ra,24(sp)
 707 03d8 23388100 		sd	s0,16(sp)
 708 03dc 23349100 		sd	s1,8(sp)
 709 03e0 23302101 		sd	s2,0(sp)
 710              		.cfi_offset 1, -8
 711              		.cfi_offset 8, -16
 712              		.cfi_offset 9, -24
 713              		.cfi_offset 18, -32
 714 03e4 13040102 		addi	s0,sp,32
 715              		.cfi_def_cfa 8, 0
 716 03e8 93040500 		mv	s1,a0
 175:src/kernel/slabAllocator.cpp ****     slab_t* slab = cachep->slabs_partial;
 717              		.loc 1 175 5
 718              		.loc 1 175 13 is_stmt 0
 719 03ec 03390505 		ld	s2,80(a0)
 720              	.LVL54:
 176:src/kernel/slabAllocator.cpp ****     removeFromSlabList(slab, &cachep->slabs_partial);
 721              		.loc 1 176 5 is_stmt 1
 722              		.loc 1 176 23 is_stmt 0
 723 03f0 93050505 		addi	a1,a0,80
 724 03f4 13050900 		mv	a0,s2
 725              	.LVL55:
 726 03f8 97000000 		call	_Z18removeFromSlabListP6slab_sPS0_
 726      E7800000 
 727              	.LVL56:
 177:src/kernel/slabAllocator.cpp ****     insertIntoSlabList(slab, &cachep->slabs_full);
 728              		.loc 1 177 5 is_stmt 1
GAS LISTING /tmp/ccmqG3lh.s 			page 17


 729              		.loc 1 177 23 is_stmt 0
 730 0400 93858404 		addi	a1,s1,72
 731 0404 13050900 		mv	a0,s2
 732 0408 97000000 		call	_Z18insertIntoSlabListP6slab_sPS0_
 732      E7800000 
 733              	.LVL57:
 178:src/kernel/slabAllocator.cpp **** }
 734              		.loc 1 178 1
 735 0410 83308101 		ld	ra,24(sp)
 736              		.cfi_restore 1
 737 0414 03340101 		ld	s0,16(sp)
 738              		.cfi_restore 8
 739              		.cfi_def_cfa 2, 32
 740 0418 83348100 		ld	s1,8(sp)
 741              		.cfi_restore 9
 742              	.LVL58:
 743 041c 03390100 		ld	s2,0(sp)
 744              		.cfi_restore 18
 745              	.LVL59:
 746 0420 13010102 		addi	sp,sp,32
 747              		.cfi_def_cfa_offset 0
 748 0424 67800000 		jr	ra
 749              		.cfi_endproc
 750              	.LFE16:
 752              		.align	2
 753              		.globl	_Z17putEmptyToPartialP12kmem_cache_s
 755              	_Z17putEmptyToPartialP12kmem_cache_s:
 756              	.LFB17:
 179:src/kernel/slabAllocator.cpp **** 
 180:src/kernel/slabAllocator.cpp **** void putEmptyToPartial(kmem_cache_t* cachep)
 181:src/kernel/slabAllocator.cpp **** {
 757              		.loc 1 181 1 is_stmt 1
 758              		.cfi_startproc
 759              	.LVL60:
 760 0428 130101FE 		addi	sp,sp,-32
 761              		.cfi_def_cfa_offset 32
 762 042c 233C1100 		sd	ra,24(sp)
 763 0430 23388100 		sd	s0,16(sp)
 764 0434 23349100 		sd	s1,8(sp)
 765 0438 23302101 		sd	s2,0(sp)
 766              		.cfi_offset 1, -8
 767              		.cfi_offset 8, -16
 768              		.cfi_offset 9, -24
 769              		.cfi_offset 18, -32
 770 043c 13040102 		addi	s0,sp,32
 771              		.cfi_def_cfa 8, 0
 772 0440 93040500 		mv	s1,a0
 182:src/kernel/slabAllocator.cpp ****     slab_t* slab = cachep->slabs_empty;
 773              		.loc 1 182 5
 774              		.loc 1 182 13 is_stmt 0
 775 0444 03390504 		ld	s2,64(a0)
 776              	.LVL61:
 183:src/kernel/slabAllocator.cpp ****     removeFromSlabList(slab, &cachep->slabs_empty);
 777              		.loc 1 183 5 is_stmt 1
 778              		.loc 1 183 23 is_stmt 0
 779 0448 93050504 		addi	a1,a0,64
 780 044c 13050900 		mv	a0,s2
GAS LISTING /tmp/ccmqG3lh.s 			page 18


 781              	.LVL62:
 782 0450 97000000 		call	_Z18removeFromSlabListP6slab_sPS0_
 782      E7800000 
 783              	.LVL63:
 184:src/kernel/slabAllocator.cpp ****     insertIntoSlabList(slab, &cachep->slabs_partial);
 784              		.loc 1 184 5 is_stmt 1
 785              		.loc 1 184 23 is_stmt 0
 786 0458 93850405 		addi	a1,s1,80
 787 045c 13050900 		mv	a0,s2
 788 0460 97000000 		call	_Z18insertIntoSlabListP6slab_sPS0_
 788      E7800000 
 789              	.LVL64:
 185:src/kernel/slabAllocator.cpp **** }
 790              		.loc 1 185 1
 791 0468 83308101 		ld	ra,24(sp)
 792              		.cfi_restore 1
 793 046c 03340101 		ld	s0,16(sp)
 794              		.cfi_restore 8
 795              		.cfi_def_cfa 2, 32
 796 0470 83348100 		ld	s1,8(sp)
 797              		.cfi_restore 9
 798              	.LVL65:
 799 0474 03390100 		ld	s2,0(sp)
 800              		.cfi_restore 18
 801              	.LVL66:
 802 0478 13010102 		addi	sp,sp,32
 803              		.cfi_def_cfa_offset 0
 804 047c 67800000 		jr	ra
 805              		.cfi_endproc
 806              	.LFE17:
 808              		.align	2
 809              		.globl	_Z14removeFullSlabP12kmem_cache_sP6slab_s
 811              	_Z14removeFullSlabP12kmem_cache_sP6slab_s:
 812              	.LFB18:
 186:src/kernel/slabAllocator.cpp **** 
 187:src/kernel/slabAllocator.cpp **** void removeFullSlab(kmem_cache_t* cachep, slab_t* slab)
 188:src/kernel/slabAllocator.cpp **** {
 813              		.loc 1 188 1 is_stmt 1
 814              		.cfi_startproc
 815              	.LVL67:
 816 0480 130101FE 		addi	sp,sp,-32
 817              		.cfi_def_cfa_offset 32
 818 0484 233C1100 		sd	ra,24(sp)
 819 0488 23388100 		sd	s0,16(sp)
 820 048c 23349100 		sd	s1,8(sp)
 821 0490 23302101 		sd	s2,0(sp)
 822              		.cfi_offset 1, -8
 823              		.cfi_offset 8, -16
 824              		.cfi_offset 9, -24
 825              		.cfi_offset 18, -32
 826 0494 13040102 		addi	s0,sp,32
 827              		.cfi_def_cfa 8, 0
 828 0498 13090500 		mv	s2,a0
 829 049c 93840500 		mv	s1,a1
 189:src/kernel/slabAllocator.cpp ****     removeFromSlabList(slab, &cachep->slabs_full);
 830              		.loc 1 189 5
 831              		.loc 1 189 23 is_stmt 0
GAS LISTING /tmp/ccmqG3lh.s 			page 19


 832 04a0 93058504 		addi	a1,a0,72
 833              	.LVL68:
 834 04a4 13850400 		mv	a0,s1
 835              	.LVL69:
 836 04a8 97000000 		call	_Z18removeFromSlabListP6slab_sPS0_
 836      E7800000 
 837              	.LVL70:
 190:src/kernel/slabAllocator.cpp ****     insertIntoSlabList(slab, &cachep->slabs_partial);
 838              		.loc 1 190 5 is_stmt 1
 839              		.loc 1 190 23 is_stmt 0
 840 04b0 93050905 		addi	a1,s2,80
 841 04b4 13850400 		mv	a0,s1
 842 04b8 97000000 		call	_Z18insertIntoSlabListP6slab_sPS0_
 842      E7800000 
 843              	.LVL71:
 191:src/kernel/slabAllocator.cpp **** }
 844              		.loc 1 191 1
 845 04c0 83308101 		ld	ra,24(sp)
 846              		.cfi_restore 1
 847 04c4 03340101 		ld	s0,16(sp)
 848              		.cfi_restore 8
 849              		.cfi_def_cfa 2, 32
 850 04c8 83348100 		ld	s1,8(sp)
 851              		.cfi_restore 9
 852              	.LVL72:
 853 04cc 03390100 		ld	s2,0(sp)
 854              		.cfi_restore 18
 855              	.LVL73:
 856 04d0 13010102 		addi	sp,sp,32
 857              		.cfi_def_cfa_offset 0
 858 04d4 67800000 		jr	ra
 859              		.cfi_endproc
 860              	.LFE18:
 862              		.align	2
 863              		.globl	_Z17removePartialSlabP12kmem_cache_sP6slab_s
 865              	_Z17removePartialSlabP12kmem_cache_sP6slab_s:
 866              	.LFB19:
 192:src/kernel/slabAllocator.cpp **** 
 193:src/kernel/slabAllocator.cpp **** void removePartialSlab(kmem_cache_t * cachep, slab_t* slab)
 194:src/kernel/slabAllocator.cpp **** {
 867              		.loc 1 194 1 is_stmt 1
 868              		.cfi_startproc
 869              	.LVL74:
 870 04d8 130101FE 		addi	sp,sp,-32
 871              		.cfi_def_cfa_offset 32
 872 04dc 233C1100 		sd	ra,24(sp)
 873 04e0 23388100 		sd	s0,16(sp)
 874 04e4 23349100 		sd	s1,8(sp)
 875 04e8 23302101 		sd	s2,0(sp)
 876              		.cfi_offset 1, -8
 877              		.cfi_offset 8, -16
 878              		.cfi_offset 9, -24
 879              		.cfi_offset 18, -32
 880 04ec 13040102 		addi	s0,sp,32
 881              		.cfi_def_cfa 8, 0
 882 04f0 13090500 		mv	s2,a0
 883 04f4 93840500 		mv	s1,a1
GAS LISTING /tmp/ccmqG3lh.s 			page 20


 195:src/kernel/slabAllocator.cpp ****     removeFromSlabList(slab, &cachep->slabs_partial);
 884              		.loc 1 195 5
 885              		.loc 1 195 23 is_stmt 0
 886 04f8 93050505 		addi	a1,a0,80
 887              	.LVL75:
 888 04fc 13850400 		mv	a0,s1
 889              	.LVL76:
 890 0500 97000000 		call	_Z18removeFromSlabListP6slab_sPS0_
 890      E7800000 
 891              	.LVL77:
 196:src/kernel/slabAllocator.cpp ****     insertIntoSlabList(slab, &cachep->slabs_empty);
 892              		.loc 1 196 5 is_stmt 1
 893              		.loc 1 196 23 is_stmt 0
 894 0508 93050904 		addi	a1,s2,64
 895 050c 13850400 		mv	a0,s1
 896 0510 97000000 		call	_Z18insertIntoSlabListP6slab_sPS0_
 896      E7800000 
 897              	.LVL78:
 197:src/kernel/slabAllocator.cpp **** }
 898              		.loc 1 197 1
 899 0518 83308101 		ld	ra,24(sp)
 900              		.cfi_restore 1
 901 051c 03340101 		ld	s0,16(sp)
 902              		.cfi_restore 8
 903              		.cfi_def_cfa 2, 32
 904 0520 83348100 		ld	s1,8(sp)
 905              		.cfi_restore 9
 906              	.LVL79:
 907 0524 03390100 		ld	s2,0(sp)
 908              		.cfi_restore 18
 909              	.LVL80:
 910 0528 13010102 		addi	sp,sp,32
 911              		.cfi_def_cfa_offset 0
 912 052c 67800000 		jr	ra
 913              		.cfi_endproc
 914              	.LFE19:
 916              		.align	2
 917              		.globl	_Z12allocateSlabP12kmem_cache_s
 919              	_Z12allocateSlabP12kmem_cache_s:
 920              	.LFB20:
 198:src/kernel/slabAllocator.cpp **** 
 199:src/kernel/slabAllocator.cpp **** void allocateSlab(kmem_cache_t* cachep)
 200:src/kernel/slabAllocator.cpp **** {
 921              		.loc 1 200 1 is_stmt 1
 922              		.cfi_startproc
 923              	.LVL81:
 924 0530 130101FD 		addi	sp,sp,-48
 925              		.cfi_def_cfa_offset 48
 926 0534 23341102 		sd	ra,40(sp)
 927 0538 23308102 		sd	s0,32(sp)
 928 053c 233C9100 		sd	s1,24(sp)
 929 0540 23382101 		sd	s2,16(sp)
 930 0544 23343101 		sd	s3,8(sp)
 931              		.cfi_offset 1, -8
 932              		.cfi_offset 8, -16
 933              		.cfi_offset 9, -24
 934              		.cfi_offset 18, -32
GAS LISTING /tmp/ccmqG3lh.s 			page 21


 935              		.cfi_offset 19, -40
 936 0548 13040103 		addi	s0,sp,48
 937              		.cfi_def_cfa 8, 0
 938 054c 93090500 		mv	s3,a0
 201:src/kernel/slabAllocator.cpp ****     slab_t* newSlab = (slab_t*)buddy_alloc(cachep->slab_size);
 939              		.loc 1 201 5
 940              		.loc 1 201 43 is_stmt 0
 941 0550 03358505 		ld	a0,88(a0)
 942              	.LVL82:
 943 0554 97000000 		call	_Z11buddy_allocm@plt
 943      E7800000 
 944              	.LVL83:
 202:src/kernel/slabAllocator.cpp ****     if(newSlab == nullptr)
 945              		.loc 1 202 5 is_stmt 1
 946 055c 6300050A 		beqz	a0,.L53
 947 0560 93040500 		mv	s1,a0
 203:src/kernel/slabAllocator.cpp ****         return;
 204:src/kernel/slabAllocator.cpp ****     newSlab->next = cachep->slabs_empty;
 948              		.loc 1 204 5
 949              		.loc 1 204 29 is_stmt 0
 950 0564 83B70904 		ld	a5,64(s3)
 951              		.loc 1 204 19
 952 0568 2334F500 		sd	a5,8(a0)
 205:src/kernel/slabAllocator.cpp ****     if(cachep->slabs_empty != nullptr)
 953              		.loc 1 205 5 is_stmt 1
 954 056c 63840700 		beqz	a5,.L55
 206:src/kernel/slabAllocator.cpp ****         cachep->slabs_empty->prev = newSlab;
 955              		.loc 1 206 9
 956              		.loc 1 206 35 is_stmt 0
 957 0570 23B0A700 		sd	a0,0(a5)
 958              	.LVL84:
 959              	.L55:
 207:src/kernel/slabAllocator.cpp ****     cachep->slabs_empty = newSlab;
 960              		.loc 1 207 5 is_stmt 1
 961              		.loc 1 207 25 is_stmt 0
 962 0574 23B09904 		sd	s1,64(s3)
 208:src/kernel/slabAllocator.cpp ****     newSlab->prev = nullptr;
 963              		.loc 1 208 5 is_stmt 1
 964              		.loc 1 208 19 is_stmt 0
 965 0578 23B00400 		sd	zero,0(s1)
 209:src/kernel/slabAllocator.cpp **** 
 210:src/kernel/slabAllocator.cpp ****     newSlab->numOfAllocatedObjects = 0;
 966              		.loc 1 210 5 is_stmt 1
 967              		.loc 1 210 36 is_stmt 0
 968 057c 23B00402 		sd	zero,32(s1)
 211:src/kernel/slabAllocator.cpp ****     newSlab->owner = cachep;
 969              		.loc 1 211 5 is_stmt 1
 970              		.loc 1 211 20 is_stmt 0
 971 0580 23B83401 		sd	s3,16(s1)
 212:src/kernel/slabAllocator.cpp ****     size_t sizeInBytes = cachep->slab_size*BLOCK_SIZE;
 972              		.loc 1 212 5 is_stmt 1
 973              		.loc 1 212 34 is_stmt 0
 974 0584 83B68905 		ld	a3,88(s3)
 975              		.loc 1 212 12
 976 0588 9396C600 		slli	a3,a3,12
 977              	.LVL85:
 213:src/kernel/slabAllocator.cpp ****     newSlab->numOfObjects = (sizeInBytes - sizeof(slab_t)) / cachep->obj_size; // TODO can this par
GAS LISTING /tmp/ccmqG3lh.s 			page 22


 978              		.loc 1 213 5 is_stmt 1
 979              		.loc 1 213 42 is_stmt 0
 980 058c 938606DD 		addi	a3,a3,-560
 981              	.LVL86:
 982              		.loc 1 213 70
 983 0590 83B70906 		ld	a5,96(s3)
 984              		.loc 1 213 60
 985 0594 B3D6F602 		divu	a3,a3,a5
 986              	.LVL87:
 987              		.loc 1 213 27
 988 0598 23BCD400 		sd	a3,24(s1)
 989              	.LVL88:
 214:src/kernel/slabAllocator.cpp ****     newSlab->startAddr = (void*)((size_t)newSlab + sizeof(slab_t));
 990              		.loc 1 214 5 is_stmt 1
 991              		.loc 1 214 50 is_stmt 0
 992 059c 93870423 		addi	a5,s1,560
 993              		.loc 1 214 24
 994 05a0 23B4F402 		sd	a5,40(s1)
 215:src/kernel/slabAllocator.cpp ****     for(size_t i = 0; i < (newSlab->numOfObjects + 7) / 8;i++)
 995              		.loc 1 215 5 is_stmt 1
 996              	.LVL89:
 997              	.LBB5:
 998              		.loc 1 215 16 is_stmt 0
 999 05a4 13070000 		li	a4,0
 1000              	.LVL90:
 1001              	.L57:
 1002              		.loc 1 215 25 is_stmt 1 discriminator 3
 1003              		.loc 1 215 50 is_stmt 0 discriminator 3
 1004 05a8 93877600 		addi	a5,a3,7
 1005              		.loc 1 215 55 discriminator 3
 1006 05ac 93D73700 		srli	a5,a5,3
 1007              		.loc 1 215 25 discriminator 3
 1008 05b0 637AF700 		bleu	a5,a4,.L56
 216:src/kernel/slabAllocator.cpp ****         newSlab->allocated[i] = 0;
 1009              		.loc 1 216 9 is_stmt 1 discriminator 2
 1010              		.loc 1 216 31 is_stmt 0 discriminator 2
 1011 05b4 B387E400 		add	a5,s1,a4
 1012 05b8 23880702 		sb	zero,48(a5)
 215:src/kernel/slabAllocator.cpp ****     for(size_t i = 0; i < (newSlab->numOfObjects + 7) / 8;i++)
 1013              		.loc 1 215 5 is_stmt 1 discriminator 2
 1014 05bc 13071700 		addi	a4,a4,1
 1015              	.LVL91:
 1016 05c0 6FF09FFE 		j	.L57
 1017              	.L56:
 1018              	.LBE5:
 217:src/kernel/slabAllocator.cpp **** 
 218:src/kernel/slabAllocator.cpp ****     if(cachep->ctor != nullptr)
 1019              		.loc 1 218 5
 1020              	.LBB6:
 1021              		.loc 1 218 16 is_stmt 0
 1022 05c4 83B78906 		ld	a5,104(s3)
 1023              		.loc 1 218 5
 1024 05c8 638A0702 		beqz	a5,.L53
 1025              	.LBB7:
 219:src/kernel/slabAllocator.cpp ****     {
 220:src/kernel/slabAllocator.cpp ****         for(size_t i = 0;i < newSlab->numOfObjects;i++)
 1026              		.loc 1 220 20
GAS LISTING /tmp/ccmqG3lh.s 			page 23


 1027 05cc 13090000 		li	s2,0
 1028              	.LVL92:
 1029              	.L58:
 1030              		.loc 1 220 28 is_stmt 1 discriminator 3
 1031              		.loc 1 220 39 is_stmt 0 discriminator 3
 1032 05d0 83B78401 		ld	a5,24(s1)
 1033              		.loc 1 220 28 discriminator 3
 1034 05d4 6374F902 		bleu	a5,s2,.L53
 221:src/kernel/slabAllocator.cpp ****             cachep->ctor((void*)((size_t)newSlab->startAddr + i*newSlab->owner->obj_size));
 1035              		.loc 1 221 13 is_stmt 1 discriminator 2
 1036              		.loc 1 221 21 is_stmt 0 discriminator 2
 1037 05d8 03B78906 		ld	a4,104(s3)
 1038              		.loc 1 221 51 discriminator 2
 1039 05dc 03B58402 		ld	a0,40(s1)
 1040              		.loc 1 221 74 discriminator 2
 1041 05e0 83B70401 		ld	a5,16(s1)
 1042              		.loc 1 221 81 discriminator 2
 1043 05e4 83B70706 		ld	a5,96(a5)
 1044              		.loc 1 221 64 discriminator 2
 1045 05e8 B3872703 		mul	a5,a5,s2
 1046              		.loc 1 221 25 discriminator 2
 1047 05ec 3305F500 		add	a0,a0,a5
 1048 05f0 E7000700 		jalr	a4
 1049              	.LVL93:
 220:src/kernel/slabAllocator.cpp ****             cachep->ctor((void*)((size_t)newSlab->startAddr + i*newSlab->owner->obj_size));
 1050              		.loc 1 220 9 is_stmt 1 discriminator 2
 1051 05f4 13091900 		addi	s2,s2,1
 1052              	.LVL94:
 1053 05f8 6FF09FFD 		j	.L58
 1054              	.LVL95:
 1055              	.L53:
 1056              	.LBE7:
 1057              	.LBE6:
 222:src/kernel/slabAllocator.cpp ****     }
 223:src/kernel/slabAllocator.cpp **** }
 1058              		.loc 1 223 1 is_stmt 0
 1059 05fc 83308102 		ld	ra,40(sp)
 1060              		.cfi_restore 1
 1061 0600 03340102 		ld	s0,32(sp)
 1062              		.cfi_restore 8
 1063              		.cfi_def_cfa 2, 48
 1064 0604 83348101 		ld	s1,24(sp)
 1065              		.cfi_restore 9
 1066 0608 03390101 		ld	s2,16(sp)
 1067              		.cfi_restore 18
 1068 060c 83398100 		ld	s3,8(sp)
 1069              		.cfi_restore 19
 1070              	.LVL96:
 1071 0610 13010103 		addi	sp,sp,48
 1072              		.cfi_def_cfa_offset 0
 1073 0614 67800000 		jr	ra
 1074              		.cfi_endproc
 1075              	.LFE20:
 1077              		.align	2
 1078              		.globl	_Z18getOptimalSlabSizem
 1080              	_Z18getOptimalSlabSizem:
 1081              	.LFB21:
GAS LISTING /tmp/ccmqG3lh.s 			page 24


 224:src/kernel/slabAllocator.cpp **** 
 225:src/kernel/slabAllocator.cpp **** size_t getOptimalSlabSize(size_t obj_size)
 226:src/kernel/slabAllocator.cpp **** {
 1082              		.loc 1 226 1 is_stmt 1
 1083              		.cfi_startproc
 1084              	.LVL97:
 1085 0618 130101FF 		addi	sp,sp,-16
 1086              		.cfi_def_cfa_offset 16
 1087 061c 23348100 		sd	s0,8(sp)
 1088              		.cfi_offset 8, -8
 1089 0620 13040101 		addi	s0,sp,16
 1090              		.cfi_def_cfa 8, 0
 227:src/kernel/slabAllocator.cpp ****     size_t bestSize = BLOCK_SIZE;
 1091              		.loc 1 227 5
 1092              	.LVL98:
 1093              		.loc 1 227 12 is_stmt 0
 1094 0624 37170000 		li	a4,4096
 1095              	.LVL99:
 1096              	.L62:
 228:src/kernel/slabAllocator.cpp ****     while(bestSize < obj_size + sizeof(slab_t))
 1097              		.loc 1 228 5 is_stmt 1
 1098              		.loc 1 228 20
 1099              		.loc 1 228 31 is_stmt 0
 1100 0628 93070523 		addi	a5,a0,560
 1101              		.loc 1 228 20
 1102 062c 6376F700 		bleu	a5,a4,.L61
 229:src/kernel/slabAllocator.cpp ****         bestSize<<=1;
 1103              		.loc 1 229 9 is_stmt 1
 1104              		.loc 1 229 17 is_stmt 0
 1105 0630 13171700 		slli	a4,a4,1
 1106              	.LVL100:
 228:src/kernel/slabAllocator.cpp ****     while(bestSize < obj_size + sizeof(slab_t))
 1107              		.loc 1 228 5
 1108 0634 6FF05FFF 		j	.L62
 1109              	.L61:
 230:src/kernel/slabAllocator.cpp ****     size_t optimalWaste = (bestSize - sizeof(slab_t)) % obj_size;
 1110              		.loc 1 230 5 is_stmt 1
 1111              		.loc 1 230 37 is_stmt 0
 1112 0638 130807DD 		addi	a6,a4,-560
 1113              		.loc 1 230 12
 1114 063c 3378A802 		remu	a6,a6,a0
 1115              	.LVL101:
 231:src/kernel/slabAllocator.cpp ****     size_t oldSize = bestSize;
 1116              		.loc 1 231 5 is_stmt 1
 232:src/kernel/slabAllocator.cpp **** 
 233:src/kernel/slabAllocator.cpp ****     static size_t lowerConst = 1;
 1117              		.loc 1 233 5
 234:src/kernel/slabAllocator.cpp ****     static size_t highConst = 4;
 1118              		.loc 1 234 5
 235:src/kernel/slabAllocator.cpp ****     for(size_t i = lowerConst;i<=highConst;i++)
 1119              		.loc 1 235 5
 230:src/kernel/slabAllocator.cpp ****     size_t oldSize = bestSize;
 1120              		.loc 1 230 12 is_stmt 0
 1121 0640 13030700 		mv	t1,a4
 1122              	.LBB8:
 1123              		.loc 1 235 16
 1124 0644 93061000 		li	a3,1
GAS LISTING /tmp/ccmqG3lh.s 			page 25


 1125 0648 6F008000 		j	.L65
 1126              	.LVL102:
 1127              	.L64:
 1128              		.loc 1 235 5 is_stmt 1 discriminator 2
 1129 064c 93861600 		addi	a3,a3,1
 1130              	.LVL103:
 1131              	.L65:
 1132              		.loc 1 235 32 discriminator 1
 1133 0650 93074000 		li	a5,4
 1134 0654 63E6D702 		bgtu	a3,a5,.L63
 1135              	.LBB9:
 236:src/kernel/slabAllocator.cpp ****     {
 237:src/kernel/slabAllocator.cpp ****         size_t newSize = oldSize << i;
 1136              		.loc 1 237 9
 1137              		.loc 1 237 16 is_stmt 0
 1138 0658 3316D700 		sll	a2,a4,a3
 1139              	.LVL104:
 238:src/kernel/slabAllocator.cpp ****         size_t newWaste = (newSize - sizeof(slab_t)) % obj_size;
 1140              		.loc 1 238 9 is_stmt 1
 1141              		.loc 1 238 36 is_stmt 0
 1142 065c 930706DD 		addi	a5,a2,-560
 1143              		.loc 1 238 16
 1144 0660 B3F5A702 		remu	a1,a5,a0
 1145              	.LVL105:
 239:src/kernel/slabAllocator.cpp ****         size_t numOfObjs = (newSize - sizeof(slab_t)) / obj_size;
 1146              		.loc 1 239 9 is_stmt 1
 1147              		.loc 1 239 16 is_stmt 0
 1148 0664 B3D7A702 		divu	a5,a5,a0
 1149              	.LVL106:
 240:src/kernel/slabAllocator.cpp ****         if(newWaste < optimalWaste && numOfObjs <= MAX_NUM_OF_OBJS)
 1150              		.loc 1 240 9 is_stmt 1
 1151 0668 E3F205FF 		bleu	a6,a1,.L64
 1152              		.loc 1 240 36 is_stmt 0 discriminator 1
 1153 066c B7180000 		li	a7,4096
 1154 0670 E3EEF8FC 		bgtu	a5,a7,.L64
 241:src/kernel/slabAllocator.cpp ****         {
 242:src/kernel/slabAllocator.cpp ****             optimalWaste = newWaste;
 1155              		.loc 1 242 26
 1156 0674 13880500 		mv	a6,a1
 1157              	.LVL107:
 243:src/kernel/slabAllocator.cpp ****             bestSize = newSize;
 1158              		.loc 1 243 22
 1159 0678 13030600 		mv	t1,a2
 1160              	.LVL108:
 1161 067c 6FF01FFD 		j	.L64
 1162              	.LVL109:
 1163              	.L63:
 1164              	.LBE9:
 1165              	.LBE8:
 244:src/kernel/slabAllocator.cpp ****         }
 245:src/kernel/slabAllocator.cpp ****     }
 246:src/kernel/slabAllocator.cpp ****     /*for(size_t i = lowerConst;i<=highConst;i++)
 247:src/kernel/slabAllocator.cpp ****     {
 248:src/kernel/slabAllocator.cpp ****         size_t newSize = oldSize + i*BLOCK_SIZE;
 249:src/kernel/slabAllocator.cpp ****         size_t newWaste = (newSize - sizeof(slab_t)) % obj_size;
 250:src/kernel/slabAllocator.cpp ****         size_t numOfObjs = (newSize - sizeof(slab_t)) / obj_size;
 251:src/kernel/slabAllocator.cpp ****         if(newWaste < optimalWaste && numOfObjs <= MAX_NUM_OF_OBJS)
GAS LISTING /tmp/ccmqG3lh.s 			page 26


 252:src/kernel/slabAllocator.cpp ****         {
 253:src/kernel/slabAllocator.cpp ****             optimalWaste = newWaste;
 254:src/kernel/slabAllocator.cpp ****             bestSize = newSize;
 255:src/kernel/slabAllocator.cpp ****         }
 256:src/kernel/slabAllocator.cpp ****     }*/
 257:src/kernel/slabAllocator.cpp **** 
 258:src/kernel/slabAllocator.cpp ****     return bestSize / BLOCK_SIZE;
 1166              		.loc 1 258 5 is_stmt 1
 259:src/kernel/slabAllocator.cpp **** }
 1167              		.loc 1 259 1 is_stmt 0
 1168 0680 1355C300 		srli	a0,t1,12
 1169              	.LVL110:
 1170 0684 03348100 		ld	s0,8(sp)
 1171              		.cfi_restore 8
 1172              		.cfi_def_cfa 2, 16
 1173 0688 13010101 		addi	sp,sp,16
 1174              		.cfi_def_cfa_offset 0
 1175 068c 67800000 		jr	ra
 1176              		.cfi_endproc
 1177              	.LFE21:
 1179              		.align	2
 1180              		.globl	_Z8findSlabP12kmem_cache_sPKv
 1182              	_Z8findSlabP12kmem_cache_sPKv:
 1183              	.LFB22:
 260:src/kernel/slabAllocator.cpp **** 
 261:src/kernel/slabAllocator.cpp **** //finds the slab where objp is
 262:src/kernel/slabAllocator.cpp **** slab_t* findSlab(kmem_cache_t* cachep, const void* objp)
 263:src/kernel/slabAllocator.cpp **** {
 1184              		.loc 1 263 1 is_stmt 1
 1185              		.cfi_startproc
 1186              	.LVL111:
 1187 0690 130101FF 		addi	sp,sp,-16
 1188              		.cfi_def_cfa_offset 16
 1189 0694 23348100 		sd	s0,8(sp)
 1190              		.cfi_offset 8, -8
 1191 0698 13040101 		addi	s0,sp,16
 1192              		.cfi_def_cfa 8, 0
 1193 069c 13060500 		mv	a2,a0
 264:src/kernel/slabAllocator.cpp ****     if(cachep == nullptr || objp == nullptr)
 1194              		.loc 1 264 5
 1195 06a0 630C0502 		beqz	a0,.L68
 1196              		.loc 1 264 26 is_stmt 0 discriminator 1
 1197 06a4 638A0506 		beqz	a1,.L76
 265:src/kernel/slabAllocator.cpp ****         return nullptr;
 266:src/kernel/slabAllocator.cpp ****     slab_t* slab = cachep->slabs_full;
 1198              		.loc 1 266 5 is_stmt 1
 1199              		.loc 1 266 13 is_stmt 0
 1200 06a8 03358504 		ld	a0,72(a0)
 1201              	.LVL112:
 1202 06ac 6F008000 		j	.L72
 1203              	.LVL113:
 1204              	.L71:
 1205              	.LBB10:
 267:src/kernel/slabAllocator.cpp ****     while(slab != nullptr)
 268:src/kernel/slabAllocator.cpp ****     {
 269:src/kernel/slabAllocator.cpp ****         size_t endAddr = (size_t)slab->startAddr + slab->numOfObjects*slab->owner->obj_size;
 270:src/kernel/slabAllocator.cpp ****         if((size_t)objp >= (size_t)slab->startAddr && (size_t)objp < endAddr)
GAS LISTING /tmp/ccmqG3lh.s 			page 27


 271:src/kernel/slabAllocator.cpp ****             return slab;
 272:src/kernel/slabAllocator.cpp ****         slab = slab->next;
 1206              		.loc 1 272 9 is_stmt 1
 1207              		.loc 1 272 14 is_stmt 0
 1208 06b0 03358500 		ld	a0,8(a0)
 1209              	.LVL114:
 1210              	.L72:
 1211              	.LBE10:
 267:src/kernel/slabAllocator.cpp ****     while(slab != nullptr)
 1212              		.loc 1 267 5 is_stmt 1
 267:src/kernel/slabAllocator.cpp ****     while(slab != nullptr)
 1213              		.loc 1 267 16
 1214 06b4 63080502 		beqz	a0,.L70
 1215              	.LBB11:
 269:src/kernel/slabAllocator.cpp ****         if((size_t)objp >= (size_t)slab->startAddr && (size_t)objp < endAddr)
 1216              		.loc 1 269 9
 269:src/kernel/slabAllocator.cpp ****         if((size_t)objp >= (size_t)slab->startAddr && (size_t)objp < endAddr)
 1217              		.loc 1 269 40 is_stmt 0
 1218 06b8 03378502 		ld	a4,40(a0)
 269:src/kernel/slabAllocator.cpp ****         if((size_t)objp >= (size_t)slab->startAddr && (size_t)objp < endAddr)
 1219              		.loc 1 269 58
 1220 06bc 83378501 		ld	a5,24(a0)
 269:src/kernel/slabAllocator.cpp ****         if((size_t)objp >= (size_t)slab->startAddr && (size_t)objp < endAddr)
 1221              		.loc 1 269 77
 1222 06c0 83360501 		ld	a3,16(a0)
 269:src/kernel/slabAllocator.cpp ****         if((size_t)objp >= (size_t)slab->startAddr && (size_t)objp < endAddr)
 1223              		.loc 1 269 84
 1224 06c4 83B60606 		ld	a3,96(a3)
 269:src/kernel/slabAllocator.cpp ****         if((size_t)objp >= (size_t)slab->startAddr && (size_t)objp < endAddr)
 1225              		.loc 1 269 70
 1226 06c8 B387D702 		mul	a5,a5,a3
 269:src/kernel/slabAllocator.cpp ****         if((size_t)objp >= (size_t)slab->startAddr && (size_t)objp < endAddr)
 1227              		.loc 1 269 16
 1228 06cc B307F700 		add	a5,a4,a5
 1229              	.LVL115:
 270:src/kernel/slabAllocator.cpp ****             return slab;
 1230              		.loc 1 270 9 is_stmt 1
 1231 06d0 E3E0E5FE 		bgtu	a4,a1,.L71
 270:src/kernel/slabAllocator.cpp ****             return slab;
 1232              		.loc 1 270 52 is_stmt 0 discriminator 1
 1233 06d4 E3FEF5FC 		bgeu	a1,a5,.L71
 1234              	.LVL116:
 1235              	.L68:
 1236              	.LBE11:
 273:src/kernel/slabAllocator.cpp ****     }
 274:src/kernel/slabAllocator.cpp **** 
 275:src/kernel/slabAllocator.cpp ****     slab = cachep->slabs_partial;
 276:src/kernel/slabAllocator.cpp ****     while(slab != nullptr)
 277:src/kernel/slabAllocator.cpp ****     {
 278:src/kernel/slabAllocator.cpp ****         size_t endAddr = (size_t)slab->startAddr + slab->numOfObjects*slab->owner->obj_size;
 279:src/kernel/slabAllocator.cpp ****         if((size_t)objp >= (size_t)slab->startAddr && (size_t)objp < endAddr)
 280:src/kernel/slabAllocator.cpp ****             return slab;
 281:src/kernel/slabAllocator.cpp ****         slab = slab->next;
 282:src/kernel/slabAllocator.cpp ****     }
 283:src/kernel/slabAllocator.cpp **** 
 284:src/kernel/slabAllocator.cpp ****     return nullptr;
 285:src/kernel/slabAllocator.cpp **** }
GAS LISTING /tmp/ccmqG3lh.s 			page 28


 1237              		.loc 1 285 1
 1238 06d8 03348100 		ld	s0,8(sp)
 1239              		.cfi_remember_state
 1240              		.cfi_restore 8
 1241              		.cfi_def_cfa 2, 16
 1242 06dc 13010101 		addi	sp,sp,16
 1243              		.cfi_def_cfa_offset 0
 1244 06e0 67800000 		jr	ra
 1245              	.LVL117:
 1246              	.L70:
 1247              		.cfi_restore_state
 275:src/kernel/slabAllocator.cpp ****     while(slab != nullptr)
 1248              		.loc 1 275 5 is_stmt 1
 275:src/kernel/slabAllocator.cpp ****     while(slab != nullptr)
 1249              		.loc 1 275 10 is_stmt 0
 1250 06e4 03350605 		ld	a0,80(a2)
 1251              	.LVL118:
 1252 06e8 6F008000 		j	.L74
 1253              	.LVL119:
 1254              	.L73:
 1255              	.LBB12:
 281:src/kernel/slabAllocator.cpp ****     }
 1256              		.loc 1 281 9 is_stmt 1
 281:src/kernel/slabAllocator.cpp ****     }
 1257              		.loc 1 281 14 is_stmt 0
 1258 06ec 03358500 		ld	a0,8(a0)
 1259              	.LVL120:
 1260              	.L74:
 1261              	.LBE12:
 276:src/kernel/slabAllocator.cpp ****     {
 1262              		.loc 1 276 5 is_stmt 1
 276:src/kernel/slabAllocator.cpp ****     {
 1263              		.loc 1 276 16
 1264 06f0 E30405FE 		beqz	a0,.L68
 1265              	.LBB13:
 278:src/kernel/slabAllocator.cpp ****         if((size_t)objp >= (size_t)slab->startAddr && (size_t)objp < endAddr)
 1266              		.loc 1 278 9
 278:src/kernel/slabAllocator.cpp ****         if((size_t)objp >= (size_t)slab->startAddr && (size_t)objp < endAddr)
 1267              		.loc 1 278 40 is_stmt 0
 1268 06f4 03378502 		ld	a4,40(a0)
 278:src/kernel/slabAllocator.cpp ****         if((size_t)objp >= (size_t)slab->startAddr && (size_t)objp < endAddr)
 1269              		.loc 1 278 58
 1270 06f8 83378501 		ld	a5,24(a0)
 278:src/kernel/slabAllocator.cpp ****         if((size_t)objp >= (size_t)slab->startAddr && (size_t)objp < endAddr)
 1271              		.loc 1 278 77
 1272 06fc 83360501 		ld	a3,16(a0)
 278:src/kernel/slabAllocator.cpp ****         if((size_t)objp >= (size_t)slab->startAddr && (size_t)objp < endAddr)
 1273              		.loc 1 278 84
 1274 0700 83B60606 		ld	a3,96(a3)
 278:src/kernel/slabAllocator.cpp ****         if((size_t)objp >= (size_t)slab->startAddr && (size_t)objp < endAddr)
 1275              		.loc 1 278 70
 1276 0704 B387D702 		mul	a5,a5,a3
 278:src/kernel/slabAllocator.cpp ****         if((size_t)objp >= (size_t)slab->startAddr && (size_t)objp < endAddr)
 1277              		.loc 1 278 16
 1278 0708 B307F700 		add	a5,a4,a5
 1279              	.LVL121:
 279:src/kernel/slabAllocator.cpp ****             return slab;
GAS LISTING /tmp/ccmqG3lh.s 			page 29


 1280              		.loc 1 279 9 is_stmt 1
 1281 070c E3E0E5FE 		bgtu	a4,a1,.L73
 279:src/kernel/slabAllocator.cpp ****             return slab;
 1282              		.loc 1 279 52 is_stmt 0 discriminator 1
 1283 0710 E3FEF5FC 		bgeu	a1,a5,.L73
 1284 0714 6FF05FFC 		j	.L68
 1285              	.LVL122:
 1286              	.L76:
 1287              	.LBE13:
 265:src/kernel/slabAllocator.cpp ****     slab_t* slab = cachep->slabs_full;
 1288              		.loc 1 265 16
 1289 0718 13850500 		mv	a0,a1
 1290              	.LVL123:
 1291 071c 6FF0DFFB 		j	.L68
 1292              		.cfi_endproc
 1293              	.LFE22:
 1295              		.align	2
 1296              		.globl	_Z19resetAllocatedIndexP6slab_si
 1298              	_Z19resetAllocatedIndexP6slab_si:
 1299              	.LFB23:
 286:src/kernel/slabAllocator.cpp **** 
 287:src/kernel/slabAllocator.cpp **** void resetAllocatedIndex(slab_t* slab, int index)
 288:src/kernel/slabAllocator.cpp **** {
 1300              		.loc 1 288 1 is_stmt 1
 1301              		.cfi_startproc
 1302              	.LVL124:
 1303 0720 130101FF 		addi	sp,sp,-16
 1304              		.cfi_def_cfa_offset 16
 1305 0724 23348100 		sd	s0,8(sp)
 1306              		.cfi_offset 8, -8
 1307 0728 13040101 		addi	s0,sp,16
 1308              		.cfi_def_cfa 8, 0
 289:src/kernel/slabAllocator.cpp ****     slab->allocated[index / 8]=(uint8)slab->allocated[index/8] & ~(1 << (index%8));
 1309              		.loc 1 289 5
 1310              		.loc 1 289 60 is_stmt 0
 1311 072c 9BD7F541 		sraiw	a5,a1,31
 1312 0730 9BD7D701 		srliw	a5,a5,29
 1313 0734 BB85B700 		addw	a1,a5,a1
 1314              	.LVL125:
 1315 0738 1BD73540 		sraiw	a4,a1,3
 1316              		.loc 1 289 62
 1317 073c 3305E500 		add	a0,a0,a4
 1318              	.LVL126:
 1319              		.loc 1 289 32
 1320 0740 03070503 		lb	a4,48(a0)
 1321              		.loc 1 289 79
 1322 0744 93F57500 		andi	a1,a1,7
 1323 0748 BB85F540 		subw	a1,a1,a5
 1324              		.loc 1 289 70
 1325 074c 93071000 		li	a5,1
 1326 0750 BB95B700 		sllw	a1,a5,a1
 1327              		.loc 1 289 64
 1328 0754 93C5F5FF 		not	a1,a1
 1329 0758 B375B700 		and	a1,a4,a1
 1330              		.loc 1 289 31
 1331 075c 2308B502 		sb	a1,48(a0)
 290:src/kernel/slabAllocator.cpp **** }
GAS LISTING /tmp/ccmqG3lh.s 			page 30


 1332              		.loc 1 290 1
 1333 0760 03348100 		ld	s0,8(sp)
 1334              		.cfi_restore 8
 1335              		.cfi_def_cfa 2, 16
 1336 0764 13010101 		addi	sp,sp,16
 1337              		.cfi_def_cfa_offset 0
 1338 0768 67800000 		jr	ra
 1339              		.cfi_endproc
 1340              	.LFE23:
 1342              		.section	.rodata.str1.8
 1343              		.align	3
 1344              	.LC1:
 1345 0010 4F6E6520 		.string	"One slab info---------\n"
 1345      736C6162 
 1345      20696E66 
 1345      6F2D2D2D 
 1345      2D2D2D2D 
 1346              		.align	3
 1347              	.LC2:
 1348 0028 536C6162 		.string	"Slab address "
 1348      20616464 
 1348      72657373 
 1348      2000
 1349 0036 0000     		.align	3
 1350              	.LC3:
 1351 0038 4E756D62 		.string	"Number of allocated objects "
 1351      6572206F 
 1351      6620616C 
 1351      6C6F6361 
 1351      74656420 
 1352 0055 000000   		.align	3
 1353              	.LC4:
 1354 0058 4E756D62 		.string	"Number of objects "
 1354      6572206F 
 1354      66206F62 
 1354      6A656374 
 1354      732000
 1355 006b 00000000 		.align	3
 1355      00
 1356              	.LC5:
 1357 0070 536C6162 		.string	"Slab start addr "
 1357      20737461 
 1357      72742061 
 1357      64647220 
 1357      00
 1358              		.text
 1359              		.align	2
 1360              		.globl	_Z13printSlabInfoP6slab_s
 1362              	_Z13printSlabInfoP6slab_s:
 1363              	.LFB24:
 291:src/kernel/slabAllocator.cpp **** 
 292:src/kernel/slabAllocator.cpp **** void printSlabInfo(slab_t* slab)
 293:src/kernel/slabAllocator.cpp **** {
 1364              		.loc 1 293 1 is_stmt 1
 1365              		.cfi_startproc
 1366              	.LVL127:
 1367 076c 130101FE 		addi	sp,sp,-32
GAS LISTING /tmp/ccmqG3lh.s 			page 31


 1368              		.cfi_def_cfa_offset 32
 1369 0770 233C1100 		sd	ra,24(sp)
 1370 0774 23388100 		sd	s0,16(sp)
 1371 0778 23349100 		sd	s1,8(sp)
 1372              		.cfi_offset 1, -8
 1373              		.cfi_offset 8, -16
 1374              		.cfi_offset 9, -24
 1375 077c 13040102 		addi	s0,sp,32
 1376              		.cfi_def_cfa 8, 0
 1377 0780 93040500 		mv	s1,a0
 294:src/kernel/slabAllocator.cpp ****     KConsole::trapPrintString("One slab info---------\n");
 1378              		.loc 1 294 5
 1379              		.loc 1 294 30 is_stmt 0
 1380 0784 17050000 		lla	a0,.LC1
 1380      13050500 
 1381              	.LVL128:
 1382 078c 97000000 		call	_ZN8KConsole15trapPrintStringEPKc@plt
 1382      E7800000 
 1383              	.LVL129:
 295:src/kernel/slabAllocator.cpp ****     KConsole::trapPrintStringInt("Slab address ",(size_t)slab,16);
 1384              		.loc 1 295 5 is_stmt 1
 1385              		.loc 1 295 33 is_stmt 0
 1386 0794 13060001 		li	a2,16
 1387 0798 93850400 		mv	a1,s1
 1388 079c 17050000 		lla	a0,.LC2
 1388      13050500 
 1389 07a4 97000000 		call	_ZN8KConsole18trapPrintStringIntEPKcmi@plt
 1389      E7800000 
 1390              	.LVL130:
 296:src/kernel/slabAllocator.cpp ****     KConsole::trapPrintStringInt("Number of allocated objects ",slab->numOfAllocatedObjects);
 1391              		.loc 1 296 5 is_stmt 1
 1392              		.loc 1 296 33 is_stmt 0
 1393 07ac 1306A000 		li	a2,10
 1394 07b0 83B50402 		ld	a1,32(s1)
 1395 07b4 17050000 		lla	a0,.LC3
 1395      13050500 
 1396 07bc 97000000 		call	_ZN8KConsole18trapPrintStringIntEPKcmi@plt
 1396      E7800000 
 1397              	.LVL131:
 297:src/kernel/slabAllocator.cpp ****     KConsole::trapPrintStringInt("Number of objects ", slab->numOfObjects);
 1398              		.loc 1 297 5 is_stmt 1
 1399              		.loc 1 297 33 is_stmt 0
 1400 07c4 1306A000 		li	a2,10
 1401 07c8 83B58401 		ld	a1,24(s1)
 1402 07cc 17050000 		lla	a0,.LC4
 1402      13050500 
 1403 07d4 97000000 		call	_ZN8KConsole18trapPrintStringIntEPKcmi@plt
 1403      E7800000 
 1404              	.LVL132:
 298:src/kernel/slabAllocator.cpp ****     KConsole::trapPrintStringInt("Slab start addr ", (size_t)slab->startAddr, 16);
 1405              		.loc 1 298 5 is_stmt 1
 1406              		.loc 1 298 33 is_stmt 0
 1407 07dc 13060001 		li	a2,16
 1408 07e0 83B58402 		ld	a1,40(s1)
 1409 07e4 17050000 		lla	a0,.LC5
 1409      13050500 
 1410 07ec 97000000 		call	_ZN8KConsole18trapPrintStringIntEPKcmi@plt
GAS LISTING /tmp/ccmqG3lh.s 			page 32


 1410      E7800000 
 1411              	.LVL133:
 299:src/kernel/slabAllocator.cpp ****     /*for(size_t i = 0;i < (slab->numOfObjects + 7) / 8;i++)
 300:src/kernel/slabAllocator.cpp ****     {
 301:src/kernel/slabAllocator.cpp ****         KConsole::trapPrintInt(i);
 302:src/kernel/slabAllocator.cpp ****         KConsole::trapPrintString(" : ");
 303:src/kernel/slabAllocator.cpp ****         KConsole::trapPrintInt((size_t)slab->allocated[i], 16);
 304:src/kernel/slabAllocator.cpp ****         KConsole::trapPrintString("\n");
 305:src/kernel/slabAllocator.cpp ****     }*/
 306:src/kernel/slabAllocator.cpp **** }
 1412              		.loc 1 306 1
 1413 07f4 83308101 		ld	ra,24(sp)
 1414              		.cfi_restore 1
 1415 07f8 03340101 		ld	s0,16(sp)
 1416              		.cfi_restore 8
 1417              		.cfi_def_cfa 2, 32
 1418 07fc 83348100 		ld	s1,8(sp)
 1419              		.cfi_restore 9
 1420              	.LVL134:
 1421 0800 13010102 		addi	sp,sp,32
 1422              		.cfi_def_cfa_offset 0
 1423 0804 67800000 		jr	ra
 1424              		.cfi_endproc
 1425              	.LFE24:
 1427              		.align	2
 1428              		.globl	_Z16free_slab_objectP6slab_sPKv
 1430              	_Z16free_slab_objectP6slab_sPKv:
 1431              	.LFB25:
 307:src/kernel/slabAllocator.cpp **** 
 308:src/kernel/slabAllocator.cpp **** void free_slab_object(slab_t* slab, const void* objp)
 309:src/kernel/slabAllocator.cpp **** {
 1432              		.loc 1 309 1 is_stmt 1
 1433              		.cfi_startproc
 1434              	.LVL135:
 310:src/kernel/slabAllocator.cpp ****     if(slab == nullptr || objp == nullptr)
 1435              		.loc 1 310 5
 1436 0808 63080512 		beqz	a0,.L89
 309:src/kernel/slabAllocator.cpp ****     if(slab == nullptr || objp == nullptr)
 1437              		.loc 1 309 1 is_stmt 0 discriminator 1
 1438 080c 130101FD 		addi	sp,sp,-48
 1439              		.cfi_def_cfa_offset 48
 1440 0810 23341102 		sd	ra,40(sp)
 1441 0814 23308102 		sd	s0,32(sp)
 1442 0818 233C9100 		sd	s1,24(sp)
 1443 081c 23382101 		sd	s2,16(sp)
 1444 0820 23343101 		sd	s3,8(sp)
 1445 0824 23304101 		sd	s4,0(sp)
 1446              		.cfi_offset 1, -8
 1447              		.cfi_offset 8, -16
 1448              		.cfi_offset 9, -24
 1449              		.cfi_offset 18, -32
 1450              		.cfi_offset 19, -40
 1451              		.cfi_offset 20, -48
 1452 0828 13040103 		addi	s0,sp,48
 1453              		.cfi_def_cfa 8, 0
 1454 082c 93040500 		mv	s1,a0
 1455 0830 13890500 		mv	s2,a1
GAS LISTING /tmp/ccmqG3lh.s 			page 33


 1456              		.loc 1 310 24 discriminator 1
 1457 0834 63820508 		beqz	a1,.L82
 311:src/kernel/slabAllocator.cpp ****         return;
 312:src/kernel/slabAllocator.cpp ****     int indexOfObject = ((size_t)objp - (size_t)slab->startAddr) / slab->owner->obj_size;
 1458              		.loc 1 312 5 is_stmt 1
 1459              		.loc 1 312 55 is_stmt 0
 1460 0838 83378502 		ld	a5,40(a0)
 1461              		.loc 1 312 39
 1462 083c B389F540 		sub	s3,a1,a5
 1463              		.loc 1 312 74
 1464 0840 033A0501 		ld	s4,16(a0)
 1465              		.loc 1 312 81
 1466 0844 03370A06 		ld	a4,96(s4)
 1467              		.loc 1 312 66
 1468 0848 B3D9E902 		divu	s3,s3,a4
 1469              		.loc 1 312 9
 1470 084c 9B890900 		sext.w	s3,s3
 1471              	.LVL136:
 313:src/kernel/slabAllocator.cpp ****     if((size_t)objp != (size_t)slab->startAddr + indexOfObject*slab->owner->obj_size) //address not
 1472              		.loc 1 313 5 is_stmt 1
 1473              		.loc 1 313 63 is_stmt 0
 1474 0850 33073703 		mul	a4,a4,s3
 1475              		.loc 1 313 48
 1476 0854 B387E700 		add	a5,a5,a4
 1477              		.loc 1 313 5
 1478 0858 6390F506 		bne	a1,a5,.L82
 314:src/kernel/slabAllocator.cpp ****         return;
 315:src/kernel/slabAllocator.cpp **** 
 316:src/kernel/slabAllocator.cpp ****     if(!checkSetIndex(slab, indexOfObject))
 1479              		.loc 1 316 5 is_stmt 1
 1480              		.loc 1 316 22 is_stmt 0
 1481 085c 93850900 		mv	a1,s3
 1482              	.LVL137:
 1483 0860 97000000 		call	_Z13checkSetIndexP6slab_si
 1483      E7800000 
 1484              	.LVL138:
 1485              		.loc 1 316 5
 1486 0868 63080504 		beqz	a0,.L82
 317:src/kernel/slabAllocator.cpp ****         return;
 318:src/kernel/slabAllocator.cpp **** 
 319:src/kernel/slabAllocator.cpp ****     kmem_cache_t* cachep = slab->owner;
 1487              		.loc 1 319 5 is_stmt 1
 1488              	.LVL139:
 320:src/kernel/slabAllocator.cpp ****     if(cachep->dtor != nullptr)
 1489              		.loc 1 320 5
 1490              		.loc 1 320 16 is_stmt 0
 1491 086c 83370A07 		ld	a5,112(s4)
 1492              		.loc 1 320 5
 1493 0870 63860700 		beqz	a5,.L84
 321:src/kernel/slabAllocator.cpp ****         cachep->dtor((void*)objp);
 1494              		.loc 1 321 9 is_stmt 1
 1495              		.loc 1 321 21 is_stmt 0
 1496 0874 13050900 		mv	a0,s2
 1497 0878 E7800700 		jalr	a5
 1498              	.LVL140:
 1499              	.L84:
 322:src/kernel/slabAllocator.cpp ****     if(cachep->ctor != nullptr)
GAS LISTING /tmp/ccmqG3lh.s 			page 34


 1500              		.loc 1 322 5 is_stmt 1
 1501              		.loc 1 322 16 is_stmt 0
 1502 087c 83378A06 		ld	a5,104(s4)
 1503              		.loc 1 322 5
 1504 0880 63860700 		beqz	a5,.L85
 323:src/kernel/slabAllocator.cpp ****         cachep->ctor((void*)objp);
 1505              		.loc 1 323 9 is_stmt 1
 1506              		.loc 1 323 21 is_stmt 0
 1507 0884 13050900 		mv	a0,s2
 1508 0888 E7800700 		jalr	a5
 1509              	.LVL141:
 1510              	.L85:
 324:src/kernel/slabAllocator.cpp **** 
 325:src/kernel/slabAllocator.cpp ****     resetAllocatedIndex(slab, indexOfObject);
 1511              		.loc 1 325 5 is_stmt 1
 1512              		.loc 1 325 24 is_stmt 0
 1513 088c 93850900 		mv	a1,s3
 1514 0890 13850400 		mv	a0,s1
 1515 0894 97000000 		call	_Z19resetAllocatedIndexP6slab_si
 1515      E7800000 
 1516              	.LVL142:
 326:src/kernel/slabAllocator.cpp ****     if(slab->numOfObjects == slab->numOfAllocatedObjects)
 1517              		.loc 1 326 5 is_stmt 1
 1518              		.loc 1 326 14 is_stmt 0
 1519 089c 03B78401 		ld	a4,24(s1)
 1520              		.loc 1 326 36
 1521 08a0 83B70402 		ld	a5,32(s1)
 1522              		.loc 1 326 5
 1523 08a4 630AF702 		beq	a4,a5,.L92
 327:src/kernel/slabAllocator.cpp ****     {
 328:src/kernel/slabAllocator.cpp ****         removeFullSlab(slab->owner, slab);
 329:src/kernel/slabAllocator.cpp ****         slab->numOfAllocatedObjects--;
 330:src/kernel/slabAllocator.cpp ****         if(empty(slab))
 331:src/kernel/slabAllocator.cpp ****             removePartialSlab(slab->owner, slab);
 332:src/kernel/slabAllocator.cpp ****     }
 333:src/kernel/slabAllocator.cpp ****     else if(slab->numOfAllocatedObjects == 1)
 1524              		.loc 1 333 10 is_stmt 1
 1525 08a8 13071000 		li	a4,1
 1526 08ac 6386E706 		beq	a5,a4,.L93
 334:src/kernel/slabAllocator.cpp ****     {
 335:src/kernel/slabAllocator.cpp ****         removePartialSlab(slab->owner, slab);
 336:src/kernel/slabAllocator.cpp ****         slab->numOfAllocatedObjects--;
 337:src/kernel/slabAllocator.cpp ****     }
 338:src/kernel/slabAllocator.cpp ****     else
 339:src/kernel/slabAllocator.cpp ****         slab->numOfAllocatedObjects--;
 1527              		.loc 1 339 9
 1528              		.loc 1 339 36 is_stmt 0
 1529 08b0 9387F7FF 		addi	a5,a5,-1
 1530 08b4 23B0F402 		sd	a5,32(s1)
 1531              	.LVL143:
 1532              	.L82:
 340:src/kernel/slabAllocator.cpp **** }
 1533              		.loc 1 340 1
 1534 08b8 83308102 		ld	ra,40(sp)
 1535              		.cfi_remember_state
 1536              		.cfi_restore 1
 1537 08bc 03340102 		ld	s0,32(sp)
GAS LISTING /tmp/ccmqG3lh.s 			page 35


 1538              		.cfi_restore 8
 1539              		.cfi_def_cfa 2, 48
 1540 08c0 83348101 		ld	s1,24(sp)
 1541              		.cfi_restore 9
 1542              	.LVL144:
 1543 08c4 03390101 		ld	s2,16(sp)
 1544              		.cfi_restore 18
 1545              	.LVL145:
 1546 08c8 83398100 		ld	s3,8(sp)
 1547              		.cfi_restore 19
 1548 08cc 033A0100 		ld	s4,0(sp)
 1549              		.cfi_restore 20
 1550 08d0 13010103 		addi	sp,sp,48
 1551              		.cfi_def_cfa_offset 0
 1552 08d4 67800000 		jr	ra
 1553              	.LVL146:
 1554              	.L92:
 1555              		.cfi_restore_state
 328:src/kernel/slabAllocator.cpp ****         slab->numOfAllocatedObjects--;
 1556              		.loc 1 328 9 is_stmt 1
 328:src/kernel/slabAllocator.cpp ****         slab->numOfAllocatedObjects--;
 1557              		.loc 1 328 23 is_stmt 0
 1558 08d8 93850400 		mv	a1,s1
 1559 08dc 03B50401 		ld	a0,16(s1)
 1560 08e0 97000000 		call	_Z14removeFullSlabP12kmem_cache_sP6slab_s
 1560      E7800000 
 1561              	.LVL147:
 329:src/kernel/slabAllocator.cpp ****         if(empty(slab))
 1562              		.loc 1 329 9 is_stmt 1
 329:src/kernel/slabAllocator.cpp ****         if(empty(slab))
 1563              		.loc 1 329 15 is_stmt 0
 1564 08e8 83B70402 		ld	a5,32(s1)
 329:src/kernel/slabAllocator.cpp ****         if(empty(slab))
 1565              		.loc 1 329 36
 1566 08ec 9387F7FF 		addi	a5,a5,-1
 1567 08f0 23B0F402 		sd	a5,32(s1)
 330:src/kernel/slabAllocator.cpp ****             removePartialSlab(slab->owner, slab);
 1568              		.loc 1 330 9 is_stmt 1
 330:src/kernel/slabAllocator.cpp ****             removePartialSlab(slab->owner, slab);
 1569              		.loc 1 330 17 is_stmt 0
 1570 08f4 13850400 		mv	a0,s1
 1571 08f8 97000000 		call	_Z5emptyP6slab_s
 1571      E7800000 
 1572              	.LVL148:
 330:src/kernel/slabAllocator.cpp ****             removePartialSlab(slab->owner, slab);
 1573              		.loc 1 330 9
 1574 0900 E30C05FA 		beqz	a0,.L82
 331:src/kernel/slabAllocator.cpp ****     }
 1575              		.loc 1 331 13 is_stmt 1
 331:src/kernel/slabAllocator.cpp ****     }
 1576              		.loc 1 331 30 is_stmt 0
 1577 0904 93850400 		mv	a1,s1
 1578 0908 03B50401 		ld	a0,16(s1)
 1579 090c 97000000 		call	_Z17removePartialSlabP12kmem_cache_sP6slab_s
 1579      E7800000 
 1580              	.LVL149:
 1581 0914 6FF05FFA 		j	.L82
GAS LISTING /tmp/ccmqG3lh.s 			page 36


 1582              	.L93:
 335:src/kernel/slabAllocator.cpp ****         slab->numOfAllocatedObjects--;
 1583              		.loc 1 335 9 is_stmt 1
 335:src/kernel/slabAllocator.cpp ****         slab->numOfAllocatedObjects--;
 1584              		.loc 1 335 26 is_stmt 0
 1585 0918 93850400 		mv	a1,s1
 1586 091c 03B50401 		ld	a0,16(s1)
 1587 0920 97000000 		call	_Z17removePartialSlabP12kmem_cache_sP6slab_s
 1587      E7800000 
 1588              	.LVL150:
 336:src/kernel/slabAllocator.cpp ****     }
 1589              		.loc 1 336 9 is_stmt 1
 336:src/kernel/slabAllocator.cpp ****     }
 1590              		.loc 1 336 15 is_stmt 0
 1591 0928 83B70402 		ld	a5,32(s1)
 336:src/kernel/slabAllocator.cpp ****     }
 1592              		.loc 1 336 36
 1593 092c 9387F7FF 		addi	a5,a5,-1
 1594 0930 23B0F402 		sd	a5,32(s1)
 1595 0934 6FF05FF8 		j	.L82
 1596              	.LVL151:
 1597              	.L89:
 1598              		.cfi_def_cfa_register 2
 1599              		.cfi_restore 1
 1600              		.cfi_restore 8
 1601              		.cfi_restore 9
 1602              		.cfi_restore 18
 1603              		.cfi_restore 19
 1604              		.cfi_restore 20
 1605 0938 67800000 		ret
 1606              		.cfi_endproc
 1607              	.LFE25:
 1609              		.align	2
 1610              		.globl	_Z16kmem_cache_allocP12kmem_cache_s
 1612              	_Z16kmem_cache_allocP12kmem_cache_s:
 1613              	.LFB33:
 341:src/kernel/slabAllocator.cpp **** 
 342:src/kernel/slabAllocator.cpp **** void printSlabAllocatorInfo()
 343:src/kernel/slabAllocator.cpp **** {
 344:src/kernel/slabAllocator.cpp ****     KConsole::trapPrintString("\n\n\n\n\n\n\n\n\n");
 345:src/kernel/slabAllocator.cpp ****     KConsole::trapPrintString("Slab allocator info-------------------------------------------------
 346:src/kernel/slabAllocator.cpp ****     KConsole::trapPrintStringInt("Slab allocator address ", (size_t)slabAllocator, 16);
 347:src/kernel/slabAllocator.cpp ****     KConsole::trapPrintString("Cache of caches info\n");
 348:src/kernel/slabAllocator.cpp ****     kmem_cache_info(&slabAllocator->cacheOfCaches);
 349:src/kernel/slabAllocator.cpp ****     KConsole::trapPrintString("Caches for buffers\n");
 350:src/kernel/slabAllocator.cpp ****     for(size_t i = 0;i < CACHE_BUFFER_SIZE;i++)
 351:src/kernel/slabAllocator.cpp ****     {
 352:src/kernel/slabAllocator.cpp ****         if(slabAllocator->cachesBuffers[i] != nullptr)
 353:src/kernel/slabAllocator.cpp ****         {
 354:src/kernel/slabAllocator.cpp ****             kmem_cache_info(slabAllocator->cachesBuffers[i]);
 355:src/kernel/slabAllocator.cpp ****         }
 356:src/kernel/slabAllocator.cpp ****     }
 357:src/kernel/slabAllocator.cpp ****     KConsole::trapPrintString("\n\n\n\n\n\n\n\n\n");
 358:src/kernel/slabAllocator.cpp ****     printBuddyInfo();
 359:src/kernel/slabAllocator.cpp **** }
 360:src/kernel/slabAllocator.cpp **** 
 361:src/kernel/slabAllocator.cpp **** void shrink_caches_on_slab(slab_t* slab)
GAS LISTING /tmp/ccmqG3lh.s 			page 37


 362:src/kernel/slabAllocator.cpp **** {
 363:src/kernel/slabAllocator.cpp ****     for(size_t i = 0; i < slab->numOfObjects;i++)
 364:src/kernel/slabAllocator.cpp ****     {
 365:src/kernel/slabAllocator.cpp ****         if(checkSetIndex(slab, i))
 366:src/kernel/slabAllocator.cpp ****         {
 367:src/kernel/slabAllocator.cpp ****             void* addr = (void*)((size_t)slab->startAddr + i*slab->owner->obj_size);
 368:src/kernel/slabAllocator.cpp ****             kmem_cache_shrink((kmem_cache_t*)addr);
 369:src/kernel/slabAllocator.cpp ****         }
 370:src/kernel/slabAllocator.cpp ****     }
 371:src/kernel/slabAllocator.cpp **** }
 372:src/kernel/slabAllocator.cpp **** 
 373:src/kernel/slabAllocator.cpp **** void shrink_all_caches()
 374:src/kernel/slabAllocator.cpp **** {
 375:src/kernel/slabAllocator.cpp ****     kmem_cache_t* cacheOfCaches = &slabAllocator->cacheOfCaches;
 376:src/kernel/slabAllocator.cpp **** 
 377:src/kernel/slabAllocator.cpp ****     slab_t* slab = cacheOfCaches->slabs_full;
 378:src/kernel/slabAllocator.cpp ****     while(slab != nullptr)
 379:src/kernel/slabAllocator.cpp ****     {
 380:src/kernel/slabAllocator.cpp ****         shrink_caches_on_slab(slab);
 381:src/kernel/slabAllocator.cpp ****         slab = slab->next;
 382:src/kernel/slabAllocator.cpp ****     }
 383:src/kernel/slabAllocator.cpp **** 
 384:src/kernel/slabAllocator.cpp ****     slab = cacheOfCaches->slabs_partial;
 385:src/kernel/slabAllocator.cpp ****     while(slab != nullptr)
 386:src/kernel/slabAllocator.cpp ****     {
 387:src/kernel/slabAllocator.cpp ****         shrink_caches_on_slab(slab);
 388:src/kernel/slabAllocator.cpp ****         slab = slab->next;
 389:src/kernel/slabAllocator.cpp ****     }
 390:src/kernel/slabAllocator.cpp **** 
 391:src/kernel/slabAllocator.cpp ****     kmem_cache_shrink(cacheOfCaches);
 392:src/kernel/slabAllocator.cpp **** }
 393:src/kernel/slabAllocator.cpp **** 
 394:src/kernel/slabAllocator.cpp **** void* bigCacheKmalloc(kmem_cache_t* cachep)
 395:src/kernel/slabAllocator.cpp **** {
 396:src/kernel/slabAllocator.cpp ****     if(cachep == nullptr)
 397:src/kernel/slabAllocator.cpp ****         return nullptr;
 398:src/kernel/slabAllocator.cpp ****     slab_t* slab = (slab_t*)kmem_cache_alloc(cacheOfSlabs);
 399:src/kernel/slabAllocator.cpp ****     if(slab == nullptr)
 400:src/kernel/slabAllocator.cpp ****     {
 401:src/kernel/slabAllocator.cpp ****         return nullptr;
 402:src/kernel/slabAllocator.cpp ****     }
 403:src/kernel/slabAllocator.cpp ****     slab->owner = cachep;
 404:src/kernel/slabAllocator.cpp ****     slab->numOfObjects = 1;
 405:src/kernel/slabAllocator.cpp ****     slab->numOfAllocatedObjects = 1;
 406:src/kernel/slabAllocator.cpp ****     slab->allocated[0] = 0;
 407:src/kernel/slabAllocator.cpp ****     void* addr = buddy_alloc(cachep->obj_size / BLOCK_SIZE);
 408:src/kernel/slabAllocator.cpp ****     if(addr == nullptr)
 409:src/kernel/slabAllocator.cpp ****     {
 410:src/kernel/slabAllocator.cpp ****         kmem_cache_free(cacheOfSlabs, slab);
 411:src/kernel/slabAllocator.cpp ****         return nullptr;
 412:src/kernel/slabAllocator.cpp ****     }
 413:src/kernel/slabAllocator.cpp ****     slab->startAddr = addr;
 414:src/kernel/slabAllocator.cpp ****     insertIntoSlabList(slab, &cachep->slabs_full);
 415:src/kernel/slabAllocator.cpp ****     return addr;
 416:src/kernel/slabAllocator.cpp **** }
 417:src/kernel/slabAllocator.cpp **** 
 418:src/kernel/slabAllocator.cpp **** void big_kfree(slab_t* slab, const void* objp)
GAS LISTING /tmp/ccmqG3lh.s 			page 38


 419:src/kernel/slabAllocator.cpp **** {
 420:src/kernel/slabAllocator.cpp ****     if(slab == nullptr || objp == nullptr)
 421:src/kernel/slabAllocator.cpp ****         return;
 422:src/kernel/slabAllocator.cpp ****     kmem_cache_t* cachep = slab->owner;
 423:src/kernel/slabAllocator.cpp ****     buddy_free((void*)objp, cachep->obj_size / BLOCK_SIZE);
 424:src/kernel/slabAllocator.cpp ****     removeFullSlab(cachep, slab);
 425:src/kernel/slabAllocator.cpp ****     removePartialSlab(cachep, slab);
 426:src/kernel/slabAllocator.cpp ****     cachep->slabs_empty = nullptr;
 427:src/kernel/slabAllocator.cpp ****     kmem_cache_free(cacheOfSlabs, slab);
 428:src/kernel/slabAllocator.cpp **** }
 429:src/kernel/slabAllocator.cpp **** 
 430:src/kernel/slabAllocator.cpp **** //slab allocator public interface------------------------------------------------------------------
 431:src/kernel/slabAllocator.cpp **** void kmem_init(void *space, int block_num)
 432:src/kernel/slabAllocator.cpp **** {
 433:src/kernel/slabAllocator.cpp ****     buddyAllocator* buddy = buddy_init(space, block_num);
 434:src/kernel/slabAllocator.cpp ****     slabAllocator = slab_allocator_init(buddy);
 435:src/kernel/slabAllocator.cpp ****     cacheOfSlabs = kmem_cache_create("Cache of slabs", sizeof(slab_t), nullptr,nullptr);
 436:src/kernel/slabAllocator.cpp **** }
 437:src/kernel/slabAllocator.cpp **** 
 438:src/kernel/slabAllocator.cpp **** kmem_cache_t *kmem_cache_create(const char *name, size_t size,
 439:src/kernel/slabAllocator.cpp ****                                 void (*ctor)(void *),
 440:src/kernel/slabAllocator.cpp ****                                 void (*dtor)(void *))
 441:src/kernel/slabAllocator.cpp **** {
 442:src/kernel/slabAllocator.cpp ****     kmem_cache_t* newCache = (kmem_cache_t*)kmem_cache_alloc(&slabAllocator->cacheOfCaches);
 443:src/kernel/slabAllocator.cpp ****     if(newCache == nullptr)
 444:src/kernel/slabAllocator.cpp ****         return nullptr;
 445:src/kernel/slabAllocator.cpp ****     init_cache(newCache, name, getOptimalSlabSize(size), size, ctor,dtor);
 446:src/kernel/slabAllocator.cpp ****     return newCache;
 447:src/kernel/slabAllocator.cpp **** }
 448:src/kernel/slabAllocator.cpp **** 
 449:src/kernel/slabAllocator.cpp **** void *kmem_cache_alloc(kmem_cache_t *cachep)
 450:src/kernel/slabAllocator.cpp **** {
 1614              		.loc 1 450 1 is_stmt 1
 1615              		.cfi_startproc
 1616              	.LVL152:
 1617 093c 130101FE 		addi	sp,sp,-32
 1618              		.cfi_def_cfa_offset 32
 1619 0940 233C1100 		sd	ra,24(sp)
 1620 0944 23388100 		sd	s0,16(sp)
 1621 0948 23349100 		sd	s1,8(sp)
 1622 094c 23302101 		sd	s2,0(sp)
 1623              		.cfi_offset 1, -8
 1624              		.cfi_offset 8, -16
 1625              		.cfi_offset 9, -24
 1626              		.cfi_offset 18, -32
 1627 0950 13040102 		addi	s0,sp,32
 1628              		.cfi_def_cfa 8, 0
 1629 0954 93040500 		mv	s1,a0
 451:src/kernel/slabAllocator.cpp ****     if(cachep == nullptr)
 1630              		.loc 1 451 5
 1631 0958 630A0510 		beqz	a0,.L102
 452:src/kernel/slabAllocator.cpp ****         return nullptr;
 453:src/kernel/slabAllocator.cpp **** 
 454:src/kernel/slabAllocator.cpp ****     if(cachep->slabs_partial != nullptr)
 1632              		.loc 1 454 5
 1633              	.LBB14:
 1634              		.loc 1 454 16 is_stmt 0
GAS LISTING /tmp/ccmqG3lh.s 			page 39


 1635 095c 03350505 		ld	a0,80(a0)
 1636              	.LVL153:
 1637              		.loc 1 454 5
 1638 0960 631A0504 		bnez	a0,.L104
 1639              	.LBE14:
 455:src/kernel/slabAllocator.cpp ****     {
 456:src/kernel/slabAllocator.cpp ****         void* allocatedAddr = allocateObject(cachep->slabs_partial);
 457:src/kernel/slabAllocator.cpp ****         if(full(cachep->slabs_partial))
 458:src/kernel/slabAllocator.cpp ****             putPartialToFull(cachep);
 459:src/kernel/slabAllocator.cpp ****         return allocatedAddr;
 460:src/kernel/slabAllocator.cpp ****     }
 461:src/kernel/slabAllocator.cpp ****     else if(cachep->slabs_empty != nullptr)
 1640              		.loc 1 461 10 is_stmt 1
 1641              	.LBB21:
 1642              	.LBB15:
 1643              		.loc 1 461 21 is_stmt 0
 1644 0964 03B50404 		ld	a0,64(s1)
 1645              		.loc 1 461 10
 1646 0968 630A0508 		beqz	a0,.L98
 1647              	.LBB16:
 462:src/kernel/slabAllocator.cpp ****     {
 463:src/kernel/slabAllocator.cpp ****         void* allocatedAddr = allocateObject(cachep->slabs_empty);
 1648              		.loc 1 463 9 is_stmt 1
 1649              		.loc 1 463 45 is_stmt 0
 1650 096c 97000000 		call	_Z14allocateObjectP6slab_s
 1650      E7800000 
 1651              	.LVL154:
 1652 0974 13090500 		mv	s2,a0
 1653              	.LVL155:
 464:src/kernel/slabAllocator.cpp ****         if(!empty(cachep->slabs_empty))
 1654              		.loc 1 464 9 is_stmt 1
 1655              		.loc 1 464 18 is_stmt 0
 1656 0978 03B50404 		ld	a0,64(s1)
 1657              	.LVL156:
 1658 097c 97000000 		call	_Z5emptyP6slab_s
 1658      E7800000 
 1659              	.LVL157:
 1660              		.loc 1 464 9
 1661 0984 63160504 		bnez	a0,.L94
 465:src/kernel/slabAllocator.cpp ****         {
 466:src/kernel/slabAllocator.cpp ****             putEmptyToPartial(cachep);
 1662              		.loc 1 466 13 is_stmt 1
 1663              		.loc 1 466 30 is_stmt 0
 1664 0988 13850400 		mv	a0,s1
 1665 098c 97000000 		call	_Z17putEmptyToPartialP12kmem_cache_s
 1665      E7800000 
 1666              	.LVL158:
 467:src/kernel/slabAllocator.cpp ****             if(full(cachep->slabs_partial))
 1667              		.loc 1 467 13 is_stmt 1
 1668              		.loc 1 467 20 is_stmt 0
 1669 0994 03B50405 		ld	a0,80(s1)
 1670 0998 97000000 		call	_Z4fullP6slab_s
 1670      E7800000 
 1671              	.LVL159:
 1672              		.loc 1 467 13
 1673 09a0 63080502 		beqz	a0,.L94
 468:src/kernel/slabAllocator.cpp ****                 putPartialToFull(cachep);
GAS LISTING /tmp/ccmqG3lh.s 			page 40


 1674              		.loc 1 468 17 is_stmt 1
 1675              		.loc 1 468 33 is_stmt 0
 1676 09a4 13850400 		mv	a0,s1
 1677 09a8 97000000 		call	_Z16putPartialToFullP12kmem_cache_s
 1677      E7800000 
 1678              	.LVL160:
 469:src/kernel/slabAllocator.cpp ****         }
 470:src/kernel/slabAllocator.cpp ****         return allocatedAddr;
 1679              		.loc 1 470 9 is_stmt 1
 1680              		.loc 1 470 16 is_stmt 0
 1681 09b0 6F000002 		j	.L94
 1682              	.LVL161:
 1683              	.L104:
 1684              	.LBE16:
 1685              	.LBE15:
 1686              	.LBB18:
 456:src/kernel/slabAllocator.cpp ****         if(full(cachep->slabs_partial))
 1687              		.loc 1 456 9 is_stmt 1
 456:src/kernel/slabAllocator.cpp ****         if(full(cachep->slabs_partial))
 1688              		.loc 1 456 45 is_stmt 0
 1689 09b4 97000000 		call	_Z14allocateObjectP6slab_s
 1689      E7800000 
 1690              	.LVL162:
 1691 09bc 13090500 		mv	s2,a0
 1692              	.LVL163:
 457:src/kernel/slabAllocator.cpp ****             putPartialToFull(cachep);
 1693              		.loc 1 457 9 is_stmt 1
 457:src/kernel/slabAllocator.cpp ****             putPartialToFull(cachep);
 1694              		.loc 1 457 16 is_stmt 0
 1695 09c0 03B50405 		ld	a0,80(s1)
 1696              	.LVL164:
 1697 09c4 97000000 		call	_Z4fullP6slab_s
 1697      E7800000 
 1698              	.LVL165:
 457:src/kernel/slabAllocator.cpp ****             putPartialToFull(cachep);
 1699              		.loc 1 457 9
 1700 09cc 63100502 		bnez	a0,.L105
 1701              	.LVL166:
 1702              	.L94:
 1703              	.LBE18:
 1704              	.LBE21:
 471:src/kernel/slabAllocator.cpp ****     }
 472:src/kernel/slabAllocator.cpp ****     else
 473:src/kernel/slabAllocator.cpp ****     {
 474:src/kernel/slabAllocator.cpp ****         allocateSlab(cachep);
 475:src/kernel/slabAllocator.cpp ****         if(cachep->slabs_empty == nullptr)
 476:src/kernel/slabAllocator.cpp ****         {
 477:src/kernel/slabAllocator.cpp ****             cachep->errors|=EXPAND_ERROR;
 478:src/kernel/slabAllocator.cpp ****             return nullptr;
 479:src/kernel/slabAllocator.cpp ****         }
 480:src/kernel/slabAllocator.cpp ****         void* allocatedAddr = allocateObject(cachep->slabs_empty);
 481:src/kernel/slabAllocator.cpp ****         if(!empty(cachep->slabs_empty))
 482:src/kernel/slabAllocator.cpp ****         {
 483:src/kernel/slabAllocator.cpp ****             putEmptyToPartial(cachep);
 484:src/kernel/slabAllocator.cpp ****             if(full(cachep->slabs_partial))
 485:src/kernel/slabAllocator.cpp ****                 putPartialToFull(cachep);
 486:src/kernel/slabAllocator.cpp ****         }
GAS LISTING /tmp/ccmqG3lh.s 			page 41


 487:src/kernel/slabAllocator.cpp ****         return allocatedAddr;
 488:src/kernel/slabAllocator.cpp ****     }
 489:src/kernel/slabAllocator.cpp ****     return nullptr;
 490:src/kernel/slabAllocator.cpp **** }
 1705              		.loc 1 490 1
 1706 09d0 13050900 		mv	a0,s2
 1707 09d4 83308101 		ld	ra,24(sp)
 1708              		.cfi_remember_state
 1709              		.cfi_restore 1
 1710 09d8 03340101 		ld	s0,16(sp)
 1711              		.cfi_restore 8
 1712              		.cfi_def_cfa 2, 32
 1713 09dc 83348100 		ld	s1,8(sp)
 1714              		.cfi_restore 9
 1715              	.LVL167:
 1716 09e0 03390100 		ld	s2,0(sp)
 1717              		.cfi_restore 18
 1718 09e4 13010102 		addi	sp,sp,32
 1719              		.cfi_def_cfa_offset 0
 1720 09e8 67800000 		jr	ra
 1721              	.LVL168:
 1722              	.L105:
 1723              		.cfi_restore_state
 1724              	.LBB22:
 1725              	.LBB19:
 458:src/kernel/slabAllocator.cpp ****         return allocatedAddr;
 1726              		.loc 1 458 13 is_stmt 1
 458:src/kernel/slabAllocator.cpp ****         return allocatedAddr;
 1727              		.loc 1 458 29 is_stmt 0
 1728 09ec 13850400 		mv	a0,s1
 1729 09f0 97000000 		call	_Z16putPartialToFullP12kmem_cache_s
 1729      E7800000 
 1730              	.LVL169:
 459:src/kernel/slabAllocator.cpp ****     }
 1731              		.loc 1 459 9 is_stmt 1
 459:src/kernel/slabAllocator.cpp ****     }
 1732              		.loc 1 459 16 is_stmt 0
 1733 09f8 6FF09FFD 		j	.L94
 1734              	.LVL170:
 1735              	.L98:
 1736              	.LBE19:
 1737              	.LBB20:
 1738              	.LBB17:
 474:src/kernel/slabAllocator.cpp ****         if(cachep->slabs_empty == nullptr)
 1739              		.loc 1 474 9 is_stmt 1
 474:src/kernel/slabAllocator.cpp ****         if(cachep->slabs_empty == nullptr)
 1740              		.loc 1 474 21 is_stmt 0
 1741 09fc 13850400 		mv	a0,s1
 1742 0a00 97000000 		call	_Z12allocateSlabP12kmem_cache_s
 1742      E7800000 
 1743              	.LVL171:
 475:src/kernel/slabAllocator.cpp ****         {
 1744              		.loc 1 475 9 is_stmt 1
 475:src/kernel/slabAllocator.cpp ****         {
 1745              		.loc 1 475 20 is_stmt 0
 1746 0a08 03B90404 		ld	s2,64(s1)
 475:src/kernel/slabAllocator.cpp ****         {
GAS LISTING /tmp/ccmqG3lh.s 			page 42


 1747              		.loc 1 475 9
 1748 0a0c 63080904 		beqz	s2,.L106
 480:src/kernel/slabAllocator.cpp ****         if(!empty(cachep->slabs_empty))
 1749              		.loc 1 480 9 is_stmt 1
 480:src/kernel/slabAllocator.cpp ****         if(!empty(cachep->slabs_empty))
 1750              		.loc 1 480 45 is_stmt 0
 1751 0a10 13050900 		mv	a0,s2
 1752 0a14 97000000 		call	_Z14allocateObjectP6slab_s
 1752      E7800000 
 1753              	.LVL172:
 1754 0a1c 13090500 		mv	s2,a0
 1755              	.LVL173:
 481:src/kernel/slabAllocator.cpp ****         {
 1756              		.loc 1 481 9 is_stmt 1
 481:src/kernel/slabAllocator.cpp ****         {
 1757              		.loc 1 481 18 is_stmt 0
 1758 0a20 03B50404 		ld	a0,64(s1)
 1759              	.LVL174:
 1760 0a24 97000000 		call	_Z5emptyP6slab_s
 1760      E7800000 
 1761              	.LVL175:
 481:src/kernel/slabAllocator.cpp ****         {
 1762              		.loc 1 481 9
 1763 0a2c E31205FA 		bnez	a0,.L94
 483:src/kernel/slabAllocator.cpp ****             if(full(cachep->slabs_partial))
 1764              		.loc 1 483 13 is_stmt 1
 483:src/kernel/slabAllocator.cpp ****             if(full(cachep->slabs_partial))
 1765              		.loc 1 483 30 is_stmt 0
 1766 0a30 13850400 		mv	a0,s1
 1767 0a34 97000000 		call	_Z17putEmptyToPartialP12kmem_cache_s
 1767      E7800000 
 1768              	.LVL176:
 484:src/kernel/slabAllocator.cpp ****                 putPartialToFull(cachep);
 1769              		.loc 1 484 13 is_stmt 1
 484:src/kernel/slabAllocator.cpp ****                 putPartialToFull(cachep);
 1770              		.loc 1 484 20 is_stmt 0
 1771 0a3c 03B50405 		ld	a0,80(s1)
 1772 0a40 97000000 		call	_Z4fullP6slab_s
 1772      E7800000 
 1773              	.LVL177:
 484:src/kernel/slabAllocator.cpp ****                 putPartialToFull(cachep);
 1774              		.loc 1 484 13
 1775 0a48 E30405F8 		beqz	a0,.L94
 485:src/kernel/slabAllocator.cpp ****         }
 1776              		.loc 1 485 17 is_stmt 1
 485:src/kernel/slabAllocator.cpp ****         }
 1777              		.loc 1 485 33 is_stmt 0
 1778 0a4c 13850400 		mv	a0,s1
 1779 0a50 97000000 		call	_Z16putPartialToFullP12kmem_cache_s
 1779      E7800000 
 1780              	.LVL178:
 487:src/kernel/slabAllocator.cpp ****     }
 1781              		.loc 1 487 9 is_stmt 1
 487:src/kernel/slabAllocator.cpp ****     }
 1782              		.loc 1 487 16 is_stmt 0
 1783 0a58 6FF09FF7 		j	.L94
 1784              	.LVL179:
GAS LISTING /tmp/ccmqG3lh.s 			page 43


 1785              	.L106:
 477:src/kernel/slabAllocator.cpp ****             return nullptr;
 1786              		.loc 1 477 13 is_stmt 1
 477:src/kernel/slabAllocator.cpp ****             return nullptr;
 1787              		.loc 1 477 27 is_stmt 0
 1788 0a5c 83A78407 		lw	a5,120(s1)
 1789 0a60 93E71700 		ori	a5,a5,1
 1790 0a64 23ACF406 		sw	a5,120(s1)
 478:src/kernel/slabAllocator.cpp ****         }
 1791              		.loc 1 478 13 is_stmt 1
 478:src/kernel/slabAllocator.cpp ****         }
 1792              		.loc 1 478 20 is_stmt 0
 1793 0a68 6FF09FF6 		j	.L94
 1794              	.L102:
 1795              	.LBE17:
 1796              	.LBE20:
 1797              	.LBE22:
 452:src/kernel/slabAllocator.cpp **** 
 1798              		.loc 1 452 16
 1799 0a6c 13090500 		mv	s2,a0
 1800 0a70 6FF01FF6 		j	.L94
 1801              		.cfi_endproc
 1802              	.LFE33:
 1804              		.align	2
 1805              		.globl	_Z17kmem_cache_createPKcmPFvPvES3_
 1807              	_Z17kmem_cache_createPKcmPFvPvES3_:
 1808              	.LFB32:
 441:src/kernel/slabAllocator.cpp ****     kmem_cache_t* newCache = (kmem_cache_t*)kmem_cache_alloc(&slabAllocator->cacheOfCaches);
 1809              		.loc 1 441 1 is_stmt 1
 1810              		.cfi_startproc
 1811              	.LVL180:
 1812 0a74 130101FC 		addi	sp,sp,-64
 1813              		.cfi_def_cfa_offset 64
 1814 0a78 233C1102 		sd	ra,56(sp)
 1815 0a7c 23388102 		sd	s0,48(sp)
 1816 0a80 23349102 		sd	s1,40(sp)
 1817 0a84 23302103 		sd	s2,32(sp)
 1818 0a88 233C3101 		sd	s3,24(sp)
 1819 0a8c 23384101 		sd	s4,16(sp)
 1820 0a90 23345101 		sd	s5,8(sp)
 1821              		.cfi_offset 1, -8
 1822              		.cfi_offset 8, -16
 1823              		.cfi_offset 9, -24
 1824              		.cfi_offset 18, -32
 1825              		.cfi_offset 19, -40
 1826              		.cfi_offset 20, -48
 1827              		.cfi_offset 21, -56
 1828 0a94 13040104 		addi	s0,sp,64
 1829              		.cfi_def_cfa 8, 0
 1830 0a98 93090500 		mv	s3,a0
 1831 0a9c 13890500 		mv	s2,a1
 1832 0aa0 130A0600 		mv	s4,a2
 1833 0aa4 938A0600 		mv	s5,a3
 442:src/kernel/slabAllocator.cpp ****     if(newCache == nullptr)
 1834              		.loc 1 442 5
 442:src/kernel/slabAllocator.cpp ****     if(newCache == nullptr)
 1835              		.loc 1 442 61 is_stmt 0
GAS LISTING /tmp/ccmqG3lh.s 			page 44


 1836 0aa8 17050000 		ld	a0,.LANCHOR0
 1836      03350500 
 1837              	.LVL181:
 1838 0ab0 13058506 		addi	a0,a0,104
 1839 0ab4 97000000 		call	_Z16kmem_cache_allocP12kmem_cache_s
 1839      E7800000 
 1840              	.LVL182:
 1841 0abc 93040500 		mv	s1,a0
 1842              	.LVL183:
 443:src/kernel/slabAllocator.cpp ****         return nullptr;
 1843              		.loc 1 443 5 is_stmt 1
 1844 0ac0 63080502 		beqz	a0,.L107
 445:src/kernel/slabAllocator.cpp ****     return newCache;
 1845              		.loc 1 445 5
 445:src/kernel/slabAllocator.cpp ****     return newCache;
 1846              		.loc 1 445 15 is_stmt 0
 1847 0ac4 13050900 		mv	a0,s2
 1848 0ac8 97000000 		call	_Z18getOptimalSlabSizem
 1848      E7800000 
 1849              	.LVL184:
 1850 0ad0 13060500 		mv	a2,a0
 1851 0ad4 93870A00 		mv	a5,s5
 1852 0ad8 13070A00 		mv	a4,s4
 1853 0adc 93060900 		mv	a3,s2
 1854 0ae0 93850900 		mv	a1,s3
 1855 0ae4 13850400 		mv	a0,s1
 1856 0ae8 97000000 		call	_Z10init_cacheP12kmem_cache_sPKcmmPFvPvES5_
 1856      E7800000 
 1857              	.LVL185:
 446:src/kernel/slabAllocator.cpp **** }
 1858              		.loc 1 446 5 is_stmt 1
 1859              	.L107:
 447:src/kernel/slabAllocator.cpp **** 
 1860              		.loc 1 447 1 is_stmt 0
 1861 0af0 13850400 		mv	a0,s1
 1862 0af4 83308103 		ld	ra,56(sp)
 1863              		.cfi_restore 1
 1864 0af8 03340103 		ld	s0,48(sp)
 1865              		.cfi_restore 8
 1866              		.cfi_def_cfa 2, 64
 1867 0afc 83348102 		ld	s1,40(sp)
 1868              		.cfi_restore 9
 1869              	.LVL186:
 1870 0b00 03390102 		ld	s2,32(sp)
 1871              		.cfi_restore 18
 1872              	.LVL187:
 1873 0b04 83398101 		ld	s3,24(sp)
 1874              		.cfi_restore 19
 1875              	.LVL188:
 1876 0b08 033A0101 		ld	s4,16(sp)
 1877              		.cfi_restore 20
 1878              	.LVL189:
 1879 0b0c 833A8100 		ld	s5,8(sp)
 1880              		.cfi_restore 21
 1881              	.LVL190:
 1882 0b10 13010104 		addi	sp,sp,64
 1883              		.cfi_def_cfa_offset 0
GAS LISTING /tmp/ccmqG3lh.s 			page 45


 1884 0b14 67800000 		jr	ra
 1885              		.cfi_endproc
 1886              	.LFE32:
 1888              		.section	.rodata.str1.8
 1889 0081 00000000 		.align	3
 1889      000000
 1890              	.LC6:
 1891 0088 43616368 		.string	"Cache of slabs"
 1891      65206F66 
 1891      20736C61 
 1891      627300
 1892              		.text
 1893              		.align	2
 1894              		.globl	_Z9kmem_initPvi
 1896              	_Z9kmem_initPvi:
 1897              	.LFB31:
 432:src/kernel/slabAllocator.cpp ****     buddyAllocator* buddy = buddy_init(space, block_num);
 1898              		.loc 1 432 1 is_stmt 1
 1899              		.cfi_startproc
 1900              	.LVL191:
 1901 0b18 130101FE 		addi	sp,sp,-32
 1902              		.cfi_def_cfa_offset 32
 1903 0b1c 233C1100 		sd	ra,24(sp)
 1904 0b20 23388100 		sd	s0,16(sp)
 1905 0b24 23349100 		sd	s1,8(sp)
 1906              		.cfi_offset 1, -8
 1907              		.cfi_offset 8, -16
 1908              		.cfi_offset 9, -24
 1909 0b28 13040102 		addi	s0,sp,32
 1910              		.cfi_def_cfa 8, 0
 433:src/kernel/slabAllocator.cpp ****     slabAllocator = slab_allocator_init(buddy);
 1911              		.loc 1 433 5
 433:src/kernel/slabAllocator.cpp ****     slabAllocator = slab_allocator_init(buddy);
 1912              		.loc 1 433 39 is_stmt 0
 1913 0b2c 97000000 		call	_Z10buddy_initPvm@plt
 1913      E7800000 
 1914              	.LVL192:
 434:src/kernel/slabAllocator.cpp ****     cacheOfSlabs = kmem_cache_create("Cache of slabs", sizeof(slab_t), nullptr,nullptr);
 1915              		.loc 1 434 5 is_stmt 1
 434:src/kernel/slabAllocator.cpp ****     cacheOfSlabs = kmem_cache_create("Cache of slabs", sizeof(slab_t), nullptr,nullptr);
 1916              		.loc 1 434 40 is_stmt 0
 1917 0b34 97000000 		call	_Z19slab_allocator_initP14buddyAllocator
 1917      E7800000 
 1918              	.LVL193:
 434:src/kernel/slabAllocator.cpp ****     cacheOfSlabs = kmem_cache_create("Cache of slabs", sizeof(slab_t), nullptr,nullptr);
 1919              		.loc 1 434 19
 1920 0b3c 97040000 		lla	s1,.LANCHOR0
 1920      93840400 
 1921 0b44 23B0A400 		sd	a0,0(s1)
 435:src/kernel/slabAllocator.cpp **** }
 1922              		.loc 1 435 5 is_stmt 1
 435:src/kernel/slabAllocator.cpp **** }
 1923              		.loc 1 435 37 is_stmt 0
 1924 0b48 93060000 		li	a3,0
 1925 0b4c 13060000 		li	a2,0
 1926 0b50 93050023 		li	a1,560
 1927 0b54 17050000 		lla	a0,.LC6
GAS LISTING /tmp/ccmqG3lh.s 			page 46


 1927      13050500 
 1928 0b5c 97000000 		call	_Z17kmem_cache_createPKcmPFvPvES3_
 1928      E7800000 
 1929              	.LVL194:
 435:src/kernel/slabAllocator.cpp **** }
 1930              		.loc 1 435 18
 1931 0b64 23B4A400 		sd	a0,8(s1)
 436:src/kernel/slabAllocator.cpp **** 
 1932              		.loc 1 436 1
 1933 0b68 83308101 		ld	ra,24(sp)
 1934              		.cfi_restore 1
 1935 0b6c 03340101 		ld	s0,16(sp)
 1936              		.cfi_restore 8
 1937              		.cfi_def_cfa 2, 32
 1938 0b70 83348100 		ld	s1,8(sp)
 1939              		.cfi_restore 9
 1940 0b74 13010102 		addi	sp,sp,32
 1941              		.cfi_def_cfa_offset 0
 1942 0b78 67800000 		jr	ra
 1943              		.cfi_endproc
 1944              	.LFE31:
 1946              		.align	2
 1947              		.globl	_Z15kmem_cache_freeP12kmem_cache_sPv
 1949              	_Z15kmem_cache_freeP12kmem_cache_sPv:
 1950              	.LFB34:
 491:src/kernel/slabAllocator.cpp **** 
 492:src/kernel/slabAllocator.cpp **** void kmem_cache_free(kmem_cache_t *cachep, void *objp)
 493:src/kernel/slabAllocator.cpp **** {
 1951              		.loc 1 493 1 is_stmt 1
 1952              		.cfi_startproc
 1953              	.LVL195:
 494:src/kernel/slabAllocator.cpp ****     if(cachep == nullptr || objp == nullptr)
 1954              		.loc 1 494 5
 1955 0b7c 63060504 		beqz	a0,.L115
 493:src/kernel/slabAllocator.cpp ****     if(cachep == nullptr || objp == nullptr)
 1956              		.loc 1 493 1 is_stmt 0 discriminator 1
 1957 0b80 130101FE 		addi	sp,sp,-32
 1958              		.cfi_def_cfa_offset 32
 1959 0b84 233C1100 		sd	ra,24(sp)
 1960 0b88 23388100 		sd	s0,16(sp)
 1961 0b8c 23349100 		sd	s1,8(sp)
 1962              		.cfi_offset 1, -8
 1963              		.cfi_offset 8, -16
 1964              		.cfi_offset 9, -24
 1965 0b90 13040102 		addi	s0,sp,32
 1966              		.cfi_def_cfa 8, 0
 1967 0b94 93840500 		mv	s1,a1
 1968              		.loc 1 494 26 discriminator 1
 1969 0b98 638E0500 		beqz	a1,.L112
 495:src/kernel/slabAllocator.cpp ****         return;
 496:src/kernel/slabAllocator.cpp ****     slab_t* slab = findSlab(cachep, objp);
 1970              		.loc 1 496 5 is_stmt 1
 1971              		.loc 1 496 28 is_stmt 0
 1972 0b9c 97000000 		call	_Z8findSlabP12kmem_cache_sPKv
 1972      E7800000 
 1973              	.LVL196:
 497:src/kernel/slabAllocator.cpp ****     if(slab == nullptr) return;
GAS LISTING /tmp/ccmqG3lh.s 			page 47


 1974              		.loc 1 497 5 is_stmt 1
 1975 0ba4 63080500 		beqz	a0,.L112
 498:src/kernel/slabAllocator.cpp **** 
 499:src/kernel/slabAllocator.cpp ****     free_slab_object(slab, objp);
 1976              		.loc 1 499 5
 1977              		.loc 1 499 21 is_stmt 0
 1978 0ba8 93850400 		mv	a1,s1
 1979 0bac 97000000 		call	_Z16free_slab_objectP6slab_sPKv
 1979      E7800000 
 1980              	.LVL197:
 1981              	.L112:
 500:src/kernel/slabAllocator.cpp **** }
 1982              		.loc 1 500 1
 1983 0bb4 83308101 		ld	ra,24(sp)
 1984              		.cfi_restore 1
 1985 0bb8 03340101 		ld	s0,16(sp)
 1986              		.cfi_restore 8
 1987              		.cfi_def_cfa 2, 32
 1988 0bbc 83348100 		ld	s1,8(sp)
 1989              		.cfi_restore 9
 1990              	.LVL198:
 1991 0bc0 13010102 		addi	sp,sp,32
 1992              		.cfi_def_cfa_offset 0
 1993 0bc4 67800000 		jr	ra
 1994              	.LVL199:
 1995              	.L115:
 1996 0bc8 67800000 		ret
 1997              		.cfi_endproc
 1998              	.LFE34:
 2000              		.align	2
 2001              		.globl	_Z15bigCacheKmallocP12kmem_cache_s
 2003              	_Z15bigCacheKmallocP12kmem_cache_s:
 2004              	.LFB29:
 395:src/kernel/slabAllocator.cpp ****     if(cachep == nullptr)
 2005              		.loc 1 395 1 is_stmt 1
 2006              		.cfi_startproc
 2007              	.LVL200:
 2008 0bcc 130101FD 		addi	sp,sp,-48
 2009              		.cfi_def_cfa_offset 48
 2010 0bd0 23341102 		sd	ra,40(sp)
 2011 0bd4 23308102 		sd	s0,32(sp)
 2012 0bd8 233C9100 		sd	s1,24(sp)
 2013 0bdc 23382101 		sd	s2,16(sp)
 2014 0be0 23343101 		sd	s3,8(sp)
 2015              		.cfi_offset 1, -8
 2016              		.cfi_offset 8, -16
 2017              		.cfi_offset 9, -24
 2018              		.cfi_offset 18, -32
 2019              		.cfi_offset 19, -40
 2020 0be4 13040103 		addi	s0,sp,48
 2021              		.cfi_def_cfa 8, 0
 2022 0be8 13090500 		mv	s2,a0
 396:src/kernel/slabAllocator.cpp ****         return nullptr;
 2023              		.loc 1 396 5
 2024 0bec 630A0508 		beqz	a0,.L121
 398:src/kernel/slabAllocator.cpp ****     if(slab == nullptr)
 2025              		.loc 1 398 5
GAS LISTING /tmp/ccmqG3lh.s 			page 48


 398:src/kernel/slabAllocator.cpp ****     if(slab == nullptr)
 2026              		.loc 1 398 45 is_stmt 0
 2027 0bf0 17050000 		ld	a0,.LANCHOR0+8
 2027      03350500 
 2028              	.LVL201:
 2029 0bf8 97000000 		call	_Z16kmem_cache_allocP12kmem_cache_s
 2029      E7800000 
 2030              	.LVL202:
 2031 0c00 93040500 		mv	s1,a0
 2032              	.LVL203:
 399:src/kernel/slabAllocator.cpp ****     {
 2033              		.loc 1 399 5 is_stmt 1
 2034 0c04 63020508 		beqz	a0,.L122
 403:src/kernel/slabAllocator.cpp ****     slab->numOfObjects = 1;
 2035              		.loc 1 403 5
 403:src/kernel/slabAllocator.cpp ****     slab->numOfObjects = 1;
 2036              		.loc 1 403 17 is_stmt 0
 2037 0c08 23382501 		sd	s2,16(a0)
 404:src/kernel/slabAllocator.cpp ****     slab->numOfAllocatedObjects = 1;
 2038              		.loc 1 404 5 is_stmt 1
 404:src/kernel/slabAllocator.cpp ****     slab->numOfAllocatedObjects = 1;
 2039              		.loc 1 404 24 is_stmt 0
 2040 0c0c 93071000 		li	a5,1
 2041 0c10 233CF500 		sd	a5,24(a0)
 405:src/kernel/slabAllocator.cpp ****     slab->allocated[0] = 0;
 2042              		.loc 1 405 5 is_stmt 1
 405:src/kernel/slabAllocator.cpp ****     slab->allocated[0] = 0;
 2043              		.loc 1 405 33 is_stmt 0
 2044 0c14 2330F502 		sd	a5,32(a0)
 406:src/kernel/slabAllocator.cpp ****     void* addr = buddy_alloc(cachep->obj_size / BLOCK_SIZE);
 2045              		.loc 1 406 5 is_stmt 1
 406:src/kernel/slabAllocator.cpp ****     void* addr = buddy_alloc(cachep->obj_size / BLOCK_SIZE);
 2046              		.loc 1 406 24 is_stmt 0
 2047 0c18 23080502 		sb	zero,48(a0)
 407:src/kernel/slabAllocator.cpp ****     if(addr == nullptr)
 2048              		.loc 1 407 5 is_stmt 1
 407:src/kernel/slabAllocator.cpp ****     if(addr == nullptr)
 2049              		.loc 1 407 38 is_stmt 0
 2050 0c1c 03350906 		ld	a0,96(s2)
 407:src/kernel/slabAllocator.cpp ****     if(addr == nullptr)
 2051              		.loc 1 407 29
 2052 0c20 1355C500 		srli	a0,a0,12
 2053 0c24 97000000 		call	_Z11buddy_allocm@plt
 2053      E7800000 
 2054              	.LVL204:
 2055 0c2c 93090500 		mv	s3,a0
 2056              	.LVL205:
 408:src/kernel/slabAllocator.cpp ****     {
 2057              		.loc 1 408 5 is_stmt 1
 2058 0c30 630C0502 		beqz	a0,.L124
 413:src/kernel/slabAllocator.cpp ****     insertIntoSlabList(slab, &cachep->slabs_full);
 2059              		.loc 1 413 5
 413:src/kernel/slabAllocator.cpp ****     insertIntoSlabList(slab, &cachep->slabs_full);
 2060              		.loc 1 413 21 is_stmt 0
 2061 0c34 23B4A402 		sd	a0,40(s1)
 414:src/kernel/slabAllocator.cpp ****     return addr;
 2062              		.loc 1 414 5 is_stmt 1
GAS LISTING /tmp/ccmqG3lh.s 			page 49


 414:src/kernel/slabAllocator.cpp ****     return addr;
 2063              		.loc 1 414 23 is_stmt 0
 2064 0c38 93058904 		addi	a1,s2,72
 2065 0c3c 13850400 		mv	a0,s1
 2066              	.LVL206:
 2067 0c40 97000000 		call	_Z18insertIntoSlabListP6slab_sPS0_
 2067      E7800000 
 2068              	.LVL207:
 415:src/kernel/slabAllocator.cpp **** }
 2069              		.loc 1 415 5 is_stmt 1
 2070              	.L118:
 416:src/kernel/slabAllocator.cpp **** 
 2071              		.loc 1 416 1 is_stmt 0
 2072 0c48 13850900 		mv	a0,s3
 2073 0c4c 83308102 		ld	ra,40(sp)
 2074              		.cfi_remember_state
 2075              		.cfi_restore 1
 2076 0c50 03340102 		ld	s0,32(sp)
 2077              		.cfi_restore 8
 2078              		.cfi_def_cfa 2, 48
 2079 0c54 83348101 		ld	s1,24(sp)
 2080              		.cfi_restore 9
 2081 0c58 03390101 		ld	s2,16(sp)
 2082              		.cfi_restore 18
 2083              	.LVL208:
 2084 0c5c 83398100 		ld	s3,8(sp)
 2085              		.cfi_restore 19
 2086 0c60 13010103 		addi	sp,sp,48
 2087              		.cfi_def_cfa_offset 0
 2088 0c64 67800000 		jr	ra
 2089              	.LVL209:
 2090              	.L124:
 2091              		.cfi_restore_state
 410:src/kernel/slabAllocator.cpp ****         return nullptr;
 2092              		.loc 1 410 9 is_stmt 1
 410:src/kernel/slabAllocator.cpp ****         return nullptr;
 2093              		.loc 1 410 24 is_stmt 0
 2094 0c68 93850400 		mv	a1,s1
 2095 0c6c 17050000 		ld	a0,.LANCHOR0+8
 2095      03350500 
 2096              	.LVL210:
 2097 0c74 97000000 		call	_Z15kmem_cache_freeP12kmem_cache_sPv
 2097      E7800000 
 2098              	.LVL211:
 411:src/kernel/slabAllocator.cpp ****     }
 2099              		.loc 1 411 9 is_stmt 1
 411:src/kernel/slabAllocator.cpp ****     }
 2100              		.loc 1 411 16 is_stmt 0
 2101 0c7c 6FF0DFFC 		j	.L118
 2102              	.LVL212:
 2103              	.L121:
 397:src/kernel/slabAllocator.cpp ****     slab_t* slab = (slab_t*)kmem_cache_alloc(cacheOfSlabs);
 2104              		.loc 1 397 16
 2105 0c80 93090500 		mv	s3,a0
 2106 0c84 6FF05FFC 		j	.L118
 2107              	.LVL213:
 2108              	.L122:
GAS LISTING /tmp/ccmqG3lh.s 			page 50


 401:src/kernel/slabAllocator.cpp ****     }
 2109              		.loc 1 401 16
 2110 0c88 93090500 		mv	s3,a0
 2111 0c8c 6FF0DFFB 		j	.L118
 2112              		.cfi_endproc
 2113              	.LFE29:
 2115              		.align	2
 2116              		.globl	_Z9big_kfreeP6slab_sPKv
 2118              	_Z9big_kfreeP6slab_sPKv:
 2119              	.LFB30:
 419:src/kernel/slabAllocator.cpp ****     if(slab == nullptr || objp == nullptr)
 2120              		.loc 1 419 1 is_stmt 1
 2121              		.cfi_startproc
 2122              	.LVL214:
 2123 0c90 130101FE 		addi	sp,sp,-32
 2124              		.cfi_def_cfa_offset 32
 2125 0c94 233C1100 		sd	ra,24(sp)
 2126 0c98 23388100 		sd	s0,16(sp)
 2127 0c9c 23349100 		sd	s1,8(sp)
 2128 0ca0 23302101 		sd	s2,0(sp)
 2129              		.cfi_offset 1, -8
 2130              		.cfi_offset 8, -16
 2131              		.cfi_offset 9, -24
 2132              		.cfi_offset 18, -32
 2133 0ca4 13040102 		addi	s0,sp,32
 2134              		.cfi_def_cfa 8, 0
 2135 0ca8 93040500 		mv	s1,a0
 420:src/kernel/slabAllocator.cpp ****         return;
 2136              		.loc 1 420 5
 2137 0cac 630C0504 		beqz	a0,.L125
 2138 0cb0 13850500 		mv	a0,a1
 2139              	.LVL215:
 420:src/kernel/slabAllocator.cpp ****         return;
 2140              		.loc 1 420 24 is_stmt 0 discriminator 1
 2141 0cb4 63880504 		beqz	a1,.L125
 422:src/kernel/slabAllocator.cpp ****     buddy_free((void*)objp, cachep->obj_size / BLOCK_SIZE);
 2142              		.loc 1 422 5 is_stmt 1
 422:src/kernel/slabAllocator.cpp ****     buddy_free((void*)objp, cachep->obj_size / BLOCK_SIZE);
 2143              		.loc 1 422 19 is_stmt 0
 2144 0cb8 03B90401 		ld	s2,16(s1)
 2145              	.LVL216:
 423:src/kernel/slabAllocator.cpp ****     removeFullSlab(cachep, slab);
 2146              		.loc 1 423 5 is_stmt 1
 423:src/kernel/slabAllocator.cpp ****     removeFullSlab(cachep, slab);
 2147              		.loc 1 423 37 is_stmt 0
 2148 0cbc 83350906 		ld	a1,96(s2)
 2149              	.LVL217:
 423:src/kernel/slabAllocator.cpp ****     removeFullSlab(cachep, slab);
 2150              		.loc 1 423 15
 2151 0cc0 93D5C500 		srli	a1,a1,12
 2152 0cc4 97000000 		call	_Z10buddy_freePvm@plt
 2152      E7800000 
 2153              	.LVL218:
 424:src/kernel/slabAllocator.cpp ****     removePartialSlab(cachep, slab);
 2154              		.loc 1 424 5 is_stmt 1
 424:src/kernel/slabAllocator.cpp ****     removePartialSlab(cachep, slab);
 2155              		.loc 1 424 19 is_stmt 0
GAS LISTING /tmp/ccmqG3lh.s 			page 51


 2156 0ccc 93850400 		mv	a1,s1
 2157 0cd0 13050900 		mv	a0,s2
 2158 0cd4 97000000 		call	_Z14removeFullSlabP12kmem_cache_sP6slab_s
 2158      E7800000 
 2159              	.LVL219:
 425:src/kernel/slabAllocator.cpp ****     cachep->slabs_empty = nullptr;
 2160              		.loc 1 425 5 is_stmt 1
 425:src/kernel/slabAllocator.cpp ****     cachep->slabs_empty = nullptr;
 2161              		.loc 1 425 22 is_stmt 0
 2162 0cdc 93850400 		mv	a1,s1
 2163 0ce0 13050900 		mv	a0,s2
 2164 0ce4 97000000 		call	_Z17removePartialSlabP12kmem_cache_sP6slab_s
 2164      E7800000 
 2165              	.LVL220:
 426:src/kernel/slabAllocator.cpp ****     kmem_cache_free(cacheOfSlabs, slab);
 2166              		.loc 1 426 5 is_stmt 1
 426:src/kernel/slabAllocator.cpp ****     kmem_cache_free(cacheOfSlabs, slab);
 2167              		.loc 1 426 25 is_stmt 0
 2168 0cec 23300904 		sd	zero,64(s2)
 427:src/kernel/slabAllocator.cpp **** }
 2169              		.loc 1 427 5 is_stmt 1
 427:src/kernel/slabAllocator.cpp **** }
 2170              		.loc 1 427 20 is_stmt 0
 2171 0cf0 93850400 		mv	a1,s1
 2172 0cf4 17050000 		ld	a0,.LANCHOR0+8
 2172      03350500 
 2173 0cfc 97000000 		call	_Z15kmem_cache_freeP12kmem_cache_sPv
 2173      E7800000 
 2174              	.LVL221:
 2175              	.L125:
 428:src/kernel/slabAllocator.cpp **** 
 2176              		.loc 1 428 1
 2177 0d04 83308101 		ld	ra,24(sp)
 2178              		.cfi_restore 1
 2179 0d08 03340101 		ld	s0,16(sp)
 2180              		.cfi_restore 8
 2181              		.cfi_def_cfa 2, 32
 2182 0d0c 83348100 		ld	s1,8(sp)
 2183              		.cfi_restore 9
 2184              	.LVL222:
 2185 0d10 03390100 		ld	s2,0(sp)
 2186              		.cfi_restore 18
 2187 0d14 13010102 		addi	sp,sp,32
 2188              		.cfi_def_cfa_offset 0
 2189 0d18 67800000 		jr	ra
 2190              		.cfi_endproc
 2191              	.LFE30:
 2193              		.section	.rodata.str1.8
 2194 0097 00       		.align	3
 2195              	.LC7:
 2196 0098 0A0A0A0A 		.string	"\n\n\n\n\n"
 2196      0A00
 2197 009e 0000     		.align	3
 2198              	.LC8:
 2199 00a0 4B6D656D 		.string	"Kmem Cache Info-------------------------------------\n"
 2199      20436163 
 2199      68652049 
GAS LISTING /tmp/ccmqG3lh.s 			page 52


 2199      6E666F2D 
 2199      2D2D2D2D 
 2200 00d6 0000     		.align	3
 2201              	.LC9:
 2202 00d8 43616368 		.string	"Cache Name "
 2202      65204E61 
 2202      6D652000 
 2203 00e4 00000000 		.align	3
 2204              	.LC10:
 2205 00e8 0A00     		.string	"\n"
 2206 00ea 00000000 		.align	3
 2206      0000
 2207              	.LC11:
 2208 00f0 43616368 		.string	"Cache slab size in blocks "
 2208      6520736C 
 2208      61622073 
 2208      697A6520 
 2208      696E2062 
 2209 010b 00000000 		.align	3
 2209      00
 2210              	.LC12:
 2211 0110 43616368 		.string	"Cache obj size in bytes "
 2211      65206F62 
 2211      6A207369 
 2211      7A652069 
 2211      6E206279 
 2212 0129 00000000 		.align	3
 2212      000000
 2213              	.LC13:
 2214 0130 536C6162 		.string	"Slabs info-------------------\n"
 2214      7320696E 
 2214      666F2D2D 
 2214      2D2D2D2D 
 2214      2D2D2D2D 
 2215 014f 00       		.align	3
 2216              	.LC14:
 2217 0150 46756C6C 		.string	"Full slabs\n"
 2217      20736C61 
 2217      62730A00 
 2218 015c 00000000 		.align	3
 2219              	.LC15:
 2220 0160 50617274 		.string	"Partial slabs\n"
 2220      69616C20 
 2220      736C6162 
 2220      730A00
 2221 016f 00       		.align	3
 2222              	.LC16:
 2223 0170 456D7074 		.string	"Empty slabs\n"
 2223      7920736C 
 2223      6162730A 
 2223      00
 2224              		.text
 2225              		.align	2
 2226              		.globl	_Z15kmem_cache_infoP12kmem_cache_s
 2228              	_Z15kmem_cache_infoP12kmem_cache_s:
 2229              	.LFB35:
 501:src/kernel/slabAllocator.cpp **** 
GAS LISTING /tmp/ccmqG3lh.s 			page 53


 502:src/kernel/slabAllocator.cpp **** //TODO what needs to be printed
 503:src/kernel/slabAllocator.cpp **** void kmem_cache_info(kmem_cache_t *cachep)
 504:src/kernel/slabAllocator.cpp **** {
 2230              		.loc 1 504 1 is_stmt 1
 2231              		.cfi_startproc
 2232              	.LVL223:
 505:src/kernel/slabAllocator.cpp ****     if(cachep == nullptr)
 2233              		.loc 1 505 5
 2234 0d1c 630C0514 		beqz	a0,.L137
 504:src/kernel/slabAllocator.cpp ****     if(cachep == nullptr)
 2235              		.loc 1 504 1 is_stmt 0
 2236 0d20 130101FE 		addi	sp,sp,-32
 2237              		.cfi_def_cfa_offset 32
 2238 0d24 233C1100 		sd	ra,24(sp)
 2239 0d28 23388100 		sd	s0,16(sp)
 2240 0d2c 23349100 		sd	s1,8(sp)
 2241 0d30 23302101 		sd	s2,0(sp)
 2242              		.cfi_offset 1, -8
 2243              		.cfi_offset 8, -16
 2244              		.cfi_offset 9, -24
 2245              		.cfi_offset 18, -32
 2246 0d34 13040102 		addi	s0,sp,32
 2247              		.cfi_def_cfa 8, 0
 2248 0d38 13090500 		mv	s2,a0
 506:src/kernel/slabAllocator.cpp ****         return;
 507:src/kernel/slabAllocator.cpp ****     KConsole::trapPrintString("\n\n\n\n\n");
 2249              		.loc 1 507 5 is_stmt 1
 2250              		.loc 1 507 30 is_stmt 0
 2251 0d3c 17050000 		lla	a0,.LC7
 2251      13050500 
 2252              	.LVL224:
 2253 0d44 97000000 		call	_ZN8KConsole15trapPrintStringEPKc@plt
 2253      E7800000 
 2254              	.LVL225:
 508:src/kernel/slabAllocator.cpp ****     KConsole::trapPrintString("Kmem Cache Info-------------------------------------\n");
 2255              		.loc 1 508 5 is_stmt 1
 2256              		.loc 1 508 30 is_stmt 0
 2257 0d4c 17050000 		lla	a0,.LC8
 2257      13050500 
 2258 0d54 97000000 		call	_ZN8KConsole15trapPrintStringEPKc@plt
 2258      E7800000 
 2259              	.LVL226:
 509:src/kernel/slabAllocator.cpp ****     KConsole::trapPrintString("Cache Name ");
 2260              		.loc 1 509 5 is_stmt 1
 2261              		.loc 1 509 30 is_stmt 0
 2262 0d5c 17050000 		lla	a0,.LC9
 2262      13050500 
 2263 0d64 97000000 		call	_ZN8KConsole15trapPrintStringEPKc@plt
 2263      E7800000 
 2264              	.LVL227:
 510:src/kernel/slabAllocator.cpp ****     KConsole::trapPrintString(cachep->cacheName); KConsole::trapPrintString("\n");
 2265              		.loc 1 510 5 is_stmt 1
 2266              		.loc 1 510 30 is_stmt 0
 2267 0d6c 13050900 		mv	a0,s2
 2268 0d70 97000000 		call	_ZN8KConsole15trapPrintStringEPKc@plt
 2268      E7800000 
 2269              	.LVL228:
GAS LISTING /tmp/ccmqG3lh.s 			page 54


 2270              		.loc 1 510 51 is_stmt 1
 2271              		.loc 1 510 76 is_stmt 0
 2272 0d78 17050000 		lla	a0,.LC10
 2272      13050500 
 2273 0d80 97000000 		call	_ZN8KConsole15trapPrintStringEPKc@plt
 2273      E7800000 
 2274              	.LVL229:
 511:src/kernel/slabAllocator.cpp ****     KConsole::trapPrintStringInt("Cache slab size in blocks ", cachep->slab_size);
 2275              		.loc 1 511 5 is_stmt 1
 2276              		.loc 1 511 33 is_stmt 0
 2277 0d88 1306A000 		li	a2,10
 2278 0d8c 83358905 		ld	a1,88(s2)
 2279 0d90 17050000 		lla	a0,.LC11
 2279      13050500 
 2280 0d98 97000000 		call	_ZN8KConsole18trapPrintStringIntEPKcmi@plt
 2280      E7800000 
 2281              	.LVL230:
 512:src/kernel/slabAllocator.cpp ****     KConsole::trapPrintStringInt("Cache obj size in bytes ", cachep->obj_size);
 2282              		.loc 1 512 5 is_stmt 1
 2283              		.loc 1 512 33 is_stmt 0
 2284 0da0 1306A000 		li	a2,10
 2285 0da4 83350906 		ld	a1,96(s2)
 2286 0da8 17050000 		lla	a0,.LC12
 2286      13050500 
 2287 0db0 97000000 		call	_ZN8KConsole18trapPrintStringIntEPKcmi@plt
 2287      E7800000 
 2288              	.LVL231:
 513:src/kernel/slabAllocator.cpp ****     
 514:src/kernel/slabAllocator.cpp ****     KConsole::trapPrintString("Slabs info-------------------\n");
 2289              		.loc 1 514 5 is_stmt 1
 2290              		.loc 1 514 30 is_stmt 0
 2291 0db8 17050000 		lla	a0,.LC13
 2291      13050500 
 2292 0dc0 97000000 		call	_ZN8KConsole15trapPrintStringEPKc@plt
 2292      E7800000 
 2293              	.LVL232:
 515:src/kernel/slabAllocator.cpp **** 
 516:src/kernel/slabAllocator.cpp ****     KConsole::trapPrintString("Full slabs\n");
 2294              		.loc 1 516 5 is_stmt 1
 2295              		.loc 1 516 30 is_stmt 0
 2296 0dc8 17050000 		lla	a0,.LC14
 2296      13050500 
 2297 0dd0 97000000 		call	_ZN8KConsole15trapPrintStringEPKc@plt
 2297      E7800000 
 2298              	.LVL233:
 517:src/kernel/slabAllocator.cpp ****     slab_t* slab = cachep->slabs_full;
 2299              		.loc 1 517 5 is_stmt 1
 2300              		.loc 1 517 13 is_stmt 0
 2301 0dd8 83348904 		ld	s1,72(s2)
 2302              	.LVL234:
 2303              	.L131:
 518:src/kernel/slabAllocator.cpp ****     while(slab != nullptr)
 2304              		.loc 1 518 5 is_stmt 1
 2305              		.loc 1 518 16
 2306 0ddc 638C0400 		beqz	s1,.L130
 519:src/kernel/slabAllocator.cpp ****     {
 520:src/kernel/slabAllocator.cpp ****         printSlabInfo(slab);
GAS LISTING /tmp/ccmqG3lh.s 			page 55


 2307              		.loc 1 520 9
 2308              		.loc 1 520 22 is_stmt 0
 2309 0de0 13850400 		mv	a0,s1
 2310 0de4 97000000 		call	_Z13printSlabInfoP6slab_s
 2310      E7800000 
 2311              	.LVL235:
 521:src/kernel/slabAllocator.cpp ****         slab = slab->next;
 2312              		.loc 1 521 9 is_stmt 1
 2313              		.loc 1 521 14 is_stmt 0
 2314 0dec 83B48400 		ld	s1,8(s1)
 2315              	.LVL236:
 518:src/kernel/slabAllocator.cpp ****     while(slab != nullptr)
 2316              		.loc 1 518 5
 2317 0df0 6FF0DFFE 		j	.L131
 2318              	.L130:
 522:src/kernel/slabAllocator.cpp ****     }
 523:src/kernel/slabAllocator.cpp **** 
 524:src/kernel/slabAllocator.cpp ****     KConsole::trapPrintString("Partial slabs\n");
 2319              		.loc 1 524 5 is_stmt 1
 2320              		.loc 1 524 30 is_stmt 0
 2321 0df4 17050000 		lla	a0,.LC15
 2321      13050500 
 2322 0dfc 97000000 		call	_ZN8KConsole15trapPrintStringEPKc@plt
 2322      E7800000 
 2323              	.LVL237:
 525:src/kernel/slabAllocator.cpp ****     slab = cachep->slabs_partial;
 2324              		.loc 1 525 5 is_stmt 1
 2325              		.loc 1 525 10 is_stmt 0
 2326 0e04 83340905 		ld	s1,80(s2)
 2327              	.LVL238:
 2328              	.L133:
 526:src/kernel/slabAllocator.cpp ****     while(slab != nullptr)
 2329              		.loc 1 526 5 is_stmt 1
 2330              		.loc 1 526 16
 2331 0e08 638C0400 		beqz	s1,.L132
 527:src/kernel/slabAllocator.cpp ****     {
 528:src/kernel/slabAllocator.cpp ****         printSlabInfo(slab);
 2332              		.loc 1 528 9
 2333              		.loc 1 528 22 is_stmt 0
 2334 0e0c 13850400 		mv	a0,s1
 2335 0e10 97000000 		call	_Z13printSlabInfoP6slab_s
 2335      E7800000 
 2336              	.LVL239:
 529:src/kernel/slabAllocator.cpp ****         slab = slab->next;
 2337              		.loc 1 529 9 is_stmt 1
 2338              		.loc 1 529 14 is_stmt 0
 2339 0e18 83B48400 		ld	s1,8(s1)
 2340              	.LVL240:
 526:src/kernel/slabAllocator.cpp ****     while(slab != nullptr)
 2341              		.loc 1 526 5
 2342 0e1c 6FF0DFFE 		j	.L133
 2343              	.L132:
 530:src/kernel/slabAllocator.cpp ****     }
 531:src/kernel/slabAllocator.cpp **** 
 532:src/kernel/slabAllocator.cpp ****     KConsole::trapPrintString("Empty slabs\n");
 2344              		.loc 1 532 5 is_stmt 1
 2345              		.loc 1 532 30 is_stmt 0
GAS LISTING /tmp/ccmqG3lh.s 			page 56


 2346 0e20 17050000 		lla	a0,.LC16
 2346      13050500 
 2347 0e28 97000000 		call	_ZN8KConsole15trapPrintStringEPKc@plt
 2347      E7800000 
 2348              	.LVL241:
 533:src/kernel/slabAllocator.cpp ****     slab = cachep->slabs_empty;
 2349              		.loc 1 533 5 is_stmt 1
 2350              		.loc 1 533 10 is_stmt 0
 2351 0e30 83340904 		ld	s1,64(s2)
 2352              	.LVL242:
 2353              	.L135:
 534:src/kernel/slabAllocator.cpp ****     while(slab != nullptr)
 2354              		.loc 1 534 5 is_stmt 1
 2355              		.loc 1 534 16
 2356 0e34 638C0400 		beqz	s1,.L134
 535:src/kernel/slabAllocator.cpp ****     {
 536:src/kernel/slabAllocator.cpp ****         printSlabInfo(slab);
 2357              		.loc 1 536 9
 2358              		.loc 1 536 22 is_stmt 0
 2359 0e38 13850400 		mv	a0,s1
 2360 0e3c 97000000 		call	_Z13printSlabInfoP6slab_s
 2360      E7800000 
 2361              	.LVL243:
 537:src/kernel/slabAllocator.cpp ****         slab = slab->next;
 2362              		.loc 1 537 9 is_stmt 1
 2363              		.loc 1 537 14 is_stmt 0
 2364 0e44 83B48400 		ld	s1,8(s1)
 2365              	.LVL244:
 534:src/kernel/slabAllocator.cpp ****     while(slab != nullptr)
 2366              		.loc 1 534 5
 2367 0e48 6FF0DFFE 		j	.L135
 2368              	.L134:
 538:src/kernel/slabAllocator.cpp ****     }
 539:src/kernel/slabAllocator.cpp **** 
 540:src/kernel/slabAllocator.cpp ****     KConsole::trapPrintString("\n\n\n\n\n");
 2369              		.loc 1 540 5 is_stmt 1
 2370              		.loc 1 540 30 is_stmt 0
 2371 0e4c 17050000 		lla	a0,.LC7
 2371      13050500 
 2372 0e54 97000000 		call	_ZN8KConsole15trapPrintStringEPKc@plt
 2372      E7800000 
 2373              	.LVL245:
 541:src/kernel/slabAllocator.cpp **** }
 2374              		.loc 1 541 1
 2375 0e5c 83308101 		ld	ra,24(sp)
 2376              		.cfi_restore 1
 2377 0e60 03340101 		ld	s0,16(sp)
 2378              		.cfi_restore 8
 2379              		.cfi_def_cfa 2, 32
 2380 0e64 83348100 		ld	s1,8(sp)
 2381              		.cfi_restore 9
 2382              	.LVL246:
 2383 0e68 03390100 		ld	s2,0(sp)
 2384              		.cfi_restore 18
 2385              	.LVL247:
 2386 0e6c 13010102 		addi	sp,sp,32
 2387              		.cfi_def_cfa_offset 0
GAS LISTING /tmp/ccmqG3lh.s 			page 57


 2388 0e70 67800000 		jr	ra
 2389              	.LVL248:
 2390              	.L137:
 2391 0e74 67800000 		ret
 2392              		.cfi_endproc
 2393              	.LFE35:
 2395              		.section	.rodata.str1.8
 2396 017d 000000   		.align	3
 2397              	.LC17:
 2398 0180 0A0A0A0A 		.string	"\n\n\n\n\n\n\n\n\n"
 2398      0A0A0A0A 
 2398      0A00
 2399 018a 00000000 		.align	3
 2399      0000
 2400              	.LC18:
 2401 0190 536C6162 		.string	"Slab allocator info----------------------------------------------------------\n"
 2401      20616C6C 
 2401      6F636174 
 2401      6F722069 
 2401      6E666F2D 
 2402 01df 00       		.align	3
 2403              	.LC19:
 2404 01e0 536C6162 		.string	"Slab allocator address "
 2404      20616C6C 
 2404      6F636174 
 2404      6F722061 
 2404      64647265 
 2405              		.align	3
 2406              	.LC20:
 2407 01f8 43616368 		.string	"Cache of caches info\n"
 2407      65206F66 
 2407      20636163 
 2407      68657320 
 2407      696E666F 
 2408 020e 0000     		.align	3
 2409              	.LC21:
 2410 0210 43616368 		.string	"Caches for buffers\n"
 2410      65732066 
 2410      6F722062 
 2410      75666665 
 2410      72730A00 
 2411              		.text
 2412              		.align	2
 2413              		.globl	_Z22printSlabAllocatorInfov
 2415              	_Z22printSlabAllocatorInfov:
 2416              	.LFB26:
 343:src/kernel/slabAllocator.cpp ****     KConsole::trapPrintString("\n\n\n\n\n\n\n\n\n");
 2417              		.loc 1 343 1 is_stmt 1
 2418              		.cfi_startproc
 2419 0e78 130101FE 		addi	sp,sp,-32
 2420              		.cfi_def_cfa_offset 32
 2421 0e7c 233C1100 		sd	ra,24(sp)
 2422 0e80 23388100 		sd	s0,16(sp)
 2423 0e84 23349100 		sd	s1,8(sp)
 2424              		.cfi_offset 1, -8
 2425              		.cfi_offset 8, -16
 2426              		.cfi_offset 9, -24
GAS LISTING /tmp/ccmqG3lh.s 			page 58


 2427 0e88 13040102 		addi	s0,sp,32
 2428              		.cfi_def_cfa 8, 0
 344:src/kernel/slabAllocator.cpp ****     KConsole::trapPrintString("Slab allocator info-------------------------------------------------
 2429              		.loc 1 344 5
 344:src/kernel/slabAllocator.cpp ****     KConsole::trapPrintString("Slab allocator info-------------------------------------------------
 2430              		.loc 1 344 30 is_stmt 0
 2431 0e8c 17050000 		lla	a0,.LC17
 2431      13050500 
 2432 0e94 97000000 		call	_ZN8KConsole15trapPrintStringEPKc@plt
 2432      E7800000 
 2433              	.LVL249:
 345:src/kernel/slabAllocator.cpp ****     KConsole::trapPrintStringInt("Slab allocator address ", (size_t)slabAllocator, 16);
 2434              		.loc 1 345 5 is_stmt 1
 345:src/kernel/slabAllocator.cpp ****     KConsole::trapPrintStringInt("Slab allocator address ", (size_t)slabAllocator, 16);
 2435              		.loc 1 345 30 is_stmt 0
 2436 0e9c 17050000 		lla	a0,.LC18
 2436      13050500 
 2437 0ea4 97000000 		call	_ZN8KConsole15trapPrintStringEPKc@plt
 2437      E7800000 
 2438              	.LVL250:
 346:src/kernel/slabAllocator.cpp ****     KConsole::trapPrintString("Cache of caches info\n");
 2439              		.loc 1 346 5 is_stmt 1
 346:src/kernel/slabAllocator.cpp ****     KConsole::trapPrintString("Cache of caches info\n");
 2440              		.loc 1 346 33 is_stmt 0
 2441 0eac 97040000 		lla	s1,.LANCHOR0
 2441      93840400 
 2442 0eb4 13060001 		li	a2,16
 2443 0eb8 83B50400 		ld	a1,0(s1)
 2444 0ebc 17050000 		lla	a0,.LC19
 2444      13050500 
 2445 0ec4 97000000 		call	_ZN8KConsole18trapPrintStringIntEPKcmi@plt
 2445      E7800000 
 2446              	.LVL251:
 347:src/kernel/slabAllocator.cpp ****     kmem_cache_info(&slabAllocator->cacheOfCaches);
 2447              		.loc 1 347 5 is_stmt 1
 347:src/kernel/slabAllocator.cpp ****     kmem_cache_info(&slabAllocator->cacheOfCaches);
 2448              		.loc 1 347 30 is_stmt 0
 2449 0ecc 17050000 		lla	a0,.LC20
 2449      13050500 
 2450 0ed4 97000000 		call	_ZN8KConsole15trapPrintStringEPKc@plt
 2450      E7800000 
 2451              	.LVL252:
 348:src/kernel/slabAllocator.cpp ****     KConsole::trapPrintString("Caches for buffers\n");
 2452              		.loc 1 348 5 is_stmt 1
 348:src/kernel/slabAllocator.cpp ****     KConsole::trapPrintString("Caches for buffers\n");
 2453              		.loc 1 348 37 is_stmt 0
 2454 0edc 03B50400 		ld	a0,0(s1)
 348:src/kernel/slabAllocator.cpp ****     KConsole::trapPrintString("Caches for buffers\n");
 2455              		.loc 1 348 20
 2456 0ee0 13058506 		addi	a0,a0,104
 2457 0ee4 97000000 		call	_Z15kmem_cache_infoP12kmem_cache_s
 2457      E7800000 
 2458              	.LVL253:
 349:src/kernel/slabAllocator.cpp ****     for(size_t i = 0;i < CACHE_BUFFER_SIZE;i++)
 2459              		.loc 1 349 5 is_stmt 1
 349:src/kernel/slabAllocator.cpp ****     for(size_t i = 0;i < CACHE_BUFFER_SIZE;i++)
 2460              		.loc 1 349 30 is_stmt 0
GAS LISTING /tmp/ccmqG3lh.s 			page 59


 2461 0eec 17050000 		lla	a0,.LC21
 2461      13050500 
 2462 0ef4 97000000 		call	_ZN8KConsole15trapPrintStringEPKc@plt
 2462      E7800000 
 2463              	.LVL254:
 350:src/kernel/slabAllocator.cpp ****     {
 2464              		.loc 1 350 5 is_stmt 1
 2465              	.LBB23:
 350:src/kernel/slabAllocator.cpp ****     {
 2466              		.loc 1 350 16 is_stmt 0
 2467 0efc 93040000 		li	s1,0
 2468 0f00 6F000001 		j	.L143
 2469              	.LVL255:
 2470              	.L145:
 354:src/kernel/slabAllocator.cpp ****         }
 2471              		.loc 1 354 13 is_stmt 1
 354:src/kernel/slabAllocator.cpp ****         }
 2472              		.loc 1 354 28 is_stmt 0
 2473 0f04 97000000 		call	_Z15kmem_cache_infoP12kmem_cache_s
 2473      E7800000 
 2474              	.LVL256:
 2475              	.L142:
 350:src/kernel/slabAllocator.cpp ****     {
 2476              		.loc 1 350 5 is_stmt 1 discriminator 2
 2477 0f0c 93841400 		addi	s1,s1,1
 2478              	.LVL257:
 2479              	.L143:
 350:src/kernel/slabAllocator.cpp ****     {
 2480              		.loc 1 350 24 discriminator 1
 2481 0f10 9307C000 		li	a5,12
 2482 0f14 63E09702 		bgtu	s1,a5,.L141
 352:src/kernel/slabAllocator.cpp ****         {
 2483              		.loc 1 352 9
 352:src/kernel/slabAllocator.cpp ****         {
 2484              		.loc 1 352 42 is_stmt 0
 2485 0f18 93973400 		slli	a5,s1,3
 2486 0f1c 17070000 		ld	a4,.LANCHOR0
 2486      03370700 
 2487 0f24 B307F700 		add	a5,a4,a5
 2488 0f28 03B50700 		ld	a0,0(a5)
 352:src/kernel/slabAllocator.cpp ****         {
 2489              		.loc 1 352 9
 2490 0f2c E31C05FC 		bnez	a0,.L145
 2491 0f30 6FF0DFFD 		j	.L142
 2492              	.L141:
 2493              	.LBE23:
 357:src/kernel/slabAllocator.cpp ****     printBuddyInfo();
 2494              		.loc 1 357 5 is_stmt 1
 357:src/kernel/slabAllocator.cpp ****     printBuddyInfo();
 2495              		.loc 1 357 30 is_stmt 0
 2496 0f34 17050000 		lla	a0,.LC17
 2496      13050500 
 2497 0f3c 97000000 		call	_ZN8KConsole15trapPrintStringEPKc@plt
 2497      E7800000 
 2498              	.LVL258:
 358:src/kernel/slabAllocator.cpp **** }
 2499              		.loc 1 358 5 is_stmt 1
GAS LISTING /tmp/ccmqG3lh.s 			page 60


 358:src/kernel/slabAllocator.cpp **** }
 2500              		.loc 1 358 19 is_stmt 0
 2501 0f44 97000000 		call	_Z14printBuddyInfov@plt
 2501      E7800000 
 2502              	.LVL259:
 359:src/kernel/slabAllocator.cpp **** 
 2503              		.loc 1 359 1
 2504 0f4c 83308101 		ld	ra,24(sp)
 2505              		.cfi_restore 1
 2506 0f50 03340101 		ld	s0,16(sp)
 2507              		.cfi_restore 8
 2508              		.cfi_def_cfa 2, 32
 2509 0f54 83348100 		ld	s1,8(sp)
 2510              		.cfi_restore 9
 2511              	.LVL260:
 2512 0f58 13010102 		addi	sp,sp,32
 2513              		.cfi_def_cfa_offset 0
 2514 0f5c 67800000 		jr	ra
 2515              		.cfi_endproc
 2516              	.LFE26:
 2518              		.section	.rodata.str1.8
 2519 0224 00000000 		.align	3
 2520              	.LC22:
 2521 0228 43616368 		.string	"Cache for small buffers"
 2521      6520666F 
 2521      7220736D 
 2521      616C6C20 
 2521      62756666 
 2522              		.text
 2523              		.align	2
 2524              		.globl	_Z7kmallocm
 2526              	_Z7kmallocm:
 2527              	.LFB36:
 542:src/kernel/slabAllocator.cpp **** 
 543:src/kernel/slabAllocator.cpp **** void *kmalloc(size_t size)
 544:src/kernel/slabAllocator.cpp **** {
 2528              		.loc 1 544 1 is_stmt 1
 2529              		.cfi_startproc
 2530              	.LVL261:
 2531 0f60 130101FD 		addi	sp,sp,-48
 2532              		.cfi_def_cfa_offset 48
 2533 0f64 23341102 		sd	ra,40(sp)
 2534 0f68 23308102 		sd	s0,32(sp)
 2535 0f6c 233C9100 		sd	s1,24(sp)
 2536 0f70 23382101 		sd	s2,16(sp)
 2537 0f74 23343101 		sd	s3,8(sp)
 2538              		.cfi_offset 1, -8
 2539              		.cfi_offset 8, -16
 2540              		.cfi_offset 9, -24
 2541              		.cfi_offset 18, -32
 2542              		.cfi_offset 19, -40
 2543 0f78 13040103 		addi	s0,sp,48
 2544              		.cfi_def_cfa 8, 0
 545:src/kernel/slabAllocator.cpp ****     size_t level = getDeg2Ceil(size);
 2545              		.loc 1 545 5
 2546              		.loc 1 545 31 is_stmt 0
 2547 0f7c 97000000 		call	_Z11getDeg2Ceilm@plt
GAS LISTING /tmp/ccmqG3lh.s 			page 61


 2547      E7800000 
 2548              	.LVL262:
 546:src/kernel/slabAllocator.cpp ****     if(level < CACHE_BUFFER_SMALL)
 2549              		.loc 1 546 5 is_stmt 1
 2550 0f84 93074000 		li	a5,4
 2551 0f88 63FAA700 		bleu	a0,a5,.L152
 547:src/kernel/slabAllocator.cpp ****         level = CACHE_BUFFER_SMALL;
 548:src/kernel/slabAllocator.cpp ****     if(level > CACHE_BUFFER_BIG)
 2552              		.loc 1 548 5
 2553 0f8c 93071001 		li	a5,17
 2554 0f90 63F8A700 		bleu	a0,a5,.L147
 549:src/kernel/slabAllocator.cpp ****         return nullptr;
 2555              		.loc 1 549 16 is_stmt 0
 2556 0f94 13090000 		li	s2,0
 2557 0f98 6F004005 		j	.L146
 2558              	.L152:
 547:src/kernel/slabAllocator.cpp ****         level = CACHE_BUFFER_SMALL;
 2559              		.loc 1 547 15
 2560 0f9c 13055000 		li	a0,5
 2561              	.LVL263:
 2562              	.L147:
 550:src/kernel/slabAllocator.cpp ****     size = (1 << level);
 2563              		.loc 1 550 5 is_stmt 1
 2564              		.loc 1 550 15 is_stmt 0
 2565 0fa0 93061000 		li	a3,1
 2566 0fa4 BB99A600 		sllw	s3,a3,a0
 2567              	.LVL264:
 551:src/kernel/slabAllocator.cpp ****     size_t index = level - CACHE_BUFFER_SMALL;
 2568              		.loc 1 551 5 is_stmt 1
 2569              		.loc 1 551 12 is_stmt 0
 2570 0fa8 9304B5FF 		addi	s1,a0,-5
 2571              	.LVL265:
 552:src/kernel/slabAllocator.cpp **** 
 553:src/kernel/slabAllocator.cpp ****     static size_t border = 12;
 2572              		.loc 1 553 5 is_stmt 1
 554:src/kernel/slabAllocator.cpp ****     if(level >= border)
 2573              		.loc 1 554 5
 2574 0fac 9307B000 		li	a5,11
 2575 0fb0 63F8A70A 		bleu	a0,a5,.L149
 555:src/kernel/slabAllocator.cpp ****     {
 556:src/kernel/slabAllocator.cpp ****         if(slabAllocator->cachesBuffers[index] == nullptr)
 2576              		.loc 1 556 9
 2577              		.loc 1 556 46 is_stmt 0
 2578 0fb4 17090000 		ld	s2,.LANCHOR0
 2578      03390900 
 2579 0fbc 93973400 		slli	a5,s1,3
 2580 0fc0 B307F900 		add	a5,s2,a5
 2581 0fc4 83B70700 		ld	a5,0(a5)
 2582              		.loc 1 556 9
 2583 0fc8 63820704 		beqz	a5,.L155
 2584              	.L150:
 557:src/kernel/slabAllocator.cpp ****         {
 558:src/kernel/slabAllocator.cpp ****             slabAllocator->cachesBuffers[index] = (kmem_cache_t*)kmem_cache_alloc(&slabAllocator->c
 559:src/kernel/slabAllocator.cpp ****             if(slabAllocator->cachesBuffers[index] == nullptr)
 560:src/kernel/slabAllocator.cpp ****                 return nullptr;
 561:src/kernel/slabAllocator.cpp ****             init_cache(slabAllocator->cachesBuffers[index], "Cache for small buffers", 1, size, nul
 562:src/kernel/slabAllocator.cpp ****         }
GAS LISTING /tmp/ccmqG3lh.s 			page 62


 563:src/kernel/slabAllocator.cpp **** 
 564:src/kernel/slabAllocator.cpp ****         return bigCacheKmalloc(slabAllocator->cachesBuffers[index]);
 2585              		.loc 1 564 9 is_stmt 1
 2586              		.loc 1 564 31 is_stmt 0
 2587 0fcc 93943400 		slli	s1,s1,3
 2588              	.LVL266:
 2589 0fd0 97070000 		ld	a5,.LANCHOR0
 2589      83B70700 
 2590 0fd8 B3849700 		add	s1,a5,s1
 2591 0fdc 03B50400 		ld	a0,0(s1)
 2592 0fe0 97000000 		call	_Z15bigCacheKmallocP12kmem_cache_s
 2592      E7800000 
 2593              	.LVL267:
 2594 0fe8 13090500 		mv	s2,a0
 2595              	.LVL268:
 2596              	.L146:
 565:src/kernel/slabAllocator.cpp ****     }
 566:src/kernel/slabAllocator.cpp **** 
 567:src/kernel/slabAllocator.cpp ****     if(slabAllocator->cachesBuffers[index] == nullptr)
 568:src/kernel/slabAllocator.cpp ****     {
 569:src/kernel/slabAllocator.cpp ****         slabAllocator->cachesBuffers[index] = (kmem_cache_t*)kmem_cache_alloc(&slabAllocator->cache
 570:src/kernel/slabAllocator.cpp ****         if(slabAllocator->cachesBuffers[index] == nullptr)
 571:src/kernel/slabAllocator.cpp ****             return nullptr;
 572:src/kernel/slabAllocator.cpp ****         init_cache(slabAllocator->cachesBuffers[index], "Cache for small buffers", getOptimalSlabSi
 573:src/kernel/slabAllocator.cpp ****     }
 574:src/kernel/slabAllocator.cpp **** 
 575:src/kernel/slabAllocator.cpp ****     return kmem_cache_alloc(slabAllocator->cachesBuffers[index]);
 576:src/kernel/slabAllocator.cpp **** }
 2597              		.loc 1 576 1
 2598 0fec 13050900 		mv	a0,s2
 2599 0ff0 83308102 		ld	ra,40(sp)
 2600              		.cfi_remember_state
 2601              		.cfi_restore 1
 2602 0ff4 03340102 		ld	s0,32(sp)
 2603              		.cfi_restore 8
 2604              		.cfi_def_cfa 2, 48
 2605 0ff8 83348101 		ld	s1,24(sp)
 2606              		.cfi_restore 9
 2607 0ffc 03390101 		ld	s2,16(sp)
 2608              		.cfi_restore 18
 2609 1000 83398100 		ld	s3,8(sp)
 2610              		.cfi_restore 19
 2611 1004 13010103 		addi	sp,sp,48
 2612              		.cfi_def_cfa_offset 0
 2613 1008 67800000 		jr	ra
 2614              	.LVL269:
 2615              	.L155:
 2616              		.cfi_restore_state
 558:src/kernel/slabAllocator.cpp ****             if(slabAllocator->cachesBuffers[index] == nullptr)
 2617              		.loc 1 558 13 is_stmt 1
 558:src/kernel/slabAllocator.cpp ****             if(slabAllocator->cachesBuffers[index] == nullptr)
 2618              		.loc 1 558 82 is_stmt 0
 2619 100c 13058906 		addi	a0,s2,104
 2620 1010 97000000 		call	_Z16kmem_cache_allocP12kmem_cache_s
 2620      E7800000 
 2621              	.LVL270:
 558:src/kernel/slabAllocator.cpp ****             if(slabAllocator->cachesBuffers[index] == nullptr)
GAS LISTING /tmp/ccmqG3lh.s 			page 63


 2622              		.loc 1 558 49
 2623 1018 13973400 		slli	a4,s1,3
 2624 101c 3309E900 		add	s2,s2,a4
 2625 1020 2330A900 		sd	a0,0(s2)
 559:src/kernel/slabAllocator.cpp ****                 return nullptr;
 2626              		.loc 1 559 13 is_stmt 1
 559:src/kernel/slabAllocator.cpp ****                 return nullptr;
 2627              		.loc 1 559 50 is_stmt 0
 2628 1024 97070000 		ld	a5,.LANCHOR0
 2628      83B70700 
 2629 102c B387E700 		add	a5,a5,a4
 2630 1030 03B90700 		ld	s2,0(a5)
 559:src/kernel/slabAllocator.cpp ****                 return nullptr;
 2631              		.loc 1 559 13
 2632 1034 E30C09FA 		beqz	s2,.L146
 561:src/kernel/slabAllocator.cpp ****         }
 2633              		.loc 1 561 13 is_stmt 1
 561:src/kernel/slabAllocator.cpp ****         }
 2634              		.loc 1 561 23 is_stmt 0
 2635 1038 93070000 		li	a5,0
 2636 103c 13070000 		li	a4,0
 2637 1040 93860900 		mv	a3,s3
 2638 1044 13061000 		li	a2,1
 2639 1048 97050000 		lla	a1,.LC22
 2639      93850500 
 2640 1050 13050900 		mv	a0,s2
 2641 1054 97000000 		call	_Z10init_cacheP12kmem_cache_sPKcmmPFvPvES5_
 2641      E7800000 
 2642              	.LVL271:
 2643 105c 6FF01FF7 		j	.L150
 2644              	.L149:
 567:src/kernel/slabAllocator.cpp ****     {
 2645              		.loc 1 567 5 is_stmt 1
 567:src/kernel/slabAllocator.cpp ****     {
 2646              		.loc 1 567 42 is_stmt 0
 2647 1060 17090000 		ld	s2,.LANCHOR0
 2647      03390900 
 2648 1068 93973400 		slli	a5,s1,3
 2649 106c B307F900 		add	a5,s2,a5
 2650 1070 83B70700 		ld	a5,0(a5)
 567:src/kernel/slabAllocator.cpp ****     {
 2651              		.loc 1 567 5
 2652 1074 63840702 		beqz	a5,.L156
 2653              	.L151:
 575:src/kernel/slabAllocator.cpp **** }
 2654              		.loc 1 575 5 is_stmt 1
 575:src/kernel/slabAllocator.cpp **** }
 2655              		.loc 1 575 28 is_stmt 0
 2656 1078 93943400 		slli	s1,s1,3
 2657              	.LVL272:
 2658 107c 97070000 		ld	a5,.LANCHOR0
 2658      83B70700 
 2659 1084 B3849700 		add	s1,a5,s1
 2660 1088 03B50400 		ld	a0,0(s1)
 2661 108c 97000000 		call	_Z16kmem_cache_allocP12kmem_cache_s
 2661      E7800000 
 2662              	.LVL273:
GAS LISTING /tmp/ccmqG3lh.s 			page 64


 2663 1094 13090500 		mv	s2,a0
 575:src/kernel/slabAllocator.cpp **** }
 2664              		.loc 1 575 64
 2665 1098 6FF05FF5 		j	.L146
 2666              	.LVL274:
 2667              	.L156:
 569:src/kernel/slabAllocator.cpp ****         if(slabAllocator->cachesBuffers[index] == nullptr)
 2668              		.loc 1 569 9 is_stmt 1
 569:src/kernel/slabAllocator.cpp ****         if(slabAllocator->cachesBuffers[index] == nullptr)
 2669              		.loc 1 569 78 is_stmt 0
 2670 109c 13058906 		addi	a0,s2,104
 2671 10a0 97000000 		call	_Z16kmem_cache_allocP12kmem_cache_s
 2671      E7800000 
 2672              	.LVL275:
 569:src/kernel/slabAllocator.cpp ****         if(slabAllocator->cachesBuffers[index] == nullptr)
 2673              		.loc 1 569 45
 2674 10a8 13973400 		slli	a4,s1,3
 2675 10ac 3309E900 		add	s2,s2,a4
 2676 10b0 2330A900 		sd	a0,0(s2)
 570:src/kernel/slabAllocator.cpp ****             return nullptr;
 2677              		.loc 1 570 9 is_stmt 1
 570:src/kernel/slabAllocator.cpp ****             return nullptr;
 2678              		.loc 1 570 46 is_stmt 0
 2679 10b4 97070000 		ld	a5,.LANCHOR0
 2679      83B70700 
 2680 10bc B387E700 		add	a5,a5,a4
 2681 10c0 03B90700 		ld	s2,0(a5)
 570:src/kernel/slabAllocator.cpp ****             return nullptr;
 2682              		.loc 1 570 9
 2683 10c4 E30409F2 		beqz	s2,.L146
 572:src/kernel/slabAllocator.cpp ****     }
 2684              		.loc 1 572 9 is_stmt 1
 572:src/kernel/slabAllocator.cpp ****     }
 2685              		.loc 1 572 19 is_stmt 0
 2686 10c8 13850900 		mv	a0,s3
 2687 10cc 97000000 		call	_Z18getOptimalSlabSizem
 2687      E7800000 
 2688              	.LVL276:
 2689 10d4 13060500 		mv	a2,a0
 2690 10d8 93070000 		li	a5,0
 2691 10dc 13070000 		li	a4,0
 2692 10e0 93860900 		mv	a3,s3
 2693 10e4 97050000 		lla	a1,.LC22
 2693      93850500 
 2694 10ec 13050900 		mv	a0,s2
 2695 10f0 97000000 		call	_Z10init_cacheP12kmem_cache_sPKcmmPFvPvES5_
 2695      E7800000 
 2696              	.LVL277:
 2697 10f8 6FF01FF8 		j	.L151
 2698              		.cfi_endproc
 2699              	.LFE36:
 2701              		.align	2
 2702              		.globl	_Z5kfreePKv
 2704              	_Z5kfreePKv:
 2705              	.LFB37:
 577:src/kernel/slabAllocator.cpp **** 
 578:src/kernel/slabAllocator.cpp **** void kfree(const void *objp)
GAS LISTING /tmp/ccmqG3lh.s 			page 65


 579:src/kernel/slabAllocator.cpp **** {
 2706              		.loc 1 579 1 is_stmt 1
 2707              		.cfi_startproc
 2708              	.LVL278:
 580:src/kernel/slabAllocator.cpp ****     if(objp == nullptr)
 2709              		.loc 1 580 5
 2710 10fc 6300050E 		beqz	a0,.L165
 579:src/kernel/slabAllocator.cpp ****     if(objp == nullptr)
 2711              		.loc 1 579 1 is_stmt 0
 2712 1100 130101FD 		addi	sp,sp,-48
 2713              		.cfi_def_cfa_offset 48
 2714 1104 23341102 		sd	ra,40(sp)
 2715 1108 23308102 		sd	s0,32(sp)
 2716 110c 233C9100 		sd	s1,24(sp)
 2717 1110 23382101 		sd	s2,16(sp)
 2718 1114 23343101 		sd	s3,8(sp)
 2719              		.cfi_offset 1, -8
 2720              		.cfi_offset 8, -16
 2721              		.cfi_offset 9, -24
 2722              		.cfi_offset 18, -32
 2723              		.cfi_offset 19, -40
 2724 1118 13040103 		addi	s0,sp,48
 2725              		.cfi_def_cfa 8, 0
 2726 111c 93090500 		mv	s3,a0
 2727              	.LBB24:
 581:src/kernel/slabAllocator.cpp ****         return;
 582:src/kernel/slabAllocator.cpp ****     slab_t* slab = nullptr;
 583:src/kernel/slabAllocator.cpp ****     int index = -1;
 584:src/kernel/slabAllocator.cpp ****     for(size_t i = 0;i < CACHE_BUFFER_SIZE;i++)
 2728              		.loc 1 584 16
 2729 1120 93040000 		li	s1,0
 2730              	.LBE24:
 582:src/kernel/slabAllocator.cpp ****     int index = -1;
 2731              		.loc 1 582 13
 2732 1124 13090000 		li	s2,0
 2733              	.LVL279:
 2734              	.L161:
 2735              	.LBB25:
 2736              		.loc 1 584 24 is_stmt 1 discriminator 1
 2737 1128 9307C000 		li	a5,12
 2738 112c 63EE9702 		bgtu	s1,a5,.L163
 585:src/kernel/slabAllocator.cpp ****     {
 586:src/kernel/slabAllocator.cpp ****         slab = findSlab(slabAllocator->cachesBuffers[i], objp);
 2739              		.loc 1 586 9
 2740              		.loc 1 586 24 is_stmt 0
 2741 1130 93973400 		slli	a5,s1,3
 2742 1134 17070000 		ld	a4,.LANCHOR0
 2742      03370700 
 2743 113c B307F700 		add	a5,a4,a5
 2744 1140 93850900 		mv	a1,s3
 2745 1144 03B50700 		ld	a0,0(a5)
 2746 1148 97000000 		call	_Z8findSlabP12kmem_cache_sPKv
 2746      E7800000 
 2747              	.LVL280:
 2748 1150 13090500 		mv	s2,a0
 2749              	.LVL281:
 587:src/kernel/slabAllocator.cpp ****         if(slab != nullptr)
GAS LISTING /tmp/ccmqG3lh.s 			page 66


 2750              		.loc 1 587 9 is_stmt 1
 2751 1154 63160500 		bnez	a0,.L168
 584:src/kernel/slabAllocator.cpp ****     {
 2752              		.loc 1 584 5 discriminator 2
 2753 1158 93841400 		addi	s1,s1,1
 2754              	.LVL282:
 2755 115c 6FF0DFFC 		j	.L161
 2756              	.L168:
 588:src/kernel/slabAllocator.cpp ****         {
 589:src/kernel/slabAllocator.cpp ****             index = i;
 2757              		.loc 1 589 13
 2758              		.loc 1 589 19 is_stmt 0
 2759 1160 9B840400 		sext.w	s1,s1
 2760              	.LVL283:
 590:src/kernel/slabAllocator.cpp ****             break;
 2761              		.loc 1 590 13 is_stmt 1
 2762 1164 6F008000 		j	.L159
 2763              	.LVL284:
 2764              	.L163:
 2765              	.LBE25:
 583:src/kernel/slabAllocator.cpp ****     for(size_t i = 0;i < CACHE_BUFFER_SIZE;i++)
 2766              		.loc 1 583 9 is_stmt 0
 2767 1168 9304F0FF 		li	s1,-1
 2768              	.LVL285:
 2769              	.L159:
 591:src/kernel/slabAllocator.cpp ****         }
 592:src/kernel/slabAllocator.cpp ****     }
 593:src/kernel/slabAllocator.cpp ****     static size_t border = 12;
 2770              		.loc 1 593 5 is_stmt 1
 594:src/kernel/slabAllocator.cpp ****     size_t level = index + CACHE_BUFFER_SMALL;
 2771              		.loc 1 594 5
 2772              		.loc 1 594 26 is_stmt 0
 2773 116c 9B845400 		addiw	s1,s1,5
 2774              	.LVL286:
 595:src/kernel/slabAllocator.cpp ****     if(slab != nullptr && level < border)
 2775              		.loc 1 595 5 is_stmt 1
 2776 1170 63060900 		beqz	s2,.L162
 2777              		.loc 1 595 24 is_stmt 0 discriminator 1
 2778 1174 9307B000 		li	a5,11
 2779 1178 63F69702 		bleu	s1,a5,.L169
 2780              	.L162:
 596:src/kernel/slabAllocator.cpp ****     {
 597:src/kernel/slabAllocator.cpp ****         free_slab_object(slab, objp);
 598:src/kernel/slabAllocator.cpp ****         destroy_slab_list(&(slab->owner->slabs_empty));
 599:src/kernel/slabAllocator.cpp ****     }
 600:src/kernel/slabAllocator.cpp ****     else if(slab != nullptr && level >= border)
 2781              		.loc 1 600 10 is_stmt 1
 2782 117c 63060900 		beqz	s2,.L157
 2783              		.loc 1 600 29 is_stmt 0 discriminator 1
 2784 1180 9307B000 		li	a5,11
 2785 1184 63E29704 		bgtu	s1,a5,.L170
 2786              	.L157:
 601:src/kernel/slabAllocator.cpp ****     {
 602:src/kernel/slabAllocator.cpp ****         big_kfree(slab, objp);
 603:src/kernel/slabAllocator.cpp ****     }
 604:src/kernel/slabAllocator.cpp **** }
 2787              		.loc 1 604 1
GAS LISTING /tmp/ccmqG3lh.s 			page 67


 2788 1188 83308102 		ld	ra,40(sp)
 2789              		.cfi_remember_state
 2790              		.cfi_restore 1
 2791 118c 03340102 		ld	s0,32(sp)
 2792              		.cfi_restore 8
 2793              		.cfi_def_cfa 2, 48
 2794 1190 83348101 		ld	s1,24(sp)
 2795              		.cfi_restore 9
 2796              	.LVL287:
 2797 1194 03390101 		ld	s2,16(sp)
 2798              		.cfi_restore 18
 2799              	.LVL288:
 2800 1198 83398100 		ld	s3,8(sp)
 2801              		.cfi_restore 19
 2802              	.LVL289:
 2803 119c 13010103 		addi	sp,sp,48
 2804              		.cfi_def_cfa_offset 0
 2805 11a0 67800000 		jr	ra
 2806              	.LVL290:
 2807              	.L169:
 2808              		.cfi_restore_state
 597:src/kernel/slabAllocator.cpp ****         destroy_slab_list(&(slab->owner->slabs_empty));
 2809              		.loc 1 597 9 is_stmt 1
 597:src/kernel/slabAllocator.cpp ****         destroy_slab_list(&(slab->owner->slabs_empty));
 2810              		.loc 1 597 25 is_stmt 0
 2811 11a4 93850900 		mv	a1,s3
 2812 11a8 13050900 		mv	a0,s2
 2813 11ac 97000000 		call	_Z16free_slab_objectP6slab_sPKv
 2813      E7800000 
 2814              	.LVL291:
 598:src/kernel/slabAllocator.cpp ****     }
 2815              		.loc 1 598 9 is_stmt 1
 598:src/kernel/slabAllocator.cpp ****     }
 2816              		.loc 1 598 35 is_stmt 0
 2817 11b4 03350901 		ld	a0,16(s2)
 598:src/kernel/slabAllocator.cpp ****     }
 2818              		.loc 1 598 26
 2819 11b8 13050504 		addi	a0,a0,64
 2820 11bc 97000000 		call	_Z17destroy_slab_listPP6slab_s
 2820      E7800000 
 2821              	.LVL292:
 2822 11c4 6FF05FFC 		j	.L157
 2823              	.L170:
 602:src/kernel/slabAllocator.cpp ****     }
 2824              		.loc 1 602 9 is_stmt 1
 602:src/kernel/slabAllocator.cpp ****     }
 2825              		.loc 1 602 18 is_stmt 0
 2826 11c8 93850900 		mv	a1,s3
 2827 11cc 13050900 		mv	a0,s2
 2828 11d0 97000000 		call	_Z9big_kfreeP6slab_sPKv
 2828      E7800000 
 2829              	.LVL293:
 2830 11d8 6FF01FFB 		j	.L157
 2831              	.LVL294:
 2832              	.L165:
 2833              		.cfi_def_cfa_register 2
 2834              		.cfi_restore 1
GAS LISTING /tmp/ccmqG3lh.s 			page 68


 2835              		.cfi_restore 8
 2836              		.cfi_restore 9
 2837              		.cfi_restore 18
 2838              		.cfi_restore 19
 2839 11dc 67800000 		ret
 2840              		.cfi_endproc
 2841              	.LFE37:
 2843              		.align	2
 2844              		.globl	_Z18kmem_cache_destroyP12kmem_cache_s
 2846              	_Z18kmem_cache_destroyP12kmem_cache_s:
 2847              	.LFB38:
 605:src/kernel/slabAllocator.cpp **** 
 606:src/kernel/slabAllocator.cpp **** void kmem_cache_destroy(kmem_cache_t *cachep)
 607:src/kernel/slabAllocator.cpp **** {
 2848              		.loc 1 607 1 is_stmt 1
 2849              		.cfi_startproc
 2850              	.LVL295:
 2851 11e0 130101FE 		addi	sp,sp,-32
 2852              		.cfi_def_cfa_offset 32
 2853 11e4 233C1100 		sd	ra,24(sp)
 2854 11e8 23388100 		sd	s0,16(sp)
 2855 11ec 23349100 		sd	s1,8(sp)
 2856              		.cfi_offset 1, -8
 2857              		.cfi_offset 8, -16
 2858              		.cfi_offset 9, -24
 2859 11f0 13040102 		addi	s0,sp,32
 2860              		.cfi_def_cfa 8, 0
 2861 11f4 93040500 		mv	s1,a0
 608:src/kernel/slabAllocator.cpp ****     if(cachep->slabs_partial != nullptr || cachep->slabs_full != nullptr) {
 2862              		.loc 1 608 5
 2863              		.loc 1 608 16 is_stmt 0
 2864 11f8 83370505 		ld	a5,80(a0)
 2865              		.loc 1 608 5
 2866 11fc 63820702 		beqz	a5,.L176
 2867              	.L172:
 609:src/kernel/slabAllocator.cpp ****         cachep->errors |= DESTROY_ERROR;
 2868              		.loc 1 609 9 is_stmt 1
 2869              		.loc 1 609 24 is_stmt 0
 2870 1200 83A78407 		lw	a5,120(s1)
 2871 1204 93E72700 		ori	a5,a5,2
 2872 1208 23ACF406 		sw	a5,120(s1)
 610:src/kernel/slabAllocator.cpp ****         return;
 2873              		.loc 1 610 9 is_stmt 1
 2874              	.LVL296:
 2875              	.L171:
 611:src/kernel/slabAllocator.cpp ****     }
 612:src/kernel/slabAllocator.cpp ****     destroy_slab_list(&cachep->slabs_empty);
 613:src/kernel/slabAllocator.cpp ****     destroy_slab_list(&cachep->slabs_partial);
 614:src/kernel/slabAllocator.cpp ****     destroy_slab_list(&cachep->slabs_full);
 615:src/kernel/slabAllocator.cpp ****     kmem_cache_free(&slabAllocator->cacheOfCaches,cachep);
 616:src/kernel/slabAllocator.cpp **** }
 2876              		.loc 1 616 1 is_stmt 0
 2877 120c 83308101 		ld	ra,24(sp)
 2878              		.cfi_remember_state
 2879              		.cfi_restore 1
 2880 1210 03340101 		ld	s0,16(sp)
 2881              		.cfi_restore 8
GAS LISTING /tmp/ccmqG3lh.s 			page 69


 2882              		.cfi_def_cfa 2, 32
 2883 1214 83348100 		ld	s1,8(sp)
 2884              		.cfi_restore 9
 2885              	.LVL297:
 2886 1218 13010102 		addi	sp,sp,32
 2887              		.cfi_def_cfa_offset 0
 2888 121c 67800000 		jr	ra
 2889              	.LVL298:
 2890              	.L176:
 2891              		.cfi_restore_state
 608:src/kernel/slabAllocator.cpp ****         cachep->errors |= DESTROY_ERROR;
 2892              		.loc 1 608 52 discriminator 1
 2893 1220 83378504 		ld	a5,72(a0)
 608:src/kernel/slabAllocator.cpp ****         cachep->errors |= DESTROY_ERROR;
 2894              		.loc 1 608 41 discriminator 1
 2895 1224 E39E07FC 		bnez	a5,.L172
 612:src/kernel/slabAllocator.cpp ****     destroy_slab_list(&cachep->slabs_partial);
 2896              		.loc 1 612 5 is_stmt 1
 612:src/kernel/slabAllocator.cpp ****     destroy_slab_list(&cachep->slabs_partial);
 2897              		.loc 1 612 22 is_stmt 0
 2898 1228 13050504 		addi	a0,a0,64
 2899 122c 97000000 		call	_Z17destroy_slab_listPP6slab_s
 2899      E7800000 
 2900              	.LVL299:
 613:src/kernel/slabAllocator.cpp ****     destroy_slab_list(&cachep->slabs_full);
 2901              		.loc 1 613 5 is_stmt 1
 613:src/kernel/slabAllocator.cpp ****     destroy_slab_list(&cachep->slabs_full);
 2902              		.loc 1 613 22 is_stmt 0
 2903 1234 13850405 		addi	a0,s1,80
 2904 1238 97000000 		call	_Z17destroy_slab_listPP6slab_s
 2904      E7800000 
 2905              	.LVL300:
 614:src/kernel/slabAllocator.cpp ****     kmem_cache_free(&slabAllocator->cacheOfCaches,cachep);
 2906              		.loc 1 614 5 is_stmt 1
 614:src/kernel/slabAllocator.cpp ****     kmem_cache_free(&slabAllocator->cacheOfCaches,cachep);
 2907              		.loc 1 614 22 is_stmt 0
 2908 1240 13858404 		addi	a0,s1,72
 2909 1244 97000000 		call	_Z17destroy_slab_listPP6slab_s
 2909      E7800000 
 2910              	.LVL301:
 615:src/kernel/slabAllocator.cpp **** }
 2911              		.loc 1 615 5 is_stmt 1
 615:src/kernel/slabAllocator.cpp **** }
 2912              		.loc 1 615 20 is_stmt 0
 2913 124c 93850400 		mv	a1,s1
 2914 1250 17050000 		ld	a0,.LANCHOR0
 2914      03350500 
 2915 1258 13058506 		addi	a0,a0,104
 2916 125c 97000000 		call	_Z15kmem_cache_freeP12kmem_cache_sPv
 2916      E7800000 
 2917              	.LVL302:
 2918 1264 6FF09FFA 		j	.L171
 2919              		.cfi_endproc
 2920              	.LFE38:
 2922              		.align	2
 2923              		.globl	_Z17kmem_cache_shrinkP12kmem_cache_s
 2925              	_Z17kmem_cache_shrinkP12kmem_cache_s:
GAS LISTING /tmp/ccmqG3lh.s 			page 70


 2926              	.LFB39:
 617:src/kernel/slabAllocator.cpp **** 
 618:src/kernel/slabAllocator.cpp **** int kmem_cache_shrink(kmem_cache_t *cachep)
 619:src/kernel/slabAllocator.cpp **** {
 2927              		.loc 1 619 1 is_stmt 1
 2928              		.cfi_startproc
 2929              	.LVL303:
 620:src/kernel/slabAllocator.cpp ****     if(cachep == nullptr)
 2930              		.loc 1 620 5
 2931 1268 63080502 		beqz	a0,.L179
 619:src/kernel/slabAllocator.cpp ****     if(cachep == nullptr)
 2932              		.loc 1 619 1 is_stmt 0
 2933 126c 130101FF 		addi	sp,sp,-16
 2934              		.cfi_def_cfa_offset 16
 2935 1270 23341100 		sd	ra,8(sp)
 2936 1274 23308100 		sd	s0,0(sp)
 2937              		.cfi_offset 1, -8
 2938              		.cfi_offset 8, -16
 2939 1278 13040101 		addi	s0,sp,16
 2940              		.cfi_def_cfa 8, 0
 621:src/kernel/slabAllocator.cpp ****         return 0;
 622:src/kernel/slabAllocator.cpp ****     int totalBlocks = destroy_slab_list(&cachep->slabs_empty);
 2941              		.loc 1 622 5 is_stmt 1
 2942              		.loc 1 622 40 is_stmt 0
 2943 127c 13050504 		addi	a0,a0,64
 2944              	.LVL304:
 2945 1280 97000000 		call	_Z17destroy_slab_listPP6slab_s
 2945      E7800000 
 2946              	.LVL305:
 623:src/kernel/slabAllocator.cpp ****     return totalBlocks;
 2947              		.loc 1 623 5 is_stmt 1
 624:src/kernel/slabAllocator.cpp **** }
 2948              		.loc 1 624 1 is_stmt 0
 2949 1288 83308100 		ld	ra,8(sp)
 2950              		.cfi_restore 1
 2951 128c 03340100 		ld	s0,0(sp)
 2952              		.cfi_restore 8
 2953              		.cfi_def_cfa 2, 16
 2954 1290 13010101 		addi	sp,sp,16
 2955              		.cfi_def_cfa_offset 0
 2956 1294 67800000 		jr	ra
 2957              	.LVL306:
 2958              	.L179:
 621:src/kernel/slabAllocator.cpp ****         return 0;
 2959              		.loc 1 621 16
 2960 1298 13050000 		li	a0,0
 2961              	.LVL307:
 2962              		.loc 1 624 1
 2963 129c 67800000 		ret
 2964              		.cfi_endproc
 2965              	.LFE39:
 2967              		.align	2
 2968              		.globl	_Z21shrink_caches_on_slabP6slab_s
 2970              	_Z21shrink_caches_on_slabP6slab_s:
 2971              	.LFB27:
 362:src/kernel/slabAllocator.cpp ****     for(size_t i = 0; i < slab->numOfObjects;i++)
 2972              		.loc 1 362 1 is_stmt 1
GAS LISTING /tmp/ccmqG3lh.s 			page 71


 2973              		.cfi_startproc
 2974              	.LVL308:
 2975 12a0 130101FE 		addi	sp,sp,-32
 2976              		.cfi_def_cfa_offset 32
 2977 12a4 233C1100 		sd	ra,24(sp)
 2978 12a8 23388100 		sd	s0,16(sp)
 2979 12ac 23349100 		sd	s1,8(sp)
 2980 12b0 23302101 		sd	s2,0(sp)
 2981              		.cfi_offset 1, -8
 2982              		.cfi_offset 8, -16
 2983              		.cfi_offset 9, -24
 2984              		.cfi_offset 18, -32
 2985 12b4 13040102 		addi	s0,sp,32
 2986              		.cfi_def_cfa 8, 0
 2987 12b8 13090500 		mv	s2,a0
 363:src/kernel/slabAllocator.cpp ****     {
 2988              		.loc 1 363 5
 2989              	.LVL309:
 2990              	.LBB26:
 363:src/kernel/slabAllocator.cpp ****     {
 2991              		.loc 1 363 16 is_stmt 0
 2992 12bc 93040000 		li	s1,0
 2993 12c0 6F004002 		j	.L187
 2994              	.LVL310:
 2995              	.L189:
 2996              	.LBB27:
 2997              	.LBB28:
 367:src/kernel/slabAllocator.cpp ****             kmem_cache_shrink((kmem_cache_t*)addr);
 2998              		.loc 1 367 13 is_stmt 1
 367:src/kernel/slabAllocator.cpp ****             kmem_cache_shrink((kmem_cache_t*)addr);
 2999              		.loc 1 367 48 is_stmt 0
 3000 12c4 03358902 		ld	a0,40(s2)
 367:src/kernel/slabAllocator.cpp ****             kmem_cache_shrink((kmem_cache_t*)addr);
 3001              		.loc 1 367 68
 3002 12c8 83370901 		ld	a5,16(s2)
 367:src/kernel/slabAllocator.cpp ****             kmem_cache_shrink((kmem_cache_t*)addr);
 3003              		.loc 1 367 75
 3004 12cc 83B70706 		ld	a5,96(a5)
 367:src/kernel/slabAllocator.cpp ****             kmem_cache_shrink((kmem_cache_t*)addr);
 3005              		.loc 1 367 61
 3006 12d0 B3879702 		mul	a5,a5,s1
 3007              	.LVL311:
 368:src/kernel/slabAllocator.cpp ****         }
 3008              		.loc 1 368 13 is_stmt 1
 368:src/kernel/slabAllocator.cpp ****         }
 3009              		.loc 1 368 30 is_stmt 0
 3010 12d4 3305F500 		add	a0,a0,a5
 3011              	.LVL312:
 3012 12d8 97000000 		call	_Z17kmem_cache_shrinkP12kmem_cache_s
 3012      E7800000 
 3013              	.LVL313:
 3014              	.L186:
 3015              	.LBE28:
 3016              	.LBE27:
 363:src/kernel/slabAllocator.cpp ****     {
 3017              		.loc 1 363 5 is_stmt 1 discriminator 2
 3018 12e0 93841400 		addi	s1,s1,1
GAS LISTING /tmp/ccmqG3lh.s 			page 72


 3019              	.LVL314:
 3020              	.L187:
 363:src/kernel/slabAllocator.cpp ****     {
 3021              		.loc 1 363 25 discriminator 1
 363:src/kernel/slabAllocator.cpp ****     {
 3022              		.loc 1 363 33 is_stmt 0 discriminator 1
 3023 12e4 83378901 		ld	a5,24(s2)
 363:src/kernel/slabAllocator.cpp ****     {
 3024              		.loc 1 363 25 discriminator 1
 3025 12e8 63FEF400 		bleu	a5,s1,.L184
 3026              	.LBE26:
 365:src/kernel/slabAllocator.cpp ****         {
 3027              		.loc 1 365 9 is_stmt 1
 3028              	.LBB30:
 3029              	.LBB29:
 365:src/kernel/slabAllocator.cpp ****         {
 3030              		.loc 1 365 25 is_stmt 0
 3031 12ec 9B850400 		sext.w	a1,s1
 3032 12f0 13050900 		mv	a0,s2
 3033 12f4 97000000 		call	_Z13checkSetIndexP6slab_si
 3033      E7800000 
 3034              	.LVL315:
 365:src/kernel/slabAllocator.cpp ****         {
 3035              		.loc 1 365 9
 3036 12fc E30205FE 		beqz	a0,.L186
 3037 1300 6FF05FFC 		j	.L189
 3038              	.L184:
 3039              	.LBE29:
 3040              	.LBE30:
 371:src/kernel/slabAllocator.cpp **** 
 3041              		.loc 1 371 1
 3042 1304 83308101 		ld	ra,24(sp)
 3043              		.cfi_restore 1
 3044 1308 03340101 		ld	s0,16(sp)
 3045              		.cfi_restore 8
 3046              		.cfi_def_cfa 2, 32
 3047 130c 83348100 		ld	s1,8(sp)
 3048              		.cfi_restore 9
 3049              	.LVL316:
 3050 1310 03390100 		ld	s2,0(sp)
 3051              		.cfi_restore 18
 3052              	.LVL317:
 3053 1314 13010102 		addi	sp,sp,32
 3054              		.cfi_def_cfa_offset 0
 3055 1318 67800000 		jr	ra
 3056              		.cfi_endproc
 3057              	.LFE27:
 3059              		.align	2
 3060              		.globl	_Z17shrink_all_cachesv
 3062              	_Z17shrink_all_cachesv:
 3063              	.LFB28:
 374:src/kernel/slabAllocator.cpp ****     kmem_cache_t* cacheOfCaches = &slabAllocator->cacheOfCaches;
 3064              		.loc 1 374 1 is_stmt 1
 3065              		.cfi_startproc
 3066 131c 130101FD 		addi	sp,sp,-48
 3067              		.cfi_def_cfa_offset 48
 3068 1320 23341102 		sd	ra,40(sp)
GAS LISTING /tmp/ccmqG3lh.s 			page 73


 3069 1324 23308102 		sd	s0,32(sp)
 3070 1328 233C9100 		sd	s1,24(sp)
 3071 132c 23382101 		sd	s2,16(sp)
 3072 1330 23343101 		sd	s3,8(sp)
 3073              		.cfi_offset 1, -8
 3074              		.cfi_offset 8, -16
 3075              		.cfi_offset 9, -24
 3076              		.cfi_offset 18, -32
 3077              		.cfi_offset 19, -40
 3078 1334 13040103 		addi	s0,sp,48
 3079              		.cfi_def_cfa 8, 0
 375:src/kernel/slabAllocator.cpp **** 
 3080              		.loc 1 375 5
 375:src/kernel/slabAllocator.cpp **** 
 3081              		.loc 1 375 51 is_stmt 0
 3082 1338 17090000 		ld	s2,.LANCHOR0
 3082      03390900 
 375:src/kernel/slabAllocator.cpp **** 
 3083              		.loc 1 375 19
 3084 1340 93098906 		addi	s3,s2,104
 3085              	.LVL318:
 377:src/kernel/slabAllocator.cpp ****     while(slab != nullptr)
 3086              		.loc 1 377 5 is_stmt 1
 377:src/kernel/slabAllocator.cpp ****     while(slab != nullptr)
 3087              		.loc 1 377 13 is_stmt 0
 3088 1344 8334090B 		ld	s1,176(s2)
 3089              	.LVL319:
 3090              	.L192:
 378:src/kernel/slabAllocator.cpp ****     {
 3091              		.loc 1 378 5 is_stmt 1
 378:src/kernel/slabAllocator.cpp ****     {
 3092              		.loc 1 378 16
 3093 1348 638C0400 		beqz	s1,.L191
 380:src/kernel/slabAllocator.cpp ****         slab = slab->next;
 3094              		.loc 1 380 9
 380:src/kernel/slabAllocator.cpp ****         slab = slab->next;
 3095              		.loc 1 380 30 is_stmt 0
 3096 134c 13850400 		mv	a0,s1
 3097 1350 97000000 		call	_Z21shrink_caches_on_slabP6slab_s
 3097      E7800000 
 3098              	.LVL320:
 381:src/kernel/slabAllocator.cpp ****     }
 3099              		.loc 1 381 9 is_stmt 1
 381:src/kernel/slabAllocator.cpp ****     }
 3100              		.loc 1 381 14 is_stmt 0
 3101 1358 83B48400 		ld	s1,8(s1)
 3102              	.LVL321:
 378:src/kernel/slabAllocator.cpp ****     {
 3103              		.loc 1 378 5
 3104 135c 6FF0DFFE 		j	.L192
 3105              	.L191:
 384:src/kernel/slabAllocator.cpp ****     while(slab != nullptr)
 3106              		.loc 1 384 5 is_stmt 1
 384:src/kernel/slabAllocator.cpp ****     while(slab != nullptr)
 3107              		.loc 1 384 10 is_stmt 0
 3108 1360 8334890B 		ld	s1,184(s2)
 3109              	.LVL322:
GAS LISTING /tmp/ccmqG3lh.s 			page 74


 3110              	.L194:
 385:src/kernel/slabAllocator.cpp ****     {
 3111              		.loc 1 385 5 is_stmt 1
 385:src/kernel/slabAllocator.cpp ****     {
 3112              		.loc 1 385 16
 3113 1364 638C0400 		beqz	s1,.L193
 387:src/kernel/slabAllocator.cpp ****         slab = slab->next;
 3114              		.loc 1 387 9
 387:src/kernel/slabAllocator.cpp ****         slab = slab->next;
 3115              		.loc 1 387 30 is_stmt 0
 3116 1368 13850400 		mv	a0,s1
 3117 136c 97000000 		call	_Z21shrink_caches_on_slabP6slab_s
 3117      E7800000 
 3118              	.LVL323:
 388:src/kernel/slabAllocator.cpp ****     }
 3119              		.loc 1 388 9 is_stmt 1
 388:src/kernel/slabAllocator.cpp ****     }
 3120              		.loc 1 388 14 is_stmt 0
 3121 1374 83B48400 		ld	s1,8(s1)
 3122              	.LVL324:
 385:src/kernel/slabAllocator.cpp ****     {
 3123              		.loc 1 385 5
 3124 1378 6FF0DFFE 		j	.L194
 3125              	.L193:
 391:src/kernel/slabAllocator.cpp **** }
 3126              		.loc 1 391 5 is_stmt 1
 391:src/kernel/slabAllocator.cpp **** }
 3127              		.loc 1 391 22 is_stmt 0
 3128 137c 13850900 		mv	a0,s3
 3129 1380 97000000 		call	_Z17kmem_cache_shrinkP12kmem_cache_s
 3129      E7800000 
 3130              	.LVL325:
 392:src/kernel/slabAllocator.cpp **** 
 3131              		.loc 1 392 1
 3132 1388 83308102 		ld	ra,40(sp)
 3133              		.cfi_restore 1
 3134 138c 03340102 		ld	s0,32(sp)
 3135              		.cfi_restore 8
 3136              		.cfi_def_cfa 2, 48
 3137 1390 83348101 		ld	s1,24(sp)
 3138              		.cfi_restore 9
 3139              	.LVL326:
 3140 1394 03390101 		ld	s2,16(sp)
 3141              		.cfi_restore 18
 3142 1398 83398100 		ld	s3,8(sp)
 3143              		.cfi_restore 19
 3144              	.LVL327:
 3145 139c 13010103 		addi	sp,sp,48
 3146              		.cfi_def_cfa_offset 0
 3147 13a0 67800000 		jr	ra
 3148              		.cfi_endproc
 3149              	.LFE28:
 3151              		.section	.rodata.str1.8
 3152              		.align	3
 3153              	.LC23:
 3154 0240 45585041 		.string	"EXPAND ERROR\n"
 3154      4E442045 
GAS LISTING /tmp/ccmqG3lh.s 			page 75


 3154      52524F52 
 3154      0A00
 3155 024e 0000     		.align	3
 3156              	.LC24:
 3157 0250 44455354 		.string	"DESTROY ERROR"
 3157      524F5920 
 3157      4552524F 
 3157      5200
 3158              		.text
 3159              		.align	2
 3160              		.globl	_Z16kmem_cache_errorP12kmem_cache_s
 3162              	_Z16kmem_cache_errorP12kmem_cache_s:
 3163              	.LFB40:
 625:src/kernel/slabAllocator.cpp **** 
 626:src/kernel/slabAllocator.cpp **** int kmem_cache_error(kmem_cache_t *cachep)
 627:src/kernel/slabAllocator.cpp **** {
 3164              		.loc 1 627 1 is_stmt 1
 3165              		.cfi_startproc
 3166              	.LVL328:
 628:src/kernel/slabAllocator.cpp ****     if(cachep == nullptr)
 3167              		.loc 1 628 5
 3168 13a4 630C0506 		beqz	a0,.L201
 627:src/kernel/slabAllocator.cpp ****     if(cachep == nullptr)
 3169              		.loc 1 627 1 is_stmt 0
 3170 13a8 130101FE 		addi	sp,sp,-32
 3171              		.cfi_def_cfa_offset 32
 3172 13ac 233C1100 		sd	ra,24(sp)
 3173 13b0 23388100 		sd	s0,16(sp)
 3174 13b4 23349100 		sd	s1,8(sp)
 3175              		.cfi_offset 1, -8
 3176              		.cfi_offset 8, -16
 3177              		.cfi_offset 9, -24
 3178 13b8 13040102 		addi	s0,sp,32
 3179              		.cfi_def_cfa 8, 0
 3180 13bc 93040500 		mv	s1,a0
 629:src/kernel/slabAllocator.cpp ****         return 0;
 630:src/kernel/slabAllocator.cpp **** 
 631:src/kernel/slabAllocator.cpp ****     if(cachep->errors & EXPAND_ERROR)
 3181              		.loc 1 631 5 is_stmt 1
 3182              		.loc 1 631 16 is_stmt 0
 3183 13c0 83278507 		lw	a5,120(a0)
 3184              		.loc 1 631 23
 3185 13c4 93F71700 		andi	a5,a5,1
 3186              		.loc 1 631 5
 3187 13c8 63960702 		bnez	a5,.L204
 3188              	.LVL329:
 3189              	.L198:
 632:src/kernel/slabAllocator.cpp ****         KConsole::trapPrintString("EXPAND ERROR\n");
 633:src/kernel/slabAllocator.cpp ****     if(cachep->errors & DESTROY_ERROR)
 3190              		.loc 1 633 5 is_stmt 1
 3191              		.loc 1 633 16 is_stmt 0
 3192 13cc 83A78407 		lw	a5,120(s1)
 3193              		.loc 1 633 23
 3194 13d0 93F72700 		andi	a5,a5,2
 3195              		.loc 1 633 5
 3196 13d4 639A0702 		bnez	a5,.L205
 3197              	.L199:
GAS LISTING /tmp/ccmqG3lh.s 			page 76


 634:src/kernel/slabAllocator.cpp ****         KConsole::trapPrintString("DESTROY ERROR");
 635:src/kernel/slabAllocator.cpp **** 
 636:src/kernel/slabAllocator.cpp ****     cachep->errors = NO_ERROR;
 3198              		.loc 1 636 5 is_stmt 1
 3199              		.loc 1 636 20 is_stmt 0
 3200 13d8 23AC0406 		sw	zero,120(s1)
 637:src/kernel/slabAllocator.cpp **** 
 638:src/kernel/slabAllocator.cpp ****     return cachep->errors;
 3201              		.loc 1 638 5 is_stmt 1
 639:src/kernel/slabAllocator.cpp **** }
 3202              		.loc 1 639 1 is_stmt 0
 3203 13dc 13050000 		li	a0,0
 3204 13e0 83308101 		ld	ra,24(sp)
 3205              		.cfi_remember_state
 3206              		.cfi_restore 1
 3207 13e4 03340101 		ld	s0,16(sp)
 3208              		.cfi_restore 8
 3209              		.cfi_def_cfa 2, 32
 3210 13e8 83348100 		ld	s1,8(sp)
 3211              		.cfi_restore 9
 3212              	.LVL330:
 3213 13ec 13010102 		addi	sp,sp,32
 3214              		.cfi_def_cfa_offset 0
 3215 13f0 67800000 		jr	ra
 3216              	.LVL331:
 3217              	.L204:
 3218              		.cfi_restore_state
 632:src/kernel/slabAllocator.cpp ****     if(cachep->errors & DESTROY_ERROR)
 3219              		.loc 1 632 9 is_stmt 1
 632:src/kernel/slabAllocator.cpp ****     if(cachep->errors & DESTROY_ERROR)
 3220              		.loc 1 632 34 is_stmt 0
 3221 13f4 17050000 		lla	a0,.LC23
 3221      13050500 
 3222 13fc 97000000 		call	_ZN8KConsole15trapPrintStringEPKc@plt
 3222      E7800000 
 3223              	.LVL332:
 3224 1404 6FF09FFC 		j	.L198
 3225              	.L205:
 634:src/kernel/slabAllocator.cpp **** 
 3226              		.loc 1 634 9 is_stmt 1
 634:src/kernel/slabAllocator.cpp **** 
 3227              		.loc 1 634 34 is_stmt 0
 3228 1408 17050000 		lla	a0,.LC24
 3228      13050500 
 3229 1410 97000000 		call	_ZN8KConsole15trapPrintStringEPKc@plt
 3229      E7800000 
 3230              	.LVL333:
 3231 1418 6FF01FFC 		j	.L199
 3232              	.LVL334:
 3233              	.L201:
 3234              		.cfi_def_cfa_register 2
 3235              		.cfi_restore 1
 3236              		.cfi_restore 8
 3237              		.cfi_restore 9
 3238              		.loc 1 639 1
 3239 141c 13050000 		li	a0,0
 3240              	.LVL335:
GAS LISTING /tmp/ccmqG3lh.s 			page 77


 3241 1420 67800000 		ret
 3242              		.cfi_endproc
 3243              	.LFE40:
 3245              		.bss
 3246              		.align	3
 3247              		.set	.LANCHOR0,. + 0
 3250              	_ZL13slabAllocator:
 3251 0000 00000000 		.zero	8
 3251      00000000 
 3254              	_ZL12cacheOfSlabs:
 3255 0008 00000000 		.zero	8
 3255      00000000 
 3256              		.text
 3257              	.Letext0:
 3258              		.file 2 "src/kernel/../../h/../lib/hw.h"
 3259              		.file 3 "src/kernel/../../h/slabAllocator.hpp"
 3260              		.file 4 "src/kernel/../../h/buddyAllocator.hpp"
 3261              		.file 5 "src/kernel/../../h/PCB.hpp"
 3262              		.file 6 "src/kernel/../../h/KSemaphore.hpp"
 3263              		.file 7 "src/kernel/../../h/KConsole.hpp"
GAS LISTING /tmp/ccmqG3lh.s 			page 78

