GAS LISTING /tmp/cctmPoEZ.s 			page 1


   1              		.file	"slabAllocator.cpp"
   2              		.option pic
   3              		.option norelax
   4              		.text
   5              	.Ltext0:
   6              		.align	2
   7              		.globl	_Z6strcpyPKcPc
   9              	_Z6strcpyPKcPc:
  10              	.LFB5:
  11              		.file 1 "src/kernel/slabAllocator.cpp"
   1:src/kernel/slabAllocator.cpp **** #include "../../h/slabAllocator.hpp"
   2:src/kernel/slabAllocator.cpp **** #include "../../h/buddyAllocator.hpp"
   3:src/kernel/slabAllocator.cpp **** #include "../../h/KConsole.hpp"
   4:src/kernel/slabAllocator.cpp **** 
   5:src/kernel/slabAllocator.cpp **** //TODO
   6:src/kernel/slabAllocator.cpp **** //check values of the constants
   7:src/kernel/slabAllocator.cpp **** #define SLAB_ALLOCATED_LOOKUP 512
   8:src/kernel/slabAllocator.cpp **** #define CACHE_NAME_SIZE 64
   9:src/kernel/slabAllocator.cpp **** #define CACHE_BUFFER_SMALL 5
  10:src/kernel/slabAllocator.cpp **** #define CACHE_BUFFER_BIG 17
  11:src/kernel/slabAllocator.cpp **** #define CACHE_BUFFER_SIZE CACHE_BUFFER_BIG - CACHE_BUFFER_SMALL + 1
  12:src/kernel/slabAllocator.cpp **** #define CACHE_OF_CACHES_SLAB_SIZE 2
  13:src/kernel/slabAllocator.cpp **** #define NO_ERROR 0
  14:src/kernel/slabAllocator.cpp **** #define EXPAND_ERROR 0b1
  15:src/kernel/slabAllocator.cpp **** #define DESTROY_ERROR 0b10
  16:src/kernel/slabAllocator.cpp **** #define FREE_ERROR 0b100
  17:src/kernel/slabAllocator.cpp **** #define MAX_NUM_OF_OBJS SLAB_ALLOCATED_LOOKUP*8
  18:src/kernel/slabAllocator.cpp **** 
  19:src/kernel/slabAllocator.cpp **** typedef struct slab_s
  20:src/kernel/slabAllocator.cpp **** {
  21:src/kernel/slabAllocator.cpp ****     slab_s* prev;
  22:src/kernel/slabAllocator.cpp ****     slab_s* next;
  23:src/kernel/slabAllocator.cpp ****     kmem_cache_t* owner;
  24:src/kernel/slabAllocator.cpp ****     size_t numOfObjects;
  25:src/kernel/slabAllocator.cpp ****     size_t numOfAllocatedObjects;
  26:src/kernel/slabAllocator.cpp ****     void* startAddr;
  27:src/kernel/slabAllocator.cpp ****     unsigned char allocated[SLAB_ALLOCATED_LOOKUP];
  28:src/kernel/slabAllocator.cpp **** }slab_t;
  29:src/kernel/slabAllocator.cpp **** 
  30:src/kernel/slabAllocator.cpp **** typedef struct kmem_cache_s
  31:src/kernel/slabAllocator.cpp **** {
  32:src/kernel/slabAllocator.cpp ****     char cacheName[CACHE_NAME_SIZE];
  33:src/kernel/slabAllocator.cpp ****     slab_t* slabs_empty;
  34:src/kernel/slabAllocator.cpp ****     slab_t* slabs_full;
  35:src/kernel/slabAllocator.cpp ****     slab_t* slabs_partial;
  36:src/kernel/slabAllocator.cpp ****     size_t slab_size;
  37:src/kernel/slabAllocator.cpp ****     size_t obj_size;
  38:src/kernel/slabAllocator.cpp ****     void (*ctor)(void*);
  39:src/kernel/slabAllocator.cpp ****     void (*dtor)(void*);
  40:src/kernel/slabAllocator.cpp ****     int errors;
  41:src/kernel/slabAllocator.cpp **** }kmem_cache_t;
  42:src/kernel/slabAllocator.cpp **** 
  43:src/kernel/slabAllocator.cpp **** typedef struct slab_allocator_s
  44:src/kernel/slabAllocator.cpp **** {
  45:src/kernel/slabAllocator.cpp ****     kmem_cache_t* cachesBuffers[CACHE_BUFFER_SIZE];
  46:src/kernel/slabAllocator.cpp ****     kmem_cache_t cacheOfCaches;
  47:src/kernel/slabAllocator.cpp **** }slab_allocator_t;
GAS LISTING /tmp/cctmPoEZ.s 			page 2


  48:src/kernel/slabAllocator.cpp **** 
  49:src/kernel/slabAllocator.cpp **** //singleton slab allocator
  50:src/kernel/slabAllocator.cpp **** static slab_allocator_t* slabAllocator = nullptr;
  51:src/kernel/slabAllocator.cpp **** static kmem_cache_t* cacheOfSlabs = nullptr;
  52:src/kernel/slabAllocator.cpp **** //helping functions
  53:src/kernel/slabAllocator.cpp **** void strcpy(const char* src, char* dst)
  54:src/kernel/slabAllocator.cpp **** {
  12              		.loc 1 54 1
  13              		.cfi_startproc
  14              	.LVL0:
  15 0000 130101FF 		addi	sp,sp,-16
  16              		.cfi_def_cfa_offset 16
  17 0004 23348100 		sd	s0,8(sp)
  18              		.cfi_offset 8, -8
  19 0008 13040101 		addi	s0,sp,16
  20              		.cfi_def_cfa 8, 0
  21              	.L3:
  55:src/kernel/slabAllocator.cpp ****     while(*src != '\0')
  22              		.loc 1 55 5
  23              		.loc 1 55 16
  24              		.loc 1 55 11 is_stmt 0
  25 000c 83470500 		lbu	a5,0(a0)
  26              		.loc 1 55 16
  27 0010 638A0700 		beqz	a5,.L2
  56:src/kernel/slabAllocator.cpp ****     {
  57:src/kernel/slabAllocator.cpp ****         *dst = *src;
  28              		.loc 1 57 9 is_stmt 1
  29              		.loc 1 57 14 is_stmt 0
  30 0014 2380F500 		sb	a5,0(a1)
  58:src/kernel/slabAllocator.cpp ****         src++; dst++;
  31              		.loc 1 58 9 is_stmt 1
  32              		.loc 1 58 12 is_stmt 0
  33 0018 13051500 		addi	a0,a0,1
  34              	.LVL1:
  35              		.loc 1 58 16 is_stmt 1
  36              		.loc 1 58 19 is_stmt 0
  37 001c 93851500 		addi	a1,a1,1
  38              	.LVL2:
  55:src/kernel/slabAllocator.cpp ****     while(*src != '\0')
  39              		.loc 1 55 5
  40 0020 6FF0DFFE 		j	.L3
  41              	.L2:
  59:src/kernel/slabAllocator.cpp ****     }
  60:src/kernel/slabAllocator.cpp ****     *dst = *src;
  42              		.loc 1 60 5 is_stmt 1
  43              		.loc 1 60 10 is_stmt 0
  44 0024 2380F500 		sb	a5,0(a1)
  61:src/kernel/slabAllocator.cpp **** }
  45              		.loc 1 61 1
  46 0028 03348100 		ld	s0,8(sp)
  47              		.cfi_restore 8
  48              		.cfi_def_cfa 2, 16
  49 002c 13010101 		addi	sp,sp,16
  50              		.cfi_def_cfa_offset 0
  51 0030 67800000 		jr	ra
  52              		.cfi_endproc
  53              	.LFE5:
GAS LISTING /tmp/cctmPoEZ.s 			page 3


  55              		.align	2
  56              		.globl	_Z17destroy_slab_listPP6slab_s
  58              	_Z17destroy_slab_listPP6slab_s:
  59              	.LFB6:
  62:src/kernel/slabAllocator.cpp **** 
  63:src/kernel/slabAllocator.cpp **** int destroy_slab_list(slab_t** slab)
  64:src/kernel/slabAllocator.cpp **** {
  60              		.loc 1 64 1 is_stmt 1
  61              		.cfi_startproc
  62              	.LVL3:
  63 0034 130101FD 		addi	sp,sp,-48
  64              		.cfi_def_cfa_offset 48
  65 0038 23341102 		sd	ra,40(sp)
  66 003c 23308102 		sd	s0,32(sp)
  67 0040 233C9100 		sd	s1,24(sp)
  68 0044 23382101 		sd	s2,16(sp)
  69 0048 23343101 		sd	s3,8(sp)
  70 004c 23304101 		sd	s4,0(sp)
  71              		.cfi_offset 1, -8
  72              		.cfi_offset 8, -16
  73              		.cfi_offset 9, -24
  74              		.cfi_offset 18, -32
  75              		.cfi_offset 19, -40
  76              		.cfi_offset 20, -48
  77 0050 13040103 		addi	s0,sp,48
  78              		.cfi_def_cfa 8, 0
  65:src/kernel/slabAllocator.cpp ****     if(*slab == nullptr) return 0;
  79              		.loc 1 65 5
  80              		.loc 1 65 8 is_stmt 0
  81 0054 83370500 		ld	a5,0(a0)
  82              		.loc 1 65 5
  83 0058 638C0702 		beqz	a5,.L8
  84 005c 93040500 		mv	s1,a0
  66:src/kernel/slabAllocator.cpp ****     size_t sz = (*slab)->owner->slab_size;
  85              		.loc 1 66 5 is_stmt 1
  86              		.loc 1 66 26 is_stmt 0
  87 0060 83B70701 		ld	a5,16(a5)
  88              		.loc 1 66 12
  89 0064 83B98705 		ld	s3,88(a5)
  90              	.LVL4:
  67:src/kernel/slabAllocator.cpp ****     int totalBlocks = 0;
  91              		.loc 1 67 5 is_stmt 1
  92              		.loc 1 67 9 is_stmt 0
  93 0068 13090000 		li	s2,0
  94              	.LVL5:
  95              	.L7:
  68:src/kernel/slabAllocator.cpp ****     while(*slab != nullptr)
  96              		.loc 1 68 5 is_stmt 1
  97              		.loc 1 68 17
  98              		.loc 1 68 11 is_stmt 0
  99 006c 03B50400 		ld	a0,0(s1)
 100              		.loc 1 68 17
 101 0070 63020502 		beqz	a0,.L6
 102              	.LBB2:
  69:src/kernel/slabAllocator.cpp ****     {
  70:src/kernel/slabAllocator.cpp ****         slab_t* nextSlab = (*slab)->next;
 103              		.loc 1 70 9 is_stmt 1
GAS LISTING /tmp/cctmPoEZ.s 			page 4


 104              		.loc 1 70 17 is_stmt 0
 105 0074 033A8500 		ld	s4,8(a0)
 106              	.LVL6:
  71:src/kernel/slabAllocator.cpp ****         buddy_free(*slab, sz);
 107              		.loc 1 71 9 is_stmt 1
 108              		.loc 1 71 19 is_stmt 0
 109 0078 93850900 		mv	a1,s3
 110 007c 97000000 		call	_Z10buddy_freePvm@plt
 110      E7800000 
 111              	.LVL7:
  72:src/kernel/slabAllocator.cpp ****         *slab = nextSlab;
 112              		.loc 1 72 9 is_stmt 1
 113              		.loc 1 72 15 is_stmt 0
 114 0084 23B04401 		sd	s4,0(s1)
  73:src/kernel/slabAllocator.cpp ****         totalBlocks+=sz;
 115              		.loc 1 73 9 is_stmt 1
 116              		.loc 1 73 20 is_stmt 0
 117 0088 3B892901 		addw	s2,s3,s2
 118              	.LVL8:
 119              	.LBE2:
  68:src/kernel/slabAllocator.cpp ****     {
 120              		.loc 1 68 5
 121 008c 6FF01FFE 		j	.L7
 122              	.LVL9:
 123              	.L8:
  65:src/kernel/slabAllocator.cpp ****     size_t sz = (*slab)->owner->slab_size;
 124              		.loc 1 65 33
 125 0090 13090000 		li	s2,0
 126              	.LVL10:
 127              	.L6:
  74:src/kernel/slabAllocator.cpp ****     }
  75:src/kernel/slabAllocator.cpp ****     return totalBlocks;
  76:src/kernel/slabAllocator.cpp **** }
 128              		.loc 1 76 1
 129 0094 13050900 		mv	a0,s2
 130 0098 83308102 		ld	ra,40(sp)
 131              		.cfi_restore 1
 132 009c 03340102 		ld	s0,32(sp)
 133              		.cfi_restore 8
 134              		.cfi_def_cfa 2, 48
 135 00a0 83348101 		ld	s1,24(sp)
 136              		.cfi_restore 9
 137 00a4 03390101 		ld	s2,16(sp)
 138              		.cfi_restore 18
 139 00a8 83398100 		ld	s3,8(sp)
 140              		.cfi_restore 19
 141 00ac 033A0100 		ld	s4,0(sp)
 142              		.cfi_restore 20
 143 00b0 13010103 		addi	sp,sp,48
 144              		.cfi_def_cfa_offset 0
 145 00b4 67800000 		jr	ra
 146              		.cfi_endproc
 147              	.LFE6:
 149              		.align	2
 150              		.globl	_Z10init_cacheP12kmem_cache_sPKcmmPFvPvES5_
 152              	_Z10init_cacheP12kmem_cache_sPKcmmPFvPvES5_:
 153              	.LFB7:
GAS LISTING /tmp/cctmPoEZ.s 			page 5


  77:src/kernel/slabAllocator.cpp **** 
  78:src/kernel/slabAllocator.cpp **** void init_cache(kmem_cache_t* cachep, const char* cache_name, size_t slab_size, size_t obj_size, vo
  79:src/kernel/slabAllocator.cpp **** {
 154              		.loc 1 79 1 is_stmt 1
 155              		.cfi_startproc
 156              	.LVL11:
 157 00b8 130101FC 		addi	sp,sp,-64
 158              		.cfi_def_cfa_offset 64
 159 00bc 233C1102 		sd	ra,56(sp)
 160 00c0 23388102 		sd	s0,48(sp)
 161 00c4 23349102 		sd	s1,40(sp)
 162 00c8 23302103 		sd	s2,32(sp)
 163 00cc 233C3101 		sd	s3,24(sp)
 164 00d0 23384101 		sd	s4,16(sp)
 165 00d4 23345101 		sd	s5,8(sp)
 166              		.cfi_offset 1, -8
 167              		.cfi_offset 8, -16
 168              		.cfi_offset 9, -24
 169              		.cfi_offset 18, -32
 170              		.cfi_offset 19, -40
 171              		.cfi_offset 20, -48
 172              		.cfi_offset 21, -56
 173 00d8 13040104 		addi	s0,sp,64
 174              		.cfi_def_cfa 8, 0
 175 00dc 93040500 		mv	s1,a0
 176 00e0 13850500 		mv	a0,a1
 177              	.LVL12:
 178 00e4 930A0600 		mv	s5,a2
 179 00e8 138A0600 		mv	s4,a3
 180 00ec 93090700 		mv	s3,a4
 181 00f0 13890700 		mv	s2,a5
  80:src/kernel/slabAllocator.cpp ****     strcpy(cache_name, cachep->cacheName);
 182              		.loc 1 80 5
 183              		.loc 1 80 11 is_stmt 0
 184 00f4 93850400 		mv	a1,s1
 185              	.LVL13:
 186 00f8 97000000 		call	_Z6strcpyPKcPc
 186      E7800000 
 187              	.LVL14:
  81:src/kernel/slabAllocator.cpp ****     cachep->slab_size = slab_size;
 188              		.loc 1 81 5 is_stmt 1
 189              		.loc 1 81 23 is_stmt 0
 190 0100 23BC5405 		sd	s5,88(s1)
  82:src/kernel/slabAllocator.cpp ****     cachep->obj_size = obj_size;
 191              		.loc 1 82 5 is_stmt 1
 192              		.loc 1 82 22 is_stmt 0
 193 0104 23B04407 		sd	s4,96(s1)
  83:src/kernel/slabAllocator.cpp ****     cachep->ctor = ctor;
 194              		.loc 1 83 5 is_stmt 1
 195              		.loc 1 83 18 is_stmt 0
 196 0108 23B43407 		sd	s3,104(s1)
  84:src/kernel/slabAllocator.cpp ****     cachep->dtor = dtor;
 197              		.loc 1 84 5 is_stmt 1
 198              		.loc 1 84 18 is_stmt 0
 199 010c 23B82407 		sd	s2,112(s1)
  85:src/kernel/slabAllocator.cpp **** 
  86:src/kernel/slabAllocator.cpp ****     cachep->slabs_empty = cachep->slabs_partial = cachep->slabs_full = nullptr;
GAS LISTING /tmp/cctmPoEZ.s 			page 6


 200              		.loc 1 86 5 is_stmt 1
 201              		.loc 1 86 70 is_stmt 0
 202 0110 23B40404 		sd	zero,72(s1)
 203              		.loc 1 86 49
 204 0114 23B80404 		sd	zero,80(s1)
 205              		.loc 1 86 25
 206 0118 23B00404 		sd	zero,64(s1)
  87:src/kernel/slabAllocator.cpp ****     cachep->errors = NO_ERROR;
 207              		.loc 1 87 5 is_stmt 1
 208              		.loc 1 87 20 is_stmt 0
 209 011c 23AC0406 		sw	zero,120(s1)
  88:src/kernel/slabAllocator.cpp **** }
 210              		.loc 1 88 1
 211 0120 83308103 		ld	ra,56(sp)
 212              		.cfi_restore 1
 213 0124 03340103 		ld	s0,48(sp)
 214              		.cfi_restore 8
 215              		.cfi_def_cfa 2, 64
 216 0128 83348102 		ld	s1,40(sp)
 217              		.cfi_restore 9
 218              	.LVL15:
 219 012c 03390102 		ld	s2,32(sp)
 220              		.cfi_restore 18
 221              	.LVL16:
 222 0130 83398101 		ld	s3,24(sp)
 223              		.cfi_restore 19
 224              	.LVL17:
 225 0134 033A0101 		ld	s4,16(sp)
 226              		.cfi_restore 20
 227              	.LVL18:
 228 0138 833A8100 		ld	s5,8(sp)
 229              		.cfi_restore 21
 230              	.LVL19:
 231 013c 13010104 		addi	sp,sp,64
 232              		.cfi_def_cfa_offset 0
 233 0140 67800000 		jr	ra
 234              		.cfi_endproc
 235              	.LFE7:
 237              		.section	.rodata.str1.8,"aMS",@progbits,1
 238              		.align	3
 239              	.LC0:
 240 0000 43616368 		.string	"Cache of caches"
 240      65206F66 
 240      20636163 
 240      68657300 
 241              		.text
 242              		.align	2
 243              		.globl	_Z19slab_allocator_initP14buddyAllocator
 245              	_Z19slab_allocator_initP14buddyAllocator:
 246              	.LFB8:
  89:src/kernel/slabAllocator.cpp **** 
  90:src/kernel/slabAllocator.cpp **** slab_allocator_t* slab_allocator_init(buddyAllocator *buddy)
  91:src/kernel/slabAllocator.cpp **** {
 247              		.loc 1 91 1 is_stmt 1
 248              		.cfi_startproc
 249              	.LVL20:
 250 0144 130101FE 		addi	sp,sp,-32
GAS LISTING /tmp/cctmPoEZ.s 			page 7


 251              		.cfi_def_cfa_offset 32
 252 0148 233C1100 		sd	ra,24(sp)
 253 014c 23388100 		sd	s0,16(sp)
 254 0150 23349100 		sd	s1,8(sp)
 255              		.cfi_offset 1, -8
 256              		.cfi_offset 8, -16
 257              		.cfi_offset 9, -24
 258 0154 13040102 		addi	s0,sp,32
 259              		.cfi_def_cfa 8, 0
  92:src/kernel/slabAllocator.cpp ****     slab_allocator_t* slabAllocatorLocal = (slab_allocator_t*)(buddy + 1);
 260              		.loc 1 92 5
 261              		.loc 1 92 23 is_stmt 0
 262 0158 93040512 		addi	s1,a0,288
 263              	.LVL21:
  93:src/kernel/slabAllocator.cpp **** 
  94:src/kernel/slabAllocator.cpp ****     for(size_t i = 0; i < CACHE_BUFFER_SIZE;i++)
 264              		.loc 1 94 5 is_stmt 1
 265              	.LBB3:
 266              		.loc 1 94 16 is_stmt 0
 267 015c 93070000 		li	a5,0
 268 0160 6F004001 		j	.L14
 269              	.LVL22:
 270              	.L16:
  95:src/kernel/slabAllocator.cpp ****         slabAllocatorLocal->cachesBuffers[i] = nullptr;
 271              		.loc 1 95 9 is_stmt 1 discriminator 2
 272              		.loc 1 95 46 is_stmt 0 discriminator 2
 273 0164 13973700 		slli	a4,a5,3
 274 0168 3307E500 		add	a4,a0,a4
 275 016c 23300712 		sd	zero,288(a4)
  94:src/kernel/slabAllocator.cpp ****         slabAllocatorLocal->cachesBuffers[i] = nullptr;
 276              		.loc 1 94 5 is_stmt 1 discriminator 2
 277 0170 93871700 		addi	a5,a5,1
 278              	.LVL23:
 279              	.L14:
  94:src/kernel/slabAllocator.cpp ****         slabAllocatorLocal->cachesBuffers[i] = nullptr;
 280              		.loc 1 94 25 discriminator 3
 281 0174 1307C000 		li	a4,12
 282 0178 E376F7FE 		bleu	a5,a4,.L16
 283              	.LBE3:
  96:src/kernel/slabAllocator.cpp **** 
  97:src/kernel/slabAllocator.cpp ****     init_cache(&slabAllocatorLocal->cacheOfCaches, "Cache of caches", CACHE_OF_CACHES_SLAB_SIZE, si
 284              		.loc 1 97 5
 285              		.loc 1 97 15 is_stmt 0
 286 017c 93070000 		li	a5,0
 287              	.LVL24:
 288 0180 13070000 		li	a4,0
 289 0184 93060008 		li	a3,128
 290 0188 13062000 		li	a2,2
 291 018c 97050000 		lla	a1,.LC0
 291      93850500 
 292 0194 13058518 		addi	a0,a0,392
 293              	.LVL25:
 294 0198 97000000 		call	_Z10init_cacheP12kmem_cache_sPKcmmPFvPvES5_
 294      E7800000 
 295              	.LVL26:
  98:src/kernel/slabAllocator.cpp **** 
  99:src/kernel/slabAllocator.cpp ****     return slabAllocatorLocal;
GAS LISTING /tmp/cctmPoEZ.s 			page 8


 296              		.loc 1 99 5 is_stmt 1
 100:src/kernel/slabAllocator.cpp **** }
 297              		.loc 1 100 1 is_stmt 0
 298 01a0 13850400 		mv	a0,s1
 299 01a4 83308101 		ld	ra,24(sp)
 300              		.cfi_restore 1
 301 01a8 03340101 		ld	s0,16(sp)
 302              		.cfi_restore 8
 303              		.cfi_def_cfa 2, 32
 304 01ac 83348100 		ld	s1,8(sp)
 305              		.cfi_restore 9
 306              	.LVL27:
 307 01b0 13010102 		addi	sp,sp,32
 308              		.cfi_def_cfa_offset 0
 309 01b4 67800000 		jr	ra
 310              		.cfi_endproc
 311              	.LFE8:
 313              		.align	2
 314              		.globl	_Z13checkSetIndexP6slab_si
 316              	_Z13checkSetIndexP6slab_si:
 317              	.LFB9:
 101:src/kernel/slabAllocator.cpp **** 
 102:src/kernel/slabAllocator.cpp **** bool checkSetIndex(slab_t* slab, int index)
 103:src/kernel/slabAllocator.cpp **** {
 318              		.loc 1 103 1 is_stmt 1
 319              		.cfi_startproc
 320              	.LVL28:
 321 01b8 130101FF 		addi	sp,sp,-16
 322              		.cfi_def_cfa_offset 16
 323 01bc 23348100 		sd	s0,8(sp)
 324              		.cfi_offset 8, -8
 325 01c0 13040101 		addi	s0,sp,16
 326              		.cfi_def_cfa 8, 0
 104:src/kernel/slabAllocator.cpp ****     return (uint8)slab->allocated[index / 8] & (1 << (index%8));
 327              		.loc 1 104 5
 328              		.loc 1 104 41 is_stmt 0
 329 01c4 9BD7F541 		sraiw	a5,a1,31
 330 01c8 9BD7D701 		srliw	a5,a5,29
 331 01cc BB85B700 		addw	a1,a5,a1
 332              	.LVL29:
 333 01d0 1BD73540 		sraiw	a4,a1,3
 334              		.loc 1 104 44
 335 01d4 3305E500 		add	a0,a0,a4
 336              	.LVL30:
 337              		.loc 1 104 12
 338 01d8 03450503 		lbu	a0,48(a0)
 339              		.loc 1 104 60
 340 01dc 93F57500 		andi	a1,a1,7
 341 01e0 BB85F540 		subw	a1,a1,a5
 342              		.loc 1 104 63
 343 01e4 3B55B540 		sraw	a0,a0,a1
 105:src/kernel/slabAllocator.cpp **** }
 344              		.loc 1 105 1
 345 01e8 13751500 		andi	a0,a0,1
 346 01ec 03348100 		ld	s0,8(sp)
 347              		.cfi_restore 8
 348              		.cfi_def_cfa 2, 16
GAS LISTING /tmp/cctmPoEZ.s 			page 9


 349 01f0 13010101 		addi	sp,sp,16
 350              		.cfi_def_cfa_offset 0
 351 01f4 67800000 		jr	ra
 352              		.cfi_endproc
 353              	.LFE9:
 355              		.align	2
 356              		.globl	_Z17setAllocatedIndexP6slab_si
 358              	_Z17setAllocatedIndexP6slab_si:
 359              	.LFB10:
 106:src/kernel/slabAllocator.cpp **** 
 107:src/kernel/slabAllocator.cpp **** void setAllocatedIndex(slab_t* slab, int index)
 108:src/kernel/slabAllocator.cpp **** {
 360              		.loc 1 108 1 is_stmt 1
 361              		.cfi_startproc
 362              	.LVL31:
 363 01f8 130101FF 		addi	sp,sp,-16
 364              		.cfi_def_cfa_offset 16
 365 01fc 23348100 		sd	s0,8(sp)
 366              		.cfi_offset 8, -8
 367 0200 13040101 		addi	s0,sp,16
 368              		.cfi_def_cfa 8, 0
 109:src/kernel/slabAllocator.cpp ****     slab->allocated[index / 8]=(uint8)slab->allocated[index/8] | (1 << (index%8));
 369              		.loc 1 109 5
 370              		.loc 1 109 60 is_stmt 0
 371 0204 9BD7F541 		sraiw	a5,a1,31
 372 0208 9BD7D701 		srliw	a5,a5,29
 373 020c BB85B700 		addw	a1,a5,a1
 374              	.LVL32:
 375 0210 1BD73540 		sraiw	a4,a1,3
 376              		.loc 1 109 62
 377 0214 3305E500 		add	a0,a0,a4
 378              	.LVL33:
 379              		.loc 1 109 32
 380 0218 03070503 		lb	a4,48(a0)
 381              		.loc 1 109 78
 382 021c 93F57500 		andi	a1,a1,7
 383 0220 BB85F540 		subw	a1,a1,a5
 384              		.loc 1 109 69
 385 0224 93071000 		li	a5,1
 386 0228 BB95B700 		sllw	a1,a5,a1
 387              		.loc 1 109 64
 388 022c B365B700 		or	a1,a4,a1
 389              		.loc 1 109 31
 390 0230 2308B502 		sb	a1,48(a0)
 110:src/kernel/slabAllocator.cpp **** }
 391              		.loc 1 110 1
 392 0234 03348100 		ld	s0,8(sp)
 393              		.cfi_restore 8
 394              		.cfi_def_cfa 2, 16
 395 0238 13010101 		addi	sp,sp,16
 396              		.cfi_def_cfa_offset 0
 397 023c 67800000 		jr	ra
 398              		.cfi_endproc
 399              	.LFE10:
 401              		.align	2
 402              		.globl	_Z14allocateObjectP6slab_s
 404              	_Z14allocateObjectP6slab_s:
GAS LISTING /tmp/cctmPoEZ.s 			page 10


 405              	.LFB11:
 111:src/kernel/slabAllocator.cpp **** 
 112:src/kernel/slabAllocator.cpp **** void* allocateObject(slab_t* slab)
 113:src/kernel/slabAllocator.cpp **** {
 406              		.loc 1 113 1 is_stmt 1
 407              		.cfi_startproc
 408              	.LVL34:
 409 0240 130101FD 		addi	sp,sp,-48
 410              		.cfi_def_cfa_offset 48
 411 0244 23341102 		sd	ra,40(sp)
 412 0248 23308102 		sd	s0,32(sp)
 413 024c 233C9100 		sd	s1,24(sp)
 414 0250 23382101 		sd	s2,16(sp)
 415 0254 23343101 		sd	s3,8(sp)
 416              		.cfi_offset 1, -8
 417              		.cfi_offset 8, -16
 418              		.cfi_offset 9, -24
 419              		.cfi_offset 18, -32
 420              		.cfi_offset 19, -40
 421 0258 13040103 		addi	s0,sp,48
 422              		.cfi_def_cfa 8, 0
 423 025c 13090500 		mv	s2,a0
 114:src/kernel/slabAllocator.cpp ****     if(slab == nullptr)
 424              		.loc 1 114 5
 425 0260 63080508 		beqz	a0,.L26
 426              	.LBB4:
 115:src/kernel/slabAllocator.cpp ****         return nullptr;
 116:src/kernel/slabAllocator.cpp ****     int index = -1;
 117:src/kernel/slabAllocator.cpp ****     void* addr = nullptr;
 118:src/kernel/slabAllocator.cpp ****     for(size_t i = 0;i < slab->numOfObjects;i++)
 427              		.loc 1 118 16 is_stmt 0
 428 0264 93040000 		li	s1,0
 429              	.LVL35:
 430              	.L25:
 431              		.loc 1 118 24 is_stmt 1 discriminator 1
 432              		.loc 1 118 32 is_stmt 0 discriminator 1
 433 0268 83378901 		ld	a5,24(s2)
 434              		.loc 1 118 24 discriminator 1
 435 026c 63FEF402 		bleu	a5,s1,.L27
 119:src/kernel/slabAllocator.cpp ****     {
 120:src/kernel/slabAllocator.cpp ****         if(!checkSetIndex(slab, i))
 436              		.loc 1 120 9 is_stmt 1
 437              		.loc 1 120 26 is_stmt 0
 438 0270 9B890400 		sext.w	s3,s1
 439 0274 93850900 		mv	a1,s3
 440 0278 13050900 		mv	a0,s2
 441 027c 97000000 		call	_Z13checkSetIndexP6slab_si
 441      E7800000 
 442              	.LVL36:
 443              		.loc 1 120 9
 444 0284 63060500 		beqz	a0,.L29
 118:src/kernel/slabAllocator.cpp ****     {
 445              		.loc 1 118 5 is_stmt 1 discriminator 2
 446 0288 93841400 		addi	s1,s1,1
 447              	.LVL37:
 448 028c 6FF0DFFD 		j	.L25
 449              	.L29:
GAS LISTING /tmp/cctmPoEZ.s 			page 11


 121:src/kernel/slabAllocator.cpp ****         {
 122:src/kernel/slabAllocator.cpp ****             addr = (void*)((size_t)slab->startAddr + i*slab->owner->obj_size);
 450              		.loc 1 122 13
 451              		.loc 1 122 42 is_stmt 0
 452 0290 83378902 		ld	a5,40(s2)
 453              		.loc 1 122 62
 454 0294 03370901 		ld	a4,16(s2)
 455              		.loc 1 122 69
 456 0298 03370706 		ld	a4,96(a4)
 457              		.loc 1 122 55
 458 029c B3049702 		mul	s1,a4,s1
 459              	.LVL38:
 460              		.loc 1 122 52
 461 02a0 B3849700 		add	s1,a5,s1
 462              	.LVL39:
 123:src/kernel/slabAllocator.cpp ****             index = i;
 463              		.loc 1 123 13 is_stmt 1
 124:src/kernel/slabAllocator.cpp ****             break;
 464              		.loc 1 124 13
 465 02a4 6F00C000 		j	.L23
 466              	.LVL40:
 467              	.L27:
 468              	.LBE4:
 117:src/kernel/slabAllocator.cpp ****     for(size_t i = 0;i < slab->numOfObjects;i++)
 469              		.loc 1 117 11 is_stmt 0
 470 02a8 93040000 		li	s1,0
 471              	.LVL41:
 116:src/kernel/slabAllocator.cpp ****     void* addr = nullptr;
 472              		.loc 1 116 9
 473 02ac 9309F0FF 		li	s3,-1
 474              	.L23:
 475              	.LVL42:
 125:src/kernel/slabAllocator.cpp ****         }
 126:src/kernel/slabAllocator.cpp ****     }
 127:src/kernel/slabAllocator.cpp ****     if(addr == nullptr)
 476              		.loc 1 127 5 is_stmt 1
 477 02b0 63800402 		beqz	s1,.L21
 128:src/kernel/slabAllocator.cpp ****         return nullptr;
 129:src/kernel/slabAllocator.cpp **** 
 130:src/kernel/slabAllocator.cpp ****     setAllocatedIndex(slab, index);
 478              		.loc 1 130 5
 479              		.loc 1 130 22 is_stmt 0
 480 02b4 93850900 		mv	a1,s3
 481 02b8 13050900 		mv	a0,s2
 482 02bc 97000000 		call	_Z17setAllocatedIndexP6slab_si
 482      E7800000 
 483              	.LVL43:
 131:src/kernel/slabAllocator.cpp ****     slab->numOfAllocatedObjects++;
 484              		.loc 1 131 5 is_stmt 1
 485              		.loc 1 131 11 is_stmt 0
 486 02c4 83370902 		ld	a5,32(s2)
 487              		.loc 1 131 32
 488 02c8 93871700 		addi	a5,a5,1
 489 02cc 2330F902 		sd	a5,32(s2)
 132:src/kernel/slabAllocator.cpp **** 
 133:src/kernel/slabAllocator.cpp ****     return addr;
 490              		.loc 1 133 5 is_stmt 1
GAS LISTING /tmp/cctmPoEZ.s 			page 12


 491              	.LVL44:
 492              	.L21:
 134:src/kernel/slabAllocator.cpp **** }
 493              		.loc 1 134 1 is_stmt 0
 494 02d0 13850400 		mv	a0,s1
 495 02d4 83308102 		ld	ra,40(sp)
 496              		.cfi_remember_state
 497              		.cfi_restore 1
 498 02d8 03340102 		ld	s0,32(sp)
 499              		.cfi_restore 8
 500              		.cfi_def_cfa 2, 48
 501 02dc 83348101 		ld	s1,24(sp)
 502              		.cfi_restore 9
 503 02e0 03390101 		ld	s2,16(sp)
 504              		.cfi_restore 18
 505              	.LVL45:
 506 02e4 83398100 		ld	s3,8(sp)
 507              		.cfi_restore 19
 508 02e8 13010103 		addi	sp,sp,48
 509              		.cfi_def_cfa_offset 0
 510 02ec 67800000 		jr	ra
 511              	.LVL46:
 512              	.L26:
 513              		.cfi_restore_state
 115:src/kernel/slabAllocator.cpp ****     int index = -1;
 514              		.loc 1 115 16
 515 02f0 93040500 		mv	s1,a0
 516 02f4 6FF0DFFD 		j	.L21
 517              		.cfi_endproc
 518              	.LFE11:
 520              		.align	2
 521              		.globl	_Z4fullP6slab_s
 523              	_Z4fullP6slab_s:
 524              	.LFB12:
 135:src/kernel/slabAllocator.cpp **** 
 136:src/kernel/slabAllocator.cpp **** bool full(slab_t* slab)
 137:src/kernel/slabAllocator.cpp **** {
 525              		.loc 1 137 1 is_stmt 1
 526              		.cfi_startproc
 527              	.LVL47:
 528 02f8 130101FF 		addi	sp,sp,-16
 529              		.cfi_def_cfa_offset 16
 530 02fc 23348100 		sd	s0,8(sp)
 531              		.cfi_offset 8, -8
 532 0300 13040101 		addi	s0,sp,16
 533              		.cfi_def_cfa 8, 0
 138:src/kernel/slabAllocator.cpp ****     return slab->numOfAllocatedObjects == slab->numOfObjects;
 534              		.loc 1 138 5
 535              		.loc 1 138 18 is_stmt 0
 536 0304 83370502 		ld	a5,32(a0)
 537              		.loc 1 138 49
 538 0308 03358501 		ld	a0,24(a0)
 539              	.LVL48:
 540 030c 3305F540 		sub	a0,a0,a5
 139:src/kernel/slabAllocator.cpp **** }
 541              		.loc 1 139 1
 542 0310 13351500 		seqz	a0,a0
GAS LISTING /tmp/cctmPoEZ.s 			page 13


 543 0314 03348100 		ld	s0,8(sp)
 544              		.cfi_restore 8
 545              		.cfi_def_cfa 2, 16
 546 0318 13010101 		addi	sp,sp,16
 547              		.cfi_def_cfa_offset 0
 548 031c 67800000 		jr	ra
 549              		.cfi_endproc
 550              	.LFE12:
 552              		.align	2
 553              		.globl	_Z5emptyP6slab_s
 555              	_Z5emptyP6slab_s:
 556              	.LFB13:
 140:src/kernel/slabAllocator.cpp **** 
 141:src/kernel/slabAllocator.cpp **** bool empty(slab_t* slab)
 142:src/kernel/slabAllocator.cpp **** {
 557              		.loc 1 142 1 is_stmt 1
 558              		.cfi_startproc
 559              	.LVL49:
 560 0320 130101FF 		addi	sp,sp,-16
 561              		.cfi_def_cfa_offset 16
 562 0324 23348100 		sd	s0,8(sp)
 563              		.cfi_offset 8, -8
 564 0328 13040101 		addi	s0,sp,16
 565              		.cfi_def_cfa 8, 0
 143:src/kernel/slabAllocator.cpp ****     return slab->numOfAllocatedObjects == 0;
 566              		.loc 1 143 5
 567              		.loc 1 143 18 is_stmt 0
 568 032c 03350502 		ld	a0,32(a0)
 569              	.LVL50:
 144:src/kernel/slabAllocator.cpp **** }
 570              		.loc 1 144 1
 571 0330 13351500 		seqz	a0,a0
 572 0334 03348100 		ld	s0,8(sp)
 573              		.cfi_restore 8
 574              		.cfi_def_cfa 2, 16
 575 0338 13010101 		addi	sp,sp,16
 576              		.cfi_def_cfa_offset 0
 577 033c 67800000 		jr	ra
 578              		.cfi_endproc
 579              	.LFE13:
 581              		.align	2
 582              		.globl	_Z18insertIntoSlabListP6slab_sPS0_
 584              	_Z18insertIntoSlabListP6slab_sPS0_:
 585              	.LFB14:
 145:src/kernel/slabAllocator.cpp **** 
 146:src/kernel/slabAllocator.cpp **** void insertIntoSlabList(slab_t* slab, slab_t** slab_head)
 147:src/kernel/slabAllocator.cpp **** {
 586              		.loc 1 147 1 is_stmt 1
 587              		.cfi_startproc
 588              	.LVL51:
 589 0340 130101FF 		addi	sp,sp,-16
 590              		.cfi_def_cfa_offset 16
 591 0344 23348100 		sd	s0,8(sp)
 592              		.cfi_offset 8, -8
 593 0348 13040101 		addi	s0,sp,16
 594              		.cfi_def_cfa 8, 0
 148:src/kernel/slabAllocator.cpp ****     if(slab == nullptr)
GAS LISTING /tmp/cctmPoEZ.s 			page 14


 595              		.loc 1 148 5
 596 034c 630E0500 		beqz	a0,.L34
 149:src/kernel/slabAllocator.cpp ****         return;
 150:src/kernel/slabAllocator.cpp ****     slab->prev = nullptr;
 597              		.loc 1 150 5
 598              		.loc 1 150 16 is_stmt 0
 599 0350 23300500 		sd	zero,0(a0)
 151:src/kernel/slabAllocator.cpp ****     slab->next = *slab_head;
 600              		.loc 1 151 5 is_stmt 1
 601              		.loc 1 151 18 is_stmt 0
 602 0354 83B70500 		ld	a5,0(a1)
 603              		.loc 1 151 16
 604 0358 2334F500 		sd	a5,8(a0)
 152:src/kernel/slabAllocator.cpp ****     if(*slab_head != nullptr)
 605              		.loc 1 152 5 is_stmt 1
 606 035c 63840700 		beqz	a5,.L36
 153:src/kernel/slabAllocator.cpp ****         (*slab_head)->prev = slab;
 607              		.loc 1 153 9
 608              		.loc 1 153 28 is_stmt 0
 609 0360 23B0A700 		sd	a0,0(a5)
 610              	.L36:
 154:src/kernel/slabAllocator.cpp ****     *slab_head = slab;
 611              		.loc 1 154 5 is_stmt 1
 612              		.loc 1 154 16 is_stmt 0
 613 0364 23B0A500 		sd	a0,0(a1)
 614              	.L34:
 155:src/kernel/slabAllocator.cpp **** }
 615              		.loc 1 155 1
 616 0368 03348100 		ld	s0,8(sp)
 617              		.cfi_restore 8
 618              		.cfi_def_cfa 2, 16
 619 036c 13010101 		addi	sp,sp,16
 620              		.cfi_def_cfa_offset 0
 621 0370 67800000 		jr	ra
 622              		.cfi_endproc
 623              	.LFE14:
 625              		.align	2
 626              		.globl	_Z18removeFromSlabListP6slab_sPS0_
 628              	_Z18removeFromSlabListP6slab_sPS0_:
 629              	.LFB15:
 156:src/kernel/slabAllocator.cpp **** 
 157:src/kernel/slabAllocator.cpp **** void removeFromSlabList(slab_t* slab, slab_t** slab_head)
 158:src/kernel/slabAllocator.cpp **** {
 630              		.loc 1 158 1 is_stmt 1
 631              		.cfi_startproc
 632              	.LVL52:
 633 0374 130101FF 		addi	sp,sp,-16
 634              		.cfi_def_cfa_offset 16
 635 0378 23348100 		sd	s0,8(sp)
 636              		.cfi_offset 8, -8
 637 037c 13040101 		addi	s0,sp,16
 638              		.cfi_def_cfa 8, 0
 159:src/kernel/slabAllocator.cpp ****     if(slab->prev == nullptr) //same as slab == *slab_head
 639              		.loc 1 159 5
 640              		.loc 1 159 14 is_stmt 0
 641 0380 83370500 		ld	a5,0(a0)
 642              		.loc 1 159 5
GAS LISTING /tmp/cctmPoEZ.s 			page 15


 643 0384 63860702 		beqz	a5,.L44
 160:src/kernel/slabAllocator.cpp ****     {
 161:src/kernel/slabAllocator.cpp ****         if(slab->next) slab->next->prev = nullptr;
 162:src/kernel/slabAllocator.cpp ****         (*slab_head) = slab->next;
 163:src/kernel/slabAllocator.cpp ****         slab->next = slab->prev = nullptr;
 164:src/kernel/slabAllocator.cpp ****     }
 165:src/kernel/slabAllocator.cpp ****     else
 166:src/kernel/slabAllocator.cpp ****     {
 167:src/kernel/slabAllocator.cpp ****         slab->prev->next = slab->next;
 644              		.loc 1 167 9 is_stmt 1
 645              		.loc 1 167 34 is_stmt 0
 646 0388 03378500 		ld	a4,8(a0)
 647              		.loc 1 167 26
 648 038c 23B4E700 		sd	a4,8(a5)
 168:src/kernel/slabAllocator.cpp ****         if(slab->next) slab->next->prev = slab->prev;
 649              		.loc 1 168 9 is_stmt 1
 650 0390 63060700 		beqz	a4,.L42
 651              		.loc 1 168 24 discriminator 1
 652              		.loc 1 168 49 is_stmt 0 discriminator 1
 653 0394 83370500 		ld	a5,0(a0)
 654              		.loc 1 168 41 discriminator 1
 655 0398 2330F700 		sd	a5,0(a4)
 656              	.L42:
 169:src/kernel/slabAllocator.cpp ****         slab->next = slab->prev = nullptr;
 657              		.loc 1 169 9 is_stmt 1
 658              		.loc 1 169 33 is_stmt 0
 659 039c 23300500 		sd	zero,0(a0)
 660              		.loc 1 169 20
 661 03a0 23340500 		sd	zero,8(a0)
 662              	.L38:
 170:src/kernel/slabAllocator.cpp ****     }
 171:src/kernel/slabAllocator.cpp **** }
 663              		.loc 1 171 1
 664 03a4 03348100 		ld	s0,8(sp)
 665              		.cfi_remember_state
 666              		.cfi_restore 8
 667              		.cfi_def_cfa 2, 16
 668 03a8 13010101 		addi	sp,sp,16
 669              		.cfi_def_cfa_offset 0
 670 03ac 67800000 		jr	ra
 671              	.L44:
 672              		.cfi_restore_state
 161:src/kernel/slabAllocator.cpp ****         (*slab_head) = slab->next;
 673              		.loc 1 161 9 is_stmt 1
 161:src/kernel/slabAllocator.cpp ****         (*slab_head) = slab->next;
 674              		.loc 1 161 18 is_stmt 0
 675 03b0 83378500 		ld	a5,8(a0)
 161:src/kernel/slabAllocator.cpp ****         (*slab_head) = slab->next;
 676              		.loc 1 161 9
 677 03b4 63840700 		beqz	a5,.L40
 161:src/kernel/slabAllocator.cpp ****         (*slab_head) = slab->next;
 678              		.loc 1 161 24 is_stmt 1 discriminator 1
 161:src/kernel/slabAllocator.cpp ****         (*slab_head) = slab->next;
 679              		.loc 1 161 41 is_stmt 0 discriminator 1
 680 03b8 23B00700 		sd	zero,0(a5)
 681              	.L40:
 162:src/kernel/slabAllocator.cpp ****         slab->next = slab->prev = nullptr;
GAS LISTING /tmp/cctmPoEZ.s 			page 16


 682              		.loc 1 162 9 is_stmt 1
 162:src/kernel/slabAllocator.cpp ****         slab->next = slab->prev = nullptr;
 683              		.loc 1 162 30 is_stmt 0
 684 03bc 83378500 		ld	a5,8(a0)
 162:src/kernel/slabAllocator.cpp ****         slab->next = slab->prev = nullptr;
 685              		.loc 1 162 22
 686 03c0 23B0F500 		sd	a5,0(a1)
 163:src/kernel/slabAllocator.cpp ****     }
 687              		.loc 1 163 9 is_stmt 1
 163:src/kernel/slabAllocator.cpp ****     }
 688              		.loc 1 163 33 is_stmt 0
 689 03c4 23300500 		sd	zero,0(a0)
 163:src/kernel/slabAllocator.cpp ****     }
 690              		.loc 1 163 20
 691 03c8 23340500 		sd	zero,8(a0)
 692 03cc 6FF09FFD 		j	.L38
 693              		.cfi_endproc
 694              	.LFE15:
 696              		.align	2
 697              		.globl	_Z16putPartialToFullP12kmem_cache_s
 699              	_Z16putPartialToFullP12kmem_cache_s:
 700              	.LFB16:
 172:src/kernel/slabAllocator.cpp **** 
 173:src/kernel/slabAllocator.cpp **** void putPartialToFull(kmem_cache_t* cachep)
 174:src/kernel/slabAllocator.cpp **** {
 701              		.loc 1 174 1 is_stmt 1
 702              		.cfi_startproc
 703              	.LVL53:
 704 03d0 130101FE 		addi	sp,sp,-32
 705              		.cfi_def_cfa_offset 32
 706 03d4 233C1100 		sd	ra,24(sp)
 707 03d8 23388100 		sd	s0,16(sp)
 708 03dc 23349100 		sd	s1,8(sp)
 709 03e0 23302101 		sd	s2,0(sp)
 710              		.cfi_offset 1, -8
 711              		.cfi_offset 8, -16
 712              		.cfi_offset 9, -24
 713              		.cfi_offset 18, -32
 714 03e4 13040102 		addi	s0,sp,32
 715              		.cfi_def_cfa 8, 0
 716 03e8 93040500 		mv	s1,a0
 175:src/kernel/slabAllocator.cpp ****     slab_t* slab = cachep->slabs_partial;
 717              		.loc 1 175 5
 718              		.loc 1 175 13 is_stmt 0
 719 03ec 03390505 		ld	s2,80(a0)
 720              	.LVL54:
 176:src/kernel/slabAllocator.cpp ****     removeFromSlabList(slab, &cachep->slabs_partial);
 721              		.loc 1 176 5 is_stmt 1
 722              		.loc 1 176 23 is_stmt 0
 723 03f0 93050505 		addi	a1,a0,80
 724 03f4 13050900 		mv	a0,s2
 725              	.LVL55:
 726 03f8 97000000 		call	_Z18removeFromSlabListP6slab_sPS0_
 726      E7800000 
 727              	.LVL56:
 177:src/kernel/slabAllocator.cpp ****     insertIntoSlabList(slab, &cachep->slabs_full);
 728              		.loc 1 177 5 is_stmt 1
GAS LISTING /tmp/cctmPoEZ.s 			page 17


 729              		.loc 1 177 23 is_stmt 0
 730 0400 93858404 		addi	a1,s1,72
 731 0404 13050900 		mv	a0,s2
 732 0408 97000000 		call	_Z18insertIntoSlabListP6slab_sPS0_
 732      E7800000 
 733              	.LVL57:
 178:src/kernel/slabAllocator.cpp **** }
 734              		.loc 1 178 1
 735 0410 83308101 		ld	ra,24(sp)
 736              		.cfi_restore 1
 737 0414 03340101 		ld	s0,16(sp)
 738              		.cfi_restore 8
 739              		.cfi_def_cfa 2, 32
 740 0418 83348100 		ld	s1,8(sp)
 741              		.cfi_restore 9
 742              	.LVL58:
 743 041c 03390100 		ld	s2,0(sp)
 744              		.cfi_restore 18
 745              	.LVL59:
 746 0420 13010102 		addi	sp,sp,32
 747              		.cfi_def_cfa_offset 0
 748 0424 67800000 		jr	ra
 749              		.cfi_endproc
 750              	.LFE16:
 752              		.align	2
 753              		.globl	_Z17putEmptyToPartialP12kmem_cache_s
 755              	_Z17putEmptyToPartialP12kmem_cache_s:
 756              	.LFB17:
 179:src/kernel/slabAllocator.cpp **** 
 180:src/kernel/slabAllocator.cpp **** void putEmptyToPartial(kmem_cache_t* cachep)
 181:src/kernel/slabAllocator.cpp **** {
 757              		.loc 1 181 1 is_stmt 1
 758              		.cfi_startproc
 759              	.LVL60:
 760 0428 130101FE 		addi	sp,sp,-32
 761              		.cfi_def_cfa_offset 32
 762 042c 233C1100 		sd	ra,24(sp)
 763 0430 23388100 		sd	s0,16(sp)
 764 0434 23349100 		sd	s1,8(sp)
 765 0438 23302101 		sd	s2,0(sp)
 766              		.cfi_offset 1, -8
 767              		.cfi_offset 8, -16
 768              		.cfi_offset 9, -24
 769              		.cfi_offset 18, -32
 770 043c 13040102 		addi	s0,sp,32
 771              		.cfi_def_cfa 8, 0
 772 0440 93040500 		mv	s1,a0
 182:src/kernel/slabAllocator.cpp ****     slab_t* slab = cachep->slabs_empty;
 773              		.loc 1 182 5
 774              		.loc 1 182 13 is_stmt 0
 775 0444 03390504 		ld	s2,64(a0)
 776              	.LVL61:
 183:src/kernel/slabAllocator.cpp ****     removeFromSlabList(slab, &cachep->slabs_empty);
 777              		.loc 1 183 5 is_stmt 1
 778              		.loc 1 183 23 is_stmt 0
 779 0448 93050504 		addi	a1,a0,64
 780 044c 13050900 		mv	a0,s2
GAS LISTING /tmp/cctmPoEZ.s 			page 18


 781              	.LVL62:
 782 0450 97000000 		call	_Z18removeFromSlabListP6slab_sPS0_
 782      E7800000 
 783              	.LVL63:
 184:src/kernel/slabAllocator.cpp ****     insertIntoSlabList(slab, &cachep->slabs_partial);
 784              		.loc 1 184 5 is_stmt 1
 785              		.loc 1 184 23 is_stmt 0
 786 0458 93850405 		addi	a1,s1,80
 787 045c 13050900 		mv	a0,s2
 788 0460 97000000 		call	_Z18insertIntoSlabListP6slab_sPS0_
 788      E7800000 
 789              	.LVL64:
 185:src/kernel/slabAllocator.cpp **** }
 790              		.loc 1 185 1
 791 0468 83308101 		ld	ra,24(sp)
 792              		.cfi_restore 1
 793 046c 03340101 		ld	s0,16(sp)
 794              		.cfi_restore 8
 795              		.cfi_def_cfa 2, 32
 796 0470 83348100 		ld	s1,8(sp)
 797              		.cfi_restore 9
 798              	.LVL65:
 799 0474 03390100 		ld	s2,0(sp)
 800              		.cfi_restore 18
 801              	.LVL66:
 802 0478 13010102 		addi	sp,sp,32
 803              		.cfi_def_cfa_offset 0
 804 047c 67800000 		jr	ra
 805              		.cfi_endproc
 806              	.LFE17:
 808              		.align	2
 809              		.globl	_Z14removeFullSlabP12kmem_cache_sP6slab_s
 811              	_Z14removeFullSlabP12kmem_cache_sP6slab_s:
 812              	.LFB18:
 186:src/kernel/slabAllocator.cpp **** 
 187:src/kernel/slabAllocator.cpp **** void removeFullSlab(kmem_cache_t* cachep, slab_t* slab)
 188:src/kernel/slabAllocator.cpp **** {
 813              		.loc 1 188 1 is_stmt 1
 814              		.cfi_startproc
 815              	.LVL67:
 816 0480 130101FE 		addi	sp,sp,-32
 817              		.cfi_def_cfa_offset 32
 818 0484 233C1100 		sd	ra,24(sp)
 819 0488 23388100 		sd	s0,16(sp)
 820 048c 23349100 		sd	s1,8(sp)
 821 0490 23302101 		sd	s2,0(sp)
 822              		.cfi_offset 1, -8
 823              		.cfi_offset 8, -16
 824              		.cfi_offset 9, -24
 825              		.cfi_offset 18, -32
 826 0494 13040102 		addi	s0,sp,32
 827              		.cfi_def_cfa 8, 0
 828 0498 13090500 		mv	s2,a0
 829 049c 93840500 		mv	s1,a1
 189:src/kernel/slabAllocator.cpp ****     removeFromSlabList(slab, &cachep->slabs_full);
 830              		.loc 1 189 5
 831              		.loc 1 189 23 is_stmt 0
GAS LISTING /tmp/cctmPoEZ.s 			page 19


 832 04a0 93058504 		addi	a1,a0,72
 833              	.LVL68:
 834 04a4 13850400 		mv	a0,s1
 835              	.LVL69:
 836 04a8 97000000 		call	_Z18removeFromSlabListP6slab_sPS0_
 836      E7800000 
 837              	.LVL70:
 190:src/kernel/slabAllocator.cpp ****     insertIntoSlabList(slab, &cachep->slabs_partial);
 838              		.loc 1 190 5 is_stmt 1
 839              		.loc 1 190 23 is_stmt 0
 840 04b0 93050905 		addi	a1,s2,80
 841 04b4 13850400 		mv	a0,s1
 842 04b8 97000000 		call	_Z18insertIntoSlabListP6slab_sPS0_
 842      E7800000 
 843              	.LVL71:
 191:src/kernel/slabAllocator.cpp **** }
 844              		.loc 1 191 1
 845 04c0 83308101 		ld	ra,24(sp)
 846              		.cfi_restore 1
 847 04c4 03340101 		ld	s0,16(sp)
 848              		.cfi_restore 8
 849              		.cfi_def_cfa 2, 32
 850 04c8 83348100 		ld	s1,8(sp)
 851              		.cfi_restore 9
 852              	.LVL72:
 853 04cc 03390100 		ld	s2,0(sp)
 854              		.cfi_restore 18
 855              	.LVL73:
 856 04d0 13010102 		addi	sp,sp,32
 857              		.cfi_def_cfa_offset 0
 858 04d4 67800000 		jr	ra
 859              		.cfi_endproc
 860              	.LFE18:
 862              		.align	2
 863              		.globl	_Z17removePartialSlabP12kmem_cache_sP6slab_s
 865              	_Z17removePartialSlabP12kmem_cache_sP6slab_s:
 866              	.LFB19:
 192:src/kernel/slabAllocator.cpp **** 
 193:src/kernel/slabAllocator.cpp **** void removePartialSlab(kmem_cache_t * cachep, slab_t* slab)
 194:src/kernel/slabAllocator.cpp **** {
 867              		.loc 1 194 1 is_stmt 1
 868              		.cfi_startproc
 869              	.LVL74:
 870 04d8 130101FE 		addi	sp,sp,-32
 871              		.cfi_def_cfa_offset 32
 872 04dc 233C1100 		sd	ra,24(sp)
 873 04e0 23388100 		sd	s0,16(sp)
 874 04e4 23349100 		sd	s1,8(sp)
 875 04e8 23302101 		sd	s2,0(sp)
 876              		.cfi_offset 1, -8
 877              		.cfi_offset 8, -16
 878              		.cfi_offset 9, -24
 879              		.cfi_offset 18, -32
 880 04ec 13040102 		addi	s0,sp,32
 881              		.cfi_def_cfa 8, 0
 882 04f0 13090500 		mv	s2,a0
 883 04f4 93840500 		mv	s1,a1
GAS LISTING /tmp/cctmPoEZ.s 			page 20


 195:src/kernel/slabAllocator.cpp ****     removeFromSlabList(slab, &cachep->slabs_partial);
 884              		.loc 1 195 5
 885              		.loc 1 195 23 is_stmt 0
 886 04f8 93050505 		addi	a1,a0,80
 887              	.LVL75:
 888 04fc 13850400 		mv	a0,s1
 889              	.LVL76:
 890 0500 97000000 		call	_Z18removeFromSlabListP6slab_sPS0_
 890      E7800000 
 891              	.LVL77:
 196:src/kernel/slabAllocator.cpp ****     insertIntoSlabList(slab, &cachep->slabs_empty);
 892              		.loc 1 196 5 is_stmt 1
 893              		.loc 1 196 23 is_stmt 0
 894 0508 93050904 		addi	a1,s2,64
 895 050c 13850400 		mv	a0,s1
 896 0510 97000000 		call	_Z18insertIntoSlabListP6slab_sPS0_
 896      E7800000 
 897              	.LVL78:
 197:src/kernel/slabAllocator.cpp **** }
 898              		.loc 1 197 1
 899 0518 83308101 		ld	ra,24(sp)
 900              		.cfi_restore 1
 901 051c 03340101 		ld	s0,16(sp)
 902              		.cfi_restore 8
 903              		.cfi_def_cfa 2, 32
 904 0520 83348100 		ld	s1,8(sp)
 905              		.cfi_restore 9
 906              	.LVL79:
 907 0524 03390100 		ld	s2,0(sp)
 908              		.cfi_restore 18
 909              	.LVL80:
 910 0528 13010102 		addi	sp,sp,32
 911              		.cfi_def_cfa_offset 0
 912 052c 67800000 		jr	ra
 913              		.cfi_endproc
 914              	.LFE19:
 916              		.align	2
 917              		.globl	_Z12allocateSlabP12kmem_cache_s
 919              	_Z12allocateSlabP12kmem_cache_s:
 920              	.LFB20:
 198:src/kernel/slabAllocator.cpp **** 
 199:src/kernel/slabAllocator.cpp **** void allocateSlab(kmem_cache_t* cachep)
 200:src/kernel/slabAllocator.cpp **** {
 921              		.loc 1 200 1 is_stmt 1
 922              		.cfi_startproc
 923              	.LVL81:
 924 0530 130101FD 		addi	sp,sp,-48
 925              		.cfi_def_cfa_offset 48
 926 0534 23341102 		sd	ra,40(sp)
 927 0538 23308102 		sd	s0,32(sp)
 928 053c 233C9100 		sd	s1,24(sp)
 929 0540 23382101 		sd	s2,16(sp)
 930 0544 23343101 		sd	s3,8(sp)
 931              		.cfi_offset 1, -8
 932              		.cfi_offset 8, -16
 933              		.cfi_offset 9, -24
 934              		.cfi_offset 18, -32
GAS LISTING /tmp/cctmPoEZ.s 			page 21


 935              		.cfi_offset 19, -40
 936 0548 13040103 		addi	s0,sp,48
 937              		.cfi_def_cfa 8, 0
 938 054c 93090500 		mv	s3,a0
 201:src/kernel/slabAllocator.cpp ****     slab_t* newSlab = (slab_t*)buddy_alloc(cachep->slab_size);
 939              		.loc 1 201 5
 940              		.loc 1 201 43 is_stmt 0
 941 0550 03358505 		ld	a0,88(a0)
 942              	.LVL82:
 943 0554 97000000 		call	_Z11buddy_allocm@plt
 943      E7800000 
 944              	.LVL83:
 202:src/kernel/slabAllocator.cpp ****     if(newSlab == nullptr)
 945              		.loc 1 202 5 is_stmt 1
 946 055c 6300050A 		beqz	a0,.L53
 947 0560 93040500 		mv	s1,a0
 203:src/kernel/slabAllocator.cpp ****         return;
 204:src/kernel/slabAllocator.cpp ****     newSlab->next = cachep->slabs_empty;
 948              		.loc 1 204 5
 949              		.loc 1 204 29 is_stmt 0
 950 0564 83B70904 		ld	a5,64(s3)
 951              		.loc 1 204 19
 952 0568 2334F500 		sd	a5,8(a0)
 205:src/kernel/slabAllocator.cpp ****     if(cachep->slabs_empty != nullptr)
 953              		.loc 1 205 5 is_stmt 1
 954 056c 63840700 		beqz	a5,.L55
 206:src/kernel/slabAllocator.cpp ****         cachep->slabs_empty->prev = newSlab;
 955              		.loc 1 206 9
 956              		.loc 1 206 35 is_stmt 0
 957 0570 23B0A700 		sd	a0,0(a5)
 958              	.LVL84:
 959              	.L55:
 207:src/kernel/slabAllocator.cpp ****     cachep->slabs_empty = newSlab;
 960              		.loc 1 207 5 is_stmt 1
 961              		.loc 1 207 25 is_stmt 0
 962 0574 23B09904 		sd	s1,64(s3)
 208:src/kernel/slabAllocator.cpp ****     newSlab->prev = nullptr;
 963              		.loc 1 208 5 is_stmt 1
 964              		.loc 1 208 19 is_stmt 0
 965 0578 23B00400 		sd	zero,0(s1)
 209:src/kernel/slabAllocator.cpp **** 
 210:src/kernel/slabAllocator.cpp ****     newSlab->numOfAllocatedObjects = 0;
 966              		.loc 1 210 5 is_stmt 1
 967              		.loc 1 210 36 is_stmt 0
 968 057c 23B00402 		sd	zero,32(s1)
 211:src/kernel/slabAllocator.cpp ****     newSlab->owner = cachep;
 969              		.loc 1 211 5 is_stmt 1
 970              		.loc 1 211 20 is_stmt 0
 971 0580 23B83401 		sd	s3,16(s1)
 212:src/kernel/slabAllocator.cpp ****     size_t sizeInBytes = cachep->slab_size*BLOCK_SIZE;
 972              		.loc 1 212 5 is_stmt 1
 973              		.loc 1 212 34 is_stmt 0
 974 0584 83B68905 		ld	a3,88(s3)
 975              		.loc 1 212 12
 976 0588 9396C600 		slli	a3,a3,12
 977              	.LVL85:
 213:src/kernel/slabAllocator.cpp ****     newSlab->numOfObjects = (sizeInBytes - sizeof(slab_t)) / cachep->obj_size; // TODO can this par
GAS LISTING /tmp/cctmPoEZ.s 			page 22


 978              		.loc 1 213 5 is_stmt 1
 979              		.loc 1 213 42 is_stmt 0
 980 058c 938606DD 		addi	a3,a3,-560
 981              	.LVL86:
 982              		.loc 1 213 70
 983 0590 83B70906 		ld	a5,96(s3)
 984              		.loc 1 213 60
 985 0594 B3D6F602 		divu	a3,a3,a5
 986              	.LVL87:
 987              		.loc 1 213 27
 988 0598 23BCD400 		sd	a3,24(s1)
 989              	.LVL88:
 214:src/kernel/slabAllocator.cpp ****     newSlab->startAddr = (void*)((size_t)newSlab + sizeof(slab_t));
 990              		.loc 1 214 5 is_stmt 1
 991              		.loc 1 214 50 is_stmt 0
 992 059c 93870423 		addi	a5,s1,560
 993              		.loc 1 214 24
 994 05a0 23B4F402 		sd	a5,40(s1)
 215:src/kernel/slabAllocator.cpp ****     for(size_t i = 0; i < (newSlab->numOfObjects + 7) / 8;i++)
 995              		.loc 1 215 5 is_stmt 1
 996              	.LVL89:
 997              	.LBB5:
 998              		.loc 1 215 16 is_stmt 0
 999 05a4 13070000 		li	a4,0
 1000              	.LVL90:
 1001              	.L57:
 1002              		.loc 1 215 25 is_stmt 1 discriminator 3
 1003              		.loc 1 215 50 is_stmt 0 discriminator 3
 1004 05a8 93877600 		addi	a5,a3,7
 1005              		.loc 1 215 55 discriminator 3
 1006 05ac 93D73700 		srli	a5,a5,3
 1007              		.loc 1 215 25 discriminator 3
 1008 05b0 637AF700 		bleu	a5,a4,.L56
 216:src/kernel/slabAllocator.cpp ****         newSlab->allocated[i] = 0;
 1009              		.loc 1 216 9 is_stmt 1 discriminator 2
 1010              		.loc 1 216 31 is_stmt 0 discriminator 2
 1011 05b4 B387E400 		add	a5,s1,a4
 1012 05b8 23880702 		sb	zero,48(a5)
 215:src/kernel/slabAllocator.cpp ****     for(size_t i = 0; i < (newSlab->numOfObjects + 7) / 8;i++)
 1013              		.loc 1 215 5 is_stmt 1 discriminator 2
 1014 05bc 13071700 		addi	a4,a4,1
 1015              	.LVL91:
 1016 05c0 6FF09FFE 		j	.L57
 1017              	.L56:
 1018              	.LBE5:
 217:src/kernel/slabAllocator.cpp **** 
 218:src/kernel/slabAllocator.cpp ****     if(cachep->ctor != nullptr)
 1019              		.loc 1 218 5
 1020              	.LBB6:
 1021              		.loc 1 218 16 is_stmt 0
 1022 05c4 83B78906 		ld	a5,104(s3)
 1023              		.loc 1 218 5
 1024 05c8 638A0702 		beqz	a5,.L53
 1025              	.LBB7:
 219:src/kernel/slabAllocator.cpp ****     {
 220:src/kernel/slabAllocator.cpp ****         for(size_t i = 0;i < newSlab->numOfObjects;i++)
 1026              		.loc 1 220 20
GAS LISTING /tmp/cctmPoEZ.s 			page 23


 1027 05cc 13090000 		li	s2,0
 1028              	.LVL92:
 1029              	.L58:
 1030              		.loc 1 220 28 is_stmt 1 discriminator 3
 1031              		.loc 1 220 39 is_stmt 0 discriminator 3
 1032 05d0 83B78401 		ld	a5,24(s1)
 1033              		.loc 1 220 28 discriminator 3
 1034 05d4 6374F902 		bleu	a5,s2,.L53
 221:src/kernel/slabAllocator.cpp ****             cachep->ctor((void*)((size_t)newSlab->startAddr + i*newSlab->owner->obj_size));
 1035              		.loc 1 221 13 is_stmt 1 discriminator 2
 1036              		.loc 1 221 21 is_stmt 0 discriminator 2
 1037 05d8 03B78906 		ld	a4,104(s3)
 1038              		.loc 1 221 51 discriminator 2
 1039 05dc 03B58402 		ld	a0,40(s1)
 1040              		.loc 1 221 74 discriminator 2
 1041 05e0 83B70401 		ld	a5,16(s1)
 1042              		.loc 1 221 81 discriminator 2
 1043 05e4 83B70706 		ld	a5,96(a5)
 1044              		.loc 1 221 64 discriminator 2
 1045 05e8 B3872703 		mul	a5,a5,s2
 1046              		.loc 1 221 25 discriminator 2
 1047 05ec 3305F500 		add	a0,a0,a5
 1048 05f0 E7000700 		jalr	a4
 1049              	.LVL93:
 220:src/kernel/slabAllocator.cpp ****             cachep->ctor((void*)((size_t)newSlab->startAddr + i*newSlab->owner->obj_size));
 1050              		.loc 1 220 9 is_stmt 1 discriminator 2
 1051 05f4 13091900 		addi	s2,s2,1
 1052              	.LVL94:
 1053 05f8 6FF09FFD 		j	.L58
 1054              	.LVL95:
 1055              	.L53:
 1056              	.LBE7:
 1057              	.LBE6:
 222:src/kernel/slabAllocator.cpp ****     }
 223:src/kernel/slabAllocator.cpp **** }
 1058              		.loc 1 223 1 is_stmt 0
 1059 05fc 83308102 		ld	ra,40(sp)
 1060              		.cfi_restore 1
 1061 0600 03340102 		ld	s0,32(sp)
 1062              		.cfi_restore 8
 1063              		.cfi_def_cfa 2, 48
 1064 0604 83348101 		ld	s1,24(sp)
 1065              		.cfi_restore 9
 1066 0608 03390101 		ld	s2,16(sp)
 1067              		.cfi_restore 18
 1068 060c 83398100 		ld	s3,8(sp)
 1069              		.cfi_restore 19
 1070              	.LVL96:
 1071 0610 13010103 		addi	sp,sp,48
 1072              		.cfi_def_cfa_offset 0
 1073 0614 67800000 		jr	ra
 1074              		.cfi_endproc
 1075              	.LFE20:
 1077              		.align	2
 1078              		.globl	_Z18getOptimalSlabSizem
 1080              	_Z18getOptimalSlabSizem:
 1081              	.LFB21:
GAS LISTING /tmp/cctmPoEZ.s 			page 24


 224:src/kernel/slabAllocator.cpp **** 
 225:src/kernel/slabAllocator.cpp **** size_t getOptimalSlabSize(size_t obj_size)
 226:src/kernel/slabAllocator.cpp **** {
 1082              		.loc 1 226 1 is_stmt 1
 1083              		.cfi_startproc
 1084              	.LVL97:
 1085 0618 130101FF 		addi	sp,sp,-16
 1086              		.cfi_def_cfa_offset 16
 1087 061c 23348100 		sd	s0,8(sp)
 1088              		.cfi_offset 8, -8
 1089 0620 13040101 		addi	s0,sp,16
 1090              		.cfi_def_cfa 8, 0
 227:src/kernel/slabAllocator.cpp ****     size_t bestSize = BLOCK_SIZE;
 1091              		.loc 1 227 5
 1092              	.LVL98:
 1093              		.loc 1 227 12 is_stmt 0
 1094 0624 37170000 		li	a4,4096
 1095              	.LVL99:
 1096              	.L62:
 228:src/kernel/slabAllocator.cpp ****     while(bestSize < obj_size + sizeof(slab_t))
 1097              		.loc 1 228 5 is_stmt 1
 1098              		.loc 1 228 20
 1099              		.loc 1 228 31 is_stmt 0
 1100 0628 93070523 		addi	a5,a0,560
 1101              		.loc 1 228 20
 1102 062c 6376F700 		bleu	a5,a4,.L61
 229:src/kernel/slabAllocator.cpp ****         bestSize<<=1;
 1103              		.loc 1 229 9 is_stmt 1
 1104              		.loc 1 229 17 is_stmt 0
 1105 0630 13171700 		slli	a4,a4,1
 1106              	.LVL100:
 228:src/kernel/slabAllocator.cpp ****     while(bestSize < obj_size + sizeof(slab_t))
 1107              		.loc 1 228 5
 1108 0634 6FF05FFF 		j	.L62
 1109              	.L61:
 230:src/kernel/slabAllocator.cpp ****     size_t optimalWaste = (bestSize - sizeof(slab_t)) % obj_size;
 1110              		.loc 1 230 5 is_stmt 1
 1111              		.loc 1 230 37 is_stmt 0
 1112 0638 130807DD 		addi	a6,a4,-560
 1113              		.loc 1 230 12
 1114 063c 3378A802 		remu	a6,a6,a0
 1115              	.LVL101:
 231:src/kernel/slabAllocator.cpp ****     size_t oldSize = bestSize;
 1116              		.loc 1 231 5 is_stmt 1
 232:src/kernel/slabAllocator.cpp **** 
 233:src/kernel/slabAllocator.cpp ****     static size_t lowerConst = 1;
 1117              		.loc 1 233 5
 234:src/kernel/slabAllocator.cpp ****     static size_t highConst = 4;
 1118              		.loc 1 234 5
 235:src/kernel/slabAllocator.cpp ****     for(size_t i = lowerConst;i<=highConst;i++)
 1119              		.loc 1 235 5
 230:src/kernel/slabAllocator.cpp ****     size_t oldSize = bestSize;
 1120              		.loc 1 230 12 is_stmt 0
 1121 0640 13030700 		mv	t1,a4
 1122              	.LBB8:
 1123              		.loc 1 235 16
 1124 0644 93061000 		li	a3,1
GAS LISTING /tmp/cctmPoEZ.s 			page 25


 1125 0648 6F008000 		j	.L65
 1126              	.LVL102:
 1127              	.L64:
 1128              		.loc 1 235 5 is_stmt 1 discriminator 2
 1129 064c 93861600 		addi	a3,a3,1
 1130              	.LVL103:
 1131              	.L65:
 1132              		.loc 1 235 32 discriminator 1
 1133 0650 93074000 		li	a5,4
 1134 0654 63E6D702 		bgtu	a3,a5,.L63
 1135              	.LBB9:
 236:src/kernel/slabAllocator.cpp ****     {
 237:src/kernel/slabAllocator.cpp ****         size_t newSize = oldSize << i;
 1136              		.loc 1 237 9
 1137              		.loc 1 237 16 is_stmt 0
 1138 0658 3316D700 		sll	a2,a4,a3
 1139              	.LVL104:
 238:src/kernel/slabAllocator.cpp ****         size_t newWaste = (newSize - sizeof(slab_t)) % obj_size;
 1140              		.loc 1 238 9 is_stmt 1
 1141              		.loc 1 238 36 is_stmt 0
 1142 065c 930706DD 		addi	a5,a2,-560
 1143              		.loc 1 238 16
 1144 0660 B3F5A702 		remu	a1,a5,a0
 1145              	.LVL105:
 239:src/kernel/slabAllocator.cpp ****         size_t numOfObjs = (newSize - sizeof(slab_t)) / obj_size;
 1146              		.loc 1 239 9 is_stmt 1
 1147              		.loc 1 239 16 is_stmt 0
 1148 0664 B3D7A702 		divu	a5,a5,a0
 1149              	.LVL106:
 240:src/kernel/slabAllocator.cpp ****         if(newWaste < optimalWaste && numOfObjs <= MAX_NUM_OF_OBJS)
 1150              		.loc 1 240 9 is_stmt 1
 1151 0668 E3F205FF 		bleu	a6,a1,.L64
 1152              		.loc 1 240 36 is_stmt 0 discriminator 1
 1153 066c B7180000 		li	a7,4096
 1154 0670 E3EEF8FC 		bgtu	a5,a7,.L64
 241:src/kernel/slabAllocator.cpp ****         {
 242:src/kernel/slabAllocator.cpp ****             optimalWaste = newWaste;
 1155              		.loc 1 242 26
 1156 0674 13880500 		mv	a6,a1
 1157              	.LVL107:
 243:src/kernel/slabAllocator.cpp ****             bestSize = newSize;
 1158              		.loc 1 243 22
 1159 0678 13030600 		mv	t1,a2
 1160              	.LVL108:
 1161 067c 6FF01FFD 		j	.L64
 1162              	.LVL109:
 1163              	.L63:
 1164              	.LBE9:
 1165              	.LBE8:
 244:src/kernel/slabAllocator.cpp ****         }
 245:src/kernel/slabAllocator.cpp ****     }
 246:src/kernel/slabAllocator.cpp ****     /*for(size_t i = lowerConst;i<=highConst;i++)
 247:src/kernel/slabAllocator.cpp ****     {
 248:src/kernel/slabAllocator.cpp ****         size_t newSize = oldSize + i*BLOCK_SIZE;
 249:src/kernel/slabAllocator.cpp ****         size_t newWaste = (newSize - sizeof(slab_t)) % obj_size;
 250:src/kernel/slabAllocator.cpp ****         size_t numOfObjs = (newSize - sizeof(slab_t)) / obj_size;
 251:src/kernel/slabAllocator.cpp ****         if(newWaste < optimalWaste && numOfObjs <= MAX_NUM_OF_OBJS)
GAS LISTING /tmp/cctmPoEZ.s 			page 26


 252:src/kernel/slabAllocator.cpp ****         {
 253:src/kernel/slabAllocator.cpp ****             optimalWaste = newWaste;
 254:src/kernel/slabAllocator.cpp ****             bestSize = newSize;
 255:src/kernel/slabAllocator.cpp ****         }
 256:src/kernel/slabAllocator.cpp ****     }*/
 257:src/kernel/slabAllocator.cpp **** 
 258:src/kernel/slabAllocator.cpp ****     return bestSize / BLOCK_SIZE;
 1166              		.loc 1 258 5 is_stmt 1
 259:src/kernel/slabAllocator.cpp **** }
 1167              		.loc 1 259 1 is_stmt 0
 1168 0680 1355C300 		srli	a0,t1,12
 1169              	.LVL110:
 1170 0684 03348100 		ld	s0,8(sp)
 1171              		.cfi_restore 8
 1172              		.cfi_def_cfa 2, 16
 1173 0688 13010101 		addi	sp,sp,16
 1174              		.cfi_def_cfa_offset 0
 1175 068c 67800000 		jr	ra
 1176              		.cfi_endproc
 1177              	.LFE21:
 1179              		.align	2
 1180              		.globl	_Z8findSlabP12kmem_cache_sPKv
 1182              	_Z8findSlabP12kmem_cache_sPKv:
 1183              	.LFB22:
 260:src/kernel/slabAllocator.cpp **** 
 261:src/kernel/slabAllocator.cpp **** //finds the slab where objp is
 262:src/kernel/slabAllocator.cpp **** slab_t* findSlab(kmem_cache_t* cachep, const void* objp)
 263:src/kernel/slabAllocator.cpp **** {
 1184              		.loc 1 263 1 is_stmt 1
 1185              		.cfi_startproc
 1186              	.LVL111:
 1187 0690 130101FF 		addi	sp,sp,-16
 1188              		.cfi_def_cfa_offset 16
 1189 0694 23348100 		sd	s0,8(sp)
 1190              		.cfi_offset 8, -8
 1191 0698 13040101 		addi	s0,sp,16
 1192              		.cfi_def_cfa 8, 0
 1193 069c 13060500 		mv	a2,a0
 264:src/kernel/slabAllocator.cpp ****     if(cachep == nullptr || objp == nullptr)
 1194              		.loc 1 264 5
 1195 06a0 630C0502 		beqz	a0,.L68
 1196              		.loc 1 264 26 is_stmt 0 discriminator 1
 1197 06a4 638A0506 		beqz	a1,.L76
 265:src/kernel/slabAllocator.cpp ****         return nullptr;
 266:src/kernel/slabAllocator.cpp ****     slab_t* slab = cachep->slabs_full;
 1198              		.loc 1 266 5 is_stmt 1
 1199              		.loc 1 266 13 is_stmt 0
 1200 06a8 03358504 		ld	a0,72(a0)
 1201              	.LVL112:
 1202 06ac 6F008000 		j	.L72
 1203              	.LVL113:
 1204              	.L71:
 1205              	.LBB10:
 267:src/kernel/slabAllocator.cpp ****     while(slab != nullptr)
 268:src/kernel/slabAllocator.cpp ****     {
 269:src/kernel/slabAllocator.cpp ****         size_t endAddr = (size_t)slab->startAddr + slab->numOfObjects*slab->owner->obj_size;
 270:src/kernel/slabAllocator.cpp ****         if((size_t)objp >= (size_t)slab->startAddr && (size_t)objp < endAddr)
GAS LISTING /tmp/cctmPoEZ.s 			page 27


 271:src/kernel/slabAllocator.cpp ****             return slab;
 272:src/kernel/slabAllocator.cpp ****         slab = slab->next;
 1206              		.loc 1 272 9 is_stmt 1
 1207              		.loc 1 272 14 is_stmt 0
 1208 06b0 03358500 		ld	a0,8(a0)
 1209              	.LVL114:
 1210              	.L72:
 1211              	.LBE10:
 267:src/kernel/slabAllocator.cpp ****     while(slab != nullptr)
 1212              		.loc 1 267 5 is_stmt 1
 267:src/kernel/slabAllocator.cpp ****     while(slab != nullptr)
 1213              		.loc 1 267 16
 1214 06b4 63080502 		beqz	a0,.L70
 1215              	.LBB11:
 269:src/kernel/slabAllocator.cpp ****         if((size_t)objp >= (size_t)slab->startAddr && (size_t)objp < endAddr)
 1216              		.loc 1 269 9
 269:src/kernel/slabAllocator.cpp ****         if((size_t)objp >= (size_t)slab->startAddr && (size_t)objp < endAddr)
 1217              		.loc 1 269 40 is_stmt 0
 1218 06b8 03378502 		ld	a4,40(a0)
 269:src/kernel/slabAllocator.cpp ****         if((size_t)objp >= (size_t)slab->startAddr && (size_t)objp < endAddr)
 1219              		.loc 1 269 58
 1220 06bc 83378501 		ld	a5,24(a0)
 269:src/kernel/slabAllocator.cpp ****         if((size_t)objp >= (size_t)slab->startAddr && (size_t)objp < endAddr)
 1221              		.loc 1 269 77
 1222 06c0 83360501 		ld	a3,16(a0)
 269:src/kernel/slabAllocator.cpp ****         if((size_t)objp >= (size_t)slab->startAddr && (size_t)objp < endAddr)
 1223              		.loc 1 269 84
 1224 06c4 83B60606 		ld	a3,96(a3)
 269:src/kernel/slabAllocator.cpp ****         if((size_t)objp >= (size_t)slab->startAddr && (size_t)objp < endAddr)
 1225              		.loc 1 269 70
 1226 06c8 B387D702 		mul	a5,a5,a3
 269:src/kernel/slabAllocator.cpp ****         if((size_t)objp >= (size_t)slab->startAddr && (size_t)objp < endAddr)
 1227              		.loc 1 269 16
 1228 06cc B307F700 		add	a5,a4,a5
 1229              	.LVL115:
 270:src/kernel/slabAllocator.cpp ****             return slab;
 1230              		.loc 1 270 9 is_stmt 1
 1231 06d0 E3E0E5FE 		bgtu	a4,a1,.L71
 270:src/kernel/slabAllocator.cpp ****             return slab;
 1232              		.loc 1 270 52 is_stmt 0 discriminator 1
 1233 06d4 E3FEF5FC 		bgeu	a1,a5,.L71
 1234              	.LVL116:
 1235              	.L68:
 1236              	.LBE11:
 273:src/kernel/slabAllocator.cpp ****     }
 274:src/kernel/slabAllocator.cpp **** 
 275:src/kernel/slabAllocator.cpp ****     slab = cachep->slabs_partial;
 276:src/kernel/slabAllocator.cpp ****     while(slab != nullptr)
 277:src/kernel/slabAllocator.cpp ****     {
 278:src/kernel/slabAllocator.cpp ****         size_t endAddr = (size_t)slab->startAddr + slab->numOfObjects*slab->owner->obj_size;
 279:src/kernel/slabAllocator.cpp ****         if((size_t)objp >= (size_t)slab->startAddr && (size_t)objp < endAddr)
 280:src/kernel/slabAllocator.cpp ****             return slab;
 281:src/kernel/slabAllocator.cpp ****         slab = slab->next;
 282:src/kernel/slabAllocator.cpp ****     }
 283:src/kernel/slabAllocator.cpp **** 
 284:src/kernel/slabAllocator.cpp ****     return nullptr;
 285:src/kernel/slabAllocator.cpp **** }
GAS LISTING /tmp/cctmPoEZ.s 			page 28


 1237              		.loc 1 285 1
 1238 06d8 03348100 		ld	s0,8(sp)
 1239              		.cfi_remember_state
 1240              		.cfi_restore 8
 1241              		.cfi_def_cfa 2, 16
 1242 06dc 13010101 		addi	sp,sp,16
 1243              		.cfi_def_cfa_offset 0
 1244 06e0 67800000 		jr	ra
 1245              	.LVL117:
 1246              	.L70:
 1247              		.cfi_restore_state
 275:src/kernel/slabAllocator.cpp ****     while(slab != nullptr)
 1248              		.loc 1 275 5 is_stmt 1
 275:src/kernel/slabAllocator.cpp ****     while(slab != nullptr)
 1249              		.loc 1 275 10 is_stmt 0
 1250 06e4 03350605 		ld	a0,80(a2)
 1251              	.LVL118:
 1252 06e8 6F008000 		j	.L74
 1253              	.LVL119:
 1254              	.L73:
 1255              	.LBB12:
 281:src/kernel/slabAllocator.cpp ****     }
 1256              		.loc 1 281 9 is_stmt 1
 281:src/kernel/slabAllocator.cpp ****     }
 1257              		.loc 1 281 14 is_stmt 0
 1258 06ec 03358500 		ld	a0,8(a0)
 1259              	.LVL120:
 1260              	.L74:
 1261              	.LBE12:
 276:src/kernel/slabAllocator.cpp ****     {
 1262              		.loc 1 276 5 is_stmt 1
 276:src/kernel/slabAllocator.cpp ****     {
 1263              		.loc 1 276 16
 1264 06f0 E30405FE 		beqz	a0,.L68
 1265              	.LBB13:
 278:src/kernel/slabAllocator.cpp ****         if((size_t)objp >= (size_t)slab->startAddr && (size_t)objp < endAddr)
 1266              		.loc 1 278 9
 278:src/kernel/slabAllocator.cpp ****         if((size_t)objp >= (size_t)slab->startAddr && (size_t)objp < endAddr)
 1267              		.loc 1 278 40 is_stmt 0
 1268 06f4 03378502 		ld	a4,40(a0)
 278:src/kernel/slabAllocator.cpp ****         if((size_t)objp >= (size_t)slab->startAddr && (size_t)objp < endAddr)
 1269              		.loc 1 278 58
 1270 06f8 83378501 		ld	a5,24(a0)
 278:src/kernel/slabAllocator.cpp ****         if((size_t)objp >= (size_t)slab->startAddr && (size_t)objp < endAddr)
 1271              		.loc 1 278 77
 1272 06fc 83360501 		ld	a3,16(a0)
 278:src/kernel/slabAllocator.cpp ****         if((size_t)objp >= (size_t)slab->startAddr && (size_t)objp < endAddr)
 1273              		.loc 1 278 84
 1274 0700 83B60606 		ld	a3,96(a3)
 278:src/kernel/slabAllocator.cpp ****         if((size_t)objp >= (size_t)slab->startAddr && (size_t)objp < endAddr)
 1275              		.loc 1 278 70
 1276 0704 B387D702 		mul	a5,a5,a3
 278:src/kernel/slabAllocator.cpp ****         if((size_t)objp >= (size_t)slab->startAddr && (size_t)objp < endAddr)
 1277              		.loc 1 278 16
 1278 0708 B307F700 		add	a5,a4,a5
 1279              	.LVL121:
 279:src/kernel/slabAllocator.cpp ****             return slab;
GAS LISTING /tmp/cctmPoEZ.s 			page 29


 1280              		.loc 1 279 9 is_stmt 1
 1281 070c E3E0E5FE 		bgtu	a4,a1,.L73
 279:src/kernel/slabAllocator.cpp ****             return slab;
 1282              		.loc 1 279 52 is_stmt 0 discriminator 1
 1283 0710 E3FEF5FC 		bgeu	a1,a5,.L73
 1284 0714 6FF05FFC 		j	.L68
 1285              	.LVL122:
 1286              	.L76:
 1287              	.LBE13:
 265:src/kernel/slabAllocator.cpp ****     slab_t* slab = cachep->slabs_full;
 1288              		.loc 1 265 16
 1289 0718 13850500 		mv	a0,a1
 1290              	.LVL123:
 1291 071c 6FF0DFFB 		j	.L68
 1292              		.cfi_endproc
 1293              	.LFE22:
 1295              		.align	2
 1296              		.globl	_Z19resetAllocatedIndexP6slab_si
 1298              	_Z19resetAllocatedIndexP6slab_si:
 1299              	.LFB23:
 286:src/kernel/slabAllocator.cpp **** 
 287:src/kernel/slabAllocator.cpp **** void resetAllocatedIndex(slab_t* slab, int index)
 288:src/kernel/slabAllocator.cpp **** {
 1300              		.loc 1 288 1 is_stmt 1
 1301              		.cfi_startproc
 1302              	.LVL124:
 1303 0720 130101FF 		addi	sp,sp,-16
 1304              		.cfi_def_cfa_offset 16
 1305 0724 23348100 		sd	s0,8(sp)
 1306              		.cfi_offset 8, -8
 1307 0728 13040101 		addi	s0,sp,16
 1308              		.cfi_def_cfa 8, 0
 289:src/kernel/slabAllocator.cpp ****     slab->allocated[index / 8]=(uint8)slab->allocated[index/8] & ~(1 << (index%8));
 1309              		.loc 1 289 5
 1310              		.loc 1 289 60 is_stmt 0
 1311 072c 9BD7F541 		sraiw	a5,a1,31
 1312 0730 9BD7D701 		srliw	a5,a5,29
 1313 0734 BB85B700 		addw	a1,a5,a1
 1314              	.LVL125:
 1315 0738 1BD73540 		sraiw	a4,a1,3
 1316              		.loc 1 289 62
 1317 073c 3305E500 		add	a0,a0,a4
 1318              	.LVL126:
 1319              		.loc 1 289 32
 1320 0740 03070503 		lb	a4,48(a0)
 1321              		.loc 1 289 79
 1322 0744 93F57500 		andi	a1,a1,7
 1323 0748 BB85F540 		subw	a1,a1,a5
 1324              		.loc 1 289 70
 1325 074c 93071000 		li	a5,1
 1326 0750 BB95B700 		sllw	a1,a5,a1
 1327              		.loc 1 289 64
 1328 0754 93C5F5FF 		not	a1,a1
 1329 0758 B375B700 		and	a1,a4,a1
 1330              		.loc 1 289 31
 1331 075c 2308B502 		sb	a1,48(a0)
 290:src/kernel/slabAllocator.cpp **** }
GAS LISTING /tmp/cctmPoEZ.s 			page 30


 1332              		.loc 1 290 1
 1333 0760 03348100 		ld	s0,8(sp)
 1334              		.cfi_restore 8
 1335              		.cfi_def_cfa 2, 16
 1336 0764 13010101 		addi	sp,sp,16
 1337              		.cfi_def_cfa_offset 0
 1338 0768 67800000 		jr	ra
 1339              		.cfi_endproc
 1340              	.LFE23:
 1342              		.section	.rodata.str1.8
 1343              		.align	3
 1344              	.LC1:
 1345 0010 4F6E6520 		.string	"One slab info---------\n"
 1345      736C6162 
 1345      20696E66 
 1345      6F2D2D2D 
 1345      2D2D2D2D 
 1346              		.align	3
 1347              	.LC2:
 1348 0028 536C6162 		.string	"Slab address "
 1348      20616464 
 1348      72657373 
 1348      2000
 1349 0036 0000     		.align	3
 1350              	.LC3:
 1351 0038 4E756D62 		.string	"Number of allocated objects "
 1351      6572206F 
 1351      6620616C 
 1351      6C6F6361 
 1351      74656420 
 1352 0055 000000   		.align	3
 1353              	.LC4:
 1354 0058 4E756D62 		.string	"Number of objects "
 1354      6572206F 
 1354      66206F62 
 1354      6A656374 
 1354      732000
 1355 006b 00000000 		.align	3
 1355      00
 1356              	.LC5:
 1357 0070 536C6162 		.string	"Slab start addr "
 1357      20737461 
 1357      72742061 
 1357      64647220 
 1357      00
 1358              		.text
 1359              		.align	2
 1360              		.globl	_Z13printSlabInfoP6slab_s
 1362              	_Z13printSlabInfoP6slab_s:
 1363              	.LFB24:
 291:src/kernel/slabAllocator.cpp **** 
 292:src/kernel/slabAllocator.cpp **** void printSlabInfo(slab_t* slab)
 293:src/kernel/slabAllocator.cpp **** {
 1364              		.loc 1 293 1 is_stmt 1
 1365              		.cfi_startproc
 1366              	.LVL127:
 1367 076c 130101FE 		addi	sp,sp,-32
GAS LISTING /tmp/cctmPoEZ.s 			page 31


 1368              		.cfi_def_cfa_offset 32
 1369 0770 233C1100 		sd	ra,24(sp)
 1370 0774 23388100 		sd	s0,16(sp)
 1371 0778 23349100 		sd	s1,8(sp)
 1372              		.cfi_offset 1, -8
 1373              		.cfi_offset 8, -16
 1374              		.cfi_offset 9, -24
 1375 077c 13040102 		addi	s0,sp,32
 1376              		.cfi_def_cfa 8, 0
 1377 0780 93040500 		mv	s1,a0
 294:src/kernel/slabAllocator.cpp ****     KConsole::trapPrintString("One slab info---------\n");
 1378              		.loc 1 294 5
 1379              		.loc 1 294 30 is_stmt 0
 1380 0784 17050000 		lla	a0,.LC1
 1380      13050500 
 1381              	.LVL128:
 1382 078c 97000000 		call	_ZN8KConsole15trapPrintStringEPKc@plt
 1382      E7800000 
 1383              	.LVL129:
 295:src/kernel/slabAllocator.cpp ****     KConsole::trapPrintStringInt("Slab address ",(size_t)slab,16);
 1384              		.loc 1 295 5 is_stmt 1
 1385              		.loc 1 295 33 is_stmt 0
 1386 0794 13060001 		li	a2,16
 1387 0798 93850400 		mv	a1,s1
 1388 079c 17050000 		lla	a0,.LC2
 1388      13050500 
 1389 07a4 97000000 		call	_ZN8KConsole18trapPrintStringIntEPKcmi@plt
 1389      E7800000 
 1390              	.LVL130:
 296:src/kernel/slabAllocator.cpp ****     KConsole::trapPrintStringInt("Number of allocated objects ",slab->numOfAllocatedObjects);
 1391              		.loc 1 296 5 is_stmt 1
 1392              		.loc 1 296 33 is_stmt 0
 1393 07ac 1306A000 		li	a2,10
 1394 07b0 83B50402 		ld	a1,32(s1)
 1395 07b4 17050000 		lla	a0,.LC3
 1395      13050500 
 1396 07bc 97000000 		call	_ZN8KConsole18trapPrintStringIntEPKcmi@plt
 1396      E7800000 
 1397              	.LVL131:
 297:src/kernel/slabAllocator.cpp ****     KConsole::trapPrintStringInt("Number of objects ", slab->numOfObjects);
 1398              		.loc 1 297 5 is_stmt 1
 1399              		.loc 1 297 33 is_stmt 0
 1400 07c4 1306A000 		li	a2,10
 1401 07c8 83B58401 		ld	a1,24(s1)
 1402 07cc 17050000 		lla	a0,.LC4
 1402      13050500 
 1403 07d4 97000000 		call	_ZN8KConsole18trapPrintStringIntEPKcmi@plt
 1403      E7800000 
 1404              	.LVL132:
 298:src/kernel/slabAllocator.cpp ****     KConsole::trapPrintStringInt("Slab start addr ", (size_t)slab->startAddr, 16);
 1405              		.loc 1 298 5 is_stmt 1
 1406              		.loc 1 298 33 is_stmt 0
 1407 07dc 13060001 		li	a2,16
 1408 07e0 83B58402 		ld	a1,40(s1)
 1409 07e4 17050000 		lla	a0,.LC5
 1409      13050500 
 1410 07ec 97000000 		call	_ZN8KConsole18trapPrintStringIntEPKcmi@plt
GAS LISTING /tmp/cctmPoEZ.s 			page 32


 1410      E7800000 
 1411              	.LVL133:
 299:src/kernel/slabAllocator.cpp ****     /*for(size_t i = 0;i < (slab->numOfObjects + 7) / 8;i++)
 300:src/kernel/slabAllocator.cpp ****     {
 301:src/kernel/slabAllocator.cpp ****         KConsole::trapPrintInt(i);
 302:src/kernel/slabAllocator.cpp ****         KConsole::trapPrintString(" : ");
 303:src/kernel/slabAllocator.cpp ****         KConsole::trapPrintInt((size_t)slab->allocated[i], 16);
 304:src/kernel/slabAllocator.cpp ****         KConsole::trapPrintString("\n");
 305:src/kernel/slabAllocator.cpp ****     }*/
 306:src/kernel/slabAllocator.cpp **** }
 1412              		.loc 1 306 1
 1413 07f4 83308101 		ld	ra,24(sp)
 1414              		.cfi_restore 1
 1415 07f8 03340101 		ld	s0,16(sp)
 1416              		.cfi_restore 8
 1417              		.cfi_def_cfa 2, 32
 1418 07fc 83348100 		ld	s1,8(sp)
 1419              		.cfi_restore 9
 1420              	.LVL134:
 1421 0800 13010102 		addi	sp,sp,32
 1422              		.cfi_def_cfa_offset 0
 1423 0804 67800000 		jr	ra
 1424              		.cfi_endproc
 1425              	.LFE24:
 1427              		.align	2
 1428              		.globl	_Z16free_slab_objectP6slab_sPKv
 1430              	_Z16free_slab_objectP6slab_sPKv:
 1431              	.LFB25:
 307:src/kernel/slabAllocator.cpp **** 
 308:src/kernel/slabAllocator.cpp **** void free_slab_object(slab_t* slab, const void* objp)
 309:src/kernel/slabAllocator.cpp **** {
 1432              		.loc 1 309 1 is_stmt 1
 1433              		.cfi_startproc
 1434              	.LVL135:
 310:src/kernel/slabAllocator.cpp ****     if(slab == nullptr || objp == nullptr)
 1435              		.loc 1 310 5
 1436 0808 63080512 		beqz	a0,.L89
 309:src/kernel/slabAllocator.cpp ****     if(slab == nullptr || objp == nullptr)
 1437              		.loc 1 309 1 is_stmt 0 discriminator 1
 1438 080c 130101FD 		addi	sp,sp,-48
 1439              		.cfi_def_cfa_offset 48
 1440 0810 23341102 		sd	ra,40(sp)
 1441 0814 23308102 		sd	s0,32(sp)
 1442 0818 233C9100 		sd	s1,24(sp)
 1443 081c 23382101 		sd	s2,16(sp)
 1444 0820 23343101 		sd	s3,8(sp)
 1445 0824 23304101 		sd	s4,0(sp)
 1446              		.cfi_offset 1, -8
 1447              		.cfi_offset 8, -16
 1448              		.cfi_offset 9, -24
 1449              		.cfi_offset 18, -32
 1450              		.cfi_offset 19, -40
 1451              		.cfi_offset 20, -48
 1452 0828 13040103 		addi	s0,sp,48
 1453              		.cfi_def_cfa 8, 0
 1454 082c 93040500 		mv	s1,a0
 1455 0830 13890500 		mv	s2,a1
GAS LISTING /tmp/cctmPoEZ.s 			page 33


 1456              		.loc 1 310 24 discriminator 1
 1457 0834 63820508 		beqz	a1,.L82
 311:src/kernel/slabAllocator.cpp ****         return;
 312:src/kernel/slabAllocator.cpp ****     int indexOfObject = ((size_t)objp - (size_t)slab->startAddr) / slab->owner->obj_size;
 1458              		.loc 1 312 5 is_stmt 1
 1459              		.loc 1 312 55 is_stmt 0
 1460 0838 83378502 		ld	a5,40(a0)
 1461              		.loc 1 312 39
 1462 083c B389F540 		sub	s3,a1,a5
 1463              		.loc 1 312 74
 1464 0840 033A0501 		ld	s4,16(a0)
 1465              		.loc 1 312 81
 1466 0844 03370A06 		ld	a4,96(s4)
 1467              		.loc 1 312 66
 1468 0848 B3D9E902 		divu	s3,s3,a4
 1469              		.loc 1 312 9
 1470 084c 9B890900 		sext.w	s3,s3
 1471              	.LVL136:
 313:src/kernel/slabAllocator.cpp ****     if((size_t)objp != (size_t)slab->startAddr + indexOfObject*slab->owner->obj_size) //address not
 1472              		.loc 1 313 5 is_stmt 1
 1473              		.loc 1 313 63 is_stmt 0
 1474 0850 33073703 		mul	a4,a4,s3
 1475              		.loc 1 313 48
 1476 0854 B387E700 		add	a5,a5,a4
 1477              		.loc 1 313 5
 1478 0858 6390F506 		bne	a1,a5,.L82
 314:src/kernel/slabAllocator.cpp ****         return;
 315:src/kernel/slabAllocator.cpp **** 
 316:src/kernel/slabAllocator.cpp ****     if(!checkSetIndex(slab, indexOfObject))
 1479              		.loc 1 316 5 is_stmt 1
 1480              		.loc 1 316 22 is_stmt 0
 1481 085c 93850900 		mv	a1,s3
 1482              	.LVL137:
 1483 0860 97000000 		call	_Z13checkSetIndexP6slab_si
 1483      E7800000 
 1484              	.LVL138:
 1485              		.loc 1 316 5
 1486 0868 63080504 		beqz	a0,.L82
 317:src/kernel/slabAllocator.cpp ****         return;
 318:src/kernel/slabAllocator.cpp **** 
 319:src/kernel/slabAllocator.cpp ****     kmem_cache_t* cachep = slab->owner;
 1487              		.loc 1 319 5 is_stmt 1
 1488              	.LVL139:
 320:src/kernel/slabAllocator.cpp ****     if(cachep->dtor != nullptr)
 1489              		.loc 1 320 5
 1490              		.loc 1 320 16 is_stmt 0
 1491 086c 83370A07 		ld	a5,112(s4)
 1492              		.loc 1 320 5
 1493 0870 63860700 		beqz	a5,.L84
 321:src/kernel/slabAllocator.cpp ****         cachep->dtor((void*)objp);
 1494              		.loc 1 321 9 is_stmt 1
 1495              		.loc 1 321 21 is_stmt 0
 1496 0874 13050900 		mv	a0,s2
 1497 0878 E7800700 		jalr	a5
 1498              	.LVL140:
 1499              	.L84:
 322:src/kernel/slabAllocator.cpp ****     if(cachep->ctor != nullptr)
GAS LISTING /tmp/cctmPoEZ.s 			page 34


 1500              		.loc 1 322 5 is_stmt 1
 1501              		.loc 1 322 16 is_stmt 0
 1502 087c 83378A06 		ld	a5,104(s4)
 1503              		.loc 1 322 5
 1504 0880 63860700 		beqz	a5,.L85
 323:src/kernel/slabAllocator.cpp ****         cachep->ctor((void*)objp);
 1505              		.loc 1 323 9 is_stmt 1
 1506              		.loc 1 323 21 is_stmt 0
 1507 0884 13050900 		mv	a0,s2
 1508 0888 E7800700 		jalr	a5
 1509              	.LVL141:
 1510              	.L85:
 324:src/kernel/slabAllocator.cpp **** 
 325:src/kernel/slabAllocator.cpp ****     resetAllocatedIndex(slab, indexOfObject);
 1511              		.loc 1 325 5 is_stmt 1
 1512              		.loc 1 325 24 is_stmt 0
 1513 088c 93850900 		mv	a1,s3
 1514 0890 13850400 		mv	a0,s1
 1515 0894 97000000 		call	_Z19resetAllocatedIndexP6slab_si
 1515      E7800000 
 1516              	.LVL142:
 326:src/kernel/slabAllocator.cpp ****     if(slab->numOfObjects == slab->numOfAllocatedObjects)
 1517              		.loc 1 326 5 is_stmt 1
 1518              		.loc 1 326 14 is_stmt 0
 1519 089c 03B78401 		ld	a4,24(s1)
 1520              		.loc 1 326 36
 1521 08a0 83B70402 		ld	a5,32(s1)
 1522              		.loc 1 326 5
 1523 08a4 630AF702 		beq	a4,a5,.L92
 327:src/kernel/slabAllocator.cpp ****     {
 328:src/kernel/slabAllocator.cpp ****         removeFullSlab(slab->owner, slab);
 329:src/kernel/slabAllocator.cpp ****         slab->numOfAllocatedObjects--;
 330:src/kernel/slabAllocator.cpp ****         if(empty(slab))
 331:src/kernel/slabAllocator.cpp ****             removePartialSlab(slab->owner, slab);
 332:src/kernel/slabAllocator.cpp ****     }
 333:src/kernel/slabAllocator.cpp ****     else if(slab->numOfAllocatedObjects == 1)
 1524              		.loc 1 333 10 is_stmt 1
 1525 08a8 13071000 		li	a4,1
 1526 08ac 6386E706 		beq	a5,a4,.L93
 334:src/kernel/slabAllocator.cpp ****     {
 335:src/kernel/slabAllocator.cpp ****         removePartialSlab(slab->owner, slab);
 336:src/kernel/slabAllocator.cpp ****         slab->numOfAllocatedObjects--;
 337:src/kernel/slabAllocator.cpp ****     }
 338:src/kernel/slabAllocator.cpp ****     else
 339:src/kernel/slabAllocator.cpp ****         slab->numOfAllocatedObjects--;
 1527              		.loc 1 339 9
 1528              		.loc 1 339 36 is_stmt 0
 1529 08b0 9387F7FF 		addi	a5,a5,-1
 1530 08b4 23B0F402 		sd	a5,32(s1)
 1531              	.LVL143:
 1532              	.L82:
 340:src/kernel/slabAllocator.cpp **** }
 1533              		.loc 1 340 1
 1534 08b8 83308102 		ld	ra,40(sp)
 1535              		.cfi_remember_state
 1536              		.cfi_restore 1
 1537 08bc 03340102 		ld	s0,32(sp)
GAS LISTING /tmp/cctmPoEZ.s 			page 35


 1538              		.cfi_restore 8
 1539              		.cfi_def_cfa 2, 48
 1540 08c0 83348101 		ld	s1,24(sp)
 1541              		.cfi_restore 9
 1542              	.LVL144:
 1543 08c4 03390101 		ld	s2,16(sp)
 1544              		.cfi_restore 18
 1545              	.LVL145:
 1546 08c8 83398100 		ld	s3,8(sp)
 1547              		.cfi_restore 19
 1548 08cc 033A0100 		ld	s4,0(sp)
 1549              		.cfi_restore 20
 1550 08d0 13010103 		addi	sp,sp,48
 1551              		.cfi_def_cfa_offset 0
 1552 08d4 67800000 		jr	ra
 1553              	.LVL146:
 1554              	.L92:
 1555              		.cfi_restore_state
 328:src/kernel/slabAllocator.cpp ****         slab->numOfAllocatedObjects--;
 1556              		.loc 1 328 9 is_stmt 1
 328:src/kernel/slabAllocator.cpp ****         slab->numOfAllocatedObjects--;
 1557              		.loc 1 328 23 is_stmt 0
 1558 08d8 93850400 		mv	a1,s1
 1559 08dc 03B50401 		ld	a0,16(s1)
 1560 08e0 97000000 		call	_Z14removeFullSlabP12kmem_cache_sP6slab_s
 1560      E7800000 
 1561              	.LVL147:
 329:src/kernel/slabAllocator.cpp ****         if(empty(slab))
 1562              		.loc 1 329 9 is_stmt 1
 329:src/kernel/slabAllocator.cpp ****         if(empty(slab))
 1563              		.loc 1 329 15 is_stmt 0
 1564 08e8 83B70402 		ld	a5,32(s1)
 329:src/kernel/slabAllocator.cpp ****         if(empty(slab))
 1565              		.loc 1 329 36
 1566 08ec 9387F7FF 		addi	a5,a5,-1
 1567 08f0 23B0F402 		sd	a5,32(s1)
 330:src/kernel/slabAllocator.cpp ****             removePartialSlab(slab->owner, slab);
 1568              		.loc 1 330 9 is_stmt 1
 330:src/kernel/slabAllocator.cpp ****             removePartialSlab(slab->owner, slab);
 1569              		.loc 1 330 17 is_stmt 0
 1570 08f4 13850400 		mv	a0,s1
 1571 08f8 97000000 		call	_Z5emptyP6slab_s
 1571      E7800000 
 1572              	.LVL148:
 330:src/kernel/slabAllocator.cpp ****             removePartialSlab(slab->owner, slab);
 1573              		.loc 1 330 9
 1574 0900 E30C05FA 		beqz	a0,.L82
 331:src/kernel/slabAllocator.cpp ****     }
 1575              		.loc 1 331 13 is_stmt 1
 331:src/kernel/slabAllocator.cpp ****     }
 1576              		.loc 1 331 30 is_stmt 0
 1577 0904 93850400 		mv	a1,s1
 1578 0908 03B50401 		ld	a0,16(s1)
 1579 090c 97000000 		call	_Z17removePartialSlabP12kmem_cache_sP6slab_s
 1579      E7800000 
 1580              	.LVL149:
 1581 0914 6FF05FFA 		j	.L82
GAS LISTING /tmp/cctmPoEZ.s 			page 36


 1582              	.L93:
 335:src/kernel/slabAllocator.cpp ****         slab->numOfAllocatedObjects--;
 1583              		.loc 1 335 9 is_stmt 1
 335:src/kernel/slabAllocator.cpp ****         slab->numOfAllocatedObjects--;
 1584              		.loc 1 335 26 is_stmt 0
 1585 0918 93850400 		mv	a1,s1
 1586 091c 03B50401 		ld	a0,16(s1)
 1587 0920 97000000 		call	_Z17removePartialSlabP12kmem_cache_sP6slab_s
 1587      E7800000 
 1588              	.LVL150:
 336:src/kernel/slabAllocator.cpp ****     }
 1589              		.loc 1 336 9 is_stmt 1
 336:src/kernel/slabAllocator.cpp ****     }
 1590              		.loc 1 336 15 is_stmt 0
 1591 0928 83B70402 		ld	a5,32(s1)
 336:src/kernel/slabAllocator.cpp ****     }
 1592              		.loc 1 336 36
 1593 092c 9387F7FF 		addi	a5,a5,-1
 1594 0930 23B0F402 		sd	a5,32(s1)
 1595 0934 6FF05FF8 		j	.L82
 1596              	.LVL151:
 1597              	.L89:
 1598              		.cfi_def_cfa_register 2
 1599              		.cfi_restore 1
 1600              		.cfi_restore 8
 1601              		.cfi_restore 9
 1602              		.cfi_restore 18
 1603              		.cfi_restore 19
 1604              		.cfi_restore 20
 1605 0938 67800000 		ret
 1606              		.cfi_endproc
 1607              	.LFE25:
 1609              		.align	2
 1610              		.globl	_Z16kmem_cache_allocP12kmem_cache_s
 1612              	_Z16kmem_cache_allocP12kmem_cache_s:
 1613              	.LFB33:
 341:src/kernel/slabAllocator.cpp **** 
 342:src/kernel/slabAllocator.cpp **** void printSlabAllocatorInfo()
 343:src/kernel/slabAllocator.cpp **** {
 344:src/kernel/slabAllocator.cpp ****     KConsole::trapPrintString("\n\n\n\n\n\n\n\n\n");
 345:src/kernel/slabAllocator.cpp ****     KConsole::trapPrintString("Slab allocator info-------------------------------------------------
 346:src/kernel/slabAllocator.cpp ****     KConsole::trapPrintStringInt("Slab allocator address ", (size_t)slabAllocator, 16);
 347:src/kernel/slabAllocator.cpp ****     KConsole::trapPrintString("Cache of caches info\n");
 348:src/kernel/slabAllocator.cpp ****     kmem_cache_info(&slabAllocator->cacheOfCaches);
 349:src/kernel/slabAllocator.cpp ****     KConsole::trapPrintString("Caches for buffers\n");
 350:src/kernel/slabAllocator.cpp ****     for(size_t i = 0;i < CACHE_BUFFER_SIZE;i++)
 351:src/kernel/slabAllocator.cpp ****     {
 352:src/kernel/slabAllocator.cpp ****         if(slabAllocator->cachesBuffers[i] != nullptr)
 353:src/kernel/slabAllocator.cpp ****         {
 354:src/kernel/slabAllocator.cpp ****             kmem_cache_info(slabAllocator->cachesBuffers[i]);
 355:src/kernel/slabAllocator.cpp ****         }
 356:src/kernel/slabAllocator.cpp ****     }
 357:src/kernel/slabAllocator.cpp ****     KConsole::trapPrintString("\n\n\n\n\n\n\n\n\n");
 358:src/kernel/slabAllocator.cpp ****     printBuddyInfo();
 359:src/kernel/slabAllocator.cpp **** }
 360:src/kernel/slabAllocator.cpp **** 
 361:src/kernel/slabAllocator.cpp **** void shrink_caches_on_slab(slab_t* slab)
GAS LISTING /tmp/cctmPoEZ.s 			page 37


 362:src/kernel/slabAllocator.cpp **** {
 363:src/kernel/slabAllocator.cpp ****     for(size_t i = 0; i < slab->numOfObjects;i++)
 364:src/kernel/slabAllocator.cpp ****     {
 365:src/kernel/slabAllocator.cpp ****         if(checkSetIndex(slab, i))
 366:src/kernel/slabAllocator.cpp ****         {
 367:src/kernel/slabAllocator.cpp ****             void* addr = (void*)((size_t)slab->startAddr + i*slab->owner->obj_size);
 368:src/kernel/slabAllocator.cpp ****             kmem_cache_shrink((kmem_cache_t*)addr);
 369:src/kernel/slabAllocator.cpp ****         }
 370:src/kernel/slabAllocator.cpp ****     }
 371:src/kernel/slabAllocator.cpp **** }
 372:src/kernel/slabAllocator.cpp **** 
 373:src/kernel/slabAllocator.cpp **** void shrink_all_caches()
 374:src/kernel/slabAllocator.cpp **** {
 375:src/kernel/slabAllocator.cpp ****     kmem_cache_t* cacheOfCaches = &slabAllocator->cacheOfCaches;
 376:src/kernel/slabAllocator.cpp **** 
 377:src/kernel/slabAllocator.cpp ****     slab_t* slab = cacheOfCaches->slabs_full;
 378:src/kernel/slabAllocator.cpp ****     while(slab != nullptr)
 379:src/kernel/slabAllocator.cpp ****     {
 380:src/kernel/slabAllocator.cpp ****         shrink_caches_on_slab(slab);
 381:src/kernel/slabAllocator.cpp ****         slab = slab->next;
 382:src/kernel/slabAllocator.cpp ****     }
 383:src/kernel/slabAllocator.cpp **** 
 384:src/kernel/slabAllocator.cpp ****     slab = cacheOfCaches->slabs_partial;
 385:src/kernel/slabAllocator.cpp ****     while(slab != nullptr)
 386:src/kernel/slabAllocator.cpp ****     {
 387:src/kernel/slabAllocator.cpp ****         shrink_caches_on_slab(slab);
 388:src/kernel/slabAllocator.cpp ****         slab = slab->next;
 389:src/kernel/slabAllocator.cpp ****     }
 390:src/kernel/slabAllocator.cpp **** 
 391:src/kernel/slabAllocator.cpp ****     kmem_cache_shrink(cacheOfCaches);
 392:src/kernel/slabAllocator.cpp **** }
 393:src/kernel/slabAllocator.cpp **** 
 394:src/kernel/slabAllocator.cpp **** void* bigCacheKmalloc(kmem_cache_t* cachep)
 395:src/kernel/slabAllocator.cpp **** {
 396:src/kernel/slabAllocator.cpp ****     if(cachep == nullptr)
 397:src/kernel/slabAllocator.cpp ****         return nullptr;
 398:src/kernel/slabAllocator.cpp **** 
 399:src/kernel/slabAllocator.cpp ****     if(cachep->slabs_partial != nullptr)
 400:src/kernel/slabAllocator.cpp ****     {
 401:src/kernel/slabAllocator.cpp ****         void* allocatedAddr = allocateObject(cachep->slabs_partial);
 402:src/kernel/slabAllocator.cpp ****         if(full(cachep->slabs_partial))
 403:src/kernel/slabAllocator.cpp ****             putPartialToFull(cachep);
 404:src/kernel/slabAllocator.cpp ****         return allocatedAddr;
 405:src/kernel/slabAllocator.cpp ****     }
 406:src/kernel/slabAllocator.cpp ****     else if(cachep->slabs_empty != nullptr)
 407:src/kernel/slabAllocator.cpp ****     {
 408:src/kernel/slabAllocator.cpp ****         void* allocatedAddr = allocateObject(cachep->slabs_empty);
 409:src/kernel/slabAllocator.cpp ****         if(!empty(cachep->slabs_empty))
 410:src/kernel/slabAllocator.cpp ****         {
 411:src/kernel/slabAllocator.cpp ****             putEmptyToPartial(cachep);
 412:src/kernel/slabAllocator.cpp ****             if(full(cachep->slabs_partial))
 413:src/kernel/slabAllocator.cpp ****                 putPartialToFull(cachep);
 414:src/kernel/slabAllocator.cpp ****         }
 415:src/kernel/slabAllocator.cpp ****         return allocatedAddr;
 416:src/kernel/slabAllocator.cpp ****     }
 417:src/kernel/slabAllocator.cpp ****     else
 418:src/kernel/slabAllocator.cpp ****     {
GAS LISTING /tmp/cctmPoEZ.s 			page 38


 419:src/kernel/slabAllocator.cpp ****         slab_t* slab = (slab_t*)kmem_cache_alloc(cacheOfSlabs);
 420:src/kernel/slabAllocator.cpp ****         if(slab == nullptr) // potencijalni EXPAND ERROR
 421:src/kernel/slabAllocator.cpp ****             return nullptr;
 422:src/kernel/slabAllocator.cpp ****         slab->owner = cachep;
 423:src/kernel/slabAllocator.cpp ****         slab->numOfObjects = 2;
 424:src/kernel/slabAllocator.cpp ****         slab->numOfAllocatedObjects = 0;
 425:src/kernel/slabAllocator.cpp ****         slab->allocated[0] = 0;
 426:src/kernel/slabAllocator.cpp ****         void* addr = buddy_alloc(2*(cachep->obj_size / BLOCK_SIZE));
 427:src/kernel/slabAllocator.cpp ****         if(addr == nullptr)
 428:src/kernel/slabAllocator.cpp ****         {
 429:src/kernel/slabAllocator.cpp ****             kmem_cache_free(cacheOfSlabs, slab);
 430:src/kernel/slabAllocator.cpp ****             return nullptr;
 431:src/kernel/slabAllocator.cpp ****         }
 432:src/kernel/slabAllocator.cpp ****         slab->startAddr = addr;
 433:src/kernel/slabAllocator.cpp ****         insertIntoSlabList(slab, &cachep->slabs_empty);
 434:src/kernel/slabAllocator.cpp ****         void* allocatedAddr = allocateObject(cachep->slabs_empty);
 435:src/kernel/slabAllocator.cpp ****         if(!empty(cachep->slabs_empty))
 436:src/kernel/slabAllocator.cpp ****         {
 437:src/kernel/slabAllocator.cpp ****             putEmptyToPartial(cachep);
 438:src/kernel/slabAllocator.cpp ****             if(full(cachep->slabs_partial))
 439:src/kernel/slabAllocator.cpp ****                 putPartialToFull(cachep);
 440:src/kernel/slabAllocator.cpp ****         }
 441:src/kernel/slabAllocator.cpp ****         return allocatedAddr;
 442:src/kernel/slabAllocator.cpp ****     }
 443:src/kernel/slabAllocator.cpp ****     return nullptr;
 444:src/kernel/slabAllocator.cpp **** }
 445:src/kernel/slabAllocator.cpp **** 
 446:src/kernel/slabAllocator.cpp **** void big_kfree(slab_t* slab, const void* objp)
 447:src/kernel/slabAllocator.cpp **** {
 448:src/kernel/slabAllocator.cpp ****     if(slab == nullptr || objp == nullptr)
 449:src/kernel/slabAllocator.cpp ****         return;
 450:src/kernel/slabAllocator.cpp ****     kmem_cache_t* cachep = slab->owner;
 451:src/kernel/slabAllocator.cpp **** //    if(objp != slab->startAddr)
 452:src/kernel/slabAllocator.cpp **** //        return;
 453:src/kernel/slabAllocator.cpp ****     free_slab_object(slab, objp);
 454:src/kernel/slabAllocator.cpp ****     slab_t* slabE = cachep->slabs_empty;
 455:src/kernel/slabAllocator.cpp ****     while(slabE != nullptr)
 456:src/kernel/slabAllocator.cpp ****     {
 457:src/kernel/slabAllocator.cpp ****         slab_t* old = slabE;
 458:src/kernel/slabAllocator.cpp ****         slabE = cachep->slabs_empty = slabE->next;
 459:src/kernel/slabAllocator.cpp ****         buddy_free((void*)old->startAddr, 2*(cachep->obj_size / BLOCK_SIZE));
 460:src/kernel/slabAllocator.cpp ****         kmem_cache_free(cacheOfSlabs, old);
 461:src/kernel/slabAllocator.cpp ****     }
 462:src/kernel/slabAllocator.cpp **** //    buddy_free((void*)objp, cachep->obj_size / BLOCK_SIZE);
 463:src/kernel/slabAllocator.cpp **** //    removeFullSlab(cachep, slab);
 464:src/kernel/slabAllocator.cpp **** //    removePartialSlab(cachep, slab);
 465:src/kernel/slabAllocator.cpp **** //    cachep->slabs_empty = nullptr;
 466:src/kernel/slabAllocator.cpp **** //    kmem_cache_free(cacheOfSlabs, slab);
 467:src/kernel/slabAllocator.cpp **** }
 468:src/kernel/slabAllocator.cpp **** 
 469:src/kernel/slabAllocator.cpp **** //slab allocator public interface------------------------------------------------------------------
 470:src/kernel/slabAllocator.cpp **** void kmem_init(void *space, int block_num)
 471:src/kernel/slabAllocator.cpp **** {
 472:src/kernel/slabAllocator.cpp ****     buddyAllocator* buddy = buddy_init(space, block_num);
 473:src/kernel/slabAllocator.cpp ****     slabAllocator = slab_allocator_init(buddy);
 474:src/kernel/slabAllocator.cpp ****     cacheOfSlabs = kmem_cache_create("Cache of slabs", sizeof(slab_t), nullptr,nullptr);
 475:src/kernel/slabAllocator.cpp **** }
GAS LISTING /tmp/cctmPoEZ.s 			page 39


 476:src/kernel/slabAllocator.cpp **** 
 477:src/kernel/slabAllocator.cpp **** kmem_cache_t *kmem_cache_create(const char *name, size_t size,
 478:src/kernel/slabAllocator.cpp ****                                 void (*ctor)(void *),
 479:src/kernel/slabAllocator.cpp ****                                 void (*dtor)(void *))
 480:src/kernel/slabAllocator.cpp **** {
 481:src/kernel/slabAllocator.cpp ****     kmem_cache_t* newCache = (kmem_cache_t*)kmem_cache_alloc(&slabAllocator->cacheOfCaches);
 482:src/kernel/slabAllocator.cpp ****     if(newCache == nullptr)
 483:src/kernel/slabAllocator.cpp ****         return nullptr;
 484:src/kernel/slabAllocator.cpp ****     init_cache(newCache, name, getOptimalSlabSize(size), size, ctor,dtor);
 485:src/kernel/slabAllocator.cpp ****     return newCache;
 486:src/kernel/slabAllocator.cpp **** }
 487:src/kernel/slabAllocator.cpp **** 
 488:src/kernel/slabAllocator.cpp **** void *kmem_cache_alloc(kmem_cache_t *cachep)
 489:src/kernel/slabAllocator.cpp **** {
 1614              		.loc 1 489 1 is_stmt 1
 1615              		.cfi_startproc
 1616              	.LVL152:
 1617 093c 130101FE 		addi	sp,sp,-32
 1618              		.cfi_def_cfa_offset 32
 1619 0940 233C1100 		sd	ra,24(sp)
 1620 0944 23388100 		sd	s0,16(sp)
 1621 0948 23349100 		sd	s1,8(sp)
 1622 094c 23302101 		sd	s2,0(sp)
 1623              		.cfi_offset 1, -8
 1624              		.cfi_offset 8, -16
 1625              		.cfi_offset 9, -24
 1626              		.cfi_offset 18, -32
 1627 0950 13040102 		addi	s0,sp,32
 1628              		.cfi_def_cfa 8, 0
 1629 0954 93040500 		mv	s1,a0
 490:src/kernel/slabAllocator.cpp ****     if(cachep == nullptr)
 1630              		.loc 1 490 5
 1631 0958 630A0510 		beqz	a0,.L102
 491:src/kernel/slabAllocator.cpp ****         return nullptr;
 492:src/kernel/slabAllocator.cpp **** 
 493:src/kernel/slabAllocator.cpp ****     if(cachep->slabs_partial != nullptr)
 1632              		.loc 1 493 5
 1633              	.LBB14:
 1634              		.loc 1 493 16 is_stmt 0
 1635 095c 03350505 		ld	a0,80(a0)
 1636              	.LVL153:
 1637              		.loc 1 493 5
 1638 0960 631A0504 		bnez	a0,.L104
 1639              	.LBE14:
 494:src/kernel/slabAllocator.cpp ****     {
 495:src/kernel/slabAllocator.cpp ****         void* allocatedAddr = allocateObject(cachep->slabs_partial);
 496:src/kernel/slabAllocator.cpp ****         if(full(cachep->slabs_partial))
 497:src/kernel/slabAllocator.cpp ****             putPartialToFull(cachep);
 498:src/kernel/slabAllocator.cpp ****         return allocatedAddr;
 499:src/kernel/slabAllocator.cpp ****     }
 500:src/kernel/slabAllocator.cpp ****     else if(cachep->slabs_empty != nullptr)
 1640              		.loc 1 500 10 is_stmt 1
 1641              	.LBB21:
 1642              	.LBB15:
 1643              		.loc 1 500 21 is_stmt 0
 1644 0964 03B50404 		ld	a0,64(s1)
 1645              		.loc 1 500 10
GAS LISTING /tmp/cctmPoEZ.s 			page 40


 1646 0968 630A0508 		beqz	a0,.L98
 1647              	.LBB16:
 501:src/kernel/slabAllocator.cpp ****     {
 502:src/kernel/slabAllocator.cpp ****         void* allocatedAddr = allocateObject(cachep->slabs_empty);
 1648              		.loc 1 502 9 is_stmt 1
 1649              		.loc 1 502 45 is_stmt 0
 1650 096c 97000000 		call	_Z14allocateObjectP6slab_s
 1650      E7800000 
 1651              	.LVL154:
 1652 0974 13090500 		mv	s2,a0
 1653              	.LVL155:
 503:src/kernel/slabAllocator.cpp ****         if(!empty(cachep->slabs_empty))
 1654              		.loc 1 503 9 is_stmt 1
 1655              		.loc 1 503 18 is_stmt 0
 1656 0978 03B50404 		ld	a0,64(s1)
 1657              	.LVL156:
 1658 097c 97000000 		call	_Z5emptyP6slab_s
 1658      E7800000 
 1659              	.LVL157:
 1660              		.loc 1 503 9
 1661 0984 63160504 		bnez	a0,.L94
 504:src/kernel/slabAllocator.cpp ****         {
 505:src/kernel/slabAllocator.cpp ****             putEmptyToPartial(cachep);
 1662              		.loc 1 505 13 is_stmt 1
 1663              		.loc 1 505 30 is_stmt 0
 1664 0988 13850400 		mv	a0,s1
 1665 098c 97000000 		call	_Z17putEmptyToPartialP12kmem_cache_s
 1665      E7800000 
 1666              	.LVL158:
 506:src/kernel/slabAllocator.cpp ****             if(full(cachep->slabs_partial))
 1667              		.loc 1 506 13 is_stmt 1
 1668              		.loc 1 506 20 is_stmt 0
 1669 0994 03B50405 		ld	a0,80(s1)
 1670 0998 97000000 		call	_Z4fullP6slab_s
 1670      E7800000 
 1671              	.LVL159:
 1672              		.loc 1 506 13
 1673 09a0 63080502 		beqz	a0,.L94
 507:src/kernel/slabAllocator.cpp ****                 putPartialToFull(cachep);
 1674              		.loc 1 507 17 is_stmt 1
 1675              		.loc 1 507 33 is_stmt 0
 1676 09a4 13850400 		mv	a0,s1
 1677 09a8 97000000 		call	_Z16putPartialToFullP12kmem_cache_s
 1677      E7800000 
 1678              	.LVL160:
 508:src/kernel/slabAllocator.cpp ****         }
 509:src/kernel/slabAllocator.cpp ****         return allocatedAddr;
 1679              		.loc 1 509 9 is_stmt 1
 1680              		.loc 1 509 16 is_stmt 0
 1681 09b0 6F000002 		j	.L94
 1682              	.LVL161:
 1683              	.L104:
 1684              	.LBE16:
 1685              	.LBE15:
 1686              	.LBB18:
 495:src/kernel/slabAllocator.cpp ****         if(full(cachep->slabs_partial))
 1687              		.loc 1 495 9 is_stmt 1
GAS LISTING /tmp/cctmPoEZ.s 			page 41


 495:src/kernel/slabAllocator.cpp ****         if(full(cachep->slabs_partial))
 1688              		.loc 1 495 45 is_stmt 0
 1689 09b4 97000000 		call	_Z14allocateObjectP6slab_s
 1689      E7800000 
 1690              	.LVL162:
 1691 09bc 13090500 		mv	s2,a0
 1692              	.LVL163:
 496:src/kernel/slabAllocator.cpp ****             putPartialToFull(cachep);
 1693              		.loc 1 496 9 is_stmt 1
 496:src/kernel/slabAllocator.cpp ****             putPartialToFull(cachep);
 1694              		.loc 1 496 16 is_stmt 0
 1695 09c0 03B50405 		ld	a0,80(s1)
 1696              	.LVL164:
 1697 09c4 97000000 		call	_Z4fullP6slab_s
 1697      E7800000 
 1698              	.LVL165:
 496:src/kernel/slabAllocator.cpp ****             putPartialToFull(cachep);
 1699              		.loc 1 496 9
 1700 09cc 63100502 		bnez	a0,.L105
 1701              	.LVL166:
 1702              	.L94:
 1703              	.LBE18:
 1704              	.LBE21:
 510:src/kernel/slabAllocator.cpp ****     }
 511:src/kernel/slabAllocator.cpp ****     else
 512:src/kernel/slabAllocator.cpp ****     {
 513:src/kernel/slabAllocator.cpp ****         allocateSlab(cachep);
 514:src/kernel/slabAllocator.cpp ****         if(cachep->slabs_empty == nullptr)
 515:src/kernel/slabAllocator.cpp ****         {
 516:src/kernel/slabAllocator.cpp ****             cachep->errors|=EXPAND_ERROR;
 517:src/kernel/slabAllocator.cpp ****             return nullptr;
 518:src/kernel/slabAllocator.cpp ****         }
 519:src/kernel/slabAllocator.cpp ****         void* allocatedAddr = allocateObject(cachep->slabs_empty);
 520:src/kernel/slabAllocator.cpp ****         if(!empty(cachep->slabs_empty))
 521:src/kernel/slabAllocator.cpp ****         {
 522:src/kernel/slabAllocator.cpp ****             putEmptyToPartial(cachep);
 523:src/kernel/slabAllocator.cpp ****             if(full(cachep->slabs_partial))
 524:src/kernel/slabAllocator.cpp ****                 putPartialToFull(cachep);
 525:src/kernel/slabAllocator.cpp ****         }
 526:src/kernel/slabAllocator.cpp ****         return allocatedAddr;
 527:src/kernel/slabAllocator.cpp ****     }
 528:src/kernel/slabAllocator.cpp ****     return nullptr;
 529:src/kernel/slabAllocator.cpp **** }
 1705              		.loc 1 529 1
 1706 09d0 13050900 		mv	a0,s2
 1707 09d4 83308101 		ld	ra,24(sp)
 1708              		.cfi_remember_state
 1709              		.cfi_restore 1
 1710 09d8 03340101 		ld	s0,16(sp)
 1711              		.cfi_restore 8
 1712              		.cfi_def_cfa 2, 32
 1713 09dc 83348100 		ld	s1,8(sp)
 1714              		.cfi_restore 9
 1715              	.LVL167:
 1716 09e0 03390100 		ld	s2,0(sp)
 1717              		.cfi_restore 18
 1718 09e4 13010102 		addi	sp,sp,32
GAS LISTING /tmp/cctmPoEZ.s 			page 42


 1719              		.cfi_def_cfa_offset 0
 1720 09e8 67800000 		jr	ra
 1721              	.LVL168:
 1722              	.L105:
 1723              		.cfi_restore_state
 1724              	.LBB22:
 1725              	.LBB19:
 497:src/kernel/slabAllocator.cpp ****         return allocatedAddr;
 1726              		.loc 1 497 13 is_stmt 1
 497:src/kernel/slabAllocator.cpp ****         return allocatedAddr;
 1727              		.loc 1 497 29 is_stmt 0
 1728 09ec 13850400 		mv	a0,s1
 1729 09f0 97000000 		call	_Z16putPartialToFullP12kmem_cache_s
 1729      E7800000 
 1730              	.LVL169:
 498:src/kernel/slabAllocator.cpp ****     }
 1731              		.loc 1 498 9 is_stmt 1
 498:src/kernel/slabAllocator.cpp ****     }
 1732              		.loc 1 498 16 is_stmt 0
 1733 09f8 6FF09FFD 		j	.L94
 1734              	.LVL170:
 1735              	.L98:
 1736              	.LBE19:
 1737              	.LBB20:
 1738              	.LBB17:
 513:src/kernel/slabAllocator.cpp ****         if(cachep->slabs_empty == nullptr)
 1739              		.loc 1 513 9 is_stmt 1
 513:src/kernel/slabAllocator.cpp ****         if(cachep->slabs_empty == nullptr)
 1740              		.loc 1 513 21 is_stmt 0
 1741 09fc 13850400 		mv	a0,s1
 1742 0a00 97000000 		call	_Z12allocateSlabP12kmem_cache_s
 1742      E7800000 
 1743              	.LVL171:
 514:src/kernel/slabAllocator.cpp ****         {
 1744              		.loc 1 514 9 is_stmt 1
 514:src/kernel/slabAllocator.cpp ****         {
 1745              		.loc 1 514 20 is_stmt 0
 1746 0a08 03B90404 		ld	s2,64(s1)
 514:src/kernel/slabAllocator.cpp ****         {
 1747              		.loc 1 514 9
 1748 0a0c 63080904 		beqz	s2,.L106
 519:src/kernel/slabAllocator.cpp ****         if(!empty(cachep->slabs_empty))
 1749              		.loc 1 519 9 is_stmt 1
 519:src/kernel/slabAllocator.cpp ****         if(!empty(cachep->slabs_empty))
 1750              		.loc 1 519 45 is_stmt 0
 1751 0a10 13050900 		mv	a0,s2
 1752 0a14 97000000 		call	_Z14allocateObjectP6slab_s
 1752      E7800000 
 1753              	.LVL172:
 1754 0a1c 13090500 		mv	s2,a0
 1755              	.LVL173:
 520:src/kernel/slabAllocator.cpp ****         {
 1756              		.loc 1 520 9 is_stmt 1
 520:src/kernel/slabAllocator.cpp ****         {
 1757              		.loc 1 520 18 is_stmt 0
 1758 0a20 03B50404 		ld	a0,64(s1)
 1759              	.LVL174:
GAS LISTING /tmp/cctmPoEZ.s 			page 43


 1760 0a24 97000000 		call	_Z5emptyP6slab_s
 1760      E7800000 
 1761              	.LVL175:
 520:src/kernel/slabAllocator.cpp ****         {
 1762              		.loc 1 520 9
 1763 0a2c E31205FA 		bnez	a0,.L94
 522:src/kernel/slabAllocator.cpp ****             if(full(cachep->slabs_partial))
 1764              		.loc 1 522 13 is_stmt 1
 522:src/kernel/slabAllocator.cpp ****             if(full(cachep->slabs_partial))
 1765              		.loc 1 522 30 is_stmt 0
 1766 0a30 13850400 		mv	a0,s1
 1767 0a34 97000000 		call	_Z17putEmptyToPartialP12kmem_cache_s
 1767      E7800000 
 1768              	.LVL176:
 523:src/kernel/slabAllocator.cpp ****                 putPartialToFull(cachep);
 1769              		.loc 1 523 13 is_stmt 1
 523:src/kernel/slabAllocator.cpp ****                 putPartialToFull(cachep);
 1770              		.loc 1 523 20 is_stmt 0
 1771 0a3c 03B50405 		ld	a0,80(s1)
 1772 0a40 97000000 		call	_Z4fullP6slab_s
 1772      E7800000 
 1773              	.LVL177:
 523:src/kernel/slabAllocator.cpp ****                 putPartialToFull(cachep);
 1774              		.loc 1 523 13
 1775 0a48 E30405F8 		beqz	a0,.L94
 524:src/kernel/slabAllocator.cpp ****         }
 1776              		.loc 1 524 17 is_stmt 1
 524:src/kernel/slabAllocator.cpp ****         }
 1777              		.loc 1 524 33 is_stmt 0
 1778 0a4c 13850400 		mv	a0,s1
 1779 0a50 97000000 		call	_Z16putPartialToFullP12kmem_cache_s
 1779      E7800000 
 1780              	.LVL178:
 526:src/kernel/slabAllocator.cpp ****     }
 1781              		.loc 1 526 9 is_stmt 1
 526:src/kernel/slabAllocator.cpp ****     }
 1782              		.loc 1 526 16 is_stmt 0
 1783 0a58 6FF09FF7 		j	.L94
 1784              	.LVL179:
 1785              	.L106:
 516:src/kernel/slabAllocator.cpp ****             return nullptr;
 1786              		.loc 1 516 13 is_stmt 1
 516:src/kernel/slabAllocator.cpp ****             return nullptr;
 1787              		.loc 1 516 27 is_stmt 0
 1788 0a5c 83A78407 		lw	a5,120(s1)
 1789 0a60 93E71700 		ori	a5,a5,1
 1790 0a64 23ACF406 		sw	a5,120(s1)
 517:src/kernel/slabAllocator.cpp ****         }
 1791              		.loc 1 517 13 is_stmt 1
 517:src/kernel/slabAllocator.cpp ****         }
 1792              		.loc 1 517 20 is_stmt 0
 1793 0a68 6FF09FF6 		j	.L94
 1794              	.L102:
 1795              	.LBE17:
 1796              	.LBE20:
 1797              	.LBE22:
 491:src/kernel/slabAllocator.cpp **** 
GAS LISTING /tmp/cctmPoEZ.s 			page 44


 1798              		.loc 1 491 16
 1799 0a6c 13090500 		mv	s2,a0
 1800 0a70 6FF01FF6 		j	.L94
 1801              		.cfi_endproc
 1802              	.LFE33:
 1804              		.align	2
 1805              		.globl	_Z17kmem_cache_createPKcmPFvPvES3_
 1807              	_Z17kmem_cache_createPKcmPFvPvES3_:
 1808              	.LFB32:
 480:src/kernel/slabAllocator.cpp ****     kmem_cache_t* newCache = (kmem_cache_t*)kmem_cache_alloc(&slabAllocator->cacheOfCaches);
 1809              		.loc 1 480 1 is_stmt 1
 1810              		.cfi_startproc
 1811              	.LVL180:
 1812 0a74 130101FC 		addi	sp,sp,-64
 1813              		.cfi_def_cfa_offset 64
 1814 0a78 233C1102 		sd	ra,56(sp)
 1815 0a7c 23388102 		sd	s0,48(sp)
 1816 0a80 23349102 		sd	s1,40(sp)
 1817 0a84 23302103 		sd	s2,32(sp)
 1818 0a88 233C3101 		sd	s3,24(sp)
 1819 0a8c 23384101 		sd	s4,16(sp)
 1820 0a90 23345101 		sd	s5,8(sp)
 1821              		.cfi_offset 1, -8
 1822              		.cfi_offset 8, -16
 1823              		.cfi_offset 9, -24
 1824              		.cfi_offset 18, -32
 1825              		.cfi_offset 19, -40
 1826              		.cfi_offset 20, -48
 1827              		.cfi_offset 21, -56
 1828 0a94 13040104 		addi	s0,sp,64
 1829              		.cfi_def_cfa 8, 0
 1830 0a98 93090500 		mv	s3,a0
 1831 0a9c 13890500 		mv	s2,a1
 1832 0aa0 130A0600 		mv	s4,a2
 1833 0aa4 938A0600 		mv	s5,a3
 481:src/kernel/slabAllocator.cpp ****     if(newCache == nullptr)
 1834              		.loc 1 481 5
 481:src/kernel/slabAllocator.cpp ****     if(newCache == nullptr)
 1835              		.loc 1 481 61 is_stmt 0
 1836 0aa8 17050000 		ld	a0,.LANCHOR0
 1836      03350500 
 1837              	.LVL181:
 1838 0ab0 13058506 		addi	a0,a0,104
 1839 0ab4 97000000 		call	_Z16kmem_cache_allocP12kmem_cache_s
 1839      E7800000 
 1840              	.LVL182:
 1841 0abc 93040500 		mv	s1,a0
 1842              	.LVL183:
 482:src/kernel/slabAllocator.cpp ****         return nullptr;
 1843              		.loc 1 482 5 is_stmt 1
 1844 0ac0 63080502 		beqz	a0,.L107
 484:src/kernel/slabAllocator.cpp ****     return newCache;
 1845              		.loc 1 484 5
 484:src/kernel/slabAllocator.cpp ****     return newCache;
 1846              		.loc 1 484 15 is_stmt 0
 1847 0ac4 13050900 		mv	a0,s2
 1848 0ac8 97000000 		call	_Z18getOptimalSlabSizem
GAS LISTING /tmp/cctmPoEZ.s 			page 45


 1848      E7800000 
 1849              	.LVL184:
 1850 0ad0 13060500 		mv	a2,a0
 1851 0ad4 93870A00 		mv	a5,s5
 1852 0ad8 13070A00 		mv	a4,s4
 1853 0adc 93060900 		mv	a3,s2
 1854 0ae0 93850900 		mv	a1,s3
 1855 0ae4 13850400 		mv	a0,s1
 1856 0ae8 97000000 		call	_Z10init_cacheP12kmem_cache_sPKcmmPFvPvES5_
 1856      E7800000 
 1857              	.LVL185:
 485:src/kernel/slabAllocator.cpp **** }
 1858              		.loc 1 485 5 is_stmt 1
 1859              	.L107:
 486:src/kernel/slabAllocator.cpp **** 
 1860              		.loc 1 486 1 is_stmt 0
 1861 0af0 13850400 		mv	a0,s1
 1862 0af4 83308103 		ld	ra,56(sp)
 1863              		.cfi_restore 1
 1864 0af8 03340103 		ld	s0,48(sp)
 1865              		.cfi_restore 8
 1866              		.cfi_def_cfa 2, 64
 1867 0afc 83348102 		ld	s1,40(sp)
 1868              		.cfi_restore 9
 1869              	.LVL186:
 1870 0b00 03390102 		ld	s2,32(sp)
 1871              		.cfi_restore 18
 1872              	.LVL187:
 1873 0b04 83398101 		ld	s3,24(sp)
 1874              		.cfi_restore 19
 1875              	.LVL188:
 1876 0b08 033A0101 		ld	s4,16(sp)
 1877              		.cfi_restore 20
 1878              	.LVL189:
 1879 0b0c 833A8100 		ld	s5,8(sp)
 1880              		.cfi_restore 21
 1881              	.LVL190:
 1882 0b10 13010104 		addi	sp,sp,64
 1883              		.cfi_def_cfa_offset 0
 1884 0b14 67800000 		jr	ra
 1885              		.cfi_endproc
 1886              	.LFE32:
 1888              		.section	.rodata.str1.8
 1889 0081 00000000 		.align	3
 1889      000000
 1890              	.LC6:
 1891 0088 43616368 		.string	"Cache of slabs"
 1891      65206F66 
 1891      20736C61 
 1891      627300
 1892              		.text
 1893              		.align	2
 1894              		.globl	_Z9kmem_initPvi
 1896              	_Z9kmem_initPvi:
 1897              	.LFB31:
 471:src/kernel/slabAllocator.cpp ****     buddyAllocator* buddy = buddy_init(space, block_num);
 1898              		.loc 1 471 1 is_stmt 1
GAS LISTING /tmp/cctmPoEZ.s 			page 46


 1899              		.cfi_startproc
 1900              	.LVL191:
 1901 0b18 130101FE 		addi	sp,sp,-32
 1902              		.cfi_def_cfa_offset 32
 1903 0b1c 233C1100 		sd	ra,24(sp)
 1904 0b20 23388100 		sd	s0,16(sp)
 1905 0b24 23349100 		sd	s1,8(sp)
 1906              		.cfi_offset 1, -8
 1907              		.cfi_offset 8, -16
 1908              		.cfi_offset 9, -24
 1909 0b28 13040102 		addi	s0,sp,32
 1910              		.cfi_def_cfa 8, 0
 472:src/kernel/slabAllocator.cpp ****     slabAllocator = slab_allocator_init(buddy);
 1911              		.loc 1 472 5
 472:src/kernel/slabAllocator.cpp ****     slabAllocator = slab_allocator_init(buddy);
 1912              		.loc 1 472 39 is_stmt 0
 1913 0b2c 97000000 		call	_Z10buddy_initPvm@plt
 1913      E7800000 
 1914              	.LVL192:
 473:src/kernel/slabAllocator.cpp ****     cacheOfSlabs = kmem_cache_create("Cache of slabs", sizeof(slab_t), nullptr,nullptr);
 1915              		.loc 1 473 5 is_stmt 1
 473:src/kernel/slabAllocator.cpp ****     cacheOfSlabs = kmem_cache_create("Cache of slabs", sizeof(slab_t), nullptr,nullptr);
 1916              		.loc 1 473 40 is_stmt 0
 1917 0b34 97000000 		call	_Z19slab_allocator_initP14buddyAllocator
 1917      E7800000 
 1918              	.LVL193:
 473:src/kernel/slabAllocator.cpp ****     cacheOfSlabs = kmem_cache_create("Cache of slabs", sizeof(slab_t), nullptr,nullptr);
 1919              		.loc 1 473 19
 1920 0b3c 97040000 		lla	s1,.LANCHOR0
 1920      93840400 
 1921 0b44 23B0A400 		sd	a0,0(s1)
 474:src/kernel/slabAllocator.cpp **** }
 1922              		.loc 1 474 5 is_stmt 1
 474:src/kernel/slabAllocator.cpp **** }
 1923              		.loc 1 474 37 is_stmt 0
 1924 0b48 93060000 		li	a3,0
 1925 0b4c 13060000 		li	a2,0
 1926 0b50 93050023 		li	a1,560
 1927 0b54 17050000 		lla	a0,.LC6
 1927      13050500 
 1928 0b5c 97000000 		call	_Z17kmem_cache_createPKcmPFvPvES3_
 1928      E7800000 
 1929              	.LVL194:
 474:src/kernel/slabAllocator.cpp **** }
 1930              		.loc 1 474 18
 1931 0b64 23B4A400 		sd	a0,8(s1)
 475:src/kernel/slabAllocator.cpp **** 
 1932              		.loc 1 475 1
 1933 0b68 83308101 		ld	ra,24(sp)
 1934              		.cfi_restore 1
 1935 0b6c 03340101 		ld	s0,16(sp)
 1936              		.cfi_restore 8
 1937              		.cfi_def_cfa 2, 32
 1938 0b70 83348100 		ld	s1,8(sp)
 1939              		.cfi_restore 9
 1940 0b74 13010102 		addi	sp,sp,32
 1941              		.cfi_def_cfa_offset 0
GAS LISTING /tmp/cctmPoEZ.s 			page 47


 1942 0b78 67800000 		jr	ra
 1943              		.cfi_endproc
 1944              	.LFE31:
 1946              		.align	2
 1947              		.globl	_Z15kmem_cache_freeP12kmem_cache_sPv
 1949              	_Z15kmem_cache_freeP12kmem_cache_sPv:
 1950              	.LFB34:
 530:src/kernel/slabAllocator.cpp **** 
 531:src/kernel/slabAllocator.cpp **** void kmem_cache_free(kmem_cache_t *cachep, void *objp)
 532:src/kernel/slabAllocator.cpp **** {
 1951              		.loc 1 532 1 is_stmt 1
 1952              		.cfi_startproc
 1953              	.LVL195:
 533:src/kernel/slabAllocator.cpp ****     if(cachep == nullptr || objp == nullptr)
 1954              		.loc 1 533 5
 1955 0b7c 63060504 		beqz	a0,.L115
 532:src/kernel/slabAllocator.cpp ****     if(cachep == nullptr || objp == nullptr)
 1956              		.loc 1 532 1 is_stmt 0 discriminator 1
 1957 0b80 130101FE 		addi	sp,sp,-32
 1958              		.cfi_def_cfa_offset 32
 1959 0b84 233C1100 		sd	ra,24(sp)
 1960 0b88 23388100 		sd	s0,16(sp)
 1961 0b8c 23349100 		sd	s1,8(sp)
 1962              		.cfi_offset 1, -8
 1963              		.cfi_offset 8, -16
 1964              		.cfi_offset 9, -24
 1965 0b90 13040102 		addi	s0,sp,32
 1966              		.cfi_def_cfa 8, 0
 1967 0b94 93840500 		mv	s1,a1
 1968              		.loc 1 533 26 discriminator 1
 1969 0b98 638E0500 		beqz	a1,.L112
 534:src/kernel/slabAllocator.cpp ****         return;
 535:src/kernel/slabAllocator.cpp ****     slab_t* slab = findSlab(cachep, objp);
 1970              		.loc 1 535 5 is_stmt 1
 1971              		.loc 1 535 28 is_stmt 0
 1972 0b9c 97000000 		call	_Z8findSlabP12kmem_cache_sPKv
 1972      E7800000 
 1973              	.LVL196:
 536:src/kernel/slabAllocator.cpp ****     if(slab == nullptr) return;
 1974              		.loc 1 536 5 is_stmt 1
 1975 0ba4 63080500 		beqz	a0,.L112
 537:src/kernel/slabAllocator.cpp **** 
 538:src/kernel/slabAllocator.cpp ****     free_slab_object(slab, objp);
 1976              		.loc 1 538 5
 1977              		.loc 1 538 21 is_stmt 0
 1978 0ba8 93850400 		mv	a1,s1
 1979 0bac 97000000 		call	_Z16free_slab_objectP6slab_sPKv
 1979      E7800000 
 1980              	.LVL197:
 1981              	.L112:
 539:src/kernel/slabAllocator.cpp **** }
 1982              		.loc 1 539 1
 1983 0bb4 83308101 		ld	ra,24(sp)
 1984              		.cfi_restore 1
 1985 0bb8 03340101 		ld	s0,16(sp)
 1986              		.cfi_restore 8
 1987              		.cfi_def_cfa 2, 32
GAS LISTING /tmp/cctmPoEZ.s 			page 48


 1988 0bbc 83348100 		ld	s1,8(sp)
 1989              		.cfi_restore 9
 1990              	.LVL198:
 1991 0bc0 13010102 		addi	sp,sp,32
 1992              		.cfi_def_cfa_offset 0
 1993 0bc4 67800000 		jr	ra
 1994              	.LVL199:
 1995              	.L115:
 1996 0bc8 67800000 		ret
 1997              		.cfi_endproc
 1998              	.LFE34:
 2000              		.align	2
 2001              		.globl	_Z15bigCacheKmallocP12kmem_cache_s
 2003              	_Z15bigCacheKmallocP12kmem_cache_s:
 2004              	.LFB29:
 395:src/kernel/slabAllocator.cpp ****     if(cachep == nullptr)
 2005              		.loc 1 395 1 is_stmt 1
 2006              		.cfi_startproc
 2007              	.LVL200:
 2008 0bcc 130101FD 		addi	sp,sp,-48
 2009              		.cfi_def_cfa_offset 48
 2010 0bd0 23341102 		sd	ra,40(sp)
 2011 0bd4 23308102 		sd	s0,32(sp)
 2012 0bd8 233C9100 		sd	s1,24(sp)
 2013 0bdc 23382101 		sd	s2,16(sp)
 2014 0be0 23343101 		sd	s3,8(sp)
 2015              		.cfi_offset 1, -8
 2016              		.cfi_offset 8, -16
 2017              		.cfi_offset 9, -24
 2018              		.cfi_offset 18, -32
 2019              		.cfi_offset 19, -40
 2020 0be4 13040103 		addi	s0,sp,48
 2021              		.cfi_def_cfa 8, 0
 2022 0be8 93040500 		mv	s1,a0
 396:src/kernel/slabAllocator.cpp ****         return nullptr;
 2023              		.loc 1 396 5
 2024 0bec 63060516 		beqz	a0,.L126
 399:src/kernel/slabAllocator.cpp ****     {
 2025              		.loc 1 399 5
 2026              	.LBB23:
 399:src/kernel/slabAllocator.cpp ****     {
 2027              		.loc 1 399 16 is_stmt 0
 2028 0bf0 03350505 		ld	a0,80(a0)
 2029              	.LVL201:
 399:src/kernel/slabAllocator.cpp ****     {
 2030              		.loc 1 399 5
 2031 0bf4 631A0504 		bnez	a0,.L128
 2032              	.LBE23:
 406:src/kernel/slabAllocator.cpp ****     {
 2033              		.loc 1 406 10 is_stmt 1
 2034              	.LBB30:
 2035              	.LBB24:
 406:src/kernel/slabAllocator.cpp ****     {
 2036              		.loc 1 406 21 is_stmt 0
 2037 0bf8 03B50404 		ld	a0,64(s1)
 406:src/kernel/slabAllocator.cpp ****     {
 2038              		.loc 1 406 10
GAS LISTING /tmp/cctmPoEZ.s 			page 49


 2039 0bfc 630C0508 		beqz	a0,.L122
 2040              	.LBB25:
 408:src/kernel/slabAllocator.cpp ****         if(!empty(cachep->slabs_empty))
 2041              		.loc 1 408 9 is_stmt 1
 408:src/kernel/slabAllocator.cpp ****         if(!empty(cachep->slabs_empty))
 2042              		.loc 1 408 45 is_stmt 0
 2043 0c00 97000000 		call	_Z14allocateObjectP6slab_s
 2043      E7800000 
 2044              	.LVL202:
 2045 0c08 13090500 		mv	s2,a0
 2046              	.LVL203:
 409:src/kernel/slabAllocator.cpp ****         {
 2047              		.loc 1 409 9 is_stmt 1
 409:src/kernel/slabAllocator.cpp ****         {
 2048              		.loc 1 409 18 is_stmt 0
 2049 0c0c 03B50404 		ld	a0,64(s1)
 2050              	.LVL204:
 2051 0c10 97000000 		call	_Z5emptyP6slab_s
 2051      E7800000 
 2052              	.LVL205:
 409:src/kernel/slabAllocator.cpp ****         {
 2053              		.loc 1 409 9
 2054 0c18 63160504 		bnez	a0,.L118
 411:src/kernel/slabAllocator.cpp ****             if(full(cachep->slabs_partial))
 2055              		.loc 1 411 13 is_stmt 1
 411:src/kernel/slabAllocator.cpp ****             if(full(cachep->slabs_partial))
 2056              		.loc 1 411 30 is_stmt 0
 2057 0c1c 13850400 		mv	a0,s1
 2058 0c20 97000000 		call	_Z17putEmptyToPartialP12kmem_cache_s
 2058      E7800000 
 2059              	.LVL206:
 412:src/kernel/slabAllocator.cpp ****                 putPartialToFull(cachep);
 2060              		.loc 1 412 13 is_stmt 1
 412:src/kernel/slabAllocator.cpp ****                 putPartialToFull(cachep);
 2061              		.loc 1 412 20 is_stmt 0
 2062 0c28 03B50405 		ld	a0,80(s1)
 2063 0c2c 97000000 		call	_Z4fullP6slab_s
 2063      E7800000 
 2064              	.LVL207:
 412:src/kernel/slabAllocator.cpp ****                 putPartialToFull(cachep);
 2065              		.loc 1 412 13
 2066 0c34 63080502 		beqz	a0,.L118
 413:src/kernel/slabAllocator.cpp ****         }
 2067              		.loc 1 413 17 is_stmt 1
 413:src/kernel/slabAllocator.cpp ****         }
 2068              		.loc 1 413 33 is_stmt 0
 2069 0c38 13850400 		mv	a0,s1
 2070 0c3c 97000000 		call	_Z16putPartialToFullP12kmem_cache_s
 2070      E7800000 
 2071              	.LVL208:
 415:src/kernel/slabAllocator.cpp ****     }
 2072              		.loc 1 415 9 is_stmt 1
 415:src/kernel/slabAllocator.cpp ****     }
 2073              		.loc 1 415 16 is_stmt 0
 2074 0c44 6F000002 		j	.L118
 2075              	.LVL209:
 2076              	.L128:
GAS LISTING /tmp/cctmPoEZ.s 			page 50


 2077              	.LBE25:
 2078              	.LBE24:
 2079              	.LBB27:
 401:src/kernel/slabAllocator.cpp ****         if(full(cachep->slabs_partial))
 2080              		.loc 1 401 9 is_stmt 1
 401:src/kernel/slabAllocator.cpp ****         if(full(cachep->slabs_partial))
 2081              		.loc 1 401 45 is_stmt 0
 2082 0c48 97000000 		call	_Z14allocateObjectP6slab_s
 2082      E7800000 
 2083              	.LVL210:
 2084 0c50 13090500 		mv	s2,a0
 2085              	.LVL211:
 402:src/kernel/slabAllocator.cpp ****             putPartialToFull(cachep);
 2086              		.loc 1 402 9 is_stmt 1
 402:src/kernel/slabAllocator.cpp ****             putPartialToFull(cachep);
 2087              		.loc 1 402 16 is_stmt 0
 2088 0c54 03B50405 		ld	a0,80(s1)
 2089              	.LVL212:
 2090 0c58 97000000 		call	_Z4fullP6slab_s
 2090      E7800000 
 2091              	.LVL213:
 402:src/kernel/slabAllocator.cpp ****             putPartialToFull(cachep);
 2092              		.loc 1 402 9
 2093 0c60 63120502 		bnez	a0,.L129
 2094              	.LVL214:
 2095              	.L118:
 2096              	.LBE27:
 2097              	.LBE30:
 444:src/kernel/slabAllocator.cpp **** 
 2098              		.loc 1 444 1
 2099 0c64 13050900 		mv	a0,s2
 2100 0c68 83308102 		ld	ra,40(sp)
 2101              		.cfi_remember_state
 2102              		.cfi_restore 1
 2103 0c6c 03340102 		ld	s0,32(sp)
 2104              		.cfi_restore 8
 2105              		.cfi_def_cfa 2, 48
 2106 0c70 83348101 		ld	s1,24(sp)
 2107              		.cfi_restore 9
 2108              	.LVL215:
 2109 0c74 03390101 		ld	s2,16(sp)
 2110              		.cfi_restore 18
 2111 0c78 83398100 		ld	s3,8(sp)
 2112              		.cfi_restore 19
 2113 0c7c 13010103 		addi	sp,sp,48
 2114              		.cfi_def_cfa_offset 0
 2115 0c80 67800000 		jr	ra
 2116              	.LVL216:
 2117              	.L129:
 2118              		.cfi_restore_state
 2119              	.LBB31:
 2120              	.LBB28:
 403:src/kernel/slabAllocator.cpp ****         return allocatedAddr;
 2121              		.loc 1 403 13 is_stmt 1
 403:src/kernel/slabAllocator.cpp ****         return allocatedAddr;
 2122              		.loc 1 403 29 is_stmt 0
 2123 0c84 13850400 		mv	a0,s1
GAS LISTING /tmp/cctmPoEZ.s 			page 51


 2124 0c88 97000000 		call	_Z16putPartialToFullP12kmem_cache_s
 2124      E7800000 
 2125              	.LVL217:
 404:src/kernel/slabAllocator.cpp ****     }
 2126              		.loc 1 404 9 is_stmt 1
 404:src/kernel/slabAllocator.cpp ****     }
 2127              		.loc 1 404 16 is_stmt 0
 2128 0c90 6FF05FFD 		j	.L118
 2129              	.LVL218:
 2130              	.L122:
 2131              	.LBE28:
 2132              	.LBB29:
 2133              	.LBB26:
 419:src/kernel/slabAllocator.cpp ****         if(slab == nullptr) // potencijalni EXPAND ERROR
 2134              		.loc 1 419 9 is_stmt 1
 419:src/kernel/slabAllocator.cpp ****         if(slab == nullptr) // potencijalni EXPAND ERROR
 2135              		.loc 1 419 49 is_stmt 0
 2136 0c94 17050000 		ld	a0,.LANCHOR0+8
 2136      03350500 
 2137 0c9c 97000000 		call	_Z16kmem_cache_allocP12kmem_cache_s
 2137      E7800000 
 2138              	.LVL219:
 2139 0ca4 13090500 		mv	s2,a0
 2140              	.LVL220:
 420:src/kernel/slabAllocator.cpp ****             return nullptr;
 2141              		.loc 1 420 9 is_stmt 1
 2142 0ca8 E30E05FA 		beqz	a0,.L118
 422:src/kernel/slabAllocator.cpp ****         slab->numOfObjects = 2;
 2143              		.loc 1 422 9
 422:src/kernel/slabAllocator.cpp ****         slab->numOfObjects = 2;
 2144              		.loc 1 422 21 is_stmt 0
 2145 0cac 23389500 		sd	s1,16(a0)
 423:src/kernel/slabAllocator.cpp ****         slab->numOfAllocatedObjects = 0;
 2146              		.loc 1 423 9 is_stmt 1
 423:src/kernel/slabAllocator.cpp ****         slab->numOfAllocatedObjects = 0;
 2147              		.loc 1 423 28 is_stmt 0
 2148 0cb0 93072000 		li	a5,2
 2149 0cb4 233CF500 		sd	a5,24(a0)
 424:src/kernel/slabAllocator.cpp ****         slab->allocated[0] = 0;
 2150              		.loc 1 424 9 is_stmt 1
 424:src/kernel/slabAllocator.cpp ****         slab->allocated[0] = 0;
 2151              		.loc 1 424 37 is_stmt 0
 2152 0cb8 23300502 		sd	zero,32(a0)
 425:src/kernel/slabAllocator.cpp ****         void* addr = buddy_alloc(2*(cachep->obj_size / BLOCK_SIZE));
 2153              		.loc 1 425 9 is_stmt 1
 425:src/kernel/slabAllocator.cpp ****         void* addr = buddy_alloc(2*(cachep->obj_size / BLOCK_SIZE));
 2154              		.loc 1 425 28 is_stmt 0
 2155 0cbc 23080502 		sb	zero,48(a0)
 426:src/kernel/slabAllocator.cpp ****         if(addr == nullptr)
 2156              		.loc 1 426 9 is_stmt 1
 426:src/kernel/slabAllocator.cpp ****         if(addr == nullptr)
 2157              		.loc 1 426 45 is_stmt 0
 2158 0cc0 03B50406 		ld	a0,96(s1)
 2159              	.LVL221:
 426:src/kernel/slabAllocator.cpp ****         if(addr == nullptr)
 2160              		.loc 1 426 54
 2161 0cc4 1355C500 		srli	a0,a0,12
GAS LISTING /tmp/cctmPoEZ.s 			page 52


 426:src/kernel/slabAllocator.cpp ****         if(addr == nullptr)
 2162              		.loc 1 426 33
 2163 0cc8 13151500 		slli	a0,a0,1
 2164 0ccc 97000000 		call	_Z11buddy_allocm@plt
 2164      E7800000 
 2165              	.LVL222:
 2166 0cd4 93090500 		mv	s3,a0
 2167              	.LVL223:
 427:src/kernel/slabAllocator.cpp ****         {
 2168              		.loc 1 427 9 is_stmt 1
 2169 0cd8 63020506 		beqz	a0,.L130
 432:src/kernel/slabAllocator.cpp ****         insertIntoSlabList(slab, &cachep->slabs_empty);
 2170              		.loc 1 432 9
 432:src/kernel/slabAllocator.cpp ****         insertIntoSlabList(slab, &cachep->slabs_empty);
 2171              		.loc 1 432 25 is_stmt 0
 2172 0cdc 2334A902 		sd	a0,40(s2)
 433:src/kernel/slabAllocator.cpp ****         void* allocatedAddr = allocateObject(cachep->slabs_empty);
 2173              		.loc 1 433 9 is_stmt 1
 433:src/kernel/slabAllocator.cpp ****         void* allocatedAddr = allocateObject(cachep->slabs_empty);
 2174              		.loc 1 433 27 is_stmt 0
 2175 0ce0 93850404 		addi	a1,s1,64
 2176 0ce4 13050900 		mv	a0,s2
 2177              	.LVL224:
 2178 0ce8 97000000 		call	_Z18insertIntoSlabListP6slab_sPS0_
 2178      E7800000 
 2179              	.LVL225:
 434:src/kernel/slabAllocator.cpp ****         if(!empty(cachep->slabs_empty))
 2180              		.loc 1 434 9 is_stmt 1
 434:src/kernel/slabAllocator.cpp ****         if(!empty(cachep->slabs_empty))
 2181              		.loc 1 434 45 is_stmt 0
 2182 0cf0 03B50404 		ld	a0,64(s1)
 2183 0cf4 97000000 		call	_Z14allocateObjectP6slab_s
 2183      E7800000 
 2184              	.LVL226:
 2185 0cfc 13090500 		mv	s2,a0
 2186              	.LVL227:
 435:src/kernel/slabAllocator.cpp ****         {
 2187              		.loc 1 435 9 is_stmt 1
 435:src/kernel/slabAllocator.cpp ****         {
 2188              		.loc 1 435 18 is_stmt 0
 2189 0d00 03B50404 		ld	a0,64(s1)
 2190              	.LVL228:
 2191 0d04 97000000 		call	_Z5emptyP6slab_s
 2191      E7800000 
 2192              	.LVL229:
 435:src/kernel/slabAllocator.cpp ****         {
 2193              		.loc 1 435 9
 2194 0d0c E31C05F4 		bnez	a0,.L118
 437:src/kernel/slabAllocator.cpp ****             if(full(cachep->slabs_partial))
 2195              		.loc 1 437 13 is_stmt 1
 437:src/kernel/slabAllocator.cpp ****             if(full(cachep->slabs_partial))
 2196              		.loc 1 437 30 is_stmt 0
 2197 0d10 13850400 		mv	a0,s1
 2198 0d14 97000000 		call	_Z17putEmptyToPartialP12kmem_cache_s
 2198      E7800000 
 2199              	.LVL230:
 438:src/kernel/slabAllocator.cpp ****                 putPartialToFull(cachep);
GAS LISTING /tmp/cctmPoEZ.s 			page 53


 2200              		.loc 1 438 13 is_stmt 1
 438:src/kernel/slabAllocator.cpp ****                 putPartialToFull(cachep);
 2201              		.loc 1 438 20 is_stmt 0
 2202 0d1c 03B50405 		ld	a0,80(s1)
 2203 0d20 97000000 		call	_Z4fullP6slab_s
 2203      E7800000 
 2204              	.LVL231:
 438:src/kernel/slabAllocator.cpp ****                 putPartialToFull(cachep);
 2205              		.loc 1 438 13
 2206 0d28 E30E05F2 		beqz	a0,.L118
 439:src/kernel/slabAllocator.cpp ****         }
 2207              		.loc 1 439 17 is_stmt 1
 439:src/kernel/slabAllocator.cpp ****         }
 2208              		.loc 1 439 33 is_stmt 0
 2209 0d2c 13850400 		mv	a0,s1
 2210 0d30 97000000 		call	_Z16putPartialToFullP12kmem_cache_s
 2210      E7800000 
 2211              	.LVL232:
 441:src/kernel/slabAllocator.cpp ****     }
 2212              		.loc 1 441 9 is_stmt 1
 441:src/kernel/slabAllocator.cpp ****     }
 2213              		.loc 1 441 16 is_stmt 0
 2214 0d38 6FF0DFF2 		j	.L118
 2215              	.LVL233:
 2216              	.L130:
 429:src/kernel/slabAllocator.cpp ****             return nullptr;
 2217              		.loc 1 429 13 is_stmt 1
 429:src/kernel/slabAllocator.cpp ****             return nullptr;
 2218              		.loc 1 429 28 is_stmt 0
 2219 0d3c 93050900 		mv	a1,s2
 2220 0d40 17050000 		ld	a0,.LANCHOR0+8
 2220      03350500 
 2221              	.LVL234:
 2222 0d48 97000000 		call	_Z15kmem_cache_freeP12kmem_cache_sPv
 2222      E7800000 
 2223              	.LVL235:
 430:src/kernel/slabAllocator.cpp ****         }
 2224              		.loc 1 430 13 is_stmt 1
 430:src/kernel/slabAllocator.cpp ****         }
 2225              		.loc 1 430 20 is_stmt 0
 2226 0d50 13890900 		mv	s2,s3
 2227              	.LVL236:
 2228 0d54 6FF01FF1 		j	.L118
 2229              	.LVL237:
 2230              	.L126:
 2231              	.LBE26:
 2232              	.LBE29:
 2233              	.LBE31:
 397:src/kernel/slabAllocator.cpp **** 
 2234              		.loc 1 397 16
 2235 0d58 13090500 		mv	s2,a0
 2236 0d5c 6FF09FF0 		j	.L118
 2237              		.cfi_endproc
 2238              	.LFE29:
 2240              		.align	2
 2241              		.globl	_Z9big_kfreeP6slab_sPKv
 2243              	_Z9big_kfreeP6slab_sPKv:
GAS LISTING /tmp/cctmPoEZ.s 			page 54


 2244              	.LFB30:
 447:src/kernel/slabAllocator.cpp ****     if(slab == nullptr || objp == nullptr)
 2245              		.loc 1 447 1 is_stmt 1
 2246              		.cfi_startproc
 2247              	.LVL238:
 448:src/kernel/slabAllocator.cpp ****         return;
 2248              		.loc 1 448 5
 2249 0d60 63080508 		beqz	a0,.L135
 448:src/kernel/slabAllocator.cpp ****         return;
 2250              		.loc 1 448 24 is_stmt 0 discriminator 1
 2251 0d64 63860508 		beqz	a1,.L135
 447:src/kernel/slabAllocator.cpp ****     if(slab == nullptr || objp == nullptr)
 2252              		.loc 1 447 1
 2253 0d68 130101FD 		addi	sp,sp,-48
 2254              		.cfi_def_cfa_offset 48
 2255 0d6c 23341102 		sd	ra,40(sp)
 2256 0d70 23308102 		sd	s0,32(sp)
 2257 0d74 233C9100 		sd	s1,24(sp)
 2258 0d78 23382101 		sd	s2,16(sp)
 2259 0d7c 23343101 		sd	s3,8(sp)
 2260              		.cfi_offset 1, -8
 2261              		.cfi_offset 8, -16
 2262              		.cfi_offset 9, -24
 2263              		.cfi_offset 18, -32
 2264              		.cfi_offset 19, -40
 2265 0d80 13040103 		addi	s0,sp,48
 2266              		.cfi_def_cfa 8, 0
 450:src/kernel/slabAllocator.cpp **** //    if(objp != slab->startAddr)
 2267              		.loc 1 450 5 is_stmt 1
 450:src/kernel/slabAllocator.cpp **** //    if(objp != slab->startAddr)
 2268              		.loc 1 450 19 is_stmt 0
 2269 0d84 83390501 		ld	s3,16(a0)
 2270              	.LVL239:
 453:src/kernel/slabAllocator.cpp ****     slab_t* slabE = cachep->slabs_empty;
 2271              		.loc 1 453 5 is_stmt 1
 453:src/kernel/slabAllocator.cpp ****     slab_t* slabE = cachep->slabs_empty;
 2272              		.loc 1 453 21 is_stmt 0
 2273 0d88 97000000 		call	_Z16free_slab_objectP6slab_sPKv
 2273      E7800000 
 2274              	.LVL240:
 454:src/kernel/slabAllocator.cpp ****     while(slabE != nullptr)
 2275              		.loc 1 454 5 is_stmt 1
 454:src/kernel/slabAllocator.cpp ****     while(slabE != nullptr)
 2276              		.loc 1 454 13 is_stmt 0
 2277 0d90 83B40904 		ld	s1,64(s3)
 2278              	.LVL241:
 2279 0d94 6F00C003 		j	.L133
 2280              	.L138:
 2281              	.LBB32:
 457:src/kernel/slabAllocator.cpp ****         slabE = cachep->slabs_empty = slabE->next;
 2282              		.loc 1 457 9 is_stmt 1
 2283              	.LVL242:
 458:src/kernel/slabAllocator.cpp ****         buddy_free((void*)old->startAddr, 2*(cachep->obj_size / BLOCK_SIZE));
 2284              		.loc 1 458 9
 458:src/kernel/slabAllocator.cpp ****         buddy_free((void*)old->startAddr, 2*(cachep->obj_size / BLOCK_SIZE));
 2285              		.loc 1 458 46 is_stmt 0
 2286 0d98 03B98400 		ld	s2,8(s1)
GAS LISTING /tmp/cctmPoEZ.s 			page 55


 458:src/kernel/slabAllocator.cpp ****         buddy_free((void*)old->startAddr, 2*(cachep->obj_size / BLOCK_SIZE));
 2287              		.loc 1 458 37
 2288 0d9c 23B02905 		sd	s2,64(s3)
 2289              	.LVL243:
 459:src/kernel/slabAllocator.cpp ****         kmem_cache_free(cacheOfSlabs, old);
 2290              		.loc 1 459 9 is_stmt 1
 459:src/kernel/slabAllocator.cpp ****         kmem_cache_free(cacheOfSlabs, old);
 2291              		.loc 1 459 54 is_stmt 0
 2292 0da0 83B50906 		ld	a1,96(s3)
 459:src/kernel/slabAllocator.cpp ****         kmem_cache_free(cacheOfSlabs, old);
 2293              		.loc 1 459 63
 2294 0da4 93D5C500 		srli	a1,a1,12
 459:src/kernel/slabAllocator.cpp ****         kmem_cache_free(cacheOfSlabs, old);
 2295              		.loc 1 459 19
 2296 0da8 93951500 		slli	a1,a1,1
 2297 0dac 03B58402 		ld	a0,40(s1)
 2298 0db0 97000000 		call	_Z10buddy_freePvm@plt
 2298      E7800000 
 2299              	.LVL244:
 460:src/kernel/slabAllocator.cpp ****     }
 2300              		.loc 1 460 9 is_stmt 1
 460:src/kernel/slabAllocator.cpp ****     }
 2301              		.loc 1 460 24 is_stmt 0
 2302 0db8 93850400 		mv	a1,s1
 2303 0dbc 17050000 		ld	a0,.LANCHOR0+8
 2303      03350500 
 2304 0dc4 97000000 		call	_Z15kmem_cache_freeP12kmem_cache_sPv
 2304      E7800000 
 2305              	.LVL245:
 458:src/kernel/slabAllocator.cpp ****         buddy_free((void*)old->startAddr, 2*(cachep->obj_size / BLOCK_SIZE));
 2306              		.loc 1 458 15
 2307 0dcc 93040900 		mv	s1,s2
 2308              	.LVL246:
 2309              	.L133:
 2310              	.LBE32:
 455:src/kernel/slabAllocator.cpp ****     {
 2311              		.loc 1 455 5 is_stmt 1
 455:src/kernel/slabAllocator.cpp ****     {
 2312              		.loc 1 455 17
 2313 0dd0 E39404FC 		bnez	s1,.L138
 467:src/kernel/slabAllocator.cpp **** 
 2314              		.loc 1 467 1 is_stmt 0
 2315 0dd4 83308102 		ld	ra,40(sp)
 2316              		.cfi_restore 1
 2317 0dd8 03340102 		ld	s0,32(sp)
 2318              		.cfi_restore 8
 2319              		.cfi_def_cfa 2, 48
 2320 0ddc 83348101 		ld	s1,24(sp)
 2321              		.cfi_restore 9
 2322              	.LVL247:
 2323 0de0 03390101 		ld	s2,16(sp)
 2324              		.cfi_restore 18
 2325 0de4 83398100 		ld	s3,8(sp)
 2326              		.cfi_restore 19
 2327              	.LVL248:
 2328 0de8 13010103 		addi	sp,sp,48
 2329              		.cfi_def_cfa_offset 0
GAS LISTING /tmp/cctmPoEZ.s 			page 56


 2330 0dec 67800000 		jr	ra
 2331              	.LVL249:
 2332              	.L135:
 2333 0df0 67800000 		ret
 2334              		.cfi_endproc
 2335              	.LFE30:
 2337              		.section	.rodata.str1.8
 2338 0097 00       		.align	3
 2339              	.LC7:
 2340 0098 0A0A0A0A 		.string	"\n\n\n\n\n"
 2340      0A00
 2341 009e 0000     		.align	3
 2342              	.LC8:
 2343 00a0 4B6D656D 		.string	"Kmem Cache Info-------------------------------------\n"
 2343      20436163 
 2343      68652049 
 2343      6E666F2D 
 2343      2D2D2D2D 
 2344 00d6 0000     		.align	3
 2345              	.LC9:
 2346 00d8 43616368 		.string	"Cache Name "
 2346      65204E61 
 2346      6D652000 
 2347 00e4 00000000 		.align	3
 2348              	.LC10:
 2349 00e8 0A00     		.string	"\n"
 2350 00ea 00000000 		.align	3
 2350      0000
 2351              	.LC11:
 2352 00f0 43616368 		.string	"Cache slab size in blocks "
 2352      6520736C 
 2352      61622073 
 2352      697A6520 
 2352      696E2062 
 2353 010b 00000000 		.align	3
 2353      00
 2354              	.LC12:
 2355 0110 43616368 		.string	"Cache obj size in bytes "
 2355      65206F62 
 2355      6A207369 
 2355      7A652069 
 2355      6E206279 
 2356 0129 00000000 		.align	3
 2356      000000
 2357              	.LC13:
 2358 0130 536C6162 		.string	"Slabs info-------------------\n"
 2358      7320696E 
 2358      666F2D2D 
 2358      2D2D2D2D 
 2358      2D2D2D2D 
 2359 014f 00       		.align	3
 2360              	.LC14:
 2361 0150 46756C6C 		.string	"Full slabs\n"
 2361      20736C61 
 2361      62730A00 
 2362 015c 00000000 		.align	3
 2363              	.LC15:
GAS LISTING /tmp/cctmPoEZ.s 			page 57


 2364 0160 50617274 		.string	"Partial slabs\n"
 2364      69616C20 
 2364      736C6162 
 2364      730A00
 2365 016f 00       		.align	3
 2366              	.LC16:
 2367 0170 456D7074 		.string	"Empty slabs\n"
 2367      7920736C 
 2367      6162730A 
 2367      00
 2368              		.text
 2369              		.align	2
 2370              		.globl	_Z15kmem_cache_infoP12kmem_cache_s
 2372              	_Z15kmem_cache_infoP12kmem_cache_s:
 2373              	.LFB35:
 540:src/kernel/slabAllocator.cpp **** 
 541:src/kernel/slabAllocator.cpp **** //TODO what needs to be printed
 542:src/kernel/slabAllocator.cpp **** void kmem_cache_info(kmem_cache_t *cachep)
 543:src/kernel/slabAllocator.cpp **** {
 2374              		.loc 1 543 1 is_stmt 1
 2375              		.cfi_startproc
 2376              	.LVL250:
 544:src/kernel/slabAllocator.cpp ****     if(cachep == nullptr)
 2377              		.loc 1 544 5
 2378 0df4 630C0514 		beqz	a0,.L148
 543:src/kernel/slabAllocator.cpp ****     if(cachep == nullptr)
 2379              		.loc 1 543 1 is_stmt 0
 2380 0df8 130101FE 		addi	sp,sp,-32
 2381              		.cfi_def_cfa_offset 32
 2382 0dfc 233C1100 		sd	ra,24(sp)
 2383 0e00 23388100 		sd	s0,16(sp)
 2384 0e04 23349100 		sd	s1,8(sp)
 2385 0e08 23302101 		sd	s2,0(sp)
 2386              		.cfi_offset 1, -8
 2387              		.cfi_offset 8, -16
 2388              		.cfi_offset 9, -24
 2389              		.cfi_offset 18, -32
 2390 0e0c 13040102 		addi	s0,sp,32
 2391              		.cfi_def_cfa 8, 0
 2392 0e10 13090500 		mv	s2,a0
 545:src/kernel/slabAllocator.cpp ****         return;
 546:src/kernel/slabAllocator.cpp ****     KConsole::trapPrintString("\n\n\n\n\n");
 2393              		.loc 1 546 5 is_stmt 1
 2394              		.loc 1 546 30 is_stmt 0
 2395 0e14 17050000 		lla	a0,.LC7
 2395      13050500 
 2396              	.LVL251:
 2397 0e1c 97000000 		call	_ZN8KConsole15trapPrintStringEPKc@plt
 2397      E7800000 
 2398              	.LVL252:
 547:src/kernel/slabAllocator.cpp ****     KConsole::trapPrintString("Kmem Cache Info-------------------------------------\n");
 2399              		.loc 1 547 5 is_stmt 1
 2400              		.loc 1 547 30 is_stmt 0
 2401 0e24 17050000 		lla	a0,.LC8
 2401      13050500 
 2402 0e2c 97000000 		call	_ZN8KConsole15trapPrintStringEPKc@plt
 2402      E7800000 
GAS LISTING /tmp/cctmPoEZ.s 			page 58


 2403              	.LVL253:
 548:src/kernel/slabAllocator.cpp ****     KConsole::trapPrintString("Cache Name ");
 2404              		.loc 1 548 5 is_stmt 1
 2405              		.loc 1 548 30 is_stmt 0
 2406 0e34 17050000 		lla	a0,.LC9
 2406      13050500 
 2407 0e3c 97000000 		call	_ZN8KConsole15trapPrintStringEPKc@plt
 2407      E7800000 
 2408              	.LVL254:
 549:src/kernel/slabAllocator.cpp ****     KConsole::trapPrintString(cachep->cacheName); KConsole::trapPrintString("\n");
 2409              		.loc 1 549 5 is_stmt 1
 2410              		.loc 1 549 30 is_stmt 0
 2411 0e44 13050900 		mv	a0,s2
 2412 0e48 97000000 		call	_ZN8KConsole15trapPrintStringEPKc@plt
 2412      E7800000 
 2413              	.LVL255:
 2414              		.loc 1 549 51 is_stmt 1
 2415              		.loc 1 549 76 is_stmt 0
 2416 0e50 17050000 		lla	a0,.LC10
 2416      13050500 
 2417 0e58 97000000 		call	_ZN8KConsole15trapPrintStringEPKc@plt
 2417      E7800000 
 2418              	.LVL256:
 550:src/kernel/slabAllocator.cpp ****     KConsole::trapPrintStringInt("Cache slab size in blocks ", cachep->slab_size);
 2419              		.loc 1 550 5 is_stmt 1
 2420              		.loc 1 550 33 is_stmt 0
 2421 0e60 1306A000 		li	a2,10
 2422 0e64 83358905 		ld	a1,88(s2)
 2423 0e68 17050000 		lla	a0,.LC11
 2423      13050500 
 2424 0e70 97000000 		call	_ZN8KConsole18trapPrintStringIntEPKcmi@plt
 2424      E7800000 
 2425              	.LVL257:
 551:src/kernel/slabAllocator.cpp ****     KConsole::trapPrintStringInt("Cache obj size in bytes ", cachep->obj_size);
 2426              		.loc 1 551 5 is_stmt 1
 2427              		.loc 1 551 33 is_stmt 0
 2428 0e78 1306A000 		li	a2,10
 2429 0e7c 83350906 		ld	a1,96(s2)
 2430 0e80 17050000 		lla	a0,.LC12
 2430      13050500 
 2431 0e88 97000000 		call	_ZN8KConsole18trapPrintStringIntEPKcmi@plt
 2431      E7800000 
 2432              	.LVL258:
 552:src/kernel/slabAllocator.cpp ****     
 553:src/kernel/slabAllocator.cpp ****     KConsole::trapPrintString("Slabs info-------------------\n");
 2433              		.loc 1 553 5 is_stmt 1
 2434              		.loc 1 553 30 is_stmt 0
 2435 0e90 17050000 		lla	a0,.LC13
 2435      13050500 
 2436 0e98 97000000 		call	_ZN8KConsole15trapPrintStringEPKc@plt
 2436      E7800000 
 2437              	.LVL259:
 554:src/kernel/slabAllocator.cpp **** 
 555:src/kernel/slabAllocator.cpp ****     KConsole::trapPrintString("Full slabs\n");
 2438              		.loc 1 555 5 is_stmt 1
 2439              		.loc 1 555 30 is_stmt 0
 2440 0ea0 17050000 		lla	a0,.LC14
GAS LISTING /tmp/cctmPoEZ.s 			page 59


 2440      13050500 
 2441 0ea8 97000000 		call	_ZN8KConsole15trapPrintStringEPKc@plt
 2441      E7800000 
 2442              	.LVL260:
 556:src/kernel/slabAllocator.cpp ****     slab_t* slab = cachep->slabs_full;
 2443              		.loc 1 556 5 is_stmt 1
 2444              		.loc 1 556 13 is_stmt 0
 2445 0eb0 83348904 		ld	s1,72(s2)
 2446              	.LVL261:
 2447              	.L142:
 557:src/kernel/slabAllocator.cpp ****     while(slab != nullptr)
 2448              		.loc 1 557 5 is_stmt 1
 2449              		.loc 1 557 16
 2450 0eb4 638C0400 		beqz	s1,.L141
 558:src/kernel/slabAllocator.cpp ****     {
 559:src/kernel/slabAllocator.cpp ****         printSlabInfo(slab);
 2451              		.loc 1 559 9
 2452              		.loc 1 559 22 is_stmt 0
 2453 0eb8 13850400 		mv	a0,s1
 2454 0ebc 97000000 		call	_Z13printSlabInfoP6slab_s
 2454      E7800000 
 2455              	.LVL262:
 560:src/kernel/slabAllocator.cpp ****         slab = slab->next;
 2456              		.loc 1 560 9 is_stmt 1
 2457              		.loc 1 560 14 is_stmt 0
 2458 0ec4 83B48400 		ld	s1,8(s1)
 2459              	.LVL263:
 557:src/kernel/slabAllocator.cpp ****     while(slab != nullptr)
 2460              		.loc 1 557 5
 2461 0ec8 6FF0DFFE 		j	.L142
 2462              	.L141:
 561:src/kernel/slabAllocator.cpp ****     }
 562:src/kernel/slabAllocator.cpp **** 
 563:src/kernel/slabAllocator.cpp ****     KConsole::trapPrintString("Partial slabs\n");
 2463              		.loc 1 563 5 is_stmt 1
 2464              		.loc 1 563 30 is_stmt 0
 2465 0ecc 17050000 		lla	a0,.LC15
 2465      13050500 
 2466 0ed4 97000000 		call	_ZN8KConsole15trapPrintStringEPKc@plt
 2466      E7800000 
 2467              	.LVL264:
 564:src/kernel/slabAllocator.cpp ****     slab = cachep->slabs_partial;
 2468              		.loc 1 564 5 is_stmt 1
 2469              		.loc 1 564 10 is_stmt 0
 2470 0edc 83340905 		ld	s1,80(s2)
 2471              	.LVL265:
 2472              	.L144:
 565:src/kernel/slabAllocator.cpp ****     while(slab != nullptr)
 2473              		.loc 1 565 5 is_stmt 1
 2474              		.loc 1 565 16
 2475 0ee0 638C0400 		beqz	s1,.L143
 566:src/kernel/slabAllocator.cpp ****     {
 567:src/kernel/slabAllocator.cpp ****         printSlabInfo(slab);
 2476              		.loc 1 567 9
 2477              		.loc 1 567 22 is_stmt 0
 2478 0ee4 13850400 		mv	a0,s1
 2479 0ee8 97000000 		call	_Z13printSlabInfoP6slab_s
GAS LISTING /tmp/cctmPoEZ.s 			page 60


 2479      E7800000 
 2480              	.LVL266:
 568:src/kernel/slabAllocator.cpp ****         slab = slab->next;
 2481              		.loc 1 568 9 is_stmt 1
 2482              		.loc 1 568 14 is_stmt 0
 2483 0ef0 83B48400 		ld	s1,8(s1)
 2484              	.LVL267:
 565:src/kernel/slabAllocator.cpp ****     while(slab != nullptr)
 2485              		.loc 1 565 5
 2486 0ef4 6FF0DFFE 		j	.L144
 2487              	.L143:
 569:src/kernel/slabAllocator.cpp ****     }
 570:src/kernel/slabAllocator.cpp **** 
 571:src/kernel/slabAllocator.cpp ****     KConsole::trapPrintString("Empty slabs\n");
 2488              		.loc 1 571 5 is_stmt 1
 2489              		.loc 1 571 30 is_stmt 0
 2490 0ef8 17050000 		lla	a0,.LC16
 2490      13050500 
 2491 0f00 97000000 		call	_ZN8KConsole15trapPrintStringEPKc@plt
 2491      E7800000 
 2492              	.LVL268:
 572:src/kernel/slabAllocator.cpp ****     slab = cachep->slabs_empty;
 2493              		.loc 1 572 5 is_stmt 1
 2494              		.loc 1 572 10 is_stmt 0
 2495 0f08 83340904 		ld	s1,64(s2)
 2496              	.LVL269:
 2497              	.L146:
 573:src/kernel/slabAllocator.cpp ****     while(slab != nullptr)
 2498              		.loc 1 573 5 is_stmt 1
 2499              		.loc 1 573 16
 2500 0f0c 638C0400 		beqz	s1,.L145
 574:src/kernel/slabAllocator.cpp ****     {
 575:src/kernel/slabAllocator.cpp ****         printSlabInfo(slab);
 2501              		.loc 1 575 9
 2502              		.loc 1 575 22 is_stmt 0
 2503 0f10 13850400 		mv	a0,s1
 2504 0f14 97000000 		call	_Z13printSlabInfoP6slab_s
 2504      E7800000 
 2505              	.LVL270:
 576:src/kernel/slabAllocator.cpp ****         slab = slab->next;
 2506              		.loc 1 576 9 is_stmt 1
 2507              		.loc 1 576 14 is_stmt 0
 2508 0f1c 83B48400 		ld	s1,8(s1)
 2509              	.LVL271:
 573:src/kernel/slabAllocator.cpp ****     while(slab != nullptr)
 2510              		.loc 1 573 5
 2511 0f20 6FF0DFFE 		j	.L146
 2512              	.L145:
 577:src/kernel/slabAllocator.cpp ****     }
 578:src/kernel/slabAllocator.cpp **** 
 579:src/kernel/slabAllocator.cpp ****     KConsole::trapPrintString("\n\n\n\n\n");
 2513              		.loc 1 579 5 is_stmt 1
 2514              		.loc 1 579 30 is_stmt 0
 2515 0f24 17050000 		lla	a0,.LC7
 2515      13050500 
 2516 0f2c 97000000 		call	_ZN8KConsole15trapPrintStringEPKc@plt
 2516      E7800000 
GAS LISTING /tmp/cctmPoEZ.s 			page 61


 2517              	.LVL272:
 580:src/kernel/slabAllocator.cpp **** }
 2518              		.loc 1 580 1
 2519 0f34 83308101 		ld	ra,24(sp)
 2520              		.cfi_restore 1
 2521 0f38 03340101 		ld	s0,16(sp)
 2522              		.cfi_restore 8
 2523              		.cfi_def_cfa 2, 32
 2524 0f3c 83348100 		ld	s1,8(sp)
 2525              		.cfi_restore 9
 2526              	.LVL273:
 2527 0f40 03390100 		ld	s2,0(sp)
 2528              		.cfi_restore 18
 2529              	.LVL274:
 2530 0f44 13010102 		addi	sp,sp,32
 2531              		.cfi_def_cfa_offset 0
 2532 0f48 67800000 		jr	ra
 2533              	.LVL275:
 2534              	.L148:
 2535 0f4c 67800000 		ret
 2536              		.cfi_endproc
 2537              	.LFE35:
 2539              		.section	.rodata.str1.8
 2540 017d 000000   		.align	3
 2541              	.LC17:
 2542 0180 0A0A0A0A 		.string	"\n\n\n\n\n\n\n\n\n"
 2542      0A0A0A0A 
 2542      0A00
 2543 018a 00000000 		.align	3
 2543      0000
 2544              	.LC18:
 2545 0190 536C6162 		.string	"Slab allocator info----------------------------------------------------------\n"
 2545      20616C6C 
 2545      6F636174 
 2545      6F722069 
 2545      6E666F2D 
 2546 01df 00       		.align	3
 2547              	.LC19:
 2548 01e0 536C6162 		.string	"Slab allocator address "
 2548      20616C6C 
 2548      6F636174 
 2548      6F722061 
 2548      64647265 
 2549              		.align	3
 2550              	.LC20:
 2551 01f8 43616368 		.string	"Cache of caches info\n"
 2551      65206F66 
 2551      20636163 
 2551      68657320 
 2551      696E666F 
 2552 020e 0000     		.align	3
 2553              	.LC21:
 2554 0210 43616368 		.string	"Caches for buffers\n"
 2554      65732066 
 2554      6F722062 
 2554      75666665 
 2554      72730A00 
GAS LISTING /tmp/cctmPoEZ.s 			page 62


 2555              		.text
 2556              		.align	2
 2557              		.globl	_Z22printSlabAllocatorInfov
 2559              	_Z22printSlabAllocatorInfov:
 2560              	.LFB26:
 343:src/kernel/slabAllocator.cpp ****     KConsole::trapPrintString("\n\n\n\n\n\n\n\n\n");
 2561              		.loc 1 343 1 is_stmt 1
 2562              		.cfi_startproc
 2563 0f50 130101FE 		addi	sp,sp,-32
 2564              		.cfi_def_cfa_offset 32
 2565 0f54 233C1100 		sd	ra,24(sp)
 2566 0f58 23388100 		sd	s0,16(sp)
 2567 0f5c 23349100 		sd	s1,8(sp)
 2568              		.cfi_offset 1, -8
 2569              		.cfi_offset 8, -16
 2570              		.cfi_offset 9, -24
 2571 0f60 13040102 		addi	s0,sp,32
 2572              		.cfi_def_cfa 8, 0
 344:src/kernel/slabAllocator.cpp ****     KConsole::trapPrintString("Slab allocator info-------------------------------------------------
 2573              		.loc 1 344 5
 344:src/kernel/slabAllocator.cpp ****     KConsole::trapPrintString("Slab allocator info-------------------------------------------------
 2574              		.loc 1 344 30 is_stmt 0
 2575 0f64 17050000 		lla	a0,.LC17
 2575      13050500 
 2576 0f6c 97000000 		call	_ZN8KConsole15trapPrintStringEPKc@plt
 2576      E7800000 
 2577              	.LVL276:
 345:src/kernel/slabAllocator.cpp ****     KConsole::trapPrintStringInt("Slab allocator address ", (size_t)slabAllocator, 16);
 2578              		.loc 1 345 5 is_stmt 1
 345:src/kernel/slabAllocator.cpp ****     KConsole::trapPrintStringInt("Slab allocator address ", (size_t)slabAllocator, 16);
 2579              		.loc 1 345 30 is_stmt 0
 2580 0f74 17050000 		lla	a0,.LC18
 2580      13050500 
 2581 0f7c 97000000 		call	_ZN8KConsole15trapPrintStringEPKc@plt
 2581      E7800000 
 2582              	.LVL277:
 346:src/kernel/slabAllocator.cpp ****     KConsole::trapPrintString("Cache of caches info\n");
 2583              		.loc 1 346 5 is_stmt 1
 346:src/kernel/slabAllocator.cpp ****     KConsole::trapPrintString("Cache of caches info\n");
 2584              		.loc 1 346 33 is_stmt 0
 2585 0f84 97040000 		lla	s1,.LANCHOR0
 2585      93840400 
 2586 0f8c 13060001 		li	a2,16
 2587 0f90 83B50400 		ld	a1,0(s1)
 2588 0f94 17050000 		lla	a0,.LC19
 2588      13050500 
 2589 0f9c 97000000 		call	_ZN8KConsole18trapPrintStringIntEPKcmi@plt
 2589      E7800000 
 2590              	.LVL278:
 347:src/kernel/slabAllocator.cpp ****     kmem_cache_info(&slabAllocator->cacheOfCaches);
 2591              		.loc 1 347 5 is_stmt 1
 347:src/kernel/slabAllocator.cpp ****     kmem_cache_info(&slabAllocator->cacheOfCaches);
 2592              		.loc 1 347 30 is_stmt 0
 2593 0fa4 17050000 		lla	a0,.LC20
 2593      13050500 
 2594 0fac 97000000 		call	_ZN8KConsole15trapPrintStringEPKc@plt
 2594      E7800000 
GAS LISTING /tmp/cctmPoEZ.s 			page 63


 2595              	.LVL279:
 348:src/kernel/slabAllocator.cpp ****     KConsole::trapPrintString("Caches for buffers\n");
 2596              		.loc 1 348 5 is_stmt 1
 348:src/kernel/slabAllocator.cpp ****     KConsole::trapPrintString("Caches for buffers\n");
 2597              		.loc 1 348 37 is_stmt 0
 2598 0fb4 03B50400 		ld	a0,0(s1)
 348:src/kernel/slabAllocator.cpp ****     KConsole::trapPrintString("Caches for buffers\n");
 2599              		.loc 1 348 20
 2600 0fb8 13058506 		addi	a0,a0,104
 2601 0fbc 97000000 		call	_Z15kmem_cache_infoP12kmem_cache_s
 2601      E7800000 
 2602              	.LVL280:
 349:src/kernel/slabAllocator.cpp ****     for(size_t i = 0;i < CACHE_BUFFER_SIZE;i++)
 2603              		.loc 1 349 5 is_stmt 1
 349:src/kernel/slabAllocator.cpp ****     for(size_t i = 0;i < CACHE_BUFFER_SIZE;i++)
 2604              		.loc 1 349 30 is_stmt 0
 2605 0fc4 17050000 		lla	a0,.LC21
 2605      13050500 
 2606 0fcc 97000000 		call	_ZN8KConsole15trapPrintStringEPKc@plt
 2606      E7800000 
 2607              	.LVL281:
 350:src/kernel/slabAllocator.cpp ****     {
 2608              		.loc 1 350 5 is_stmt 1
 2609              	.LBB33:
 350:src/kernel/slabAllocator.cpp ****     {
 2610              		.loc 1 350 16 is_stmt 0
 2611 0fd4 93040000 		li	s1,0
 2612 0fd8 6F000001 		j	.L154
 2613              	.LVL282:
 2614              	.L156:
 354:src/kernel/slabAllocator.cpp ****         }
 2615              		.loc 1 354 13 is_stmt 1
 354:src/kernel/slabAllocator.cpp ****         }
 2616              		.loc 1 354 28 is_stmt 0
 2617 0fdc 97000000 		call	_Z15kmem_cache_infoP12kmem_cache_s
 2617      E7800000 
 2618              	.LVL283:
 2619              	.L153:
 350:src/kernel/slabAllocator.cpp ****     {
 2620              		.loc 1 350 5 is_stmt 1 discriminator 2
 2621 0fe4 93841400 		addi	s1,s1,1
 2622              	.LVL284:
 2623              	.L154:
 350:src/kernel/slabAllocator.cpp ****     {
 2624              		.loc 1 350 24 discriminator 1
 2625 0fe8 9307C000 		li	a5,12
 2626 0fec 63E09702 		bgtu	s1,a5,.L152
 352:src/kernel/slabAllocator.cpp ****         {
 2627              		.loc 1 352 9
 352:src/kernel/slabAllocator.cpp ****         {
 2628              		.loc 1 352 42 is_stmt 0
 2629 0ff0 93973400 		slli	a5,s1,3
 2630 0ff4 17070000 		ld	a4,.LANCHOR0
 2630      03370700 
 2631 0ffc B307F700 		add	a5,a4,a5
 2632 1000 03B50700 		ld	a0,0(a5)
 352:src/kernel/slabAllocator.cpp ****         {
GAS LISTING /tmp/cctmPoEZ.s 			page 64


 2633              		.loc 1 352 9
 2634 1004 E31C05FC 		bnez	a0,.L156
 2635 1008 6FF0DFFD 		j	.L153
 2636              	.L152:
 2637              	.LBE33:
 357:src/kernel/slabAllocator.cpp ****     printBuddyInfo();
 2638              		.loc 1 357 5 is_stmt 1
 357:src/kernel/slabAllocator.cpp ****     printBuddyInfo();
 2639              		.loc 1 357 30 is_stmt 0
 2640 100c 17050000 		lla	a0,.LC17
 2640      13050500 
 2641 1014 97000000 		call	_ZN8KConsole15trapPrintStringEPKc@plt
 2641      E7800000 
 2642              	.LVL285:
 358:src/kernel/slabAllocator.cpp **** }
 2643              		.loc 1 358 5 is_stmt 1
 358:src/kernel/slabAllocator.cpp **** }
 2644              		.loc 1 358 19 is_stmt 0
 2645 101c 97000000 		call	_Z14printBuddyInfov@plt
 2645      E7800000 
 2646              	.LVL286:
 359:src/kernel/slabAllocator.cpp **** 
 2647              		.loc 1 359 1
 2648 1024 83308101 		ld	ra,24(sp)
 2649              		.cfi_restore 1
 2650 1028 03340101 		ld	s0,16(sp)
 2651              		.cfi_restore 8
 2652              		.cfi_def_cfa 2, 32
 2653 102c 83348100 		ld	s1,8(sp)
 2654              		.cfi_restore 9
 2655              	.LVL287:
 2656 1030 13010102 		addi	sp,sp,32
 2657              		.cfi_def_cfa_offset 0
 2658 1034 67800000 		jr	ra
 2659              		.cfi_endproc
 2660              	.LFE26:
 2662              		.section	.rodata.str1.8
 2663 0224 00000000 		.align	3
 2664              	.LC22:
 2665 0228 43616368 		.string	"Cache for small buffers"
 2665      6520666F 
 2665      7220736D 
 2665      616C6C20 
 2665      62756666 
 2666              		.text
 2667              		.align	2
 2668              		.globl	_Z7kmallocm
 2670              	_Z7kmallocm:
 2671              	.LFB36:
 581:src/kernel/slabAllocator.cpp **** 
 582:src/kernel/slabAllocator.cpp **** void *kmalloc(size_t size)
 583:src/kernel/slabAllocator.cpp **** {
 2672              		.loc 1 583 1 is_stmt 1
 2673              		.cfi_startproc
 2674              	.LVL288:
 2675 1038 130101FD 		addi	sp,sp,-48
 2676              		.cfi_def_cfa_offset 48
GAS LISTING /tmp/cctmPoEZ.s 			page 65


 2677 103c 23341102 		sd	ra,40(sp)
 2678 1040 23308102 		sd	s0,32(sp)
 2679 1044 233C9100 		sd	s1,24(sp)
 2680 1048 23382101 		sd	s2,16(sp)
 2681 104c 23343101 		sd	s3,8(sp)
 2682              		.cfi_offset 1, -8
 2683              		.cfi_offset 8, -16
 2684              		.cfi_offset 9, -24
 2685              		.cfi_offset 18, -32
 2686              		.cfi_offset 19, -40
 2687 1050 13040103 		addi	s0,sp,48
 2688              		.cfi_def_cfa 8, 0
 584:src/kernel/slabAllocator.cpp ****     size_t level = getDeg2Ceil(size);
 2689              		.loc 1 584 5
 2690              		.loc 1 584 31 is_stmt 0
 2691 1054 97000000 		call	_Z11getDeg2Ceilm@plt
 2691      E7800000 
 2692              	.LVL289:
 585:src/kernel/slabAllocator.cpp ****     if(level < CACHE_BUFFER_SMALL)
 2693              		.loc 1 585 5 is_stmt 1
 2694 105c 93074000 		li	a5,4
 2695 1060 63FAA700 		bleu	a0,a5,.L163
 586:src/kernel/slabAllocator.cpp ****         level = CACHE_BUFFER_SMALL;
 587:src/kernel/slabAllocator.cpp ****     if(level > CACHE_BUFFER_BIG)
 2696              		.loc 1 587 5
 2697 1064 93071001 		li	a5,17
 2698 1068 63F8A700 		bleu	a0,a5,.L158
 588:src/kernel/slabAllocator.cpp ****         return nullptr;
 2699              		.loc 1 588 16 is_stmt 0
 2700 106c 13090000 		li	s2,0
 2701 1070 6F004005 		j	.L157
 2702              	.L163:
 586:src/kernel/slabAllocator.cpp ****         level = CACHE_BUFFER_SMALL;
 2703              		.loc 1 586 15
 2704 1074 13055000 		li	a0,5
 2705              	.LVL290:
 2706              	.L158:
 589:src/kernel/slabAllocator.cpp ****     size = (1 << level);
 2707              		.loc 1 589 5 is_stmt 1
 2708              		.loc 1 589 15 is_stmt 0
 2709 1078 93061000 		li	a3,1
 2710 107c BB99A600 		sllw	s3,a3,a0
 2711              	.LVL291:
 590:src/kernel/slabAllocator.cpp ****     size_t index = level - CACHE_BUFFER_SMALL;
 2712              		.loc 1 590 5 is_stmt 1
 2713              		.loc 1 590 12 is_stmt 0
 2714 1080 9304B5FF 		addi	s1,a0,-5
 2715              	.LVL292:
 591:src/kernel/slabAllocator.cpp **** 
 592:src/kernel/slabAllocator.cpp ****     static size_t border = 12;
 2716              		.loc 1 592 5 is_stmt 1
 593:src/kernel/slabAllocator.cpp ****     if(level >= border)
 2717              		.loc 1 593 5
 2718 1084 9307B000 		li	a5,11
 2719 1088 63FAA70A 		bleu	a0,a5,.L160
 594:src/kernel/slabAllocator.cpp ****     {
 595:src/kernel/slabAllocator.cpp ****         if(slabAllocator->cachesBuffers[index] == nullptr)
GAS LISTING /tmp/cctmPoEZ.s 			page 66


 2720              		.loc 1 595 9
 2721              		.loc 1 595 46 is_stmt 0
 2722 108c 17090000 		ld	s2,.LANCHOR0
 2722      03390900 
 2723 1094 93973400 		slli	a5,s1,3
 2724 1098 B307F900 		add	a5,s2,a5
 2725 109c 83B70700 		ld	a5,0(a5)
 2726              		.loc 1 595 9
 2727 10a0 63820704 		beqz	a5,.L166
 2728              	.L161:
 596:src/kernel/slabAllocator.cpp ****         {
 597:src/kernel/slabAllocator.cpp ****             slabAllocator->cachesBuffers[index] = (kmem_cache_t*)kmem_cache_alloc(&slabAllocator->c
 598:src/kernel/slabAllocator.cpp ****             if(slabAllocator->cachesBuffers[index] == nullptr)
 599:src/kernel/slabAllocator.cpp ****                 return nullptr;
 600:src/kernel/slabAllocator.cpp ****             init_cache(slabAllocator->cachesBuffers[index], "Cache for small buffers", 2*(size / BL
 601:src/kernel/slabAllocator.cpp ****         }
 602:src/kernel/slabAllocator.cpp **** 
 603:src/kernel/slabAllocator.cpp ****         return bigCacheKmalloc(slabAllocator->cachesBuffers[index]);
 2729              		.loc 1 603 9 is_stmt 1
 2730              		.loc 1 603 31 is_stmt 0
 2731 10a4 93943400 		slli	s1,s1,3
 2732              	.LVL293:
 2733 10a8 97070000 		ld	a5,.LANCHOR0
 2733      83B70700 
 2734 10b0 B3849700 		add	s1,a5,s1
 2735 10b4 03B50400 		ld	a0,0(s1)
 2736 10b8 97000000 		call	_Z15bigCacheKmallocP12kmem_cache_s
 2736      E7800000 
 2737              	.LVL294:
 2738 10c0 13090500 		mv	s2,a0
 2739              	.LVL295:
 2740              	.L157:
 604:src/kernel/slabAllocator.cpp ****     }
 605:src/kernel/slabAllocator.cpp **** 
 606:src/kernel/slabAllocator.cpp ****     if(slabAllocator->cachesBuffers[index] == nullptr)
 607:src/kernel/slabAllocator.cpp ****     {
 608:src/kernel/slabAllocator.cpp ****         slabAllocator->cachesBuffers[index] = (kmem_cache_t*)kmem_cache_alloc(&slabAllocator->cache
 609:src/kernel/slabAllocator.cpp ****         if(slabAllocator->cachesBuffers[index] == nullptr)
 610:src/kernel/slabAllocator.cpp ****             return nullptr;
 611:src/kernel/slabAllocator.cpp ****         init_cache(slabAllocator->cachesBuffers[index], "Cache for small buffers", getOptimalSlabSi
 612:src/kernel/slabAllocator.cpp ****     }
 613:src/kernel/slabAllocator.cpp **** 
 614:src/kernel/slabAllocator.cpp ****     return kmem_cache_alloc(slabAllocator->cachesBuffers[index]);
 615:src/kernel/slabAllocator.cpp **** }
 2741              		.loc 1 615 1
 2742 10c4 13050900 		mv	a0,s2
 2743 10c8 83308102 		ld	ra,40(sp)
 2744              		.cfi_remember_state
 2745              		.cfi_restore 1
 2746 10cc 03340102 		ld	s0,32(sp)
 2747              		.cfi_restore 8
 2748              		.cfi_def_cfa 2, 48
 2749 10d0 83348101 		ld	s1,24(sp)
 2750              		.cfi_restore 9
 2751 10d4 03390101 		ld	s2,16(sp)
 2752              		.cfi_restore 18
 2753 10d8 83398100 		ld	s3,8(sp)
GAS LISTING /tmp/cctmPoEZ.s 			page 67


 2754              		.cfi_restore 19
 2755 10dc 13010103 		addi	sp,sp,48
 2756              		.cfi_def_cfa_offset 0
 2757 10e0 67800000 		jr	ra
 2758              	.LVL296:
 2759              	.L166:
 2760              		.cfi_restore_state
 597:src/kernel/slabAllocator.cpp ****             if(slabAllocator->cachesBuffers[index] == nullptr)
 2761              		.loc 1 597 13 is_stmt 1
 597:src/kernel/slabAllocator.cpp ****             if(slabAllocator->cachesBuffers[index] == nullptr)
 2762              		.loc 1 597 82 is_stmt 0
 2763 10e4 13058906 		addi	a0,s2,104
 2764 10e8 97000000 		call	_Z16kmem_cache_allocP12kmem_cache_s
 2764      E7800000 
 2765              	.LVL297:
 597:src/kernel/slabAllocator.cpp ****             if(slabAllocator->cachesBuffers[index] == nullptr)
 2766              		.loc 1 597 49
 2767 10f0 13973400 		slli	a4,s1,3
 2768 10f4 3309E900 		add	s2,s2,a4
 2769 10f8 2330A900 		sd	a0,0(s2)
 598:src/kernel/slabAllocator.cpp ****                 return nullptr;
 2770              		.loc 1 598 13 is_stmt 1
 598:src/kernel/slabAllocator.cpp ****                 return nullptr;
 2771              		.loc 1 598 50 is_stmt 0
 2772 10fc 97070000 		ld	a5,.LANCHOR0
 2772      83B70700 
 2773 1104 B387E700 		add	a5,a5,a4
 2774 1108 03B90700 		ld	s2,0(a5)
 598:src/kernel/slabAllocator.cpp ****                 return nullptr;
 2775              		.loc 1 598 13
 2776 110c E30C09FA 		beqz	s2,.L157
 600:src/kernel/slabAllocator.cpp ****         }
 2777              		.loc 1 600 13 is_stmt 1
 600:src/kernel/slabAllocator.cpp ****         }
 2778              		.loc 1 600 96 is_stmt 0
 2779 1110 13D6C900 		srli	a2,s3,12
 600:src/kernel/slabAllocator.cpp ****         }
 2780              		.loc 1 600 23
 2781 1114 93070000 		li	a5,0
 2782 1118 13070000 		li	a4,0
 2783 111c 93860900 		mv	a3,s3
 2784 1120 13161600 		slli	a2,a2,1
 2785 1124 97050000 		lla	a1,.LC22
 2785      93850500 
 2786 112c 13050900 		mv	a0,s2
 2787 1130 97000000 		call	_Z10init_cacheP12kmem_cache_sPKcmmPFvPvES5_
 2787      E7800000 
 2788              	.LVL298:
 2789 1138 6FF0DFF6 		j	.L161
 2790              	.L160:
 606:src/kernel/slabAllocator.cpp ****     {
 2791              		.loc 1 606 5 is_stmt 1
 606:src/kernel/slabAllocator.cpp ****     {
 2792              		.loc 1 606 42 is_stmt 0
 2793 113c 17090000 		ld	s2,.LANCHOR0
 2793      03390900 
 2794 1144 93973400 		slli	a5,s1,3
GAS LISTING /tmp/cctmPoEZ.s 			page 68


 2795 1148 B307F900 		add	a5,s2,a5
 2796 114c 83B70700 		ld	a5,0(a5)
 606:src/kernel/slabAllocator.cpp ****     {
 2797              		.loc 1 606 5
 2798 1150 63840702 		beqz	a5,.L167
 2799              	.L162:
 614:src/kernel/slabAllocator.cpp **** }
 2800              		.loc 1 614 5 is_stmt 1
 614:src/kernel/slabAllocator.cpp **** }
 2801              		.loc 1 614 28 is_stmt 0
 2802 1154 93943400 		slli	s1,s1,3
 2803              	.LVL299:
 2804 1158 97070000 		ld	a5,.LANCHOR0
 2804      83B70700 
 2805 1160 B3849700 		add	s1,a5,s1
 2806 1164 03B50400 		ld	a0,0(s1)
 2807 1168 97000000 		call	_Z16kmem_cache_allocP12kmem_cache_s
 2807      E7800000 
 2808              	.LVL300:
 2809 1170 13090500 		mv	s2,a0
 614:src/kernel/slabAllocator.cpp **** }
 2810              		.loc 1 614 64
 2811 1174 6FF01FF5 		j	.L157
 2812              	.LVL301:
 2813              	.L167:
 608:src/kernel/slabAllocator.cpp ****         if(slabAllocator->cachesBuffers[index] == nullptr)
 2814              		.loc 1 608 9 is_stmt 1
 608:src/kernel/slabAllocator.cpp ****         if(slabAllocator->cachesBuffers[index] == nullptr)
 2815              		.loc 1 608 78 is_stmt 0
 2816 1178 13058906 		addi	a0,s2,104
 2817 117c 97000000 		call	_Z16kmem_cache_allocP12kmem_cache_s
 2817      E7800000 
 2818              	.LVL302:
 608:src/kernel/slabAllocator.cpp ****         if(slabAllocator->cachesBuffers[index] == nullptr)
 2819              		.loc 1 608 45
 2820 1184 13973400 		slli	a4,s1,3
 2821 1188 3309E900 		add	s2,s2,a4
 2822 118c 2330A900 		sd	a0,0(s2)
 609:src/kernel/slabAllocator.cpp ****             return nullptr;
 2823              		.loc 1 609 9 is_stmt 1
 609:src/kernel/slabAllocator.cpp ****             return nullptr;
 2824              		.loc 1 609 46 is_stmt 0
 2825 1190 97070000 		ld	a5,.LANCHOR0
 2825      83B70700 
 2826 1198 B387E700 		add	a5,a5,a4
 2827 119c 03B90700 		ld	s2,0(a5)
 609:src/kernel/slabAllocator.cpp ****             return nullptr;
 2828              		.loc 1 609 9
 2829 11a0 E30209F2 		beqz	s2,.L157
 611:src/kernel/slabAllocator.cpp ****     }
 2830              		.loc 1 611 9 is_stmt 1
 611:src/kernel/slabAllocator.cpp ****     }
 2831              		.loc 1 611 19 is_stmt 0
 2832 11a4 13850900 		mv	a0,s3
 2833 11a8 97000000 		call	_Z18getOptimalSlabSizem
 2833      E7800000 
 2834              	.LVL303:
GAS LISTING /tmp/cctmPoEZ.s 			page 69


 2835 11b0 13060500 		mv	a2,a0
 2836 11b4 93070000 		li	a5,0
 2837 11b8 13070000 		li	a4,0
 2838 11bc 93860900 		mv	a3,s3
 2839 11c0 97050000 		lla	a1,.LC22
 2839      93850500 
 2840 11c8 13050900 		mv	a0,s2
 2841 11cc 97000000 		call	_Z10init_cacheP12kmem_cache_sPKcmmPFvPvES5_
 2841      E7800000 
 2842              	.LVL304:
 2843 11d4 6FF01FF8 		j	.L162
 2844              		.cfi_endproc
 2845              	.LFE36:
 2847              		.align	2
 2848              		.globl	_Z5kfreePKv
 2850              	_Z5kfreePKv:
 2851              	.LFB37:
 616:src/kernel/slabAllocator.cpp **** 
 617:src/kernel/slabAllocator.cpp **** void kfree(const void *objp)
 618:src/kernel/slabAllocator.cpp **** {
 2852              		.loc 1 618 1 is_stmt 1
 2853              		.cfi_startproc
 2854              	.LVL305:
 619:src/kernel/slabAllocator.cpp ****     if(objp == nullptr)
 2855              		.loc 1 619 5
 2856 11d8 6300050E 		beqz	a0,.L176
 618:src/kernel/slabAllocator.cpp ****     if(objp == nullptr)
 2857              		.loc 1 618 1 is_stmt 0
 2858 11dc 130101FD 		addi	sp,sp,-48
 2859              		.cfi_def_cfa_offset 48
 2860 11e0 23341102 		sd	ra,40(sp)
 2861 11e4 23308102 		sd	s0,32(sp)
 2862 11e8 233C9100 		sd	s1,24(sp)
 2863 11ec 23382101 		sd	s2,16(sp)
 2864 11f0 23343101 		sd	s3,8(sp)
 2865              		.cfi_offset 1, -8
 2866              		.cfi_offset 8, -16
 2867              		.cfi_offset 9, -24
 2868              		.cfi_offset 18, -32
 2869              		.cfi_offset 19, -40
 2870 11f4 13040103 		addi	s0,sp,48
 2871              		.cfi_def_cfa 8, 0
 2872 11f8 93090500 		mv	s3,a0
 2873              	.LBB34:
 620:src/kernel/slabAllocator.cpp ****         return;
 621:src/kernel/slabAllocator.cpp ****     slab_t* slab = nullptr;
 622:src/kernel/slabAllocator.cpp ****     int index = -1;
 623:src/kernel/slabAllocator.cpp ****     for(size_t i = 0;i < CACHE_BUFFER_SIZE;i++)
 2874              		.loc 1 623 16
 2875 11fc 93040000 		li	s1,0
 2876              	.LBE34:
 621:src/kernel/slabAllocator.cpp ****     int index = -1;
 2877              		.loc 1 621 13
 2878 1200 13090000 		li	s2,0
 2879              	.LVL306:
 2880              	.L172:
 2881              	.LBB35:
GAS LISTING /tmp/cctmPoEZ.s 			page 70


 2882              		.loc 1 623 24 is_stmt 1 discriminator 1
 2883 1204 9307C000 		li	a5,12
 2884 1208 63EE9702 		bgtu	s1,a5,.L174
 624:src/kernel/slabAllocator.cpp ****     {
 625:src/kernel/slabAllocator.cpp ****         slab = findSlab(slabAllocator->cachesBuffers[i], objp);
 2885              		.loc 1 625 9
 2886              		.loc 1 625 24 is_stmt 0
 2887 120c 93973400 		slli	a5,s1,3
 2888 1210 17070000 		ld	a4,.LANCHOR0
 2888      03370700 
 2889 1218 B307F700 		add	a5,a4,a5
 2890 121c 93850900 		mv	a1,s3
 2891 1220 03B50700 		ld	a0,0(a5)
 2892 1224 97000000 		call	_Z8findSlabP12kmem_cache_sPKv
 2892      E7800000 
 2893              	.LVL307:
 2894 122c 13090500 		mv	s2,a0
 2895              	.LVL308:
 626:src/kernel/slabAllocator.cpp ****         if(slab != nullptr)
 2896              		.loc 1 626 9 is_stmt 1
 2897 1230 63160500 		bnez	a0,.L179
 623:src/kernel/slabAllocator.cpp ****     {
 2898              		.loc 1 623 5 discriminator 2
 2899 1234 93841400 		addi	s1,s1,1
 2900              	.LVL309:
 2901 1238 6FF0DFFC 		j	.L172
 2902              	.L179:
 627:src/kernel/slabAllocator.cpp ****         {
 628:src/kernel/slabAllocator.cpp ****             index = i;
 2903              		.loc 1 628 13
 2904              		.loc 1 628 19 is_stmt 0
 2905 123c 9B840400 		sext.w	s1,s1
 2906              	.LVL310:
 629:src/kernel/slabAllocator.cpp ****             break;
 2907              		.loc 1 629 13 is_stmt 1
 2908 1240 6F008000 		j	.L170
 2909              	.LVL311:
 2910              	.L174:
 2911              	.LBE35:
 622:src/kernel/slabAllocator.cpp ****     for(size_t i = 0;i < CACHE_BUFFER_SIZE;i++)
 2912              		.loc 1 622 9 is_stmt 0
 2913 1244 9304F0FF 		li	s1,-1
 2914              	.LVL312:
 2915              	.L170:
 630:src/kernel/slabAllocator.cpp ****         }
 631:src/kernel/slabAllocator.cpp ****     }
 632:src/kernel/slabAllocator.cpp ****     static size_t border = 12;
 2916              		.loc 1 632 5 is_stmt 1
 633:src/kernel/slabAllocator.cpp ****     size_t level = index + CACHE_BUFFER_SMALL;
 2917              		.loc 1 633 5
 2918              		.loc 1 633 26 is_stmt 0
 2919 1248 9B845400 		addiw	s1,s1,5
 2920              	.LVL313:
 634:src/kernel/slabAllocator.cpp ****     if(slab != nullptr && level < border)
 2921              		.loc 1 634 5 is_stmt 1
 2922 124c 63060900 		beqz	s2,.L173
 2923              		.loc 1 634 24 is_stmt 0 discriminator 1
GAS LISTING /tmp/cctmPoEZ.s 			page 71


 2924 1250 9307B000 		li	a5,11
 2925 1254 63F69702 		bleu	s1,a5,.L180
 2926              	.L173:
 635:src/kernel/slabAllocator.cpp ****     {
 636:src/kernel/slabAllocator.cpp ****         free_slab_object(slab, objp);
 637:src/kernel/slabAllocator.cpp ****         destroy_slab_list(&(slab->owner->slabs_empty));
 638:src/kernel/slabAllocator.cpp ****     }
 639:src/kernel/slabAllocator.cpp ****     else if(slab != nullptr && level >= border)
 2927              		.loc 1 639 10 is_stmt 1
 2928 1258 63060900 		beqz	s2,.L168
 2929              		.loc 1 639 29 is_stmt 0 discriminator 1
 2930 125c 9307B000 		li	a5,11
 2931 1260 63E29704 		bgtu	s1,a5,.L181
 2932              	.L168:
 640:src/kernel/slabAllocator.cpp ****     {
 641:src/kernel/slabAllocator.cpp ****         big_kfree(slab, objp);
 642:src/kernel/slabAllocator.cpp ****     }
 643:src/kernel/slabAllocator.cpp **** }
 2933              		.loc 1 643 1
 2934 1264 83308102 		ld	ra,40(sp)
 2935              		.cfi_remember_state
 2936              		.cfi_restore 1
 2937 1268 03340102 		ld	s0,32(sp)
 2938              		.cfi_restore 8
 2939              		.cfi_def_cfa 2, 48
 2940 126c 83348101 		ld	s1,24(sp)
 2941              		.cfi_restore 9
 2942              	.LVL314:
 2943 1270 03390101 		ld	s2,16(sp)
 2944              		.cfi_restore 18
 2945              	.LVL315:
 2946 1274 83398100 		ld	s3,8(sp)
 2947              		.cfi_restore 19
 2948              	.LVL316:
 2949 1278 13010103 		addi	sp,sp,48
 2950              		.cfi_def_cfa_offset 0
 2951 127c 67800000 		jr	ra
 2952              	.LVL317:
 2953              	.L180:
 2954              		.cfi_restore_state
 636:src/kernel/slabAllocator.cpp ****         destroy_slab_list(&(slab->owner->slabs_empty));
 2955              		.loc 1 636 9 is_stmt 1
 636:src/kernel/slabAllocator.cpp ****         destroy_slab_list(&(slab->owner->slabs_empty));
 2956              		.loc 1 636 25 is_stmt 0
 2957 1280 93850900 		mv	a1,s3
 2958 1284 13050900 		mv	a0,s2
 2959 1288 97000000 		call	_Z16free_slab_objectP6slab_sPKv
 2959      E7800000 
 2960              	.LVL318:
 637:src/kernel/slabAllocator.cpp ****     }
 2961              		.loc 1 637 9 is_stmt 1
 637:src/kernel/slabAllocator.cpp ****     }
 2962              		.loc 1 637 35 is_stmt 0
 2963 1290 03350901 		ld	a0,16(s2)
 637:src/kernel/slabAllocator.cpp ****     }
 2964              		.loc 1 637 26
 2965 1294 13050504 		addi	a0,a0,64
GAS LISTING /tmp/cctmPoEZ.s 			page 72


 2966 1298 97000000 		call	_Z17destroy_slab_listPP6slab_s
 2966      E7800000 
 2967              	.LVL319:
 2968 12a0 6FF05FFC 		j	.L168
 2969              	.L181:
 641:src/kernel/slabAllocator.cpp ****     }
 2970              		.loc 1 641 9 is_stmt 1
 641:src/kernel/slabAllocator.cpp ****     }
 2971              		.loc 1 641 18 is_stmt 0
 2972 12a4 93850900 		mv	a1,s3
 2973 12a8 13050900 		mv	a0,s2
 2974 12ac 97000000 		call	_Z9big_kfreeP6slab_sPKv
 2974      E7800000 
 2975              	.LVL320:
 2976 12b4 6FF01FFB 		j	.L168
 2977              	.LVL321:
 2978              	.L176:
 2979              		.cfi_def_cfa_register 2
 2980              		.cfi_restore 1
 2981              		.cfi_restore 8
 2982              		.cfi_restore 9
 2983              		.cfi_restore 18
 2984              		.cfi_restore 19
 2985 12b8 67800000 		ret
 2986              		.cfi_endproc
 2987              	.LFE37:
 2989              		.align	2
 2990              		.globl	_Z18kmem_cache_destroyP12kmem_cache_s
 2992              	_Z18kmem_cache_destroyP12kmem_cache_s:
 2993              	.LFB38:
 644:src/kernel/slabAllocator.cpp **** 
 645:src/kernel/slabAllocator.cpp **** void kmem_cache_destroy(kmem_cache_t *cachep)
 646:src/kernel/slabAllocator.cpp **** {
 2994              		.loc 1 646 1 is_stmt 1
 2995              		.cfi_startproc
 2996              	.LVL322:
 2997 12bc 130101FE 		addi	sp,sp,-32
 2998              		.cfi_def_cfa_offset 32
 2999 12c0 233C1100 		sd	ra,24(sp)
 3000 12c4 23388100 		sd	s0,16(sp)
 3001 12c8 23349100 		sd	s1,8(sp)
 3002              		.cfi_offset 1, -8
 3003              		.cfi_offset 8, -16
 3004              		.cfi_offset 9, -24
 3005 12cc 13040102 		addi	s0,sp,32
 3006              		.cfi_def_cfa 8, 0
 3007 12d0 93040500 		mv	s1,a0
 647:src/kernel/slabAllocator.cpp ****     if(cachep->slabs_partial != nullptr || cachep->slabs_full != nullptr) {
 3008              		.loc 1 647 5
 3009              		.loc 1 647 16 is_stmt 0
 3010 12d4 83370505 		ld	a5,80(a0)
 3011              		.loc 1 647 5
 3012 12d8 63820702 		beqz	a5,.L187
 3013              	.L183:
 648:src/kernel/slabAllocator.cpp ****         cachep->errors |= DESTROY_ERROR;
 3014              		.loc 1 648 9 is_stmt 1
 3015              		.loc 1 648 24 is_stmt 0
GAS LISTING /tmp/cctmPoEZ.s 			page 73


 3016 12dc 83A78407 		lw	a5,120(s1)
 3017 12e0 93E72700 		ori	a5,a5,2
 3018 12e4 23ACF406 		sw	a5,120(s1)
 649:src/kernel/slabAllocator.cpp ****         return;
 3019              		.loc 1 649 9 is_stmt 1
 3020              	.LVL323:
 3021              	.L182:
 650:src/kernel/slabAllocator.cpp ****     }
 651:src/kernel/slabAllocator.cpp ****     destroy_slab_list(&cachep->slabs_empty);
 652:src/kernel/slabAllocator.cpp ****     destroy_slab_list(&cachep->slabs_partial);
 653:src/kernel/slabAllocator.cpp ****     destroy_slab_list(&cachep->slabs_full);
 654:src/kernel/slabAllocator.cpp ****     kmem_cache_free(&slabAllocator->cacheOfCaches,cachep);
 655:src/kernel/slabAllocator.cpp **** }
 3022              		.loc 1 655 1 is_stmt 0
 3023 12e8 83308101 		ld	ra,24(sp)
 3024              		.cfi_remember_state
 3025              		.cfi_restore 1
 3026 12ec 03340101 		ld	s0,16(sp)
 3027              		.cfi_restore 8
 3028              		.cfi_def_cfa 2, 32
 3029 12f0 83348100 		ld	s1,8(sp)
 3030              		.cfi_restore 9
 3031              	.LVL324:
 3032 12f4 13010102 		addi	sp,sp,32
 3033              		.cfi_def_cfa_offset 0
 3034 12f8 67800000 		jr	ra
 3035              	.LVL325:
 3036              	.L187:
 3037              		.cfi_restore_state
 647:src/kernel/slabAllocator.cpp ****         cachep->errors |= DESTROY_ERROR;
 3038              		.loc 1 647 52 discriminator 1
 3039 12fc 83378504 		ld	a5,72(a0)
 647:src/kernel/slabAllocator.cpp ****         cachep->errors |= DESTROY_ERROR;
 3040              		.loc 1 647 41 discriminator 1
 3041 1300 E39E07FC 		bnez	a5,.L183
 651:src/kernel/slabAllocator.cpp ****     destroy_slab_list(&cachep->slabs_partial);
 3042              		.loc 1 651 5 is_stmt 1
 651:src/kernel/slabAllocator.cpp ****     destroy_slab_list(&cachep->slabs_partial);
 3043              		.loc 1 651 22 is_stmt 0
 3044 1304 13050504 		addi	a0,a0,64
 3045 1308 97000000 		call	_Z17destroy_slab_listPP6slab_s
 3045      E7800000 
 3046              	.LVL326:
 652:src/kernel/slabAllocator.cpp ****     destroy_slab_list(&cachep->slabs_full);
 3047              		.loc 1 652 5 is_stmt 1
 652:src/kernel/slabAllocator.cpp ****     destroy_slab_list(&cachep->slabs_full);
 3048              		.loc 1 652 22 is_stmt 0
 3049 1310 13850405 		addi	a0,s1,80
 3050 1314 97000000 		call	_Z17destroy_slab_listPP6slab_s
 3050      E7800000 
 3051              	.LVL327:
 653:src/kernel/slabAllocator.cpp ****     kmem_cache_free(&slabAllocator->cacheOfCaches,cachep);
 3052              		.loc 1 653 5 is_stmt 1
 653:src/kernel/slabAllocator.cpp ****     kmem_cache_free(&slabAllocator->cacheOfCaches,cachep);
 3053              		.loc 1 653 22 is_stmt 0
 3054 131c 13858404 		addi	a0,s1,72
 3055 1320 97000000 		call	_Z17destroy_slab_listPP6slab_s
GAS LISTING /tmp/cctmPoEZ.s 			page 74


 3055      E7800000 
 3056              	.LVL328:
 654:src/kernel/slabAllocator.cpp **** }
 3057              		.loc 1 654 5 is_stmt 1
 654:src/kernel/slabAllocator.cpp **** }
 3058              		.loc 1 654 20 is_stmt 0
 3059 1328 93850400 		mv	a1,s1
 3060 132c 17050000 		ld	a0,.LANCHOR0
 3060      03350500 
 3061 1334 13058506 		addi	a0,a0,104
 3062 1338 97000000 		call	_Z15kmem_cache_freeP12kmem_cache_sPv
 3062      E7800000 
 3063              	.LVL329:
 3064 1340 6FF09FFA 		j	.L182
 3065              		.cfi_endproc
 3066              	.LFE38:
 3068              		.align	2
 3069              		.globl	_Z17kmem_cache_shrinkP12kmem_cache_s
 3071              	_Z17kmem_cache_shrinkP12kmem_cache_s:
 3072              	.LFB39:
 656:src/kernel/slabAllocator.cpp **** 
 657:src/kernel/slabAllocator.cpp **** int kmem_cache_shrink(kmem_cache_t *cachep)
 658:src/kernel/slabAllocator.cpp **** {
 3073              		.loc 1 658 1 is_stmt 1
 3074              		.cfi_startproc
 3075              	.LVL330:
 659:src/kernel/slabAllocator.cpp ****     if(cachep == nullptr)
 3076              		.loc 1 659 5
 3077 1344 63080502 		beqz	a0,.L190
 658:src/kernel/slabAllocator.cpp ****     if(cachep == nullptr)
 3078              		.loc 1 658 1 is_stmt 0
 3079 1348 130101FF 		addi	sp,sp,-16
 3080              		.cfi_def_cfa_offset 16
 3081 134c 23341100 		sd	ra,8(sp)
 3082 1350 23308100 		sd	s0,0(sp)
 3083              		.cfi_offset 1, -8
 3084              		.cfi_offset 8, -16
 3085 1354 13040101 		addi	s0,sp,16
 3086              		.cfi_def_cfa 8, 0
 660:src/kernel/slabAllocator.cpp ****         return 0;
 661:src/kernel/slabAllocator.cpp ****     int totalBlocks = destroy_slab_list(&cachep->slabs_empty);
 3087              		.loc 1 661 5 is_stmt 1
 3088              		.loc 1 661 40 is_stmt 0
 3089 1358 13050504 		addi	a0,a0,64
 3090              	.LVL331:
 3091 135c 97000000 		call	_Z17destroy_slab_listPP6slab_s
 3091      E7800000 
 3092              	.LVL332:
 662:src/kernel/slabAllocator.cpp ****     return totalBlocks;
 3093              		.loc 1 662 5 is_stmt 1
 663:src/kernel/slabAllocator.cpp **** }
 3094              		.loc 1 663 1 is_stmt 0
 3095 1364 83308100 		ld	ra,8(sp)
 3096              		.cfi_restore 1
 3097 1368 03340100 		ld	s0,0(sp)
 3098              		.cfi_restore 8
 3099              		.cfi_def_cfa 2, 16
GAS LISTING /tmp/cctmPoEZ.s 			page 75


 3100 136c 13010101 		addi	sp,sp,16
 3101              		.cfi_def_cfa_offset 0
 3102 1370 67800000 		jr	ra
 3103              	.LVL333:
 3104              	.L190:
 660:src/kernel/slabAllocator.cpp ****         return 0;
 3105              		.loc 1 660 16
 3106 1374 13050000 		li	a0,0
 3107              	.LVL334:
 3108              		.loc 1 663 1
 3109 1378 67800000 		ret
 3110              		.cfi_endproc
 3111              	.LFE39:
 3113              		.align	2
 3114              		.globl	_Z21shrink_caches_on_slabP6slab_s
 3116              	_Z21shrink_caches_on_slabP6slab_s:
 3117              	.LFB27:
 362:src/kernel/slabAllocator.cpp ****     for(size_t i = 0; i < slab->numOfObjects;i++)
 3118              		.loc 1 362 1 is_stmt 1
 3119              		.cfi_startproc
 3120              	.LVL335:
 3121 137c 130101FE 		addi	sp,sp,-32
 3122              		.cfi_def_cfa_offset 32
 3123 1380 233C1100 		sd	ra,24(sp)
 3124 1384 23388100 		sd	s0,16(sp)
 3125 1388 23349100 		sd	s1,8(sp)
 3126 138c 23302101 		sd	s2,0(sp)
 3127              		.cfi_offset 1, -8
 3128              		.cfi_offset 8, -16
 3129              		.cfi_offset 9, -24
 3130              		.cfi_offset 18, -32
 3131 1390 13040102 		addi	s0,sp,32
 3132              		.cfi_def_cfa 8, 0
 3133 1394 13090500 		mv	s2,a0
 363:src/kernel/slabAllocator.cpp ****     {
 3134              		.loc 1 363 5
 3135              	.LVL336:
 3136              	.LBB36:
 363:src/kernel/slabAllocator.cpp ****     {
 3137              		.loc 1 363 16 is_stmt 0
 3138 1398 93040000 		li	s1,0
 3139 139c 6F004002 		j	.L198
 3140              	.LVL337:
 3141              	.L200:
 3142              	.LBB37:
 3143              	.LBB38:
 367:src/kernel/slabAllocator.cpp ****             kmem_cache_shrink((kmem_cache_t*)addr);
 3144              		.loc 1 367 13 is_stmt 1
 367:src/kernel/slabAllocator.cpp ****             kmem_cache_shrink((kmem_cache_t*)addr);
 3145              		.loc 1 367 48 is_stmt 0
 3146 13a0 03358902 		ld	a0,40(s2)
 367:src/kernel/slabAllocator.cpp ****             kmem_cache_shrink((kmem_cache_t*)addr);
 3147              		.loc 1 367 68
 3148 13a4 83370901 		ld	a5,16(s2)
 367:src/kernel/slabAllocator.cpp ****             kmem_cache_shrink((kmem_cache_t*)addr);
 3149              		.loc 1 367 75
 3150 13a8 83B70706 		ld	a5,96(a5)
GAS LISTING /tmp/cctmPoEZ.s 			page 76


 367:src/kernel/slabAllocator.cpp ****             kmem_cache_shrink((kmem_cache_t*)addr);
 3151              		.loc 1 367 61
 3152 13ac B3879702 		mul	a5,a5,s1
 3153              	.LVL338:
 368:src/kernel/slabAllocator.cpp ****         }
 3154              		.loc 1 368 13 is_stmt 1
 368:src/kernel/slabAllocator.cpp ****         }
 3155              		.loc 1 368 30 is_stmt 0
 3156 13b0 3305F500 		add	a0,a0,a5
 3157              	.LVL339:
 3158 13b4 97000000 		call	_Z17kmem_cache_shrinkP12kmem_cache_s
 3158      E7800000 
 3159              	.LVL340:
 3160              	.L197:
 3161              	.LBE38:
 3162              	.LBE37:
 363:src/kernel/slabAllocator.cpp ****     {
 3163              		.loc 1 363 5 is_stmt 1 discriminator 2
 3164 13bc 93841400 		addi	s1,s1,1
 3165              	.LVL341:
 3166              	.L198:
 363:src/kernel/slabAllocator.cpp ****     {
 3167              		.loc 1 363 25 discriminator 1
 363:src/kernel/slabAllocator.cpp ****     {
 3168              		.loc 1 363 33 is_stmt 0 discriminator 1
 3169 13c0 83378901 		ld	a5,24(s2)
 363:src/kernel/slabAllocator.cpp ****     {
 3170              		.loc 1 363 25 discriminator 1
 3171 13c4 63FEF400 		bleu	a5,s1,.L195
 3172              	.LBE36:
 365:src/kernel/slabAllocator.cpp ****         {
 3173              		.loc 1 365 9 is_stmt 1
 3174              	.LBB40:
 3175              	.LBB39:
 365:src/kernel/slabAllocator.cpp ****         {
 3176              		.loc 1 365 25 is_stmt 0
 3177 13c8 9B850400 		sext.w	a1,s1
 3178 13cc 13050900 		mv	a0,s2
 3179 13d0 97000000 		call	_Z13checkSetIndexP6slab_si
 3179      E7800000 
 3180              	.LVL342:
 365:src/kernel/slabAllocator.cpp ****         {
 3181              		.loc 1 365 9
 3182 13d8 E30205FE 		beqz	a0,.L197
 3183 13dc 6FF05FFC 		j	.L200
 3184              	.L195:
 3185              	.LBE39:
 3186              	.LBE40:
 371:src/kernel/slabAllocator.cpp **** 
 3187              		.loc 1 371 1
 3188 13e0 83308101 		ld	ra,24(sp)
 3189              		.cfi_restore 1
 3190 13e4 03340101 		ld	s0,16(sp)
 3191              		.cfi_restore 8
 3192              		.cfi_def_cfa 2, 32
 3193 13e8 83348100 		ld	s1,8(sp)
 3194              		.cfi_restore 9
GAS LISTING /tmp/cctmPoEZ.s 			page 77


 3195              	.LVL343:
 3196 13ec 03390100 		ld	s2,0(sp)
 3197              		.cfi_restore 18
 3198              	.LVL344:
 3199 13f0 13010102 		addi	sp,sp,32
 3200              		.cfi_def_cfa_offset 0
 3201 13f4 67800000 		jr	ra
 3202              		.cfi_endproc
 3203              	.LFE27:
 3205              		.align	2
 3206              		.globl	_Z17shrink_all_cachesv
 3208              	_Z17shrink_all_cachesv:
 3209              	.LFB28:
 374:src/kernel/slabAllocator.cpp ****     kmem_cache_t* cacheOfCaches = &slabAllocator->cacheOfCaches;
 3210              		.loc 1 374 1 is_stmt 1
 3211              		.cfi_startproc
 3212 13f8 130101FD 		addi	sp,sp,-48
 3213              		.cfi_def_cfa_offset 48
 3214 13fc 23341102 		sd	ra,40(sp)
 3215 1400 23308102 		sd	s0,32(sp)
 3216 1404 233C9100 		sd	s1,24(sp)
 3217 1408 23382101 		sd	s2,16(sp)
 3218 140c 23343101 		sd	s3,8(sp)
 3219              		.cfi_offset 1, -8
 3220              		.cfi_offset 8, -16
 3221              		.cfi_offset 9, -24
 3222              		.cfi_offset 18, -32
 3223              		.cfi_offset 19, -40
 3224 1410 13040103 		addi	s0,sp,48
 3225              		.cfi_def_cfa 8, 0
 375:src/kernel/slabAllocator.cpp **** 
 3226              		.loc 1 375 5
 375:src/kernel/slabAllocator.cpp **** 
 3227              		.loc 1 375 51 is_stmt 0
 3228 1414 17090000 		ld	s2,.LANCHOR0
 3228      03390900 
 375:src/kernel/slabAllocator.cpp **** 
 3229              		.loc 1 375 19
 3230 141c 93098906 		addi	s3,s2,104
 3231              	.LVL345:
 377:src/kernel/slabAllocator.cpp ****     while(slab != nullptr)
 3232              		.loc 1 377 5 is_stmt 1
 377:src/kernel/slabAllocator.cpp ****     while(slab != nullptr)
 3233              		.loc 1 377 13 is_stmt 0
 3234 1420 8334090B 		ld	s1,176(s2)
 3235              	.LVL346:
 3236              	.L203:
 378:src/kernel/slabAllocator.cpp ****     {
 3237              		.loc 1 378 5 is_stmt 1
 378:src/kernel/slabAllocator.cpp ****     {
 3238              		.loc 1 378 16
 3239 1424 638C0400 		beqz	s1,.L202
 380:src/kernel/slabAllocator.cpp ****         slab = slab->next;
 3240              		.loc 1 380 9
 380:src/kernel/slabAllocator.cpp ****         slab = slab->next;
 3241              		.loc 1 380 30 is_stmt 0
 3242 1428 13850400 		mv	a0,s1
GAS LISTING /tmp/cctmPoEZ.s 			page 78


 3243 142c 97000000 		call	_Z21shrink_caches_on_slabP6slab_s
 3243      E7800000 
 3244              	.LVL347:
 381:src/kernel/slabAllocator.cpp ****     }
 3245              		.loc 1 381 9 is_stmt 1
 381:src/kernel/slabAllocator.cpp ****     }
 3246              		.loc 1 381 14 is_stmt 0
 3247 1434 83B48400 		ld	s1,8(s1)
 3248              	.LVL348:
 378:src/kernel/slabAllocator.cpp ****     {
 3249              		.loc 1 378 5
 3250 1438 6FF0DFFE 		j	.L203
 3251              	.L202:
 384:src/kernel/slabAllocator.cpp ****     while(slab != nullptr)
 3252              		.loc 1 384 5 is_stmt 1
 384:src/kernel/slabAllocator.cpp ****     while(slab != nullptr)
 3253              		.loc 1 384 10 is_stmt 0
 3254 143c 8334890B 		ld	s1,184(s2)
 3255              	.LVL349:
 3256              	.L205:
 385:src/kernel/slabAllocator.cpp ****     {
 3257              		.loc 1 385 5 is_stmt 1
 385:src/kernel/slabAllocator.cpp ****     {
 3258              		.loc 1 385 16
 3259 1440 638C0400 		beqz	s1,.L204
 387:src/kernel/slabAllocator.cpp ****         slab = slab->next;
 3260              		.loc 1 387 9
 387:src/kernel/slabAllocator.cpp ****         slab = slab->next;
 3261              		.loc 1 387 30 is_stmt 0
 3262 1444 13850400 		mv	a0,s1
 3263 1448 97000000 		call	_Z21shrink_caches_on_slabP6slab_s
 3263      E7800000 
 3264              	.LVL350:
 388:src/kernel/slabAllocator.cpp ****     }
 3265              		.loc 1 388 9 is_stmt 1
 388:src/kernel/slabAllocator.cpp ****     }
 3266              		.loc 1 388 14 is_stmt 0
 3267 1450 83B48400 		ld	s1,8(s1)
 3268              	.LVL351:
 385:src/kernel/slabAllocator.cpp ****     {
 3269              		.loc 1 385 5
 3270 1454 6FF0DFFE 		j	.L205
 3271              	.L204:
 391:src/kernel/slabAllocator.cpp **** }
 3272              		.loc 1 391 5 is_stmt 1
 391:src/kernel/slabAllocator.cpp **** }
 3273              		.loc 1 391 22 is_stmt 0
 3274 1458 13850900 		mv	a0,s3
 3275 145c 97000000 		call	_Z17kmem_cache_shrinkP12kmem_cache_s
 3275      E7800000 
 3276              	.LVL352:
 392:src/kernel/slabAllocator.cpp **** 
 3277              		.loc 1 392 1
 3278 1464 83308102 		ld	ra,40(sp)
 3279              		.cfi_restore 1
 3280 1468 03340102 		ld	s0,32(sp)
 3281              		.cfi_restore 8
GAS LISTING /tmp/cctmPoEZ.s 			page 79


 3282              		.cfi_def_cfa 2, 48
 3283 146c 83348101 		ld	s1,24(sp)
 3284              		.cfi_restore 9
 3285              	.LVL353:
 3286 1470 03390101 		ld	s2,16(sp)
 3287              		.cfi_restore 18
 3288 1474 83398100 		ld	s3,8(sp)
 3289              		.cfi_restore 19
 3290              	.LVL354:
 3291 1478 13010103 		addi	sp,sp,48
 3292              		.cfi_def_cfa_offset 0
 3293 147c 67800000 		jr	ra
 3294              		.cfi_endproc
 3295              	.LFE28:
 3297              		.section	.rodata.str1.8
 3298              		.align	3
 3299              	.LC23:
 3300 0240 45585041 		.string	"EXPAND ERROR\n"
 3300      4E442045 
 3300      52524F52 
 3300      0A00
 3301 024e 0000     		.align	3
 3302              	.LC24:
 3303 0250 44455354 		.string	"DESTROY ERROR"
 3303      524F5920 
 3303      4552524F 
 3303      5200
 3304              		.text
 3305              		.align	2
 3306              		.globl	_Z16kmem_cache_errorP12kmem_cache_s
 3308              	_Z16kmem_cache_errorP12kmem_cache_s:
 3309              	.LFB40:
 664:src/kernel/slabAllocator.cpp **** 
 665:src/kernel/slabAllocator.cpp **** int kmem_cache_error(kmem_cache_t *cachep)
 666:src/kernel/slabAllocator.cpp **** {
 3310              		.loc 1 666 1 is_stmt 1
 3311              		.cfi_startproc
 3312              	.LVL355:
 667:src/kernel/slabAllocator.cpp ****     if(cachep == nullptr)
 3313              		.loc 1 667 5
 3314 1480 630C0506 		beqz	a0,.L212
 666:src/kernel/slabAllocator.cpp ****     if(cachep == nullptr)
 3315              		.loc 1 666 1 is_stmt 0
 3316 1484 130101FE 		addi	sp,sp,-32
 3317              		.cfi_def_cfa_offset 32
 3318 1488 233C1100 		sd	ra,24(sp)
 3319 148c 23388100 		sd	s0,16(sp)
 3320 1490 23349100 		sd	s1,8(sp)
 3321              		.cfi_offset 1, -8
 3322              		.cfi_offset 8, -16
 3323              		.cfi_offset 9, -24
 3324 1494 13040102 		addi	s0,sp,32
 3325              		.cfi_def_cfa 8, 0
 3326 1498 93040500 		mv	s1,a0
 668:src/kernel/slabAllocator.cpp ****         return 0;
 669:src/kernel/slabAllocator.cpp **** 
 670:src/kernel/slabAllocator.cpp ****     if(cachep->errors & EXPAND_ERROR)
GAS LISTING /tmp/cctmPoEZ.s 			page 80


 3327              		.loc 1 670 5 is_stmt 1
 3328              		.loc 1 670 16 is_stmt 0
 3329 149c 83278507 		lw	a5,120(a0)
 3330              		.loc 1 670 23
 3331 14a0 93F71700 		andi	a5,a5,1
 3332              		.loc 1 670 5
 3333 14a4 63960702 		bnez	a5,.L215
 3334              	.LVL356:
 3335              	.L209:
 671:src/kernel/slabAllocator.cpp ****         KConsole::trapPrintString("EXPAND ERROR\n");
 672:src/kernel/slabAllocator.cpp ****     if(cachep->errors & DESTROY_ERROR)
 3336              		.loc 1 672 5 is_stmt 1
 3337              		.loc 1 672 16 is_stmt 0
 3338 14a8 83A78407 		lw	a5,120(s1)
 3339              		.loc 1 672 23
 3340 14ac 93F72700 		andi	a5,a5,2
 3341              		.loc 1 672 5
 3342 14b0 639A0702 		bnez	a5,.L216
 3343              	.L210:
 673:src/kernel/slabAllocator.cpp ****         KConsole::trapPrintString("DESTROY ERROR");
 674:src/kernel/slabAllocator.cpp **** 
 675:src/kernel/slabAllocator.cpp ****     cachep->errors = NO_ERROR;
 3344              		.loc 1 675 5 is_stmt 1
 3345              		.loc 1 675 20 is_stmt 0
 3346 14b4 23AC0406 		sw	zero,120(s1)
 676:src/kernel/slabAllocator.cpp **** 
 677:src/kernel/slabAllocator.cpp ****     return cachep->errors;
 3347              		.loc 1 677 5 is_stmt 1
 678:src/kernel/slabAllocator.cpp **** }
 3348              		.loc 1 678 1 is_stmt 0
 3349 14b8 13050000 		li	a0,0
 3350 14bc 83308101 		ld	ra,24(sp)
 3351              		.cfi_remember_state
 3352              		.cfi_restore 1
 3353 14c0 03340101 		ld	s0,16(sp)
 3354              		.cfi_restore 8
 3355              		.cfi_def_cfa 2, 32
 3356 14c4 83348100 		ld	s1,8(sp)
 3357              		.cfi_restore 9
 3358              	.LVL357:
 3359 14c8 13010102 		addi	sp,sp,32
 3360              		.cfi_def_cfa_offset 0
 3361 14cc 67800000 		jr	ra
 3362              	.LVL358:
 3363              	.L215:
 3364              		.cfi_restore_state
 671:src/kernel/slabAllocator.cpp ****     if(cachep->errors & DESTROY_ERROR)
 3365              		.loc 1 671 9 is_stmt 1
 671:src/kernel/slabAllocator.cpp ****     if(cachep->errors & DESTROY_ERROR)
 3366              		.loc 1 671 34 is_stmt 0
 3367 14d0 17050000 		lla	a0,.LC23
 3367      13050500 
 3368 14d8 97000000 		call	_ZN8KConsole15trapPrintStringEPKc@plt
 3368      E7800000 
 3369              	.LVL359:
 3370 14e0 6FF09FFC 		j	.L209
 3371              	.L216:
GAS LISTING /tmp/cctmPoEZ.s 			page 81


 673:src/kernel/slabAllocator.cpp **** 
 3372              		.loc 1 673 9 is_stmt 1
 673:src/kernel/slabAllocator.cpp **** 
 3373              		.loc 1 673 34 is_stmt 0
 3374 14e4 17050000 		lla	a0,.LC24
 3374      13050500 
 3375 14ec 97000000 		call	_ZN8KConsole15trapPrintStringEPKc@plt
 3375      E7800000 
 3376              	.LVL360:
 3377 14f4 6FF01FFC 		j	.L210
 3378              	.LVL361:
 3379              	.L212:
 3380              		.cfi_def_cfa_register 2
 3381              		.cfi_restore 1
 3382              		.cfi_restore 8
 3383              		.cfi_restore 9
 3384              		.loc 1 678 1
 3385 14f8 13050000 		li	a0,0
 3386              	.LVL362:
 3387 14fc 67800000 		ret
 3388              		.cfi_endproc
 3389              	.LFE40:
 3391              		.bss
 3392              		.align	3
 3393              		.set	.LANCHOR0,. + 0
 3396              	_ZL13slabAllocator:
 3397 0000 00000000 		.zero	8
 3397      00000000 
 3400              	_ZL12cacheOfSlabs:
 3401 0008 00000000 		.zero	8
 3401      00000000 
 3402              		.text
 3403              	.Letext0:
 3404              		.file 2 "src/kernel/../../h/../lib/hw.h"
 3405              		.file 3 "src/kernel/../../h/slabAllocator.hpp"
 3406              		.file 4 "src/kernel/../../h/buddyAllocator.hpp"
 3407              		.file 5 "src/kernel/../../h/PCB.hpp"
 3408              		.file 6 "src/kernel/../../h/KSemaphore.hpp"
 3409              		.file 7 "src/kernel/../../h/KConsole.hpp"
GAS LISTING /tmp/cctmPoEZ.s 			page 82


DEFINED SYMBOLS
                            *ABS*:0000000000000000 slabAllocator.cpp
     /tmp/cctmPoEZ.s:9      .text:0000000000000000 _Z6strcpyPKcPc
     /tmp/cctmPoEZ.s:13     .text:0000000000000000 .L0 
     /tmp/cctmPoEZ.s:15     .text:0000000000000000 .L0 
     /tmp/cctmPoEZ.s:16     .text:0000000000000004 .L0 
     /tmp/cctmPoEZ.s:18     .text:0000000000000008 .L0 
     /tmp/cctmPoEZ.s:20     .text:000000000000000c .L0 
     /tmp/cctmPoEZ.s:23     .text:000000000000000c .L0 
     /tmp/cctmPoEZ.s:24     .text:000000000000000c .L0 
     /tmp/cctmPoEZ.s:25     .text:000000000000000c .L0 
     /tmp/cctmPoEZ.s:27     .text:0000000000000010 .L0 
     /tmp/cctmPoEZ.s:29     .text:0000000000000014 .L0 
     /tmp/cctmPoEZ.s:30     .text:0000000000000014 .L0 
     /tmp/cctmPoEZ.s:32     .text:0000000000000018 .L0 
     /tmp/cctmPoEZ.s:33     .text:0000000000000018 .L0 
     /tmp/cctmPoEZ.s:36     .text:000000000000001c .L0 
     /tmp/cctmPoEZ.s:37     .text:000000000000001c .L0 
     /tmp/cctmPoEZ.s:40     .text:0000000000000020 .L0 
     /tmp/cctmPoEZ.s:43     .text:0000000000000024 .L0 
     /tmp/cctmPoEZ.s:44     .text:0000000000000024 .L0 
     /tmp/cctmPoEZ.s:46     .text:0000000000000028 .L0 
     /tmp/cctmPoEZ.s:47     .text:000000000000002c .L0 
     /tmp/cctmPoEZ.s:48     .text:000000000000002c .L0 
     /tmp/cctmPoEZ.s:50     .text:0000000000000030 .L0 
     /tmp/cctmPoEZ.s:52     .text:0000000000000034 .L0 
     /tmp/cctmPoEZ.s:58     .text:0000000000000034 _Z17destroy_slab_listPP6slab_s
     /tmp/cctmPoEZ.s:61     .text:0000000000000034 .L0 
     /tmp/cctmPoEZ.s:63     .text:0000000000000034 .L0 
     /tmp/cctmPoEZ.s:64     .text:0000000000000038 .L0 
     /tmp/cctmPoEZ.s:71     .text:0000000000000050 .L0 
     /tmp/cctmPoEZ.s:72     .text:0000000000000050 .L0 
     /tmp/cctmPoEZ.s:73     .text:0000000000000050 .L0 
     /tmp/cctmPoEZ.s:74     .text:0000000000000050 .L0 
     /tmp/cctmPoEZ.s:75     .text:0000000000000050 .L0 
     /tmp/cctmPoEZ.s:76     .text:0000000000000050 .L0 
     /tmp/cctmPoEZ.s:78     .text:0000000000000054 .L0 
     /tmp/cctmPoEZ.s:80     .text:0000000000000054 .L0 
     /tmp/cctmPoEZ.s:81     .text:0000000000000054 .L0 
     /tmp/cctmPoEZ.s:83     .text:0000000000000058 .L0 
     /tmp/cctmPoEZ.s:86     .text:0000000000000060 .L0 
     /tmp/cctmPoEZ.s:87     .text:0000000000000060 .L0 
     /tmp/cctmPoEZ.s:89     .text:0000000000000064 .L0 
     /tmp/cctmPoEZ.s:92     .text:0000000000000068 .L0 
     /tmp/cctmPoEZ.s:93     .text:0000000000000068 .L0 
     /tmp/cctmPoEZ.s:97     .text:000000000000006c .L0 
     /tmp/cctmPoEZ.s:98     .text:000000000000006c .L0 
     /tmp/cctmPoEZ.s:99     .text:000000000000006c .L0 
     /tmp/cctmPoEZ.s:101    .text:0000000000000070 .L0 
     /tmp/cctmPoEZ.s:104    .text:0000000000000074 .L0 
     /tmp/cctmPoEZ.s:105    .text:0000000000000074 .L0 
     /tmp/cctmPoEZ.s:108    .text:0000000000000078 .L0 
     /tmp/cctmPoEZ.s:109    .text:0000000000000078 .L0 
     /tmp/cctmPoEZ.s:113    .text:0000000000000084 .L0 
     /tmp/cctmPoEZ.s:114    .text:0000000000000084 .L0 
     /tmp/cctmPoEZ.s:116    .text:0000000000000088 .L0 
     /tmp/cctmPoEZ.s:117    .text:0000000000000088 .L0 
GAS LISTING /tmp/cctmPoEZ.s 			page 83


     /tmp/cctmPoEZ.s:121    .text:000000000000008c .L0 
     /tmp/cctmPoEZ.s:125    .text:0000000000000090 .L0 
     /tmp/cctmPoEZ.s:129    .text:0000000000000094 .L0 
     /tmp/cctmPoEZ.s:131    .text:000000000000009c .L0 
     /tmp/cctmPoEZ.s:133    .text:00000000000000a0 .L0 
     /tmp/cctmPoEZ.s:134    .text:00000000000000a0 .L0 
     /tmp/cctmPoEZ.s:136    .text:00000000000000a4 .L0 
     /tmp/cctmPoEZ.s:138    .text:00000000000000a8 .L0 
     /tmp/cctmPoEZ.s:140    .text:00000000000000ac .L0 
     /tmp/cctmPoEZ.s:142    .text:00000000000000b0 .L0 
     /tmp/cctmPoEZ.s:144    .text:00000000000000b4 .L0 
     /tmp/cctmPoEZ.s:146    .text:00000000000000b8 .L0 
     /tmp/cctmPoEZ.s:152    .text:00000000000000b8 _Z10init_cacheP12kmem_cache_sPKcmmPFvPvES5_
     /tmp/cctmPoEZ.s:155    .text:00000000000000b8 .L0 
     /tmp/cctmPoEZ.s:157    .text:00000000000000b8 .L0 
     /tmp/cctmPoEZ.s:158    .text:00000000000000bc .L0 
     /tmp/cctmPoEZ.s:166    .text:00000000000000d8 .L0 
     /tmp/cctmPoEZ.s:167    .text:00000000000000d8 .L0 
     /tmp/cctmPoEZ.s:168    .text:00000000000000d8 .L0 
     /tmp/cctmPoEZ.s:169    .text:00000000000000d8 .L0 
     /tmp/cctmPoEZ.s:170    .text:00000000000000d8 .L0 
     /tmp/cctmPoEZ.s:171    .text:00000000000000d8 .L0 
     /tmp/cctmPoEZ.s:172    .text:00000000000000d8 .L0 
     /tmp/cctmPoEZ.s:174    .text:00000000000000dc .L0 
     /tmp/cctmPoEZ.s:183    .text:00000000000000f4 .L0 
     /tmp/cctmPoEZ.s:184    .text:00000000000000f4 .L0 
     /tmp/cctmPoEZ.s:189    .text:0000000000000100 .L0 
     /tmp/cctmPoEZ.s:190    .text:0000000000000100 .L0 
     /tmp/cctmPoEZ.s:192    .text:0000000000000104 .L0 
     /tmp/cctmPoEZ.s:193    .text:0000000000000104 .L0 
     /tmp/cctmPoEZ.s:195    .text:0000000000000108 .L0 
     /tmp/cctmPoEZ.s:196    .text:0000000000000108 .L0 
     /tmp/cctmPoEZ.s:198    .text:000000000000010c .L0 
     /tmp/cctmPoEZ.s:199    .text:000000000000010c .L0 
     /tmp/cctmPoEZ.s:201    .text:0000000000000110 .L0 
     /tmp/cctmPoEZ.s:202    .text:0000000000000110 .L0 
     /tmp/cctmPoEZ.s:204    .text:0000000000000114 .L0 
     /tmp/cctmPoEZ.s:206    .text:0000000000000118 .L0 
     /tmp/cctmPoEZ.s:208    .text:000000000000011c .L0 
     /tmp/cctmPoEZ.s:209    .text:000000000000011c .L0 
     /tmp/cctmPoEZ.s:211    .text:0000000000000120 .L0 
     /tmp/cctmPoEZ.s:212    .text:0000000000000124 .L0 
     /tmp/cctmPoEZ.s:214    .text:0000000000000128 .L0 
     /tmp/cctmPoEZ.s:215    .text:0000000000000128 .L0 
     /tmp/cctmPoEZ.s:217    .text:000000000000012c .L0 
     /tmp/cctmPoEZ.s:220    .text:0000000000000130 .L0 
     /tmp/cctmPoEZ.s:223    .text:0000000000000134 .L0 
     /tmp/cctmPoEZ.s:226    .text:0000000000000138 .L0 
     /tmp/cctmPoEZ.s:229    .text:000000000000013c .L0 
     /tmp/cctmPoEZ.s:232    .text:0000000000000140 .L0 
     /tmp/cctmPoEZ.s:234    .text:0000000000000144 .L0 
     /tmp/cctmPoEZ.s:245    .text:0000000000000144 _Z19slab_allocator_initP14buddyAllocator
     /tmp/cctmPoEZ.s:248    .text:0000000000000144 .L0 
     /tmp/cctmPoEZ.s:250    .text:0000000000000144 .L0 
     /tmp/cctmPoEZ.s:251    .text:0000000000000148 .L0 
     /tmp/cctmPoEZ.s:255    .text:0000000000000154 .L0 
     /tmp/cctmPoEZ.s:256    .text:0000000000000154 .L0 
GAS LISTING /tmp/cctmPoEZ.s 			page 84


     /tmp/cctmPoEZ.s:257    .text:0000000000000154 .L0 
     /tmp/cctmPoEZ.s:259    .text:0000000000000158 .L0 
     /tmp/cctmPoEZ.s:261    .text:0000000000000158 .L0 
     /tmp/cctmPoEZ.s:262    .text:0000000000000158 .L0 
     /tmp/cctmPoEZ.s:266    .text:000000000000015c .L0 
     /tmp/cctmPoEZ.s:267    .text:000000000000015c .L0 
     /tmp/cctmPoEZ.s:272    .text:0000000000000164 .L0 
     /tmp/cctmPoEZ.s:273    .text:0000000000000164 .L0 
     /tmp/cctmPoEZ.s:277    .text:0000000000000170 .L0 
     /tmp/cctmPoEZ.s:281    .text:0000000000000174 .L0 
     /tmp/cctmPoEZ.s:285    .text:000000000000017c .L0 
     /tmp/cctmPoEZ.s:286    .text:000000000000017c .L0 
     /tmp/cctmPoEZ.s:297    .text:00000000000001a0 .L0 
     /tmp/cctmPoEZ.s:298    .text:00000000000001a0 .L0 
     /tmp/cctmPoEZ.s:300    .text:00000000000001a8 .L0 
     /tmp/cctmPoEZ.s:302    .text:00000000000001ac .L0 
     /tmp/cctmPoEZ.s:303    .text:00000000000001ac .L0 
     /tmp/cctmPoEZ.s:305    .text:00000000000001b0 .L0 
     /tmp/cctmPoEZ.s:308    .text:00000000000001b4 .L0 
     /tmp/cctmPoEZ.s:310    .text:00000000000001b8 .L0 
     /tmp/cctmPoEZ.s:316    .text:00000000000001b8 _Z13checkSetIndexP6slab_si
     /tmp/cctmPoEZ.s:319    .text:00000000000001b8 .L0 
     /tmp/cctmPoEZ.s:321    .text:00000000000001b8 .L0 
     /tmp/cctmPoEZ.s:322    .text:00000000000001bc .L0 
     /tmp/cctmPoEZ.s:324    .text:00000000000001c0 .L0 
     /tmp/cctmPoEZ.s:326    .text:00000000000001c4 .L0 
     /tmp/cctmPoEZ.s:328    .text:00000000000001c4 .L0 
     /tmp/cctmPoEZ.s:329    .text:00000000000001c4 .L0 
     /tmp/cctmPoEZ.s:335    .text:00000000000001d4 .L0 
     /tmp/cctmPoEZ.s:338    .text:00000000000001d8 .L0 
     /tmp/cctmPoEZ.s:340    .text:00000000000001dc .L0 
     /tmp/cctmPoEZ.s:343    .text:00000000000001e4 .L0 
     /tmp/cctmPoEZ.s:345    .text:00000000000001e8 .L0 
     /tmp/cctmPoEZ.s:347    .text:00000000000001f0 .L0 
     /tmp/cctmPoEZ.s:348    .text:00000000000001f0 .L0 
     /tmp/cctmPoEZ.s:350    .text:00000000000001f4 .L0 
     /tmp/cctmPoEZ.s:352    .text:00000000000001f8 .L0 
     /tmp/cctmPoEZ.s:358    .text:00000000000001f8 _Z17setAllocatedIndexP6slab_si
     /tmp/cctmPoEZ.s:361    .text:00000000000001f8 .L0 
     /tmp/cctmPoEZ.s:363    .text:00000000000001f8 .L0 
     /tmp/cctmPoEZ.s:364    .text:00000000000001fc .L0 
     /tmp/cctmPoEZ.s:366    .text:0000000000000200 .L0 
     /tmp/cctmPoEZ.s:368    .text:0000000000000204 .L0 
     /tmp/cctmPoEZ.s:370    .text:0000000000000204 .L0 
     /tmp/cctmPoEZ.s:371    .text:0000000000000204 .L0 
     /tmp/cctmPoEZ.s:377    .text:0000000000000214 .L0 
     /tmp/cctmPoEZ.s:380    .text:0000000000000218 .L0 
     /tmp/cctmPoEZ.s:382    .text:000000000000021c .L0 
     /tmp/cctmPoEZ.s:385    .text:0000000000000224 .L0 
     /tmp/cctmPoEZ.s:388    .text:000000000000022c .L0 
     /tmp/cctmPoEZ.s:390    .text:0000000000000230 .L0 
     /tmp/cctmPoEZ.s:392    .text:0000000000000234 .L0 
     /tmp/cctmPoEZ.s:393    .text:0000000000000238 .L0 
     /tmp/cctmPoEZ.s:394    .text:0000000000000238 .L0 
     /tmp/cctmPoEZ.s:396    .text:000000000000023c .L0 
     /tmp/cctmPoEZ.s:398    .text:0000000000000240 .L0 
     /tmp/cctmPoEZ.s:404    .text:0000000000000240 _Z14allocateObjectP6slab_s
GAS LISTING /tmp/cctmPoEZ.s 			page 85


     /tmp/cctmPoEZ.s:407    .text:0000000000000240 .L0 
     /tmp/cctmPoEZ.s:409    .text:0000000000000240 .L0 
     /tmp/cctmPoEZ.s:410    .text:0000000000000244 .L0 
     /tmp/cctmPoEZ.s:416    .text:0000000000000258 .L0 
     /tmp/cctmPoEZ.s:417    .text:0000000000000258 .L0 
     /tmp/cctmPoEZ.s:418    .text:0000000000000258 .L0 
     /tmp/cctmPoEZ.s:419    .text:0000000000000258 .L0 
     /tmp/cctmPoEZ.s:420    .text:0000000000000258 .L0 
     /tmp/cctmPoEZ.s:422    .text:000000000000025c .L0 
     /tmp/cctmPoEZ.s:425    .text:0000000000000260 .L0 
     /tmp/cctmPoEZ.s:428    .text:0000000000000264 .L0 
     /tmp/cctmPoEZ.s:432    .text:0000000000000268 .L0 
     /tmp/cctmPoEZ.s:433    .text:0000000000000268 .L0 
     /tmp/cctmPoEZ.s:435    .text:000000000000026c .L0 
     /tmp/cctmPoEZ.s:437    .text:0000000000000270 .L0 
     /tmp/cctmPoEZ.s:438    .text:0000000000000270 .L0 
     /tmp/cctmPoEZ.s:444    .text:0000000000000284 .L0 
     /tmp/cctmPoEZ.s:446    .text:0000000000000288 .L0 
     /tmp/cctmPoEZ.s:451    .text:0000000000000290 .L0 
     /tmp/cctmPoEZ.s:452    .text:0000000000000290 .L0 
     /tmp/cctmPoEZ.s:454    .text:0000000000000294 .L0 
     /tmp/cctmPoEZ.s:456    .text:0000000000000298 .L0 
     /tmp/cctmPoEZ.s:458    .text:000000000000029c .L0 
     /tmp/cctmPoEZ.s:461    .text:00000000000002a0 .L0 
     /tmp/cctmPoEZ.s:464    .text:00000000000002a4 .L0 
     /tmp/cctmPoEZ.s:465    .text:00000000000002a4 .L0 
     /tmp/cctmPoEZ.s:470    .text:00000000000002a8 .L0 
     /tmp/cctmPoEZ.s:473    .text:00000000000002ac .L0 
     /tmp/cctmPoEZ.s:477    .text:00000000000002b0 .L0 
     /tmp/cctmPoEZ.s:479    .text:00000000000002b4 .L0 
     /tmp/cctmPoEZ.s:480    .text:00000000000002b4 .L0 
     /tmp/cctmPoEZ.s:485    .text:00000000000002c4 .L0 
     /tmp/cctmPoEZ.s:486    .text:00000000000002c4 .L0 
     /tmp/cctmPoEZ.s:488    .text:00000000000002c8 .L0 
     /tmp/cctmPoEZ.s:493    .text:00000000000002d0 .L0 
     /tmp/cctmPoEZ.s:494    .text:00000000000002d0 .L0 
     /tmp/cctmPoEZ.s:496    .text:00000000000002d8 .L0 
     /tmp/cctmPoEZ.s:497    .text:00000000000002d8 .L0 
     /tmp/cctmPoEZ.s:499    .text:00000000000002dc .L0 
     /tmp/cctmPoEZ.s:500    .text:00000000000002dc .L0 
     /tmp/cctmPoEZ.s:502    .text:00000000000002e0 .L0 
     /tmp/cctmPoEZ.s:504    .text:00000000000002e4 .L0 
     /tmp/cctmPoEZ.s:507    .text:00000000000002e8 .L0 
     /tmp/cctmPoEZ.s:509    .text:00000000000002ec .L0 
     /tmp/cctmPoEZ.s:513    .text:00000000000002f0 .L0 
     /tmp/cctmPoEZ.s:515    .text:00000000000002f0 .L0 
     /tmp/cctmPoEZ.s:517    .text:00000000000002f8 .L0 
     /tmp/cctmPoEZ.s:523    .text:00000000000002f8 _Z4fullP6slab_s
     /tmp/cctmPoEZ.s:526    .text:00000000000002f8 .L0 
     /tmp/cctmPoEZ.s:528    .text:00000000000002f8 .L0 
     /tmp/cctmPoEZ.s:529    .text:00000000000002fc .L0 
     /tmp/cctmPoEZ.s:531    .text:0000000000000300 .L0 
     /tmp/cctmPoEZ.s:533    .text:0000000000000304 .L0 
     /tmp/cctmPoEZ.s:535    .text:0000000000000304 .L0 
     /tmp/cctmPoEZ.s:536    .text:0000000000000304 .L0 
     /tmp/cctmPoEZ.s:538    .text:0000000000000308 .L0 
     /tmp/cctmPoEZ.s:542    .text:0000000000000310 .L0 
GAS LISTING /tmp/cctmPoEZ.s 			page 86


     /tmp/cctmPoEZ.s:544    .text:0000000000000318 .L0 
     /tmp/cctmPoEZ.s:545    .text:0000000000000318 .L0 
     /tmp/cctmPoEZ.s:547    .text:000000000000031c .L0 
     /tmp/cctmPoEZ.s:549    .text:0000000000000320 .L0 
     /tmp/cctmPoEZ.s:555    .text:0000000000000320 _Z5emptyP6slab_s
     /tmp/cctmPoEZ.s:558    .text:0000000000000320 .L0 
     /tmp/cctmPoEZ.s:560    .text:0000000000000320 .L0 
     /tmp/cctmPoEZ.s:561    .text:0000000000000324 .L0 
     /tmp/cctmPoEZ.s:563    .text:0000000000000328 .L0 
     /tmp/cctmPoEZ.s:565    .text:000000000000032c .L0 
     /tmp/cctmPoEZ.s:567    .text:000000000000032c .L0 
     /tmp/cctmPoEZ.s:568    .text:000000000000032c .L0 
     /tmp/cctmPoEZ.s:571    .text:0000000000000330 .L0 
     /tmp/cctmPoEZ.s:573    .text:0000000000000338 .L0 
     /tmp/cctmPoEZ.s:574    .text:0000000000000338 .L0 
     /tmp/cctmPoEZ.s:576    .text:000000000000033c .L0 
     /tmp/cctmPoEZ.s:578    .text:0000000000000340 .L0 
     /tmp/cctmPoEZ.s:584    .text:0000000000000340 _Z18insertIntoSlabListP6slab_sPS0_
     /tmp/cctmPoEZ.s:587    .text:0000000000000340 .L0 
     /tmp/cctmPoEZ.s:589    .text:0000000000000340 .L0 
     /tmp/cctmPoEZ.s:590    .text:0000000000000344 .L0 
     /tmp/cctmPoEZ.s:592    .text:0000000000000348 .L0 
     /tmp/cctmPoEZ.s:594    .text:000000000000034c .L0 
     /tmp/cctmPoEZ.s:596    .text:000000000000034c .L0 
     /tmp/cctmPoEZ.s:598    .text:0000000000000350 .L0 
     /tmp/cctmPoEZ.s:599    .text:0000000000000350 .L0 
     /tmp/cctmPoEZ.s:601    .text:0000000000000354 .L0 
     /tmp/cctmPoEZ.s:602    .text:0000000000000354 .L0 
     /tmp/cctmPoEZ.s:604    .text:0000000000000358 .L0 
     /tmp/cctmPoEZ.s:606    .text:000000000000035c .L0 
     /tmp/cctmPoEZ.s:608    .text:0000000000000360 .L0 
     /tmp/cctmPoEZ.s:609    .text:0000000000000360 .L0 
     /tmp/cctmPoEZ.s:612    .text:0000000000000364 .L0 
     /tmp/cctmPoEZ.s:613    .text:0000000000000364 .L0 
     /tmp/cctmPoEZ.s:616    .text:0000000000000368 .L0 
     /tmp/cctmPoEZ.s:617    .text:000000000000036c .L0 
     /tmp/cctmPoEZ.s:618    .text:000000000000036c .L0 
     /tmp/cctmPoEZ.s:620    .text:0000000000000370 .L0 
     /tmp/cctmPoEZ.s:622    .text:0000000000000374 .L0 
     /tmp/cctmPoEZ.s:628    .text:0000000000000374 _Z18removeFromSlabListP6slab_sPS0_
     /tmp/cctmPoEZ.s:631    .text:0000000000000374 .L0 
     /tmp/cctmPoEZ.s:633    .text:0000000000000374 .L0 
     /tmp/cctmPoEZ.s:634    .text:0000000000000378 .L0 
     /tmp/cctmPoEZ.s:636    .text:000000000000037c .L0 
     /tmp/cctmPoEZ.s:638    .text:0000000000000380 .L0 
     /tmp/cctmPoEZ.s:640    .text:0000000000000380 .L0 
     /tmp/cctmPoEZ.s:641    .text:0000000000000380 .L0 
     /tmp/cctmPoEZ.s:643    .text:0000000000000384 .L0 
     /tmp/cctmPoEZ.s:645    .text:0000000000000388 .L0 
     /tmp/cctmPoEZ.s:646    .text:0000000000000388 .L0 
     /tmp/cctmPoEZ.s:648    .text:000000000000038c .L0 
     /tmp/cctmPoEZ.s:650    .text:0000000000000390 .L0 
     /tmp/cctmPoEZ.s:652    .text:0000000000000394 .L0 
     /tmp/cctmPoEZ.s:653    .text:0000000000000394 .L0 
     /tmp/cctmPoEZ.s:655    .text:0000000000000398 .L0 
     /tmp/cctmPoEZ.s:658    .text:000000000000039c .L0 
     /tmp/cctmPoEZ.s:659    .text:000000000000039c .L0 
GAS LISTING /tmp/cctmPoEZ.s 			page 87


     /tmp/cctmPoEZ.s:661    .text:00000000000003a0 .L0 
     /tmp/cctmPoEZ.s:664    .text:00000000000003a4 .L0 
     /tmp/cctmPoEZ.s:665    .text:00000000000003a8 .L0 
     /tmp/cctmPoEZ.s:666    .text:00000000000003a8 .L0 
     /tmp/cctmPoEZ.s:667    .text:00000000000003a8 .L0 
     /tmp/cctmPoEZ.s:669    .text:00000000000003ac .L0 
     /tmp/cctmPoEZ.s:672    .text:00000000000003b0 .L0 
     /tmp/cctmPoEZ.s:674    .text:00000000000003b0 .L0 
     /tmp/cctmPoEZ.s:675    .text:00000000000003b0 .L0 
     /tmp/cctmPoEZ.s:677    .text:00000000000003b4 .L0 
     /tmp/cctmPoEZ.s:679    .text:00000000000003b8 .L0 
     /tmp/cctmPoEZ.s:680    .text:00000000000003b8 .L0 
     /tmp/cctmPoEZ.s:683    .text:00000000000003bc .L0 
     /tmp/cctmPoEZ.s:684    .text:00000000000003bc .L0 
     /tmp/cctmPoEZ.s:686    .text:00000000000003c0 .L0 
     /tmp/cctmPoEZ.s:688    .text:00000000000003c4 .L0 
     /tmp/cctmPoEZ.s:689    .text:00000000000003c4 .L0 
     /tmp/cctmPoEZ.s:691    .text:00000000000003c8 .L0 
     /tmp/cctmPoEZ.s:693    .text:00000000000003d0 .L0 
     /tmp/cctmPoEZ.s:699    .text:00000000000003d0 _Z16putPartialToFullP12kmem_cache_s
     /tmp/cctmPoEZ.s:702    .text:00000000000003d0 .L0 
     /tmp/cctmPoEZ.s:704    .text:00000000000003d0 .L0 
     /tmp/cctmPoEZ.s:705    .text:00000000000003d4 .L0 
     /tmp/cctmPoEZ.s:710    .text:00000000000003e4 .L0 
     /tmp/cctmPoEZ.s:711    .text:00000000000003e4 .L0 
     /tmp/cctmPoEZ.s:712    .text:00000000000003e4 .L0 
     /tmp/cctmPoEZ.s:713    .text:00000000000003e4 .L0 
     /tmp/cctmPoEZ.s:715    .text:00000000000003e8 .L0 
     /tmp/cctmPoEZ.s:718    .text:00000000000003ec .L0 
     /tmp/cctmPoEZ.s:719    .text:00000000000003ec .L0 
     /tmp/cctmPoEZ.s:722    .text:00000000000003f0 .L0 
     /tmp/cctmPoEZ.s:723    .text:00000000000003f0 .L0 
     /tmp/cctmPoEZ.s:729    .text:0000000000000400 .L0 
     /tmp/cctmPoEZ.s:730    .text:0000000000000400 .L0 
     /tmp/cctmPoEZ.s:735    .text:0000000000000410 .L0 
     /tmp/cctmPoEZ.s:736    .text:0000000000000414 .L0 
     /tmp/cctmPoEZ.s:738    .text:0000000000000418 .L0 
     /tmp/cctmPoEZ.s:739    .text:0000000000000418 .L0 
     /tmp/cctmPoEZ.s:741    .text:000000000000041c .L0 
     /tmp/cctmPoEZ.s:744    .text:0000000000000420 .L0 
     /tmp/cctmPoEZ.s:747    .text:0000000000000424 .L0 
     /tmp/cctmPoEZ.s:749    .text:0000000000000428 .L0 
     /tmp/cctmPoEZ.s:755    .text:0000000000000428 _Z17putEmptyToPartialP12kmem_cache_s
     /tmp/cctmPoEZ.s:758    .text:0000000000000428 .L0 
     /tmp/cctmPoEZ.s:760    .text:0000000000000428 .L0 
     /tmp/cctmPoEZ.s:761    .text:000000000000042c .L0 
     /tmp/cctmPoEZ.s:766    .text:000000000000043c .L0 
     /tmp/cctmPoEZ.s:767    .text:000000000000043c .L0 
     /tmp/cctmPoEZ.s:768    .text:000000000000043c .L0 
     /tmp/cctmPoEZ.s:769    .text:000000000000043c .L0 
     /tmp/cctmPoEZ.s:771    .text:0000000000000440 .L0 
     /tmp/cctmPoEZ.s:774    .text:0000000000000444 .L0 
     /tmp/cctmPoEZ.s:775    .text:0000000000000444 .L0 
     /tmp/cctmPoEZ.s:778    .text:0000000000000448 .L0 
     /tmp/cctmPoEZ.s:779    .text:0000000000000448 .L0 
     /tmp/cctmPoEZ.s:785    .text:0000000000000458 .L0 
     /tmp/cctmPoEZ.s:786    .text:0000000000000458 .L0 
GAS LISTING /tmp/cctmPoEZ.s 			page 88


     /tmp/cctmPoEZ.s:791    .text:0000000000000468 .L0 
     /tmp/cctmPoEZ.s:792    .text:000000000000046c .L0 
     /tmp/cctmPoEZ.s:794    .text:0000000000000470 .L0 
     /tmp/cctmPoEZ.s:795    .text:0000000000000470 .L0 
     /tmp/cctmPoEZ.s:797    .text:0000000000000474 .L0 
     /tmp/cctmPoEZ.s:800    .text:0000000000000478 .L0 
     /tmp/cctmPoEZ.s:803    .text:000000000000047c .L0 
     /tmp/cctmPoEZ.s:805    .text:0000000000000480 .L0 
     /tmp/cctmPoEZ.s:811    .text:0000000000000480 _Z14removeFullSlabP12kmem_cache_sP6slab_s
     /tmp/cctmPoEZ.s:814    .text:0000000000000480 .L0 
     /tmp/cctmPoEZ.s:816    .text:0000000000000480 .L0 
     /tmp/cctmPoEZ.s:817    .text:0000000000000484 .L0 
     /tmp/cctmPoEZ.s:822    .text:0000000000000494 .L0 
     /tmp/cctmPoEZ.s:823    .text:0000000000000494 .L0 
     /tmp/cctmPoEZ.s:824    .text:0000000000000494 .L0 
     /tmp/cctmPoEZ.s:825    .text:0000000000000494 .L0 
     /tmp/cctmPoEZ.s:827    .text:0000000000000498 .L0 
     /tmp/cctmPoEZ.s:831    .text:00000000000004a0 .L0 
     /tmp/cctmPoEZ.s:832    .text:00000000000004a0 .L0 
     /tmp/cctmPoEZ.s:839    .text:00000000000004b0 .L0 
     /tmp/cctmPoEZ.s:840    .text:00000000000004b0 .L0 
     /tmp/cctmPoEZ.s:845    .text:00000000000004c0 .L0 
     /tmp/cctmPoEZ.s:846    .text:00000000000004c4 .L0 
     /tmp/cctmPoEZ.s:848    .text:00000000000004c8 .L0 
     /tmp/cctmPoEZ.s:849    .text:00000000000004c8 .L0 
     /tmp/cctmPoEZ.s:851    .text:00000000000004cc .L0 
     /tmp/cctmPoEZ.s:854    .text:00000000000004d0 .L0 
     /tmp/cctmPoEZ.s:857    .text:00000000000004d4 .L0 
     /tmp/cctmPoEZ.s:859    .text:00000000000004d8 .L0 
     /tmp/cctmPoEZ.s:865    .text:00000000000004d8 _Z17removePartialSlabP12kmem_cache_sP6slab_s
     /tmp/cctmPoEZ.s:868    .text:00000000000004d8 .L0 
     /tmp/cctmPoEZ.s:870    .text:00000000000004d8 .L0 
     /tmp/cctmPoEZ.s:871    .text:00000000000004dc .L0 
     /tmp/cctmPoEZ.s:876    .text:00000000000004ec .L0 
     /tmp/cctmPoEZ.s:877    .text:00000000000004ec .L0 
     /tmp/cctmPoEZ.s:878    .text:00000000000004ec .L0 
     /tmp/cctmPoEZ.s:879    .text:00000000000004ec .L0 
     /tmp/cctmPoEZ.s:881    .text:00000000000004f0 .L0 
     /tmp/cctmPoEZ.s:885    .text:00000000000004f8 .L0 
     /tmp/cctmPoEZ.s:886    .text:00000000000004f8 .L0 
     /tmp/cctmPoEZ.s:893    .text:0000000000000508 .L0 
     /tmp/cctmPoEZ.s:894    .text:0000000000000508 .L0 
     /tmp/cctmPoEZ.s:899    .text:0000000000000518 .L0 
     /tmp/cctmPoEZ.s:900    .text:000000000000051c .L0 
     /tmp/cctmPoEZ.s:902    .text:0000000000000520 .L0 
     /tmp/cctmPoEZ.s:903    .text:0000000000000520 .L0 
     /tmp/cctmPoEZ.s:905    .text:0000000000000524 .L0 
     /tmp/cctmPoEZ.s:908    .text:0000000000000528 .L0 
     /tmp/cctmPoEZ.s:911    .text:000000000000052c .L0 
     /tmp/cctmPoEZ.s:913    .text:0000000000000530 .L0 
     /tmp/cctmPoEZ.s:919    .text:0000000000000530 _Z12allocateSlabP12kmem_cache_s
     /tmp/cctmPoEZ.s:922    .text:0000000000000530 .L0 
     /tmp/cctmPoEZ.s:924    .text:0000000000000530 .L0 
     /tmp/cctmPoEZ.s:925    .text:0000000000000534 .L0 
     /tmp/cctmPoEZ.s:931    .text:0000000000000548 .L0 
     /tmp/cctmPoEZ.s:932    .text:0000000000000548 .L0 
     /tmp/cctmPoEZ.s:933    .text:0000000000000548 .L0 
GAS LISTING /tmp/cctmPoEZ.s 			page 89


     /tmp/cctmPoEZ.s:934    .text:0000000000000548 .L0 
     /tmp/cctmPoEZ.s:935    .text:0000000000000548 .L0 
     /tmp/cctmPoEZ.s:937    .text:000000000000054c .L0 
     /tmp/cctmPoEZ.s:940    .text:0000000000000550 .L0 
     /tmp/cctmPoEZ.s:941    .text:0000000000000550 .L0 
     /tmp/cctmPoEZ.s:946    .text:000000000000055c .L0 
     /tmp/cctmPoEZ.s:949    .text:0000000000000564 .L0 
     /tmp/cctmPoEZ.s:950    .text:0000000000000564 .L0 
     /tmp/cctmPoEZ.s:952    .text:0000000000000568 .L0 
     /tmp/cctmPoEZ.s:954    .text:000000000000056c .L0 
     /tmp/cctmPoEZ.s:956    .text:0000000000000570 .L0 
     /tmp/cctmPoEZ.s:957    .text:0000000000000570 .L0 
     /tmp/cctmPoEZ.s:961    .text:0000000000000574 .L0 
     /tmp/cctmPoEZ.s:962    .text:0000000000000574 .L0 
     /tmp/cctmPoEZ.s:964    .text:0000000000000578 .L0 
     /tmp/cctmPoEZ.s:965    .text:0000000000000578 .L0 
     /tmp/cctmPoEZ.s:967    .text:000000000000057c .L0 
     /tmp/cctmPoEZ.s:968    .text:000000000000057c .L0 
     /tmp/cctmPoEZ.s:970    .text:0000000000000580 .L0 
     /tmp/cctmPoEZ.s:971    .text:0000000000000580 .L0 
     /tmp/cctmPoEZ.s:973    .text:0000000000000584 .L0 
     /tmp/cctmPoEZ.s:974    .text:0000000000000584 .L0 
     /tmp/cctmPoEZ.s:976    .text:0000000000000588 .L0 
     /tmp/cctmPoEZ.s:979    .text:000000000000058c .L0 
     /tmp/cctmPoEZ.s:980    .text:000000000000058c .L0 
     /tmp/cctmPoEZ.s:983    .text:0000000000000590 .L0 
     /tmp/cctmPoEZ.s:985    .text:0000000000000594 .L0 
     /tmp/cctmPoEZ.s:988    .text:0000000000000598 .L0 
     /tmp/cctmPoEZ.s:991    .text:000000000000059c .L0 
     /tmp/cctmPoEZ.s:992    .text:000000000000059c .L0 
     /tmp/cctmPoEZ.s:994    .text:00000000000005a0 .L0 
     /tmp/cctmPoEZ.s:998    .text:00000000000005a4 .L0 
     /tmp/cctmPoEZ.s:999    .text:00000000000005a4 .L0 
     /tmp/cctmPoEZ.s:1003   .text:00000000000005a8 .L0 
     /tmp/cctmPoEZ.s:1004   .text:00000000000005a8 .L0 
     /tmp/cctmPoEZ.s:1006   .text:00000000000005ac .L0 
     /tmp/cctmPoEZ.s:1008   .text:00000000000005b0 .L0 
     /tmp/cctmPoEZ.s:1010   .text:00000000000005b4 .L0 
     /tmp/cctmPoEZ.s:1011   .text:00000000000005b4 .L0 
     /tmp/cctmPoEZ.s:1014   .text:00000000000005bc .L0 
     /tmp/cctmPoEZ.s:1021   .text:00000000000005c4 .L0 
     /tmp/cctmPoEZ.s:1022   .text:00000000000005c4 .L0 
     /tmp/cctmPoEZ.s:1024   .text:00000000000005c8 .L0 
     /tmp/cctmPoEZ.s:1027   .text:00000000000005cc .L0 
     /tmp/cctmPoEZ.s:1031   .text:00000000000005d0 .L0 
     /tmp/cctmPoEZ.s:1032   .text:00000000000005d0 .L0 
     /tmp/cctmPoEZ.s:1034   .text:00000000000005d4 .L0 
     /tmp/cctmPoEZ.s:1036   .text:00000000000005d8 .L0 
     /tmp/cctmPoEZ.s:1037   .text:00000000000005d8 .L0 
     /tmp/cctmPoEZ.s:1039   .text:00000000000005dc .L0 
     /tmp/cctmPoEZ.s:1041   .text:00000000000005e0 .L0 
     /tmp/cctmPoEZ.s:1043   .text:00000000000005e4 .L0 
     /tmp/cctmPoEZ.s:1045   .text:00000000000005e8 .L0 
     /tmp/cctmPoEZ.s:1047   .text:00000000000005ec .L0 
     /tmp/cctmPoEZ.s:1051   .text:00000000000005f4 .L0 
     /tmp/cctmPoEZ.s:1059   .text:00000000000005fc .L0 
     /tmp/cctmPoEZ.s:1060   .text:0000000000000600 .L0 
GAS LISTING /tmp/cctmPoEZ.s 			page 90


     /tmp/cctmPoEZ.s:1062   .text:0000000000000604 .L0 
     /tmp/cctmPoEZ.s:1063   .text:0000000000000604 .L0 
     /tmp/cctmPoEZ.s:1065   .text:0000000000000608 .L0 
     /tmp/cctmPoEZ.s:1067   .text:000000000000060c .L0 
     /tmp/cctmPoEZ.s:1069   .text:0000000000000610 .L0 
     /tmp/cctmPoEZ.s:1072   .text:0000000000000614 .L0 
     /tmp/cctmPoEZ.s:1074   .text:0000000000000618 .L0 
     /tmp/cctmPoEZ.s:1080   .text:0000000000000618 _Z18getOptimalSlabSizem
     /tmp/cctmPoEZ.s:1083   .text:0000000000000618 .L0 
     /tmp/cctmPoEZ.s:1085   .text:0000000000000618 .L0 
     /tmp/cctmPoEZ.s:1086   .text:000000000000061c .L0 
     /tmp/cctmPoEZ.s:1088   .text:0000000000000620 .L0 
     /tmp/cctmPoEZ.s:1090   .text:0000000000000624 .L0 
     /tmp/cctmPoEZ.s:1093   .text:0000000000000624 .L0 
     /tmp/cctmPoEZ.s:1094   .text:0000000000000624 .L0 
     /tmp/cctmPoEZ.s:1098   .text:0000000000000628 .L0 
     /tmp/cctmPoEZ.s:1099   .text:0000000000000628 .L0 
     /tmp/cctmPoEZ.s:1100   .text:0000000000000628 .L0 
     /tmp/cctmPoEZ.s:1102   .text:000000000000062c .L0 
     /tmp/cctmPoEZ.s:1104   .text:0000000000000630 .L0 
     /tmp/cctmPoEZ.s:1105   .text:0000000000000630 .L0 
     /tmp/cctmPoEZ.s:1108   .text:0000000000000634 .L0 
     /tmp/cctmPoEZ.s:1111   .text:0000000000000638 .L0 
     /tmp/cctmPoEZ.s:1112   .text:0000000000000638 .L0 
     /tmp/cctmPoEZ.s:1114   .text:000000000000063c .L0 
     /tmp/cctmPoEZ.s:1117   .text:0000000000000640 .L0 
     /tmp/cctmPoEZ.s:1118   .text:0000000000000640 .L0 
     /tmp/cctmPoEZ.s:1119   .text:0000000000000640 .L0 
     /tmp/cctmPoEZ.s:1120   .text:0000000000000640 .L0 
     /tmp/cctmPoEZ.s:1121   .text:0000000000000640 .L0 
     /tmp/cctmPoEZ.s:1124   .text:0000000000000644 .L0 
     /tmp/cctmPoEZ.s:1129   .text:000000000000064c .L0 
     /tmp/cctmPoEZ.s:1133   .text:0000000000000650 .L0 
     /tmp/cctmPoEZ.s:1137   .text:0000000000000658 .L0 
     /tmp/cctmPoEZ.s:1138   .text:0000000000000658 .L0 
     /tmp/cctmPoEZ.s:1141   .text:000000000000065c .L0 
     /tmp/cctmPoEZ.s:1142   .text:000000000000065c .L0 
     /tmp/cctmPoEZ.s:1144   .text:0000000000000660 .L0 
     /tmp/cctmPoEZ.s:1147   .text:0000000000000664 .L0 
     /tmp/cctmPoEZ.s:1148   .text:0000000000000664 .L0 
     /tmp/cctmPoEZ.s:1151   .text:0000000000000668 .L0 
     /tmp/cctmPoEZ.s:1153   .text:000000000000066c .L0 
     /tmp/cctmPoEZ.s:1156   .text:0000000000000674 .L0 
     /tmp/cctmPoEZ.s:1159   .text:0000000000000678 .L0 
     /tmp/cctmPoEZ.s:1167   .text:0000000000000680 .L0 
     /tmp/cctmPoEZ.s:1168   .text:0000000000000680 .L0 
     /tmp/cctmPoEZ.s:1171   .text:0000000000000688 .L0 
     /tmp/cctmPoEZ.s:1172   .text:0000000000000688 .L0 
     /tmp/cctmPoEZ.s:1174   .text:000000000000068c .L0 
     /tmp/cctmPoEZ.s:1176   .text:0000000000000690 .L0 
     /tmp/cctmPoEZ.s:1182   .text:0000000000000690 _Z8findSlabP12kmem_cache_sPKv
     /tmp/cctmPoEZ.s:1185   .text:0000000000000690 .L0 
     /tmp/cctmPoEZ.s:1187   .text:0000000000000690 .L0 
     /tmp/cctmPoEZ.s:1188   .text:0000000000000694 .L0 
     /tmp/cctmPoEZ.s:1190   .text:0000000000000698 .L0 
     /tmp/cctmPoEZ.s:1192   .text:000000000000069c .L0 
     /tmp/cctmPoEZ.s:1195   .text:00000000000006a0 .L0 
GAS LISTING /tmp/cctmPoEZ.s 			page 91


     /tmp/cctmPoEZ.s:1197   .text:00000000000006a4 .L0 
     /tmp/cctmPoEZ.s:1199   .text:00000000000006a8 .L0 
     /tmp/cctmPoEZ.s:1200   .text:00000000000006a8 .L0 
     /tmp/cctmPoEZ.s:1207   .text:00000000000006b0 .L0 
     /tmp/cctmPoEZ.s:1208   .text:00000000000006b0 .L0 
     /tmp/cctmPoEZ.s:1213   .text:00000000000006b4 .L0 
     /tmp/cctmPoEZ.s:1214   .text:00000000000006b4 .L0 
     /tmp/cctmPoEZ.s:1217   .text:00000000000006b8 .L0 
     /tmp/cctmPoEZ.s:1218   .text:00000000000006b8 .L0 
     /tmp/cctmPoEZ.s:1220   .text:00000000000006bc .L0 
     /tmp/cctmPoEZ.s:1222   .text:00000000000006c0 .L0 
     /tmp/cctmPoEZ.s:1224   .text:00000000000006c4 .L0 
     /tmp/cctmPoEZ.s:1226   .text:00000000000006c8 .L0 
     /tmp/cctmPoEZ.s:1228   .text:00000000000006cc .L0 
     /tmp/cctmPoEZ.s:1231   .text:00000000000006d0 .L0 
     /tmp/cctmPoEZ.s:1233   .text:00000000000006d4 .L0 
     /tmp/cctmPoEZ.s:1238   .text:00000000000006d8 .L0 
     /tmp/cctmPoEZ.s:1239   .text:00000000000006dc .L0 
     /tmp/cctmPoEZ.s:1240   .text:00000000000006dc .L0 
     /tmp/cctmPoEZ.s:1241   .text:00000000000006dc .L0 
     /tmp/cctmPoEZ.s:1243   .text:00000000000006e0 .L0 
     /tmp/cctmPoEZ.s:1247   .text:00000000000006e4 .L0 
     /tmp/cctmPoEZ.s:1249   .text:00000000000006e4 .L0 
     /tmp/cctmPoEZ.s:1250   .text:00000000000006e4 .L0 
     /tmp/cctmPoEZ.s:1257   .text:00000000000006ec .L0 
     /tmp/cctmPoEZ.s:1258   .text:00000000000006ec .L0 
     /tmp/cctmPoEZ.s:1263   .text:00000000000006f0 .L0 
     /tmp/cctmPoEZ.s:1264   .text:00000000000006f0 .L0 
     /tmp/cctmPoEZ.s:1267   .text:00000000000006f4 .L0 
     /tmp/cctmPoEZ.s:1268   .text:00000000000006f4 .L0 
     /tmp/cctmPoEZ.s:1270   .text:00000000000006f8 .L0 
     /tmp/cctmPoEZ.s:1272   .text:00000000000006fc .L0 
     /tmp/cctmPoEZ.s:1274   .text:0000000000000700 .L0 
     /tmp/cctmPoEZ.s:1276   .text:0000000000000704 .L0 
     /tmp/cctmPoEZ.s:1278   .text:0000000000000708 .L0 
     /tmp/cctmPoEZ.s:1281   .text:000000000000070c .L0 
     /tmp/cctmPoEZ.s:1283   .text:0000000000000710 .L0 
     /tmp/cctmPoEZ.s:1289   .text:0000000000000718 .L0 
     /tmp/cctmPoEZ.s:1292   .text:0000000000000720 .L0 
     /tmp/cctmPoEZ.s:1298   .text:0000000000000720 _Z19resetAllocatedIndexP6slab_si
     /tmp/cctmPoEZ.s:1301   .text:0000000000000720 .L0 
     /tmp/cctmPoEZ.s:1303   .text:0000000000000720 .L0 
     /tmp/cctmPoEZ.s:1304   .text:0000000000000724 .L0 
     /tmp/cctmPoEZ.s:1306   .text:0000000000000728 .L0 
     /tmp/cctmPoEZ.s:1308   .text:000000000000072c .L0 
     /tmp/cctmPoEZ.s:1310   .text:000000000000072c .L0 
     /tmp/cctmPoEZ.s:1311   .text:000000000000072c .L0 
     /tmp/cctmPoEZ.s:1317   .text:000000000000073c .L0 
     /tmp/cctmPoEZ.s:1320   .text:0000000000000740 .L0 
     /tmp/cctmPoEZ.s:1322   .text:0000000000000744 .L0 
     /tmp/cctmPoEZ.s:1325   .text:000000000000074c .L0 
     /tmp/cctmPoEZ.s:1328   .text:0000000000000754 .L0 
     /tmp/cctmPoEZ.s:1331   .text:000000000000075c .L0 
     /tmp/cctmPoEZ.s:1333   .text:0000000000000760 .L0 
     /tmp/cctmPoEZ.s:1334   .text:0000000000000764 .L0 
     /tmp/cctmPoEZ.s:1335   .text:0000000000000764 .L0 
     /tmp/cctmPoEZ.s:1337   .text:0000000000000768 .L0 
GAS LISTING /tmp/cctmPoEZ.s 			page 92


     /tmp/cctmPoEZ.s:1339   .text:000000000000076c .L0 
     /tmp/cctmPoEZ.s:1362   .text:000000000000076c _Z13printSlabInfoP6slab_s
     /tmp/cctmPoEZ.s:1365   .text:000000000000076c .L0 
     /tmp/cctmPoEZ.s:1367   .text:000000000000076c .L0 
     /tmp/cctmPoEZ.s:1368   .text:0000000000000770 .L0 
     /tmp/cctmPoEZ.s:1372   .text:000000000000077c .L0 
     /tmp/cctmPoEZ.s:1373   .text:000000000000077c .L0 
     /tmp/cctmPoEZ.s:1374   .text:000000000000077c .L0 
     /tmp/cctmPoEZ.s:1376   .text:0000000000000780 .L0 
     /tmp/cctmPoEZ.s:1379   .text:0000000000000784 .L0 
     /tmp/cctmPoEZ.s:1380   .text:0000000000000784 .L0 
     /tmp/cctmPoEZ.s:1385   .text:0000000000000794 .L0 
     /tmp/cctmPoEZ.s:1386   .text:0000000000000794 .L0 
     /tmp/cctmPoEZ.s:1392   .text:00000000000007ac .L0 
     /tmp/cctmPoEZ.s:1393   .text:00000000000007ac .L0 
     /tmp/cctmPoEZ.s:1399   .text:00000000000007c4 .L0 
     /tmp/cctmPoEZ.s:1400   .text:00000000000007c4 .L0 
     /tmp/cctmPoEZ.s:1406   .text:00000000000007dc .L0 
     /tmp/cctmPoEZ.s:1407   .text:00000000000007dc .L0 
     /tmp/cctmPoEZ.s:1413   .text:00000000000007f4 .L0 
     /tmp/cctmPoEZ.s:1414   .text:00000000000007f8 .L0 
     /tmp/cctmPoEZ.s:1416   .text:00000000000007fc .L0 
     /tmp/cctmPoEZ.s:1417   .text:00000000000007fc .L0 
     /tmp/cctmPoEZ.s:1419   .text:0000000000000800 .L0 
     /tmp/cctmPoEZ.s:1422   .text:0000000000000804 .L0 
     /tmp/cctmPoEZ.s:1424   .text:0000000000000808 .L0 
     /tmp/cctmPoEZ.s:1430   .text:0000000000000808 _Z16free_slab_objectP6slab_sPKv
     /tmp/cctmPoEZ.s:1433   .text:0000000000000808 .L0 
     /tmp/cctmPoEZ.s:1435   .text:0000000000000808 .L0 
     /tmp/cctmPoEZ.s:1436   .text:0000000000000808 .L0 
     /tmp/cctmPoEZ.s:1438   .text:000000000000080c .L0 
     /tmp/cctmPoEZ.s:1439   .text:0000000000000810 .L0 
     /tmp/cctmPoEZ.s:1446   .text:0000000000000828 .L0 
     /tmp/cctmPoEZ.s:1447   .text:0000000000000828 .L0 
     /tmp/cctmPoEZ.s:1448   .text:0000000000000828 .L0 
     /tmp/cctmPoEZ.s:1449   .text:0000000000000828 .L0 
     /tmp/cctmPoEZ.s:1450   .text:0000000000000828 .L0 
     /tmp/cctmPoEZ.s:1451   .text:0000000000000828 .L0 
     /tmp/cctmPoEZ.s:1453   .text:000000000000082c .L0 
     /tmp/cctmPoEZ.s:1457   .text:0000000000000834 .L0 
     /tmp/cctmPoEZ.s:1459   .text:0000000000000838 .L0 
     /tmp/cctmPoEZ.s:1460   .text:0000000000000838 .L0 
     /tmp/cctmPoEZ.s:1462   .text:000000000000083c .L0 
     /tmp/cctmPoEZ.s:1464   .text:0000000000000840 .L0 
     /tmp/cctmPoEZ.s:1466   .text:0000000000000844 .L0 
     /tmp/cctmPoEZ.s:1468   .text:0000000000000848 .L0 
     /tmp/cctmPoEZ.s:1470   .text:000000000000084c .L0 
     /tmp/cctmPoEZ.s:1473   .text:0000000000000850 .L0 
     /tmp/cctmPoEZ.s:1474   .text:0000000000000850 .L0 
     /tmp/cctmPoEZ.s:1476   .text:0000000000000854 .L0 
     /tmp/cctmPoEZ.s:1478   .text:0000000000000858 .L0 
     /tmp/cctmPoEZ.s:1480   .text:000000000000085c .L0 
     /tmp/cctmPoEZ.s:1481   .text:000000000000085c .L0 
     /tmp/cctmPoEZ.s:1486   .text:0000000000000868 .L0 
     /tmp/cctmPoEZ.s:1489   .text:000000000000086c .L0 
     /tmp/cctmPoEZ.s:1490   .text:000000000000086c .L0 
     /tmp/cctmPoEZ.s:1491   .text:000000000000086c .L0 
GAS LISTING /tmp/cctmPoEZ.s 			page 93


     /tmp/cctmPoEZ.s:1493   .text:0000000000000870 .L0 
     /tmp/cctmPoEZ.s:1495   .text:0000000000000874 .L0 
     /tmp/cctmPoEZ.s:1496   .text:0000000000000874 .L0 
     /tmp/cctmPoEZ.s:1501   .text:000000000000087c .L0 
     /tmp/cctmPoEZ.s:1502   .text:000000000000087c .L0 
     /tmp/cctmPoEZ.s:1504   .text:0000000000000880 .L0 
     /tmp/cctmPoEZ.s:1506   .text:0000000000000884 .L0 
     /tmp/cctmPoEZ.s:1507   .text:0000000000000884 .L0 
     /tmp/cctmPoEZ.s:1512   .text:000000000000088c .L0 
     /tmp/cctmPoEZ.s:1513   .text:000000000000088c .L0 
     /tmp/cctmPoEZ.s:1518   .text:000000000000089c .L0 
     /tmp/cctmPoEZ.s:1519   .text:000000000000089c .L0 
     /tmp/cctmPoEZ.s:1521   .text:00000000000008a0 .L0 
     /tmp/cctmPoEZ.s:1523   .text:00000000000008a4 .L0 
     /tmp/cctmPoEZ.s:1525   .text:00000000000008a8 .L0 
     /tmp/cctmPoEZ.s:1528   .text:00000000000008b0 .L0 
     /tmp/cctmPoEZ.s:1529   .text:00000000000008b0 .L0 
     /tmp/cctmPoEZ.s:1534   .text:00000000000008b8 .L0 
     /tmp/cctmPoEZ.s:1535   .text:00000000000008bc .L0 
     /tmp/cctmPoEZ.s:1536   .text:00000000000008bc .L0 
     /tmp/cctmPoEZ.s:1538   .text:00000000000008c0 .L0 
     /tmp/cctmPoEZ.s:1539   .text:00000000000008c0 .L0 
     /tmp/cctmPoEZ.s:1541   .text:00000000000008c4 .L0 
     /tmp/cctmPoEZ.s:1544   .text:00000000000008c8 .L0 
     /tmp/cctmPoEZ.s:1547   .text:00000000000008cc .L0 
     /tmp/cctmPoEZ.s:1549   .text:00000000000008d0 .L0 
     /tmp/cctmPoEZ.s:1551   .text:00000000000008d4 .L0 
     /tmp/cctmPoEZ.s:1555   .text:00000000000008d8 .L0 
     /tmp/cctmPoEZ.s:1557   .text:00000000000008d8 .L0 
     /tmp/cctmPoEZ.s:1558   .text:00000000000008d8 .L0 
     /tmp/cctmPoEZ.s:1563   .text:00000000000008e8 .L0 
     /tmp/cctmPoEZ.s:1564   .text:00000000000008e8 .L0 
     /tmp/cctmPoEZ.s:1566   .text:00000000000008ec .L0 
     /tmp/cctmPoEZ.s:1569   .text:00000000000008f4 .L0 
     /tmp/cctmPoEZ.s:1570   .text:00000000000008f4 .L0 
     /tmp/cctmPoEZ.s:1574   .text:0000000000000900 .L0 
     /tmp/cctmPoEZ.s:1576   .text:0000000000000904 .L0 
     /tmp/cctmPoEZ.s:1577   .text:0000000000000904 .L0 
     /tmp/cctmPoEZ.s:1584   .text:0000000000000918 .L0 
     /tmp/cctmPoEZ.s:1585   .text:0000000000000918 .L0 
     /tmp/cctmPoEZ.s:1590   .text:0000000000000928 .L0 
     /tmp/cctmPoEZ.s:1591   .text:0000000000000928 .L0 
     /tmp/cctmPoEZ.s:1593   .text:000000000000092c .L0 
     /tmp/cctmPoEZ.s:1598   .text:0000000000000938 .L0 
     /tmp/cctmPoEZ.s:1599   .text:0000000000000938 .L0 
     /tmp/cctmPoEZ.s:1600   .text:0000000000000938 .L0 
     /tmp/cctmPoEZ.s:1601   .text:0000000000000938 .L0 
     /tmp/cctmPoEZ.s:1602   .text:0000000000000938 .L0 
     /tmp/cctmPoEZ.s:1603   .text:0000000000000938 .L0 
     /tmp/cctmPoEZ.s:1604   .text:0000000000000938 .L0 
     /tmp/cctmPoEZ.s:1606   .text:000000000000093c .L0 
     /tmp/cctmPoEZ.s:1612   .text:000000000000093c _Z16kmem_cache_allocP12kmem_cache_s
     /tmp/cctmPoEZ.s:1615   .text:000000000000093c .L0 
     /tmp/cctmPoEZ.s:1617   .text:000000000000093c .L0 
     /tmp/cctmPoEZ.s:1618   .text:0000000000000940 .L0 
     /tmp/cctmPoEZ.s:1623   .text:0000000000000950 .L0 
     /tmp/cctmPoEZ.s:1624   .text:0000000000000950 .L0 
GAS LISTING /tmp/cctmPoEZ.s 			page 94


     /tmp/cctmPoEZ.s:1625   .text:0000000000000950 .L0 
     /tmp/cctmPoEZ.s:1626   .text:0000000000000950 .L0 
     /tmp/cctmPoEZ.s:1628   .text:0000000000000954 .L0 
     /tmp/cctmPoEZ.s:1631   .text:0000000000000958 .L0 
     /tmp/cctmPoEZ.s:1634   .text:000000000000095c .L0 
     /tmp/cctmPoEZ.s:1635   .text:000000000000095c .L0 
     /tmp/cctmPoEZ.s:1638   .text:0000000000000960 .L0 
     /tmp/cctmPoEZ.s:1643   .text:0000000000000964 .L0 
     /tmp/cctmPoEZ.s:1644   .text:0000000000000964 .L0 
     /tmp/cctmPoEZ.s:1646   .text:0000000000000968 .L0 
     /tmp/cctmPoEZ.s:1649   .text:000000000000096c .L0 
     /tmp/cctmPoEZ.s:1650   .text:000000000000096c .L0 
     /tmp/cctmPoEZ.s:1655   .text:0000000000000978 .L0 
     /tmp/cctmPoEZ.s:1656   .text:0000000000000978 .L0 
     /tmp/cctmPoEZ.s:1661   .text:0000000000000984 .L0 
     /tmp/cctmPoEZ.s:1663   .text:0000000000000988 .L0 
     /tmp/cctmPoEZ.s:1664   .text:0000000000000988 .L0 
     /tmp/cctmPoEZ.s:1668   .text:0000000000000994 .L0 
     /tmp/cctmPoEZ.s:1669   .text:0000000000000994 .L0 
     /tmp/cctmPoEZ.s:1673   .text:00000000000009a0 .L0 
     /tmp/cctmPoEZ.s:1675   .text:00000000000009a4 .L0 
     /tmp/cctmPoEZ.s:1676   .text:00000000000009a4 .L0 
     /tmp/cctmPoEZ.s:1680   .text:00000000000009b0 .L0 
     /tmp/cctmPoEZ.s:1681   .text:00000000000009b0 .L0 
     /tmp/cctmPoEZ.s:1688   .text:00000000000009b4 .L0 
     /tmp/cctmPoEZ.s:1689   .text:00000000000009b4 .L0 
     /tmp/cctmPoEZ.s:1694   .text:00000000000009c0 .L0 
     /tmp/cctmPoEZ.s:1695   .text:00000000000009c0 .L0 
     /tmp/cctmPoEZ.s:1700   .text:00000000000009cc .L0 
     /tmp/cctmPoEZ.s:1706   .text:00000000000009d0 .L0 
     /tmp/cctmPoEZ.s:1708   .text:00000000000009d8 .L0 
     /tmp/cctmPoEZ.s:1709   .text:00000000000009d8 .L0 
     /tmp/cctmPoEZ.s:1711   .text:00000000000009dc .L0 
     /tmp/cctmPoEZ.s:1712   .text:00000000000009dc .L0 
     /tmp/cctmPoEZ.s:1714   .text:00000000000009e0 .L0 
     /tmp/cctmPoEZ.s:1717   .text:00000000000009e4 .L0 
     /tmp/cctmPoEZ.s:1719   .text:00000000000009e8 .L0 
     /tmp/cctmPoEZ.s:1723   .text:00000000000009ec .L0 
     /tmp/cctmPoEZ.s:1727   .text:00000000000009ec .L0 
     /tmp/cctmPoEZ.s:1728   .text:00000000000009ec .L0 
     /tmp/cctmPoEZ.s:1732   .text:00000000000009f8 .L0 
     /tmp/cctmPoEZ.s:1733   .text:00000000000009f8 .L0 
     /tmp/cctmPoEZ.s:1740   .text:00000000000009fc .L0 
     /tmp/cctmPoEZ.s:1741   .text:00000000000009fc .L0 
     /tmp/cctmPoEZ.s:1745   .text:0000000000000a08 .L0 
     /tmp/cctmPoEZ.s:1746   .text:0000000000000a08 .L0 
     /tmp/cctmPoEZ.s:1748   .text:0000000000000a0c .L0 
     /tmp/cctmPoEZ.s:1750   .text:0000000000000a10 .L0 
     /tmp/cctmPoEZ.s:1751   .text:0000000000000a10 .L0 
     /tmp/cctmPoEZ.s:1757   .text:0000000000000a20 .L0 
     /tmp/cctmPoEZ.s:1758   .text:0000000000000a20 .L0 
     /tmp/cctmPoEZ.s:1763   .text:0000000000000a2c .L0 
     /tmp/cctmPoEZ.s:1765   .text:0000000000000a30 .L0 
     /tmp/cctmPoEZ.s:1766   .text:0000000000000a30 .L0 
     /tmp/cctmPoEZ.s:1770   .text:0000000000000a3c .L0 
     /tmp/cctmPoEZ.s:1771   .text:0000000000000a3c .L0 
     /tmp/cctmPoEZ.s:1775   .text:0000000000000a48 .L0 
GAS LISTING /tmp/cctmPoEZ.s 			page 95


     /tmp/cctmPoEZ.s:1777   .text:0000000000000a4c .L0 
     /tmp/cctmPoEZ.s:1778   .text:0000000000000a4c .L0 
     /tmp/cctmPoEZ.s:1782   .text:0000000000000a58 .L0 
     /tmp/cctmPoEZ.s:1783   .text:0000000000000a58 .L0 
     /tmp/cctmPoEZ.s:1787   .text:0000000000000a5c .L0 
     /tmp/cctmPoEZ.s:1788   .text:0000000000000a5c .L0 
     /tmp/cctmPoEZ.s:1792   .text:0000000000000a68 .L0 
     /tmp/cctmPoEZ.s:1793   .text:0000000000000a68 .L0 
     /tmp/cctmPoEZ.s:1799   .text:0000000000000a6c .L0 
     /tmp/cctmPoEZ.s:1801   .text:0000000000000a74 .L0 
     /tmp/cctmPoEZ.s:1807   .text:0000000000000a74 _Z17kmem_cache_createPKcmPFvPvES3_
     /tmp/cctmPoEZ.s:1810   .text:0000000000000a74 .L0 
     /tmp/cctmPoEZ.s:1812   .text:0000000000000a74 .L0 
     /tmp/cctmPoEZ.s:1813   .text:0000000000000a78 .L0 
     /tmp/cctmPoEZ.s:1821   .text:0000000000000a94 .L0 
     /tmp/cctmPoEZ.s:1822   .text:0000000000000a94 .L0 
     /tmp/cctmPoEZ.s:1823   .text:0000000000000a94 .L0 
     /tmp/cctmPoEZ.s:1824   .text:0000000000000a94 .L0 
     /tmp/cctmPoEZ.s:1825   .text:0000000000000a94 .L0 
     /tmp/cctmPoEZ.s:1826   .text:0000000000000a94 .L0 
     /tmp/cctmPoEZ.s:1827   .text:0000000000000a94 .L0 
     /tmp/cctmPoEZ.s:1829   .text:0000000000000a98 .L0 
     /tmp/cctmPoEZ.s:1835   .text:0000000000000aa8 .L0 
     /tmp/cctmPoEZ.s:1836   .text:0000000000000aa8 .L0 
     /tmp/cctmPoEZ.s:1844   .text:0000000000000ac0 .L0 
     /tmp/cctmPoEZ.s:1846   .text:0000000000000ac4 .L0 
     /tmp/cctmPoEZ.s:1847   .text:0000000000000ac4 .L0 
     /tmp/cctmPoEZ.s:1860   .text:0000000000000af0 .L0 
     /tmp/cctmPoEZ.s:1861   .text:0000000000000af0 .L0 
     /tmp/cctmPoEZ.s:1863   .text:0000000000000af8 .L0 
     /tmp/cctmPoEZ.s:1865   .text:0000000000000afc .L0 
     /tmp/cctmPoEZ.s:1866   .text:0000000000000afc .L0 
     /tmp/cctmPoEZ.s:1868   .text:0000000000000b00 .L0 
     /tmp/cctmPoEZ.s:1871   .text:0000000000000b04 .L0 
     /tmp/cctmPoEZ.s:1874   .text:0000000000000b08 .L0 
     /tmp/cctmPoEZ.s:1877   .text:0000000000000b0c .L0 
     /tmp/cctmPoEZ.s:1880   .text:0000000000000b10 .L0 
     /tmp/cctmPoEZ.s:1883   .text:0000000000000b14 .L0 
     /tmp/cctmPoEZ.s:1885   .text:0000000000000b18 .L0 
     /tmp/cctmPoEZ.s:1896   .text:0000000000000b18 _Z9kmem_initPvi
     /tmp/cctmPoEZ.s:1899   .text:0000000000000b18 .L0 
     /tmp/cctmPoEZ.s:1901   .text:0000000000000b18 .L0 
     /tmp/cctmPoEZ.s:1902   .text:0000000000000b1c .L0 
     /tmp/cctmPoEZ.s:1906   .text:0000000000000b28 .L0 
     /tmp/cctmPoEZ.s:1907   .text:0000000000000b28 .L0 
     /tmp/cctmPoEZ.s:1908   .text:0000000000000b28 .L0 
     /tmp/cctmPoEZ.s:1910   .text:0000000000000b2c .L0 
     /tmp/cctmPoEZ.s:1912   .text:0000000000000b2c .L0 
     /tmp/cctmPoEZ.s:1913   .text:0000000000000b2c .L0 
     /tmp/cctmPoEZ.s:1916   .text:0000000000000b34 .L0 
     /tmp/cctmPoEZ.s:1917   .text:0000000000000b34 .L0 
     /tmp/cctmPoEZ.s:1920   .text:0000000000000b3c .L0 
     /tmp/cctmPoEZ.s:1923   .text:0000000000000b48 .L0 
     /tmp/cctmPoEZ.s:1924   .text:0000000000000b48 .L0 
     /tmp/cctmPoEZ.s:1931   .text:0000000000000b64 .L0 
     /tmp/cctmPoEZ.s:1933   .text:0000000000000b68 .L0 
     /tmp/cctmPoEZ.s:1934   .text:0000000000000b6c .L0 
GAS LISTING /tmp/cctmPoEZ.s 			page 96


     /tmp/cctmPoEZ.s:1936   .text:0000000000000b70 .L0 
     /tmp/cctmPoEZ.s:1937   .text:0000000000000b70 .L0 
     /tmp/cctmPoEZ.s:1939   .text:0000000000000b74 .L0 
     /tmp/cctmPoEZ.s:1941   .text:0000000000000b78 .L0 
     /tmp/cctmPoEZ.s:1943   .text:0000000000000b7c .L0 
     /tmp/cctmPoEZ.s:1949   .text:0000000000000b7c _Z15kmem_cache_freeP12kmem_cache_sPv
     /tmp/cctmPoEZ.s:1952   .text:0000000000000b7c .L0 
     /tmp/cctmPoEZ.s:1954   .text:0000000000000b7c .L0 
     /tmp/cctmPoEZ.s:1955   .text:0000000000000b7c .L0 
     /tmp/cctmPoEZ.s:1957   .text:0000000000000b80 .L0 
     /tmp/cctmPoEZ.s:1958   .text:0000000000000b84 .L0 
     /tmp/cctmPoEZ.s:1962   .text:0000000000000b90 .L0 
     /tmp/cctmPoEZ.s:1963   .text:0000000000000b90 .L0 
     /tmp/cctmPoEZ.s:1964   .text:0000000000000b90 .L0 
     /tmp/cctmPoEZ.s:1966   .text:0000000000000b94 .L0 
     /tmp/cctmPoEZ.s:1969   .text:0000000000000b98 .L0 
     /tmp/cctmPoEZ.s:1971   .text:0000000000000b9c .L0 
     /tmp/cctmPoEZ.s:1972   .text:0000000000000b9c .L0 
     /tmp/cctmPoEZ.s:1975   .text:0000000000000ba4 .L0 
     /tmp/cctmPoEZ.s:1977   .text:0000000000000ba8 .L0 
     /tmp/cctmPoEZ.s:1978   .text:0000000000000ba8 .L0 
     /tmp/cctmPoEZ.s:1983   .text:0000000000000bb4 .L0 
     /tmp/cctmPoEZ.s:1984   .text:0000000000000bb8 .L0 
     /tmp/cctmPoEZ.s:1986   .text:0000000000000bbc .L0 
     /tmp/cctmPoEZ.s:1987   .text:0000000000000bbc .L0 
     /tmp/cctmPoEZ.s:1989   .text:0000000000000bc0 .L0 
     /tmp/cctmPoEZ.s:1992   .text:0000000000000bc4 .L0 
     /tmp/cctmPoEZ.s:1997   .text:0000000000000bcc .L0 
     /tmp/cctmPoEZ.s:2003   .text:0000000000000bcc _Z15bigCacheKmallocP12kmem_cache_s
     /tmp/cctmPoEZ.s:2006   .text:0000000000000bcc .L0 
     /tmp/cctmPoEZ.s:2008   .text:0000000000000bcc .L0 
     /tmp/cctmPoEZ.s:2009   .text:0000000000000bd0 .L0 
     /tmp/cctmPoEZ.s:2015   .text:0000000000000be4 .L0 
     /tmp/cctmPoEZ.s:2016   .text:0000000000000be4 .L0 
     /tmp/cctmPoEZ.s:2017   .text:0000000000000be4 .L0 
     /tmp/cctmPoEZ.s:2018   .text:0000000000000be4 .L0 
     /tmp/cctmPoEZ.s:2019   .text:0000000000000be4 .L0 
     /tmp/cctmPoEZ.s:2021   .text:0000000000000be8 .L0 
     /tmp/cctmPoEZ.s:2024   .text:0000000000000bec .L0 
     /tmp/cctmPoEZ.s:2027   .text:0000000000000bf0 .L0 
     /tmp/cctmPoEZ.s:2028   .text:0000000000000bf0 .L0 
     /tmp/cctmPoEZ.s:2031   .text:0000000000000bf4 .L0 
     /tmp/cctmPoEZ.s:2036   .text:0000000000000bf8 .L0 
     /tmp/cctmPoEZ.s:2037   .text:0000000000000bf8 .L0 
     /tmp/cctmPoEZ.s:2039   .text:0000000000000bfc .L0 
     /tmp/cctmPoEZ.s:2042   .text:0000000000000c00 .L0 
     /tmp/cctmPoEZ.s:2043   .text:0000000000000c00 .L0 
     /tmp/cctmPoEZ.s:2048   .text:0000000000000c0c .L0 
     /tmp/cctmPoEZ.s:2049   .text:0000000000000c0c .L0 
     /tmp/cctmPoEZ.s:2054   .text:0000000000000c18 .L0 
     /tmp/cctmPoEZ.s:2056   .text:0000000000000c1c .L0 
     /tmp/cctmPoEZ.s:2057   .text:0000000000000c1c .L0 
     /tmp/cctmPoEZ.s:2061   .text:0000000000000c28 .L0 
     /tmp/cctmPoEZ.s:2062   .text:0000000000000c28 .L0 
     /tmp/cctmPoEZ.s:2066   .text:0000000000000c34 .L0 
     /tmp/cctmPoEZ.s:2068   .text:0000000000000c38 .L0 
     /tmp/cctmPoEZ.s:2069   .text:0000000000000c38 .L0 
GAS LISTING /tmp/cctmPoEZ.s 			page 97


     /tmp/cctmPoEZ.s:2073   .text:0000000000000c44 .L0 
     /tmp/cctmPoEZ.s:2074   .text:0000000000000c44 .L0 
     /tmp/cctmPoEZ.s:2081   .text:0000000000000c48 .L0 
     /tmp/cctmPoEZ.s:2082   .text:0000000000000c48 .L0 
     /tmp/cctmPoEZ.s:2087   .text:0000000000000c54 .L0 
     /tmp/cctmPoEZ.s:2088   .text:0000000000000c54 .L0 
     /tmp/cctmPoEZ.s:2093   .text:0000000000000c60 .L0 
     /tmp/cctmPoEZ.s:2099   .text:0000000000000c64 .L0 
     /tmp/cctmPoEZ.s:2101   .text:0000000000000c6c .L0 
     /tmp/cctmPoEZ.s:2102   .text:0000000000000c6c .L0 
     /tmp/cctmPoEZ.s:2104   .text:0000000000000c70 .L0 
     /tmp/cctmPoEZ.s:2105   .text:0000000000000c70 .L0 
     /tmp/cctmPoEZ.s:2107   .text:0000000000000c74 .L0 
     /tmp/cctmPoEZ.s:2110   .text:0000000000000c78 .L0 
     /tmp/cctmPoEZ.s:2112   .text:0000000000000c7c .L0 
     /tmp/cctmPoEZ.s:2114   .text:0000000000000c80 .L0 
     /tmp/cctmPoEZ.s:2118   .text:0000000000000c84 .L0 
     /tmp/cctmPoEZ.s:2122   .text:0000000000000c84 .L0 
     /tmp/cctmPoEZ.s:2123   .text:0000000000000c84 .L0 
     /tmp/cctmPoEZ.s:2127   .text:0000000000000c90 .L0 
     /tmp/cctmPoEZ.s:2128   .text:0000000000000c90 .L0 
     /tmp/cctmPoEZ.s:2135   .text:0000000000000c94 .L0 
     /tmp/cctmPoEZ.s:2136   .text:0000000000000c94 .L0 
     /tmp/cctmPoEZ.s:2142   .text:0000000000000ca8 .L0 
     /tmp/cctmPoEZ.s:2144   .text:0000000000000cac .L0 
     /tmp/cctmPoEZ.s:2145   .text:0000000000000cac .L0 
     /tmp/cctmPoEZ.s:2147   .text:0000000000000cb0 .L0 
     /tmp/cctmPoEZ.s:2148   .text:0000000000000cb0 .L0 
     /tmp/cctmPoEZ.s:2151   .text:0000000000000cb8 .L0 
     /tmp/cctmPoEZ.s:2152   .text:0000000000000cb8 .L0 
     /tmp/cctmPoEZ.s:2154   .text:0000000000000cbc .L0 
     /tmp/cctmPoEZ.s:2155   .text:0000000000000cbc .L0 
     /tmp/cctmPoEZ.s:2157   .text:0000000000000cc0 .L0 
     /tmp/cctmPoEZ.s:2158   .text:0000000000000cc0 .L0 
     /tmp/cctmPoEZ.s:2161   .text:0000000000000cc4 .L0 
     /tmp/cctmPoEZ.s:2163   .text:0000000000000cc8 .L0 
     /tmp/cctmPoEZ.s:2169   .text:0000000000000cd8 .L0 
     /tmp/cctmPoEZ.s:2171   .text:0000000000000cdc .L0 
     /tmp/cctmPoEZ.s:2172   .text:0000000000000cdc .L0 
     /tmp/cctmPoEZ.s:2174   .text:0000000000000ce0 .L0 
     /tmp/cctmPoEZ.s:2175   .text:0000000000000ce0 .L0 
     /tmp/cctmPoEZ.s:2181   .text:0000000000000cf0 .L0 
     /tmp/cctmPoEZ.s:2182   .text:0000000000000cf0 .L0 
     /tmp/cctmPoEZ.s:2188   .text:0000000000000d00 .L0 
     /tmp/cctmPoEZ.s:2189   .text:0000000000000d00 .L0 
     /tmp/cctmPoEZ.s:2194   .text:0000000000000d0c .L0 
     /tmp/cctmPoEZ.s:2196   .text:0000000000000d10 .L0 
     /tmp/cctmPoEZ.s:2197   .text:0000000000000d10 .L0 
     /tmp/cctmPoEZ.s:2201   .text:0000000000000d1c .L0 
     /tmp/cctmPoEZ.s:2202   .text:0000000000000d1c .L0 
     /tmp/cctmPoEZ.s:2206   .text:0000000000000d28 .L0 
     /tmp/cctmPoEZ.s:2208   .text:0000000000000d2c .L0 
     /tmp/cctmPoEZ.s:2209   .text:0000000000000d2c .L0 
     /tmp/cctmPoEZ.s:2213   .text:0000000000000d38 .L0 
     /tmp/cctmPoEZ.s:2214   .text:0000000000000d38 .L0 
     /tmp/cctmPoEZ.s:2218   .text:0000000000000d3c .L0 
     /tmp/cctmPoEZ.s:2219   .text:0000000000000d3c .L0 
GAS LISTING /tmp/cctmPoEZ.s 			page 98


     /tmp/cctmPoEZ.s:2225   .text:0000000000000d50 .L0 
     /tmp/cctmPoEZ.s:2226   .text:0000000000000d50 .L0 
     /tmp/cctmPoEZ.s:2235   .text:0000000000000d58 .L0 
     /tmp/cctmPoEZ.s:2237   .text:0000000000000d60 .L0 
     /tmp/cctmPoEZ.s:2243   .text:0000000000000d60 _Z9big_kfreeP6slab_sPKv
     /tmp/cctmPoEZ.s:2246   .text:0000000000000d60 .L0 
     /tmp/cctmPoEZ.s:2248   .text:0000000000000d60 .L0 
     /tmp/cctmPoEZ.s:2249   .text:0000000000000d60 .L0 
     /tmp/cctmPoEZ.s:2251   .text:0000000000000d64 .L0 
     /tmp/cctmPoEZ.s:2253   .text:0000000000000d68 .L0 
     /tmp/cctmPoEZ.s:2254   .text:0000000000000d6c .L0 
     /tmp/cctmPoEZ.s:2260   .text:0000000000000d80 .L0 
     /tmp/cctmPoEZ.s:2261   .text:0000000000000d80 .L0 
     /tmp/cctmPoEZ.s:2262   .text:0000000000000d80 .L0 
     /tmp/cctmPoEZ.s:2263   .text:0000000000000d80 .L0 
     /tmp/cctmPoEZ.s:2264   .text:0000000000000d80 .L0 
     /tmp/cctmPoEZ.s:2266   .text:0000000000000d84 .L0 
     /tmp/cctmPoEZ.s:2268   .text:0000000000000d84 .L0 
     /tmp/cctmPoEZ.s:2269   .text:0000000000000d84 .L0 
     /tmp/cctmPoEZ.s:2272   .text:0000000000000d88 .L0 
     /tmp/cctmPoEZ.s:2273   .text:0000000000000d88 .L0 
     /tmp/cctmPoEZ.s:2276   .text:0000000000000d90 .L0 
     /tmp/cctmPoEZ.s:2277   .text:0000000000000d90 .L0 
     /tmp/cctmPoEZ.s:2284   .text:0000000000000d98 .L0 
     /tmp/cctmPoEZ.s:2285   .text:0000000000000d98 .L0 
     /tmp/cctmPoEZ.s:2286   .text:0000000000000d98 .L0 
     /tmp/cctmPoEZ.s:2288   .text:0000000000000d9c .L0 
     /tmp/cctmPoEZ.s:2291   .text:0000000000000da0 .L0 
     /tmp/cctmPoEZ.s:2292   .text:0000000000000da0 .L0 
     /tmp/cctmPoEZ.s:2294   .text:0000000000000da4 .L0 
     /tmp/cctmPoEZ.s:2296   .text:0000000000000da8 .L0 
     /tmp/cctmPoEZ.s:2301   .text:0000000000000db8 .L0 
     /tmp/cctmPoEZ.s:2302   .text:0000000000000db8 .L0 
     /tmp/cctmPoEZ.s:2307   .text:0000000000000dcc .L0 
     /tmp/cctmPoEZ.s:2312   .text:0000000000000dd0 .L0 
     /tmp/cctmPoEZ.s:2313   .text:0000000000000dd0 .L0 
     /tmp/cctmPoEZ.s:2315   .text:0000000000000dd4 .L0 
     /tmp/cctmPoEZ.s:2316   .text:0000000000000dd8 .L0 
     /tmp/cctmPoEZ.s:2318   .text:0000000000000ddc .L0 
     /tmp/cctmPoEZ.s:2319   .text:0000000000000ddc .L0 
     /tmp/cctmPoEZ.s:2321   .text:0000000000000de0 .L0 
     /tmp/cctmPoEZ.s:2324   .text:0000000000000de4 .L0 
     /tmp/cctmPoEZ.s:2326   .text:0000000000000de8 .L0 
     /tmp/cctmPoEZ.s:2329   .text:0000000000000dec .L0 
     /tmp/cctmPoEZ.s:2334   .text:0000000000000df4 .L0 
     /tmp/cctmPoEZ.s:2372   .text:0000000000000df4 _Z15kmem_cache_infoP12kmem_cache_s
     /tmp/cctmPoEZ.s:2375   .text:0000000000000df4 .L0 
     /tmp/cctmPoEZ.s:2377   .text:0000000000000df4 .L0 
     /tmp/cctmPoEZ.s:2378   .text:0000000000000df4 .L0 
     /tmp/cctmPoEZ.s:2380   .text:0000000000000df8 .L0 
     /tmp/cctmPoEZ.s:2381   .text:0000000000000dfc .L0 
     /tmp/cctmPoEZ.s:2386   .text:0000000000000e0c .L0 
     /tmp/cctmPoEZ.s:2387   .text:0000000000000e0c .L0 
     /tmp/cctmPoEZ.s:2388   .text:0000000000000e0c .L0 
     /tmp/cctmPoEZ.s:2389   .text:0000000000000e0c .L0 
     /tmp/cctmPoEZ.s:2391   .text:0000000000000e10 .L0 
     /tmp/cctmPoEZ.s:2394   .text:0000000000000e14 .L0 
GAS LISTING /tmp/cctmPoEZ.s 			page 99


     /tmp/cctmPoEZ.s:2395   .text:0000000000000e14 .L0 
     /tmp/cctmPoEZ.s:2400   .text:0000000000000e24 .L0 
     /tmp/cctmPoEZ.s:2401   .text:0000000000000e24 .L0 
     /tmp/cctmPoEZ.s:2405   .text:0000000000000e34 .L0 
     /tmp/cctmPoEZ.s:2406   .text:0000000000000e34 .L0 
     /tmp/cctmPoEZ.s:2410   .text:0000000000000e44 .L0 
     /tmp/cctmPoEZ.s:2411   .text:0000000000000e44 .L0 
     /tmp/cctmPoEZ.s:2415   .text:0000000000000e50 .L0 
     /tmp/cctmPoEZ.s:2416   .text:0000000000000e50 .L0 
     /tmp/cctmPoEZ.s:2420   .text:0000000000000e60 .L0 
     /tmp/cctmPoEZ.s:2421   .text:0000000000000e60 .L0 
     /tmp/cctmPoEZ.s:2427   .text:0000000000000e78 .L0 
     /tmp/cctmPoEZ.s:2428   .text:0000000000000e78 .L0 
     /tmp/cctmPoEZ.s:2434   .text:0000000000000e90 .L0 
     /tmp/cctmPoEZ.s:2435   .text:0000000000000e90 .L0 
     /tmp/cctmPoEZ.s:2439   .text:0000000000000ea0 .L0 
     /tmp/cctmPoEZ.s:2440   .text:0000000000000ea0 .L0 
     /tmp/cctmPoEZ.s:2444   .text:0000000000000eb0 .L0 
     /tmp/cctmPoEZ.s:2445   .text:0000000000000eb0 .L0 
     /tmp/cctmPoEZ.s:2449   .text:0000000000000eb4 .L0 
     /tmp/cctmPoEZ.s:2450   .text:0000000000000eb4 .L0 
     /tmp/cctmPoEZ.s:2452   .text:0000000000000eb8 .L0 
     /tmp/cctmPoEZ.s:2453   .text:0000000000000eb8 .L0 
     /tmp/cctmPoEZ.s:2457   .text:0000000000000ec4 .L0 
     /tmp/cctmPoEZ.s:2458   .text:0000000000000ec4 .L0 
     /tmp/cctmPoEZ.s:2461   .text:0000000000000ec8 .L0 
     /tmp/cctmPoEZ.s:2464   .text:0000000000000ecc .L0 
     /tmp/cctmPoEZ.s:2465   .text:0000000000000ecc .L0 
     /tmp/cctmPoEZ.s:2469   .text:0000000000000edc .L0 
     /tmp/cctmPoEZ.s:2470   .text:0000000000000edc .L0 
     /tmp/cctmPoEZ.s:2474   .text:0000000000000ee0 .L0 
     /tmp/cctmPoEZ.s:2475   .text:0000000000000ee0 .L0 
     /tmp/cctmPoEZ.s:2477   .text:0000000000000ee4 .L0 
     /tmp/cctmPoEZ.s:2478   .text:0000000000000ee4 .L0 
     /tmp/cctmPoEZ.s:2482   .text:0000000000000ef0 .L0 
     /tmp/cctmPoEZ.s:2483   .text:0000000000000ef0 .L0 
     /tmp/cctmPoEZ.s:2486   .text:0000000000000ef4 .L0 
     /tmp/cctmPoEZ.s:2489   .text:0000000000000ef8 .L0 
     /tmp/cctmPoEZ.s:2490   .text:0000000000000ef8 .L0 
     /tmp/cctmPoEZ.s:2494   .text:0000000000000f08 .L0 
     /tmp/cctmPoEZ.s:2495   .text:0000000000000f08 .L0 
     /tmp/cctmPoEZ.s:2499   .text:0000000000000f0c .L0 
     /tmp/cctmPoEZ.s:2500   .text:0000000000000f0c .L0 
     /tmp/cctmPoEZ.s:2502   .text:0000000000000f10 .L0 
     /tmp/cctmPoEZ.s:2503   .text:0000000000000f10 .L0 
     /tmp/cctmPoEZ.s:2507   .text:0000000000000f1c .L0 
     /tmp/cctmPoEZ.s:2508   .text:0000000000000f1c .L0 
     /tmp/cctmPoEZ.s:2511   .text:0000000000000f20 .L0 
     /tmp/cctmPoEZ.s:2514   .text:0000000000000f24 .L0 
     /tmp/cctmPoEZ.s:2515   .text:0000000000000f24 .L0 
     /tmp/cctmPoEZ.s:2519   .text:0000000000000f34 .L0 
     /tmp/cctmPoEZ.s:2520   .text:0000000000000f38 .L0 
     /tmp/cctmPoEZ.s:2522   .text:0000000000000f3c .L0 
     /tmp/cctmPoEZ.s:2523   .text:0000000000000f3c .L0 
     /tmp/cctmPoEZ.s:2525   .text:0000000000000f40 .L0 
     /tmp/cctmPoEZ.s:2528   .text:0000000000000f44 .L0 
     /tmp/cctmPoEZ.s:2531   .text:0000000000000f48 .L0 
GAS LISTING /tmp/cctmPoEZ.s 			page 100


     /tmp/cctmPoEZ.s:2536   .text:0000000000000f50 .L0 
     /tmp/cctmPoEZ.s:2559   .text:0000000000000f50 _Z22printSlabAllocatorInfov
     /tmp/cctmPoEZ.s:2562   .text:0000000000000f50 .L0 
     /tmp/cctmPoEZ.s:2563   .text:0000000000000f50 .L0 
     /tmp/cctmPoEZ.s:2564   .text:0000000000000f54 .L0 
     /tmp/cctmPoEZ.s:2568   .text:0000000000000f60 .L0 
     /tmp/cctmPoEZ.s:2569   .text:0000000000000f60 .L0 
     /tmp/cctmPoEZ.s:2570   .text:0000000000000f60 .L0 
     /tmp/cctmPoEZ.s:2572   .text:0000000000000f64 .L0 
     /tmp/cctmPoEZ.s:2574   .text:0000000000000f64 .L0 
     /tmp/cctmPoEZ.s:2575   .text:0000000000000f64 .L0 
     /tmp/cctmPoEZ.s:2579   .text:0000000000000f74 .L0 
     /tmp/cctmPoEZ.s:2580   .text:0000000000000f74 .L0 
     /tmp/cctmPoEZ.s:2584   .text:0000000000000f84 .L0 
     /tmp/cctmPoEZ.s:2585   .text:0000000000000f84 .L0 
     /tmp/cctmPoEZ.s:2592   .text:0000000000000fa4 .L0 
     /tmp/cctmPoEZ.s:2593   .text:0000000000000fa4 .L0 
     /tmp/cctmPoEZ.s:2597   .text:0000000000000fb4 .L0 
     /tmp/cctmPoEZ.s:2598   .text:0000000000000fb4 .L0 
     /tmp/cctmPoEZ.s:2600   .text:0000000000000fb8 .L0 
     /tmp/cctmPoEZ.s:2604   .text:0000000000000fc4 .L0 
     /tmp/cctmPoEZ.s:2605   .text:0000000000000fc4 .L0 
     /tmp/cctmPoEZ.s:2610   .text:0000000000000fd4 .L0 
     /tmp/cctmPoEZ.s:2611   .text:0000000000000fd4 .L0 
     /tmp/cctmPoEZ.s:2616   .text:0000000000000fdc .L0 
     /tmp/cctmPoEZ.s:2617   .text:0000000000000fdc .L0 
     /tmp/cctmPoEZ.s:2621   .text:0000000000000fe4 .L0 
     /tmp/cctmPoEZ.s:2625   .text:0000000000000fe8 .L0 
     /tmp/cctmPoEZ.s:2628   .text:0000000000000ff0 .L0 
     /tmp/cctmPoEZ.s:2629   .text:0000000000000ff0 .L0 
     /tmp/cctmPoEZ.s:2634   .text:0000000000001004 .L0 
     /tmp/cctmPoEZ.s:2639   .text:000000000000100c .L0 
     /tmp/cctmPoEZ.s:2640   .text:000000000000100c .L0 
     /tmp/cctmPoEZ.s:2644   .text:000000000000101c .L0 
     /tmp/cctmPoEZ.s:2645   .text:000000000000101c .L0 
     /tmp/cctmPoEZ.s:2648   .text:0000000000001024 .L0 
     /tmp/cctmPoEZ.s:2649   .text:0000000000001028 .L0 
     /tmp/cctmPoEZ.s:2651   .text:000000000000102c .L0 
     /tmp/cctmPoEZ.s:2652   .text:000000000000102c .L0 
     /tmp/cctmPoEZ.s:2654   .text:0000000000001030 .L0 
     /tmp/cctmPoEZ.s:2657   .text:0000000000001034 .L0 
     /tmp/cctmPoEZ.s:2659   .text:0000000000001038 .L0 
     /tmp/cctmPoEZ.s:2670   .text:0000000000001038 _Z7kmallocm
     /tmp/cctmPoEZ.s:2673   .text:0000000000001038 .L0 
     /tmp/cctmPoEZ.s:2675   .text:0000000000001038 .L0 
     /tmp/cctmPoEZ.s:2676   .text:000000000000103c .L0 
     /tmp/cctmPoEZ.s:2682   .text:0000000000001050 .L0 
     /tmp/cctmPoEZ.s:2683   .text:0000000000001050 .L0 
     /tmp/cctmPoEZ.s:2684   .text:0000000000001050 .L0 
     /tmp/cctmPoEZ.s:2685   .text:0000000000001050 .L0 
     /tmp/cctmPoEZ.s:2686   .text:0000000000001050 .L0 
     /tmp/cctmPoEZ.s:2688   .text:0000000000001054 .L0 
     /tmp/cctmPoEZ.s:2690   .text:0000000000001054 .L0 
     /tmp/cctmPoEZ.s:2691   .text:0000000000001054 .L0 
     /tmp/cctmPoEZ.s:2694   .text:000000000000105c .L0 
     /tmp/cctmPoEZ.s:2697   .text:0000000000001064 .L0 
     /tmp/cctmPoEZ.s:2700   .text:000000000000106c .L0 
GAS LISTING /tmp/cctmPoEZ.s 			page 101


     /tmp/cctmPoEZ.s:2704   .text:0000000000001074 .L0 
     /tmp/cctmPoEZ.s:2708   .text:0000000000001078 .L0 
     /tmp/cctmPoEZ.s:2709   .text:0000000000001078 .L0 
     /tmp/cctmPoEZ.s:2713   .text:0000000000001080 .L0 
     /tmp/cctmPoEZ.s:2714   .text:0000000000001080 .L0 
     /tmp/cctmPoEZ.s:2717   .text:0000000000001084 .L0 
     /tmp/cctmPoEZ.s:2718   .text:0000000000001084 .L0 
     /tmp/cctmPoEZ.s:2721   .text:000000000000108c .L0 
     /tmp/cctmPoEZ.s:2722   .text:000000000000108c .L0 
     /tmp/cctmPoEZ.s:2727   .text:00000000000010a0 .L0 
     /tmp/cctmPoEZ.s:2730   .text:00000000000010a4 .L0 
     /tmp/cctmPoEZ.s:2731   .text:00000000000010a4 .L0 
     /tmp/cctmPoEZ.s:2742   .text:00000000000010c4 .L0 
     /tmp/cctmPoEZ.s:2744   .text:00000000000010cc .L0 
     /tmp/cctmPoEZ.s:2745   .text:00000000000010cc .L0 
     /tmp/cctmPoEZ.s:2747   .text:00000000000010d0 .L0 
     /tmp/cctmPoEZ.s:2748   .text:00000000000010d0 .L0 
     /tmp/cctmPoEZ.s:2750   .text:00000000000010d4 .L0 
     /tmp/cctmPoEZ.s:2752   .text:00000000000010d8 .L0 
     /tmp/cctmPoEZ.s:2754   .text:00000000000010dc .L0 
     /tmp/cctmPoEZ.s:2756   .text:00000000000010e0 .L0 
     /tmp/cctmPoEZ.s:2760   .text:00000000000010e4 .L0 
     /tmp/cctmPoEZ.s:2762   .text:00000000000010e4 .L0 
     /tmp/cctmPoEZ.s:2763   .text:00000000000010e4 .L0 
     /tmp/cctmPoEZ.s:2767   .text:00000000000010f0 .L0 
     /tmp/cctmPoEZ.s:2771   .text:00000000000010fc .L0 
     /tmp/cctmPoEZ.s:2772   .text:00000000000010fc .L0 
     /tmp/cctmPoEZ.s:2776   .text:000000000000110c .L0 
     /tmp/cctmPoEZ.s:2778   .text:0000000000001110 .L0 
     /tmp/cctmPoEZ.s:2779   .text:0000000000001110 .L0 
     /tmp/cctmPoEZ.s:2781   .text:0000000000001114 .L0 
     /tmp/cctmPoEZ.s:2792   .text:000000000000113c .L0 
     /tmp/cctmPoEZ.s:2793   .text:000000000000113c .L0 
     /tmp/cctmPoEZ.s:2798   .text:0000000000001150 .L0 
     /tmp/cctmPoEZ.s:2801   .text:0000000000001154 .L0 
     /tmp/cctmPoEZ.s:2802   .text:0000000000001154 .L0 
     /tmp/cctmPoEZ.s:2811   .text:0000000000001174 .L0 
     /tmp/cctmPoEZ.s:2815   .text:0000000000001178 .L0 
     /tmp/cctmPoEZ.s:2816   .text:0000000000001178 .L0 
     /tmp/cctmPoEZ.s:2820   .text:0000000000001184 .L0 
     /tmp/cctmPoEZ.s:2824   .text:0000000000001190 .L0 
     /tmp/cctmPoEZ.s:2825   .text:0000000000001190 .L0 
     /tmp/cctmPoEZ.s:2829   .text:00000000000011a0 .L0 
     /tmp/cctmPoEZ.s:2831   .text:00000000000011a4 .L0 
     /tmp/cctmPoEZ.s:2832   .text:00000000000011a4 .L0 
     /tmp/cctmPoEZ.s:2844   .text:00000000000011d8 .L0 
     /tmp/cctmPoEZ.s:2850   .text:00000000000011d8 _Z5kfreePKv
     /tmp/cctmPoEZ.s:2853   .text:00000000000011d8 .L0 
     /tmp/cctmPoEZ.s:2855   .text:00000000000011d8 .L0 
     /tmp/cctmPoEZ.s:2856   .text:00000000000011d8 .L0 
     /tmp/cctmPoEZ.s:2858   .text:00000000000011dc .L0 
     /tmp/cctmPoEZ.s:2859   .text:00000000000011e0 .L0 
     /tmp/cctmPoEZ.s:2865   .text:00000000000011f4 .L0 
     /tmp/cctmPoEZ.s:2866   .text:00000000000011f4 .L0 
     /tmp/cctmPoEZ.s:2867   .text:00000000000011f4 .L0 
     /tmp/cctmPoEZ.s:2868   .text:00000000000011f4 .L0 
     /tmp/cctmPoEZ.s:2869   .text:00000000000011f4 .L0 
GAS LISTING /tmp/cctmPoEZ.s 			page 102


     /tmp/cctmPoEZ.s:2871   .text:00000000000011f8 .L0 
     /tmp/cctmPoEZ.s:2875   .text:00000000000011fc .L0 
     /tmp/cctmPoEZ.s:2878   .text:0000000000001200 .L0 
     /tmp/cctmPoEZ.s:2883   .text:0000000000001204 .L0 
     /tmp/cctmPoEZ.s:2886   .text:000000000000120c .L0 
     /tmp/cctmPoEZ.s:2887   .text:000000000000120c .L0 
     /tmp/cctmPoEZ.s:2897   .text:0000000000001230 .L0 
     /tmp/cctmPoEZ.s:2899   .text:0000000000001234 .L0 
     /tmp/cctmPoEZ.s:2904   .text:000000000000123c .L0 
     /tmp/cctmPoEZ.s:2905   .text:000000000000123c .L0 
     /tmp/cctmPoEZ.s:2908   .text:0000000000001240 .L0 
     /tmp/cctmPoEZ.s:2913   .text:0000000000001244 .L0 
     /tmp/cctmPoEZ.s:2917   .text:0000000000001248 .L0 
     /tmp/cctmPoEZ.s:2918   .text:0000000000001248 .L0 
     /tmp/cctmPoEZ.s:2919   .text:0000000000001248 .L0 
     /tmp/cctmPoEZ.s:2922   .text:000000000000124c .L0 
     /tmp/cctmPoEZ.s:2924   .text:0000000000001250 .L0 
     /tmp/cctmPoEZ.s:2928   .text:0000000000001258 .L0 
     /tmp/cctmPoEZ.s:2930   .text:000000000000125c .L0 
     /tmp/cctmPoEZ.s:2934   .text:0000000000001264 .L0 
     /tmp/cctmPoEZ.s:2935   .text:0000000000001268 .L0 
     /tmp/cctmPoEZ.s:2936   .text:0000000000001268 .L0 
     /tmp/cctmPoEZ.s:2938   .text:000000000000126c .L0 
     /tmp/cctmPoEZ.s:2939   .text:000000000000126c .L0 
     /tmp/cctmPoEZ.s:2941   .text:0000000000001270 .L0 
     /tmp/cctmPoEZ.s:2944   .text:0000000000001274 .L0 
     /tmp/cctmPoEZ.s:2947   .text:0000000000001278 .L0 
     /tmp/cctmPoEZ.s:2950   .text:000000000000127c .L0 
     /tmp/cctmPoEZ.s:2954   .text:0000000000001280 .L0 
     /tmp/cctmPoEZ.s:2956   .text:0000000000001280 .L0 
     /tmp/cctmPoEZ.s:2957   .text:0000000000001280 .L0 
     /tmp/cctmPoEZ.s:2962   .text:0000000000001290 .L0 
     /tmp/cctmPoEZ.s:2963   .text:0000000000001290 .L0 
     /tmp/cctmPoEZ.s:2965   .text:0000000000001294 .L0 
     /tmp/cctmPoEZ.s:2971   .text:00000000000012a4 .L0 
     /tmp/cctmPoEZ.s:2972   .text:00000000000012a4 .L0 
     /tmp/cctmPoEZ.s:2979   .text:00000000000012b8 .L0 
     /tmp/cctmPoEZ.s:2980   .text:00000000000012b8 .L0 
     /tmp/cctmPoEZ.s:2981   .text:00000000000012b8 .L0 
     /tmp/cctmPoEZ.s:2982   .text:00000000000012b8 .L0 
     /tmp/cctmPoEZ.s:2983   .text:00000000000012b8 .L0 
     /tmp/cctmPoEZ.s:2984   .text:00000000000012b8 .L0 
     /tmp/cctmPoEZ.s:2986   .text:00000000000012bc .L0 
     /tmp/cctmPoEZ.s:2992   .text:00000000000012bc _Z18kmem_cache_destroyP12kmem_cache_s
     /tmp/cctmPoEZ.s:2995   .text:00000000000012bc .L0 
     /tmp/cctmPoEZ.s:2997   .text:00000000000012bc .L0 
     /tmp/cctmPoEZ.s:2998   .text:00000000000012c0 .L0 
     /tmp/cctmPoEZ.s:3002   .text:00000000000012cc .L0 
     /tmp/cctmPoEZ.s:3003   .text:00000000000012cc .L0 
     /tmp/cctmPoEZ.s:3004   .text:00000000000012cc .L0 
     /tmp/cctmPoEZ.s:3006   .text:00000000000012d0 .L0 
     /tmp/cctmPoEZ.s:3009   .text:00000000000012d4 .L0 
     /tmp/cctmPoEZ.s:3010   .text:00000000000012d4 .L0 
     /tmp/cctmPoEZ.s:3012   .text:00000000000012d8 .L0 
     /tmp/cctmPoEZ.s:3015   .text:00000000000012dc .L0 
     /tmp/cctmPoEZ.s:3016   .text:00000000000012dc .L0 
     /tmp/cctmPoEZ.s:3022   .text:00000000000012e8 .L0 
GAS LISTING /tmp/cctmPoEZ.s 			page 103


     /tmp/cctmPoEZ.s:3023   .text:00000000000012e8 .L0 
     /tmp/cctmPoEZ.s:3024   .text:00000000000012ec .L0 
     /tmp/cctmPoEZ.s:3025   .text:00000000000012ec .L0 
     /tmp/cctmPoEZ.s:3027   .text:00000000000012f0 .L0 
     /tmp/cctmPoEZ.s:3028   .text:00000000000012f0 .L0 
     /tmp/cctmPoEZ.s:3030   .text:00000000000012f4 .L0 
     /tmp/cctmPoEZ.s:3033   .text:00000000000012f8 .L0 
     /tmp/cctmPoEZ.s:3037   .text:00000000000012fc .L0 
     /tmp/cctmPoEZ.s:3039   .text:00000000000012fc .L0 
     /tmp/cctmPoEZ.s:3041   .text:0000000000001300 .L0 
     /tmp/cctmPoEZ.s:3043   .text:0000000000001304 .L0 
     /tmp/cctmPoEZ.s:3044   .text:0000000000001304 .L0 
     /tmp/cctmPoEZ.s:3048   .text:0000000000001310 .L0 
     /tmp/cctmPoEZ.s:3049   .text:0000000000001310 .L0 
     /tmp/cctmPoEZ.s:3053   .text:000000000000131c .L0 
     /tmp/cctmPoEZ.s:3054   .text:000000000000131c .L0 
     /tmp/cctmPoEZ.s:3058   .text:0000000000001328 .L0 
     /tmp/cctmPoEZ.s:3059   .text:0000000000001328 .L0 
     /tmp/cctmPoEZ.s:3065   .text:0000000000001344 .L0 
     /tmp/cctmPoEZ.s:3071   .text:0000000000001344 _Z17kmem_cache_shrinkP12kmem_cache_s
     /tmp/cctmPoEZ.s:3074   .text:0000000000001344 .L0 
     /tmp/cctmPoEZ.s:3076   .text:0000000000001344 .L0 
     /tmp/cctmPoEZ.s:3077   .text:0000000000001344 .L0 
     /tmp/cctmPoEZ.s:3079   .text:0000000000001348 .L0 
     /tmp/cctmPoEZ.s:3080   .text:000000000000134c .L0 
     /tmp/cctmPoEZ.s:3083   .text:0000000000001354 .L0 
     /tmp/cctmPoEZ.s:3084   .text:0000000000001354 .L0 
     /tmp/cctmPoEZ.s:3086   .text:0000000000001358 .L0 
     /tmp/cctmPoEZ.s:3088   .text:0000000000001358 .L0 
     /tmp/cctmPoEZ.s:3089   .text:0000000000001358 .L0 
     /tmp/cctmPoEZ.s:3094   .text:0000000000001364 .L0 
     /tmp/cctmPoEZ.s:3095   .text:0000000000001364 .L0 
     /tmp/cctmPoEZ.s:3096   .text:0000000000001368 .L0 
     /tmp/cctmPoEZ.s:3098   .text:000000000000136c .L0 
     /tmp/cctmPoEZ.s:3099   .text:000000000000136c .L0 
     /tmp/cctmPoEZ.s:3101   .text:0000000000001370 .L0 
     /tmp/cctmPoEZ.s:3106   .text:0000000000001374 .L0 
     /tmp/cctmPoEZ.s:3109   .text:0000000000001378 .L0 
     /tmp/cctmPoEZ.s:3110   .text:000000000000137c .L0 
     /tmp/cctmPoEZ.s:3116   .text:000000000000137c _Z21shrink_caches_on_slabP6slab_s
     /tmp/cctmPoEZ.s:3119   .text:000000000000137c .L0 
     /tmp/cctmPoEZ.s:3121   .text:000000000000137c .L0 
     /tmp/cctmPoEZ.s:3122   .text:0000000000001380 .L0 
     /tmp/cctmPoEZ.s:3127   .text:0000000000001390 .L0 
     /tmp/cctmPoEZ.s:3128   .text:0000000000001390 .L0 
     /tmp/cctmPoEZ.s:3129   .text:0000000000001390 .L0 
     /tmp/cctmPoEZ.s:3130   .text:0000000000001390 .L0 
     /tmp/cctmPoEZ.s:3132   .text:0000000000001394 .L0 
     /tmp/cctmPoEZ.s:3137   .text:0000000000001398 .L0 
     /tmp/cctmPoEZ.s:3138   .text:0000000000001398 .L0 
     /tmp/cctmPoEZ.s:3145   .text:00000000000013a0 .L0 
     /tmp/cctmPoEZ.s:3146   .text:00000000000013a0 .L0 
     /tmp/cctmPoEZ.s:3148   .text:00000000000013a4 .L0 
     /tmp/cctmPoEZ.s:3150   .text:00000000000013a8 .L0 
     /tmp/cctmPoEZ.s:3152   .text:00000000000013ac .L0 
     /tmp/cctmPoEZ.s:3155   .text:00000000000013b0 .L0 
     /tmp/cctmPoEZ.s:3156   .text:00000000000013b0 .L0 
GAS LISTING /tmp/cctmPoEZ.s 			page 104


     /tmp/cctmPoEZ.s:3164   .text:00000000000013bc .L0 
     /tmp/cctmPoEZ.s:3168   .text:00000000000013c0 .L0 
     /tmp/cctmPoEZ.s:3169   .text:00000000000013c0 .L0 
     /tmp/cctmPoEZ.s:3171   .text:00000000000013c4 .L0 
     /tmp/cctmPoEZ.s:3176   .text:00000000000013c8 .L0 
     /tmp/cctmPoEZ.s:3177   .text:00000000000013c8 .L0 
     /tmp/cctmPoEZ.s:3182   .text:00000000000013d8 .L0 
     /tmp/cctmPoEZ.s:3188   .text:00000000000013e0 .L0 
     /tmp/cctmPoEZ.s:3189   .text:00000000000013e4 .L0 
     /tmp/cctmPoEZ.s:3191   .text:00000000000013e8 .L0 
     /tmp/cctmPoEZ.s:3192   .text:00000000000013e8 .L0 
     /tmp/cctmPoEZ.s:3194   .text:00000000000013ec .L0 
     /tmp/cctmPoEZ.s:3197   .text:00000000000013f0 .L0 
     /tmp/cctmPoEZ.s:3200   .text:00000000000013f4 .L0 
     /tmp/cctmPoEZ.s:3202   .text:00000000000013f8 .L0 
     /tmp/cctmPoEZ.s:3208   .text:00000000000013f8 _Z17shrink_all_cachesv
     /tmp/cctmPoEZ.s:3211   .text:00000000000013f8 .L0 
     /tmp/cctmPoEZ.s:3212   .text:00000000000013f8 .L0 
     /tmp/cctmPoEZ.s:3213   .text:00000000000013fc .L0 
     /tmp/cctmPoEZ.s:3219   .text:0000000000001410 .L0 
     /tmp/cctmPoEZ.s:3220   .text:0000000000001410 .L0 
     /tmp/cctmPoEZ.s:3221   .text:0000000000001410 .L0 
     /tmp/cctmPoEZ.s:3222   .text:0000000000001410 .L0 
     /tmp/cctmPoEZ.s:3223   .text:0000000000001410 .L0 
     /tmp/cctmPoEZ.s:3225   .text:0000000000001414 .L0 
     /tmp/cctmPoEZ.s:3227   .text:0000000000001414 .L0 
     /tmp/cctmPoEZ.s:3228   .text:0000000000001414 .L0 
     /tmp/cctmPoEZ.s:3230   .text:000000000000141c .L0 
     /tmp/cctmPoEZ.s:3233   .text:0000000000001420 .L0 
     /tmp/cctmPoEZ.s:3234   .text:0000000000001420 .L0 
     /tmp/cctmPoEZ.s:3238   .text:0000000000001424 .L0 
     /tmp/cctmPoEZ.s:3239   .text:0000000000001424 .L0 
     /tmp/cctmPoEZ.s:3241   .text:0000000000001428 .L0 
     /tmp/cctmPoEZ.s:3242   .text:0000000000001428 .L0 
     /tmp/cctmPoEZ.s:3246   .text:0000000000001434 .L0 
     /tmp/cctmPoEZ.s:3247   .text:0000000000001434 .L0 
     /tmp/cctmPoEZ.s:3250   .text:0000000000001438 .L0 
     /tmp/cctmPoEZ.s:3253   .text:000000000000143c .L0 
     /tmp/cctmPoEZ.s:3254   .text:000000000000143c .L0 
     /tmp/cctmPoEZ.s:3258   .text:0000000000001440 .L0 
     /tmp/cctmPoEZ.s:3259   .text:0000000000001440 .L0 
     /tmp/cctmPoEZ.s:3261   .text:0000000000001444 .L0 
     /tmp/cctmPoEZ.s:3262   .text:0000000000001444 .L0 
     /tmp/cctmPoEZ.s:3266   .text:0000000000001450 .L0 
     /tmp/cctmPoEZ.s:3267   .text:0000000000001450 .L0 
     /tmp/cctmPoEZ.s:3270   .text:0000000000001454 .L0 
     /tmp/cctmPoEZ.s:3273   .text:0000000000001458 .L0 
     /tmp/cctmPoEZ.s:3274   .text:0000000000001458 .L0 
     /tmp/cctmPoEZ.s:3278   .text:0000000000001464 .L0 
     /tmp/cctmPoEZ.s:3279   .text:0000000000001468 .L0 
     /tmp/cctmPoEZ.s:3281   .text:000000000000146c .L0 
     /tmp/cctmPoEZ.s:3282   .text:000000000000146c .L0 
     /tmp/cctmPoEZ.s:3284   .text:0000000000001470 .L0 
     /tmp/cctmPoEZ.s:3287   .text:0000000000001474 .L0 
     /tmp/cctmPoEZ.s:3289   .text:0000000000001478 .L0 
     /tmp/cctmPoEZ.s:3292   .text:000000000000147c .L0 
     /tmp/cctmPoEZ.s:3294   .text:0000000000001480 .L0 
GAS LISTING /tmp/cctmPoEZ.s 			page 105


     /tmp/cctmPoEZ.s:3308   .text:0000000000001480 _Z16kmem_cache_errorP12kmem_cache_s
     /tmp/cctmPoEZ.s:3311   .text:0000000000001480 .L0 
     /tmp/cctmPoEZ.s:3313   .text:0000000000001480 .L0 
     /tmp/cctmPoEZ.s:3314   .text:0000000000001480 .L0 
     /tmp/cctmPoEZ.s:3316   .text:0000000000001484 .L0 
     /tmp/cctmPoEZ.s:3317   .text:0000000000001488 .L0 
     /tmp/cctmPoEZ.s:3321   .text:0000000000001494 .L0 
     /tmp/cctmPoEZ.s:3322   .text:0000000000001494 .L0 
     /tmp/cctmPoEZ.s:3323   .text:0000000000001494 .L0 
     /tmp/cctmPoEZ.s:3325   .text:0000000000001498 .L0 
     /tmp/cctmPoEZ.s:3328   .text:000000000000149c .L0 
     /tmp/cctmPoEZ.s:3329   .text:000000000000149c .L0 
     /tmp/cctmPoEZ.s:3331   .text:00000000000014a0 .L0 
     /tmp/cctmPoEZ.s:3333   .text:00000000000014a4 .L0 
     /tmp/cctmPoEZ.s:3337   .text:00000000000014a8 .L0 
     /tmp/cctmPoEZ.s:3338   .text:00000000000014a8 .L0 
     /tmp/cctmPoEZ.s:3340   .text:00000000000014ac .L0 
     /tmp/cctmPoEZ.s:3342   .text:00000000000014b0 .L0 
     /tmp/cctmPoEZ.s:3345   .text:00000000000014b4 .L0 
     /tmp/cctmPoEZ.s:3346   .text:00000000000014b4 .L0 
     /tmp/cctmPoEZ.s:3348   .text:00000000000014b8 .L0 
     /tmp/cctmPoEZ.s:3349   .text:00000000000014b8 .L0 
     /tmp/cctmPoEZ.s:3351   .text:00000000000014c0 .L0 
     /tmp/cctmPoEZ.s:3352   .text:00000000000014c0 .L0 
     /tmp/cctmPoEZ.s:3354   .text:00000000000014c4 .L0 
     /tmp/cctmPoEZ.s:3355   .text:00000000000014c4 .L0 
     /tmp/cctmPoEZ.s:3357   .text:00000000000014c8 .L0 
     /tmp/cctmPoEZ.s:3360   .text:00000000000014cc .L0 
     /tmp/cctmPoEZ.s:3364   .text:00000000000014d0 .L0 
     /tmp/cctmPoEZ.s:3366   .text:00000000000014d0 .L0 
     /tmp/cctmPoEZ.s:3367   .text:00000000000014d0 .L0 
     /tmp/cctmPoEZ.s:3373   .text:00000000000014e4 .L0 
     /tmp/cctmPoEZ.s:3374   .text:00000000000014e4 .L0 
     /tmp/cctmPoEZ.s:3380   .text:00000000000014f8 .L0 
     /tmp/cctmPoEZ.s:3381   .text:00000000000014f8 .L0 
     /tmp/cctmPoEZ.s:3382   .text:00000000000014f8 .L0 
     /tmp/cctmPoEZ.s:3383   .text:00000000000014f8 .L0 
     /tmp/cctmPoEZ.s:3385   .text:00000000000014f8 .L0 
     /tmp/cctmPoEZ.s:3388   .text:0000000000001500 .L0 
     /tmp/cctmPoEZ.s:3393   .bss:0000000000000000 .LANCHOR0
     /tmp/cctmPoEZ.s:3396   .bss:0000000000000000 _ZL13slabAllocator
     /tmp/cctmPoEZ.s:3400   .bss:0000000000000008 _ZL12cacheOfSlabs
     /tmp/cctmPoEZ.s:3410   .text:0000000000001500 .L0 
     /tmp/cctmPoEZ.s:239    .rodata.str1.8:0000000000000000 .LC0
     /tmp/cctmPoEZ.s:291    .text:000000000000018c .L0 
     /tmp/cctmPoEZ.s:1344   .rodata.str1.8:0000000000000010 .LC1
     /tmp/cctmPoEZ.s:1380   .text:0000000000000784 .L0 
     /tmp/cctmPoEZ.s:1347   .rodata.str1.8:0000000000000028 .LC2
     /tmp/cctmPoEZ.s:1388   .text:000000000000079c .L0 
     /tmp/cctmPoEZ.s:1350   .rodata.str1.8:0000000000000038 .LC3
     /tmp/cctmPoEZ.s:1395   .text:00000000000007b4 .L0 
     /tmp/cctmPoEZ.s:1353   .rodata.str1.8:0000000000000058 .LC4
     /tmp/cctmPoEZ.s:1402   .text:00000000000007cc .L0 
     /tmp/cctmPoEZ.s:1356   .rodata.str1.8:0000000000000070 .LC5
     /tmp/cctmPoEZ.s:1409   .text:00000000000007e4 .L0 
     /tmp/cctmPoEZ.s:1836   .text:0000000000000aa8 .L0 
     /tmp/cctmPoEZ.s:1920   .text:0000000000000b3c .L0 
GAS LISTING /tmp/cctmPoEZ.s 			page 106


     /tmp/cctmPoEZ.s:1890   .rodata.str1.8:0000000000000088 .LC6
     /tmp/cctmPoEZ.s:1927   .text:0000000000000b54 .L0 
     /tmp/cctmPoEZ.s:2136   .text:0000000000000c94 .L0 
     /tmp/cctmPoEZ.s:2220   .text:0000000000000d40 .L0 
     /tmp/cctmPoEZ.s:2303   .text:0000000000000dbc .L0 
     /tmp/cctmPoEZ.s:2339   .rodata.str1.8:0000000000000098 .LC7
     /tmp/cctmPoEZ.s:2395   .text:0000000000000e14 .L0 
     /tmp/cctmPoEZ.s:2342   .rodata.str1.8:00000000000000a0 .LC8
     /tmp/cctmPoEZ.s:2401   .text:0000000000000e24 .L0 
     /tmp/cctmPoEZ.s:2345   .rodata.str1.8:00000000000000d8 .LC9
     /tmp/cctmPoEZ.s:2406   .text:0000000000000e34 .L0 
     /tmp/cctmPoEZ.s:2348   .rodata.str1.8:00000000000000e8 .LC10
     /tmp/cctmPoEZ.s:2416   .text:0000000000000e50 .L0 
     /tmp/cctmPoEZ.s:2351   .rodata.str1.8:00000000000000f0 .LC11
     /tmp/cctmPoEZ.s:2423   .text:0000000000000e68 .L0 
     /tmp/cctmPoEZ.s:2354   .rodata.str1.8:0000000000000110 .LC12
     /tmp/cctmPoEZ.s:2430   .text:0000000000000e80 .L0 
     /tmp/cctmPoEZ.s:2357   .rodata.str1.8:0000000000000130 .LC13
     /tmp/cctmPoEZ.s:2435   .text:0000000000000e90 .L0 
     /tmp/cctmPoEZ.s:2360   .rodata.str1.8:0000000000000150 .LC14
     /tmp/cctmPoEZ.s:2440   .text:0000000000000ea0 .L0 
     /tmp/cctmPoEZ.s:2363   .rodata.str1.8:0000000000000160 .LC15
     /tmp/cctmPoEZ.s:2465   .text:0000000000000ecc .L0 
     /tmp/cctmPoEZ.s:2366   .rodata.str1.8:0000000000000170 .LC16
     /tmp/cctmPoEZ.s:2490   .text:0000000000000ef8 .L0 
     /tmp/cctmPoEZ.s:2515   .text:0000000000000f24 .L0 
     /tmp/cctmPoEZ.s:2541   .rodata.str1.8:0000000000000180 .LC17
     /tmp/cctmPoEZ.s:2575   .text:0000000000000f64 .L0 
     /tmp/cctmPoEZ.s:2544   .rodata.str1.8:0000000000000190 .LC18
     /tmp/cctmPoEZ.s:2580   .text:0000000000000f74 .L0 
     /tmp/cctmPoEZ.s:2585   .text:0000000000000f84 .L0 
     /tmp/cctmPoEZ.s:2547   .rodata.str1.8:00000000000001e0 .LC19
     /tmp/cctmPoEZ.s:2588   .text:0000000000000f94 .L0 
     /tmp/cctmPoEZ.s:2550   .rodata.str1.8:00000000000001f8 .LC20
     /tmp/cctmPoEZ.s:2593   .text:0000000000000fa4 .L0 
     /tmp/cctmPoEZ.s:2553   .rodata.str1.8:0000000000000210 .LC21
     /tmp/cctmPoEZ.s:2605   .text:0000000000000fc4 .L0 
     /tmp/cctmPoEZ.s:2630   .text:0000000000000ff4 .L0 
     /tmp/cctmPoEZ.s:2640   .text:000000000000100c .L0 
     /tmp/cctmPoEZ.s:2722   .text:000000000000108c .L0 
     /tmp/cctmPoEZ.s:2733   .text:00000000000010a8 .L0 
     /tmp/cctmPoEZ.s:2772   .text:00000000000010fc .L0 
     /tmp/cctmPoEZ.s:2664   .rodata.str1.8:0000000000000228 .LC22
     /tmp/cctmPoEZ.s:2785   .text:0000000000001124 .L0 
     /tmp/cctmPoEZ.s:2793   .text:000000000000113c .L0 
     /tmp/cctmPoEZ.s:2804   .text:0000000000001158 .L0 
     /tmp/cctmPoEZ.s:2825   .text:0000000000001190 .L0 
     /tmp/cctmPoEZ.s:2839   .text:00000000000011c0 .L0 
     /tmp/cctmPoEZ.s:2888   .text:0000000000001210 .L0 
     /tmp/cctmPoEZ.s:3060   .text:000000000000132c .L0 
     /tmp/cctmPoEZ.s:3228   .text:0000000000001414 .L0 
     /tmp/cctmPoEZ.s:3299   .rodata.str1.8:0000000000000240 .LC23
     /tmp/cctmPoEZ.s:3367   .text:00000000000014d0 .L0 
     /tmp/cctmPoEZ.s:3302   .rodata.str1.8:0000000000000250 .LC24
     /tmp/cctmPoEZ.s:3374   .text:00000000000014e4 .L0 
     /tmp/cctmPoEZ.s:41     .text:0000000000000024 .L2
     /tmp/cctmPoEZ.s:21     .text:000000000000000c .L3
GAS LISTING /tmp/cctmPoEZ.s 			page 107


     /tmp/cctmPoEZ.s:123    .text:0000000000000090 .L8
     /tmp/cctmPoEZ.s:127    .text:0000000000000094 .L6
     /tmp/cctmPoEZ.s:95     .text:000000000000006c .L7
     /tmp/cctmPoEZ.s:279    .text:0000000000000174 .L14
     /tmp/cctmPoEZ.s:270    .text:0000000000000164 .L16
     /tmp/cctmPoEZ.s:512    .text:00000000000002f0 .L26
     /tmp/cctmPoEZ.s:467    .text:00000000000002a8 .L27
     /tmp/cctmPoEZ.s:449    .text:0000000000000290 .L29
     /tmp/cctmPoEZ.s:430    .text:0000000000000268 .L25
     /tmp/cctmPoEZ.s:474    .text:00000000000002b0 .L23
     /tmp/cctmPoEZ.s:492    .text:00000000000002d0 .L21
     /tmp/cctmPoEZ.s:614    .text:0000000000000368 .L34
     /tmp/cctmPoEZ.s:610    .text:0000000000000364 .L36
     /tmp/cctmPoEZ.s:671    .text:00000000000003b0 .L44
     /tmp/cctmPoEZ.s:656    .text:000000000000039c .L42
     /tmp/cctmPoEZ.s:681    .text:00000000000003bc .L40
     /tmp/cctmPoEZ.s:662    .text:00000000000003a4 .L38
     /tmp/cctmPoEZ.s:1055   .text:00000000000005fc .L53
     /tmp/cctmPoEZ.s:959    .text:0000000000000574 .L55
     /tmp/cctmPoEZ.s:1017   .text:00000000000005c4 .L56
     /tmp/cctmPoEZ.s:1001   .text:00000000000005a8 .L57
     /tmp/cctmPoEZ.s:1029   .text:00000000000005d0 .L58
     /tmp/cctmPoEZ.s:1109   .text:0000000000000638 .L61
     /tmp/cctmPoEZ.s:1096   .text:0000000000000628 .L62
     /tmp/cctmPoEZ.s:1131   .text:0000000000000650 .L65
     /tmp/cctmPoEZ.s:1163   .text:0000000000000680 .L63
     /tmp/cctmPoEZ.s:1127   .text:000000000000064c .L64
     /tmp/cctmPoEZ.s:1235   .text:00000000000006d8 .L68
     /tmp/cctmPoEZ.s:1286   .text:0000000000000718 .L76
     /tmp/cctmPoEZ.s:1210   .text:00000000000006b4 .L72
     /tmp/cctmPoEZ.s:1246   .text:00000000000006e4 .L70
     /tmp/cctmPoEZ.s:1204   .text:00000000000006b0 .L71
     /tmp/cctmPoEZ.s:1260   .text:00000000000006f0 .L74
     /tmp/cctmPoEZ.s:1254   .text:00000000000006ec .L73
     /tmp/cctmPoEZ.s:1597   .text:0000000000000938 .L89
     /tmp/cctmPoEZ.s:1532   .text:00000000000008b8 .L82
     /tmp/cctmPoEZ.s:1499   .text:000000000000087c .L84
     /tmp/cctmPoEZ.s:1510   .text:000000000000088c .L85
     /tmp/cctmPoEZ.s:1554   .text:00000000000008d8 .L92
     /tmp/cctmPoEZ.s:1582   .text:0000000000000918 .L93
     /tmp/cctmPoEZ.s:1794   .text:0000000000000a6c .L102
     /tmp/cctmPoEZ.s:1683   .text:00000000000009b4 .L104
     /tmp/cctmPoEZ.s:1735   .text:00000000000009fc .L98
     /tmp/cctmPoEZ.s:1702   .text:00000000000009d0 .L94
     /tmp/cctmPoEZ.s:1722   .text:00000000000009ec .L105
     /tmp/cctmPoEZ.s:1785   .text:0000000000000a5c .L106
     /tmp/cctmPoEZ.s:1859   .text:0000000000000af0 .L107
     /tmp/cctmPoEZ.s:1995   .text:0000000000000bc8 .L115
     /tmp/cctmPoEZ.s:1981   .text:0000000000000bb4 .L112
     /tmp/cctmPoEZ.s:2230   .text:0000000000000d58 .L126
     /tmp/cctmPoEZ.s:2076   .text:0000000000000c48 .L128
     /tmp/cctmPoEZ.s:2130   .text:0000000000000c94 .L122
     /tmp/cctmPoEZ.s:2095   .text:0000000000000c64 .L118
     /tmp/cctmPoEZ.s:2117   .text:0000000000000c84 .L129
     /tmp/cctmPoEZ.s:2216   .text:0000000000000d3c .L130
     /tmp/cctmPoEZ.s:2332   .text:0000000000000df0 .L135
     /tmp/cctmPoEZ.s:2309   .text:0000000000000dd0 .L133
GAS LISTING /tmp/cctmPoEZ.s 			page 108


     /tmp/cctmPoEZ.s:2280   .text:0000000000000d98 .L138
     /tmp/cctmPoEZ.s:2534   .text:0000000000000f4c .L148
     /tmp/cctmPoEZ.s:2462   .text:0000000000000ecc .L141
     /tmp/cctmPoEZ.s:2447   .text:0000000000000eb4 .L142
     /tmp/cctmPoEZ.s:2487   .text:0000000000000ef8 .L143
     /tmp/cctmPoEZ.s:2472   .text:0000000000000ee0 .L144
     /tmp/cctmPoEZ.s:2512   .text:0000000000000f24 .L145
     /tmp/cctmPoEZ.s:2497   .text:0000000000000f0c .L146
     /tmp/cctmPoEZ.s:2623   .text:0000000000000fe8 .L154
     /tmp/cctmPoEZ.s:2636   .text:000000000000100c .L152
     /tmp/cctmPoEZ.s:2614   .text:0000000000000fdc .L156
     /tmp/cctmPoEZ.s:2619   .text:0000000000000fe4 .L153
     /tmp/cctmPoEZ.s:2702   .text:0000000000001074 .L163
     /tmp/cctmPoEZ.s:2706   .text:0000000000001078 .L158
     /tmp/cctmPoEZ.s:2740   .text:00000000000010c4 .L157
     /tmp/cctmPoEZ.s:2790   .text:000000000000113c .L160
     /tmp/cctmPoEZ.s:2759   .text:00000000000010e4 .L166
     /tmp/cctmPoEZ.s:2728   .text:00000000000010a4 .L161
     /tmp/cctmPoEZ.s:2813   .text:0000000000001178 .L167
     /tmp/cctmPoEZ.s:2799   .text:0000000000001154 .L162
     /tmp/cctmPoEZ.s:2978   .text:00000000000012b8 .L176
     /tmp/cctmPoEZ.s:2910   .text:0000000000001244 .L174
     /tmp/cctmPoEZ.s:2902   .text:000000000000123c .L179
     /tmp/cctmPoEZ.s:2880   .text:0000000000001204 .L172
     /tmp/cctmPoEZ.s:2915   .text:0000000000001248 .L170
     /tmp/cctmPoEZ.s:2926   .text:0000000000001258 .L173
     /tmp/cctmPoEZ.s:2953   .text:0000000000001280 .L180
     /tmp/cctmPoEZ.s:2932   .text:0000000000001264 .L168
     /tmp/cctmPoEZ.s:2969   .text:00000000000012a4 .L181
     /tmp/cctmPoEZ.s:3036   .text:00000000000012fc .L187
     /tmp/cctmPoEZ.s:3013   .text:00000000000012dc .L183
     /tmp/cctmPoEZ.s:3021   .text:00000000000012e8 .L182
     /tmp/cctmPoEZ.s:3104   .text:0000000000001374 .L190
     /tmp/cctmPoEZ.s:3166   .text:00000000000013c0 .L198
     /tmp/cctmPoEZ.s:3184   .text:00000000000013e0 .L195
     /tmp/cctmPoEZ.s:3160   .text:00000000000013bc .L197
     /tmp/cctmPoEZ.s:3141   .text:00000000000013a0 .L200
     /tmp/cctmPoEZ.s:3251   .text:000000000000143c .L202
     /tmp/cctmPoEZ.s:3236   .text:0000000000001424 .L203
     /tmp/cctmPoEZ.s:3271   .text:0000000000001458 .L204
     /tmp/cctmPoEZ.s:3256   .text:0000000000001440 .L205
     /tmp/cctmPoEZ.s:3379   .text:00000000000014f8 .L212
     /tmp/cctmPoEZ.s:3363   .text:00000000000014d0 .L215
     /tmp/cctmPoEZ.s:3371   .text:00000000000014e4 .L216
     /tmp/cctmPoEZ.s:3335   .text:00000000000014a8 .L209
     /tmp/cctmPoEZ.s:3343   .text:00000000000014b4 .L210
     /tmp/cctmPoEZ.s:7483   .debug_abbrev:0000000000000000 .Ldebug_abbrev0
     /tmp/cctmPoEZ.s:10291  .debug_str:0000000000000606 .LASF325
     /tmp/cctmPoEZ.s:10397  .debug_str:0000000000000a64 .LASF326
     /tmp/cctmPoEZ.s:10289  .debug_str:00000000000005e8 .LASF327
     /tmp/cctmPoEZ.s:5      .text:0000000000000000 .Ltext0
     /tmp/cctmPoEZ.s:3403   .text:0000000000001500 .Letext0
     /tmp/cctmPoEZ.s:10095  .debug_line:0000000000000000 .Ldebug_line0
     /tmp/cctmPoEZ.s:10329  .debug_str:000000000000083d .LASF0
     /tmp/cctmPoEZ.s:10361  .debug_str:0000000000000968 .LASF1
     /tmp/cctmPoEZ.s:10523  .debug_str:0000000000000f0d .LASF2
     /tmp/cctmPoEZ.s:10253  .debug_str:00000000000004ea .LASF3
GAS LISTING /tmp/cctmPoEZ.s 			page 109


     /tmp/cctmPoEZ.s:10539  .debug_str:0000000000000f8c .LASF4
     /tmp/cctmPoEZ.s:10343  .debug_str:00000000000008af .LASF5
     /tmp/cctmPoEZ.s:10117  .debug_str:00000000000000be .LASF6
     /tmp/cctmPoEZ.s:10469  .debug_str:0000000000000d0b .LASF7
     /tmp/cctmPoEZ.s:10353  .debug_str:0000000000000919 .LASF8
     /tmp/cctmPoEZ.s:10285  .debug_str:00000000000005ce .LASF9
     /tmp/cctmPoEZ.s:10299  .debug_str:0000000000000709 .LASF10
     /tmp/cctmPoEZ.s:10177  .debug_str:00000000000002fb .LASF11
     /tmp/cctmPoEZ.s:10591  .debug_str:0000000000001156 .LASF12
     /tmp/cctmPoEZ.s:10271  .debug_str:000000000000055b .LASF13
     /tmp/cctmPoEZ.s:10197  .debug_str:0000000000000369 .LASF14
     /tmp/cctmPoEZ.s:10175  .debug_str:00000000000002eb .LASF15
     /tmp/cctmPoEZ.s:10595  .debug_str:000000000000118b .LASF16
     /tmp/cctmPoEZ.s:10241  .debug_str:0000000000000498 .LASF17
     /tmp/cctmPoEZ.s:10579  .debug_str:00000000000010db .LASF18
     /tmp/cctmPoEZ.s:10267  .debug_str:000000000000053d .LASF19
     /tmp/cctmPoEZ.s:10265  .debug_str:0000000000000530 .LASF30
     /tmp/cctmPoEZ.s:10287  .debug_str:00000000000005de .LASF20
     /tmp/cctmPoEZ.s:10263  .debug_str:0000000000000524 .LASF21
     /tmp/cctmPoEZ.s:10419  .debug_str:0000000000000b54 .LASF22
     /tmp/cctmPoEZ.s:10293  .debug_str:00000000000006d6 .LASF23
     /tmp/cctmPoEZ.s:10571  .debug_str:00000000000010a6 .LASF24
     /tmp/cctmPoEZ.s:10691  .debug_str:0000000000001478 .LASF25
     /tmp/cctmPoEZ.s:10395  .debug_str:0000000000000a5f .LASF26
     /tmp/cctmPoEZ.s:10327  .debug_str:0000000000000838 .LASF27
     /tmp/cctmPoEZ.s:10339  .debug_str:0000000000000896 .LASF28
     /tmp/cctmPoEZ.s:10613  .debug_str:00000000000011df .LASF29
     /tmp/cctmPoEZ.s:10475  .debug_str:0000000000000d3e .LASF31
     /tmp/cctmPoEZ.s:10179  .debug_str:000000000000030a .LASF32
     /tmp/cctmPoEZ.s:10507  .debug_str:0000000000000e69 .LASF33
     /tmp/cctmPoEZ.s:10607  .debug_str:00000000000011c8 .LASF34
     /tmp/cctmPoEZ.s:10375  .debug_str:00000000000009c5 .LASF35
     /tmp/cctmPoEZ.s:10391  .debug_str:0000000000000a46 .LASF36
     /tmp/cctmPoEZ.s:10401  .debug_str:0000000000000a90 .LASF37
     /tmp/cctmPoEZ.s:10623  .debug_str:000000000000120d .LASF38
     /tmp/cctmPoEZ.s:10667  .debug_str:0000000000001391 .LASF39
     /tmp/cctmPoEZ.s:10365  .debug_str:0000000000000986 .LASF40
     /tmp/cctmPoEZ.s:10259  .debug_str:0000000000000508 .LASF41
     /tmp/cctmPoEZ.s:10617  .debug_str:00000000000011ef .LASF328
     /tmp/cctmPoEZ.s:10609  .debug_str:00000000000011ce .LASF42
     /tmp/cctmPoEZ.s:10561  .debug_str:0000000000001041 .LASF43
     /tmp/cctmPoEZ.s:10187  .debug_str:000000000000032d .LASF44
     /tmp/cctmPoEZ.s:10155  .debug_str:0000000000000212 .LASF45
     /tmp/cctmPoEZ.s:10473  .debug_str:0000000000000d36 .LASF46
     /tmp/cctmPoEZ.s:10185  .debug_str:0000000000000324 .LASF47
     /tmp/cctmPoEZ.s:10605  .debug_str:00000000000011c0 .LASF48
     /tmp/cctmPoEZ.s:10317  .debug_str:00000000000007d1 .LASF49
     /tmp/cctmPoEZ.s:10119  .debug_str:00000000000000c5 .LASF55
     /tmp/cctmPoEZ.s:10655  .debug_str:000000000000130d .LASF329
     /tmp/cctmPoEZ.s:10453  .debug_str:0000000000000ca3 .LASF50
     /tmp/cctmPoEZ.s:10359  .debug_str:0000000000000963 .LASF51
     /tmp/cctmPoEZ.s:10735  .debug_str:00000000000015d1 .LASF53
     /tmp/cctmPoEZ.s:10727  .debug_str:000000000000159f .LASF52
     /tmp/cctmPoEZ.s:10631  .debug_str:0000000000001246 .LASF54
     /tmp/cctmPoEZ.s:10225  .debug_str:0000000000000443 .LASF78
     /tmp/cctmPoEZ.s:10131  .debug_str:000000000000013e .LASF80
     /tmp/cctmPoEZ.s:10621  .debug_str:0000000000001205 .LASF56
GAS LISTING /tmp/cctmPoEZ.s 			page 110


     /tmp/cctmPoEZ.s:10549  .debug_str:0000000000000fe6 .LASF57
     /tmp/cctmPoEZ.s:10369  .debug_str:000000000000099b .LASF60
     /tmp/cctmPoEZ.s:10383  .debug_str:00000000000009f5 .LASF62
     /tmp/cctmPoEZ.s:10743  .debug_str:000000000000163a .LASF58
     /tmp/cctmPoEZ.s:10249  .debug_str:00000000000004d1 .LASF59
     /tmp/cctmPoEZ.s:10109  .debug_str:000000000000007d .LASF104
     /tmp/cctmPoEZ.s:10209  .debug_str:00000000000003e1 .LASF106
     /tmp/cctmPoEZ.s:10553  .debug_str:0000000000001003 .LASF61
     /tmp/cctmPoEZ.s:10423  .debug_str:0000000000000b65 .LASF63
     /tmp/cctmPoEZ.s:10533  .debug_str:0000000000000f52 .LASF64
     /tmp/cctmPoEZ.s:10589  .debug_str:000000000000113a .LASF65
     /tmp/cctmPoEZ.s:10425  .debug_str:0000000000000b78 .LASF66
     /tmp/cctmPoEZ.s:10103  .debug_str:000000000000003f .LASF67
     /tmp/cctmPoEZ.s:10713  .debug_str:0000000000001534 .LASF68
     /tmp/cctmPoEZ.s:10467  .debug_str:0000000000000cf1 .LASF69
     /tmp/cctmPoEZ.s:10577  .debug_str:00000000000010cd .LASF70
     /tmp/cctmPoEZ.s:10487  .debug_str:0000000000000d7c .LASF71
     /tmp/cctmPoEZ.s:10215  .debug_str:0000000000000408 .LASF72
     /tmp/cctmPoEZ.s:10275  .debug_str:0000000000000580 .LASF73
     /tmp/cctmPoEZ.s:10515  .debug_str:0000000000000ebc .LASF74
     /tmp/cctmPoEZ.s:10715  .debug_str:0000000000001543 .LASF75
     /tmp/cctmPoEZ.s:10717  .debug_str:0000000000001552 .LASF76
     /tmp/cctmPoEZ.s:10345  .debug_str:00000000000008c1 .LASF77
     /tmp/cctmPoEZ.s:10573  .debug_str:00000000000010b0 .LASF79
     /tmp/cctmPoEZ.s:10733  .debug_str:00000000000015bb .LASF81
     /tmp/cctmPoEZ.s:10303  .debug_str:0000000000000740 .LASF82
     /tmp/cctmPoEZ.s:10273  .debug_str:000000000000056a .LASF83
     /tmp/cctmPoEZ.s:10545  .debug_str:0000000000000fc3 .LASF84
     /tmp/cctmPoEZ.s:10331  .debug_str:000000000000084a .LASF85
     /tmp/cctmPoEZ.s:10433  .debug_str:0000000000000bb2 .LASF86
     /tmp/cctmPoEZ.s:10203  .debug_str:00000000000003b9 .LASF87
     /tmp/cctmPoEZ.s:10495  .debug_str:0000000000000dce .LASF88
     /tmp/cctmPoEZ.s:10755  .debug_str:00000000000016a9 .LASF89
     /tmp/cctmPoEZ.s:10439  .debug_str:0000000000000bfb .LASF90
     /tmp/cctmPoEZ.s:10531  .debug_str:0000000000000f3f .LASF91
     /tmp/cctmPoEZ.s:10555  .debug_str:000000000000100c .LASF92
     /tmp/cctmPoEZ.s:10677  .debug_str:00000000000013d3 .LASF93
     /tmp/cctmPoEZ.s:10411  .debug_str:0000000000000b03 .LASF94
     /tmp/cctmPoEZ.s:10659  .debug_str:000000000000134f .LASF95
     /tmp/cctmPoEZ.s:10587  .debug_str:000000000000111a .LASF96
     /tmp/cctmPoEZ.s:10461  .debug_str:0000000000000cc5 .LASF97
     /tmp/cctmPoEZ.s:10443  .debug_str:0000000000000c3b .LASF98
     /tmp/cctmPoEZ.s:10235  .debug_str:0000000000000476 .LASF99
     /tmp/cctmPoEZ.s:10335  .debug_str:0000000000000881 .LASF100
     /tmp/cctmPoEZ.s:10415  .debug_str:0000000000000b40 .LASF101
     /tmp/cctmPoEZ.s:10635  .debug_str:0000000000001261 .LASF102
     /tmp/cctmPoEZ.s:10279  .debug_str:0000000000000596 .LASF103
     /tmp/cctmPoEZ.s:10725  .debug_str:0000000000001591 .LASF105
     /tmp/cctmPoEZ.s:10141  .debug_str:00000000000001a0 .LASF107
     /tmp/cctmPoEZ.s:10261  .debug_str:000000000000050f .LASF108
     /tmp/cctmPoEZ.s:10169  .debug_str:00000000000002ac .LASF109
     /tmp/cctmPoEZ.s:10709  .debug_str:0000000000001519 .LASF110
     /tmp/cctmPoEZ.s:10165  .debug_str:0000000000000276 .LASF111
     /tmp/cctmPoEZ.s:10107  .debug_str:0000000000000078 .LASF112
     /tmp/cctmPoEZ.s:10673  .debug_str:00000000000013c2 .LASF113
     /tmp/cctmPoEZ.s:10389  .debug_str:0000000000000a3e .LASF114
     /tmp/cctmPoEZ.s:10233  .debug_str:0000000000000470 .LASF115
GAS LISTING /tmp/cctmPoEZ.s 			page 111


     /tmp/cctmPoEZ.s:10653  .debug_str:0000000000001305 .LASF116
     /tmp/cctmPoEZ.s:10153  .debug_str:0000000000000201 .LASF117
     /tmp/cctmPoEZ.s:10641  .debug_str:000000000000128c .LASF118
     /tmp/cctmPoEZ.s:10503  .debug_str:0000000000000e39 .LASF119
     /tmp/cctmPoEZ.s:10295  .debug_str:00000000000006e4 .LASF120
     /tmp/cctmPoEZ.s:10527  .debug_str:0000000000000f27 .LASF121
     /tmp/cctmPoEZ.s:10501  .debug_str:0000000000000e25 .LASF122
     /tmp/cctmPoEZ.s:10227  .debug_str:000000000000044c .LASF123
     /tmp/cctmPoEZ.s:10569  .debug_str:000000000000108f .LASF124
     /tmp/cctmPoEZ.s:10599  .debug_str:00000000000011aa .LASF125
     /tmp/cctmPoEZ.s:10429  .debug_str:0000000000000b90 .LASF126
     /tmp/cctmPoEZ.s:10099  .debug_str:000000000000000f .LASF127
     /tmp/cctmPoEZ.s:10529  .debug_str:0000000000000f33 .LASF128
     /tmp/cctmPoEZ.s:10403  .debug_str:0000000000000a9c .LASF129
     /tmp/cctmPoEZ.s:10521  .debug_str:0000000000000ef8 .LASF130
     /tmp/cctmPoEZ.s:10181  .debug_str:000000000000030f .LASF131
     /tmp/cctmPoEZ.s:10189  .debug_str:0000000000000337 .LASF132
     /tmp/cctmPoEZ.s:10427  .debug_str:0000000000000b87 .LASF133
     /tmp/cctmPoEZ.s:10537  .debug_str:0000000000000f81 .LASF134
     /tmp/cctmPoEZ.s:10097  .debug_str:0000000000000000 .LASF135
     /tmp/cctmPoEZ.s:10311  .debug_str:000000000000078e .LASF136
     /tmp/cctmPoEZ.s:10651  .debug_str:00000000000012f6 .LASF137
     /tmp/cctmPoEZ.s:10593  .debug_str:0000000000001169 .LASF138
     /tmp/cctmPoEZ.s:10557  .debug_str:000000000000102a .LASF139
     /tmp/cctmPoEZ.s:10201  .debug_str:0000000000000395 .LASF140
     /tmp/cctmPoEZ.s:10451  .debug_str:0000000000000c93 .LASF141
     /tmp/cctmPoEZ.s:10491  .debug_str:0000000000000d9a .LASF142
     /tmp/cctmPoEZ.s:10449  .debug_str:0000000000000c8d .LASF143
     /tmp/cctmPoEZ.s:10747  .debug_str:000000000000166d .LASF144
     /tmp/cctmPoEZ.s:10111  .debug_str:000000000000008d .LASF145
     /tmp/cctmPoEZ.s:10387  .debug_str:0000000000000a24 .LASF146
     /tmp/cctmPoEZ.s:10741  .debug_str:000000000000162a .LASF147
     /tmp/cctmPoEZ.s:10541  .debug_str:0000000000000f93 .LASF148
     /tmp/cctmPoEZ.s:10597  .debug_str:0000000000001197 .LASF149
     /tmp/cctmPoEZ.s:10535  .debug_str:0000000000000f5b .LASF150
     /tmp/cctmPoEZ.s:10749  .debug_str:0000000000001685 .LASF151
     /tmp/cctmPoEZ.s:10357  .debug_str:000000000000093f .LASF152
     /tmp/cctmPoEZ.s:10431  .debug_str:0000000000000ba9 .LASF153
     /tmp/cctmPoEZ.s:10151  .debug_str:00000000000001f1 .LASF154
     /tmp/cctmPoEZ.s:10643  .debug_str:0000000000001291 .LASF155
     /tmp/cctmPoEZ.s:10543  .debug_str:0000000000000fb6 .LASF156
     /tmp/cctmPoEZ.s:10105  .debug_str:0000000000000059 .LASF157
     /tmp/cctmPoEZ.s:10139  .debug_str:000000000000018d .LASF158
     /tmp/cctmPoEZ.s:10445  .debug_str:0000000000000c5a .LASF159
     /tmp/cctmPoEZ.s:10463  .debug_str:0000000000000cd9 .LASF160
     /tmp/cctmPoEZ.s:10315  .debug_str:00000000000007bd .LASF161
     /tmp/cctmPoEZ.s:10455  .debug_str:0000000000000ca8 .LASF162
     /tmp/cctmPoEZ.s:10363  .debug_str:000000000000097b .LASF163
     /tmp/cctmPoEZ.s:10485  .debug_str:0000000000000d72 .LASF164
     /tmp/cctmPoEZ.s:10679  .debug_str:00000000000013e6 .LASF165
     /tmp/cctmPoEZ.s:10603  .debug_str:00000000000011b7 .LASF166
     /tmp/cctmPoEZ.s:10615  .debug_str:00000000000011e4 .LASF167
     /tmp/cctmPoEZ.s:10675  .debug_str:00000000000013c7 .LASF168
     /tmp/cctmPoEZ.s:10689  .debug_str:000000000000146b .LASF169
     /tmp/cctmPoEZ.s:10417  .debug_str:0000000000000b48 .LASF170
     /tmp/cctmPoEZ.s:10481  .debug_str:0000000000000d5f .LASF171
     /tmp/cctmPoEZ.s:10575  .debug_str:00000000000010bb .LASF174
GAS LISTING /tmp/cctmPoEZ.s 			page 112


     /tmp/cctmPoEZ.s:10563  .debug_str:0000000000001049 .LASF176
     /tmp/cctmPoEZ.s:10665  .debug_str:000000000000137f .LASF172
     /tmp/cctmPoEZ.s:10707  .debug_str:00000000000014f7 .LASF173
     /tmp/cctmPoEZ.s:10663  .debug_str:000000000000136d .LASF175
     /tmp/cctmPoEZ.s:10123  .debug_str:00000000000000f0 .LASF177
     /tmp/cctmPoEZ.s:10355  .debug_str:000000000000092c .LASF178
     /tmp/cctmPoEZ.s:10163  .debug_str:0000000000000253 .LASF179
     /tmp/cctmPoEZ.s:10239  .debug_str:0000000000000485 .LASF180
     /tmp/cctmPoEZ.s:10157  .debug_str:000000000000021b .LASF181
     /tmp/cctmPoEZ.s:10133  .debug_str:0000000000000151 .LASF182
     /tmp/cctmPoEZ.s:10687  .debug_str:000000000000145c .LASF183
     /tmp/cctmPoEZ.s:10413  .debug_str:0000000000000b21 .LASF184
     /tmp/cctmPoEZ.s:10705  .debug_str:00000000000014de .LASF185
     /tmp/cctmPoEZ.s:10347  .debug_str:00000000000008ce .LASF186
     /tmp/cctmPoEZ.s:10373  .debug_str:00000000000009ad .LASF187
     /tmp/cctmPoEZ.s:10737  .debug_str:00000000000015dd .LASF188
     /tmp/cctmPoEZ.s:10269  .debug_str:000000000000054a .LASF189
     /tmp/cctmPoEZ.s:10697  .debug_str:00000000000014a6 .LASF190
     /tmp/cctmPoEZ.s:10281  .debug_str:00000000000005a2 .LASF191
     /tmp/cctmPoEZ.s:10719  .debug_str:000000000000155d .LASF192
     /tmp/cctmPoEZ.s:10307  .debug_str:000000000000076c .LASF193
     /tmp/cctmPoEZ.s:10125  .debug_str:0000000000000112 .LASF194
     /tmp/cctmPoEZ.s:10377  .debug_str:00000000000009ca .LASF195
     /tmp/cctmPoEZ.s:10447  .debug_str:0000000000000c81 .LASF196
     /tmp/cctmPoEZ.s:10135  .debug_str:000000000000016c .LASF197
     /tmp/cctmPoEZ.s:10627  .debug_str:000000000000122d .LASF198
     /tmp/cctmPoEZ.s:10137  .debug_str:0000000000000188 .LASF199
     /tmp/cctmPoEZ.s:10601  .debug_str:00000000000011b1 .LASF200
     /tmp/cctmPoEZ.s:10519  .debug_str:0000000000000eeb .LASF201
     /tmp/cctmPoEZ.s:10113  .debug_str:0000000000000095 .LASF202
     /tmp/cctmPoEZ.s:10437  .debug_str:0000000000000bf1 .LASF203
     /tmp/cctmPoEZ.s:10243  .debug_str:00000000000004ae .LASF204
     /tmp/cctmPoEZ.s:10349  .debug_str:00000000000008f7 .LASF205
     /tmp/cctmPoEZ.s:10499  .debug_str:0000000000000e17 .LASF206
     /tmp/cctmPoEZ.s:10479  .debug_str:0000000000000d51 .LASF207
     /tmp/cctmPoEZ.s:10351  .debug_str:0000000000000908 .LASF208
     /tmp/cctmPoEZ.s:10699  .debug_str:00000000000014b8 .LASF209
     /tmp/cctmPoEZ.s:10753  .debug_str:000000000000169c .LASF210
     /tmp/cctmPoEZ.s:10729  .debug_str:00000000000015a5 .LASF211
     /tmp/cctmPoEZ.s:10739  .debug_str:0000000000001606 .LASF213
     /tmp/cctmPoEZ.s:3309   .text:0000000000001480 .LFB40
     /tmp/cctmPoEZ.s:3389   .text:0000000000001500 .LFE40
     /tmp/cctmPoEZ.s:10319  .debug_str:00000000000007d7 .LASF215
     /tmp/cctmPoEZ.s:8519   .debug_loc:0000000000000000 .LLST101
     /tmp/cctmPoEZ.s:3369   .text:00000000000014e0 .LVL359
     /tmp/cctmPoEZ.s:3376   .text:00000000000014f4 .LVL360
     /tmp/cctmPoEZ.s:10567  .debug_str:000000000000107d .LASF212
     /tmp/cctmPoEZ.s:10683  .debug_str:0000000000001414 .LASF214
     /tmp/cctmPoEZ.s:3072   .text:0000000000001344 .LFB39
     /tmp/cctmPoEZ.s:3111   .text:000000000000137c .LFE39
     /tmp/cctmPoEZ.s:8552   .debug_loc:0000000000000088 .LLST94
     /tmp/cctmPoEZ.s:10551  .debug_str:0000000000000ff7 .LASF216
     /tmp/cctmPoEZ.s:8583   .debug_loc:00000000000000ff .LLST95
     /tmp/cctmPoEZ.s:3092   .text:0000000000001364 .LVL332
     /tmp/cctmPoEZ.s:10245  .debug_str:00000000000004b5 .LASF217
     /tmp/cctmPoEZ.s:10745  .debug_str:0000000000001647 .LASF219
     /tmp/cctmPoEZ.s:2993   .text:00000000000012bc .LFB38
GAS LISTING /tmp/cctmPoEZ.s 			page 113


     /tmp/cctmPoEZ.s:3066   .text:0000000000001344 .LFE38
     /tmp/cctmPoEZ.s:8590   .debug_loc:0000000000000122 .LLST93
     /tmp/cctmPoEZ.s:3046   .text:0000000000001310 .LVL326
     /tmp/cctmPoEZ.s:3051   .text:000000000000131c .LVL327
     /tmp/cctmPoEZ.s:3056   .text:0000000000001328 .LVL328
     /tmp/cctmPoEZ.s:3063   .text:0000000000001340 .LVL329
     /tmp/cctmPoEZ.s:10277  .debug_str:0000000000000590 .LASF218
     /tmp/cctmPoEZ.s:10367  .debug_str:000000000000098f .LASF220
     /tmp/cctmPoEZ.s:2851   .text:00000000000011d8 .LFB37
     /tmp/cctmPoEZ.s:2987   .text:00000000000012bc .LFE37
     /tmp/cctmPoEZ.s:10381  .debug_str:00000000000009f0 .LASF221
     /tmp/cctmPoEZ.s:8612   .debug_loc:0000000000000181 .LLST88
     /tmp/cctmPoEZ.s:10465  .debug_str:0000000000000cec .LASF222
     /tmp/cctmPoEZ.s:8638   .debug_loc:00000000000001f3 .LLST89
     /tmp/cctmPoEZ.s:10149  .debug_str:00000000000001eb .LASF223
     /tmp/cctmPoEZ.s:8657   .debug_loc:000000000000024f .LLST90
     /tmp/cctmPoEZ.s:10483  .debug_str:0000000000000d6b .LASF224
     /tmp/cctmPoEZ.s:10237  .debug_str:000000000000047f .LASF225
     /tmp/cctmPoEZ.s:8668   .debug_loc:0000000000000285 .LLST91
     /tmp/cctmPoEZ.s:10057  .debug_ranges:0000000000000000 .Ldebug_ranges0
     /tmp/cctmPoEZ.s:8679   .debug_loc:00000000000002bb .LLST92
     /tmp/cctmPoEZ.s:2893   .text:000000000000122c .LVL307
     /tmp/cctmPoEZ.s:2960   .text:0000000000001290 .LVL318
     /tmp/cctmPoEZ.s:2967   .text:00000000000012a0 .LVL319
     /tmp/cctmPoEZ.s:2975   .text:00000000000012b4 .LVL320
     /tmp/cctmPoEZ.s:10701  .debug_str:00000000000014c6 .LASF226
     /tmp/cctmPoEZ.s:10525  .debug_str:0000000000000f1b .LASF227
     /tmp/cctmPoEZ.s:2671   .text:0000000000001038 .LFB36
     /tmp/cctmPoEZ.s:2845   .text:00000000000011d8 .LFE36
     /tmp/cctmPoEZ.s:10207  .debug_str:00000000000003dc .LASF228
     /tmp/cctmPoEZ.s:8690   .debug_loc:00000000000002f1 .LLST85
     /tmp/cctmPoEZ.s:8712   .debug_loc:0000000000000350 .LLST86
     /tmp/cctmPoEZ.s:8719   .debug_loc:0000000000000373 .LLST87
     /tmp/cctmPoEZ.s:2692   .text:000000000000105c .LVL289
     /tmp/cctmPoEZ.s:2737   .text:00000000000010c0 .LVL294
     /tmp/cctmPoEZ.s:2765   .text:00000000000010f0 .LVL297
     /tmp/cctmPoEZ.s:2788   .text:0000000000001138 .LVL298
     /tmp/cctmPoEZ.s:2808   .text:0000000000001170 .LVL300
     /tmp/cctmPoEZ.s:2818   .text:0000000000001184 .LVL302
     /tmp/cctmPoEZ.s:2834   .text:00000000000011b0 .LVL303
     /tmp/cctmPoEZ.s:2842   .text:00000000000011d4 .LVL304
     /tmp/cctmPoEZ.s:10619  .debug_str:00000000000011f5 .LASF229
     /tmp/cctmPoEZ.s:10509  .debug_str:0000000000000e74 .LASF230
     /tmp/cctmPoEZ.s:2373   .text:0000000000000df4 .LFB35
     /tmp/cctmPoEZ.s:2537   .text:0000000000000f50 .LFE35
     /tmp/cctmPoEZ.s:8734   .debug_loc:00000000000003bc .LLST82
     /tmp/cctmPoEZ.s:8756   .debug_loc:000000000000041b .LLST83
     /tmp/cctmPoEZ.s:2398   .text:0000000000000e24 .LVL252
     /tmp/cctmPoEZ.s:2403   .text:0000000000000e34 .LVL253
     /tmp/cctmPoEZ.s:2408   .text:0000000000000e44 .LVL254
     /tmp/cctmPoEZ.s:2413   .text:0000000000000e50 .LVL255
     /tmp/cctmPoEZ.s:2418   .text:0000000000000e60 .LVL256
     /tmp/cctmPoEZ.s:2425   .text:0000000000000e78 .LVL257
     /tmp/cctmPoEZ.s:2432   .text:0000000000000e90 .LVL258
     /tmp/cctmPoEZ.s:2437   .text:0000000000000ea0 .LVL259
     /tmp/cctmPoEZ.s:2442   .text:0000000000000eb0 .LVL260
     /tmp/cctmPoEZ.s:2455   .text:0000000000000ec4 .LVL262
GAS LISTING /tmp/cctmPoEZ.s 			page 114


     /tmp/cctmPoEZ.s:2467   .text:0000000000000edc .LVL264
     /tmp/cctmPoEZ.s:2480   .text:0000000000000ef0 .LVL266
     /tmp/cctmPoEZ.s:2492   .text:0000000000000f08 .LVL268
     /tmp/cctmPoEZ.s:2505   .text:0000000000000f1c .LVL270
     /tmp/cctmPoEZ.s:2517   .text:0000000000000f34 .LVL272
     /tmp/cctmPoEZ.s:10161  .debug_str:0000000000000243 .LASF231
     /tmp/cctmPoEZ.s:10505  .debug_str:0000000000000e44 .LASF232
     /tmp/cctmPoEZ.s:1950   .text:0000000000000b7c .LFB34
     /tmp/cctmPoEZ.s:1998   .text:0000000000000bcc .LFE34
     /tmp/cctmPoEZ.s:8763   .debug_loc:000000000000043e .LLST68
     /tmp/cctmPoEZ.s:8781   .debug_loc:000000000000048a .LLST69
     /tmp/cctmPoEZ.s:8803   .debug_loc:00000000000004e9 .LLST70
     /tmp/cctmPoEZ.s:1973   .text:0000000000000ba4 .LVL196
     /tmp/cctmPoEZ.s:1980   .text:0000000000000bb4 .LVL197
     /tmp/cctmPoEZ.s:10205  .debug_str:00000000000003cb .LASF233
     /tmp/cctmPoEZ.s:10321  .debug_str:00000000000007de .LASF234
     /tmp/cctmPoEZ.s:1613   .text:000000000000093c .LFB33
     /tmp/cctmPoEZ.s:1802   .text:0000000000000a74 .LFE33
     /tmp/cctmPoEZ.s:8810   .debug_loc:000000000000050c .LLST56
     /tmp/cctmPoEZ.s:10257  .debug_str:00000000000004fa .LASF235
     /tmp/cctmPoEZ.s:8832   .debug_loc:000000000000056b .LLST59
     /tmp/cctmPoEZ.s:1690   .text:00000000000009bc .LVL162
     /tmp/cctmPoEZ.s:1698   .text:00000000000009cc .LVL165
     /tmp/cctmPoEZ.s:1730   .text:00000000000009f8 .LVL169
     /tmp/cctmPoEZ.s:1647   .text:000000000000096c .LBB16
     /tmp/cctmPoEZ.s:1684   .text:00000000000009b4 .LBE16
     /tmp/cctmPoEZ.s:8847   .debug_loc:00000000000005b4 .LLST57
     /tmp/cctmPoEZ.s:1651   .text:0000000000000974 .LVL154
     /tmp/cctmPoEZ.s:1659   .text:0000000000000984 .LVL157
     /tmp/cctmPoEZ.s:1666   .text:0000000000000994 .LVL158
     /tmp/cctmPoEZ.s:1671   .text:00000000000009a0 .LVL159
     /tmp/cctmPoEZ.s:1678   .text:00000000000009b0 .LVL160
     /tmp/cctmPoEZ.s:1738   .text:00000000000009fc .LBB17
     /tmp/cctmPoEZ.s:1795   .text:0000000000000a6c .LBE17
     /tmp/cctmPoEZ.s:8858   .debug_loc:00000000000005ea .LLST58
     /tmp/cctmPoEZ.s:1743   .text:0000000000000a08 .LVL171
     /tmp/cctmPoEZ.s:1753   .text:0000000000000a1c .LVL172
     /tmp/cctmPoEZ.s:1761   .text:0000000000000a2c .LVL175
     /tmp/cctmPoEZ.s:1768   .text:0000000000000a3c .LVL176
     /tmp/cctmPoEZ.s:1773   .text:0000000000000a48 .LVL177
     /tmp/cctmPoEZ.s:1780   .text:0000000000000a58 .LVL178
     /tmp/cctmPoEZ.s:10513  .debug_str:0000000000000eaa .LASF236
     /tmp/cctmPoEZ.s:10681  .debug_str:00000000000013f1 .LASF237
     /tmp/cctmPoEZ.s:1808   .text:0000000000000a74 .LFB32
     /tmp/cctmPoEZ.s:1886   .text:0000000000000b18 .LFE32
     /tmp/cctmPoEZ.s:10371  .debug_str:00000000000009a8 .LASF238
     /tmp/cctmPoEZ.s:8869   .debug_loc:0000000000000620 .LLST60
     /tmp/cctmPoEZ.s:8887   .debug_loc:000000000000066c .LLST61
     /tmp/cctmPoEZ.s:8905   .debug_loc:00000000000006b8 .LLST62
     /tmp/cctmPoEZ.s:8923   .debug_loc:0000000000000704 .LLST63
     /tmp/cctmPoEZ.s:10581  .debug_str:00000000000010f1 .LASF239
     /tmp/cctmPoEZ.s:8941   .debug_loc:0000000000000750 .LLST64
     /tmp/cctmPoEZ.s:1840   .text:0000000000000abc .LVL182
     /tmp/cctmPoEZ.s:1849   .text:0000000000000ad0 .LVL184
     /tmp/cctmPoEZ.s:1857   .text:0000000000000af0 .LVL185
     /tmp/cctmPoEZ.s:10379  .debug_str:00000000000009e6 .LASF240
     /tmp/cctmPoEZ.s:10703  .debug_str:00000000000014ce .LASF241
GAS LISTING /tmp/cctmPoEZ.s 			page 115


     /tmp/cctmPoEZ.s:1897   .text:0000000000000b18 .LFB31
     /tmp/cctmPoEZ.s:1944   .text:0000000000000b7c .LFE31
     /tmp/cctmPoEZ.s:10147  .debug_str:00000000000001e5 .LASF242
     /tmp/cctmPoEZ.s:8952   .debug_loc:0000000000000786 .LLST65
     /tmp/cctmPoEZ.s:10751  .debug_str:0000000000001692 .LASF243
     /tmp/cctmPoEZ.s:8966   .debug_loc:00000000000007bf .LLST66
     /tmp/cctmPoEZ.s:10421  .debug_str:0000000000000b5f .LASF244
     /tmp/cctmPoEZ.s:8980   .debug_loc:00000000000007f8 .LLST67
     /tmp/cctmPoEZ.s:1914   .text:0000000000000b34 .LVL192
     /tmp/cctmPoEZ.s:1918   .text:0000000000000b3c .LVL193
     /tmp/cctmPoEZ.s:1929   .text:0000000000000b64 .LVL194
     /tmp/cctmPoEZ.s:10255  .debug_str:00000000000004f0 .LASF245
     /tmp/cctmPoEZ.s:10471  .debug_str:0000000000000d1e .LASF246
     /tmp/cctmPoEZ.s:2244   .text:0000000000000d60 .LFB30
     /tmp/cctmPoEZ.s:2335   .text:0000000000000df4 .LFE30
     /tmp/cctmPoEZ.s:8987   .debug_loc:000000000000081b .LLST77
     /tmp/cctmPoEZ.s:9005   .debug_loc:0000000000000867 .LLST78
     /tmp/cctmPoEZ.s:9023   .debug_loc:00000000000008b3 .LLST79
     /tmp/cctmPoEZ.s:10559  .debug_str:000000000000103b .LASF247
     /tmp/cctmPoEZ.s:9030   .debug_loc:00000000000008d6 .LLST80
     /tmp/cctmPoEZ.s:2281   .text:0000000000000d98 .LBB32
     /tmp/cctmPoEZ.s:2310   .text:0000000000000dd0 .LBE32
     /tmp/cctmPoEZ.s:9045   .debug_loc:000000000000091f .LLST81
     /tmp/cctmPoEZ.s:2299   .text:0000000000000db8 .LVL244
     /tmp/cctmPoEZ.s:2305   .text:0000000000000dcc .LVL245
     /tmp/cctmPoEZ.s:2274   .text:0000000000000d90 .LVL240
     /tmp/cctmPoEZ.s:10229  .debug_str:0000000000000451 .LASF248
     /tmp/cctmPoEZ.s:10323  .debug_str:0000000000000802 .LASF249
     /tmp/cctmPoEZ.s:2004   .text:0000000000000bcc .LFB29
     /tmp/cctmPoEZ.s:2238   .text:0000000000000d60 .LFE29
     /tmp/cctmPoEZ.s:9052   .debug_loc:0000000000000942 .LLST71
     /tmp/cctmPoEZ.s:9074   .debug_loc:00000000000009a1 .LLST76
     /tmp/cctmPoEZ.s:2083   .text:0000000000000c50 .LVL210
     /tmp/cctmPoEZ.s:2091   .text:0000000000000c60 .LVL213
     /tmp/cctmPoEZ.s:2125   .text:0000000000000c90 .LVL217
     /tmp/cctmPoEZ.s:2040   .text:0000000000000c00 .LBB25
     /tmp/cctmPoEZ.s:2077   .text:0000000000000c48 .LBE25
     /tmp/cctmPoEZ.s:9089   .debug_loc:00000000000009ea .LLST72
     /tmp/cctmPoEZ.s:2044   .text:0000000000000c08 .LVL202
     /tmp/cctmPoEZ.s:2052   .text:0000000000000c18 .LVL205
     /tmp/cctmPoEZ.s:2059   .text:0000000000000c28 .LVL206
     /tmp/cctmPoEZ.s:2064   .text:0000000000000c34 .LVL207
     /tmp/cctmPoEZ.s:2071   .text:0000000000000c44 .LVL208
     /tmp/cctmPoEZ.s:2133   .text:0000000000000c94 .LBB26
     /tmp/cctmPoEZ.s:2231   .text:0000000000000d58 .LBE26
     /tmp/cctmPoEZ.s:9100   .debug_loc:0000000000000a20 .LLST73
     /tmp/cctmPoEZ.s:10159  .debug_str:000000000000023e .LASF250
     /tmp/cctmPoEZ.s:9115   .debug_loc:0000000000000a69 .LLST74
     /tmp/cctmPoEZ.s:9134   .debug_loc:0000000000000ac5 .LLST75
     /tmp/cctmPoEZ.s:2138   .text:0000000000000ca4 .LVL219
     /tmp/cctmPoEZ.s:2165   .text:0000000000000cd4 .LVL222
     /tmp/cctmPoEZ.s:2179   .text:0000000000000cf0 .LVL225
     /tmp/cctmPoEZ.s:2184   .text:0000000000000cfc .LVL226
     /tmp/cctmPoEZ.s:2192   .text:0000000000000d0c .LVL229
     /tmp/cctmPoEZ.s:2199   .text:0000000000000d1c .LVL230
     /tmp/cctmPoEZ.s:2204   .text:0000000000000d28 .LVL231
     /tmp/cctmPoEZ.s:2211   .text:0000000000000d38 .LVL232
GAS LISTING /tmp/cctmPoEZ.s 			page 116


     /tmp/cctmPoEZ.s:2223   .text:0000000000000d50 .LVL235
     /tmp/cctmPoEZ.s:10409  .debug_str:0000000000000af1 .LASF251
     /tmp/cctmPoEZ.s:10695  .debug_str:000000000000148f .LASF252
     /tmp/cctmPoEZ.s:3209   .text:00000000000013f8 .LFB28
     /tmp/cctmPoEZ.s:3295   .text:0000000000001480 .LFE28
     /tmp/cctmPoEZ.s:9145   .debug_loc:0000000000000afb .LLST99
     /tmp/cctmPoEZ.s:9152   .debug_loc:0000000000000b1e .LLST100
     /tmp/cctmPoEZ.s:3244   .text:0000000000001434 .LVL347
     /tmp/cctmPoEZ.s:3264   .text:0000000000001450 .LVL350
     /tmp/cctmPoEZ.s:3276   .text:0000000000001464 .LVL352
     /tmp/cctmPoEZ.s:10625  .debug_str:0000000000001217 .LASF253
     /tmp/cctmPoEZ.s:10517  .debug_str:0000000000000ec9 .LASF254
     /tmp/cctmPoEZ.s:3117   .text:000000000000137c .LFB27
     /tmp/cctmPoEZ.s:3203   .text:00000000000013f8 .LFE27
     /tmp/cctmPoEZ.s:9159   .debug_loc:0000000000000b41 .LLST96
     /tmp/cctmPoEZ.s:9177   .debug_loc:0000000000000b8d .LLST97
     /tmp/cctmPoEZ.s:3143   .text:00000000000013a0 .LBB38
     /tmp/cctmPoEZ.s:3161   .text:00000000000013bc .LBE38
     /tmp/cctmPoEZ.s:9189   .debug_loc:0000000000000bc4 .LLST98
     /tmp/cctmPoEZ.s:3159   .text:00000000000013bc .LVL340
     /tmp/cctmPoEZ.s:3180   .text:00000000000013d8 .LVL342
     /tmp/cctmPoEZ.s:10385  .debug_str:0000000000000a0d .LASF255
     /tmp/cctmPoEZ.s:10199  .debug_str:0000000000000379 .LASF256
     /tmp/cctmPoEZ.s:2560   .text:0000000000000f50 .LFB26
     /tmp/cctmPoEZ.s:2660   .text:0000000000001038 .LFE26
     /tmp/cctmPoEZ.s:2609   .text:0000000000000fd4 .LBB33
     /tmp/cctmPoEZ.s:2637   .text:000000000000100c .LBE33
     /tmp/cctmPoEZ.s:9205   .debug_loc:0000000000000bff .LLST84
     /tmp/cctmPoEZ.s:2618   .text:0000000000000fe4 .LVL283
     /tmp/cctmPoEZ.s:2577   .text:0000000000000f74 .LVL276
     /tmp/cctmPoEZ.s:2582   .text:0000000000000f84 .LVL277
     /tmp/cctmPoEZ.s:2590   .text:0000000000000fa4 .LVL278
     /tmp/cctmPoEZ.s:2595   .text:0000000000000fb4 .LVL279
     /tmp/cctmPoEZ.s:2602   .text:0000000000000fc4 .LVL280
     /tmp/cctmPoEZ.s:2607   .text:0000000000000fd4 .LVL281
     /tmp/cctmPoEZ.s:2642   .text:000000000000101c .LVL285
     /tmp/cctmPoEZ.s:2646   .text:0000000000001024 .LVL286
     /tmp/cctmPoEZ.s:10309  .debug_str:000000000000077d .LASF257
     /tmp/cctmPoEZ.s:10435  .debug_str:0000000000000bd1 .LASF258
     /tmp/cctmPoEZ.s:1431   .text:0000000000000808 .LFB25
     /tmp/cctmPoEZ.s:1607   .text:000000000000093c .LFE25
     /tmp/cctmPoEZ.s:9217   .debug_loc:0000000000000c36 .LLST52
     /tmp/cctmPoEZ.s:9243   .debug_loc:0000000000000ca8 .LLST53
     /tmp/cctmPoEZ.s:10693  .debug_str:0000000000001481 .LASF259
     /tmp/cctmPoEZ.s:9269   .debug_loc:0000000000000d1a .LLST54
     /tmp/cctmPoEZ.s:9280   .debug_loc:0000000000000d50 .LLST55
     /tmp/cctmPoEZ.s:1484   .text:0000000000000868 .LVL138
     /tmp/cctmPoEZ.s:1498   .text:000000000000087c .LVL140
     /tmp/cctmPoEZ.s:1509   .text:000000000000088c .LVL141
     /tmp/cctmPoEZ.s:1516   .text:000000000000089c .LVL142
     /tmp/cctmPoEZ.s:1561   .text:00000000000008e8 .LVL147
     /tmp/cctmPoEZ.s:1572   .text:0000000000000900 .LVL148
     /tmp/cctmPoEZ.s:1580   .text:0000000000000914 .LVL149
     /tmp/cctmPoEZ.s:1588   .text:0000000000000928 .LVL150
     /tmp/cctmPoEZ.s:10129  .debug_str:0000000000000130 .LASF260
     /tmp/cctmPoEZ.s:10669  .debug_str:00000000000013a1 .LASF261
     /tmp/cctmPoEZ.s:1363   .text:000000000000076c .LFB24
GAS LISTING /tmp/cctmPoEZ.s 			page 117


     /tmp/cctmPoEZ.s:1425   .text:0000000000000808 .LFE24
     /tmp/cctmPoEZ.s:9291   .debug_loc:0000000000000d86 .LLST51
     /tmp/cctmPoEZ.s:1383   .text:0000000000000794 .LVL129
     /tmp/cctmPoEZ.s:1390   .text:00000000000007ac .LVL130
     /tmp/cctmPoEZ.s:1397   .text:00000000000007c4 .LVL131
     /tmp/cctmPoEZ.s:1404   .text:00000000000007dc .LVL132
     /tmp/cctmPoEZ.s:1411   .text:00000000000007f4 .LVL133
     /tmp/cctmPoEZ.s:10583  .debug_str:00000000000010fa .LASF262
     /tmp/cctmPoEZ.s:10305  .debug_str:000000000000074b .LASF263
     /tmp/cctmPoEZ.s:1299   .text:0000000000000720 .LFB23
     /tmp/cctmPoEZ.s:1340   .text:000000000000076c .LFE23
     /tmp/cctmPoEZ.s:9309   .debug_loc:0000000000000dd2 .LLST49
     /tmp/cctmPoEZ.s:9323   .debug_loc:0000000000000e0b .LLST50
     /tmp/cctmPoEZ.s:10247  .debug_str:00000000000004c8 .LASF264
     /tmp/cctmPoEZ.s:10649  .debug_str:00000000000012d8 .LASF265
     /tmp/cctmPoEZ.s:1183   .text:0000000000000690 .LFB22
     /tmp/cctmPoEZ.s:1293   .text:0000000000000720 .LFE22
     /tmp/cctmPoEZ.s:9337   .debug_loc:0000000000000e44 .LLST45
     /tmp/cctmPoEZ.s:9356   .debug_loc:0000000000000ea0 .LLST46
     /tmp/cctmPoEZ.s:10171  .debug_str:00000000000002d8 .LASF266
     /tmp/cctmPoEZ.s:9367   .debug_loc:0000000000000ed6 .LLST47
     /tmp/cctmPoEZ.s:9378   .debug_loc:0000000000000f0c .LLST48
     /tmp/cctmPoEZ.s:10511  .debug_str:0000000000000e97 .LASF267
     /tmp/cctmPoEZ.s:10721  .debug_str:000000000000156a .LASF294
     /tmp/cctmPoEZ.s:1081   .text:0000000000000618 .LFB21
     /tmp/cctmPoEZ.s:1177   .text:0000000000000690 .LFE21
     /tmp/cctmPoEZ.s:9389   .debug_loc:0000000000000f42 .LLST38
     /tmp/cctmPoEZ.s:10219  .debug_str:0000000000000429 .LASF268
     /tmp/cctmPoEZ.s:9403   .debug_loc:0000000000000f7b .LLST39
     /tmp/cctmPoEZ.s:10251  .debug_str:00000000000004dd .LASF269
     /tmp/cctmPoEZ.s:9424   .debug_loc:0000000000000fda .LLST40
     /tmp/cctmPoEZ.s:10221  .debug_str:0000000000000432 .LASF270
     /tmp/cctmPoEZ.s:10633  .debug_str:0000000000001256 .LASF271
     /tmp/cctmPoEZ.s:10393  .debug_str:0000000000000a55 .LASF272
     /tmp/cctmPoEZ.s:1122   .text:0000000000000644 .LBB8
     /tmp/cctmPoEZ.s:1165   .text:0000000000000680 .LBE8
     /tmp/cctmPoEZ.s:9435   .debug_loc:0000000000001010 .LLST41
     /tmp/cctmPoEZ.s:1135   .text:0000000000000658 .LBB9
     /tmp/cctmPoEZ.s:1164   .text:0000000000000680 .LBE9
     /tmp/cctmPoEZ.s:10477  .debug_str:0000000000000d49 .LASF273
     /tmp/cctmPoEZ.s:9447   .debug_loc:0000000000001047 .LLST42
     /tmp/cctmPoEZ.s:10223  .debug_str:000000000000043a .LASF274
     /tmp/cctmPoEZ.s:9458   .debug_loc:000000000000107d .LLST43
     /tmp/cctmPoEZ.s:10647  .debug_str:00000000000012ce .LASF275
     /tmp/cctmPoEZ.s:9469   .debug_loc:00000000000010b3 .LLST44
     /tmp/cctmPoEZ.s:10313  .debug_str:00000000000007b0 .LASF276
     /tmp/cctmPoEZ.s:10121  .debug_str:00000000000000d0 .LASF280
     /tmp/cctmPoEZ.s:920    .text:0000000000000530 .LFB20
     /tmp/cctmPoEZ.s:1075   .text:0000000000000618 .LFE20
     /tmp/cctmPoEZ.s:9480   .debug_loc:00000000000010e9 .LLST33
     /tmp/cctmPoEZ.s:10457  .debug_str:0000000000000cb2 .LASF277
     /tmp/cctmPoEZ.s:9498   .debug_loc:0000000000001135 .LLST34
     /tmp/cctmPoEZ.s:10183  .debug_str:0000000000000318 .LASF278
     /tmp/cctmPoEZ.s:9509   .debug_loc:000000000000116b .LLST35
     /tmp/cctmPoEZ.s:997    .text:00000000000005a4 .LBB5
     /tmp/cctmPoEZ.s:1018   .text:00000000000005c4 .LBE5
     /tmp/cctmPoEZ.s:9534   .debug_loc:00000000000011bf .LLST36
GAS LISTING /tmp/cctmPoEZ.s 			page 118


     /tmp/cctmPoEZ.s:1025   .text:00000000000005cc .LBB7
     /tmp/cctmPoEZ.s:1056   .text:00000000000005fc .LBE7
     /tmp/cctmPoEZ.s:9546   .debug_loc:00000000000011f6 .LLST37
     /tmp/cctmPoEZ.s:944    .text:000000000000055c .LVL83
     /tmp/cctmPoEZ.s:10489  .debug_str:0000000000000d88 .LASF279
     /tmp/cctmPoEZ.s:10407  .debug_str:0000000000000ac4 .LASF281
     /tmp/cctmPoEZ.s:866    .text:00000000000004d8 .LFB19
     /tmp/cctmPoEZ.s:914    .text:0000000000000530 .LFE19
     /tmp/cctmPoEZ.s:9553   .debug_loc:0000000000001219 .LLST31
     /tmp/cctmPoEZ.s:9571   .debug_loc:0000000000001265 .LLST32
     /tmp/cctmPoEZ.s:891    .text:0000000000000508 .LVL77
     /tmp/cctmPoEZ.s:897    .text:0000000000000518 .LVL78
     /tmp/cctmPoEZ.s:10231  .debug_str:0000000000000461 .LASF282
     /tmp/cctmPoEZ.s:10657  .debug_str:0000000000001325 .LASF283
     /tmp/cctmPoEZ.s:812    .text:0000000000000480 .LFB18
     /tmp/cctmPoEZ.s:860    .text:00000000000004d8 .LFE18
     /tmp/cctmPoEZ.s:9589   .debug_loc:00000000000012b1 .LLST29
     /tmp/cctmPoEZ.s:9607   .debug_loc:00000000000012fd .LLST30
     /tmp/cctmPoEZ.s:837    .text:00000000000004b0 .LVL70
     /tmp/cctmPoEZ.s:843    .text:00000000000004c0 .LVL71
     /tmp/cctmPoEZ.s:10341  .debug_str:000000000000089d .LASF284
     /tmp/cctmPoEZ.s:10167  .debug_str:0000000000000287 .LASF285
     /tmp/cctmPoEZ.s:756    .text:0000000000000428 .LFB17
     /tmp/cctmPoEZ.s:806    .text:0000000000000480 .LFE17
     /tmp/cctmPoEZ.s:9625   .debug_loc:0000000000001349 .LLST27
     /tmp/cctmPoEZ.s:9643   .debug_loc:0000000000001395 .LLST28
     /tmp/cctmPoEZ.s:783    .text:0000000000000458 .LVL63
     /tmp/cctmPoEZ.s:789    .text:0000000000000468 .LVL64
     /tmp/cctmPoEZ.s:10145  .debug_str:00000000000001d4 .LASF286
     /tmp/cctmPoEZ.s:10101  .debug_str:000000000000001b .LASF287
     /tmp/cctmPoEZ.s:700    .text:00000000000003d0 .LFB16
     /tmp/cctmPoEZ.s:750    .text:0000000000000428 .LFE16
     /tmp/cctmPoEZ.s:9650   .debug_loc:00000000000013b8 .LLST25
     /tmp/cctmPoEZ.s:9668   .debug_loc:0000000000001404 .LLST26
     /tmp/cctmPoEZ.s:727    .text:0000000000000400 .LVL56
     /tmp/cctmPoEZ.s:733    .text:0000000000000410 .LVL57
     /tmp/cctmPoEZ.s:10115  .debug_str:00000000000000ab .LASF288
     /tmp/cctmPoEZ.s:10685  .debug_str:0000000000001439 .LASF289
     /tmp/cctmPoEZ.s:629    .text:0000000000000374 .LFB15
     /tmp/cctmPoEZ.s:694    .text:00000000000003d0 .LFE15
     /tmp/cctmPoEZ.s:10337  .debug_str:000000000000088c .LASF290
     /tmp/cctmPoEZ.s:10325  .debug_str:0000000000000825 .LASF291
     /tmp/cctmPoEZ.s:10333  .debug_str:000000000000085e .LASF292
     /tmp/cctmPoEZ.s:585    .text:0000000000000340 .LFB14
     /tmp/cctmPoEZ.s:623    .text:0000000000000374 .LFE14
     /tmp/cctmPoEZ.s:10191  .debug_str:0000000000000341 .LASF293
     /tmp/cctmPoEZ.s:10297  .debug_str:00000000000006f8 .LASF295
     /tmp/cctmPoEZ.s:556    .text:0000000000000320 .LFB13
     /tmp/cctmPoEZ.s:579    .text:0000000000000340 .LFE13
     /tmp/cctmPoEZ.s:9675   .debug_loc:0000000000001427 .LLST24
     /tmp/cctmPoEZ.s:10731  .debug_str:00000000000015b6 .LASF296
     /tmp/cctmPoEZ.s:10195  .debug_str:0000000000000359 .LASF297
     /tmp/cctmPoEZ.s:524    .text:00000000000002f8 .LFB12
     /tmp/cctmPoEZ.s:550    .text:0000000000000320 .LFE12
     /tmp/cctmPoEZ.s:9689   .debug_loc:0000000000001460 .LLST23
     /tmp/cctmPoEZ.s:10399  .debug_str:0000000000000a81 .LASF298
     /tmp/cctmPoEZ.s:10645  .debug_str:00000000000012b3 .LASF299
GAS LISTING /tmp/cctmPoEZ.s 			page 119


     /tmp/cctmPoEZ.s:405    .text:0000000000000240 .LFB11
     /tmp/cctmPoEZ.s:518    .text:00000000000002f8 .LFE11
     /tmp/cctmPoEZ.s:9703   .debug_loc:0000000000001499 .LLST19
     /tmp/cctmPoEZ.s:9725   .debug_loc:00000000000014f8 .LLST20
     /tmp/cctmPoEZ.s:9736   .debug_loc:000000000000152e .LLST21
     /tmp/cctmPoEZ.s:426    .text:0000000000000264 .LBB4
     /tmp/cctmPoEZ.s:468    .text:00000000000002a8 .LBE4
     /tmp/cctmPoEZ.s:9747   .debug_loc:0000000000001564 .LLST22
     /tmp/cctmPoEZ.s:442    .text:0000000000000284 .LVL36
     /tmp/cctmPoEZ.s:483    .text:00000000000002c4 .LVL43
     /tmp/cctmPoEZ.s:10565  .debug_str:000000000000106b .LASF300
     /tmp/cctmPoEZ.s:10441  .debug_str:0000000000000c1c .LASF301
     /tmp/cctmPoEZ.s:359    .text:00000000000001f8 .LFB10
     /tmp/cctmPoEZ.s:399    .text:0000000000000240 .LFE10
     /tmp/cctmPoEZ.s:9758   .debug_loc:000000000000159a .LLST17
     /tmp/cctmPoEZ.s:9772   .debug_loc:00000000000015d3 .LLST18
     /tmp/cctmPoEZ.s:10639  .debug_str:000000000000127e .LASF302
     /tmp/cctmPoEZ.s:10547  .debug_str:0000000000000fcb .LASF303
     /tmp/cctmPoEZ.s:317    .text:00000000000001b8 .LFB9
     /tmp/cctmPoEZ.s:353    .text:00000000000001f8 .LFE9
     /tmp/cctmPoEZ.s:9786   .debug_loc:000000000000160c .LLST15
     /tmp/cctmPoEZ.s:9800   .debug_loc:0000000000001645 .LLST16
     /tmp/cctmPoEZ.s:10405  .debug_str:0000000000000ab0 .LASF304
     /tmp/cctmPoEZ.s:10301  .debug_str:0000000000000717 .LASF305
     /tmp/cctmPoEZ.s:246    .text:0000000000000144 .LFB8
     /tmp/cctmPoEZ.s:311    .text:00000000000001b8 .LFE8
     /tmp/cctmPoEZ.s:9814   .debug_loc:000000000000167e .LLST12
     /tmp/cctmPoEZ.s:10637  .debug_str:000000000000126b .LASF306
     /tmp/cctmPoEZ.s:9839   .debug_loc:00000000000016e3 .LLST13
     /tmp/cctmPoEZ.s:265    .text:000000000000015c .LBB3
     /tmp/cctmPoEZ.s:283    .text:000000000000017c .LBE3
     /tmp/cctmPoEZ.s:9850   .debug_loc:0000000000001719 .LLST14
     /tmp/cctmPoEZ.s:295    .text:00000000000001a0 .LVL26
     /tmp/cctmPoEZ.s:10611  .debug_str:00000000000011d4 .LASF307
     /tmp/cctmPoEZ.s:10497  .debug_str:0000000000000deb .LASF308
     /tmp/cctmPoEZ.s:153    .text:00000000000000b8 .LFB7
     /tmp/cctmPoEZ.s:235    .text:0000000000000144 .LFE7
     /tmp/cctmPoEZ.s:9862   .debug_loc:0000000000001750 .LLST6
     /tmp/cctmPoEZ.s:10459  .debug_str:0000000000000cba .LASF309
     /tmp/cctmPoEZ.s:9880   .debug_loc:000000000000179c .LLST7
     /tmp/cctmPoEZ.s:9898   .debug_loc:00000000000017e8 .LLST8
     /tmp/cctmPoEZ.s:9917   .debug_loc:0000000000001835 .LLST9
     /tmp/cctmPoEZ.s:9936   .debug_loc:0000000000001882 .LLST10
     /tmp/cctmPoEZ.s:9955   .debug_loc:00000000000018cf .LLST11
     /tmp/cctmPoEZ.s:187    .text:0000000000000100 .LVL14
     /tmp/cctmPoEZ.s:10629  .debug_str:0000000000001234 .LASF310
     /tmp/cctmPoEZ.s:10283  .debug_str:00000000000005af .LASF311
     /tmp/cctmPoEZ.s:59     .text:0000000000000034 .LFB6
     /tmp/cctmPoEZ.s:147    .text:00000000000000b8 .LFE6
     /tmp/cctmPoEZ.s:9974   .debug_loc:000000000000191c .LLST2
     /tmp/cctmPoEZ.s:9996   .debug_loc:000000000000197b .LLST3
     /tmp/cctmPoEZ.s:10003  .debug_loc:000000000000199e .LLST4
     /tmp/cctmPoEZ.s:102    .text:0000000000000074 .LBB2
     /tmp/cctmPoEZ.s:119    .text:000000000000008c .LBE2
     /tmp/cctmPoEZ.s:10661  .debug_str:0000000000001364 .LASF312
     /tmp/cctmPoEZ.s:10015  .debug_loc:00000000000019d5 .LLST5
     /tmp/cctmPoEZ.s:111    .text:0000000000000084 .LVL7
GAS LISTING /tmp/cctmPoEZ.s 			page 120


     /tmp/cctmPoEZ.s:10671  .debug_str:00000000000013bb .LASF313
     /tmp/cctmPoEZ.s:10213  .debug_str:00000000000003f9 .LASF314
     /tmp/cctmPoEZ.s:10     .text:0000000000000000 .LFB5
     /tmp/cctmPoEZ.s:53     .text:0000000000000034 .LFE5
     /tmp/cctmPoEZ.s:10022  .debug_loc:00000000000019f8 .LLST0
     /tmp/cctmPoEZ.s:10033  .debug_loc:0000000000001a2e .LLST1
     /tmp/cctmPoEZ.s:10493  .debug_str:0000000000000dbd .LASF315
     /tmp/cctmPoEZ.s:10143  .debug_str:00000000000001c8 .LASF317
     /tmp/cctmPoEZ.s:10127  .debug_str:000000000000011e .LASF316
     /tmp/cctmPoEZ.s:10173  .debug_str:00000000000002e0 .LASF318
     /tmp/cctmPoEZ.s:10193  .debug_str:0000000000000347 .LASF319
     /tmp/cctmPoEZ.s:10211  .debug_str:00000000000003ee .LASF320
     /tmp/cctmPoEZ.s:10217  .debug_str:0000000000000418 .LASF321
     /tmp/cctmPoEZ.s:10585  .debug_str:000000000000110e .LASF322
     /tmp/cctmPoEZ.s:10711  .debug_str:0000000000001520 .LASF323
     /tmp/cctmPoEZ.s:10723  .debug_str:0000000000001582 .LASF324
     /tmp/cctmPoEZ.s:3312   .text:0000000000001480 .LVL355
     /tmp/cctmPoEZ.s:3334   .text:00000000000014a8 .LVL356
     /tmp/cctmPoEZ.s:3358   .text:00000000000014c8 .LVL357
     /tmp/cctmPoEZ.s:3362   .text:00000000000014d0 .LVL358
     /tmp/cctmPoEZ.s:3378   .text:00000000000014f8 .LVL361
     /tmp/cctmPoEZ.s:3386   .text:00000000000014fc .LVL362
     /tmp/cctmPoEZ.s:3075   .text:0000000000001344 .LVL330
     /tmp/cctmPoEZ.s:3090   .text:000000000000135c .LVL331
     /tmp/cctmPoEZ.s:3103   .text:0000000000001374 .LVL333
     /tmp/cctmPoEZ.s:3107   .text:0000000000001378 .LVL334
     /tmp/cctmPoEZ.s:2996   .text:00000000000012bc .LVL322
     /tmp/cctmPoEZ.s:3020   .text:00000000000012e8 .LVL323
     /tmp/cctmPoEZ.s:3031   .text:00000000000012f4 .LVL324
     /tmp/cctmPoEZ.s:3035   .text:00000000000012fc .LVL325
     /tmp/cctmPoEZ.s:2854   .text:00000000000011d8 .LVL305
     /tmp/cctmPoEZ.s:2879   .text:0000000000001204 .LVL306
     /tmp/cctmPoEZ.s:2948   .text:0000000000001278 .LVL316
     /tmp/cctmPoEZ.s:2952   .text:0000000000001280 .LVL317
     /tmp/cctmPoEZ.s:2977   .text:00000000000012b8 .LVL321
     /tmp/cctmPoEZ.s:2895   .text:0000000000001230 .LVL308
     /tmp/cctmPoEZ.s:2909   .text:0000000000001244 .LVL311
     /tmp/cctmPoEZ.s:2945   .text:0000000000001274 .LVL315
     /tmp/cctmPoEZ.s:2906   .text:0000000000001240 .LVL310
     /tmp/cctmPoEZ.s:2914   .text:0000000000001248 .LVL312
     /tmp/cctmPoEZ.s:2920   .text:000000000000124c .LVL313
     /tmp/cctmPoEZ.s:2942   .text:0000000000001270 .LVL314
     /tmp/cctmPoEZ.s:2674   .text:0000000000001038 .LVL288
     /tmp/cctmPoEZ.s:2711   .text:0000000000001080 .LVL291
     /tmp/cctmPoEZ.s:2739   .text:00000000000010c4 .LVL295
     /tmp/cctmPoEZ.s:2758   .text:00000000000010e4 .LVL296
     /tmp/cctmPoEZ.s:2705   .text:0000000000001078 .LVL290
     /tmp/cctmPoEZ.s:2715   .text:0000000000001084 .LVL292
     /tmp/cctmPoEZ.s:2732   .text:00000000000010a8 .LVL293
     /tmp/cctmPoEZ.s:2803   .text:0000000000001158 .LVL299
     /tmp/cctmPoEZ.s:2812   .text:0000000000001178 .LVL301
     /tmp/cctmPoEZ.s:2376   .text:0000000000000df4 .LVL250
     /tmp/cctmPoEZ.s:2396   .text:0000000000000e1c .LVL251
     /tmp/cctmPoEZ.s:2529   .text:0000000000000f44 .LVL274
     /tmp/cctmPoEZ.s:2533   .text:0000000000000f4c .LVL275
     /tmp/cctmPoEZ.s:2446   .text:0000000000000eb4 .LVL261
     /tmp/cctmPoEZ.s:2526   .text:0000000000000f40 .LVL273
GAS LISTING /tmp/cctmPoEZ.s 			page 121


     /tmp/cctmPoEZ.s:1953   .text:0000000000000b7c .LVL195
     /tmp/cctmPoEZ.s:1994   .text:0000000000000bc8 .LVL199
     /tmp/cctmPoEZ.s:1990   .text:0000000000000bc0 .LVL198
     /tmp/cctmPoEZ.s:1616   .text:000000000000093c .LVL152
     /tmp/cctmPoEZ.s:1636   .text:0000000000000960 .LVL153
     /tmp/cctmPoEZ.s:1715   .text:00000000000009e0 .LVL167
     /tmp/cctmPoEZ.s:1721   .text:00000000000009ec .LVL168
     /tmp/cctmPoEZ.s:1692   .text:00000000000009c0 .LVL163
     /tmp/cctmPoEZ.s:1696   .text:00000000000009c4 .LVL164
     /tmp/cctmPoEZ.s:1701   .text:00000000000009d0 .LVL166
     /tmp/cctmPoEZ.s:1734   .text:00000000000009fc .LVL170
     /tmp/cctmPoEZ.s:1653   .text:0000000000000978 .LVL155
     /tmp/cctmPoEZ.s:1657   .text:000000000000097c .LVL156
     /tmp/cctmPoEZ.s:1682   .text:00000000000009b4 .LVL161
     /tmp/cctmPoEZ.s:1755   .text:0000000000000a20 .LVL173
     /tmp/cctmPoEZ.s:1759   .text:0000000000000a24 .LVL174
     /tmp/cctmPoEZ.s:1784   .text:0000000000000a5c .LVL179
     /tmp/cctmPoEZ.s:1811   .text:0000000000000a74 .LVL180
     /tmp/cctmPoEZ.s:1837   .text:0000000000000ab0 .LVL181
     /tmp/cctmPoEZ.s:1875   .text:0000000000000b08 .LVL188
     /tmp/cctmPoEZ.s:1872   .text:0000000000000b04 .LVL187
     /tmp/cctmPoEZ.s:1878   .text:0000000000000b0c .LVL189
     /tmp/cctmPoEZ.s:1881   .text:0000000000000b10 .LVL190
     /tmp/cctmPoEZ.s:1842   .text:0000000000000ac0 .LVL183
     /tmp/cctmPoEZ.s:1869   .text:0000000000000b00 .LVL186
     /tmp/cctmPoEZ.s:1900   .text:0000000000000b18 .LVL191
     /tmp/cctmPoEZ.s:2247   .text:0000000000000d60 .LVL238
     /tmp/cctmPoEZ.s:2331   .text:0000000000000df0 .LVL249
     /tmp/cctmPoEZ.s:2270   .text:0000000000000d88 .LVL239
     /tmp/cctmPoEZ.s:2327   .text:0000000000000de8 .LVL248
     /tmp/cctmPoEZ.s:2278   .text:0000000000000d94 .LVL241
     /tmp/cctmPoEZ.s:2289   .text:0000000000000da0 .LVL243
     /tmp/cctmPoEZ.s:2308   .text:0000000000000dd0 .LVL246
     /tmp/cctmPoEZ.s:2322   .text:0000000000000de0 .LVL247
     /tmp/cctmPoEZ.s:2283   .text:0000000000000d98 .LVL242
     /tmp/cctmPoEZ.s:2007   .text:0000000000000bcc .LVL200
     /tmp/cctmPoEZ.s:2029   .text:0000000000000bf4 .LVL201
     /tmp/cctmPoEZ.s:2108   .text:0000000000000c74 .LVL215
     /tmp/cctmPoEZ.s:2116   .text:0000000000000c84 .LVL216
     /tmp/cctmPoEZ.s:2085   .text:0000000000000c54 .LVL211
     /tmp/cctmPoEZ.s:2089   .text:0000000000000c58 .LVL212
     /tmp/cctmPoEZ.s:2094   .text:0000000000000c64 .LVL214
     /tmp/cctmPoEZ.s:2129   .text:0000000000000c94 .LVL218
     /tmp/cctmPoEZ.s:2046   .text:0000000000000c0c .LVL203
     /tmp/cctmPoEZ.s:2050   .text:0000000000000c10 .LVL204
     /tmp/cctmPoEZ.s:2075   .text:0000000000000c48 .LVL209
     /tmp/cctmPoEZ.s:2140   .text:0000000000000ca8 .LVL220
     /tmp/cctmPoEZ.s:2159   .text:0000000000000cc4 .LVL221
     /tmp/cctmPoEZ.s:2186   .text:0000000000000d00 .LVL227
     /tmp/cctmPoEZ.s:2215   .text:0000000000000d3c .LVL233
     /tmp/cctmPoEZ.s:2227   .text:0000000000000d54 .LVL236
     /tmp/cctmPoEZ.s:2167   .text:0000000000000cd8 .LVL223
     /tmp/cctmPoEZ.s:2177   .text:0000000000000ce8 .LVL224
     /tmp/cctmPoEZ.s:2221   .text:0000000000000d48 .LVL234
     /tmp/cctmPoEZ.s:2229   .text:0000000000000d58 .LVL237
     /tmp/cctmPoEZ.s:2190   .text:0000000000000d04 .LVL228
     /tmp/cctmPoEZ.s:3231   .text:0000000000001420 .LVL345
GAS LISTING /tmp/cctmPoEZ.s 			page 122


     /tmp/cctmPoEZ.s:3290   .text:0000000000001478 .LVL354
     /tmp/cctmPoEZ.s:3235   .text:0000000000001424 .LVL346
     /tmp/cctmPoEZ.s:3285   .text:0000000000001470 .LVL353
     /tmp/cctmPoEZ.s:3120   .text:000000000000137c .LVL335
     /tmp/cctmPoEZ.s:3140   .text:00000000000013a0 .LVL337
     /tmp/cctmPoEZ.s:3198   .text:00000000000013f0 .LVL344
     /tmp/cctmPoEZ.s:3135   .text:0000000000001398 .LVL336
     /tmp/cctmPoEZ.s:3195   .text:00000000000013ec .LVL343
     /tmp/cctmPoEZ.s:3153   .text:00000000000013b0 .LVL338
     /tmp/cctmPoEZ.s:3157   .text:00000000000013b4 .LVL339
     /tmp/cctmPoEZ.s:2613   .text:0000000000000fdc .LVL282
     /tmp/cctmPoEZ.s:2655   .text:0000000000001030 .LVL287
     /tmp/cctmPoEZ.s:1434   .text:0000000000000808 .LVL135
     /tmp/cctmPoEZ.s:1542   .text:00000000000008c4 .LVL144
     /tmp/cctmPoEZ.s:1553   .text:00000000000008d8 .LVL146
     /tmp/cctmPoEZ.s:1596   .text:0000000000000938 .LVL151
     /tmp/cctmPoEZ.s:1482   .text:0000000000000860 .LVL137
     /tmp/cctmPoEZ.s:1545   .text:00000000000008c8 .LVL145
     /tmp/cctmPoEZ.s:1471   .text:0000000000000850 .LVL136
     /tmp/cctmPoEZ.s:1531   .text:00000000000008b8 .LVL143
     /tmp/cctmPoEZ.s:1488   .text:000000000000086c .LVL139
     /tmp/cctmPoEZ.s:1366   .text:000000000000076c .LVL127
     /tmp/cctmPoEZ.s:1381   .text:000000000000078c .LVL128
     /tmp/cctmPoEZ.s:1420   .text:0000000000000800 .LVL134
     /tmp/cctmPoEZ.s:1302   .text:0000000000000720 .LVL124
     /tmp/cctmPoEZ.s:1318   .text:0000000000000740 .LVL126
     /tmp/cctmPoEZ.s:1314   .text:0000000000000738 .LVL125
     /tmp/cctmPoEZ.s:1186   .text:0000000000000690 .LVL111
     /tmp/cctmPoEZ.s:1201   .text:00000000000006ac .LVL112
     /tmp/cctmPoEZ.s:1285   .text:0000000000000718 .LVL122
     /tmp/cctmPoEZ.s:1290   .text:000000000000071c .LVL123
     /tmp/cctmPoEZ.s:1234   .text:00000000000006d8 .LVL116
     /tmp/cctmPoEZ.s:1245   .text:00000000000006e4 .LVL117
     /tmp/cctmPoEZ.s:1203   .text:00000000000006b0 .LVL113
     /tmp/cctmPoEZ.s:1209   .text:00000000000006b4 .LVL114
     /tmp/cctmPoEZ.s:1229   .text:00000000000006d0 .LVL115
     /tmp/cctmPoEZ.s:1253   .text:00000000000006ec .LVL119
     /tmp/cctmPoEZ.s:1259   .text:00000000000006f0 .LVL120
     /tmp/cctmPoEZ.s:1279   .text:000000000000070c .LVL121
     /tmp/cctmPoEZ.s:1084   .text:0000000000000618 .LVL97
     /tmp/cctmPoEZ.s:1169   .text:0000000000000684 .LVL110
     /tmp/cctmPoEZ.s:1092   .text:0000000000000624 .LVL98
     /tmp/cctmPoEZ.s:1095   .text:0000000000000628 .LVL99
     /tmp/cctmPoEZ.s:1126   .text:000000000000064c .LVL102
     /tmp/cctmPoEZ.s:1160   .text:000000000000067c .LVL108
     /tmp/cctmPoEZ.s:1162   .text:0000000000000680 .LVL109
     /tmp/cctmPoEZ.s:1115   .text:0000000000000640 .LVL101
     /tmp/cctmPoEZ.s:1157   .text:0000000000000678 .LVL107
     /tmp/cctmPoEZ.s:1130   .text:0000000000000650 .LVL103
     /tmp/cctmPoEZ.s:1139   .text:000000000000065c .LVL104
     /tmp/cctmPoEZ.s:1145   .text:0000000000000664 .LVL105
     /tmp/cctmPoEZ.s:1149   .text:0000000000000668 .LVL106
     /tmp/cctmPoEZ.s:923    .text:0000000000000530 .LVL81
     /tmp/cctmPoEZ.s:942    .text:0000000000000554 .LVL82
     /tmp/cctmPoEZ.s:1070   .text:0000000000000610 .LVL96
     /tmp/cctmPoEZ.s:958    .text:0000000000000574 .LVL84
     /tmp/cctmPoEZ.s:1054   .text:00000000000005fc .LVL95
GAS LISTING /tmp/cctmPoEZ.s 			page 123


     /tmp/cctmPoEZ.s:977    .text:000000000000058c .LVL85
     /tmp/cctmPoEZ.s:981    .text:0000000000000590 .LVL86
     /tmp/cctmPoEZ.s:986    .text:0000000000000598 .LVL87
     /tmp/cctmPoEZ.s:989    .text:000000000000059c .LVL88
     /tmp/cctmPoEZ.s:996    .text:00000000000005a4 .LVL89
     /tmp/cctmPoEZ.s:1000   .text:00000000000005a8 .LVL90
     /tmp/cctmPoEZ.s:1028   .text:00000000000005d0 .LVL92
     /tmp/cctmPoEZ.s:869    .text:00000000000004d8 .LVL74
     /tmp/cctmPoEZ.s:889    .text:0000000000000500 .LVL76
     /tmp/cctmPoEZ.s:909    .text:0000000000000528 .LVL80
     /tmp/cctmPoEZ.s:887    .text:00000000000004fc .LVL75
     /tmp/cctmPoEZ.s:906    .text:0000000000000524 .LVL79
     /tmp/cctmPoEZ.s:815    .text:0000000000000480 .LVL67
     /tmp/cctmPoEZ.s:835    .text:00000000000004a8 .LVL69
     /tmp/cctmPoEZ.s:855    .text:00000000000004d0 .LVL73
     /tmp/cctmPoEZ.s:833    .text:00000000000004a4 .LVL68
     /tmp/cctmPoEZ.s:852    .text:00000000000004cc .LVL72
     /tmp/cctmPoEZ.s:759    .text:0000000000000428 .LVL60
     /tmp/cctmPoEZ.s:781    .text:0000000000000450 .LVL62
     /tmp/cctmPoEZ.s:798    .text:0000000000000474 .LVL65
     /tmp/cctmPoEZ.s:776    .text:0000000000000448 .LVL61
     /tmp/cctmPoEZ.s:801    .text:0000000000000478 .LVL66
     /tmp/cctmPoEZ.s:703    .text:00000000000003d0 .LVL53
     /tmp/cctmPoEZ.s:725    .text:00000000000003f8 .LVL55
     /tmp/cctmPoEZ.s:742    .text:000000000000041c .LVL58
     /tmp/cctmPoEZ.s:720    .text:00000000000003f0 .LVL54
     /tmp/cctmPoEZ.s:745    .text:0000000000000420 .LVL59
     /tmp/cctmPoEZ.s:559    .text:0000000000000320 .LVL49
     /tmp/cctmPoEZ.s:569    .text:0000000000000330 .LVL50
     /tmp/cctmPoEZ.s:527    .text:00000000000002f8 .LVL47
     /tmp/cctmPoEZ.s:539    .text:000000000000030c .LVL48
     /tmp/cctmPoEZ.s:408    .text:0000000000000240 .LVL34
     /tmp/cctmPoEZ.s:429    .text:0000000000000268 .LVL35
     /tmp/cctmPoEZ.s:505    .text:00000000000002e4 .LVL45
     /tmp/cctmPoEZ.s:511    .text:00000000000002f0 .LVL46
     /tmp/cctmPoEZ.s:462    .text:00000000000002a4 .LVL39
     /tmp/cctmPoEZ.s:466    .text:00000000000002a8 .LVL40
     /tmp/cctmPoEZ.s:475    .text:00000000000002b0 .LVL42
     /tmp/cctmPoEZ.s:491    .text:00000000000002d0 .LVL44
     /tmp/cctmPoEZ.s:459    .text:00000000000002a0 .LVL38
     /tmp/cctmPoEZ.s:471    .text:00000000000002ac .LVL41
     /tmp/cctmPoEZ.s:362    .text:00000000000001f8 .LVL31
     /tmp/cctmPoEZ.s:378    .text:0000000000000218 .LVL33
     /tmp/cctmPoEZ.s:374    .text:0000000000000210 .LVL32
     /tmp/cctmPoEZ.s:320    .text:00000000000001b8 .LVL28
     /tmp/cctmPoEZ.s:336    .text:00000000000001d8 .LVL30
     /tmp/cctmPoEZ.s:332    .text:00000000000001d0 .LVL29
     /tmp/cctmPoEZ.s:249    .text:0000000000000144 .LVL20
     /tmp/cctmPoEZ.s:293    .text:0000000000000198 .LVL25
     /tmp/cctmPoEZ.s:306    .text:00000000000001b0 .LVL27
     /tmp/cctmPoEZ.s:263    .text:000000000000015c .LVL21
     /tmp/cctmPoEZ.s:269    .text:0000000000000164 .LVL22
     /tmp/cctmPoEZ.s:287    .text:0000000000000180 .LVL24
     /tmp/cctmPoEZ.s:156    .text:00000000000000b8 .LVL11
     /tmp/cctmPoEZ.s:177    .text:00000000000000e4 .LVL12
     /tmp/cctmPoEZ.s:218    .text:000000000000012c .LVL15
     /tmp/cctmPoEZ.s:185    .text:00000000000000f8 .LVL13
GAS LISTING /tmp/cctmPoEZ.s 			page 124


     /tmp/cctmPoEZ.s:230    .text:000000000000013c .LVL19
     /tmp/cctmPoEZ.s:227    .text:0000000000000138 .LVL18
     /tmp/cctmPoEZ.s:224    .text:0000000000000134 .LVL17
     /tmp/cctmPoEZ.s:221    .text:0000000000000130 .LVL16
     /tmp/cctmPoEZ.s:62     .text:0000000000000034 .LVL3
     /tmp/cctmPoEZ.s:94     .text:000000000000006c .LVL5
     /tmp/cctmPoEZ.s:122    .text:0000000000000090 .LVL9
     /tmp/cctmPoEZ.s:126    .text:0000000000000094 .LVL10
     /tmp/cctmPoEZ.s:90     .text:0000000000000068 .LVL4
     /tmp/cctmPoEZ.s:118    .text:000000000000008c .LVL8
     /tmp/cctmPoEZ.s:106    .text:0000000000000078 .LVL6
     /tmp/cctmPoEZ.s:14     .text:0000000000000000 .LVL0
     /tmp/cctmPoEZ.s:34     .text:000000000000001c .LVL1
     /tmp/cctmPoEZ.s:38     .text:0000000000000020 .LVL2
     /tmp/cctmPoEZ.s:3411   .debug_info:0000000000000000 .Ldebug_info0
     /tmp/cctmPoEZ.s:1205   .text:00000000000006b0 .LBB10
     /tmp/cctmPoEZ.s:1211   .text:00000000000006b4 .LBE10
     /tmp/cctmPoEZ.s:1215   .text:00000000000006b8 .LBB11
     /tmp/cctmPoEZ.s:1236   .text:00000000000006d8 .LBE11
     /tmp/cctmPoEZ.s:1255   .text:00000000000006ec .LBB12
     /tmp/cctmPoEZ.s:1261   .text:00000000000006f0 .LBE12
     /tmp/cctmPoEZ.s:1265   .text:00000000000006f4 .LBB13
     /tmp/cctmPoEZ.s:1287   .text:0000000000000718 .LBE13
     /tmp/cctmPoEZ.s:1686   .text:00000000000009b4 .LBB18
     /tmp/cctmPoEZ.s:1703   .text:00000000000009d0 .LBE18
     /tmp/cctmPoEZ.s:1725   .text:00000000000009ec .LBB19
     /tmp/cctmPoEZ.s:1736   .text:00000000000009fc .LBE19
     /tmp/cctmPoEZ.s:2079   .text:0000000000000c48 .LBB27
     /tmp/cctmPoEZ.s:2096   .text:0000000000000c64 .LBE27
     /tmp/cctmPoEZ.s:2120   .text:0000000000000c84 .LBB28
     /tmp/cctmPoEZ.s:2131   .text:0000000000000c94 .LBE28
     /tmp/cctmPoEZ.s:2873   .text:00000000000011fc .LBB34
     /tmp/cctmPoEZ.s:2876   .text:0000000000001200 .LBE34
     /tmp/cctmPoEZ.s:2881   .text:0000000000001204 .LBB35
     /tmp/cctmPoEZ.s:2911   .text:0000000000001244 .LBE35
     /tmp/cctmPoEZ.s:3136   .text:0000000000001398 .LBB36
     /tmp/cctmPoEZ.s:3172   .text:00000000000013c8 .LBE36
     /tmp/cctmPoEZ.s:3174   .text:00000000000013c8 .LBB40
     /tmp/cctmPoEZ.s:3186   .text:00000000000013e0 .LBE40

UNDEFINED SYMBOLS
_Z10buddy_freePvm
_Z11buddy_allocm
_ZN8KConsole15trapPrintStringEPKc
_ZN8KConsole18trapPrintStringIntEPKcmi
_Z10buddy_initPvm
_Z14printBuddyInfov
_Z11getDeg2Ceilm
