GAS LISTING /tmp/ccRpaafE.s 			page 1


   1              		.file	"slabTests.cpp"
   2              		.option pic
   3              		.option norelax
   4              		.text
   5              	.Ltext0:
   6              		.align	2
   7              		.globl	_Z12slabInitTestv
   9              	_Z12slabInitTestv:
  10              	.LFB5:
  11              		.file 1 "src/kernel/slabTests.cpp"
   1:src/kernel/slabTests.cpp **** #include "../../h/slabTests.hpp"
   2:src/kernel/slabTests.cpp **** #include "../../h/KConsole.hpp"
   3:src/kernel/slabTests.cpp **** 
   4:src/kernel/slabTests.cpp **** void slabInitTest()
   5:src/kernel/slabTests.cpp **** {
  12              		.loc 1 5 1
  13              		.cfi_startproc
  14 0000 130101FF 		addi	sp,sp,-16
  15              		.cfi_def_cfa_offset 16
  16 0004 23341100 		sd	ra,8(sp)
  17 0008 23308100 		sd	s0,0(sp)
  18              		.cfi_offset 1, -8
  19              		.cfi_offset 8, -16
  20 000c 13040101 		addi	s0,sp,16
  21              		.cfi_def_cfa 8, 0
   6:src/kernel/slabTests.cpp ****     kmem_init((void*)HEAP_START_ADDR, 15);
  22              		.loc 1 6 5
  23              		.loc 1 6 14 is_stmt 0
  24 0010 9305F000 		li	a1,15
  25 0014 97070000 		la	a5,HEAP_START_ADDR
  25      83B70700 
  26 001c 03B50700 		ld	a0,0(a5)
  27 0020 97000000 		call	_Z9kmem_initPvi@plt
  27      E7800000 
  28              	.LVL0:
   7:src/kernel/slabTests.cpp **** }
  29              		.loc 1 7 1
  30 0028 83308100 		ld	ra,8(sp)
  31              		.cfi_restore 1
  32 002c 03340100 		ld	s0,0(sp)
  33              		.cfi_restore 8
  34              		.cfi_def_cfa 2, 16
  35 0030 13010101 		addi	sp,sp,16
  36              		.cfi_def_cfa_offset 0
  37 0034 67800000 		jr	ra
  38              		.cfi_endproc
  39              	.LFE5:
  41              		.section	.rodata.str1.8,"aMS",@progbits,1
  42              		.align	3
  43              	.LC0:
  44 0000 43616368 		.string	"Cache test"
  44      65207465 
  44      737400
  45 000b 00000000 		.align	3
  45      00
  46              	.LC1:
  47 0010 43616368 		.string	"Cache test 2"
GAS LISTING /tmp/ccRpaafE.s 			page 2


  47      65207465 
  47      73742032 
  47      00
  48 001d 000000   		.align	3
  49              	.LC2:
  50 0020 43616368 		.string	"Cache test 3"
  50      65207465 
  50      73742033 
  50      00
  51              		.text
  52              		.align	2
  53              		.globl	_Z19slabCacheCreateTestv
  55              	_Z19slabCacheCreateTestv:
  56              	.LFB6:
   8:src/kernel/slabTests.cpp **** 
   9:src/kernel/slabTests.cpp **** void slabCacheCreateTest()
  10:src/kernel/slabTests.cpp **** {
  57              		.loc 1 10 1 is_stmt 1
  58              		.cfi_startproc
  59 0038 130101FE 		addi	sp,sp,-32
  60              		.cfi_def_cfa_offset 32
  61 003c 233C1100 		sd	ra,24(sp)
  62 0040 23388100 		sd	s0,16(sp)
  63 0044 23349100 		sd	s1,8(sp)
  64 0048 23302101 		sd	s2,0(sp)
  65              		.cfi_offset 1, -8
  66              		.cfi_offset 8, -16
  67              		.cfi_offset 9, -24
  68              		.cfi_offset 18, -32
  69 004c 13040102 		addi	s0,sp,32
  70              		.cfi_def_cfa 8, 0
  11:src/kernel/slabTests.cpp ****     kmem_init((void*)HEAP_START_ADDR, 15);
  71              		.loc 1 11 5
  72              		.loc 1 11 14 is_stmt 0
  73 0050 9305F000 		li	a1,15
  74 0054 97070000 		la	a5,HEAP_START_ADDR
  74      83B70700 
  75 005c 03B50700 		ld	a0,0(a5)
  76 0060 97000000 		call	_Z9kmem_initPvi@plt
  76      E7800000 
  77              	.LVL1:
  12:src/kernel/slabTests.cpp ****     kmem_cache_t* cache = kmem_cache_create("Cache test", 10, nullptr,nullptr);
  78              		.loc 1 12 5 is_stmt 1
  79              		.loc 1 12 44 is_stmt 0
  80 0068 93060000 		li	a3,0
  81 006c 13060000 		li	a2,0
  82 0070 9305A000 		li	a1,10
  83 0074 17050000 		lla	a0,.LC0
  83      13050500 
  84 007c 97000000 		call	_Z17kmem_cache_createPKcmPFvPvES3_@plt
  84      E7800000 
  85              	.LVL2:
  86 0084 93040500 		mv	s1,a0
  87              	.LVL3:
  13:src/kernel/slabTests.cpp ****     kmem_cache_t* cache2 = kmem_cache_create("Cache test 2", 10, nullptr,nullptr);
  88              		.loc 1 13 5 is_stmt 1
  89              		.loc 1 13 45 is_stmt 0
GAS LISTING /tmp/ccRpaafE.s 			page 3


  90 0088 93060000 		li	a3,0
  91 008c 13060000 		li	a2,0
  92 0090 9305A000 		li	a1,10
  93 0094 17050000 		lla	a0,.LC1
  93      13050500 
  94 009c 97000000 		call	_Z17kmem_cache_createPKcmPFvPvES3_@plt
  94      E7800000 
  95              	.LVL4:
  96 00a4 13090500 		mv	s2,a0
  97              	.LVL5:
  14:src/kernel/slabTests.cpp ****     kmem_cache_t* cache3 = kmem_cache_create("Cache test 3", 10, nullptr,nullptr);
  98              		.loc 1 14 5 is_stmt 1
  99              		.loc 1 14 45 is_stmt 0
 100 00a8 93060000 		li	a3,0
 101 00ac 13060000 		li	a2,0
 102 00b0 9305A000 		li	a1,10
 103 00b4 17050000 		lla	a0,.LC2
 103      13050500 
 104              	.LVL6:
 105 00bc 97000000 		call	_Z17kmem_cache_createPKcmPFvPvES3_@plt
 105      E7800000 
 106              	.LVL7:
  15:src/kernel/slabTests.cpp ****     if(cache && cache2 && cache3)
 107              		.loc 1 15 5 is_stmt 1
 108 00c4 638A0400 		beqz	s1,.L3
 109              		.loc 1 15 14 is_stmt 0 discriminator 1
 110 00c8 63080900 		beqz	s2,.L3
 111              		.loc 1 15 24 discriminator 2
 112 00cc 63060500 		beqz	a0,.L3
  16:src/kernel/slabTests.cpp ****         printSlabAllocatorInfo();
 113              		.loc 1 16 9 is_stmt 1
 114              		.loc 1 16 31 is_stmt 0
 115 00d0 97000000 		call	_Z22printSlabAllocatorInfov@plt
 115      E7800000 
 116              	.LVL8:
 117              	.L3:
  17:src/kernel/slabTests.cpp **** }
 118              		.loc 1 17 1
 119 00d8 83308101 		ld	ra,24(sp)
 120              		.cfi_restore 1
 121 00dc 03340101 		ld	s0,16(sp)
 122              		.cfi_restore 8
 123              		.cfi_def_cfa 2, 32
 124 00e0 83348100 		ld	s1,8(sp)
 125              		.cfi_restore 9
 126              	.LVL9:
 127 00e4 03390100 		ld	s2,0(sp)
 128              		.cfi_restore 18
 129              	.LVL10:
 130 00e8 13010102 		addi	sp,sp,32
 131              		.cfi_def_cfa_offset 0
 132 00ec 67800000 		jr	ra
 133              		.cfi_endproc
 134              	.LFE6:
 136              		.align	2
 137              		.globl	_Z20slabCacheCreateTest2v
 139              	_Z20slabCacheCreateTest2v:
GAS LISTING /tmp/ccRpaafE.s 			page 4


 140              	.LFB7:
  18:src/kernel/slabTests.cpp **** 
  19:src/kernel/slabTests.cpp **** void slabCacheCreateTest2()
  20:src/kernel/slabTests.cpp **** {
 141              		.loc 1 20 1 is_stmt 1
 142              		.cfi_startproc
 143 00f0 130101FE 		addi	sp,sp,-32
 144              		.cfi_def_cfa_offset 32
 145 00f4 233C1100 		sd	ra,24(sp)
 146 00f8 23388100 		sd	s0,16(sp)
 147 00fc 23349100 		sd	s1,8(sp)
 148 0100 23302101 		sd	s2,0(sp)
 149              		.cfi_offset 1, -8
 150              		.cfi_offset 8, -16
 151              		.cfi_offset 9, -24
 152              		.cfi_offset 18, -32
 153 0104 13040102 		addi	s0,sp,32
 154              		.cfi_def_cfa 8, 0
  21:src/kernel/slabTests.cpp ****     kmem_init((void*)HEAP_START_ADDR, 15);
 155              		.loc 1 21 5
 156              		.loc 1 21 14 is_stmt 0
 157 0108 9305F000 		li	a1,15
 158 010c 97070000 		la	a5,HEAP_START_ADDR
 158      83B70700 
 159 0114 03B50700 		ld	a0,0(a5)
 160 0118 97000000 		call	_Z9kmem_initPvi@plt
 160      E7800000 
 161              	.LVL11:
  22:src/kernel/slabTests.cpp ****     kmem_cache_t * cache = nullptr;
 162              		.loc 1 22 5 is_stmt 1
  23:src/kernel/slabTests.cpp ****     for(int i = 1;i<=68;i++)
 163              		.loc 1 23 5
 164              	.LBB2:
 165              		.loc 1 23 13 is_stmt 0
 166 0120 93041000 		li	s1,1
 167              	.LBE2:
  22:src/kernel/slabTests.cpp ****     kmem_cache_t * cache = nullptr;
 168              		.loc 1 22 20
 169 0124 13090000 		li	s2,0
 170              	.LVL12:
 171              	.L8:
 172              	.LBB3:
 173              		.loc 1 23 20 is_stmt 1 discriminator 3
 174 0128 93074004 		li	a5,68
 175 012c 63C69702 		bgt	s1,a5,.L7
  24:src/kernel/slabTests.cpp ****     {
  25:src/kernel/slabTests.cpp ****         cache = kmem_cache_create("Cache test", 10, nullptr,nullptr);
 176              		.loc 1 25 9 discriminator 2
 177              		.loc 1 25 34 is_stmt 0 discriminator 2
 178 0130 93060000 		li	a3,0
 179 0134 13060000 		li	a2,0
 180 0138 9305A000 		li	a1,10
 181 013c 17050000 		lla	a0,.LC0
 181      13050500 
 182 0144 97000000 		call	_Z17kmem_cache_createPKcmPFvPvES3_@plt
 182      E7800000 
 183              	.LVL13:
GAS LISTING /tmp/ccRpaafE.s 			page 5


 184 014c 13090500 		mv	s2,a0
 185              	.LVL14:
  23:src/kernel/slabTests.cpp ****     for(int i = 1;i<=68;i++)
 186              		.loc 1 23 5 is_stmt 1 discriminator 2
 187 0150 9B841400 		addiw	s1,s1,1
 188              	.LVL15:
 189 0154 6FF05FFD 		j	.L8
 190              	.LVL16:
 191              	.L7:
 192              	.LBE3:
  26:src/kernel/slabTests.cpp ****     }
  27:src/kernel/slabTests.cpp ****     printSlabAllocatorInfo();
 193              		.loc 1 27 5
 194              		.loc 1 27 27 is_stmt 0
 195 0158 97000000 		call	_Z22printSlabAllocatorInfov@plt
 195      E7800000 
 196              	.LVL17:
  28:src/kernel/slabTests.cpp ****     kmem_cache_destroy(cache);
 197              		.loc 1 28 5 is_stmt 1
 198              		.loc 1 28 23 is_stmt 0
 199 0160 13050900 		mv	a0,s2
 200 0164 97000000 		call	_Z18kmem_cache_destroyP12kmem_cache_s@plt
 200      E7800000 
 201              	.LVL18:
  29:src/kernel/slabTests.cpp ****     printSlabAllocatorInfo();
 202              		.loc 1 29 5 is_stmt 1
 203              		.loc 1 29 27 is_stmt 0
 204 016c 97000000 		call	_Z22printSlabAllocatorInfov@plt
 204      E7800000 
 205              	.LVL19:
  30:src/kernel/slabTests.cpp **** }
 206              		.loc 1 30 1
 207 0174 83308101 		ld	ra,24(sp)
 208              		.cfi_restore 1
 209 0178 03340101 		ld	s0,16(sp)
 210              		.cfi_restore 8
 211              		.cfi_def_cfa 2, 32
 212 017c 83348100 		ld	s1,8(sp)
 213              		.cfi_restore 9
 214              	.LVL20:
 215 0180 03390100 		ld	s2,0(sp)
 216              		.cfi_restore 18
 217              	.LVL21:
 218 0184 13010102 		addi	sp,sp,32
 219              		.cfi_def_cfa_offset 0
 220 0188 67800000 		jr	ra
 221              		.cfi_endproc
 222              	.LFE7:
 224              		.section	.rodata.str1.8
 225 002d 000000   		.align	3
 226              	.LC3:
 227 0030 4E756C6C 		.string	"Nullptr je\n"
 227      70747220 
 227      6A650A00 
 228 003c 00000000 		.align	3
 229              	.LC4:
 230 0040 692000   		.string	"i "
GAS LISTING /tmp/ccRpaafE.s 			page 6


 231 0043 00000000 		.align	3
 231      00
 232              	.LC5:
 233 0048 6A2000   		.string	"j "
 234              		.text
 235              		.align	2
 236              		.globl	_Z11testKmallocv
 238              	_Z11testKmallocv:
 239              	.LFB8:
  31:src/kernel/slabTests.cpp **** 
  32:src/kernel/slabTests.cpp **** void testKmalloc()
  33:src/kernel/slabTests.cpp **** {
 240              		.loc 1 33 1 is_stmt 1
 241              		.cfi_startproc
 242 018c 130101FC 		addi	sp,sp,-64
 243              		.cfi_def_cfa_offset 64
 244 0190 233C1102 		sd	ra,56(sp)
 245 0194 23388102 		sd	s0,48(sp)
 246 0198 23349102 		sd	s1,40(sp)
 247 019c 23302103 		sd	s2,32(sp)
 248 01a0 233C3101 		sd	s3,24(sp)
 249 01a4 23384101 		sd	s4,16(sp)
 250 01a8 23345101 		sd	s5,8(sp)
 251              		.cfi_offset 1, -8
 252              		.cfi_offset 8, -16
 253              		.cfi_offset 9, -24
 254              		.cfi_offset 18, -32
 255              		.cfi_offset 19, -40
 256              		.cfi_offset 20, -48
 257              		.cfi_offset 21, -56
 258 01ac 13040104 		addi	s0,sp,64
 259              		.cfi_def_cfa 8, 0
  34:src/kernel/slabTests.cpp ****     void** x = (void**)kmalloc(sizeof(void*)*200);
 260              		.loc 1 34 5
 261              		.loc 1 34 31 is_stmt 0
 262 01b0 13050064 		li	a0,1600
 263 01b4 97000000 		call	_Z7kmallocm@plt
 263      E7800000 
 264              	.LVL22:
 265 01bc 130A0500 		mv	s4,a0
 266              	.LVL23:
  35:src/kernel/slabTests.cpp ****     int indeks = 0;
 267              		.loc 1 35 5 is_stmt 1
  36:src/kernel/slabTests.cpp ****     for(int i = 0;i < 10;i++)
 268              		.loc 1 36 5
 269              	.LBB4:
 270              		.loc 1 36 13 is_stmt 0
 271 01c0 930A0000 		li	s5,0
 272              	.LBE4:
  35:src/kernel/slabTests.cpp ****     int indeks = 0;
 273              		.loc 1 35 9
 274 01c4 93040000 		li	s1,0
 275 01c8 6F000008 		j	.L15
 276              	.LVL24:
 277              	.L13:
 278              	.LBB9:
 279              	.LBB5:
GAS LISTING /tmp/ccRpaafE.s 			page 7


  37:src/kernel/slabTests.cpp ****     {
  38:src/kernel/slabTests.cpp ****         for(int j = 5;j<=18;j++)
 280              		.loc 1 38 9 is_stmt 1 discriminator 2
 281 01cc 1B091900 		addiw	s2,s2,1
 282              	.LVL25:
 283              	.LBB6:
  39:src/kernel/slabTests.cpp ****         {
  40:src/kernel/slabTests.cpp ****             void* adr = kmalloc(1 << j);
  41:src/kernel/slabTests.cpp ****             x[indeks++] = adr;
 284              		.loc 1 41 21 is_stmt 0 discriminator 2
 285 01d0 93840900 		mv	s1,s3
 286              	.L14:
 287              	.LVL26:
 288              	.LBE6:
  38:src/kernel/slabTests.cpp ****         {
 289              		.loc 1 38 24 is_stmt 1 discriminator 1
 290 01d4 93072001 		li	a5,18
 291 01d8 63C62707 		bgt	s2,a5,.L12
 292              	.LBB7:
  40:src/kernel/slabTests.cpp ****             x[indeks++] = adr;
 293              		.loc 1 40 13
  40:src/kernel/slabTests.cpp ****             x[indeks++] = adr;
 294              		.loc 1 40 32 is_stmt 0
 295 01dc 13051000 		li	a0,1
 296 01e0 3B152501 		sllw	a0,a0,s2
 297 01e4 97000000 		call	_Z7kmallocm@plt
 297      E7800000 
 298              	.LVL27:
 299              		.loc 1 41 13 is_stmt 1
 300              		.loc 1 41 21 is_stmt 0
 301 01ec 9B891400 		addiw	s3,s1,1
 302              	.LVL28:
 303              		.loc 1 41 23
 304 01f0 93943400 		slli	s1,s1,3
 305              	.LVL29:
 306 01f4 B3049A00 		add	s1,s4,s1
 307              		.loc 1 41 25
 308 01f8 23B0A400 		sd	a0,0(s1)
  42:src/kernel/slabTests.cpp ****             if(adr == nullptr)
 309              		.loc 1 42 13 is_stmt 1
 310 01fc E31805FC 		bnez	a0,.L13
  43:src/kernel/slabTests.cpp ****             {
  44:src/kernel/slabTests.cpp ****                 KConsole::trapPrintString("Nullptr je\n");
 311              		.loc 1 44 17
 312              		.loc 1 44 42 is_stmt 0
 313 0200 17050000 		lla	a0,.LC3
 313      13050500 
 314              	.LVL30:
 315 0208 97000000 		call	_ZN8KConsole15trapPrintStringEPKc@plt
 315      E7800000 
 316              	.LVL31:
  45:src/kernel/slabTests.cpp ****                 KConsole::trapPrintStringInt("i ", i);
 317              		.loc 1 45 17 is_stmt 1
 318              		.loc 1 45 45 is_stmt 0
 319 0210 1306A000 		li	a2,10
 320 0214 93850A00 		mv	a1,s5
 321 0218 17050000 		lla	a0,.LC4
GAS LISTING /tmp/ccRpaafE.s 			page 8


 321      13050500 
 322 0220 97000000 		call	_ZN8KConsole18trapPrintStringIntEPKcmi@plt
 322      E7800000 
 323              	.LVL32:
  46:src/kernel/slabTests.cpp ****                 KConsole::trapPrintStringInt("j ", j);
 324              		.loc 1 46 17 is_stmt 1
 325              		.loc 1 46 45 is_stmt 0
 326 0228 1306A000 		li	a2,10
 327 022c 93050900 		mv	a1,s2
 328 0230 17050000 		lla	a0,.LC5
 328      13050500 
 329 0238 97000000 		call	_ZN8KConsole18trapPrintStringIntEPKcmi@plt
 329      E7800000 
 330              	.LVL33:
 331 0240 6FF0DFF8 		j	.L13
 332              	.LVL34:
 333              	.L12:
 334              	.LBE7:
 335              	.LBE5:
  36:src/kernel/slabTests.cpp ****     {
 336              		.loc 1 36 5 is_stmt 1 discriminator 2
 337 0244 9B8A1A00 		addiw	s5,s5,1
 338              	.LVL35:
 339              	.L15:
  36:src/kernel/slabTests.cpp ****     {
 340              		.loc 1 36 21 discriminator 1
 341 0248 93079000 		li	a5,9
 342 024c 63C65701 		bgt	s5,a5,.L11
 343              	.LBB8:
  38:src/kernel/slabTests.cpp ****         {
 344              		.loc 1 38 17 is_stmt 0
 345 0250 13095000 		li	s2,5
 346 0254 6FF01FF8 		j	.L14
 347              	.L11:
 348              	.LBE8:
 349              	.LBE9:
  47:src/kernel/slabTests.cpp ****             }
  48:src/kernel/slabTests.cpp ****         }
  49:src/kernel/slabTests.cpp ****     }
  50:src/kernel/slabTests.cpp ****     /*for(int i = 0; i < indeks;i++)
  51:src/kernel/slabTests.cpp ****     {
  52:src/kernel/slabTests.cpp ****         kfree(x[i]);
  53:src/kernel/slabTests.cpp ****     }*/
  54:src/kernel/slabTests.cpp ****     printSlabAllocatorInfo();
 350              		.loc 1 54 5 is_stmt 1
 351              		.loc 1 54 27 is_stmt 0
 352 0258 97000000 		call	_Z22printSlabAllocatorInfov@plt
 352      E7800000 
 353              	.LVL36:
  55:src/kernel/slabTests.cpp **** }
 354              		.loc 1 55 1
 355 0260 83308103 		ld	ra,56(sp)
 356              		.cfi_restore 1
 357 0264 03340103 		ld	s0,48(sp)
 358              		.cfi_restore 8
 359              		.cfi_def_cfa 2, 64
 360 0268 83348102 		ld	s1,40(sp)
GAS LISTING /tmp/ccRpaafE.s 			page 9


 361              		.cfi_restore 9
 362              	.LVL37:
 363 026c 03390102 		ld	s2,32(sp)
 364              		.cfi_restore 18
 365 0270 83398101 		ld	s3,24(sp)
 366              		.cfi_restore 19
 367 0274 033A0101 		ld	s4,16(sp)
 368              		.cfi_restore 20
 369              	.LVL38:
 370 0278 833A8100 		ld	s5,8(sp)
 371              		.cfi_restore 21
 372              	.LVL39:
 373 027c 13010104 		addi	sp,sp,64
 374              		.cfi_def_cfa_offset 0
 375 0280 67800000 		jr	ra
 376              		.cfi_endproc
 377              	.LFE8:
 379              		.align	2
 380              		.globl	_Z6memsetPKvii
 382              	_Z6memsetPKvii:
 383              	.LFB9:
  56:src/kernel/slabTests.cpp **** 
  57:src/kernel/slabTests.cpp **** 
  58:src/kernel/slabTests.cpp **** //-------------------------------------------------------------------------------------------------
  59:src/kernel/slabTests.cpp **** //OS2 testovi
  60:src/kernel/slabTests.cpp **** 
  61:src/kernel/slabTests.cpp **** #define RUN_NUM (5)
  62:src/kernel/slabTests.cpp **** #define ITERATIONS (1000)
  63:src/kernel/slabTests.cpp **** 
  64:src/kernel/slabTests.cpp **** #define shared_size (7)
  65:src/kernel/slabTests.cpp **** #define MASK (0xA5)
  66:src/kernel/slabTests.cpp **** 
  67:src/kernel/slabTests.cpp **** struct data_s {
  68:src/kernel/slabTests.cpp ****     int id;
  69:src/kernel/slabTests.cpp ****     kmem_cache_t  *shared;
  70:src/kernel/slabTests.cpp ****     int iterations;
  71:src/kernel/slabTests.cpp **** };
  72:src/kernel/slabTests.cpp **** 
  73:src/kernel/slabTests.cpp **** const char * const CACHE_NAMES[] = {"tc_0",
  74:src/kernel/slabTests.cpp ****                                     "tc_1",
  75:src/kernel/slabTests.cpp ****                                     "tc_2",
  76:src/kernel/slabTests.cpp ****                                     "tc_3",
  77:src/kernel/slabTests.cpp ****                                     "tc_4"};
  78:src/kernel/slabTests.cpp **** 
  79:src/kernel/slabTests.cpp **** void memset(const void *data, int size, int value) {
 384              		.loc 1 79 52 is_stmt 1
 385              		.cfi_startproc
 386              	.LVL40:
 387 0284 130101FF 		addi	sp,sp,-16
 388              		.cfi_def_cfa_offset 16
 389 0288 23348100 		sd	s0,8(sp)
 390              		.cfi_offset 8, -8
 391 028c 13040101 		addi	s0,sp,16
 392              		.cfi_def_cfa 8, 0
  80:src/kernel/slabTests.cpp ****     for (int j = 0; j < size; j++) {
 393              		.loc 1 80 5
 394              	.LVL41:
GAS LISTING /tmp/ccRpaafE.s 			page 10


 395              	.LBB10:
 396              		.loc 1 80 14 is_stmt 0
 397 0290 93070000 		li	a5,0
 398              	.LVL42:
 399              	.L19:
 400              		.loc 1 80 23 is_stmt 1 discriminator 3
 401 0294 63DAB700 		bge	a5,a1,.L17
  81:src/kernel/slabTests.cpp ****         *((char *)data + j) = value;
 402              		.loc 1 81 9 discriminator 2
 403              		.loc 1 81 24 is_stmt 0 discriminator 2
 404 0298 3307F500 		add	a4,a0,a5
 405              		.loc 1 81 29 discriminator 2
 406 029c 2300C700 		sb	a2,0(a4)
  80:src/kernel/slabTests.cpp ****     for (int j = 0; j < size; j++) {
 407              		.loc 1 80 5 is_stmt 1 discriminator 2
 408 02a0 9B871700 		addiw	a5,a5,1
 409              	.LVL43:
 410 02a4 6FF01FFF 		j	.L19
 411              	.LVL44:
 412              	.L17:
 413              	.LBE10:
  82:src/kernel/slabTests.cpp ****     }
  83:src/kernel/slabTests.cpp **** }
 414              		.loc 1 83 1 is_stmt 0
 415 02a8 03348100 		ld	s0,8(sp)
 416              		.cfi_restore 8
 417              		.cfi_def_cfa 2, 16
 418 02ac 13010101 		addi	sp,sp,16
 419              		.cfi_def_cfa_offset 0
 420 02b0 67800000 		jr	ra
 421              		.cfi_endproc
 422              	.LFE9:
 424              		.align	2
 425              		.globl	_Z9constructPv
 427              	_Z9constructPv:
 428              	.LFB10:
  84:src/kernel/slabTests.cpp **** 
  85:src/kernel/slabTests.cpp **** void construct(void *data) {
 429              		.loc 1 85 28 is_stmt 1
 430              		.cfi_startproc
 431              	.LVL45:
 432 02b4 130101FF 		addi	sp,sp,-16
 433              		.cfi_def_cfa_offset 16
 434 02b8 23341100 		sd	ra,8(sp)
 435 02bc 23308100 		sd	s0,0(sp)
 436              		.cfi_offset 1, -8
 437              		.cfi_offset 8, -16
 438 02c0 13040101 		addi	s0,sp,16
 439              		.cfi_def_cfa 8, 0
  86:src/kernel/slabTests.cpp ****     //static int i = 1;
  87:src/kernel/slabTests.cpp ****     //KConsole::trapPrintInt(i); i++;
  88:src/kernel/slabTests.cpp ****     //KConsole::trapPrintString(" Shared object constructed.\n");
  89:src/kernel/slabTests.cpp ****     memset(data, shared_size, MASK);
 440              		.loc 1 89 5
 441              		.loc 1 89 11 is_stmt 0
 442 02c4 1306500A 		li	a2,165
 443 02c8 93057000 		li	a1,7
GAS LISTING /tmp/ccRpaafE.s 			page 11


 444 02cc 97000000 		call	_Z6memsetPKvii
 444      E7800000 
 445              	.LVL46:
  90:src/kernel/slabTests.cpp **** }
 446              		.loc 1 90 1
 447 02d4 83308100 		ld	ra,8(sp)
 448              		.cfi_restore 1
 449 02d8 03340100 		ld	s0,0(sp)
 450              		.cfi_restore 8
 451              		.cfi_def_cfa 2, 16
 452 02dc 13010101 		addi	sp,sp,16
 453              		.cfi_def_cfa_offset 0
 454 02e0 67800000 		jr	ra
 455              		.cfi_endproc
 456              	.LFE10:
 458              		.align	2
 459              		.globl	_Z5checkPvm
 461              	_Z5checkPvm:
 462              	.LFB11:
  91:src/kernel/slabTests.cpp **** 
  92:src/kernel/slabTests.cpp **** int check(void *data, size_t size) {
 463              		.loc 1 92 36 is_stmt 1
 464              		.cfi_startproc
 465              	.LVL47:
 466 02e4 130101FF 		addi	sp,sp,-16
 467              		.cfi_def_cfa_offset 16
 468 02e8 23348100 		sd	s0,8(sp)
 469              		.cfi_offset 8, -8
 470 02ec 13040101 		addi	s0,sp,16
 471              		.cfi_def_cfa 8, 0
 472 02f0 13060500 		mv	a2,a0
  93:src/kernel/slabTests.cpp ****     int ret = 1;
 473              		.loc 1 93 5
 474              	.LVL48:
  94:src/kernel/slabTests.cpp ****     for (size_t i = 0; i < size; i++) {
 475              		.loc 1 94 5
 476              	.LBB11:
 477              		.loc 1 94 17 is_stmt 0
 478 02f4 93070000 		li	a5,0
 479              	.LBE11:
  93:src/kernel/slabTests.cpp ****     int ret = 1;
 480              		.loc 1 93 9
 481 02f8 13051000 		li	a0,1
 482              	.LVL49:
 483 02fc 6F008000 		j	.L26
 484              	.LVL50:
 485              	.L25:
 486              	.LBB12:
 487              		.loc 1 94 5 is_stmt 1 discriminator 2
 488 0300 93871700 		addi	a5,a5,1
 489              	.LVL51:
 490              	.L26:
 491              		.loc 1 94 26 discriminator 1
 492 0304 63FEB700 		bgeu	a5,a1,.L24
  95:src/kernel/slabTests.cpp ****         if (((unsigned char *)data)[i] != MASK) {
 493              		.loc 1 95 9
 494              		.loc 1 95 38 is_stmt 0
GAS LISTING /tmp/ccRpaafE.s 			page 12


 495 0308 3307F600 		add	a4,a2,a5
 496 030c 83460700 		lbu	a3,0(a4)
 497              		.loc 1 95 9
 498 0310 1307500A 		li	a4,165
 499 0314 E386E6FE 		beq	a3,a4,.L25
  96:src/kernel/slabTests.cpp ****             ret = 0;
 500              		.loc 1 96 17
 501 0318 13050000 		li	a0,0
 502              	.LVL52:
 503 031c 6FF05FFE 		j	.L25
 504              	.LVL53:
 505              	.L24:
 506              	.LBE12:
  97:src/kernel/slabTests.cpp ****         }
  98:src/kernel/slabTests.cpp ****     }
  99:src/kernel/slabTests.cpp **** 
 100:src/kernel/slabTests.cpp ****     return ret;
 507              		.loc 1 100 5 is_stmt 1
 101:src/kernel/slabTests.cpp **** }
 508              		.loc 1 101 1 is_stmt 0
 509 0320 03348100 		ld	s0,8(sp)
 510              		.cfi_restore 8
 511              		.cfi_def_cfa 2, 16
 512 0324 13010101 		addi	sp,sp,16
 513              		.cfi_def_cfa_offset 0
 514 0328 67800000 		jr	ra
 515              		.cfi_endproc
 516              	.LFE11:
 518              		.section	.rodata.str1.8
 519 004b 00000000 		.align	3
 519      00
 520              	.LC6:
 521 0050 56616C75 		.string	"Value not correct!"
 521      65206E6F 
 521      7420636F 
 521      72726563 
 521      742100
 522              		.text
 523              		.align	2
 524              		.globl	_Z4workPv
 526              	_Z4workPv:
 527              	.LFB12:
 102:src/kernel/slabTests.cpp **** 
 103:src/kernel/slabTests.cpp **** struct objects_s {
 104:src/kernel/slabTests.cpp ****     kmem_cache_t *cache;
 105:src/kernel/slabTests.cpp ****     void *data;
 106:src/kernel/slabTests.cpp **** };
 107:src/kernel/slabTests.cpp **** 
 108:src/kernel/slabTests.cpp **** void work(void* pdata)
 109:src/kernel/slabTests.cpp **** {
 528              		.loc 1 109 1 is_stmt 1
 529              		.cfi_startproc
 530              	.LVL54:
 531 032c 130101F8 		addi	sp,sp,-128
 532              		.cfi_def_cfa_offset 128
 533 0330 233C1106 		sd	ra,120(sp)
 534 0334 23388106 		sd	s0,112(sp)
GAS LISTING /tmp/ccRpaafE.s 			page 13


 535 0338 23349106 		sd	s1,104(sp)
 536 033c 23302107 		sd	s2,96(sp)
 537 0340 233C3105 		sd	s3,88(sp)
 538 0344 23384105 		sd	s4,80(sp)
 539 0348 23345105 		sd	s5,72(sp)
 540 034c 23306105 		sd	s6,64(sp)
 541 0350 233C7103 		sd	s7,56(sp)
 542 0354 23388103 		sd	s8,48(sp)
 543 0358 23349103 		sd	s9,40(sp)
 544              		.cfi_offset 1, -8
 545              		.cfi_offset 8, -16
 546              		.cfi_offset 9, -24
 547              		.cfi_offset 18, -32
 548              		.cfi_offset 19, -40
 549              		.cfi_offset 20, -48
 550              		.cfi_offset 21, -56
 551              		.cfi_offset 22, -64
 552              		.cfi_offset 23, -72
 553              		.cfi_offset 24, -80
 554              		.cfi_offset 25, -88
 555 035c 13040108 		addi	s0,sp,128
 556              		.cfi_def_cfa 8, 0
 110:src/kernel/slabTests.cpp ****     struct data_s data = *(struct data_s*) pdata;
 557              		.loc 1 110 5
 558              		.loc 1 110 19 is_stmt 0
 559 0360 033C0500 		ld	s8,0(a0)
 560 0364 233484F9 		sd	s8,-120(s0)
 561 0368 83378500 		ld	a5,8(a0)
 562 036c 2338F4F8 		sd	a5,-112(s0)
 563 0370 83370501 		ld	a5,16(a0)
 564 0374 233CF4F8 		sd	a5,-104(s0)
 111:src/kernel/slabTests.cpp ****     int size = 0;
 565              		.loc 1 111 5 is_stmt 1
 566              	.LVL55:
 112:src/kernel/slabTests.cpp ****     int object_size = data.id + 1;
 567              		.loc 1 112 5
 568              		.loc 1 112 28 is_stmt 0
 569 0378 9B070C00 		sext.w	a5,s8
 570              		.loc 1 112 9
 571 037c 1B0C1C00 		addiw	s8,s8,1
 572              	.LVL56:
 113:src/kernel/slabTests.cpp ****     kmem_cache_t *cache = kmem_cache_create(CACHE_NAMES[data.id], object_size, 0, 0);
 573              		.loc 1 113 5 is_stmt 1
 574              		.loc 1 113 64 is_stmt 0
 575 0380 13973700 		slli	a4,a5,3
 576 0384 97070000 		lla	a5,.LANCHOR0
 576      93870700 
 577              	.LVL57:
 578 038c B387E700 		add	a5,a5,a4
 579              		.loc 1 113 44
 580 0390 130B0C00 		mv	s6,s8
 581 0394 93060000 		li	a3,0
 582 0398 13060000 		li	a2,0
 583 039c 93050C00 		mv	a1,s8
 584 03a0 03B50700 		ld	a0,0(a5)
 585              	.LVL58:
 586 03a4 97000000 		call	_Z17kmem_cache_createPKcmPFvPvES3_@plt
GAS LISTING /tmp/ccRpaafE.s 			page 14


 586      E7800000 
 587              	.LVL59:
 588 03ac 130A0500 		mv	s4,a0
 589              	.LVL60:
 114:src/kernel/slabTests.cpp **** 
 115:src/kernel/slabTests.cpp ****     struct objects_s *objs = (struct objects_s*)(kmalloc(sizeof(struct objects_s) * data.iterations
 590              		.loc 1 115 5 is_stmt 1
 591              		.loc 1 115 90 is_stmt 0
 592 03b0 832B84F9 		lw	s7,-104(s0)
 593              		.loc 1 115 57
 594 03b4 13954B00 		slli	a0,s7,4
 595              	.LVL61:
 596 03b8 97000000 		call	_Z7kmallocm@plt
 596      E7800000 
 597              	.LVL62:
 598 03c0 930A0500 		mv	s5,a0
 599              	.LBB13:
 116:src/kernel/slabTests.cpp **** 
 117:src/kernel/slabTests.cpp ****     for (int i = 0; i < data.iterations; i++) {
 600              		.loc 1 117 14
 601 03c4 93040000 		li	s1,0
 602              	.LBE13:
 111:src/kernel/slabTests.cpp ****     int object_size = data.id + 1;
 603              		.loc 1 111 9
 604 03c8 93090000 		li	s3,0
 605 03cc 6F008003 		j	.L33
 606              	.LVL63:
 607              	.L31:
 608              	.LBB14:
 118:src/kernel/slabTests.cpp ****         if (i % 100 == 0) {
 119:src/kernel/slabTests.cpp ****             objs[size].data = kmem_cache_alloc(data.shared);
 120:src/kernel/slabTests.cpp ****             objs[size].cache = data.shared;
 121:src/kernel/slabTests.cpp ****             if (!check(objs[size].data, shared_size)) {
 122:src/kernel/slabTests.cpp ****                 KConsole::trapPrintString("Value not correct!");
 123:src/kernel/slabTests.cpp ****             }
 124:src/kernel/slabTests.cpp ****         }
 125:src/kernel/slabTests.cpp ****         else {
 126:src/kernel/slabTests.cpp ****             objs[size].data = kmem_cache_alloc(cache);
 609              		.loc 1 126 13 is_stmt 1
 610              		.loc 1 126 22 is_stmt 0
 611 03d0 13994900 		slli	s2,s3,4
 612 03d4 33892A01 		add	s2,s5,s2
 613              		.loc 1 126 47
 614 03d8 13050A00 		mv	a0,s4
 615 03dc 97000000 		call	_Z16kmem_cache_allocP12kmem_cache_s@plt
 615      E7800000 
 616              	.LVL64:
 617              		.loc 1 126 29
 618 03e4 2334A900 		sd	a0,8(s2)
 127:src/kernel/slabTests.cpp ****             objs[size].cache = cache;
 619              		.loc 1 127 13 is_stmt 1
 620              		.loc 1 127 30 is_stmt 0
 621 03e8 23304901 		sd	s4,0(s2)
 128:src/kernel/slabTests.cpp ****             memset(objs[size].data, object_size, MASK);
 622              		.loc 1 128 13 is_stmt 1
 623              		.loc 1 128 19 is_stmt 0
 624 03ec 1306500A 		li	a2,165
GAS LISTING /tmp/ccRpaafE.s 			page 15


 625 03f0 93050C00 		mv	a1,s8
 626 03f4 97000000 		call	_Z6memsetPKvii
 626      E7800000 
 627              	.LVL65:
 628              	.L32:
 129:src/kernel/slabTests.cpp ****         }
 130:src/kernel/slabTests.cpp ****         size++;
 629              		.loc 1 130 9 is_stmt 1 discriminator 2
 630              		.loc 1 130 13 is_stmt 0 discriminator 2
 631 03fc 9B891900 		addiw	s3,s3,1
 632              	.LVL66:
 117:src/kernel/slabTests.cpp ****         if (i % 100 == 0) {
 633              		.loc 1 117 5 is_stmt 1 discriminator 2
 634 0400 9B841400 		addiw	s1,s1,1
 635              	.LVL67:
 636              	.L33:
 117:src/kernel/slabTests.cpp ****         if (i % 100 == 0) {
 637              		.loc 1 117 23 discriminator 1
 638 0404 63DA7405 		ble	s7,s1,.L30
 118:src/kernel/slabTests.cpp ****             objs[size].data = kmem_cache_alloc(data.shared);
 639              		.loc 1 118 9
 118:src/kernel/slabTests.cpp ****             objs[size].data = kmem_cache_alloc(data.shared);
 640              		.loc 1 118 15 is_stmt 0
 641 0408 93074006 		li	a5,100
 642 040c BBE7F402 		remw	a5,s1,a5
 118:src/kernel/slabTests.cpp ****             objs[size].data = kmem_cache_alloc(data.shared);
 643              		.loc 1 118 9
 644 0410 E39007FC 		bnez	a5,.L31
 119:src/kernel/slabTests.cpp ****             objs[size].cache = data.shared;
 645              		.loc 1 119 13 is_stmt 1
 119:src/kernel/slabTests.cpp ****             objs[size].cache = data.shared;
 646              		.loc 1 119 47 is_stmt 0
 647 0414 833C04F9 		ld	s9,-112(s0)
 119:src/kernel/slabTests.cpp ****             objs[size].cache = data.shared;
 648              		.loc 1 119 22
 649 0418 13994900 		slli	s2,s3,4
 650 041c 33892A01 		add	s2,s5,s2
 119:src/kernel/slabTests.cpp ****             objs[size].cache = data.shared;
 651              		.loc 1 119 47
 652 0420 13850C00 		mv	a0,s9
 653 0424 97000000 		call	_Z16kmem_cache_allocP12kmem_cache_s@plt
 653      E7800000 
 654              	.LVL68:
 119:src/kernel/slabTests.cpp ****             objs[size].cache = data.shared;
 655              		.loc 1 119 29
 656 042c 2334A900 		sd	a0,8(s2)
 120:src/kernel/slabTests.cpp ****             if (!check(objs[size].data, shared_size)) {
 657              		.loc 1 120 13 is_stmt 1
 120:src/kernel/slabTests.cpp ****             if (!check(objs[size].data, shared_size)) {
 658              		.loc 1 120 30 is_stmt 0
 659 0430 23309901 		sd	s9,0(s2)
 121:src/kernel/slabTests.cpp ****                 KConsole::trapPrintString("Value not correct!");
 660              		.loc 1 121 13 is_stmt 1
 121:src/kernel/slabTests.cpp ****                 KConsole::trapPrintString("Value not correct!");
 661              		.loc 1 121 23 is_stmt 0
 662 0434 93057000 		li	a1,7
 663 0438 97000000 		call	_Z5checkPvm
GAS LISTING /tmp/ccRpaafE.s 			page 16


 663      E7800000 
 664              	.LVL69:
 121:src/kernel/slabTests.cpp ****                 KConsole::trapPrintString("Value not correct!");
 665              		.loc 1 121 13
 666 0440 E31E05FA 		bnez	a0,.L32
 122:src/kernel/slabTests.cpp ****             }
 667              		.loc 1 122 17 is_stmt 1
 122:src/kernel/slabTests.cpp ****             }
 668              		.loc 1 122 42 is_stmt 0
 669 0444 17050000 		lla	a0,.LC6
 669      13050500 
 670 044c 97000000 		call	_ZN8KConsole15trapPrintStringEPKc@plt
 670      E7800000 
 671              	.LVL70:
 672 0454 6FF09FFA 		j	.L32
 673              	.L30:
 674              	.LBE14:
 131:src/kernel/slabTests.cpp ****     }
 132:src/kernel/slabTests.cpp **** 
 133:src/kernel/slabTests.cpp ****     kmem_cache_info(cache);
 675              		.loc 1 133 5 is_stmt 1
 676              		.loc 1 133 20 is_stmt 0
 677 0458 13050A00 		mv	a0,s4
 678 045c 97000000 		call	_Z15kmem_cache_infoP12kmem_cache_s@plt
 678      E7800000 
 679              	.LVL71:
 134:src/kernel/slabTests.cpp ****     kmem_cache_info(data.shared);
 680              		.loc 1 134 5 is_stmt 1
 681              		.loc 1 134 20 is_stmt 0
 682 0464 033504F9 		ld	a0,-112(s0)
 683 0468 97000000 		call	_Z15kmem_cache_infoP12kmem_cache_s@plt
 683      E7800000 
 684              	.LVL72:
 685              	.LBB15:
 135:src/kernel/slabTests.cpp ****     //printSlabAllocatorInfo();
 136:src/kernel/slabTests.cpp **** 
 137:src/kernel/slabTests.cpp ****     for (int i = 0; i < size; i++) {
 686              		.loc 1 137 14
 687 0470 13090000 		li	s2,0
 688 0474 6F000003 		j	.L37
 689              	.LVL73:
 690              	.L38:
 138:src/kernel/slabTests.cpp ****         if (!check(objs[i].data, (cache == objs[i].cache) ? object_size : shared_size)) {
 691              		.loc 1 138 19
 692 0478 93050B00 		mv	a1,s6
 693 047c 6F004004 		j	.L35
 694              	.L40:
 139:src/kernel/slabTests.cpp ****             KConsole::trapPrintString("Value not correct!");
 695              		.loc 1 139 13 is_stmt 1
 696              		.loc 1 139 38 is_stmt 0
 697 0480 17050000 		lla	a0,.LC6
 697      13050500 
 698 0488 97000000 		call	_ZN8KConsole15trapPrintStringEPKc@plt
 698      E7800000 
 699              	.LVL74:
 700              	.L36:
 140:src/kernel/slabTests.cpp ****         }
GAS LISTING /tmp/ccRpaafE.s 			page 17


 141:src/kernel/slabTests.cpp ****         kmem_cache_free(objs[i].cache, objs[i].data);
 701              		.loc 1 141 9 is_stmt 1
 702              		.loc 1 141 24 is_stmt 0
 703 0490 83B58400 		ld	a1,8(s1)
 704 0494 03B50400 		ld	a0,0(s1)
 705 0498 97000000 		call	_Z15kmem_cache_freeP12kmem_cache_sPv@plt
 705      E7800000 
 706              	.LVL75:
 137:src/kernel/slabTests.cpp ****         if (!check(objs[i].data, (cache == objs[i].cache) ? object_size : shared_size)) {
 707              		.loc 1 137 5 is_stmt 1
 708 04a0 1B091900 		addiw	s2,s2,1
 709              	.LVL76:
 710              	.L37:
 137:src/kernel/slabTests.cpp ****         if (!check(objs[i].data, (cache == objs[i].cache) ? object_size : shared_size)) {
 711              		.loc 1 137 23 discriminator 1
 712 04a4 63563903 		ble	s3,s2,.L34
 138:src/kernel/slabTests.cpp ****             KConsole::trapPrintString("Value not correct!");
 713              		.loc 1 138 9
 138:src/kernel/slabTests.cpp ****             KConsole::trapPrintString("Value not correct!");
 714              		.loc 1 138 26 is_stmt 0
 715 04a8 93144900 		slli	s1,s2,4
 716 04ac B3849A00 		add	s1,s5,s1
 138:src/kernel/slabTests.cpp ****             KConsole::trapPrintString("Value not correct!");
 717              		.loc 1 138 19
 718 04b0 03B58400 		ld	a0,8(s1)
 138:src/kernel/slabTests.cpp ****             KConsole::trapPrintString("Value not correct!");
 719              		.loc 1 138 52
 720 04b4 83B70400 		ld	a5,0(s1)
 138:src/kernel/slabTests.cpp ****             KConsole::trapPrintString("Value not correct!");
 721              		.loc 1 138 19
 722 04b8 E38047FD 		beq	a5,s4,.L38
 723 04bc 93057000 		li	a1,7
 724              	.L35:
 138:src/kernel/slabTests.cpp ****             KConsole::trapPrintString("Value not correct!");
 725              		.loc 1 138 19 discriminator 4
 726 04c0 97000000 		call	_Z5checkPvm
 726      E7800000 
 727              	.LVL77:
 138:src/kernel/slabTests.cpp ****             KConsole::trapPrintString("Value not correct!");
 728              		.loc 1 138 9 discriminator 4
 729 04c8 E31405FC 		bnez	a0,.L36
 730 04cc 6FF05FFB 		j	.L40
 731              	.L34:
 732              	.LBE15:
 142:src/kernel/slabTests.cpp ****     }
 143:src/kernel/slabTests.cpp **** 
 144:src/kernel/slabTests.cpp ****     kmem_cache_info(cache);
 733              		.loc 1 144 5 is_stmt 1
 734              		.loc 1 144 20 is_stmt 0
 735 04d0 13050A00 		mv	a0,s4
 736 04d4 97000000 		call	_Z15kmem_cache_infoP12kmem_cache_s@plt
 736      E7800000 
 737              	.LVL78:
 145:src/kernel/slabTests.cpp **** 
 146:src/kernel/slabTests.cpp ****     //kmem_cache_info(cache);
 147:src/kernel/slabTests.cpp ****     //kmem_cache_info(data.shared);
 148:src/kernel/slabTests.cpp ****     //printSlabAllocatorInfo();
GAS LISTING /tmp/ccRpaafE.s 			page 18


 149:src/kernel/slabTests.cpp **** 
 150:src/kernel/slabTests.cpp ****     kfree(objs);
 738              		.loc 1 150 5 is_stmt 1
 739              		.loc 1 150 10 is_stmt 0
 740 04dc 13850A00 		mv	a0,s5
 741 04e0 97000000 		call	_Z5kfreePKv@plt
 741      E7800000 
 742              	.LVL79:
 151:src/kernel/slabTests.cpp ****     kmem_cache_destroy(cache);
 743              		.loc 1 151 5 is_stmt 1
 744              		.loc 1 151 23 is_stmt 0
 745 04e8 13050A00 		mv	a0,s4
 746 04ec 97000000 		call	_Z18kmem_cache_destroyP12kmem_cache_s@plt
 746      E7800000 
 747              	.LVL80:
 152:src/kernel/slabTests.cpp **** 
 153:src/kernel/slabTests.cpp ****     //printSlabAllocatorInfo();
 154:src/kernel/slabTests.cpp **** }
 748              		.loc 1 154 1
 749 04f4 83308107 		ld	ra,120(sp)
 750              		.cfi_restore 1
 751 04f8 03340107 		ld	s0,112(sp)
 752              		.cfi_restore 8
 753              		.cfi_def_cfa 2, 128
 754              	.LVL81:
 755 04fc 83348106 		ld	s1,104(sp)
 756              		.cfi_restore 9
 757 0500 03390106 		ld	s2,96(sp)
 758              		.cfi_restore 18
 759              	.LVL82:
 760 0504 83398105 		ld	s3,88(sp)
 761              		.cfi_restore 19
 762              	.LVL83:
 763 0508 033A0105 		ld	s4,80(sp)
 764              		.cfi_restore 20
 765              	.LVL84:
 766 050c 833A8104 		ld	s5,72(sp)
 767              		.cfi_restore 21
 768 0510 033B0104 		ld	s6,64(sp)
 769              		.cfi_restore 22
 770 0514 833B8103 		ld	s7,56(sp)
 771              		.cfi_restore 23
 772 0518 033C0103 		ld	s8,48(sp)
 773              		.cfi_restore 24
 774 051c 833C8102 		ld	s9,40(sp)
 775              		.cfi_restore 25
 776 0520 13010108 		addi	sp,sp,128
 777              		.cfi_def_cfa_offset 0
 778              	.LVL85:
 779 0524 67800000 		jr	ra
 780              		.cfi_endproc
 781              	.LFE12:
 783              		.align	2
 784              		.globl	_Z4runsPFvPvEP6data_si
 786              	_Z4runsPFvPvEP6data_si:
 787              	.LFB13:
 155:src/kernel/slabTests.cpp **** 
GAS LISTING /tmp/ccRpaafE.s 			page 19


 156:src/kernel/slabTests.cpp **** void runs(void(*work)(void*), struct data_s* data, int num) {
 788              		.loc 1 156 61 is_stmt 1
 789              		.cfi_startproc
 790              	.LVL86:
 791 0528 130101FB 		addi	sp,sp,-80
 792              		.cfi_def_cfa_offset 80
 793 052c 23341104 		sd	ra,72(sp)
 794 0530 23308104 		sd	s0,64(sp)
 795 0534 233C9102 		sd	s1,56(sp)
 796 0538 23382103 		sd	s2,48(sp)
 797 053c 23343103 		sd	s3,40(sp)
 798              		.cfi_offset 1, -8
 799              		.cfi_offset 8, -16
 800              		.cfi_offset 9, -24
 801              		.cfi_offset 18, -32
 802              		.cfi_offset 19, -40
 803 0540 13040105 		addi	s0,sp,80
 804              		.cfi_def_cfa 8, 0
 805 0544 93090500 		mv	s3,a0
 806 0548 13890500 		mv	s2,a1
 157:src/kernel/slabTests.cpp ****     for (int i = 0; i < RUN_NUM; i++) {
 807              		.loc 1 157 5
 808              	.LVL87:
 809              	.LBB16:
 810              		.loc 1 157 14 is_stmt 0
 811 054c 93040000 		li	s1,0
 812              	.LVL88:
 813              	.L43:
 814              		.loc 1 157 23 is_stmt 1 discriminator 1
 815 0550 93074000 		li	a5,4
 816 0554 63C89702 		bgt	s1,a5,.L41
 817              	.LBB17:
 158:src/kernel/slabTests.cpp ****         struct data_s private_data;
 818              		.loc 1 158 9
 159:src/kernel/slabTests.cpp ****         private_data = *(struct data_s*) data;
 819              		.loc 1 159 9
 820              		.loc 1 159 22 is_stmt 0
 821 0558 83370900 		ld	a5,0(s2)
 822 055c 233CF4FA 		sd	a5,-72(s0)
 823 0560 83378900 		ld	a5,8(s2)
 824 0564 2330F4FC 		sd	a5,-64(s0)
 825 0568 83370901 		ld	a5,16(s2)
 826 056c 2334F4FC 		sd	a5,-56(s0)
 160:src/kernel/slabTests.cpp ****         private_data.id = i;
 827              		.loc 1 160 9 is_stmt 1
 828              		.loc 1 160 25 is_stmt 0
 829 0570 232C94FA 		sw	s1,-72(s0)
 161:src/kernel/slabTests.cpp ****         work(&private_data);
 830              		.loc 1 161 9 is_stmt 1
 831              		.loc 1 161 13 is_stmt 0
 832 0574 130584FB 		addi	a0,s0,-72
 833 0578 E7800900 		jalr	s3
 834              	.LVL89:
 835              	.LBE17:
 157:src/kernel/slabTests.cpp ****         struct data_s private_data;
 836              		.loc 1 157 5 is_stmt 1
 837 057c 9B841400 		addiw	s1,s1,1
GAS LISTING /tmp/ccRpaafE.s 			page 20


 838              	.LVL90:
 839 0580 6FF01FFD 		j	.L43
 840              	.LVL91:
 841              	.L41:
 842              	.LBE16:
 162:src/kernel/slabTests.cpp ****     }
 163:src/kernel/slabTests.cpp **** }
 843              		.loc 1 163 1 is_stmt 0
 844 0584 83308104 		ld	ra,72(sp)
 845              		.cfi_restore 1
 846 0588 03340104 		ld	s0,64(sp)
 847              		.cfi_restore 8
 848              		.cfi_def_cfa 2, 80
 849 058c 83348103 		ld	s1,56(sp)
 850              		.cfi_restore 9
 851              	.LVL92:
 852 0590 03390103 		ld	s2,48(sp)
 853              		.cfi_restore 18
 854              	.LVL93:
 855 0594 83398102 		ld	s3,40(sp)
 856              		.cfi_restore 19
 857              	.LVL94:
 858 0598 13010105 		addi	sp,sp,80
 859              		.cfi_def_cfa_offset 0
 860 059c 67800000 		jr	ra
 861              		.cfi_endproc
 862              	.LFE13:
 864              		.section	.rodata.str1.8
 865 0063 00000000 		.align	3
 865      00
 866              	.LC7:
 867 0068 73686172 		.string	"shared object"
 867      6564206F 
 867      626A6563 
 867      7400
 868              		.text
 869              		.align	2
 870              		.globl	_Z7testOS2v
 872              	_Z7testOS2v:
 873              	.LFB14:
 164:src/kernel/slabTests.cpp **** 
 165:src/kernel/slabTests.cpp **** void testOS2()
 166:src/kernel/slabTests.cpp **** {
 874              		.loc 1 166 1 is_stmt 1
 875              		.cfi_startproc
 876 05a0 130101FC 		addi	sp,sp,-64
 877              		.cfi_def_cfa_offset 64
 878 05a4 233C1102 		sd	ra,56(sp)
 879 05a8 23388102 		sd	s0,48(sp)
 880 05ac 23349102 		sd	s1,40(sp)
 881              		.cfi_offset 1, -8
 882              		.cfi_offset 8, -16
 883              		.cfi_offset 9, -24
 884 05b0 13040104 		addi	s0,sp,64
 885              		.cfi_def_cfa 8, 0
 167:src/kernel/slabTests.cpp ****     kmem_cache_t *shared = kmem_cache_create("shared object", shared_size, construct, nullptr);
 886              		.loc 1 167 5
GAS LISTING /tmp/ccRpaafE.s 			page 21


 887              		.loc 1 167 45 is_stmt 0
 888 05b4 93060000 		li	a3,0
 889 05b8 17060000 		lla	a2,_Z9constructPv
 889      13060600 
 890 05c0 93057000 		li	a1,7
 891 05c4 17050000 		lla	a0,.LC7
 891      13050500 
 892 05cc 97000000 		call	_Z17kmem_cache_createPKcmPFvPvES3_@plt
 892      E7800000 
 893              	.LVL95:
 894 05d4 93040500 		mv	s1,a0
 895              	.LVL96:
 168:src/kernel/slabTests.cpp **** 
 169:src/kernel/slabTests.cpp ****     struct data_s data;
 896              		.loc 1 169 5 is_stmt 1
 170:src/kernel/slabTests.cpp ****     data.shared = shared;
 897              		.loc 1 170 5
 898              		.loc 1 170 17 is_stmt 0
 899 05d8 2338A4FC 		sd	a0,-48(s0)
 171:src/kernel/slabTests.cpp ****     data.iterations = ITERATIONS;
 900              		.loc 1 171 5 is_stmt 1
 901              		.loc 1 171 21 is_stmt 0
 902 05dc 9307803E 		li	a5,1000
 903 05e0 232CF4FC 		sw	a5,-40(s0)
 172:src/kernel/slabTests.cpp ****     runs(work, &data, RUN_NUM);
 904              		.loc 1 172 5 is_stmt 1
 905              		.loc 1 172 9 is_stmt 0
 906 05e4 13065000 		li	a2,5
 907 05e8 930584FC 		addi	a1,s0,-56
 908 05ec 17050000 		lla	a0,_Z4workPv
 908      13050500 
 909 05f4 97000000 		call	_Z4runsPFvPvEP6data_si
 909      E7800000 
 910              	.LVL97:
 173:src/kernel/slabTests.cpp **** 
 174:src/kernel/slabTests.cpp ****     kmem_cache_destroy(shared);
 911              		.loc 1 174 5 is_stmt 1
 912              		.loc 1 174 23 is_stmt 0
 913 05fc 13850400 		mv	a0,s1
 914 0600 97000000 		call	_Z18kmem_cache_destroyP12kmem_cache_s@plt
 914      E7800000 
 915              	.LVL98:
 175:src/kernel/slabTests.cpp **** }...
 916              		.loc 1 175 1
 917 0608 83308103 		ld	ra,56(sp)
 918              		.cfi_restore 1
 919 060c 03340103 		ld	s0,48(sp)
 920              		.cfi_restore 8
 921              		.cfi_def_cfa 2, 64
 922 0610 83348102 		ld	s1,40(sp)
 923              		.cfi_restore 9
 924              	.LVL99:
 925 0614 13010104 		addi	sp,sp,64
 926              		.cfi_def_cfa_offset 0
 927 0618 67800000 		jr	ra
 928              		.cfi_endproc
 929              	.LFE14:
GAS LISTING /tmp/ccRpaafE.s 			page 22


 931              		.section	.rodata.str1.8
 932 0076 0000     		.align	3
 933              	.LC8:
 934 0078 74635F30 		.string	"tc_0"
 934      00
 935 007d 000000   		.align	3
 936              	.LC9:
 937 0080 74635F31 		.string	"tc_1"
 937      00
 938 0085 000000   		.align	3
 939              	.LC10:
 940 0088 74635F32 		.string	"tc_2"
 940      00
 941 008d 000000   		.align	3
 942              	.LC11:
 943 0090 74635F33 		.string	"tc_3"
 943      00
 944 0095 000000   		.align	3
 945              	.LC12:
 946 0098 74635F34 		.string	"tc_4"
 946      00
 947              		.section	.data.rel.ro.local,"aw"
 948              		.align	3
 949              		.set	.LANCHOR0,. + 0
 952              	_ZL11CACHE_NAMES:
 953 0000 00000000 		.dword	.LC8
 953      00000000 
 954 0008 00000000 		.dword	.LC9
 954      00000000 
 955 0010 00000000 		.dword	.LC10
 955      00000000 
 956 0018 00000000 		.dword	.LC11
 956      00000000 
 957 0020 00000000 		.dword	.LC12
 957      00000000 
 958              		.text
 959              	.Letext0:
 960              		.file 2 "src/kernel/../../h/../lib/hw.h"
 961              		.file 3 "src/kernel/../../h/slabAllocator.hpp"
 962              		.file 4 "src/kernel/../../h/PCB.hpp"
 963              		.file 5 "src/kernel/../../h/KSemaphore.hpp"
 964              		.file 6 "src/kernel/../../h/KConsole.hpp"
GAS LISTING /tmp/ccRpaafE.s 			page 23

