GAS LISTING /tmp/ccmbACaJ.s 			page 1


   1              		.file	"SleepPCBList.cpp"
   2              		.option pic
   3              		.option norelax
   4              		.text
   5              	.Ltext0:
   6              		.align	2
   7              		.globl	_ZN12SleepPCBList17insertSleepingPCBEv
   9              	_ZN12SleepPCBList17insertSleepingPCBEv:
  10              	.LFB25:
  11              		.file 1 "src/kernel/SleepPCBList.cpp"
   1:src/kernel/SleepPCBList.cpp **** #include "../../h/SleepPCBList.hpp"
   2:src/kernel/SleepPCBList.cpp **** #include "../../h/Scheduler.hpp"
   3:src/kernel/SleepPCBList.cpp **** #include "../../h/Riscv.hpp"
   4:src/kernel/SleepPCBList.cpp **** 
   5:src/kernel/SleepPCBList.cpp **** PCB* SleepPCBList::sleepingPCBHead = 0;
   6:src/kernel/SleepPCBList.cpp **** 
   7:src/kernel/SleepPCBList.cpp **** void SleepPCBList::insertSleepingPCB()
   8:src/kernel/SleepPCBList.cpp **** {
  12              		.loc 1 8 1
  13              		.cfi_startproc
  14 0000 130101FF 		addi	sp,sp,-16
  15              		.cfi_def_cfa_offset 16
  16 0004 23348100 		sd	s0,8(sp)
  17              		.cfi_offset 8, -8
  18 0008 13040101 		addi	s0,sp,16
  19              		.cfi_def_cfa 8, 0
   9:src/kernel/SleepPCBList.cpp ****     PCB::running->setState(PCB::SLEEPING);
  20              		.loc 1 9 5
  21              		.loc 1 9 27 is_stmt 0
  22 000c 97070000 		la	a5,_ZN3PCB7runningE
  22      83B70700 
  23 0014 03B60700 		ld	a2,0(a5)
  24              	.LVL0:
  25              	.LBB11:
  26              	.LBB12:
  27              		.file 2 "src/kernel/../../h/PCB.hpp"
   1:src/kernel/../../h/PCB.hpp **** //
   2:src/kernel/../../h/PCB.hpp **** // Created by os on 4/27/22.
   3:src/kernel/../../h/PCB.hpp **** //
   4:src/kernel/../../h/PCB.hpp **** 
   5:src/kernel/../../h/PCB.hpp **** #ifndef PROJECT_BASE_V1_0_PCB_HPP
   6:src/kernel/../../h/PCB.hpp **** #define PROJECT_BASE_V1_0_PCB_HPP
   7:src/kernel/../../h/PCB.hpp **** 
   8:src/kernel/../../h/PCB.hpp **** #include "../lib/hw.h"
   9:src/kernel/../../h/PCB.hpp **** 
  10:src/kernel/../../h/PCB.hpp **** class PCB
  11:src/kernel/../../h/PCB.hpp **** {
  12:src/kernel/../../h/PCB.hpp **** private:
  13:src/kernel/../../h/PCB.hpp ****     static uint64 savedRegA4;
  14:src/kernel/../../h/PCB.hpp **** 
  15:src/kernel/../../h/PCB.hpp ****     using Body = void (*)(void*);
  16:src/kernel/../../h/PCB.hpp **** 
  17:src/kernel/../../h/PCB.hpp ****     PCB(Body body,  void* args, void* stack_space, uint64 timeSlice);
  18:src/kernel/../../h/PCB.hpp ****     ~PCB();
  19:src/kernel/../../h/PCB.hpp **** 
  20:src/kernel/../../h/PCB.hpp ****     void start();
  21:src/kernel/../../h/PCB.hpp ****     static void dispatch();
GAS LISTING /tmp/ccmbACaJ.s 			page 2


  22:src/kernel/../../h/PCB.hpp **** 
  23:src/kernel/../../h/PCB.hpp ****     static PCB* running;
  24:src/kernel/../../h/PCB.hpp **** 
  25:src/kernel/../../h/PCB.hpp ****     static uint64 timeSliceCounter;
  26:src/kernel/../../h/PCB.hpp ****     uint64 getTimeSlice() { return timeSlice;}
  27:src/kernel/../../h/PCB.hpp **** 
  28:src/kernel/../../h/PCB.hpp ****     void* operator new(size_t size);
  29:src/kernel/../../h/PCB.hpp ****     void operator delete(void *p);
  30:src/kernel/../../h/PCB.hpp **** 
  31:src/kernel/../../h/PCB.hpp ****     enum State{READY, RUNNING, SUSPENDED, FINISHED, EXITING, SLEEPING};
  32:src/kernel/../../h/PCB.hpp ****     State getState() {return state;}
  33:src/kernel/../../h/PCB.hpp ****     void setState(State s) {state = s;}
  28              		.loc 2 33 29 is_stmt 1
  29              		.loc 2 33 35 is_stmt 0
  30 0018 93075000 		li	a5,5
  31 001c 2320F604 		sw	a5,64(a2)
  32              	.LVL1:
  33              	.LBE12:
  34              	.LBE11:
  10:src/kernel/SleepPCBList.cpp ****     PCB* prev = 0;
  35              		.loc 1 10 5 is_stmt 1
  11:src/kernel/SleepPCBList.cpp ****     PCB* curr = sleepingPCBHead;
  36              		.loc 1 11 5
  37              		.loc 1 11 10 is_stmt 0
  38 0020 97070000 		ld	a5,.LANCHOR0
  38      83B70700 
  39              	.LVL2:
  10:src/kernel/SleepPCBList.cpp ****     PCB* prev = 0;
  40              		.loc 1 10 10
  41 0028 93050000 		li	a1,0
  42              	.LVL3:
  43              	.L4:
  12:src/kernel/SleepPCBList.cpp ****     while(curr != 0)
  44              		.loc 1 12 5 is_stmt 1
  45              		.loc 1 12 16
  46 002c 63800702 		beqz	a5,.L2
  13:src/kernel/SleepPCBList.cpp ****     {
  14:src/kernel/SleepPCBList.cpp ****         if(PCB::running->getTimeToSleep() < curr->getTimeToSleep())
  47              		.loc 1 14 9
  48              	.LVL4:
  49              	.LBB13:
  50              	.LBB14:
  34:src/kernel/../../h/PCB.hpp ****     void setTimeToSleep(uint64 time) {timeToSleep = time;}
  35:src/kernel/../../h/PCB.hpp ****     uint64 getTimeToSleep() {return timeToSleep;}
  51              		.loc 2 35 30
  52              		.loc 2 35 37 is_stmt 0
  53 0030 83360602 		ld	a3,32(a2)
  54              	.LVL5:
  55              	.LBE14:
  56              	.LBE13:
  57              	.LBB15:
  58              	.LBB16:
  59              		.loc 2 35 30 is_stmt 1
  60              		.loc 2 35 37 is_stmt 0
  61 0034 03B70702 		ld	a4,32(a5)
  62              	.LVL6:
  63              	.LBE16:
GAS LISTING /tmp/ccmbACaJ.s 			page 3


  64              	.LBE15:
  65              		.loc 1 14 9
  66 0038 63E8E600 		bltu	a3,a4,.L8
  15:src/kernel/SleepPCBList.cpp ****         {
  16:src/kernel/SleepPCBList.cpp ****             PCB::running->nextPCB = curr;
  17:src/kernel/SleepPCBList.cpp ****             break;
  18:src/kernel/SleepPCBList.cpp ****         }
  19:src/kernel/SleepPCBList.cpp ****         prev = curr;
  67              		.loc 1 19 9 is_stmt 1
  68              	.LVL7:
  20:src/kernel/SleepPCBList.cpp ****         curr=curr->nextPCB;
  69              		.loc 1 20 9
  19:src/kernel/SleepPCBList.cpp ****         curr=curr->nextPCB;
  70              		.loc 1 19 14 is_stmt 0
  71 003c 93850700 		mv	a1,a5
  72              		.loc 1 20 13
  73 0040 83B78700 		ld	a5,8(a5)
  74              	.LVL8:
  12:src/kernel/SleepPCBList.cpp ****     {
  75              		.loc 1 12 5
  76 0044 6FF09FFE 		j	.L4
  77              	.L8:
  16:src/kernel/SleepPCBList.cpp ****             break;
  78              		.loc 1 16 13 is_stmt 1
  16:src/kernel/SleepPCBList.cpp ****             break;
  79              		.loc 1 16 35 is_stmt 0
  80 0048 2334F600 		sd	a5,8(a2)
  17:src/kernel/SleepPCBList.cpp ****         }
  81              		.loc 1 17 13 is_stmt 1
  82              	.L2:
  21:src/kernel/SleepPCBList.cpp ****     }
  22:src/kernel/SleepPCBList.cpp **** 
  23:src/kernel/SleepPCBList.cpp ****     if(prev == 0)
  83              		.loc 1 23 5
  84 004c 638A0500 		beqz	a1,.L9
  24:src/kernel/SleepPCBList.cpp ****         sleepingPCBHead = PCB::running;
  25:src/kernel/SleepPCBList.cpp ****     else
  26:src/kernel/SleepPCBList.cpp ****         prev->nextPCB = PCB::running;
  85              		.loc 1 26 9
  86              		.loc 1 26 23 is_stmt 0
  87 0050 23B4C500 		sd	a2,8(a1)
  88              	.LVL9:
  89              	.L1:
  27:src/kernel/SleepPCBList.cpp **** }
  90              		.loc 1 27 1
  91 0054 03348100 		ld	s0,8(sp)
  92              		.cfi_remember_state
  93              		.cfi_restore 8
  94              		.cfi_def_cfa 2, 16
  95 0058 13010101 		addi	sp,sp,16
  96              		.cfi_def_cfa_offset 0
  97 005c 67800000 		jr	ra
  98              	.LVL10:
  99              	.L9:
 100              		.cfi_restore_state
  24:src/kernel/SleepPCBList.cpp ****         sleepingPCBHead = PCB::running;
 101              		.loc 1 24 9 is_stmt 1
GAS LISTING /tmp/ccmbACaJ.s 			page 4


  24:src/kernel/SleepPCBList.cpp ****         sleepingPCBHead = PCB::running;
 102              		.loc 1 24 25 is_stmt 0
 103 0060 97070000 		sd	a2,.LANCHOR0,a5
 103      23B0C700 
 104              	.LVL11:
 105 0068 6FF0DFFE 		j	.L1
 106              		.cfi_endproc
 107              	.LFE25:
 109              		.align	2
 110              		.globl	_ZN12SleepPCBList13tryToWakePCBsEv
 112              	_ZN12SleepPCBList13tryToWakePCBsEv:
 113              	.LFB26:
  28:src/kernel/SleepPCBList.cpp **** 
  29:src/kernel/SleepPCBList.cpp **** void SleepPCBList::tryToWakePCBs()
  30:src/kernel/SleepPCBList.cpp **** {
 114              		.loc 1 30 1 is_stmt 1
 115              		.cfi_startproc
  31:src/kernel/SleepPCBList.cpp ****     PCB* curr = sleepingPCBHead;
 116              		.loc 1 31 5
 117              		.loc 1 31 10 is_stmt 0
 118 006c 17050000 		ld	a0,.LANCHOR0
 118      03350500 
 119              	.LVL12:
  32:src/kernel/SleepPCBList.cpp ****     if(curr == 0)
 120              		.loc 1 32 5 is_stmt 1
 121 0074 630E0506 		beqz	a0,.L14
  33:src/kernel/SleepPCBList.cpp ****         return;
  34:src/kernel/SleepPCBList.cpp **** 
  35:src/kernel/SleepPCBList.cpp ****     while(curr != 0 && Riscv::totalTime >= curr->getTimeToSleep())
 122              		.loc 1 35 5
 123              		.loc 1 35 21
 124 0078 630C0506 		beqz	a0,.L14
 125              	.LVL13:
 126              	.LBB17:
 127              	.LBB18:
 128              		.loc 2 35 30
 129              		.loc 2 35 37 is_stmt 0
 130 007c 83370502 		ld	a5,32(a0)
 131              	.LVL14:
 132              	.LBE18:
 133              	.LBE17:
 134              		.loc 1 35 41
 135 0080 17070000 		la	a4,_ZN5Riscv9totalTimeE
 135      03370700 
 136 0088 03370700 		ld	a4,0(a4)
 137              		.loc 1 35 21
 138 008c 6362F706 		bltu	a4,a5,.L14
  30:src/kernel/SleepPCBList.cpp ****     PCB* curr = sleepingPCBHead;
 139              		.loc 1 30 1
 140 0090 130101FE 		addi	sp,sp,-32
 141              		.cfi_def_cfa_offset 32
 142 0094 233C1100 		sd	ra,24(sp)
 143 0098 23388100 		sd	s0,16(sp)
 144 009c 23349100 		sd	s1,8(sp)
 145              		.cfi_offset 1, -8
 146              		.cfi_offset 8, -16
 147              		.cfi_offset 9, -24
GAS LISTING /tmp/ccmbACaJ.s 			page 5


 148 00a0 13040102 		addi	s0,sp,32
 149              		.cfi_def_cfa 8, 0
 150 00a4 6F008001 		j	.L17
 151              	.LVL15:
 152              	.L19:
 153              	.LBB20:
 154              	.LBB19:
 155              		.loc 2 35 30 is_stmt 1
 156              		.loc 2 35 37 is_stmt 0
 157 00a8 83B70402 		ld	a5,32(s1)
 158              	.LVL16:
 159              	.LBE19:
 160              	.LBE20:
 161              		.loc 1 35 41
 162 00ac 17070000 		la	a4,_ZN5Riscv9totalTimeE
 162      03370700 
 163 00b4 03370700 		ld	a4,0(a4)
 164              		.loc 1 35 21
 165 00b8 6362F702 		bltu	a4,a5,.L10
 166              	.LVL17:
 167              	.L17:
 168              	.LBB21:
  36:src/kernel/SleepPCBList.cpp ****     {
  37:src/kernel/SleepPCBList.cpp ****         PCB *old = curr;
 169              		.loc 1 37 9 is_stmt 1
  38:src/kernel/SleepPCBList.cpp ****         curr = curr->nextPCB;
 170              		.loc 1 38 9
 171              		.loc 1 38 14 is_stmt 0
 172 00bc 83348500 		ld	s1,8(a0)
 173              	.LVL18:
  39:src/kernel/SleepPCBList.cpp ****         old->nextPCB = 0;
 174              		.loc 1 39 9 is_stmt 1
 175              		.loc 1 39 22 is_stmt 0
 176 00c0 23340500 		sd	zero,8(a0)
  40:src/kernel/SleepPCBList.cpp ****         Scheduler::put(old);
 177              		.loc 1 40 9 is_stmt 1
 178              		.loc 1 40 23 is_stmt 0
 179 00c4 97000000 		call	_ZN9Scheduler3putEP3PCB@plt
 179      E7800000 
 180              	.LVL19:
  41:src/kernel/SleepPCBList.cpp ****         sleepingPCBHead = curr;
 181              		.loc 1 41 9 is_stmt 1
 182              		.loc 1 41 25 is_stmt 0
 183 00cc 97070000 		sd	s1,.LANCHOR0,a5
 183      23B09700 
  38:src/kernel/SleepPCBList.cpp ****         old->nextPCB = 0;
 184              		.loc 1 38 14
 185 00d4 13850400 		mv	a0,s1
 186              	.LBE21:
  35:src/kernel/SleepPCBList.cpp ****     {
 187              		.loc 1 35 5 is_stmt 1
  35:src/kernel/SleepPCBList.cpp ****     {
 188              		.loc 1 35 21
 189 00d8 E39804FC 		bnez	s1,.L19
 190              	.L10:
  42:src/kernel/SleepPCBList.cpp ****     }
  43:src/kernel/SleepPCBList.cpp **** }
GAS LISTING /tmp/ccmbACaJ.s 			page 6


 191              		.loc 1 43 1 is_stmt 0
 192 00dc 83308101 		ld	ra,24(sp)
 193              		.cfi_restore 1
 194 00e0 03340101 		ld	s0,16(sp)
 195              		.cfi_restore 8
 196              		.cfi_def_cfa 2, 32
 197 00e4 83348100 		ld	s1,8(sp)
 198              		.cfi_restore 9
 199              	.LVL20:
 200 00e8 13010102 		addi	sp,sp,32
 201              		.cfi_def_cfa_offset 0
 202 00ec 67800000 		jr	ra
 203              	.L14:
 204 00f0 67800000 		ret
 205              		.cfi_endproc
 206              	.LFE26:
 208              		.globl	_ZN12SleepPCBList15sleepingPCBHeadE
 209              		.bss
 210              		.align	3
 211              		.set	.LANCHOR0,. + 0
 214              	_ZN12SleepPCBList15sleepingPCBHeadE:
 215 0000 00000000 		.zero	8
 215      00000000 
 216              		.text
 217              	.Letext0:
 218              		.file 3 "src/kernel/../../h/../lib/hw.h"
 219              		.file 4 "src/kernel/../../h/SleepPCBList.hpp"
 220              		.file 5 "src/kernel/../../h/Scheduler.hpp"
GAS LISTING /tmp/ccmbACaJ.s 			page 7

