GAS LISTING /tmp/ccd004E0.s 			page 1


   1              		.file	"syscall_c_kernel.cpp"
   2              		.option pic
   3              		.option norelax
   4              		.text
   5              	.Ltext0:
   6              		.align	2
   7              		.globl	_Z22thread_dispatch_kernelv
   9              	_Z22thread_dispatch_kernelv:
  10              	.LFB0:
  11              		.file 1 "src/kernel/syscall_c_kernel.cpp"
   1:src/kernel/syscall_c_kernel.cpp **** //
   2:src/kernel/syscall_c_kernel.cpp **** // Created by os on 1/9/23.
   3:src/kernel/syscall_c_kernel.cpp **** //
   4:src/kernel/syscall_c_kernel.cpp **** #include "../../h/syscall_c_kernel.hpp"
   5:src/kernel/syscall_c_kernel.cpp **** 
   6:src/kernel/syscall_c_kernel.cpp **** 
   7:src/kernel/syscall_c_kernel.cpp **** void thread_dispatch_kernel()
   8:src/kernel/syscall_c_kernel.cpp **** {
  12              		.loc 1 8 1
  13              		.cfi_startproc
  14 0000 130101FF 		addi	sp,sp,-16
  15              		.cfi_def_cfa_offset 16
  16 0004 23348100 		sd	s0,8(sp)
  17              		.cfi_offset 8, -8
  18 0008 13040101 		addi	s0,sp,16
  19              		.cfi_def_cfa 8, 0
   9:src/kernel/syscall_c_kernel.cpp ****     __asm__ volatile("li a0, 0x13");
  20              		.loc 1 9 5
  21              		.loc 1 9 36 is_stmt 0
  22              	#APP
  23              	# 9 "src/kernel/syscall_c_kernel.cpp" 1
  10              	    __asm__ volatile("ecall");
  24              		li a0, 0x13
  25              	# 0 "" 2
  26              		.loc 1 10 5 is_stmt 1
  27              		.loc 1 10 30 is_stmt 0
  28              	# 10 "src/kernel/syscall_c_kernel.cpp" 1
  11              	}
  29              		ecall
  30              	# 0 "" 2
  31              		.loc 1 11 1
  32              	#NO_APP
  33 0014 03348100 		ld	s0,8(sp)
  34              		.cfi_restore 8
  35              		.cfi_def_cfa 2, 16
  36 0018 13010101 		addi	sp,sp,16
  37              		.cfi_def_cfa_offset 0
  38 001c 67800000 		jr	ra
  39              		.cfi_endproc
  40              	.LFE0:
  42              		.align	2
  43              		.globl	_Z20sysCallGetCharOutputv
  45              	_Z20sysCallGetCharOutputv:
  46              	.LFB1:
  12:src/kernel/syscall_c_kernel.cpp **** 
  13:src/kernel/syscall_c_kernel.cpp **** char sysCallGetCharOutput()
  14:src/kernel/syscall_c_kernel.cpp **** {
GAS LISTING /tmp/ccd004E0.s 			page 2


  47              		.loc 1 14 1 is_stmt 1
  48              		.cfi_startproc
  49 0020 130101FF 		addi	sp,sp,-16
  50              		.cfi_def_cfa_offset 16
  51 0024 23348100 		sd	s0,8(sp)
  52              		.cfi_offset 8, -8
  53 0028 13040101 		addi	s0,sp,16
  54              		.cfi_def_cfa 8, 0
  15:src/kernel/syscall_c_kernel.cpp ****     __asm__ volatile("li a0, 0x43");
  55              		.loc 1 15 5
  56              		.loc 1 15 36 is_stmt 0
  57              	#APP
  58              	# 15 "src/kernel/syscall_c_kernel.cpp" 1
  16              	
  17:src/kernel/syscall_c_kernel.cpp ****     __asm__ volatile("ecall");
  59              		li a0, 0x43
  60              	# 0 "" 2
  61              		.loc 1 17 5 is_stmt 1
  62              		.loc 1 17 30 is_stmt 0
  63              	# 17 "src/kernel/syscall_c_kernel.cpp" 1
  18              	
  19:src/kernel/syscall_c_kernel.cpp ****     uint64 result;
  64              		ecall
  65              	# 0 "" 2
  66              		.loc 1 19 5 is_stmt 1
  20:src/kernel/syscall_c_kernel.cpp ****     __asm__ volatile("mv %0, a0" : "=r"(result));
  67              		.loc 1 20 5
  68              		.loc 1 20 49 is_stmt 0
  69              	# 20 "src/kernel/syscall_c_kernel.cpp" 1
  21              	    return (char)result;
  70              		mv a0, a0
  71              	# 0 "" 2
  72              	.LVL0:
  73              		.loc 1 21 5 is_stmt 1
  22:src/kernel/syscall_c_kernel.cpp **** }
  74              		.loc 1 22 1 is_stmt 0
  75              	#NO_APP
  76 0038 1375F50F 		andi	a0,a0,0xff
  77              	.LVL1:
  78 003c 03348100 		ld	s0,8(sp)
  79              		.cfi_restore 8
  80              		.cfi_def_cfa 2, 16
  81 0040 13010101 		addi	sp,sp,16
  82              		.cfi_def_cfa_offset 0
  83 0044 67800000 		jr	ra
  84              		.cfi_endproc
  85              	.LFE1:
  87              		.align	2
  88              		.globl	_Z18thread_exit_kernelv
  90              	_Z18thread_exit_kernelv:
  91              	.LFB2:
  23:src/kernel/syscall_c_kernel.cpp **** 
  24:src/kernel/syscall_c_kernel.cpp **** 
  25:src/kernel/syscall_c_kernel.cpp **** int thread_exit_kernel()
  26:src/kernel/syscall_c_kernel.cpp **** {
  92              		.loc 1 26 1 is_stmt 1
  93              		.cfi_startproc
GAS LISTING /tmp/ccd004E0.s 			page 3


  94 0048 130101FF 		addi	sp,sp,-16
  95              		.cfi_def_cfa_offset 16
  96 004c 23348100 		sd	s0,8(sp)
  97              		.cfi_offset 8, -8
  98 0050 13040101 		addi	s0,sp,16
  99              		.cfi_def_cfa 8, 0
  27:src/kernel/syscall_c_kernel.cpp ****     __asm__ volatile("li a0, 0x12");
 100              		.loc 1 27 5
 101              		.loc 1 27 36 is_stmt 0
 102              	#APP
 103              	# 27 "src/kernel/syscall_c_kernel.cpp" 1
  28              	
  29:src/kernel/syscall_c_kernel.cpp ****     __asm__ volatile("ecall");
 104              		li a0, 0x12
 105              	# 0 "" 2
 106              		.loc 1 29 5 is_stmt 1
 107              		.loc 1 29 30 is_stmt 0
 108              	# 29 "src/kernel/syscall_c_kernel.cpp" 1
  30              	
  31:src/kernel/syscall_c_kernel.cpp ****     uint64 result;
 109              		ecall
 110              	# 0 "" 2
 111              		.loc 1 31 5 is_stmt 1
  32:src/kernel/syscall_c_kernel.cpp ****     __asm__ volatile("mv %0, a0" : "=r"(result));
 112              		.loc 1 32 5
 113              		.loc 1 32 49 is_stmt 0
 114              	# 32 "src/kernel/syscall_c_kernel.cpp" 1
  33              	    return result;
 115              		mv a0, a0
 116              	# 0 "" 2
 117              	.LVL2:
 118              		.loc 1 33 5 is_stmt 1
  34:src/kernel/syscall_c_kernel.cpp **** }...
 119              		.loc 1 34 1 is_stmt 0
 120              	#NO_APP
 121 0060 1B050500 		sext.w	a0,a0
 122              	.LVL3:
 123 0064 03348100 		ld	s0,8(sp)
 124              		.cfi_restore 8
 125              		.cfi_def_cfa 2, 16
 126 0068 13010101 		addi	sp,sp,16
 127              		.cfi_def_cfa_offset 0
 128 006c 67800000 		jr	ra
 129              		.cfi_endproc
 130              	.LFE2:
 132              	.Letext0:
 133              		.file 2 "src/kernel/../../h/../lib/hw.h"
GAS LISTING /tmp/ccd004E0.s 			page 4

