GAS LISTING /tmp/ccd004E0.s 			page 1


   1              		.file	"syscall_c_kernel.cpp"
   2              		.option pic
   3              		.option norelax
   4              		.text
   5              	.Ltext0:
   6              		.align	2
   7              		.globl	_Z22thread_dispatch_kernelv
   9              	_Z22thread_dispatch_kernelv:
  10              	.LFB0:
  11              		.file 1 "src/kernel/syscall_c_kernel.cpp"
   1:src/kernel/syscall_c_kernel.cpp **** //
   2:src/kernel/syscall_c_kernel.cpp **** // Created by os on 1/9/23.
   3:src/kernel/syscall_c_kernel.cpp **** //
   4:src/kernel/syscall_c_kernel.cpp **** #include "../../h/syscall_c_kernel.hpp"
   5:src/kernel/syscall_c_kernel.cpp **** 
   6:src/kernel/syscall_c_kernel.cpp **** 
   7:src/kernel/syscall_c_kernel.cpp **** void thread_dispatch_kernel()
   8:src/kernel/syscall_c_kernel.cpp **** {
  12              		.loc 1 8 1
  13              		.cfi_startproc
  14 0000 130101FF 		addi	sp,sp,-16
  15              		.cfi_def_cfa_offset 16
  16 0004 23348100 		sd	s0,8(sp)
  17              		.cfi_offset 8, -8
  18 0008 13040101 		addi	s0,sp,16
  19              		.cfi_def_cfa 8, 0
   9:src/kernel/syscall_c_kernel.cpp ****     __asm__ volatile("li a0, 0x13");
  20              		.loc 1 9 5
  21              		.loc 1 9 36 is_stmt 0
  22              	#APP
  23              	# 9 "src/kernel/syscall_c_kernel.cpp" 1
  10              	    __asm__ volatile("ecall");
  24              		li a0, 0x13
  25              	# 0 "" 2
  26              		.loc 1 10 5 is_stmt 1
  27              		.loc 1 10 30 is_stmt 0
  28              	# 10 "src/kernel/syscall_c_kernel.cpp" 1
  11              	}
  29              		ecall
  30              	# 0 "" 2
  31              		.loc 1 11 1
  32              	#NO_APP
  33 0014 03348100 		ld	s0,8(sp)
  34              		.cfi_restore 8
  35              		.cfi_def_cfa 2, 16
  36 0018 13010101 		addi	sp,sp,16
  37              		.cfi_def_cfa_offset 0
  38 001c 67800000 		jr	ra
  39              		.cfi_endproc
  40              	.LFE0:
  42              		.align	2
  43              		.globl	_Z20sysCallGetCharOutputv
  45              	_Z20sysCallGetCharOutputv:
  46              	.LFB1:
  12:src/kernel/syscall_c_kernel.cpp **** 
  13:src/kernel/syscall_c_kernel.cpp **** char sysCallGetCharOutput()
  14:src/kernel/syscall_c_kernel.cpp **** {
GAS LISTING /tmp/ccd004E0.s 			page 2


  47              		.loc 1 14 1 is_stmt 1
  48              		.cfi_startproc
  49 0020 130101FF 		addi	sp,sp,-16
  50              		.cfi_def_cfa_offset 16
  51 0024 23348100 		sd	s0,8(sp)
  52              		.cfi_offset 8, -8
  53 0028 13040101 		addi	s0,sp,16
  54              		.cfi_def_cfa 8, 0
  15:src/kernel/syscall_c_kernel.cpp ****     __asm__ volatile("li a0, 0x43");
  55              		.loc 1 15 5
  56              		.loc 1 15 36 is_stmt 0
  57              	#APP
  58              	# 15 "src/kernel/syscall_c_kernel.cpp" 1
  16              	
  17:src/kernel/syscall_c_kernel.cpp ****     __asm__ volatile("ecall");
  59              		li a0, 0x43
  60              	# 0 "" 2
  61              		.loc 1 17 5 is_stmt 1
  62              		.loc 1 17 30 is_stmt 0
  63              	# 17 "src/kernel/syscall_c_kernel.cpp" 1
  18              	
  19:src/kernel/syscall_c_kernel.cpp ****     uint64 result;
  64              		ecall
  65              	# 0 "" 2
  66              		.loc 1 19 5 is_stmt 1
  20:src/kernel/syscall_c_kernel.cpp ****     __asm__ volatile("mv %0, a0" : "=r"(result));
  67              		.loc 1 20 5
  68              		.loc 1 20 49 is_stmt 0
  69              	# 20 "src/kernel/syscall_c_kernel.cpp" 1
  21              	    return (char)result;
  70              		mv a0, a0
  71              	# 0 "" 2
  72              	.LVL0:
  73              		.loc 1 21 5 is_stmt 1
  22:src/kernel/syscall_c_kernel.cpp **** }
  74              		.loc 1 22 1 is_stmt 0
  75              	#NO_APP
  76 0038 1375F50F 		andi	a0,a0,0xff
  77              	.LVL1:
  78 003c 03348100 		ld	s0,8(sp)
  79              		.cfi_restore 8
  80              		.cfi_def_cfa 2, 16
  81 0040 13010101 		addi	sp,sp,16
  82              		.cfi_def_cfa_offset 0
  83 0044 67800000 		jr	ra
  84              		.cfi_endproc
  85              	.LFE1:
  87              		.align	2
  88              		.globl	_Z18thread_exit_kernelv
  90              	_Z18thread_exit_kernelv:
  91              	.LFB2:
  23:src/kernel/syscall_c_kernel.cpp **** 
  24:src/kernel/syscall_c_kernel.cpp **** 
  25:src/kernel/syscall_c_kernel.cpp **** int thread_exit_kernel()
  26:src/kernel/syscall_c_kernel.cpp **** {
  92              		.loc 1 26 1 is_stmt 1
  93              		.cfi_startproc
GAS LISTING /tmp/ccd004E0.s 			page 3


  94 0048 130101FF 		addi	sp,sp,-16
  95              		.cfi_def_cfa_offset 16
  96 004c 23348100 		sd	s0,8(sp)
  97              		.cfi_offset 8, -8
  98 0050 13040101 		addi	s0,sp,16
  99              		.cfi_def_cfa 8, 0
  27:src/kernel/syscall_c_kernel.cpp ****     __asm__ volatile("li a0, 0x12");
 100              		.loc 1 27 5
 101              		.loc 1 27 36 is_stmt 0
 102              	#APP
 103              	# 27 "src/kernel/syscall_c_kernel.cpp" 1
  28              	
  29:src/kernel/syscall_c_kernel.cpp ****     __asm__ volatile("ecall");
 104              		li a0, 0x12
 105              	# 0 "" 2
 106              		.loc 1 29 5 is_stmt 1
 107              		.loc 1 29 30 is_stmt 0
 108              	# 29 "src/kernel/syscall_c_kernel.cpp" 1
  30              	
  31:src/kernel/syscall_c_kernel.cpp ****     uint64 result;
 109              		ecall
 110              	# 0 "" 2
 111              		.loc 1 31 5 is_stmt 1
  32:src/kernel/syscall_c_kernel.cpp ****     __asm__ volatile("mv %0, a0" : "=r"(result));
 112              		.loc 1 32 5
 113              		.loc 1 32 49 is_stmt 0
 114              	# 32 "src/kernel/syscall_c_kernel.cpp" 1
  33              	    return result;
 115              		mv a0, a0
 116              	# 0 "" 2
 117              	.LVL2:
 118              		.loc 1 33 5 is_stmt 1
  34:src/kernel/syscall_c_kernel.cpp **** }...
 119              		.loc 1 34 1 is_stmt 0
 120              	#NO_APP
 121 0060 1B050500 		sext.w	a0,a0
 122              	.LVL3:
 123 0064 03348100 		ld	s0,8(sp)
 124              		.cfi_restore 8
 125              		.cfi_def_cfa 2, 16
 126 0068 13010101 		addi	sp,sp,16
 127              		.cfi_def_cfa_offset 0
 128 006c 67800000 		jr	ra
 129              		.cfi_endproc
 130              	.LFE2:
 132              	.Letext0:
 133              		.file 2 "src/kernel/../../h/../lib/hw.h"
GAS LISTING /tmp/ccd004E0.s 			page 4


DEFINED SYMBOLS
                            *ABS*:0000000000000000 syscall_c_kernel.cpp
     /tmp/ccd004E0.s:9      .text:0000000000000000 _Z22thread_dispatch_kernelv
     /tmp/ccd004E0.s:13     .text:0000000000000000 .L0 
     /tmp/ccd004E0.s:14     .text:0000000000000000 .L0 
     /tmp/ccd004E0.s:15     .text:0000000000000004 .L0 
     /tmp/ccd004E0.s:17     .text:0000000000000008 .L0 
     /tmp/ccd004E0.s:19     .text:000000000000000c .L0 
     /tmp/ccd004E0.s:21     .text:000000000000000c .L0 
src/kernel/syscall_c_kernel.cpp:9      .text:000000000000000c .L0 
     /tmp/ccd004E0.s:27     .text:0000000000000010 .L0 
src/kernel/syscall_c_kernel.cpp:10     .text:0000000000000010 .L0 
     /tmp/ccd004E0.s:33     .text:0000000000000014 .L0 
     /tmp/ccd004E0.s:34     .text:0000000000000018 .L0 
     /tmp/ccd004E0.s:35     .text:0000000000000018 .L0 
     /tmp/ccd004E0.s:37     .text:000000000000001c .L0 
     /tmp/ccd004E0.s:39     .text:0000000000000020 .L0 
     /tmp/ccd004E0.s:45     .text:0000000000000020 _Z20sysCallGetCharOutputv
     /tmp/ccd004E0.s:48     .text:0000000000000020 .L0 
     /tmp/ccd004E0.s:49     .text:0000000000000020 .L0 
     /tmp/ccd004E0.s:50     .text:0000000000000024 .L0 
     /tmp/ccd004E0.s:52     .text:0000000000000028 .L0 
     /tmp/ccd004E0.s:54     .text:000000000000002c .L0 
     /tmp/ccd004E0.s:56     .text:000000000000002c .L0 
src/kernel/syscall_c_kernel.cpp:15     .text:000000000000002c .L0 
     /tmp/ccd004E0.s:62     .text:0000000000000030 .L0 
src/kernel/syscall_c_kernel.cpp:17     .text:0000000000000030 .L0 
     /tmp/ccd004E0.s:67     .text:0000000000000034 .L0 
     /tmp/ccd004E0.s:68     .text:0000000000000034 .L0 
src/kernel/syscall_c_kernel.cpp:20     .text:0000000000000034 .L0 
     /tmp/ccd004E0.s:74     .text:0000000000000038 .L0 
     /tmp/ccd004E0.s:76     .text:0000000000000038 .L0 
     /tmp/ccd004E0.s:79     .text:0000000000000040 .L0 
     /tmp/ccd004E0.s:80     .text:0000000000000040 .L0 
     /tmp/ccd004E0.s:82     .text:0000000000000044 .L0 
     /tmp/ccd004E0.s:84     .text:0000000000000048 .L0 
     /tmp/ccd004E0.s:90     .text:0000000000000048 _Z18thread_exit_kernelv
     /tmp/ccd004E0.s:93     .text:0000000000000048 .L0 
     /tmp/ccd004E0.s:94     .text:0000000000000048 .L0 
     /tmp/ccd004E0.s:95     .text:000000000000004c .L0 
     /tmp/ccd004E0.s:97     .text:0000000000000050 .L0 
     /tmp/ccd004E0.s:99     .text:0000000000000054 .L0 
     /tmp/ccd004E0.s:101    .text:0000000000000054 .L0 
src/kernel/syscall_c_kernel.cpp:27     .text:0000000000000054 .L0 
     /tmp/ccd004E0.s:107    .text:0000000000000058 .L0 
src/kernel/syscall_c_kernel.cpp:29     .text:0000000000000058 .L0 
     /tmp/ccd004E0.s:112    .text:000000000000005c .L0 
     /tmp/ccd004E0.s:113    .text:000000000000005c .L0 
src/kernel/syscall_c_kernel.cpp:32     .text:000000000000005c .L0 
     /tmp/ccd004E0.s:119    .text:0000000000000060 .L0 
     /tmp/ccd004E0.s:121    .text:0000000000000060 .L0 
     /tmp/ccd004E0.s:124    .text:0000000000000068 .L0 
     /tmp/ccd004E0.s:125    .text:0000000000000068 .L0 
     /tmp/ccd004E0.s:127    .text:000000000000006c .L0 
     /tmp/ccd004E0.s:129    .text:0000000000000070 .L0 
     /tmp/ccd004E0.s:134    .text:0000000000000070 .L0 
     /tmp/ccd004E0.s:323    .debug_abbrev:0000000000000000 .Ldebug_abbrev0
GAS LISTING /tmp/ccd004E0.s 			page 5


     /tmp/ccd004E0.s:593    .debug_str:0000000000000135 .LASF24
     /tmp/ccd004E0.s:613    .debug_str:00000000000002a2 .LASF25
     /tmp/ccd004E0.s:581    .debug_str:00000000000000ce .LASF26
     /tmp/ccd004E0.s:5      .text:0000000000000000 .Ltext0
     /tmp/ccd004E0.s:132    .text:0000000000000070 .Letext0
     /tmp/ccd004E0.s:555    .debug_line:0000000000000000 .Ldebug_line0
     /tmp/ccd004E0.s:559    .debug_str:0000000000000015 .LASF0
     /tmp/ccd004E0.s:599    .debug_str:000000000000022e .LASF1
     /tmp/ccd004E0.s:585    .debug_str:00000000000000f8 .LASF2
     /tmp/ccd004E0.s:579    .debug_str:00000000000000c7 .LASF4
     /tmp/ccd004E0.s:573    .debug_str:000000000000008c .LASF3
     /tmp/ccd004E0.s:569    .debug_str:0000000000000075 .LASF5
     /tmp/ccd004E0.s:577    .debug_str:00000000000000b4 .LASF6
     /tmp/ccd004E0.s:597    .debug_str:000000000000021b .LASF7
     /tmp/ccd004E0.s:605    .debug_str:0000000000000260 .LASF8
     /tmp/ccd004E0.s:565    .debug_str:0000000000000058 .LASF9
     /tmp/ccd004E0.s:567    .debug_str:0000000000000066 .LASF10
     /tmp/ccd004E0.s:589    .debug_str:000000000000010b .LASF11
     /tmp/ccd004E0.s:603    .debug_str:0000000000000251 .LASF12
     /tmp/ccd004E0.s:571    .debug_str:000000000000007c .LASF13
     /tmp/ccd004E0.s:601    .debug_str:0000000000000241 .LASF14
     /tmp/ccd004E0.s:583    .debug_str:00000000000000ec .LASF15
     /tmp/ccd004E0.s:595    .debug_str:0000000000000205 .LASF16
     /tmp/ccd004E0.s:575    .debug_str:000000000000009e .LASF17
     /tmp/ccd004E0.s:607    .debug_str:0000000000000270 .LASF19
     /tmp/ccd004E0.s:611    .debug_str:000000000000028a .LASF21
     /tmp/ccd004E0.s:91     .text:0000000000000048 .LFB2
     /tmp/ccd004E0.s:130    .text:0000000000000070 .LFE2
     /tmp/ccd004E0.s:609    .debug_str:0000000000000283 .LASF18
     /tmp/ccd004E0.s:528    .debug_loc:0000000000000000 .LLST1
     /tmp/ccd004E0.s:557    .debug_str:0000000000000000 .LASF20
     /tmp/ccd004E0.s:563    .debug_str:000000000000003e .LASF22
     /tmp/ccd004E0.s:46     .text:0000000000000020 .LFB1
     /tmp/ccd004E0.s:85     .text:0000000000000048 .LFE1
     /tmp/ccd004E0.s:535    .debug_loc:0000000000000023 .LLST0
     /tmp/ccd004E0.s:587    .debug_str:0000000000000106 .LASF23
     /tmp/ccd004E0.s:591    .debug_str:000000000000011e .LASF27
     /tmp/ccd004E0.s:561    .debug_str:0000000000000022 .LASF28
     /tmp/ccd004E0.s:10     .text:0000000000000000 .LFB0
     /tmp/ccd004E0.s:40     .text:0000000000000020 .LFE0
     /tmp/ccd004E0.s:117    .text:0000000000000060 .LVL2
     /tmp/ccd004E0.s:122    .text:0000000000000064 .LVL3
     /tmp/ccd004E0.s:72     .text:0000000000000038 .LVL0
     /tmp/ccd004E0.s:77     .text:000000000000003c .LVL1
     /tmp/ccd004E0.s:135    .debug_info:0000000000000000 .Ldebug_info0

NO UNDEFINED SYMBOLS
