GAS LISTING /tmp/ccA8sLRn.s 			page 1


   1              		.file	"_sem.cpp"
   2              		.option pic
   3              		.option norelax
   4              		.text
   5              	.Ltext0:
   6              		.align	2
   7              		.globl	_ZN4_semdlEPv
   9              	_ZN4_semdlEPv:
  10              	.LFB0:
  11              		.file 1 "src/user/_sem.cpp"
   1:src/user/_sem.cpp **** //
   2:src/user/_sem.cpp **** // Created by os on 6/3/22.
   3:src/user/_sem.cpp **** //
   4:src/user/_sem.cpp **** 
   5:src/user/_sem.cpp **** #include "../../h/_sem.hpp"
   6:src/user/_sem.cpp **** #include "../../h/syscall_c.hpp"
   7:src/user/_sem.cpp **** 
   8:src/user/_sem.cpp **** void _sem::operator delete(void *p) {
  12              		.loc 1 8 37
  13              		.cfi_startproc
  14              	.LVL0:
  15 0000 130101FF 		addi	sp,sp,-16
  16              		.cfi_def_cfa_offset 16
  17 0004 23341100 		sd	ra,8(sp)
  18 0008 23308100 		sd	s0,0(sp)
  19              		.cfi_offset 1, -8
  20              		.cfi_offset 8, -16
  21 000c 13040101 		addi	s0,sp,16
  22              		.cfi_def_cfa 8, 0
   9:src/user/_sem.cpp ****     sem_close((sem_t)p);
  23              		.loc 1 9 5
  24              		.loc 1 9 14 is_stmt 0
  25 0010 97000000 		call	_Z9sem_closeP4_sem@plt
  25      E7800000 
  26              	.LVL1:
  10:src/user/_sem.cpp **** }
  27              		.loc 1 10 1
  28 0018 83308100 		ld	ra,8(sp)
  29              		.cfi_restore 1
  30 001c 03340100 		ld	s0,0(sp)
  31              		.cfi_restore 8
  32              		.cfi_def_cfa 2, 16
  33 0020 13010101 		addi	sp,sp,16
  34              		.cfi_def_cfa_offset 0
  35 0024 67800000 		jr	ra
  36              		.cfi_endproc
  37              	.LFE0:
  39              	.Letext0:
  40              		.file 2 "src/user/../../h/../lib/hw.h"
  41              		.file 3 "src/user/../../h/syscall_c.hpp"
  42              		.file 4 "src/user/../../h/_sem.hpp"
GAS LISTING /tmp/ccA8sLRn.s 			page 2

