GAS LISTING /tmp/ccetY61t.s 			page 1


   1              		.file	"PCBWrapperUser.cpp"
   2              		.option pic
   3              		.option norelax
   4              		.text
   5              	.Ltext0:
   6              		.align	2
   7              		.globl	_ZN14PCBWrapperUser15userMainWrapperEPv
   9              	_ZN14PCBWrapperUser15userMainWrapperEPv:
  10              	.LFB0:
  11              		.file 1 "src/user/PCBWrapperUser.cpp"
   1:src/user/PCBWrapperUser.cpp **** //
   2:src/user/PCBWrapperUser.cpp **** // Created by os on 1/9/23.
   3:src/user/PCBWrapperUser.cpp **** //
   4:src/user/PCBWrapperUser.cpp **** #include "../../h/PCBWrapperUser.hpp"
   5:src/user/PCBWrapperUser.cpp **** #include "../../h/syscall_c.hpp"
   6:src/user/PCBWrapperUser.cpp **** #include "test/userMain.hpp"
   7:src/user/PCBWrapperUser.cpp **** 
   8:src/user/PCBWrapperUser.cpp **** void PCBWrapperUser::userMainWrapper(void* a)
   9:src/user/PCBWrapperUser.cpp **** {
  12              		.loc 1 9 1
  13              		.cfi_startproc
  14              	.LVL0:
  15 0000 130101FF 		addi	sp,sp,-16
  16              		.cfi_def_cfa_offset 16
  17 0004 23341100 		sd	ra,8(sp)
  18 0008 23308100 		sd	s0,0(sp)
  19              		.cfi_offset 1, -8
  20              		.cfi_offset 8, -16
  21 000c 13040101 		addi	s0,sp,16
  22              		.cfi_def_cfa 8, 0
  10:src/user/PCBWrapperUser.cpp ****     userMain();
  23              		.loc 1 10 5
  24              		.loc 1 10 13 is_stmt 0
  25 0010 97000000 		call	_Z8userMainv@plt
  25      E7800000 
  26              	.LVL1:
  11:src/user/PCBWrapperUser.cpp **** }
  27              		.loc 1 11 1
  28 0018 83308100 		ld	ra,8(sp)
  29              		.cfi_restore 1
  30 001c 03340100 		ld	s0,0(sp)
  31              		.cfi_restore 8
  32              		.cfi_def_cfa 2, 16
  33 0020 13010101 		addi	sp,sp,16
  34              		.cfi_def_cfa_offset 0
  35 0024 67800000 		jr	ra
  36              		.cfi_endproc
  37              	.LFE0:
  39              		.align	2
  40              		.globl	_ZN14PCBWrapperUser11wrapperUserEPFvPvES0_
  42              	_ZN14PCBWrapperUser11wrapperUserEPFvPvES0_:
  43              	.LFB1:
  12:src/user/PCBWrapperUser.cpp **** 
  13:src/user/PCBWrapperUser.cpp **** void PCBWrapperUser::wrapperUser(Body body, void* args)
  14:src/user/PCBWrapperUser.cpp **** {
  44              		.loc 1 14 1 is_stmt 1
  45              		.cfi_startproc
GAS LISTING /tmp/ccetY61t.s 			page 2


  46              	.LVL2:
  47 0028 130101FF 		addi	sp,sp,-16
  48              		.cfi_def_cfa_offset 16
  49 002c 23341100 		sd	ra,8(sp)
  50 0030 23308100 		sd	s0,0(sp)
  51              		.cfi_offset 1, -8
  52              		.cfi_offset 8, -16
  53 0034 13040101 		addi	s0,sp,16
  54              		.cfi_def_cfa 8, 0
  55 0038 93070500 		mv	a5,a0
  15:src/user/PCBWrapperUser.cpp ****     body(args);
  56              		.loc 1 15 5
  57              		.loc 1 15 9 is_stmt 0
  58 003c 13850500 		mv	a0,a1
  59              	.LVL3:
  60 0040 E7800700 		jalr	a5
  61              	.LVL4:
  16:src/user/PCBWrapperUser.cpp ****     thread_exit();
  62              		.loc 1 16 5 is_stmt 1
  63              		.loc 1 16 16 is_stmt 0
  64 0044 97000000 		call	_Z11thread_exitv@plt
  64      E7800000 
  65              	.LVL5:
  17:src/user/PCBWrapperUser.cpp **** }...
  66              		.loc 1 17 1
  67 004c 83308100 		ld	ra,8(sp)
  68              		.cfi_restore 1
  69 0050 03340100 		ld	s0,0(sp)
  70              		.cfi_restore 8
  71              		.cfi_def_cfa 2, 16
  72 0054 13010101 		addi	sp,sp,16
  73              		.cfi_def_cfa_offset 0
  74 0058 67800000 		jr	ra
  75              		.cfi_endproc
  76              	.LFE1:
  78              	.Letext0:
  79              		.file 2 "src/user/../../h/PCBWrapperUser.hpp"
  80              		.file 3 "src/user/../../h/../lib/hw.h"
  81              		.file 4 "src/user/../../h/syscall_c.hpp"
  82              		.file 5 "src/user/test/userMain.hpp"
GAS LISTING /tmp/ccetY61t.s 			page 3

