GAS LISTING /tmp/ccBVFacI.s 			page 1


   1              		.file	"syscall_c.cpp"
   2              		.option pic
   3              		.option norelax
   4              		.text
   5              	.Ltext0:
   6              		.align	2
   7              		.globl	_Z9mem_allocm
   9              	_Z9mem_allocm:
  10              	.LFB0:
  11              		.file 1 "src/user/syscall_c.cpp"
   1:src/user/syscall_c.cpp **** //
   2:src/user/syscall_c.cpp **** // Created by os on 4/9/22.
   3:src/user/syscall_c.cpp **** //
   4:src/user/syscall_c.cpp **** 
   5:src/user/syscall_c.cpp **** #include "../../h/syscall_c.hpp"
   6:src/user/syscall_c.cpp **** 
   7:src/user/syscall_c.cpp **** void* mem_alloc(size_t size)
   8:src/user/syscall_c.cpp **** {
  12              		.loc 1 8 1
  13              		.cfi_startproc
  14              	.LVL0:
  15 0000 130101FF 		addi	sp,sp,-16
  16              		.cfi_def_cfa_offset 16
  17 0004 23348100 		sd	s0,8(sp)
  18              		.cfi_offset 8, -8
  19 0008 13040101 		addi	s0,sp,16
  20              		.cfi_def_cfa 8, 0
   9:src/user/syscall_c.cpp ****     //prepare for system call
  10:src/user/syscall_c.cpp ****     uint64 numBlocks = (size + MEM_BLOCK_SIZE - 1) / MEM_BLOCK_SIZE;
  21              		.loc 1 10 5
  22              		.loc 1 10 47 is_stmt 0
  23 000c 1305F503 		addi	a0,a0,63
  24              	.LVL1:
  25              		.loc 1 10 12
  26 0010 13556500 		srli	a0,a0,6
  27              	.LVL2:
  11:src/user/syscall_c.cpp ****     __asm__ volatile("mv a1, %0" :  : "r"(numBlocks));
  28              		.loc 1 11 5 is_stmt 1
  29              		.loc 1 11 54 is_stmt 0
  30              	#APP
  31              	# 11 "src/user/syscall_c.cpp" 1
  12              	    __asm__ volatile("li a0, 1");
  32              		mv a1, a0
  33              	# 0 "" 2
  34              		.loc 1 12 5 is_stmt 1
  35              		.loc 1 12 33 is_stmt 0
  36              	# 12 "src/user/syscall_c.cpp" 1
  13              	
  14:src/user/syscall_c.cpp ****     __asm__ volatile("ecall"); // system call
  37              		li a0, 1
  38              	# 0 "" 2
  39              		.loc 1 14 5 is_stmt 1
  40              		.loc 1 14 30 is_stmt 0
  41              	# 14 "src/user/syscall_c.cpp" 1
  15              	
  16:src/user/syscall_c.cpp ****     //get the address
  17:src/user/syscall_c.cpp ****     uint64 allocatedAddr = 0x01;
GAS LISTING /tmp/ccBVFacI.s 			page 2


  42              		ecall
  43              	# 0 "" 2
  44              		.loc 1 17 5 is_stmt 1
  45              	.LVL3:
  18:src/user/syscall_c.cpp ****     __asm__ volatile("mv %0, a0" : "=r"(allocatedAddr));
  46              		.loc 1 18 5
  47              		.loc 1 18 56 is_stmt 0
  48              	# 18 "src/user/syscall_c.cpp" 1
  19              	
  49              		mv a0, a0
  50              	# 0 "" 2
  51              	.LVL4:
  20:src/user/syscall_c.cpp ****     if(allocatedAddr == 0)
  52              		.loc 1 20 5 is_stmt 1
  21:src/user/syscall_c.cpp ****         return nullptr;
  22:src/user/syscall_c.cpp **** 
  23:src/user/syscall_c.cpp ****     return (void*)allocatedAddr;
  24:src/user/syscall_c.cpp **** }
  53              		.loc 1 24 1 is_stmt 0
  54              	#NO_APP
  55 0024 03348100 		ld	s0,8(sp)
  56              		.cfi_restore 8
  57              		.cfi_def_cfa 2, 16
  58 0028 13010101 		addi	sp,sp,16
  59              		.cfi_def_cfa_offset 0
  60 002c 67800000 		jr	ra
  61              		.cfi_endproc
  62              	.LFE0:
  64              		.align	2
  65              		.globl	_Z8mem_freePv
  67              	_Z8mem_freePv:
  68              	.LFB1:
  25:src/user/syscall_c.cpp **** 
  26:src/user/syscall_c.cpp **** int mem_free(void* p)
  27:src/user/syscall_c.cpp **** {
  69              		.loc 1 27 1 is_stmt 1
  70              		.cfi_startproc
  71              	.LVL5:
  72 0030 130101FF 		addi	sp,sp,-16
  73              		.cfi_def_cfa_offset 16
  74 0034 23348100 		sd	s0,8(sp)
  75              		.cfi_offset 8, -8
  76 0038 13040101 		addi	s0,sp,16
  77              		.cfi_def_cfa 8, 0
  28:src/user/syscall_c.cpp ****     //prepare for system call
  29:src/user/syscall_c.cpp ****     uint64 addrFree = (uint64)p;
  78              		.loc 1 29 5
  79              	.LVL6:
  30:src/user/syscall_c.cpp ****     __asm__ volatile("mv a1, %0" :  : "r"(addrFree));
  80              		.loc 1 30 5
  81              		.loc 1 30 53 is_stmt 0
  82              	#APP
  83              	# 30 "src/user/syscall_c.cpp" 1
  31              	    __asm__ volatile("li a0, 2");
  84              		mv a1, a0
  85              	# 0 "" 2
  86              		.loc 1 31 5 is_stmt 1
GAS LISTING /tmp/ccBVFacI.s 			page 3


  87              		.loc 1 31 33 is_stmt 0
  88              	# 31 "src/user/syscall_c.cpp" 1
  32              	
  33:src/user/syscall_c.cpp ****     __asm__ volatile("ecall"); // system call
  89              		li a0, 2
  90              	# 0 "" 2
  91              		.loc 1 33 5 is_stmt 1
  92              		.loc 1 33 30 is_stmt 0
  93              	# 33 "src/user/syscall_c.cpp" 1
  34              	
  35:src/user/syscall_c.cpp ****     //get the result of system call
  36:src/user/syscall_c.cpp ****     uint64 result;
  94              		ecall
  95              	# 0 "" 2
  96              		.loc 1 36 5 is_stmt 1
  37:src/user/syscall_c.cpp ****     __asm__ volatile("mv %0, a0" : "=r"(result));
  97              		.loc 1 37 5
  98              		.loc 1 37 49 is_stmt 0
  99              	# 37 "src/user/syscall_c.cpp" 1
  38              	
 100              		mv a0, a0
 101              	# 0 "" 2
 102              	.LVL7:
  39:src/user/syscall_c.cpp ****     return result;
 103              		.loc 1 39 5 is_stmt 1
  40:src/user/syscall_c.cpp **** }
 104              		.loc 1 40 1 is_stmt 0
 105              	#NO_APP
 106 004c 1B050500 		sext.w	a0,a0
 107              	.LVL8:
 108 0050 03348100 		ld	s0,8(sp)
 109              		.cfi_restore 8
 110              		.cfi_def_cfa 2, 16
 111 0054 13010101 		addi	sp,sp,16
 112              		.cfi_def_cfa_offset 0
 113 0058 67800000 		jr	ra
 114              		.cfi_endproc
 115              	.LFE1:
 117              		.align	2
 118              		.globl	_Z13thread_createPP7_threadPFvPvES2_
 120              	_Z13thread_createPP7_threadPFvPvES2_:
 121              	.LFB2:
  41:src/user/syscall_c.cpp **** 
  42:src/user/syscall_c.cpp **** int thread_create(thread_t* handle, void (*start_routine)(void*), void* args)
  43:src/user/syscall_c.cpp **** {
 122              		.loc 1 43 1 is_stmt 1
 123              		.cfi_startproc
 124              	.LVL9:
 125 005c 130101FD 		addi	sp,sp,-48
 126              		.cfi_def_cfa_offset 48
 127 0060 23341102 		sd	ra,40(sp)
 128 0064 23308102 		sd	s0,32(sp)
 129 0068 233C9100 		sd	s1,24(sp)
 130 006c 23382101 		sd	s2,16(sp)
 131 0070 23343101 		sd	s3,8(sp)
 132              		.cfi_offset 1, -8
 133              		.cfi_offset 8, -16
GAS LISTING /tmp/ccBVFacI.s 			page 4


 134              		.cfi_offset 9, -24
 135              		.cfi_offset 18, -32
 136              		.cfi_offset 19, -40
 137 0074 13040103 		addi	s0,sp,48
 138              		.cfi_def_cfa 8, 0
 139 0078 93040500 		mv	s1,a0
 140 007c 13890500 		mv	s2,a1
 141 0080 93090600 		mv	s3,a2
  44:src/user/syscall_c.cpp ****     uint64 handleLocal = (uint64)handle;
 142              		.loc 1 44 5
 143              	.LVL10:
  45:src/user/syscall_c.cpp ****     uint64 startRLocal = (uint64)start_routine;
 144              		.loc 1 45 5
  46:src/user/syscall_c.cpp ****     uint64 argsLocal = (uint64)args;
 145              		.loc 1 46 5
  47:src/user/syscall_c.cpp ****     uint64 opLocal = 0x11;
 146              		.loc 1 47 5
  48:src/user/syscall_c.cpp **** 
  49:src/user/syscall_c.cpp ****     void * stack_space = mem_alloc(DEFAULT_STACK_SIZE);
 147              		.loc 1 49 5
 148              		.loc 1 49 35 is_stmt 0
 149 0084 37150000 		li	a0,4096
 150              	.LVL11:
 151 0088 97000000 		call	_Z9mem_allocm
 151      E7800000 
 152              	.LVL12:
  50:src/user/syscall_c.cpp ****     uint64 stackPointerLocal = (uint64)stack_space;
 153              		.loc 1 50 5 is_stmt 1
  51:src/user/syscall_c.cpp ****     if(stack_space == nullptr)
 154              		.loc 1 51 5
 155 0090 63020504 		beqz	a0,.L9
  52:src/user/syscall_c.cpp ****         return -1;
  53:src/user/syscall_c.cpp **** 
  54:src/user/syscall_c.cpp ****     //initialize registers
  55:src/user/syscall_c.cpp ****     __asm__ volatile("mv a4, %0" :  : "r"((uint64)stackPointerLocal));
 156              		.loc 1 55 5
 157              		.loc 1 55 70 is_stmt 0
 158              	#APP
 159              	# 55 "src/user/syscall_c.cpp" 1
  56              	    //__asm__ volatile("mv a4, %0" :  : "r"((uint64)1));
  57:src/user/syscall_c.cpp ****     __asm__ volatile("mv a3, %0" :  : "r"((uint64)argsLocal));
 160              		mv a4, a0
 161              	# 0 "" 2
 162              		.loc 1 57 5 is_stmt 1
 163              		.loc 1 57 62 is_stmt 0
 164              	# 57 "src/user/syscall_c.cpp" 1
  58              	    __asm__ volatile("mv a2, %0" :  : "r"((uint64)startRLocal));
 165              		mv a3, s3
 166              	# 0 "" 2
 167              		.loc 1 58 5 is_stmt 1
 168              		.loc 1 58 64 is_stmt 0
 169              	# 58 "src/user/syscall_c.cpp" 1
  59              	    __asm__ volatile("mv a1, %0" :  : "r"((uint64)handleLocal));
 170              		mv a2, s2
 171              	# 0 "" 2
 172              		.loc 1 59 5 is_stmt 1
 173              		.loc 1 59 64 is_stmt 0
GAS LISTING /tmp/ccBVFacI.s 			page 5


 174              	# 59 "src/user/syscall_c.cpp" 1
  60              	    __asm__ volatile("mv a0, %0" :  : "r"((uint64)opLocal));
 175              		mv a1, s1
 176              	# 0 "" 2
 177              		.loc 1 60 5 is_stmt 1
 178              		.loc 1 60 60 is_stmt 0
 179              	#NO_APP
 180 00a4 93071001 		li	a5,17
 181              	#APP
 182              	# 60 "src/user/syscall_c.cpp" 1
  61              	
  62:src/user/syscall_c.cpp **** 
  63:src/user/syscall_c.cpp ****     __asm__ volatile("ecall");
 183              		mv a0, a5
 184              	# 0 "" 2
 185              		.loc 1 63 5 is_stmt 1
 186              		.loc 1 63 30 is_stmt 0
 187              	# 63 "src/user/syscall_c.cpp" 1
  64              	
  65:src/user/syscall_c.cpp ****     //get the result
  66:src/user/syscall_c.cpp ****     uint64 result;
 188              		ecall
 189              	# 0 "" 2
 190              		.loc 1 66 5 is_stmt 1
  67:src/user/syscall_c.cpp ****     __asm__ volatile("mv %0, a0" : "=r"(result));
 191              		.loc 1 67 5
 192              		.loc 1 67 49 is_stmt 0
 193              	# 67 "src/user/syscall_c.cpp" 1
  68              	
 194              		mv a0, a0
 195              	# 0 "" 2
 196              	.LVL13:
  69:src/user/syscall_c.cpp ****     return result;
 197              		.loc 1 69 5 is_stmt 1
 198              		.loc 1 69 12 is_stmt 0
 199              	#NO_APP
 200 00b4 1B050500 		sext.w	a0,a0
 201              	.LVL14:
 202              	.L8:
  70:src/user/syscall_c.cpp **** }
 203              		.loc 1 70 1
 204 00b8 83308102 		ld	ra,40(sp)
 205              		.cfi_remember_state
 206              		.cfi_restore 1
 207 00bc 03340102 		ld	s0,32(sp)
 208              		.cfi_restore 8
 209              		.cfi_def_cfa 2, 48
 210 00c0 83348101 		ld	s1,24(sp)
 211              		.cfi_restore 9
 212              	.LVL15:
 213 00c4 03390101 		ld	s2,16(sp)
 214              		.cfi_restore 18
 215              	.LVL16:
 216 00c8 83398100 		ld	s3,8(sp)
 217              		.cfi_restore 19
 218              	.LVL17:
 219 00cc 13010103 		addi	sp,sp,48
GAS LISTING /tmp/ccBVFacI.s 			page 6


 220              		.cfi_def_cfa_offset 0
 221 00d0 67800000 		jr	ra
 222              	.LVL18:
 223              	.L9:
 224              		.cfi_restore_state
  52:src/user/syscall_c.cpp **** 
 225              		.loc 1 52 17
 226 00d4 1305F0FF 		li	a0,-1
 227              	.LVL19:
 228 00d8 6FF01FFE 		j	.L8
 229              		.cfi_endproc
 230              	.LFE2:
 232              		.align	2
 233              		.globl	_Z15thread_dispatchv
 235              	_Z15thread_dispatchv:
 236              	.LFB3:
  71:src/user/syscall_c.cpp **** 
  72:src/user/syscall_c.cpp **** void thread_dispatch()
  73:src/user/syscall_c.cpp **** {
 237              		.loc 1 73 1 is_stmt 1
 238              		.cfi_startproc
 239 00dc 130101FF 		addi	sp,sp,-16
 240              		.cfi_def_cfa_offset 16
 241 00e0 23348100 		sd	s0,8(sp)
 242              		.cfi_offset 8, -8
 243 00e4 13040101 		addi	s0,sp,16
 244              		.cfi_def_cfa 8, 0
  74:src/user/syscall_c.cpp ****     __asm__ volatile("li a0, 0x13");
 245              		.loc 1 74 5
 246              		.loc 1 74 36 is_stmt 0
 247              	#APP
 248              	# 74 "src/user/syscall_c.cpp" 1
  75              	    __asm__ volatile("ecall");
 249              		li a0, 0x13
 250              	# 0 "" 2
 251              		.loc 1 75 5 is_stmt 1
 252              		.loc 1 75 30 is_stmt 0
 253              	# 75 "src/user/syscall_c.cpp" 1
  76              	}
 254              		ecall
 255              	# 0 "" 2
 256              		.loc 1 76 1
 257              	#NO_APP
 258 00f0 03348100 		ld	s0,8(sp)
 259              		.cfi_restore 8
 260              		.cfi_def_cfa 2, 16
 261 00f4 13010101 		addi	sp,sp,16
 262              		.cfi_def_cfa_offset 0
 263 00f8 67800000 		jr	ra
 264              		.cfi_endproc
 265              	.LFE3:
 267              		.align	2
 268              		.globl	_Z11thread_exitv
 270              	_Z11thread_exitv:
 271              	.LFB4:
  77:src/user/syscall_c.cpp **** 
  78:src/user/syscall_c.cpp **** int thread_exit()
GAS LISTING /tmp/ccBVFacI.s 			page 7


  79:src/user/syscall_c.cpp **** {
 272              		.loc 1 79 1 is_stmt 1
 273              		.cfi_startproc
 274 00fc 130101FF 		addi	sp,sp,-16
 275              		.cfi_def_cfa_offset 16
 276 0100 23348100 		sd	s0,8(sp)
 277              		.cfi_offset 8, -8
 278 0104 13040101 		addi	s0,sp,16
 279              		.cfi_def_cfa 8, 0
  80:src/user/syscall_c.cpp ****     __asm__ volatile("li a0, 0x12");
 280              		.loc 1 80 5
 281              		.loc 1 80 36 is_stmt 0
 282              	#APP
 283              	# 80 "src/user/syscall_c.cpp" 1
  81              	
  82:src/user/syscall_c.cpp ****     __asm__ volatile("ecall");
 284              		li a0, 0x12
 285              	# 0 "" 2
 286              		.loc 1 82 5 is_stmt 1
 287              		.loc 1 82 30 is_stmt 0
 288              	# 82 "src/user/syscall_c.cpp" 1
  83              	
  84:src/user/syscall_c.cpp ****     uint64 result;
 289              		ecall
 290              	# 0 "" 2
 291              		.loc 1 84 5 is_stmt 1
  85:src/user/syscall_c.cpp ****     __asm__ volatile("mv %0, a0" : "=r"(result));
 292              		.loc 1 85 5
 293              		.loc 1 85 49 is_stmt 0
 294              	# 85 "src/user/syscall_c.cpp" 1
  86              	    return result;
 295              		mv a0, a0
 296              	# 0 "" 2
 297              	.LVL20:
 298              		.loc 1 86 5 is_stmt 1
  87:src/user/syscall_c.cpp **** }
 299              		.loc 1 87 1 is_stmt 0
 300              	#NO_APP
 301 0114 1B050500 		sext.w	a0,a0
 302              	.LVL21:
 303 0118 03348100 		ld	s0,8(sp)
 304              		.cfi_restore 8
 305              		.cfi_def_cfa 2, 16
 306 011c 13010101 		addi	sp,sp,16
 307              		.cfi_def_cfa_offset 0
 308 0120 67800000 		jr	ra
 309              		.cfi_endproc
 310              	.LFE4:
 312              		.align	2
 313              		.globl	_Z8sem_openPP4_semj
 315              	_Z8sem_openPP4_semj:
 316              	.LFB5:
  88:src/user/syscall_c.cpp **** 
  89:src/user/syscall_c.cpp **** int sem_open(sem_t* handle, unsigned int x)
  90:src/user/syscall_c.cpp **** {
 317              		.loc 1 90 1 is_stmt 1
 318              		.cfi_startproc
GAS LISTING /tmp/ccBVFacI.s 			page 8


 319              	.LVL22:
 320 0124 130101FF 		addi	sp,sp,-16
 321              		.cfi_def_cfa_offset 16
 322 0128 23348100 		sd	s0,8(sp)
 323              		.cfi_offset 8, -8
 324 012c 13040101 		addi	s0,sp,16
 325              		.cfi_def_cfa 8, 0
  91:src/user/syscall_c.cpp ****     __asm__ volatile("mv a2, %0" :  : "r"((uint64)x));
 326              		.loc 1 91 5
 327              		.loc 1 91 43 is_stmt 0
 328 0130 93950502 		slli	a1,a1,32
 329              	.LVL23:
 330 0134 93D50502 		srli	a1,a1,32
 331              		.loc 1 91 54
 332              	#APP
 333              	# 91 "src/user/syscall_c.cpp" 1
  92              	    __asm__ volatile("mv a1, %0" :  : "r"((uint64)handle));
 334              		mv a2, a1
 335              	# 0 "" 2
 336              		.loc 1 92 5 is_stmt 1
 337              		.loc 1 92 59 is_stmt 0
 338              	# 92 "src/user/syscall_c.cpp" 1
  93              	    __asm__ volatile("li a0, 0x21");
 339              		mv a1, a0
 340              	# 0 "" 2
 341              		.loc 1 93 5 is_stmt 1
 342              		.loc 1 93 36 is_stmt 0
 343              	# 93 "src/user/syscall_c.cpp" 1
  94              	
  95:src/user/syscall_c.cpp ****     __asm__ volatile("ecall");
 344              		li a0, 0x21
 345              	# 0 "" 2
 346              		.loc 1 95 5 is_stmt 1
 347              		.loc 1 95 30 is_stmt 0
 348              	# 95 "src/user/syscall_c.cpp" 1
  96              	
  97:src/user/syscall_c.cpp ****     uint64 result;
 349              		ecall
 350              	# 0 "" 2
 351              		.loc 1 97 5 is_stmt 1
  98:src/user/syscall_c.cpp ****     __asm__ volatile("mv %0, a0" : "=r"(result));
 352              		.loc 1 98 5
 353              		.loc 1 98 49 is_stmt 0
 354              	# 98 "src/user/syscall_c.cpp" 1
  99              	    return result;
 355              		mv a0, a0
 356              	# 0 "" 2
 357              	.LVL24:
 358              		.loc 1 99 5 is_stmt 1
 100:src/user/syscall_c.cpp **** }
 359              		.loc 1 100 1 is_stmt 0
 360              	#NO_APP
 361 014c 1B050500 		sext.w	a0,a0
 362              	.LVL25:
 363 0150 03348100 		ld	s0,8(sp)
 364              		.cfi_restore 8
 365              		.cfi_def_cfa 2, 16
GAS LISTING /tmp/ccBVFacI.s 			page 9


 366 0154 13010101 		addi	sp,sp,16
 367              		.cfi_def_cfa_offset 0
 368 0158 67800000 		jr	ra
 369              		.cfi_endproc
 370              	.LFE5:
 372              		.align	2
 373              		.globl	_Z9sem_closeP4_sem
 375              	_Z9sem_closeP4_sem:
 376              	.LFB6:
 101:src/user/syscall_c.cpp **** 
 102:src/user/syscall_c.cpp **** 
 103:src/user/syscall_c.cpp **** int sem_close(sem_t handle)
 104:src/user/syscall_c.cpp **** {
 377              		.loc 1 104 1 is_stmt 1
 378              		.cfi_startproc
 379              	.LVL26:
 380 015c 130101FF 		addi	sp,sp,-16
 381              		.cfi_def_cfa_offset 16
 382 0160 23348100 		sd	s0,8(sp)
 383              		.cfi_offset 8, -8
 384 0164 13040101 		addi	s0,sp,16
 385              		.cfi_def_cfa 8, 0
 105:src/user/syscall_c.cpp ****     __asm__ volatile("mv a1, %0" :  : "r"((uint64)handle));
 386              		.loc 1 105 5
 387              		.loc 1 105 59 is_stmt 0
 388              	#APP
 389              	# 105 "src/user/syscall_c.cpp" 1
 106              	    __asm__ volatile("li a0, 0x22");
 390              		mv a1, a0
 391              	# 0 "" 2
 392              		.loc 1 106 5 is_stmt 1
 393              		.loc 1 106 36 is_stmt 0
 394              	# 106 "src/user/syscall_c.cpp" 1
 107              	
 108:src/user/syscall_c.cpp ****     __asm__ volatile("ecall");
 395              		li a0, 0x22
 396              	# 0 "" 2
 397              		.loc 1 108 5 is_stmt 1
 398              		.loc 1 108 30 is_stmt 0
 399              	# 108 "src/user/syscall_c.cpp" 1
 109              	
 110:src/user/syscall_c.cpp ****     uint64 result;
 400              		ecall
 401              	# 0 "" 2
 402              		.loc 1 110 5 is_stmt 1
 111:src/user/syscall_c.cpp ****     __asm__ volatile("mv %0, a0" : "=r"(result));
 403              		.loc 1 111 5
 404              		.loc 1 111 49 is_stmt 0
 405              	# 111 "src/user/syscall_c.cpp" 1
 112              	    return result;
 406              		mv a0, a0
 407              	# 0 "" 2
 408              	.LVL27:
 409              		.loc 1 112 5 is_stmt 1
 113:src/user/syscall_c.cpp **** }
 410              		.loc 1 113 1 is_stmt 0
 411              	#NO_APP
GAS LISTING /tmp/ccBVFacI.s 			page 10


 412 0178 1B050500 		sext.w	a0,a0
 413              	.LVL28:
 414 017c 03348100 		ld	s0,8(sp)
 415              		.cfi_restore 8
 416              		.cfi_def_cfa 2, 16
 417 0180 13010101 		addi	sp,sp,16
 418              		.cfi_def_cfa_offset 0
 419 0184 67800000 		jr	ra
 420              		.cfi_endproc
 421              	.LFE6:
 423              		.align	2
 424              		.globl	_Z8sem_waitP4_sem
 426              	_Z8sem_waitP4_sem:
 427              	.LFB7:
 114:src/user/syscall_c.cpp **** 
 115:src/user/syscall_c.cpp **** int sem_wait(sem_t id)
 116:src/user/syscall_c.cpp **** {
 428              		.loc 1 116 1 is_stmt 1
 429              		.cfi_startproc
 430              	.LVL29:
 431 0188 130101FF 		addi	sp,sp,-16
 432              		.cfi_def_cfa_offset 16
 433 018c 23348100 		sd	s0,8(sp)
 434              		.cfi_offset 8, -8
 435 0190 13040101 		addi	s0,sp,16
 436              		.cfi_def_cfa 8, 0
 117:src/user/syscall_c.cpp ****     __asm__ volatile("mv a1, %0" :  : "r"((uint64)id));
 437              		.loc 1 117 5
 438              		.loc 1 117 55 is_stmt 0
 439              	#APP
 440              	# 117 "src/user/syscall_c.cpp" 1
 118              	    __asm__ volatile("li a0, 0x23");
 441              		mv a1, a0
 442              	# 0 "" 2
 443              		.loc 1 118 5 is_stmt 1
 444              		.loc 1 118 36 is_stmt 0
 445              	# 118 "src/user/syscall_c.cpp" 1
 119              	
 120:src/user/syscall_c.cpp ****     __asm__ volatile("ecall");
 446              		li a0, 0x23
 447              	# 0 "" 2
 448              		.loc 1 120 5 is_stmt 1
 449              		.loc 1 120 30 is_stmt 0
 450              	# 120 "src/user/syscall_c.cpp" 1
 121              	
 122:src/user/syscall_c.cpp ****     uint64 result;
 451              		ecall
 452              	# 0 "" 2
 453              		.loc 1 122 5 is_stmt 1
 123:src/user/syscall_c.cpp ****     __asm__ volatile("mv %0, a0" : "=r"(result));
 454              		.loc 1 123 5
 455              		.loc 1 123 49 is_stmt 0
 456              	# 123 "src/user/syscall_c.cpp" 1
 124              	    return result;
 457              		mv a0, a0
 458              	# 0 "" 2
 459              	.LVL30:
GAS LISTING /tmp/ccBVFacI.s 			page 11


 460              		.loc 1 124 5 is_stmt 1
 125:src/user/syscall_c.cpp **** }
 461              		.loc 1 125 1 is_stmt 0
 462              	#NO_APP
 463 01a4 1B050500 		sext.w	a0,a0
 464              	.LVL31:
 465 01a8 03348100 		ld	s0,8(sp)
 466              		.cfi_restore 8
 467              		.cfi_def_cfa 2, 16
 468 01ac 13010101 		addi	sp,sp,16
 469              		.cfi_def_cfa_offset 0
 470 01b0 67800000 		jr	ra
 471              		.cfi_endproc
 472              	.LFE7:
 474              		.align	2
 475              		.globl	_Z10sem_signalP4_sem
 477              	_Z10sem_signalP4_sem:
 478              	.LFB8:
 126:src/user/syscall_c.cpp **** 
 127:src/user/syscall_c.cpp **** int sem_signal(sem_t id)
 128:src/user/syscall_c.cpp **** {
 479              		.loc 1 128 1 is_stmt 1
 480              		.cfi_startproc
 481              	.LVL32:
 482 01b4 130101FF 		addi	sp,sp,-16
 483              		.cfi_def_cfa_offset 16
 484 01b8 23348100 		sd	s0,8(sp)
 485              		.cfi_offset 8, -8
 486 01bc 13040101 		addi	s0,sp,16
 487              		.cfi_def_cfa 8, 0
 129:src/user/syscall_c.cpp ****     __asm__ volatile("mv a1, %0" :  : "r"((uint64)id));
 488              		.loc 1 129 5
 489              		.loc 1 129 55 is_stmt 0
 490              	#APP
 491              	# 129 "src/user/syscall_c.cpp" 1
 130              	    __asm__ volatile("li a0, 0x24");
 492              		mv a1, a0
 493              	# 0 "" 2
 494              		.loc 1 130 5 is_stmt 1
 495              		.loc 1 130 36 is_stmt 0
 496              	# 130 "src/user/syscall_c.cpp" 1
 131              	
 132:src/user/syscall_c.cpp ****     __asm__ volatile("ecall");
 497              		li a0, 0x24
 498              	# 0 "" 2
 499              		.loc 1 132 5 is_stmt 1
 500              		.loc 1 132 30 is_stmt 0
 501              	# 132 "src/user/syscall_c.cpp" 1
 133              	
 134:src/user/syscall_c.cpp ****     uint64 result;
 502              		ecall
 503              	# 0 "" 2
 504              		.loc 1 134 5 is_stmt 1
 135:src/user/syscall_c.cpp ****     __asm__ volatile("mv %0, a0" : "=r"(result));
 505              		.loc 1 135 5
 506              		.loc 1 135 49 is_stmt 0
 507              	# 135 "src/user/syscall_c.cpp" 1
GAS LISTING /tmp/ccBVFacI.s 			page 12


 136              	    return result;
 508              		mv a0, a0
 509              	# 0 "" 2
 510              	.LVL33:
 511              		.loc 1 136 5 is_stmt 1
 137:src/user/syscall_c.cpp **** }
 512              		.loc 1 137 1 is_stmt 0
 513              	#NO_APP
 514 01d0 1B050500 		sext.w	a0,a0
 515              	.LVL34:
 516 01d4 03348100 		ld	s0,8(sp)
 517              		.cfi_restore 8
 518              		.cfi_def_cfa 2, 16
 519 01d8 13010101 		addi	sp,sp,16
 520              		.cfi_def_cfa_offset 0
 521 01dc 67800000 		jr	ra
 522              		.cfi_endproc
 523              	.LFE8:
 525              		.align	2
 526              		.globl	_Z10time_sleepm
 528              	_Z10time_sleepm:
 529              	.LFB9:
 138:src/user/syscall_c.cpp **** 
 139:src/user/syscall_c.cpp **** int time_sleep(uint64 time)
 140:src/user/syscall_c.cpp **** {
 530              		.loc 1 140 1 is_stmt 1
 531              		.cfi_startproc
 532              	.LVL35:
 533 01e0 130101FF 		addi	sp,sp,-16
 534              		.cfi_def_cfa_offset 16
 535 01e4 23348100 		sd	s0,8(sp)
 536              		.cfi_offset 8, -8
 537 01e8 13040101 		addi	s0,sp,16
 538              		.cfi_def_cfa 8, 0
 141:src/user/syscall_c.cpp ****     __asm__ volatile("mv a1, %0" :  : "r"((uint64)time));
 539              		.loc 1 141 5
 540              		.loc 1 141 57 is_stmt 0
 541              	#APP
 542              	# 141 "src/user/syscall_c.cpp" 1
 142              	    __asm__ volatile("li a0, 0x31");
 543              		mv a1, a0
 544              	# 0 "" 2
 545              		.loc 1 142 5 is_stmt 1
 546              		.loc 1 142 36 is_stmt 0
 547              	# 142 "src/user/syscall_c.cpp" 1
 143              	
 144:src/user/syscall_c.cpp ****     __asm__ volatile("ecall");
 548              		li a0, 0x31
 549              	# 0 "" 2
 550              		.loc 1 144 5 is_stmt 1
 551              		.loc 1 144 30 is_stmt 0
 552              	# 144 "src/user/syscall_c.cpp" 1
 145              	
 146:src/user/syscall_c.cpp ****     uint64 result;
 553              		ecall
 554              	# 0 "" 2
 555              		.loc 1 146 5 is_stmt 1
GAS LISTING /tmp/ccBVFacI.s 			page 13


 147:src/user/syscall_c.cpp ****     __asm__ volatile("mv %0, a0" : "=r"(result));
 556              		.loc 1 147 5
 557              		.loc 1 147 49 is_stmt 0
 558              	# 147 "src/user/syscall_c.cpp" 1
 148              	    return result;
 559              		mv a0, a0
 560              	# 0 "" 2
 561              	.LVL36:
 562              		.loc 1 148 5 is_stmt 1
 149:src/user/syscall_c.cpp **** }
 563              		.loc 1 149 1 is_stmt 0
 564              	#NO_APP
 565 01fc 1B050500 		sext.w	a0,a0
 566              	.LVL37:
 567 0200 03348100 		ld	s0,8(sp)
 568              		.cfi_restore 8
 569              		.cfi_def_cfa 2, 16
 570 0204 13010101 		addi	sp,sp,16
 571              		.cfi_def_cfa_offset 0
 572 0208 67800000 		jr	ra
 573              		.cfi_endproc
 574              	.LFE9:
 576              		.align	2
 577              		.globl	_Z12thread_startPv
 579              	_Z12thread_startPv:
 580              	.LFB10:
 150:src/user/syscall_c.cpp **** 
 151:src/user/syscall_c.cpp **** int thread_start(void* p)
 152:src/user/syscall_c.cpp **** {
 581              		.loc 1 152 1 is_stmt 1
 582              		.cfi_startproc
 583              	.LVL38:
 584 020c 130101FF 		addi	sp,sp,-16
 585              		.cfi_def_cfa_offset 16
 586 0210 23348100 		sd	s0,8(sp)
 587              		.cfi_offset 8, -8
 588 0214 13040101 		addi	s0,sp,16
 589              		.cfi_def_cfa 8, 0
 153:src/user/syscall_c.cpp ****     __asm__ volatile("mv a1, %0" :  : "r"((uint64)p));
 590              		.loc 1 153 5
 591              		.loc 1 153 54 is_stmt 0
 592              	#APP
 593              	# 153 "src/user/syscall_c.cpp" 1
 154              	    __asm__ volatile("li a0, 0x15");
 594              		mv a1, a0
 595              	# 0 "" 2
 596              		.loc 1 154 5 is_stmt 1
 597              		.loc 1 154 36 is_stmt 0
 598              	# 154 "src/user/syscall_c.cpp" 1
 155              	
 156:src/user/syscall_c.cpp ****     __asm__ volatile("ecall");
 599              		li a0, 0x15
 600              	# 0 "" 2
 601              		.loc 1 156 5 is_stmt 1
 602              		.loc 1 156 30 is_stmt 0
 603              	# 156 "src/user/syscall_c.cpp" 1
 157              	
GAS LISTING /tmp/ccBVFacI.s 			page 14


 158:src/user/syscall_c.cpp ****     uint64 result;
 604              		ecall
 605              	# 0 "" 2
 606              		.loc 1 158 5 is_stmt 1
 159:src/user/syscall_c.cpp ****     __asm__ volatile("mv %0, a0" : "=r"(result));
 607              		.loc 1 159 5
 608              		.loc 1 159 49 is_stmt 0
 609              	# 159 "src/user/syscall_c.cpp" 1
 160              	    return result;
 610              		mv a0, a0
 611              	# 0 "" 2
 612              	.LVL39:
 613              		.loc 1 160 5 is_stmt 1
 161:src/user/syscall_c.cpp **** }
 614              		.loc 1 161 1 is_stmt 0
 615              	#NO_APP
 616 0228 1B050500 		sext.w	a0,a0
 617              	.LVL40:
 618 022c 03348100 		ld	s0,8(sp)
 619              		.cfi_restore 8
 620              		.cfi_def_cfa 2, 16
 621 0230 13010101 		addi	sp,sp,16
 622              		.cfi_def_cfa_offset 0
 623 0234 67800000 		jr	ra
 624              		.cfi_endproc
 625              	.LFE10:
 627              		.align	2
 628              		.globl	_Z15thread_make_pcbPP7_threadPFvPvES2_
 630              	_Z15thread_make_pcbPP7_threadPFvPvES2_:
 631              	.LFB11:
 162:src/user/syscall_c.cpp **** 
 163:src/user/syscall_c.cpp **** int thread_make_pcb(thread_t* handle, void(*start_routine)(void*), void *arg)
 164:src/user/syscall_c.cpp **** {
 632              		.loc 1 164 1 is_stmt 1
 633              		.cfi_startproc
 634              	.LVL41:
 635 0238 130101FD 		addi	sp,sp,-48
 636              		.cfi_def_cfa_offset 48
 637 023c 23341102 		sd	ra,40(sp)
 638 0240 23308102 		sd	s0,32(sp)
 639 0244 233C9100 		sd	s1,24(sp)
 640 0248 23382101 		sd	s2,16(sp)
 641 024c 23343101 		sd	s3,8(sp)
 642              		.cfi_offset 1, -8
 643              		.cfi_offset 8, -16
 644              		.cfi_offset 9, -24
 645              		.cfi_offset 18, -32
 646              		.cfi_offset 19, -40
 647 0250 13040103 		addi	s0,sp,48
 648              		.cfi_def_cfa 8, 0
 649 0254 93040500 		mv	s1,a0
 650 0258 13890500 		mv	s2,a1
 651 025c 93090600 		mv	s3,a2
 165:src/user/syscall_c.cpp ****     uint64 handleLocal = (uint64)handle;
 652              		.loc 1 165 5
 653              	.LVL42:
 166:src/user/syscall_c.cpp ****     uint64 startRLocal = (uint64)start_routine;
GAS LISTING /tmp/ccBVFacI.s 			page 15


 654              		.loc 1 166 5
 167:src/user/syscall_c.cpp ****     uint64 argsLocal = (uint64)arg;
 655              		.loc 1 167 5
 168:src/user/syscall_c.cpp ****     uint64 opLocal = 0x14;
 656              		.loc 1 168 5
 169:src/user/syscall_c.cpp **** 
 170:src/user/syscall_c.cpp ****     void * stack_space = mem_alloc(DEFAULT_STACK_SIZE);
 657              		.loc 1 170 5
 658              		.loc 1 170 35 is_stmt 0
 659 0260 37150000 		li	a0,4096
 660              	.LVL43:
 661 0264 97000000 		call	_Z9mem_allocm
 661      E7800000 
 662              	.LVL44:
 171:src/user/syscall_c.cpp ****     uint64 stackPointerLocal = (uint64)stack_space;
 663              		.loc 1 171 5 is_stmt 1
 172:src/user/syscall_c.cpp ****     if(stack_space == 0)
 664              		.loc 1 172 5
 665 026c 63020504 		beqz	a0,.L29
 173:src/user/syscall_c.cpp ****         return -1;
 174:src/user/syscall_c.cpp **** 
 175:src/user/syscall_c.cpp ****     //initialize registers
 176:src/user/syscall_c.cpp ****     __asm__ volatile("mv a4, %0" :  : "r"((uint64)stackPointerLocal));
 666              		.loc 1 176 5
 667              		.loc 1 176 70 is_stmt 0
 668              	#APP
 669              	# 176 "src/user/syscall_c.cpp" 1
 177              	    //__asm__ volatile("mv a4, %0" :  : "r"((uint64)1));
 178:src/user/syscall_c.cpp ****     __asm__ volatile("mv a3, %0" :  : "r"((uint64)argsLocal));
 670              		mv a4, a0
 671              	# 0 "" 2
 672              		.loc 1 178 5 is_stmt 1
 673              		.loc 1 178 62 is_stmt 0
 674              	# 178 "src/user/syscall_c.cpp" 1
 179              	    __asm__ volatile("mv a2, %0" :  : "r"((uint64)startRLocal));
 675              		mv a3, s3
 676              	# 0 "" 2
 677              		.loc 1 179 5 is_stmt 1
 678              		.loc 1 179 64 is_stmt 0
 679              	# 179 "src/user/syscall_c.cpp" 1
 180              	    __asm__ volatile("mv a1, %0" :  : "r"((uint64)handleLocal));
 680              		mv a2, s2
 681              	# 0 "" 2
 682              		.loc 1 180 5 is_stmt 1
 683              		.loc 1 180 64 is_stmt 0
 684              	# 180 "src/user/syscall_c.cpp" 1
 181              	    __asm__ volatile("mv a0, %0" :  : "r"((uint64)opLocal));
 685              		mv a1, s1
 686              	# 0 "" 2
 687              		.loc 1 181 5 is_stmt 1
 688              		.loc 1 181 60 is_stmt 0
 689              	#NO_APP
 690 0280 93074001 		li	a5,20
 691              	#APP
 692              	# 181 "src/user/syscall_c.cpp" 1
 182              	
 183:src/user/syscall_c.cpp ****     __asm__ volatile("ecall");
GAS LISTING /tmp/ccBVFacI.s 			page 16


 693              		mv a0, a5
 694              	# 0 "" 2
 695              		.loc 1 183 5 is_stmt 1
 696              		.loc 1 183 30 is_stmt 0
 697              	# 183 "src/user/syscall_c.cpp" 1
 184              	
 185:src/user/syscall_c.cpp ****     //get the result
 186:src/user/syscall_c.cpp ****     uint64 result;
 698              		ecall
 699              	# 0 "" 2
 700              		.loc 1 186 5 is_stmt 1
 187:src/user/syscall_c.cpp ****     __asm__ volatile("mv %0, a0" : "=r"(result));
 701              		.loc 1 187 5
 702              		.loc 1 187 49 is_stmt 0
 703              	# 187 "src/user/syscall_c.cpp" 1
 188              	    return result;
 704              		mv a0, a0
 705              	# 0 "" 2
 706              	.LVL45:
 707              		.loc 1 188 5 is_stmt 1
 708              		.loc 1 188 12 is_stmt 0
 709              	#NO_APP
 710 0290 1B050500 		sext.w	a0,a0
 711              	.LVL46:
 712              	.L28:
 189:src/user/syscall_c.cpp **** }
 713              		.loc 1 189 1
 714 0294 83308102 		ld	ra,40(sp)
 715              		.cfi_remember_state
 716              		.cfi_restore 1
 717 0298 03340102 		ld	s0,32(sp)
 718              		.cfi_restore 8
 719              		.cfi_def_cfa 2, 48
 720 029c 83348101 		ld	s1,24(sp)
 721              		.cfi_restore 9
 722              	.LVL47:
 723 02a0 03390101 		ld	s2,16(sp)
 724              		.cfi_restore 18
 725              	.LVL48:
 726 02a4 83398100 		ld	s3,8(sp)
 727              		.cfi_restore 19
 728              	.LVL49:
 729 02a8 13010103 		addi	sp,sp,48
 730              		.cfi_def_cfa_offset 0
 731 02ac 67800000 		jr	ra
 732              	.LVL50:
 733              	.L29:
 734              		.cfi_restore_state
 173:src/user/syscall_c.cpp **** 
 735              		.loc 1 173 17
 736 02b0 1305F0FF 		li	a0,-1
 737              	.LVL51:
 738 02b4 6FF01FFE 		j	.L28
 739              		.cfi_endproc
 740              	.LFE11:
 742              		.align	2
 743              		.globl	_Z4getcv
GAS LISTING /tmp/ccBVFacI.s 			page 17


 745              	_Z4getcv:
 746              	.LFB12:
 190:src/user/syscall_c.cpp **** 
 191:src/user/syscall_c.cpp **** char getc()
 192:src/user/syscall_c.cpp **** {
 747              		.loc 1 192 1 is_stmt 1
 748              		.cfi_startproc
 749 02b8 130101FF 		addi	sp,sp,-16
 750              		.cfi_def_cfa_offset 16
 751 02bc 23348100 		sd	s0,8(sp)
 752              		.cfi_offset 8, -8
 753 02c0 13040101 		addi	s0,sp,16
 754              		.cfi_def_cfa 8, 0
 193:src/user/syscall_c.cpp ****     __asm__ volatile("li a0, 0x41");
 755              		.loc 1 193 5
 756              		.loc 1 193 36 is_stmt 0
 757              	#APP
 758              	# 193 "src/user/syscall_c.cpp" 1
 194              	
 195:src/user/syscall_c.cpp ****     __asm__ volatile("ecall");
 759              		li a0, 0x41
 760              	# 0 "" 2
 761              		.loc 1 195 5 is_stmt 1
 762              		.loc 1 195 30 is_stmt 0
 763              	# 195 "src/user/syscall_c.cpp" 1
 196              	
 197:src/user/syscall_c.cpp ****     uint64 result;
 764              		ecall
 765              	# 0 "" 2
 766              		.loc 1 197 5 is_stmt 1
 198:src/user/syscall_c.cpp ****     __asm__ volatile("mv %0, a0" : "=r"(result));
 767              		.loc 1 198 5
 768              		.loc 1 198 49 is_stmt 0
 769              	# 198 "src/user/syscall_c.cpp" 1
 199              	    return (char)result;
 770              		mv a0, a0
 771              	# 0 "" 2
 772              	.LVL52:
 773              		.loc 1 199 5 is_stmt 1
 200:src/user/syscall_c.cpp **** }
 774              		.loc 1 200 1 is_stmt 0
 775              	#NO_APP
 776 02d0 1375F50F 		andi	a0,a0,0xff
 777              	.LVL53:
 778 02d4 03348100 		ld	s0,8(sp)
 779              		.cfi_restore 8
 780              		.cfi_def_cfa 2, 16
 781 02d8 13010101 		addi	sp,sp,16
 782              		.cfi_def_cfa_offset 0
 783 02dc 67800000 		jr	ra
 784              		.cfi_endproc
 785              	.LFE12:
 787              		.align	2
 788              		.globl	_Z4putcc
 790              	_Z4putcc:
 791              	.LFB13:
 201:src/user/syscall_c.cpp **** 
GAS LISTING /tmp/ccBVFacI.s 			page 18


 202:src/user/syscall_c.cpp **** void putc(char c)
 203:src/user/syscall_c.cpp **** {
 792              		.loc 1 203 1 is_stmt 1
 793              		.cfi_startproc
 794              	.LVL54:
 795 02e0 130101FF 		addi	sp,sp,-16
 796              		.cfi_def_cfa_offset 16
 797 02e4 23348100 		sd	s0,8(sp)
 798              		.cfi_offset 8, -8
 799 02e8 13040101 		addi	s0,sp,16
 800              		.cfi_def_cfa 8, 0
 204:src/user/syscall_c.cpp ****     __asm__ volatile("mv a1, %0" :  : "r"((uint64)c));
 801              		.loc 1 204 5
 802              		.loc 1 204 54 is_stmt 0
 803              	#APP
 804              	# 204 "src/user/syscall_c.cpp" 1
 205              	    __asm__ volatile("li a0, 0x42");
 805              		mv a1, a0
 806              	# 0 "" 2
 807              		.loc 1 205 5 is_stmt 1
 808              		.loc 1 205 36 is_stmt 0
 809              	# 205 "src/user/syscall_c.cpp" 1
 206              	    __asm__ volatile("ecall");
 810              		li a0, 0x42
 811              	# 0 "" 2
 812              		.loc 1 206 5 is_stmt 1
 813              		.loc 1 206 30 is_stmt 0
 814              	# 206 "src/user/syscall_c.cpp" 1
 207              	}
 815              		ecall
 816              	# 0 "" 2
 817              		.loc 1 207 1
 818              	#NO_APP
 819 02f8 03348100 		ld	s0,8(sp)
 820              		.cfi_restore 8
 821              		.cfi_def_cfa 2, 16
 822 02fc 13010101 		addi	sp,sp,16
 823              		.cfi_def_cfa_offset 0
 824 0300 67800000 		jr	ra
 825              		.cfi_endproc
 826              	.LFE13:
 828              		.align	2
 829              		.globl	_Z17thread_delete_pcbP7_thread
 831              	_Z17thread_delete_pcbP7_thread:
 832              	.LFB14:
 208:src/user/syscall_c.cpp **** 
 209:src/user/syscall_c.cpp **** 
 210:src/user/syscall_c.cpp **** //char sysCallGetCharOutput()
 211:src/user/syscall_c.cpp **** //{
 212:src/user/syscall_c.cpp **** //    __asm__ volatile("li a0, 0x43");
 213:src/user/syscall_c.cpp **** //
 214:src/user/syscall_c.cpp **** //    __asm__ volatile("ecall");
 215:src/user/syscall_c.cpp **** //
 216:src/user/syscall_c.cpp **** //    uint64 result;
 217:src/user/syscall_c.cpp **** //    __asm__ volatile("mv %0, a0" : "=r"(result));
 218:src/user/syscall_c.cpp **** //    return (char)result;
 219:src/user/syscall_c.cpp **** //}
GAS LISTING /tmp/ccBVFacI.s 			page 19


 220:src/user/syscall_c.cpp **** 
 221:src/user/syscall_c.cpp **** int thread_delete_pcb(thread_t handle)
 222:src/user/syscall_c.cpp **** {
 833              		.loc 1 222 1 is_stmt 1
 834              		.cfi_startproc
 835              	.LVL55:
 836 0304 130101FF 		addi	sp,sp,-16
 837              		.cfi_def_cfa_offset 16
 838 0308 23348100 		sd	s0,8(sp)
 839              		.cfi_offset 8, -8
 840 030c 13040101 		addi	s0,sp,16
 841              		.cfi_def_cfa 8, 0
 223:src/user/syscall_c.cpp ****     __asm__ volatile("mv a1, %0" :  : "r"((uint64)handle));
 842              		.loc 1 223 5
 843              		.loc 1 223 59 is_stmt 0
 844              	#APP
 845              	# 223 "src/user/syscall_c.cpp" 1
 224              	    __asm__ volatile("li a0, 0x16");
 846              		mv a1, a0
 847              	# 0 "" 2
 848              		.loc 1 224 5 is_stmt 1
 849              		.loc 1 224 36 is_stmt 0
 850              	# 224 "src/user/syscall_c.cpp" 1
 225              	    __asm__ volatile("ecall");
 851              		li a0, 0x16
 852              	# 0 "" 2
 853              		.loc 1 225 5 is_stmt 1
 854              		.loc 1 225 30 is_stmt 0
 855              	# 225 "src/user/syscall_c.cpp" 1
 226              	
 227:src/user/syscall_c.cpp ****     uint64 result;
 856              		ecall
 857              	# 0 "" 2
 858              		.loc 1 227 5 is_stmt 1
 228:src/user/syscall_c.cpp ****     __asm__ volatile("mv %0, a0" : "=r"(result));
 859              		.loc 1 228 5
 860              		.loc 1 228 49 is_stmt 0
 861              	# 228 "src/user/syscall_c.cpp" 1
 229              	    return (char)result;
 862              		mv a0, a0
 863              	# 0 "" 2
 864              	.LVL56:
 865              		.loc 1 229 5 is_stmt 1
 230:src/user/syscall_c.cpp **** }
 866              		.loc 1 230 1 is_stmt 0
 867              	#NO_APP
 868 0320 1375F50F 		andi	a0,a0,0xff
 869              	.LVL57:
 870 0324 03348100 		ld	s0,8(sp)
 871              		.cfi_restore 8
 872              		.cfi_def_cfa 2, 16
 873 0328 13010101 		addi	sp,sp,16
 874              		.cfi_def_cfa_offset 0
 875 032c 67800000 		jr	ra
 876              		.cfi_endproc
 877              	.LFE14:
 879              	.Letext0:
GAS LISTING /tmp/ccBVFacI.s 			page 20


 880              		.file 2 "src/user/../../h/../lib/hw.h"
 881              		.file 3 "src/user/../../h/_thread.hpp"
 882              		.file 4 "src/user/../../h/_sem.hpp"
 883              		.file 5 "src/user/../../h/syscall_c.hpp"
GAS LISTING /tmp/ccBVFacI.s 			page 21


DEFINED SYMBOLS
                            *ABS*:0000000000000000 syscall_c.cpp
     /tmp/ccBVFacI.s:9      .text:0000000000000000 _Z9mem_allocm
     /tmp/ccBVFacI.s:13     .text:0000000000000000 .L0 
     /tmp/ccBVFacI.s:15     .text:0000000000000000 .L0 
     /tmp/ccBVFacI.s:16     .text:0000000000000004 .L0 
     /tmp/ccBVFacI.s:18     .text:0000000000000008 .L0 
     /tmp/ccBVFacI.s:20     .text:000000000000000c .L0 
     /tmp/ccBVFacI.s:22     .text:000000000000000c .L0 
     /tmp/ccBVFacI.s:23     .text:000000000000000c .L0 
     /tmp/ccBVFacI.s:26     .text:0000000000000010 .L0 
     /tmp/ccBVFacI.s:29     .text:0000000000000014 .L0 
src/user/syscall_c.cpp:11     .text:0000000000000014 .L0 
     /tmp/ccBVFacI.s:35     .text:0000000000000018 .L0 
src/user/syscall_c.cpp:12     .text:0000000000000018 .L0 
     /tmp/ccBVFacI.s:40     .text:000000000000001c .L0 
src/user/syscall_c.cpp:14     .text:000000000000001c .L0 
     /tmp/ccBVFacI.s:46     .text:0000000000000020 .L0 
     /tmp/ccBVFacI.s:47     .text:0000000000000020 .L0 
src/user/syscall_c.cpp:18     .text:0000000000000020 .L0 
     /tmp/ccBVFacI.s:53     .text:0000000000000024 .L0 
     /tmp/ccBVFacI.s:55     .text:0000000000000024 .L0 
     /tmp/ccBVFacI.s:56     .text:0000000000000028 .L0 
     /tmp/ccBVFacI.s:57     .text:0000000000000028 .L0 
     /tmp/ccBVFacI.s:59     .text:000000000000002c .L0 
     /tmp/ccBVFacI.s:61     .text:0000000000000030 .L0 
     /tmp/ccBVFacI.s:67     .text:0000000000000030 _Z8mem_freePv
     /tmp/ccBVFacI.s:70     .text:0000000000000030 .L0 
     /tmp/ccBVFacI.s:72     .text:0000000000000030 .L0 
     /tmp/ccBVFacI.s:73     .text:0000000000000034 .L0 
     /tmp/ccBVFacI.s:75     .text:0000000000000038 .L0 
     /tmp/ccBVFacI.s:77     .text:000000000000003c .L0 
     /tmp/ccBVFacI.s:80     .text:000000000000003c .L0 
     /tmp/ccBVFacI.s:81     .text:000000000000003c .L0 
src/user/syscall_c.cpp:30     .text:000000000000003c .L0 
     /tmp/ccBVFacI.s:87     .text:0000000000000040 .L0 
src/user/syscall_c.cpp:31     .text:0000000000000040 .L0 
     /tmp/ccBVFacI.s:92     .text:0000000000000044 .L0 
src/user/syscall_c.cpp:33     .text:0000000000000044 .L0 
     /tmp/ccBVFacI.s:97     .text:0000000000000048 .L0 
     /tmp/ccBVFacI.s:98     .text:0000000000000048 .L0 
src/user/syscall_c.cpp:37     .text:0000000000000048 .L0 
     /tmp/ccBVFacI.s:104    .text:000000000000004c .L0 
     /tmp/ccBVFacI.s:106    .text:000000000000004c .L0 
     /tmp/ccBVFacI.s:109    .text:0000000000000054 .L0 
     /tmp/ccBVFacI.s:110    .text:0000000000000054 .L0 
     /tmp/ccBVFacI.s:112    .text:0000000000000058 .L0 
     /tmp/ccBVFacI.s:114    .text:000000000000005c .L0 
     /tmp/ccBVFacI.s:120    .text:000000000000005c _Z13thread_createPP7_threadPFvPvES2_
     /tmp/ccBVFacI.s:123    .text:000000000000005c .L0 
     /tmp/ccBVFacI.s:125    .text:000000000000005c .L0 
     /tmp/ccBVFacI.s:126    .text:0000000000000060 .L0 
     /tmp/ccBVFacI.s:132    .text:0000000000000074 .L0 
     /tmp/ccBVFacI.s:133    .text:0000000000000074 .L0 
     /tmp/ccBVFacI.s:134    .text:0000000000000074 .L0 
     /tmp/ccBVFacI.s:135    .text:0000000000000074 .L0 
     /tmp/ccBVFacI.s:136    .text:0000000000000074 .L0 
GAS LISTING /tmp/ccBVFacI.s 			page 22


     /tmp/ccBVFacI.s:138    .text:0000000000000078 .L0 
     /tmp/ccBVFacI.s:144    .text:0000000000000084 .L0 
     /tmp/ccBVFacI.s:145    .text:0000000000000084 .L0 
     /tmp/ccBVFacI.s:146    .text:0000000000000084 .L0 
     /tmp/ccBVFacI.s:147    .text:0000000000000084 .L0 
     /tmp/ccBVFacI.s:148    .text:0000000000000084 .L0 
     /tmp/ccBVFacI.s:149    .text:0000000000000084 .L0 
     /tmp/ccBVFacI.s:154    .text:0000000000000090 .L0 
     /tmp/ccBVFacI.s:155    .text:0000000000000090 .L0 
     /tmp/ccBVFacI.s:157    .text:0000000000000094 .L0 
src/user/syscall_c.cpp:55     .text:0000000000000094 .L0 
     /tmp/ccBVFacI.s:163    .text:0000000000000098 .L0 
src/user/syscall_c.cpp:57     .text:0000000000000098 .L0 
     /tmp/ccBVFacI.s:168    .text:000000000000009c .L0 
src/user/syscall_c.cpp:58     .text:000000000000009c .L0 
     /tmp/ccBVFacI.s:173    .text:00000000000000a0 .L0 
src/user/syscall_c.cpp:59     .text:00000000000000a0 .L0 
     /tmp/ccBVFacI.s:178    .text:00000000000000a4 .L0 
     /tmp/ccBVFacI.s:180    .text:00000000000000a4 .L0 
     /tmp/ccBVFacI.s:186    .text:00000000000000ac .L0 
src/user/syscall_c.cpp:63     .text:00000000000000ac .L0 
     /tmp/ccBVFacI.s:191    .text:00000000000000b0 .L0 
     /tmp/ccBVFacI.s:192    .text:00000000000000b0 .L0 
src/user/syscall_c.cpp:67     .text:00000000000000b0 .L0 
     /tmp/ccBVFacI.s:198    .text:00000000000000b4 .L0 
     /tmp/ccBVFacI.s:200    .text:00000000000000b4 .L0 
     /tmp/ccBVFacI.s:204    .text:00000000000000b8 .L0 
     /tmp/ccBVFacI.s:205    .text:00000000000000bc .L0 
     /tmp/ccBVFacI.s:206    .text:00000000000000bc .L0 
     /tmp/ccBVFacI.s:208    .text:00000000000000c0 .L0 
     /tmp/ccBVFacI.s:209    .text:00000000000000c0 .L0 
     /tmp/ccBVFacI.s:211    .text:00000000000000c4 .L0 
     /tmp/ccBVFacI.s:214    .text:00000000000000c8 .L0 
     /tmp/ccBVFacI.s:217    .text:00000000000000cc .L0 
     /tmp/ccBVFacI.s:220    .text:00000000000000d0 .L0 
     /tmp/ccBVFacI.s:224    .text:00000000000000d4 .L0 
     /tmp/ccBVFacI.s:226    .text:00000000000000d4 .L0 
     /tmp/ccBVFacI.s:229    .text:00000000000000dc .L0 
     /tmp/ccBVFacI.s:235    .text:00000000000000dc _Z15thread_dispatchv
     /tmp/ccBVFacI.s:238    .text:00000000000000dc .L0 
     /tmp/ccBVFacI.s:239    .text:00000000000000dc .L0 
     /tmp/ccBVFacI.s:240    .text:00000000000000e0 .L0 
     /tmp/ccBVFacI.s:242    .text:00000000000000e4 .L0 
     /tmp/ccBVFacI.s:244    .text:00000000000000e8 .L0 
     /tmp/ccBVFacI.s:246    .text:00000000000000e8 .L0 
src/user/syscall_c.cpp:74     .text:00000000000000e8 .L0 
     /tmp/ccBVFacI.s:252    .text:00000000000000ec .L0 
src/user/syscall_c.cpp:75     .text:00000000000000ec .L0 
     /tmp/ccBVFacI.s:258    .text:00000000000000f0 .L0 
     /tmp/ccBVFacI.s:259    .text:00000000000000f4 .L0 
     /tmp/ccBVFacI.s:260    .text:00000000000000f4 .L0 
     /tmp/ccBVFacI.s:262    .text:00000000000000f8 .L0 
     /tmp/ccBVFacI.s:264    .text:00000000000000fc .L0 
     /tmp/ccBVFacI.s:270    .text:00000000000000fc _Z11thread_exitv
     /tmp/ccBVFacI.s:273    .text:00000000000000fc .L0 
     /tmp/ccBVFacI.s:274    .text:00000000000000fc .L0 
     /tmp/ccBVFacI.s:275    .text:0000000000000100 .L0 
GAS LISTING /tmp/ccBVFacI.s 			page 23


     /tmp/ccBVFacI.s:277    .text:0000000000000104 .L0 
     /tmp/ccBVFacI.s:279    .text:0000000000000108 .L0 
     /tmp/ccBVFacI.s:281    .text:0000000000000108 .L0 
src/user/syscall_c.cpp:80     .text:0000000000000108 .L0 
     /tmp/ccBVFacI.s:287    .text:000000000000010c .L0 
src/user/syscall_c.cpp:82     .text:000000000000010c .L0 
     /tmp/ccBVFacI.s:292    .text:0000000000000110 .L0 
     /tmp/ccBVFacI.s:293    .text:0000000000000110 .L0 
src/user/syscall_c.cpp:85     .text:0000000000000110 .L0 
     /tmp/ccBVFacI.s:299    .text:0000000000000114 .L0 
     /tmp/ccBVFacI.s:301    .text:0000000000000114 .L0 
     /tmp/ccBVFacI.s:304    .text:000000000000011c .L0 
     /tmp/ccBVFacI.s:305    .text:000000000000011c .L0 
     /tmp/ccBVFacI.s:307    .text:0000000000000120 .L0 
     /tmp/ccBVFacI.s:309    .text:0000000000000124 .L0 
     /tmp/ccBVFacI.s:315    .text:0000000000000124 _Z8sem_openPP4_semj
     /tmp/ccBVFacI.s:318    .text:0000000000000124 .L0 
     /tmp/ccBVFacI.s:320    .text:0000000000000124 .L0 
     /tmp/ccBVFacI.s:321    .text:0000000000000128 .L0 
     /tmp/ccBVFacI.s:323    .text:000000000000012c .L0 
     /tmp/ccBVFacI.s:325    .text:0000000000000130 .L0 
     /tmp/ccBVFacI.s:327    .text:0000000000000130 .L0 
     /tmp/ccBVFacI.s:328    .text:0000000000000130 .L0 
src/user/syscall_c.cpp:91     .text:0000000000000138 .L0 
     /tmp/ccBVFacI.s:337    .text:000000000000013c .L0 
src/user/syscall_c.cpp:92     .text:000000000000013c .L0 
     /tmp/ccBVFacI.s:342    .text:0000000000000140 .L0 
src/user/syscall_c.cpp:93     .text:0000000000000140 .L0 
     /tmp/ccBVFacI.s:347    .text:0000000000000144 .L0 
src/user/syscall_c.cpp:95     .text:0000000000000144 .L0 
     /tmp/ccBVFacI.s:352    .text:0000000000000148 .L0 
     /tmp/ccBVFacI.s:353    .text:0000000000000148 .L0 
src/user/syscall_c.cpp:98     .text:0000000000000148 .L0 
     /tmp/ccBVFacI.s:359    .text:000000000000014c .L0 
     /tmp/ccBVFacI.s:361    .text:000000000000014c .L0 
     /tmp/ccBVFacI.s:364    .text:0000000000000154 .L0 
     /tmp/ccBVFacI.s:365    .text:0000000000000154 .L0 
     /tmp/ccBVFacI.s:367    .text:0000000000000158 .L0 
     /tmp/ccBVFacI.s:369    .text:000000000000015c .L0 
     /tmp/ccBVFacI.s:375    .text:000000000000015c _Z9sem_closeP4_sem
     /tmp/ccBVFacI.s:378    .text:000000000000015c .L0 
     /tmp/ccBVFacI.s:380    .text:000000000000015c .L0 
     /tmp/ccBVFacI.s:381    .text:0000000000000160 .L0 
     /tmp/ccBVFacI.s:383    .text:0000000000000164 .L0 
     /tmp/ccBVFacI.s:385    .text:0000000000000168 .L0 
     /tmp/ccBVFacI.s:387    .text:0000000000000168 .L0 
src/user/syscall_c.cpp:105    .text:0000000000000168 .L0 
     /tmp/ccBVFacI.s:393    .text:000000000000016c .L0 
src/user/syscall_c.cpp:106    .text:000000000000016c .L0 
     /tmp/ccBVFacI.s:398    .text:0000000000000170 .L0 
src/user/syscall_c.cpp:108    .text:0000000000000170 .L0 
     /tmp/ccBVFacI.s:403    .text:0000000000000174 .L0 
     /tmp/ccBVFacI.s:404    .text:0000000000000174 .L0 
src/user/syscall_c.cpp:111    .text:0000000000000174 .L0 
     /tmp/ccBVFacI.s:410    .text:0000000000000178 .L0 
     /tmp/ccBVFacI.s:412    .text:0000000000000178 .L0 
     /tmp/ccBVFacI.s:415    .text:0000000000000180 .L0 
GAS LISTING /tmp/ccBVFacI.s 			page 24


     /tmp/ccBVFacI.s:416    .text:0000000000000180 .L0 
     /tmp/ccBVFacI.s:418    .text:0000000000000184 .L0 
     /tmp/ccBVFacI.s:420    .text:0000000000000188 .L0 
     /tmp/ccBVFacI.s:426    .text:0000000000000188 _Z8sem_waitP4_sem
     /tmp/ccBVFacI.s:429    .text:0000000000000188 .L0 
     /tmp/ccBVFacI.s:431    .text:0000000000000188 .L0 
     /tmp/ccBVFacI.s:432    .text:000000000000018c .L0 
     /tmp/ccBVFacI.s:434    .text:0000000000000190 .L0 
     /tmp/ccBVFacI.s:436    .text:0000000000000194 .L0 
     /tmp/ccBVFacI.s:438    .text:0000000000000194 .L0 
src/user/syscall_c.cpp:117    .text:0000000000000194 .L0 
     /tmp/ccBVFacI.s:444    .text:0000000000000198 .L0 
src/user/syscall_c.cpp:118    .text:0000000000000198 .L0 
     /tmp/ccBVFacI.s:449    .text:000000000000019c .L0 
src/user/syscall_c.cpp:120    .text:000000000000019c .L0 
     /tmp/ccBVFacI.s:454    .text:00000000000001a0 .L0 
     /tmp/ccBVFacI.s:455    .text:00000000000001a0 .L0 
src/user/syscall_c.cpp:123    .text:00000000000001a0 .L0 
     /tmp/ccBVFacI.s:461    .text:00000000000001a4 .L0 
     /tmp/ccBVFacI.s:463    .text:00000000000001a4 .L0 
     /tmp/ccBVFacI.s:466    .text:00000000000001ac .L0 
     /tmp/ccBVFacI.s:467    .text:00000000000001ac .L0 
     /tmp/ccBVFacI.s:469    .text:00000000000001b0 .L0 
     /tmp/ccBVFacI.s:471    .text:00000000000001b4 .L0 
     /tmp/ccBVFacI.s:477    .text:00000000000001b4 _Z10sem_signalP4_sem
     /tmp/ccBVFacI.s:480    .text:00000000000001b4 .L0 
     /tmp/ccBVFacI.s:482    .text:00000000000001b4 .L0 
     /tmp/ccBVFacI.s:483    .text:00000000000001b8 .L0 
     /tmp/ccBVFacI.s:485    .text:00000000000001bc .L0 
     /tmp/ccBVFacI.s:487    .text:00000000000001c0 .L0 
     /tmp/ccBVFacI.s:489    .text:00000000000001c0 .L0 
src/user/syscall_c.cpp:129    .text:00000000000001c0 .L0 
     /tmp/ccBVFacI.s:495    .text:00000000000001c4 .L0 
src/user/syscall_c.cpp:130    .text:00000000000001c4 .L0 
     /tmp/ccBVFacI.s:500    .text:00000000000001c8 .L0 
src/user/syscall_c.cpp:132    .text:00000000000001c8 .L0 
     /tmp/ccBVFacI.s:505    .text:00000000000001cc .L0 
     /tmp/ccBVFacI.s:506    .text:00000000000001cc .L0 
src/user/syscall_c.cpp:135    .text:00000000000001cc .L0 
     /tmp/ccBVFacI.s:512    .text:00000000000001d0 .L0 
     /tmp/ccBVFacI.s:514    .text:00000000000001d0 .L0 
     /tmp/ccBVFacI.s:517    .text:00000000000001d8 .L0 
     /tmp/ccBVFacI.s:518    .text:00000000000001d8 .L0 
     /tmp/ccBVFacI.s:520    .text:00000000000001dc .L0 
     /tmp/ccBVFacI.s:522    .text:00000000000001e0 .L0 
     /tmp/ccBVFacI.s:528    .text:00000000000001e0 _Z10time_sleepm
     /tmp/ccBVFacI.s:531    .text:00000000000001e0 .L0 
     /tmp/ccBVFacI.s:533    .text:00000000000001e0 .L0 
     /tmp/ccBVFacI.s:534    .text:00000000000001e4 .L0 
     /tmp/ccBVFacI.s:536    .text:00000000000001e8 .L0 
     /tmp/ccBVFacI.s:538    .text:00000000000001ec .L0 
     /tmp/ccBVFacI.s:540    .text:00000000000001ec .L0 
src/user/syscall_c.cpp:141    .text:00000000000001ec .L0 
     /tmp/ccBVFacI.s:546    .text:00000000000001f0 .L0 
src/user/syscall_c.cpp:142    .text:00000000000001f0 .L0 
     /tmp/ccBVFacI.s:551    .text:00000000000001f4 .L0 
src/user/syscall_c.cpp:144    .text:00000000000001f4 .L0 
GAS LISTING /tmp/ccBVFacI.s 			page 25


     /tmp/ccBVFacI.s:556    .text:00000000000001f8 .L0 
     /tmp/ccBVFacI.s:557    .text:00000000000001f8 .L0 
src/user/syscall_c.cpp:147    .text:00000000000001f8 .L0 
     /tmp/ccBVFacI.s:563    .text:00000000000001fc .L0 
     /tmp/ccBVFacI.s:565    .text:00000000000001fc .L0 
     /tmp/ccBVFacI.s:568    .text:0000000000000204 .L0 
     /tmp/ccBVFacI.s:569    .text:0000000000000204 .L0 
     /tmp/ccBVFacI.s:571    .text:0000000000000208 .L0 
     /tmp/ccBVFacI.s:573    .text:000000000000020c .L0 
     /tmp/ccBVFacI.s:579    .text:000000000000020c _Z12thread_startPv
     /tmp/ccBVFacI.s:582    .text:000000000000020c .L0 
     /tmp/ccBVFacI.s:584    .text:000000000000020c .L0 
     /tmp/ccBVFacI.s:585    .text:0000000000000210 .L0 
     /tmp/ccBVFacI.s:587    .text:0000000000000214 .L0 
     /tmp/ccBVFacI.s:589    .text:0000000000000218 .L0 
     /tmp/ccBVFacI.s:591    .text:0000000000000218 .L0 
src/user/syscall_c.cpp:153    .text:0000000000000218 .L0 
     /tmp/ccBVFacI.s:597    .text:000000000000021c .L0 
src/user/syscall_c.cpp:154    .text:000000000000021c .L0 
     /tmp/ccBVFacI.s:602    .text:0000000000000220 .L0 
src/user/syscall_c.cpp:156    .text:0000000000000220 .L0 
     /tmp/ccBVFacI.s:607    .text:0000000000000224 .L0 
     /tmp/ccBVFacI.s:608    .text:0000000000000224 .L0 
src/user/syscall_c.cpp:159    .text:0000000000000224 .L0 
     /tmp/ccBVFacI.s:614    .text:0000000000000228 .L0 
     /tmp/ccBVFacI.s:616    .text:0000000000000228 .L0 
     /tmp/ccBVFacI.s:619    .text:0000000000000230 .L0 
     /tmp/ccBVFacI.s:620    .text:0000000000000230 .L0 
     /tmp/ccBVFacI.s:622    .text:0000000000000234 .L0 
     /tmp/ccBVFacI.s:624    .text:0000000000000238 .L0 
     /tmp/ccBVFacI.s:630    .text:0000000000000238 _Z15thread_make_pcbPP7_threadPFvPvES2_
     /tmp/ccBVFacI.s:633    .text:0000000000000238 .L0 
     /tmp/ccBVFacI.s:635    .text:0000000000000238 .L0 
     /tmp/ccBVFacI.s:636    .text:000000000000023c .L0 
     /tmp/ccBVFacI.s:642    .text:0000000000000250 .L0 
     /tmp/ccBVFacI.s:643    .text:0000000000000250 .L0 
     /tmp/ccBVFacI.s:644    .text:0000000000000250 .L0 
     /tmp/ccBVFacI.s:645    .text:0000000000000250 .L0 
     /tmp/ccBVFacI.s:646    .text:0000000000000250 .L0 
     /tmp/ccBVFacI.s:648    .text:0000000000000254 .L0 
     /tmp/ccBVFacI.s:654    .text:0000000000000260 .L0 
     /tmp/ccBVFacI.s:655    .text:0000000000000260 .L0 
     /tmp/ccBVFacI.s:656    .text:0000000000000260 .L0 
     /tmp/ccBVFacI.s:657    .text:0000000000000260 .L0 
     /tmp/ccBVFacI.s:658    .text:0000000000000260 .L0 
     /tmp/ccBVFacI.s:659    .text:0000000000000260 .L0 
     /tmp/ccBVFacI.s:664    .text:000000000000026c .L0 
     /tmp/ccBVFacI.s:665    .text:000000000000026c .L0 
     /tmp/ccBVFacI.s:667    .text:0000000000000270 .L0 
src/user/syscall_c.cpp:176    .text:0000000000000270 .L0 
     /tmp/ccBVFacI.s:673    .text:0000000000000274 .L0 
src/user/syscall_c.cpp:178    .text:0000000000000274 .L0 
     /tmp/ccBVFacI.s:678    .text:0000000000000278 .L0 
src/user/syscall_c.cpp:179    .text:0000000000000278 .L0 
     /tmp/ccBVFacI.s:683    .text:000000000000027c .L0 
src/user/syscall_c.cpp:180    .text:000000000000027c .L0 
     /tmp/ccBVFacI.s:688    .text:0000000000000280 .L0 
GAS LISTING /tmp/ccBVFacI.s 			page 26


     /tmp/ccBVFacI.s:690    .text:0000000000000280 .L0 
     /tmp/ccBVFacI.s:696    .text:0000000000000288 .L0 
src/user/syscall_c.cpp:183    .text:0000000000000288 .L0 
     /tmp/ccBVFacI.s:701    .text:000000000000028c .L0 
     /tmp/ccBVFacI.s:702    .text:000000000000028c .L0 
src/user/syscall_c.cpp:187    .text:000000000000028c .L0 
     /tmp/ccBVFacI.s:708    .text:0000000000000290 .L0 
     /tmp/ccBVFacI.s:710    .text:0000000000000290 .L0 
     /tmp/ccBVFacI.s:714    .text:0000000000000294 .L0 
     /tmp/ccBVFacI.s:715    .text:0000000000000298 .L0 
     /tmp/ccBVFacI.s:716    .text:0000000000000298 .L0 
     /tmp/ccBVFacI.s:718    .text:000000000000029c .L0 
     /tmp/ccBVFacI.s:719    .text:000000000000029c .L0 
     /tmp/ccBVFacI.s:721    .text:00000000000002a0 .L0 
     /tmp/ccBVFacI.s:724    .text:00000000000002a4 .L0 
     /tmp/ccBVFacI.s:727    .text:00000000000002a8 .L0 
     /tmp/ccBVFacI.s:730    .text:00000000000002ac .L0 
     /tmp/ccBVFacI.s:734    .text:00000000000002b0 .L0 
     /tmp/ccBVFacI.s:736    .text:00000000000002b0 .L0 
     /tmp/ccBVFacI.s:739    .text:00000000000002b8 .L0 
     /tmp/ccBVFacI.s:745    .text:00000000000002b8 _Z4getcv
     /tmp/ccBVFacI.s:748    .text:00000000000002b8 .L0 
     /tmp/ccBVFacI.s:749    .text:00000000000002b8 .L0 
     /tmp/ccBVFacI.s:750    .text:00000000000002bc .L0 
     /tmp/ccBVFacI.s:752    .text:00000000000002c0 .L0 
     /tmp/ccBVFacI.s:754    .text:00000000000002c4 .L0 
     /tmp/ccBVFacI.s:756    .text:00000000000002c4 .L0 
src/user/syscall_c.cpp:193    .text:00000000000002c4 .L0 
     /tmp/ccBVFacI.s:762    .text:00000000000002c8 .L0 
src/user/syscall_c.cpp:195    .text:00000000000002c8 .L0 
     /tmp/ccBVFacI.s:767    .text:00000000000002cc .L0 
     /tmp/ccBVFacI.s:768    .text:00000000000002cc .L0 
src/user/syscall_c.cpp:198    .text:00000000000002cc .L0 
     /tmp/ccBVFacI.s:774    .text:00000000000002d0 .L0 
     /tmp/ccBVFacI.s:776    .text:00000000000002d0 .L0 
     /tmp/ccBVFacI.s:779    .text:00000000000002d8 .L0 
     /tmp/ccBVFacI.s:780    .text:00000000000002d8 .L0 
     /tmp/ccBVFacI.s:782    .text:00000000000002dc .L0 
     /tmp/ccBVFacI.s:784    .text:00000000000002e0 .L0 
     /tmp/ccBVFacI.s:790    .text:00000000000002e0 _Z4putcc
     /tmp/ccBVFacI.s:793    .text:00000000000002e0 .L0 
     /tmp/ccBVFacI.s:795    .text:00000000000002e0 .L0 
     /tmp/ccBVFacI.s:796    .text:00000000000002e4 .L0 
     /tmp/ccBVFacI.s:798    .text:00000000000002e8 .L0 
     /tmp/ccBVFacI.s:800    .text:00000000000002ec .L0 
     /tmp/ccBVFacI.s:802    .text:00000000000002ec .L0 
src/user/syscall_c.cpp:204    .text:00000000000002ec .L0 
     /tmp/ccBVFacI.s:808    .text:00000000000002f0 .L0 
src/user/syscall_c.cpp:205    .text:00000000000002f0 .L0 
     /tmp/ccBVFacI.s:813    .text:00000000000002f4 .L0 
src/user/syscall_c.cpp:206    .text:00000000000002f4 .L0 
     /tmp/ccBVFacI.s:819    .text:00000000000002f8 .L0 
     /tmp/ccBVFacI.s:820    .text:00000000000002fc .L0 
     /tmp/ccBVFacI.s:821    .text:00000000000002fc .L0 
     /tmp/ccBVFacI.s:823    .text:0000000000000300 .L0 
     /tmp/ccBVFacI.s:825    .text:0000000000000304 .L0 
     /tmp/ccBVFacI.s:831    .text:0000000000000304 _Z17thread_delete_pcbP7_thread
GAS LISTING /tmp/ccBVFacI.s 			page 27


     /tmp/ccBVFacI.s:834    .text:0000000000000304 .L0 
     /tmp/ccBVFacI.s:836    .text:0000000000000304 .L0 
     /tmp/ccBVFacI.s:837    .text:0000000000000308 .L0 
     /tmp/ccBVFacI.s:839    .text:000000000000030c .L0 
     /tmp/ccBVFacI.s:841    .text:0000000000000310 .L0 
     /tmp/ccBVFacI.s:843    .text:0000000000000310 .L0 
src/user/syscall_c.cpp:223    .text:0000000000000310 .L0 
     /tmp/ccBVFacI.s:849    .text:0000000000000314 .L0 
src/user/syscall_c.cpp:224    .text:0000000000000314 .L0 
     /tmp/ccBVFacI.s:854    .text:0000000000000318 .L0 
src/user/syscall_c.cpp:225    .text:0000000000000318 .L0 
     /tmp/ccBVFacI.s:859    .text:000000000000031c .L0 
     /tmp/ccBVFacI.s:860    .text:000000000000031c .L0 
src/user/syscall_c.cpp:228    .text:000000000000031c .L0 
     /tmp/ccBVFacI.s:866    .text:0000000000000320 .L0 
     /tmp/ccBVFacI.s:868    .text:0000000000000320 .L0 
     /tmp/ccBVFacI.s:871    .text:0000000000000328 .L0 
     /tmp/ccBVFacI.s:872    .text:0000000000000328 .L0 
     /tmp/ccBVFacI.s:874    .text:000000000000032c .L0 
     /tmp/ccBVFacI.s:876    .text:0000000000000330 .L0 
     /tmp/ccBVFacI.s:884    .text:0000000000000330 .L0 
     /tmp/ccBVFacI.s:223    .text:00000000000000d4 .L9
     /tmp/ccBVFacI.s:202    .text:00000000000000b8 .L8
     /tmp/ccBVFacI.s:733    .text:00000000000002b0 .L29
     /tmp/ccBVFacI.s:712    .text:0000000000000294 .L28
     /tmp/ccBVFacI.s:1610   .debug_abbrev:0000000000000000 .Ldebug_abbrev0
     /tmp/ccBVFacI.s:2667   .debug_str:0000000000000233 .LASF69
     /tmp/ccBVFacI.s:2691   .debug_str:0000000000000388 .LASF70
     /tmp/ccBVFacI.s:2693   .debug_str:000000000000039f .LASF71
     /tmp/ccBVFacI.s:5      .text:0000000000000000 .Ltext0
     /tmp/ccBVFacI.s:879    .text:0000000000000330 .Letext0
     /tmp/ccBVFacI.s:2585   .debug_line:0000000000000000 .Ldebug_line0
     /tmp/ccBVFacI.s:2671   .debug_str:0000000000000311 .LASF0
     /tmp/ccBVFacI.s:2643   .debug_str:0000000000000190 .LASF1
     /tmp/ccBVFacI.s:2629   .debug_str:0000000000000145 .LASF2
     /tmp/ccBVFacI.s:2607   .debug_str:0000000000000094 .LASF4
     /tmp/ccBVFacI.s:2639   .debug_str:0000000000000174 .LASF3
     /tmp/ccBVFacI.s:2593   .debug_str:0000000000000036 .LASF5
     /tmp/ccBVFacI.s:2589   .debug_str:0000000000000013 .LASF6
     /tmp/ccBVFacI.s:2621   .debug_str:00000000000000fd .LASF7
     /tmp/ccBVFacI.s:2683   .debug_str:0000000000000354 .LASF8
     /tmp/ccBVFacI.s:2605   .debug_str:0000000000000086 .LASF9
     /tmp/ccBVFacI.s:2733   .debug_str:00000000000004cd .LASF10
     /tmp/ccBVFacI.s:2587   .debug_str:0000000000000000 .LASF11
     /tmp/ccBVFacI.s:2623   .debug_str:0000000000000110 .LASF12
     /tmp/ccBVFacI.s:2719   .debug_str:000000000000046b .LASF13
     /tmp/ccBVFacI.s:2679   .debug_str:000000000000033f .LASF14
     /tmp/ccBVFacI.s:2647   .debug_str:00000000000001ac .LASF15
     /tmp/ccBVFacI.s:2613   .debug_str:00000000000000bc .LASF16
     /tmp/ccBVFacI.s:2687   .debug_str:0000000000000369 .LASF17
     /tmp/ccBVFacI.s:2705   .debug_str:000000000000040c .LASF18
     /tmp/ccBVFacI.s:2675   .debug_str:000000000000032a .LASF20
     /tmp/ccBVFacI.s:2619   .debug_str:00000000000000ec .LASF21
     /tmp/ccBVFacI.s:2681   .debug_str:000000000000034f .LASF19
     /tmp/ccBVFacI.s:2651   .debug_str:00000000000001bf .LASF22
     /tmp/ccBVFacI.s:2689   .debug_str:000000000000037f .LASF23
     /tmp/ccBVFacI.s:2601   .debug_str:000000000000007b .LASF24
GAS LISTING /tmp/ccBVFacI.s 			page 28


     /tmp/ccBVFacI.s:2709   .debug_str:0000000000000421 .LASF28
     /tmp/ccBVFacI.s:2655   .debug_str:00000000000001d9 .LASF30
     /tmp/ccBVFacI.s:832    .text:0000000000000304 .LFB14
     /tmp/ccBVFacI.s:877    .text:0000000000000330 .LFE14
     /tmp/ccBVFacI.s:2649   .debug_str:00000000000001b8 .LASF26
     /tmp/ccBVFacI.s:2012   .debug_loc:0000000000000000 .LLST37
     /tmp/ccBVFacI.s:2599   .debug_str:0000000000000074 .LASF25
     /tmp/ccBVFacI.s:2026   .debug_loc:0000000000000039 .LLST38
     /tmp/ccBVFacI.s:2703   .debug_str:0000000000000407 .LASF62
     /tmp/ccBVFacI.s:2645   .debug_str:00000000000001a3 .LASF64
     /tmp/ccBVFacI.s:791    .text:00000000000002e0 .LFB13
     /tmp/ccBVFacI.s:826    .text:0000000000000304 .LFE13
     /tmp/ccBVFacI.s:2677   .debug_str:000000000000033a .LASF27
     /tmp/ccBVFacI.s:2631   .debug_str:0000000000000153 .LASF29
     /tmp/ccBVFacI.s:2725   .debug_str:0000000000000491 .LASF31
     /tmp/ccBVFacI.s:746    .text:00000000000002b8 .LFB12
     /tmp/ccBVFacI.s:785    .text:00000000000002e0 .LFE12
     /tmp/ccBVFacI.s:2033   .debug_loc:000000000000005c .LLST36
     /tmp/ccBVFacI.s:2591   .debug_str:0000000000000026 .LASF32
     /tmp/ccBVFacI.s:2701   .debug_str:00000000000003e0 .LASF33
     /tmp/ccBVFacI.s:631    .text:0000000000000238 .LFB11
     /tmp/ccBVFacI.s:740    .text:00000000000002b8 .LFE11
     /tmp/ccBVFacI.s:2040   .debug_loc:000000000000007f .LLST28
     /tmp/ccBVFacI.s:2657   .debug_str:00000000000001f8 .LASF34
     /tmp/ccBVFacI.s:2062   .debug_loc:00000000000000de .LLST29
     /tmp/ccBVFacI.s:2084   .debug_loc:000000000000013d .LLST30
     /tmp/ccBVFacI.s:2665   .debug_str:0000000000000227 .LASF35
     /tmp/ccBVFacI.s:2106   .debug_loc:000000000000019c .LLST31
     /tmp/ccBVFacI.s:2653   .debug_str:00000000000001cd .LASF36
     /tmp/ccBVFacI.s:2128   .debug_loc:00000000000001fb .LLST32
     /tmp/ccBVFacI.s:2699   .debug_str:00000000000003d6 .LASF37
     /tmp/ccBVFacI.s:2150   .debug_loc:000000000000025a .LLST33
     /tmp/ccBVFacI.s:2659   .debug_str:0000000000000206 .LASF38
     /tmp/ccBVFacI.s:2673   .debug_str:000000000000031e .LASF58
     /tmp/ccBVFacI.s:2627   .debug_str:0000000000000133 .LASF39
     /tmp/ccBVFacI.s:2172   .debug_loc:00000000000002b9 .LLST34
     /tmp/ccBVFacI.s:2183   .debug_loc:00000000000002ef .LLST35
     /tmp/ccBVFacI.s:662    .text:000000000000026c .LVL44
     /tmp/ccBVFacI.s:2707   .debug_str:0000000000000414 .LASF40
     /tmp/ccBVFacI.s:2731   .debug_str:00000000000004ba .LASF41
     /tmp/ccBVFacI.s:580    .text:000000000000020c .LFB10
     /tmp/ccBVFacI.s:625    .text:0000000000000238 .LFE10
     /tmp/ccBVFacI.s:2190   .debug_loc:0000000000000312 .LLST26
     /tmp/ccBVFacI.s:2204   .debug_loc:000000000000034b .LLST27
     /tmp/ccBVFacI.s:2727   .debug_str:000000000000049a .LASF42
     /tmp/ccBVFacI.s:2711   .debug_str:0000000000000433 .LASF43
     /tmp/ccBVFacI.s:529    .text:00000000000001e0 .LFB9
     /tmp/ccBVFacI.s:574    .text:000000000000020c .LFE9
     /tmp/ccBVFacI.s:2685   .debug_str:0000000000000364 .LASF44
     /tmp/ccBVFacI.s:2211   .debug_loc:000000000000036e .LLST24
     /tmp/ccBVFacI.s:2225   .debug_loc:00000000000003a7 .LLST25
     /tmp/ccBVFacI.s:2661   .debug_str:000000000000020e .LASF45
     /tmp/ccBVFacI.s:2729   .debug_str:00000000000004a5 .LASF46
     /tmp/ccBVFacI.s:478    .text:00000000000001b4 .LFB8
     /tmp/ccBVFacI.s:523    .text:00000000000001e0 .LFE8
     /tmp/ccBVFacI.s:2232   .debug_loc:00000000000003ca .LLST22
     /tmp/ccBVFacI.s:2246   .debug_loc:0000000000000403 .LLST23
GAS LISTING /tmp/ccBVFacI.s 			page 29


     /tmp/ccBVFacI.s:2635   .debug_str:0000000000000161 .LASF47
     /tmp/ccBVFacI.s:2597   .debug_str:0000000000000062 .LASF48
     /tmp/ccBVFacI.s:427    .text:0000000000000188 .LFB7
     /tmp/ccBVFacI.s:472    .text:00000000000001b4 .LFE7
     /tmp/ccBVFacI.s:2253   .debug_loc:0000000000000426 .LLST20
     /tmp/ccBVFacI.s:2267   .debug_loc:000000000000045f .LLST21
     /tmp/ccBVFacI.s:2637   .debug_str:000000000000016a .LASF49
     /tmp/ccBVFacI.s:2611   .debug_str:00000000000000a9 .LASF50
     /tmp/ccBVFacI.s:376    .text:000000000000015c .LFB6
     /tmp/ccBVFacI.s:421    .text:0000000000000188 .LFE6
     /tmp/ccBVFacI.s:2274   .debug_loc:0000000000000482 .LLST18
     /tmp/ccBVFacI.s:2288   .debug_loc:00000000000004bb .LLST19
     /tmp/ccBVFacI.s:2633   .debug_str:0000000000000158 .LASF51
     /tmp/ccBVFacI.s:2625   .debug_str:000000000000011f .LASF52
     /tmp/ccBVFacI.s:316    .text:0000000000000124 .LFB5
     /tmp/ccBVFacI.s:370    .text:000000000000015c .LFE5
     /tmp/ccBVFacI.s:2295   .debug_loc:00000000000004de .LLST15
     /tmp/ccBVFacI.s:2309   .debug_loc:0000000000000517 .LLST16
     /tmp/ccBVFacI.s:2323   .debug_loc:0000000000000550 .LLST17
     /tmp/ccBVFacI.s:2721   .debug_str:000000000000047b .LASF53
     /tmp/ccBVFacI.s:2717   .debug_str:000000000000045a .LASF54
     /tmp/ccBVFacI.s:271    .text:00000000000000fc .LFB4
     /tmp/ccBVFacI.s:310    .text:0000000000000124 .LFE4
     /tmp/ccBVFacI.s:2330   .debug_loc:0000000000000573 .LLST14
     /tmp/ccBVFacI.s:2697   .debug_str:00000000000003c6 .LASF72
     /tmp/ccBVFacI.s:2617   .debug_str:00000000000000d7 .LASF73
     /tmp/ccBVFacI.s:236    .text:00000000000000dc .LFB3
     /tmp/ccBVFacI.s:265    .text:00000000000000fc .LFE3
     /tmp/ccBVFacI.s:2715   .debug_str:000000000000044c .LASF55
     /tmp/ccBVFacI.s:2595   .debug_str:000000000000003d .LASF56
     /tmp/ccBVFacI.s:121    .text:000000000000005c .LFB2
     /tmp/ccBVFacI.s:230    .text:00000000000000dc .LFE2
     /tmp/ccBVFacI.s:2337   .debug_loc:0000000000000596 .LLST6
     /tmp/ccBVFacI.s:2359   .debug_loc:00000000000005f5 .LLST7
     /tmp/ccBVFacI.s:2603   .debug_str:0000000000000081 .LASF57
     /tmp/ccBVFacI.s:2381   .debug_loc:0000000000000654 .LLST8
     /tmp/ccBVFacI.s:2403   .debug_loc:00000000000006b3 .LLST9
     /tmp/ccBVFacI.s:2425   .debug_loc:0000000000000712 .LLST10
     /tmp/ccBVFacI.s:2447   .debug_loc:0000000000000771 .LLST11
     /tmp/ccBVFacI.s:2469   .debug_loc:00000000000007d0 .LLST12
     /tmp/ccBVFacI.s:2480   .debug_loc:0000000000000806 .LLST13
     /tmp/ccBVFacI.s:152    .text:0000000000000090 .LVL12
     /tmp/ccBVFacI.s:2695   .debug_str:00000000000003bd .LASF59
     /tmp/ccBVFacI.s:2669   .debug_str:0000000000000303 .LASF60
     /tmp/ccBVFacI.s:68     .text:0000000000000030 .LFB1
     /tmp/ccBVFacI.s:115    .text:000000000000005c .LFE1
     /tmp/ccBVFacI.s:2487   .debug_loc:0000000000000829 .LLST3
     /tmp/ccBVFacI.s:2713   .debug_str:0000000000000443 .LASF61
     /tmp/ccBVFacI.s:2501   .debug_loc:0000000000000862 .LLST4
     /tmp/ccBVFacI.s:2515   .debug_loc:000000000000089b .LLST5
     /tmp/ccBVFacI.s:2723   .debug_str:0000000000000487 .LASF63
     /tmp/ccBVFacI.s:2663   .debug_str:0000000000000219 .LASF65
     /tmp/ccBVFacI.s:10     .text:0000000000000000 .LFB0
     /tmp/ccBVFacI.s:62     .text:0000000000000030 .LFE0
     /tmp/ccBVFacI.s:2615   .debug_str:00000000000000d2 .LASF66
     /tmp/ccBVFacI.s:2522   .debug_loc:00000000000008be .LLST0
     /tmp/ccBVFacI.s:2641   .debug_str:0000000000000186 .LASF67
GAS LISTING /tmp/ccBVFacI.s 			page 30


     /tmp/ccBVFacI.s:2542   .debug_loc:000000000000090c .LLST1
     /tmp/ccBVFacI.s:2609   .debug_str:000000000000009b .LASF68
     /tmp/ccBVFacI.s:2560   .debug_loc:0000000000000949 .LLST2
     /tmp/ccBVFacI.s:835    .text:0000000000000304 .LVL55
     /tmp/ccBVFacI.s:864    .text:0000000000000320 .LVL56
     /tmp/ccBVFacI.s:869    .text:0000000000000324 .LVL57
     /tmp/ccBVFacI.s:772    .text:00000000000002d0 .LVL52
     /tmp/ccBVFacI.s:777    .text:00000000000002d4 .LVL53
     /tmp/ccBVFacI.s:634    .text:0000000000000238 .LVL41
     /tmp/ccBVFacI.s:660    .text:0000000000000264 .LVL43
     /tmp/ccBVFacI.s:722    .text:00000000000002a0 .LVL47
     /tmp/ccBVFacI.s:732    .text:00000000000002b0 .LVL50
     /tmp/ccBVFacI.s:725    .text:00000000000002a4 .LVL48
     /tmp/ccBVFacI.s:728    .text:00000000000002a8 .LVL49
     /tmp/ccBVFacI.s:653    .text:0000000000000260 .LVL42
     /tmp/ccBVFacI.s:706    .text:0000000000000290 .LVL45
     /tmp/ccBVFacI.s:737    .text:00000000000002b4 .LVL51
     /tmp/ccBVFacI.s:711    .text:0000000000000294 .LVL46
     /tmp/ccBVFacI.s:583    .text:000000000000020c .LVL38
     /tmp/ccBVFacI.s:612    .text:0000000000000228 .LVL39
     /tmp/ccBVFacI.s:617    .text:000000000000022c .LVL40
     /tmp/ccBVFacI.s:532    .text:00000000000001e0 .LVL35
     /tmp/ccBVFacI.s:561    .text:00000000000001fc .LVL36
     /tmp/ccBVFacI.s:566    .text:0000000000000200 .LVL37
     /tmp/ccBVFacI.s:481    .text:00000000000001b4 .LVL32
     /tmp/ccBVFacI.s:510    .text:00000000000001d0 .LVL33
     /tmp/ccBVFacI.s:515    .text:00000000000001d4 .LVL34
     /tmp/ccBVFacI.s:430    .text:0000000000000188 .LVL29
     /tmp/ccBVFacI.s:459    .text:00000000000001a4 .LVL30
     /tmp/ccBVFacI.s:464    .text:00000000000001a8 .LVL31
     /tmp/ccBVFacI.s:379    .text:000000000000015c .LVL26
     /tmp/ccBVFacI.s:408    .text:0000000000000178 .LVL27
     /tmp/ccBVFacI.s:413    .text:000000000000017c .LVL28
     /tmp/ccBVFacI.s:319    .text:0000000000000124 .LVL22
     /tmp/ccBVFacI.s:357    .text:000000000000014c .LVL24
     /tmp/ccBVFacI.s:329    .text:0000000000000134 .LVL23
     /tmp/ccBVFacI.s:362    .text:0000000000000150 .LVL25
     /tmp/ccBVFacI.s:297    .text:0000000000000114 .LVL20
     /tmp/ccBVFacI.s:302    .text:0000000000000118 .LVL21
     /tmp/ccBVFacI.s:124    .text:000000000000005c .LVL9
     /tmp/ccBVFacI.s:150    .text:0000000000000088 .LVL11
     /tmp/ccBVFacI.s:212    .text:00000000000000c4 .LVL15
     /tmp/ccBVFacI.s:222    .text:00000000000000d4 .LVL18
     /tmp/ccBVFacI.s:215    .text:00000000000000c8 .LVL16
     /tmp/ccBVFacI.s:218    .text:00000000000000cc .LVL17
     /tmp/ccBVFacI.s:143    .text:0000000000000084 .LVL10
     /tmp/ccBVFacI.s:196    .text:00000000000000b4 .LVL13
     /tmp/ccBVFacI.s:227    .text:00000000000000d8 .LVL19
     /tmp/ccBVFacI.s:201    .text:00000000000000b8 .LVL14
     /tmp/ccBVFacI.s:71     .text:0000000000000030 .LVL5
     /tmp/ccBVFacI.s:102    .text:000000000000004c .LVL7
     /tmp/ccBVFacI.s:79     .text:000000000000003c .LVL6
     /tmp/ccBVFacI.s:107    .text:0000000000000050 .LVL8
     /tmp/ccBVFacI.s:14     .text:0000000000000000 .LVL0
     /tmp/ccBVFacI.s:24     .text:0000000000000010 .LVL1
     /tmp/ccBVFacI.s:27     .text:0000000000000014 .LVL2
     /tmp/ccBVFacI.s:51     .text:0000000000000024 .LVL4
GAS LISTING /tmp/ccBVFacI.s 			page 31


     /tmp/ccBVFacI.s:45     .text:0000000000000020 .LVL3
     /tmp/ccBVFacI.s:885    .debug_info:0000000000000000 .Ldebug_info0

NO UNDEFINED SYMBOLS
