GAS LISTING /tmp/ccrNVjeR.s 			page 1


   1              		.file	"syscall_c.cpp"
   2              		.option pic
   3              		.option norelax
   4              		.text
   5              	.Ltext0:
   6              		.align	2
   7              		.globl	_Z9mem_allocm
   9              	_Z9mem_allocm:
  10              	.LFB0:
  11              		.file 1 "src/user/syscall_c.cpp"
   1:src/user/syscall_c.cpp **** //
   2:src/user/syscall_c.cpp **** // Created by os on 4/9/22.
   3:src/user/syscall_c.cpp **** //
   4:src/user/syscall_c.cpp **** 
   5:src/user/syscall_c.cpp **** #include "../../h/syscall_c.hpp"
   6:src/user/syscall_c.cpp **** 
   7:src/user/syscall_c.cpp **** void* mem_alloc(size_t size)
   8:src/user/syscall_c.cpp **** {
  12              		.loc 1 8 1
  13              		.cfi_startproc
  14              	.LVL0:
  15 0000 130101FF 		addi	sp,sp,-16
  16              		.cfi_def_cfa_offset 16
  17 0004 23348100 		sd	s0,8(sp)
  18              		.cfi_offset 8, -8
  19 0008 13040101 		addi	s0,sp,16
  20              		.cfi_def_cfa 8, 0
   9:src/user/syscall_c.cpp ****     //prepare for system call
  10:src/user/syscall_c.cpp ****     uint64 numBlocks = (size + MEM_BLOCK_SIZE - 1) / MEM_BLOCK_SIZE;
  21              		.loc 1 10 5
  22              		.loc 1 10 47 is_stmt 0
  23 000c 1305F503 		addi	a0,a0,63
  24              	.LVL1:
  25              		.loc 1 10 12
  26 0010 13556500 		srli	a0,a0,6
  27              	.LVL2:
  11:src/user/syscall_c.cpp ****     __asm__ volatile("mv a1, %0" :  : "r"(numBlocks));
  28              		.loc 1 11 5 is_stmt 1
  29              		.loc 1 11 54 is_stmt 0
  30              	#APP
  31              	# 11 "src/user/syscall_c.cpp" 1
  12              	    __asm__ volatile("li a0, 1");
  32              		mv a1, a0
  33              	# 0 "" 2
  34              		.loc 1 12 5 is_stmt 1
  35              		.loc 1 12 33 is_stmt 0
  36              	# 12 "src/user/syscall_c.cpp" 1
  13              	
  14:src/user/syscall_c.cpp ****     __asm__ volatile("ecall"); // system call
  37              		li a0, 1
  38              	# 0 "" 2
  39              		.loc 1 14 5 is_stmt 1
  40              		.loc 1 14 30 is_stmt 0
  41              	# 14 "src/user/syscall_c.cpp" 1
  15              	
  16:src/user/syscall_c.cpp ****     //get the address
  17:src/user/syscall_c.cpp ****     uint64 allocatedAddr = 0x01;
GAS LISTING /tmp/ccrNVjeR.s 			page 2


  42              		ecall
  43              	# 0 "" 2
  44              		.loc 1 17 5 is_stmt 1
  45              	.LVL3:
  18:src/user/syscall_c.cpp ****     __asm__ volatile("mv %0, a0" : "=r"(allocatedAddr));
  46              		.loc 1 18 5
  47              		.loc 1 18 56 is_stmt 0
  48              	# 18 "src/user/syscall_c.cpp" 1
  19              	
  49              		mv a0, a0
  50              	# 0 "" 2
  51              	.LVL4:
  20:src/user/syscall_c.cpp ****     if(allocatedAddr == 0)
  52              		.loc 1 20 5 is_stmt 1
  21:src/user/syscall_c.cpp ****         return nullptr;
  22:src/user/syscall_c.cpp **** 
  23:src/user/syscall_c.cpp ****     return (void*)allocatedAddr;
  24:src/user/syscall_c.cpp **** }
  53              		.loc 1 24 1 is_stmt 0
  54              	#NO_APP
  55 0024 03348100 		ld	s0,8(sp)
  56              		.cfi_restore 8
  57              		.cfi_def_cfa 2, 16
  58 0028 13010101 		addi	sp,sp,16
  59              		.cfi_def_cfa_offset 0
  60 002c 67800000 		jr	ra
  61              		.cfi_endproc
  62              	.LFE0:
  64              		.align	2
  65              		.globl	_Z8mem_freePv
  67              	_Z8mem_freePv:
  68              	.LFB1:
  25:src/user/syscall_c.cpp **** 
  26:src/user/syscall_c.cpp **** int mem_free(void* p)
  27:src/user/syscall_c.cpp **** {
  69              		.loc 1 27 1 is_stmt 1
  70              		.cfi_startproc
  71              	.LVL5:
  72 0030 130101FF 		addi	sp,sp,-16
  73              		.cfi_def_cfa_offset 16
  74 0034 23348100 		sd	s0,8(sp)
  75              		.cfi_offset 8, -8
  76 0038 13040101 		addi	s0,sp,16
  77              		.cfi_def_cfa 8, 0
  28:src/user/syscall_c.cpp ****     //prepare for system call
  29:src/user/syscall_c.cpp ****     uint64 addrFree = (uint64)p;
  78              		.loc 1 29 5
  79              	.LVL6:
  30:src/user/syscall_c.cpp ****     __asm__ volatile("mv a1, %0" :  : "r"(addrFree));
  80              		.loc 1 30 5
  81              		.loc 1 30 53 is_stmt 0
  82              	#APP
  83              	# 30 "src/user/syscall_c.cpp" 1
  31              	    __asm__ volatile("li a0, 2");
  84              		mv a1, a0
  85              	# 0 "" 2
  86              		.loc 1 31 5 is_stmt 1
GAS LISTING /tmp/ccrNVjeR.s 			page 3


  87              		.loc 1 31 33 is_stmt 0
  88              	# 31 "src/user/syscall_c.cpp" 1
  32              	
  33:src/user/syscall_c.cpp ****     __asm__ volatile("ecall"); // system call
  89              		li a0, 2
  90              	# 0 "" 2
  91              		.loc 1 33 5 is_stmt 1
  92              		.loc 1 33 30 is_stmt 0
  93              	# 33 "src/user/syscall_c.cpp" 1
  34              	
  35:src/user/syscall_c.cpp ****     //get the result of system call
  36:src/user/syscall_c.cpp ****     uint64 result;
  94              		ecall
  95              	# 0 "" 2
  96              		.loc 1 36 5 is_stmt 1
  37:src/user/syscall_c.cpp ****     __asm__ volatile("mv %0, a0" : "=r"(result));
  97              		.loc 1 37 5
  98              		.loc 1 37 49 is_stmt 0
  99              	# 37 "src/user/syscall_c.cpp" 1
  38              	
 100              		mv a0, a0
 101              	# 0 "" 2
 102              	.LVL7:
  39:src/user/syscall_c.cpp ****     return result;
 103              		.loc 1 39 5 is_stmt 1
  40:src/user/syscall_c.cpp **** }
 104              		.loc 1 40 1 is_stmt 0
 105              	#NO_APP
 106 004c 1B050500 		sext.w	a0,a0
 107              	.LVL8:
 108 0050 03348100 		ld	s0,8(sp)
 109              		.cfi_restore 8
 110              		.cfi_def_cfa 2, 16
 111 0054 13010101 		addi	sp,sp,16
 112              		.cfi_def_cfa_offset 0
 113 0058 67800000 		jr	ra
 114              		.cfi_endproc
 115              	.LFE1:
 117              		.align	2
 118              		.globl	_Z13thread_createPP7_threadPFvPvES2_
 120              	_Z13thread_createPP7_threadPFvPvES2_:
 121              	.LFB2:
  41:src/user/syscall_c.cpp **** 
  42:src/user/syscall_c.cpp **** int thread_create(thread_t* handle, void (*start_routine)(void*), void* args)
  43:src/user/syscall_c.cpp **** {
 122              		.loc 1 43 1 is_stmt 1
 123              		.cfi_startproc
 124              	.LVL9:
 125 005c 130101FD 		addi	sp,sp,-48
 126              		.cfi_def_cfa_offset 48
 127 0060 23341102 		sd	ra,40(sp)
 128 0064 23308102 		sd	s0,32(sp)
 129 0068 233C9100 		sd	s1,24(sp)
 130 006c 23382101 		sd	s2,16(sp)
 131 0070 23343101 		sd	s3,8(sp)
 132              		.cfi_offset 1, -8
 133              		.cfi_offset 8, -16
GAS LISTING /tmp/ccrNVjeR.s 			page 4


 134              		.cfi_offset 9, -24
 135              		.cfi_offset 18, -32
 136              		.cfi_offset 19, -40
 137 0074 13040103 		addi	s0,sp,48
 138              		.cfi_def_cfa 8, 0
 139 0078 93040500 		mv	s1,a0
 140 007c 13890500 		mv	s2,a1
 141 0080 93090600 		mv	s3,a2
  44:src/user/syscall_c.cpp ****     uint64 handleLocal = (uint64)handle;
 142              		.loc 1 44 5
 143              	.LVL10:
  45:src/user/syscall_c.cpp ****     uint64 startRLocal = (uint64)start_routine;
 144              		.loc 1 45 5
  46:src/user/syscall_c.cpp ****     uint64 argsLocal = (uint64)args;
 145              		.loc 1 46 5
  47:src/user/syscall_c.cpp ****     uint64 opLocal = 0x11;
 146              		.loc 1 47 5
  48:src/user/syscall_c.cpp **** 
  49:src/user/syscall_c.cpp ****     void * stack_space = mem_alloc(DEFAULT_STACK_SIZE);
 147              		.loc 1 49 5
 148              		.loc 1 49 35 is_stmt 0
 149 0084 37150000 		li	a0,4096
 150              	.LVL11:
 151 0088 97000000 		call	_Z9mem_allocm
 151      E7800000 
 152              	.LVL12:
  50:src/user/syscall_c.cpp ****     uint64 stackPointerLocal = (uint64)stack_space;
 153              		.loc 1 50 5 is_stmt 1
  51:src/user/syscall_c.cpp ****     if(stack_space == nullptr)
 154              		.loc 1 51 5
 155 0090 630A0504 		beqz	a0,.L10
  52:src/user/syscall_c.cpp ****         return -1;
  53:src/user/syscall_c.cpp **** 
  54:src/user/syscall_c.cpp ****     //initialize registers
  55:src/user/syscall_c.cpp ****     __asm__ volatile("mv a4, %0" :  : "r"((uint64)stackPointerLocal));
 156              		.loc 1 55 5
 157              		.loc 1 55 70 is_stmt 0
 158              	#APP
 159              	# 55 "src/user/syscall_c.cpp" 1
  56              	    //__asm__ volatile("mv a4, %0" :  : "r"((uint64)1));
  57:src/user/syscall_c.cpp ****     __asm__ volatile("mv a3, %0" :  : "r"((uint64)argsLocal));
 160              		mv a4, a0
 161              	# 0 "" 2
 162              		.loc 1 57 5 is_stmt 1
 163              		.loc 1 57 62 is_stmt 0
 164              	# 57 "src/user/syscall_c.cpp" 1
  58              	    __asm__ volatile("mv a2, %0" :  : "r"((uint64)startRLocal));
 165              		mv a3, s3
 166              	# 0 "" 2
 167              		.loc 1 58 5 is_stmt 1
 168              		.loc 1 58 64 is_stmt 0
 169              	# 58 "src/user/syscall_c.cpp" 1
  59              	    __asm__ volatile("mv a1, %0" :  : "r"((uint64)handleLocal));
 170              		mv a2, s2
 171              	# 0 "" 2
 172              		.loc 1 59 5 is_stmt 1
 173              		.loc 1 59 64 is_stmt 0
GAS LISTING /tmp/ccrNVjeR.s 			page 5


 174              	# 59 "src/user/syscall_c.cpp" 1
  60              	    __asm__ volatile("mv a0, %0" :  : "r"((uint64)opLocal));
 175              		mv a1, s1
 176              	# 0 "" 2
 177              		.loc 1 60 5 is_stmt 1
 178              		.loc 1 60 60 is_stmt 0
 179              	#NO_APP
 180 00a4 93071001 		li	a5,17
 181              	#APP
 182              	# 60 "src/user/syscall_c.cpp" 1
  61              	
  62:src/user/syscall_c.cpp **** 
  63:src/user/syscall_c.cpp ****     __asm__ volatile("ecall");
 183              		mv a0, a5
 184              	# 0 "" 2
 185              		.loc 1 63 5 is_stmt 1
 186              		.loc 1 63 30 is_stmt 0
 187              	# 63 "src/user/syscall_c.cpp" 1
  64              	
  65:src/user/syscall_c.cpp ****     //get the result
  66:src/user/syscall_c.cpp ****     uint64 result;
 188              		ecall
 189              	# 0 "" 2
 190              		.loc 1 66 5 is_stmt 1
  67:src/user/syscall_c.cpp ****     __asm__ volatile("mv %0, a0" : "=r"(result));
 191              		.loc 1 67 5
 192              		.loc 1 67 49 is_stmt 0
 193              	# 67 "src/user/syscall_c.cpp" 1
  68              	
 194              		mv s1, a0
 195              	# 0 "" 2
 196              	.LVL13:
  69:src/user/syscall_c.cpp ****     if(result != 0)
 197              		.loc 1 69 5 is_stmt 1
 198              	#NO_APP
 199 00b4 63920402 		bnez	s1,.L12
 200              	.LVL14:
 201              	.L9:
  70:src/user/syscall_c.cpp ****     {
  71:src/user/syscall_c.cpp ****         mem_free(stack_space);
  72:src/user/syscall_c.cpp ****     }
  73:src/user/syscall_c.cpp **** 
  74:src/user/syscall_c.cpp ****     return result;
 202              		.loc 1 74 5
 203              		.loc 1 74 12 is_stmt 0
 204 00b8 1B850400 		sext.w	a0,s1
 205              	.LVL15:
 206              	.L8:
  75:src/user/syscall_c.cpp **** }
 207              		.loc 1 75 1
 208 00bc 83308102 		ld	ra,40(sp)
 209              		.cfi_remember_state
 210              		.cfi_restore 1
 211 00c0 03340102 		ld	s0,32(sp)
 212              		.cfi_restore 8
 213              		.cfi_def_cfa 2, 48
 214 00c4 83348101 		ld	s1,24(sp)
GAS LISTING /tmp/ccrNVjeR.s 			page 6


 215              		.cfi_restore 9
 216 00c8 03390101 		ld	s2,16(sp)
 217              		.cfi_restore 18
 218              	.LVL16:
 219 00cc 83398100 		ld	s3,8(sp)
 220              		.cfi_restore 19
 221              	.LVL17:
 222 00d0 13010103 		addi	sp,sp,48
 223              		.cfi_def_cfa_offset 0
 224 00d4 67800000 		jr	ra
 225              	.LVL18:
 226              	.L12:
 227              		.cfi_restore_state
  71:src/user/syscall_c.cpp ****     }
 228              		.loc 1 71 9 is_stmt 1
  71:src/user/syscall_c.cpp ****     }
 229              		.loc 1 71 17 is_stmt 0
 230 00d8 97000000 		call	_Z8mem_freePv
 230      E7800000 
 231              	.LVL19:
 232 00e0 6FF09FFD 		j	.L9
 233              	.LVL20:
 234              	.L10:
  52:src/user/syscall_c.cpp **** 
 235              		.loc 1 52 17
 236 00e4 1305F0FF 		li	a0,-1
 237              	.LVL21:
 238 00e8 6FF05FFD 		j	.L8
 239              		.cfi_endproc
 240              	.LFE2:
 242              		.align	2
 243              		.globl	_Z15thread_dispatchv
 245              	_Z15thread_dispatchv:
 246              	.LFB3:
  76:src/user/syscall_c.cpp **** 
  77:src/user/syscall_c.cpp **** void thread_dispatch()
  78:src/user/syscall_c.cpp **** {
 247              		.loc 1 78 1 is_stmt 1
 248              		.cfi_startproc
 249 00ec 130101FF 		addi	sp,sp,-16
 250              		.cfi_def_cfa_offset 16
 251 00f0 23348100 		sd	s0,8(sp)
 252              		.cfi_offset 8, -8
 253 00f4 13040101 		addi	s0,sp,16
 254              		.cfi_def_cfa 8, 0
  79:src/user/syscall_c.cpp ****     __asm__ volatile("li a0, 0x13");
 255              		.loc 1 79 5
 256              		.loc 1 79 36 is_stmt 0
 257              	#APP
 258              	# 79 "src/user/syscall_c.cpp" 1
  80              	    __asm__ volatile("ecall");
 259              		li a0, 0x13
 260              	# 0 "" 2
 261              		.loc 1 80 5 is_stmt 1
 262              		.loc 1 80 30 is_stmt 0
 263              	# 80 "src/user/syscall_c.cpp" 1
  81              	}
GAS LISTING /tmp/ccrNVjeR.s 			page 7


 264              		ecall
 265              	# 0 "" 2
 266              		.loc 1 81 1
 267              	#NO_APP
 268 0100 03348100 		ld	s0,8(sp)
 269              		.cfi_restore 8
 270              		.cfi_def_cfa 2, 16
 271 0104 13010101 		addi	sp,sp,16
 272              		.cfi_def_cfa_offset 0
 273 0108 67800000 		jr	ra
 274              		.cfi_endproc
 275              	.LFE3:
 277              		.align	2
 278              		.globl	_Z11thread_exitv
 280              	_Z11thread_exitv:
 281              	.LFB4:
  82:src/user/syscall_c.cpp **** 
  83:src/user/syscall_c.cpp **** int thread_exit()
  84:src/user/syscall_c.cpp **** {
 282              		.loc 1 84 1 is_stmt 1
 283              		.cfi_startproc
 284 010c 130101FF 		addi	sp,sp,-16
 285              		.cfi_def_cfa_offset 16
 286 0110 23348100 		sd	s0,8(sp)
 287              		.cfi_offset 8, -8
 288 0114 13040101 		addi	s0,sp,16
 289              		.cfi_def_cfa 8, 0
  85:src/user/syscall_c.cpp ****     __asm__ volatile("li a0, 0x12");
 290              		.loc 1 85 5
 291              		.loc 1 85 36 is_stmt 0
 292              	#APP
 293              	# 85 "src/user/syscall_c.cpp" 1
  86              	
  87:src/user/syscall_c.cpp ****     __asm__ volatile("ecall");
 294              		li a0, 0x12
 295              	# 0 "" 2
 296              		.loc 1 87 5 is_stmt 1
 297              		.loc 1 87 30 is_stmt 0
 298              	# 87 "src/user/syscall_c.cpp" 1
  88              	
  89:src/user/syscall_c.cpp ****     uint64 result;
 299              		ecall
 300              	# 0 "" 2
 301              		.loc 1 89 5 is_stmt 1
  90:src/user/syscall_c.cpp ****     __asm__ volatile("mv %0, a0" : "=r"(result));
 302              		.loc 1 90 5
 303              		.loc 1 90 49 is_stmt 0
 304              	# 90 "src/user/syscall_c.cpp" 1
  91              	    return result;
 305              		mv a0, a0
 306              	# 0 "" 2
 307              	.LVL22:
 308              		.loc 1 91 5 is_stmt 1
  92:src/user/syscall_c.cpp **** }
 309              		.loc 1 92 1 is_stmt 0
 310              	#NO_APP
 311 0124 1B050500 		sext.w	a0,a0
GAS LISTING /tmp/ccrNVjeR.s 			page 8


 312              	.LVL23:
 313 0128 03348100 		ld	s0,8(sp)
 314              		.cfi_restore 8
 315              		.cfi_def_cfa 2, 16
 316 012c 13010101 		addi	sp,sp,16
 317              		.cfi_def_cfa_offset 0
 318 0130 67800000 		jr	ra
 319              		.cfi_endproc
 320              	.LFE4:
 322              		.align	2
 323              		.globl	_Z8sem_openPP4_semj
 325              	_Z8sem_openPP4_semj:
 326              	.LFB5:
  93:src/user/syscall_c.cpp **** 
  94:src/user/syscall_c.cpp **** int sem_open(sem_t* handle, unsigned int x)
  95:src/user/syscall_c.cpp **** {
 327              		.loc 1 95 1 is_stmt 1
 328              		.cfi_startproc
 329              	.LVL24:
 330 0134 130101FF 		addi	sp,sp,-16
 331              		.cfi_def_cfa_offset 16
 332 0138 23348100 		sd	s0,8(sp)
 333              		.cfi_offset 8, -8
 334 013c 13040101 		addi	s0,sp,16
 335              		.cfi_def_cfa 8, 0
  96:src/user/syscall_c.cpp ****     __asm__ volatile("mv a2, %0" :  : "r"((uint64)x));
 336              		.loc 1 96 5
 337              		.loc 1 96 43 is_stmt 0
 338 0140 93950502 		slli	a1,a1,32
 339              	.LVL25:
 340 0144 93D50502 		srli	a1,a1,32
 341              		.loc 1 96 54
 342              	#APP
 343              	# 96 "src/user/syscall_c.cpp" 1
  97              	    __asm__ volatile("mv a1, %0" :  : "r"((uint64)handle));
 344              		mv a2, a1
 345              	# 0 "" 2
 346              		.loc 1 97 5 is_stmt 1
 347              		.loc 1 97 59 is_stmt 0
 348              	# 97 "src/user/syscall_c.cpp" 1
  98              	    __asm__ volatile("li a0, 0x21");
 349              		mv a1, a0
 350              	# 0 "" 2
 351              		.loc 1 98 5 is_stmt 1
 352              		.loc 1 98 36 is_stmt 0
 353              	# 98 "src/user/syscall_c.cpp" 1
  99              	
 100:src/user/syscall_c.cpp ****     __asm__ volatile("ecall");
 354              		li a0, 0x21
 355              	# 0 "" 2
 356              		.loc 1 100 5 is_stmt 1
 357              		.loc 1 100 30 is_stmt 0
 358              	# 100 "src/user/syscall_c.cpp" 1
 101              	
 102:src/user/syscall_c.cpp ****     uint64 result;
 359              		ecall
 360              	# 0 "" 2
GAS LISTING /tmp/ccrNVjeR.s 			page 9


 361              		.loc 1 102 5 is_stmt 1
 103:src/user/syscall_c.cpp ****     __asm__ volatile("mv %0, a0" : "=r"(result));
 362              		.loc 1 103 5
 363              		.loc 1 103 49 is_stmt 0
 364              	# 103 "src/user/syscall_c.cpp" 1
 104              	    return result;
 365              		mv a0, a0
 366              	# 0 "" 2
 367              	.LVL26:
 368              		.loc 1 104 5 is_stmt 1
 105:src/user/syscall_c.cpp **** }
 369              		.loc 1 105 1 is_stmt 0
 370              	#NO_APP
 371 015c 1B050500 		sext.w	a0,a0
 372              	.LVL27:
 373 0160 03348100 		ld	s0,8(sp)
 374              		.cfi_restore 8
 375              		.cfi_def_cfa 2, 16
 376 0164 13010101 		addi	sp,sp,16
 377              		.cfi_def_cfa_offset 0
 378 0168 67800000 		jr	ra
 379              		.cfi_endproc
 380              	.LFE5:
 382              		.align	2
 383              		.globl	_Z9sem_closeP4_sem
 385              	_Z9sem_closeP4_sem:
 386              	.LFB6:
 106:src/user/syscall_c.cpp **** 
 107:src/user/syscall_c.cpp **** 
 108:src/user/syscall_c.cpp **** int sem_close(sem_t handle)
 109:src/user/syscall_c.cpp **** {
 387              		.loc 1 109 1 is_stmt 1
 388              		.cfi_startproc
 389              	.LVL28:
 390 016c 130101FF 		addi	sp,sp,-16
 391              		.cfi_def_cfa_offset 16
 392 0170 23348100 		sd	s0,8(sp)
 393              		.cfi_offset 8, -8
 394 0174 13040101 		addi	s0,sp,16
 395              		.cfi_def_cfa 8, 0
 110:src/user/syscall_c.cpp ****     __asm__ volatile("mv a1, %0" :  : "r"((uint64)handle));
 396              		.loc 1 110 5
 397              		.loc 1 110 59 is_stmt 0
 398              	#APP
 399              	# 110 "src/user/syscall_c.cpp" 1
 111              	    __asm__ volatile("li a0, 0x22");
 400              		mv a1, a0
 401              	# 0 "" 2
 402              		.loc 1 111 5 is_stmt 1
 403              		.loc 1 111 36 is_stmt 0
 404              	# 111 "src/user/syscall_c.cpp" 1
 112              	
 113:src/user/syscall_c.cpp ****     __asm__ volatile("ecall");
 405              		li a0, 0x22
 406              	# 0 "" 2
 407              		.loc 1 113 5 is_stmt 1
 408              		.loc 1 113 30 is_stmt 0
GAS LISTING /tmp/ccrNVjeR.s 			page 10


 409              	# 113 "src/user/syscall_c.cpp" 1
 114              	
 115:src/user/syscall_c.cpp ****     uint64 result;
 410              		ecall
 411              	# 0 "" 2
 412              		.loc 1 115 5 is_stmt 1
 116:src/user/syscall_c.cpp ****     __asm__ volatile("mv %0, a0" : "=r"(result));
 413              		.loc 1 116 5
 414              		.loc 1 116 49 is_stmt 0
 415              	# 116 "src/user/syscall_c.cpp" 1
 117              	    return result;
 416              		mv a0, a0
 417              	# 0 "" 2
 418              	.LVL29:
 419              		.loc 1 117 5 is_stmt 1
 118:src/user/syscall_c.cpp **** }
 420              		.loc 1 118 1 is_stmt 0
 421              	#NO_APP
 422 0188 1B050500 		sext.w	a0,a0
 423              	.LVL30:
 424 018c 03348100 		ld	s0,8(sp)
 425              		.cfi_restore 8
 426              		.cfi_def_cfa 2, 16
 427 0190 13010101 		addi	sp,sp,16
 428              		.cfi_def_cfa_offset 0
 429 0194 67800000 		jr	ra
 430              		.cfi_endproc
 431              	.LFE6:
 433              		.align	2
 434              		.globl	_Z8sem_waitP4_sem
 436              	_Z8sem_waitP4_sem:
 437              	.LFB7:
 119:src/user/syscall_c.cpp **** 
 120:src/user/syscall_c.cpp **** int sem_wait(sem_t id)
 121:src/user/syscall_c.cpp **** {
 438              		.loc 1 121 1 is_stmt 1
 439              		.cfi_startproc
 440              	.LVL31:
 441 0198 130101FF 		addi	sp,sp,-16
 442              		.cfi_def_cfa_offset 16
 443 019c 23348100 		sd	s0,8(sp)
 444              		.cfi_offset 8, -8
 445 01a0 13040101 		addi	s0,sp,16
 446              		.cfi_def_cfa 8, 0
 122:src/user/syscall_c.cpp ****     __asm__ volatile("mv a1, %0" :  : "r"((uint64)id));
 447              		.loc 1 122 5
 448              		.loc 1 122 55 is_stmt 0
 449              	#APP
 450              	# 122 "src/user/syscall_c.cpp" 1
 123              	    __asm__ volatile("li a0, 0x23");
 451              		mv a1, a0
 452              	# 0 "" 2
 453              		.loc 1 123 5 is_stmt 1
 454              		.loc 1 123 36 is_stmt 0
 455              	# 123 "src/user/syscall_c.cpp" 1
 124              	
 125:src/user/syscall_c.cpp ****     __asm__ volatile("ecall");
GAS LISTING /tmp/ccrNVjeR.s 			page 11


 456              		li a0, 0x23
 457              	# 0 "" 2
 458              		.loc 1 125 5 is_stmt 1
 459              		.loc 1 125 30 is_stmt 0
 460              	# 125 "src/user/syscall_c.cpp" 1
 126              	
 127:src/user/syscall_c.cpp ****     uint64 result;
 461              		ecall
 462              	# 0 "" 2
 463              		.loc 1 127 5 is_stmt 1
 128:src/user/syscall_c.cpp ****     __asm__ volatile("mv %0, a0" : "=r"(result));
 464              		.loc 1 128 5
 465              		.loc 1 128 49 is_stmt 0
 466              	# 128 "src/user/syscall_c.cpp" 1
 129              	    return result;
 467              		mv a0, a0
 468              	# 0 "" 2
 469              	.LVL32:
 470              		.loc 1 129 5 is_stmt 1
 130:src/user/syscall_c.cpp **** }
 471              		.loc 1 130 1 is_stmt 0
 472              	#NO_APP
 473 01b4 1B050500 		sext.w	a0,a0
 474              	.LVL33:
 475 01b8 03348100 		ld	s0,8(sp)
 476              		.cfi_restore 8
 477              		.cfi_def_cfa 2, 16
 478 01bc 13010101 		addi	sp,sp,16
 479              		.cfi_def_cfa_offset 0
 480 01c0 67800000 		jr	ra
 481              		.cfi_endproc
 482              	.LFE7:
 484              		.align	2
 485              		.globl	_Z10sem_signalP4_sem
 487              	_Z10sem_signalP4_sem:
 488              	.LFB8:
 131:src/user/syscall_c.cpp **** 
 132:src/user/syscall_c.cpp **** int sem_signal(sem_t id)
 133:src/user/syscall_c.cpp **** {
 489              		.loc 1 133 1 is_stmt 1
 490              		.cfi_startproc
 491              	.LVL34:
 492 01c4 130101FF 		addi	sp,sp,-16
 493              		.cfi_def_cfa_offset 16
 494 01c8 23348100 		sd	s0,8(sp)
 495              		.cfi_offset 8, -8
 496 01cc 13040101 		addi	s0,sp,16
 497              		.cfi_def_cfa 8, 0
 134:src/user/syscall_c.cpp ****     __asm__ volatile("mv a1, %0" :  : "r"((uint64)id));
 498              		.loc 1 134 5
 499              		.loc 1 134 55 is_stmt 0
 500              	#APP
 501              	# 134 "src/user/syscall_c.cpp" 1
 135              	    __asm__ volatile("li a0, 0x24");
 502              		mv a1, a0
 503              	# 0 "" 2
 504              		.loc 1 135 5 is_stmt 1
GAS LISTING /tmp/ccrNVjeR.s 			page 12


 505              		.loc 1 135 36 is_stmt 0
 506              	# 135 "src/user/syscall_c.cpp" 1
 136              	
 137:src/user/syscall_c.cpp ****     __asm__ volatile("ecall");
 507              		li a0, 0x24
 508              	# 0 "" 2
 509              		.loc 1 137 5 is_stmt 1
 510              		.loc 1 137 30 is_stmt 0
 511              	# 137 "src/user/syscall_c.cpp" 1
 138              	
 139:src/user/syscall_c.cpp ****     uint64 result;
 512              		ecall
 513              	# 0 "" 2
 514              		.loc 1 139 5 is_stmt 1
 140:src/user/syscall_c.cpp ****     __asm__ volatile("mv %0, a0" : "=r"(result));
 515              		.loc 1 140 5
 516              		.loc 1 140 49 is_stmt 0
 517              	# 140 "src/user/syscall_c.cpp" 1
 141              	    return result;
 518              		mv a0, a0
 519              	# 0 "" 2
 520              	.LVL35:
 521              		.loc 1 141 5 is_stmt 1
 142:src/user/syscall_c.cpp **** }
 522              		.loc 1 142 1 is_stmt 0
 523              	#NO_APP
 524 01e0 1B050500 		sext.w	a0,a0
 525              	.LVL36:
 526 01e4 03348100 		ld	s0,8(sp)
 527              		.cfi_restore 8
 528              		.cfi_def_cfa 2, 16
 529 01e8 13010101 		addi	sp,sp,16
 530              		.cfi_def_cfa_offset 0
 531 01ec 67800000 		jr	ra
 532              		.cfi_endproc
 533              	.LFE8:
 535              		.align	2
 536              		.globl	_Z10time_sleepm
 538              	_Z10time_sleepm:
 539              	.LFB9:
 143:src/user/syscall_c.cpp **** 
 144:src/user/syscall_c.cpp **** int time_sleep(uint64 time)
 145:src/user/syscall_c.cpp **** {
 540              		.loc 1 145 1 is_stmt 1
 541              		.cfi_startproc
 542              	.LVL37:
 543 01f0 130101FF 		addi	sp,sp,-16
 544              		.cfi_def_cfa_offset 16
 545 01f4 23348100 		sd	s0,8(sp)
 546              		.cfi_offset 8, -8
 547 01f8 13040101 		addi	s0,sp,16
 548              		.cfi_def_cfa 8, 0
 146:src/user/syscall_c.cpp ****     __asm__ volatile("mv a1, %0" :  : "r"((uint64)time));
 549              		.loc 1 146 5
 550              		.loc 1 146 57 is_stmt 0
 551              	#APP
 552              	# 146 "src/user/syscall_c.cpp" 1
GAS LISTING /tmp/ccrNVjeR.s 			page 13


 147              	    __asm__ volatile("li a0, 0x31");
 553              		mv a1, a0
 554              	# 0 "" 2
 555              		.loc 1 147 5 is_stmt 1
 556              		.loc 1 147 36 is_stmt 0
 557              	# 147 "src/user/syscall_c.cpp" 1
 148              	
 149:src/user/syscall_c.cpp ****     __asm__ volatile("ecall");
 558              		li a0, 0x31
 559              	# 0 "" 2
 560              		.loc 1 149 5 is_stmt 1
 561              		.loc 1 149 30 is_stmt 0
 562              	# 149 "src/user/syscall_c.cpp" 1
 150              	
 151:src/user/syscall_c.cpp ****     uint64 result;
 563              		ecall
 564              	# 0 "" 2
 565              		.loc 1 151 5 is_stmt 1
 152:src/user/syscall_c.cpp ****     __asm__ volatile("mv %0, a0" : "=r"(result));
 566              		.loc 1 152 5
 567              		.loc 1 152 49 is_stmt 0
 568              	# 152 "src/user/syscall_c.cpp" 1
 153              	    return result;
 569              		mv a0, a0
 570              	# 0 "" 2
 571              	.LVL38:
 572              		.loc 1 153 5 is_stmt 1
 154:src/user/syscall_c.cpp **** }
 573              		.loc 1 154 1 is_stmt 0
 574              	#NO_APP
 575 020c 1B050500 		sext.w	a0,a0
 576              	.LVL39:
 577 0210 03348100 		ld	s0,8(sp)
 578              		.cfi_restore 8
 579              		.cfi_def_cfa 2, 16
 580 0214 13010101 		addi	sp,sp,16
 581              		.cfi_def_cfa_offset 0
 582 0218 67800000 		jr	ra
 583              		.cfi_endproc
 584              	.LFE9:
 586              		.align	2
 587              		.globl	_Z12thread_startPv
 589              	_Z12thread_startPv:
 590              	.LFB10:
 155:src/user/syscall_c.cpp **** 
 156:src/user/syscall_c.cpp **** int thread_start(void* p)
 157:src/user/syscall_c.cpp **** {
 591              		.loc 1 157 1 is_stmt 1
 592              		.cfi_startproc
 593              	.LVL40:
 594 021c 130101FF 		addi	sp,sp,-16
 595              		.cfi_def_cfa_offset 16
 596 0220 23348100 		sd	s0,8(sp)
 597              		.cfi_offset 8, -8
 598 0224 13040101 		addi	s0,sp,16
 599              		.cfi_def_cfa 8, 0
 158:src/user/syscall_c.cpp ****     __asm__ volatile("mv a1, %0" :  : "r"((uint64)p));
GAS LISTING /tmp/ccrNVjeR.s 			page 14


 600              		.loc 1 158 5
 601              		.loc 1 158 54 is_stmt 0
 602              	#APP
 603              	# 158 "src/user/syscall_c.cpp" 1
 159              	    __asm__ volatile("li a0, 0x15");
 604              		mv a1, a0
 605              	# 0 "" 2
 606              		.loc 1 159 5 is_stmt 1
 607              		.loc 1 159 36 is_stmt 0
 608              	# 159 "src/user/syscall_c.cpp" 1
 160              	
 161:src/user/syscall_c.cpp ****     __asm__ volatile("ecall");
 609              		li a0, 0x15
 610              	# 0 "" 2
 611              		.loc 1 161 5 is_stmt 1
 612              		.loc 1 161 30 is_stmt 0
 613              	# 161 "src/user/syscall_c.cpp" 1
 162              	
 163:src/user/syscall_c.cpp ****     uint64 result;
 614              		ecall
 615              	# 0 "" 2
 616              		.loc 1 163 5 is_stmt 1
 164:src/user/syscall_c.cpp ****     __asm__ volatile("mv %0, a0" : "=r"(result));
 617              		.loc 1 164 5
 618              		.loc 1 164 49 is_stmt 0
 619              	# 164 "src/user/syscall_c.cpp" 1
 165              	    return result;
 620              		mv a0, a0
 621              	# 0 "" 2
 622              	.LVL41:
 623              		.loc 1 165 5 is_stmt 1
 166:src/user/syscall_c.cpp **** }
 624              		.loc 1 166 1 is_stmt 0
 625              	#NO_APP
 626 0238 1B050500 		sext.w	a0,a0
 627              	.LVL42:
 628 023c 03348100 		ld	s0,8(sp)
 629              		.cfi_restore 8
 630              		.cfi_def_cfa 2, 16
 631 0240 13010101 		addi	sp,sp,16
 632              		.cfi_def_cfa_offset 0
 633 0244 67800000 		jr	ra
 634              		.cfi_endproc
 635              	.LFE10:
 637              		.align	2
 638              		.globl	_Z15thread_make_pcbPP7_threadPFvPvES2_
 640              	_Z15thread_make_pcbPP7_threadPFvPvES2_:
 641              	.LFB11:
 167:src/user/syscall_c.cpp **** 
 168:src/user/syscall_c.cpp **** int thread_make_pcb(thread_t* handle, void(*start_routine)(void*), void *arg)
 169:src/user/syscall_c.cpp **** {
 642              		.loc 1 169 1 is_stmt 1
 643              		.cfi_startproc
 644              	.LVL43:
 645 0248 130101FD 		addi	sp,sp,-48
 646              		.cfi_def_cfa_offset 48
 647 024c 23341102 		sd	ra,40(sp)
GAS LISTING /tmp/ccrNVjeR.s 			page 15


 648 0250 23308102 		sd	s0,32(sp)
 649 0254 233C9100 		sd	s1,24(sp)
 650 0258 23382101 		sd	s2,16(sp)
 651 025c 23343101 		sd	s3,8(sp)
 652              		.cfi_offset 1, -8
 653              		.cfi_offset 8, -16
 654              		.cfi_offset 9, -24
 655              		.cfi_offset 18, -32
 656              		.cfi_offset 19, -40
 657 0260 13040103 		addi	s0,sp,48
 658              		.cfi_def_cfa 8, 0
 659 0264 93040500 		mv	s1,a0
 660 0268 13890500 		mv	s2,a1
 661 026c 93090600 		mv	s3,a2
 170:src/user/syscall_c.cpp ****     uint64 handleLocal = (uint64)handle;
 662              		.loc 1 170 5
 663              	.LVL44:
 171:src/user/syscall_c.cpp ****     uint64 startRLocal = (uint64)start_routine;
 664              		.loc 1 171 5
 172:src/user/syscall_c.cpp ****     uint64 argsLocal = (uint64)arg;
 665              		.loc 1 172 5
 173:src/user/syscall_c.cpp ****     uint64 opLocal = 0x14;
 666              		.loc 1 173 5
 174:src/user/syscall_c.cpp **** 
 175:src/user/syscall_c.cpp ****     void * stack_space = mem_alloc(DEFAULT_STACK_SIZE);
 667              		.loc 1 175 5
 668              		.loc 1 175 35 is_stmt 0
 669 0270 37150000 		li	a0,4096
 670              	.LVL45:
 671 0274 97000000 		call	_Z9mem_allocm
 671      E7800000 
 672              	.LVL46:
 176:src/user/syscall_c.cpp ****     uint64 stackPointerLocal = (uint64)stack_space;
 673              		.loc 1 176 5 is_stmt 1
 177:src/user/syscall_c.cpp ****     if(stack_space == 0)
 674              		.loc 1 177 5
 675 027c 630A0504 		beqz	a0,.L32
 178:src/user/syscall_c.cpp ****         return -1;
 179:src/user/syscall_c.cpp **** 
 180:src/user/syscall_c.cpp ****     //initialize registers
 181:src/user/syscall_c.cpp ****     __asm__ volatile("mv a4, %0" :  : "r"((uint64)stackPointerLocal));
 676              		.loc 1 181 5
 677              		.loc 1 181 70 is_stmt 0
 678              	#APP
 679              	# 181 "src/user/syscall_c.cpp" 1
 182              	    //__asm__ volatile("mv a4, %0" :  : "r"((uint64)1));
 183:src/user/syscall_c.cpp ****     __asm__ volatile("mv a3, %0" :  : "r"((uint64)argsLocal));
 680              		mv a4, a0
 681              	# 0 "" 2
 682              		.loc 1 183 5 is_stmt 1
 683              		.loc 1 183 62 is_stmt 0
 684              	# 183 "src/user/syscall_c.cpp" 1
 184              	    __asm__ volatile("mv a2, %0" :  : "r"((uint64)startRLocal));
 685              		mv a3, s3
 686              	# 0 "" 2
 687              		.loc 1 184 5 is_stmt 1
 688              		.loc 1 184 64 is_stmt 0
GAS LISTING /tmp/ccrNVjeR.s 			page 16


 689              	# 184 "src/user/syscall_c.cpp" 1
 185              	    __asm__ volatile("mv a1, %0" :  : "r"((uint64)handleLocal));
 690              		mv a2, s2
 691              	# 0 "" 2
 692              		.loc 1 185 5 is_stmt 1
 693              		.loc 1 185 64 is_stmt 0
 694              	# 185 "src/user/syscall_c.cpp" 1
 186              	    __asm__ volatile("mv a0, %0" :  : "r"((uint64)opLocal));
 695              		mv a1, s1
 696              	# 0 "" 2
 697              		.loc 1 186 5 is_stmt 1
 698              		.loc 1 186 60 is_stmt 0
 699              	#NO_APP
 700 0290 93074001 		li	a5,20
 701              	#APP
 702              	# 186 "src/user/syscall_c.cpp" 1
 187              	
 188:src/user/syscall_c.cpp ****     __asm__ volatile("ecall");
 703              		mv a0, a5
 704              	# 0 "" 2
 705              		.loc 1 188 5 is_stmt 1
 706              		.loc 1 188 30 is_stmt 0
 707              	# 188 "src/user/syscall_c.cpp" 1
 189              	
 190:src/user/syscall_c.cpp ****     //get the result
 191:src/user/syscall_c.cpp ****     uint64 result;
 708              		ecall
 709              	# 0 "" 2
 710              		.loc 1 191 5 is_stmt 1
 192:src/user/syscall_c.cpp ****     __asm__ volatile("mv %0, a0" : "=r"(result));
 711              		.loc 1 192 5
 712              		.loc 1 192 49 is_stmt 0
 713              	# 192 "src/user/syscall_c.cpp" 1
 193              	
 714              		mv s1, a0
 715              	# 0 "" 2
 716              	.LVL47:
 194:src/user/syscall_c.cpp ****     if(result != 0)
 717              		.loc 1 194 5 is_stmt 1
 718              	#NO_APP
 719 02a0 63920402 		bnez	s1,.L34
 720              	.LVL48:
 721              	.L31:
 195:src/user/syscall_c.cpp ****     {
 196:src/user/syscall_c.cpp ****         mem_free(stack_space);
 197:src/user/syscall_c.cpp ****     }
 198:src/user/syscall_c.cpp **** 
 199:src/user/syscall_c.cpp ****     return result;
 722              		.loc 1 199 5
 723              		.loc 1 199 12 is_stmt 0
 724 02a4 1B850400 		sext.w	a0,s1
 725              	.LVL49:
 726              	.L30:
 200:src/user/syscall_c.cpp **** }
 727              		.loc 1 200 1
 728 02a8 83308102 		ld	ra,40(sp)
 729              		.cfi_remember_state
GAS LISTING /tmp/ccrNVjeR.s 			page 17


 730              		.cfi_restore 1
 731 02ac 03340102 		ld	s0,32(sp)
 732              		.cfi_restore 8
 733              		.cfi_def_cfa 2, 48
 734 02b0 83348101 		ld	s1,24(sp)
 735              		.cfi_restore 9
 736 02b4 03390101 		ld	s2,16(sp)
 737              		.cfi_restore 18
 738              	.LVL50:
 739 02b8 83398100 		ld	s3,8(sp)
 740              		.cfi_restore 19
 741              	.LVL51:
 742 02bc 13010103 		addi	sp,sp,48
 743              		.cfi_def_cfa_offset 0
 744 02c0 67800000 		jr	ra
 745              	.LVL52:
 746              	.L34:
 747              		.cfi_restore_state
 196:src/user/syscall_c.cpp ****     }
 748              		.loc 1 196 9 is_stmt 1
 196:src/user/syscall_c.cpp ****     }
 749              		.loc 1 196 17 is_stmt 0
 750 02c4 97000000 		call	_Z8mem_freePv
 750      E7800000 
 751              	.LVL53:
 752 02cc 6FF09FFD 		j	.L31
 753              	.LVL54:
 754              	.L32:
 178:src/user/syscall_c.cpp **** 
 755              		.loc 1 178 17
 756 02d0 1305F0FF 		li	a0,-1
 757              	.LVL55:
 758 02d4 6FF05FFD 		j	.L30
 759              		.cfi_endproc
 760              	.LFE11:
 762              		.align	2
 763              		.globl	_Z4getcv
 765              	_Z4getcv:
 766              	.LFB12:
 201:src/user/syscall_c.cpp **** 
 202:src/user/syscall_c.cpp **** char getc()
 203:src/user/syscall_c.cpp **** {
 767              		.loc 1 203 1 is_stmt 1
 768              		.cfi_startproc
 769 02d8 130101FF 		addi	sp,sp,-16
 770              		.cfi_def_cfa_offset 16
 771 02dc 23348100 		sd	s0,8(sp)
 772              		.cfi_offset 8, -8
 773 02e0 13040101 		addi	s0,sp,16
 774              		.cfi_def_cfa 8, 0
 204:src/user/syscall_c.cpp ****     __asm__ volatile("li a0, 0x41");
 775              		.loc 1 204 5
 776              		.loc 1 204 36 is_stmt 0
 777              	#APP
 778              	# 204 "src/user/syscall_c.cpp" 1
 205              	
 206:src/user/syscall_c.cpp ****     __asm__ volatile("ecall");
GAS LISTING /tmp/ccrNVjeR.s 			page 18


 779              		li a0, 0x41
 780              	# 0 "" 2
 781              		.loc 1 206 5 is_stmt 1
 782              		.loc 1 206 30 is_stmt 0
 783              	# 206 "src/user/syscall_c.cpp" 1
 207              	
 208:src/user/syscall_c.cpp ****     uint64 result;
 784              		ecall
 785              	# 0 "" 2
 786              		.loc 1 208 5 is_stmt 1
 209:src/user/syscall_c.cpp ****     __asm__ volatile("mv %0, a0" : "=r"(result));
 787              		.loc 1 209 5
 788              		.loc 1 209 49 is_stmt 0
 789              	# 209 "src/user/syscall_c.cpp" 1
 210              	    return (char)result;
 790              		mv a0, a0
 791              	# 0 "" 2
 792              	.LVL56:
 793              		.loc 1 210 5 is_stmt 1
 211:src/user/syscall_c.cpp **** }
 794              		.loc 1 211 1 is_stmt 0
 795              	#NO_APP
 796 02f0 1375F50F 		andi	a0,a0,0xff
 797              	.LVL57:
 798 02f4 03348100 		ld	s0,8(sp)
 799              		.cfi_restore 8
 800              		.cfi_def_cfa 2, 16
 801 02f8 13010101 		addi	sp,sp,16
 802              		.cfi_def_cfa_offset 0
 803 02fc 67800000 		jr	ra
 804              		.cfi_endproc
 805              	.LFE12:
 807              		.align	2
 808              		.globl	_Z4putcc
 810              	_Z4putcc:
 811              	.LFB13:
 212:src/user/syscall_c.cpp **** 
 213:src/user/syscall_c.cpp **** void putc(char c)
 214:src/user/syscall_c.cpp **** {
 812              		.loc 1 214 1 is_stmt 1
 813              		.cfi_startproc
 814              	.LVL58:
 815 0300 130101FF 		addi	sp,sp,-16
 816              		.cfi_def_cfa_offset 16
 817 0304 23348100 		sd	s0,8(sp)
 818              		.cfi_offset 8, -8
 819 0308 13040101 		addi	s0,sp,16
 820              		.cfi_def_cfa 8, 0
 215:src/user/syscall_c.cpp ****     __asm__ volatile("mv a1, %0" :  : "r"((uint64)c));
 821              		.loc 1 215 5
 822              		.loc 1 215 54 is_stmt 0
 823              	#APP
 824              	# 215 "src/user/syscall_c.cpp" 1
 216              	    __asm__ volatile("li a0, 0x42");
 825              		mv a1, a0
 826              	# 0 "" 2
 827              		.loc 1 216 5 is_stmt 1
GAS LISTING /tmp/ccrNVjeR.s 			page 19


 828              		.loc 1 216 36 is_stmt 0
 829              	# 216 "src/user/syscall_c.cpp" 1
 217              	    __asm__ volatile("ecall");
 830              		li a0, 0x42
 831              	# 0 "" 2
 832              		.loc 1 217 5 is_stmt 1
 833              		.loc 1 217 30 is_stmt 0
 834              	# 217 "src/user/syscall_c.cpp" 1
 218              	}
 835              		ecall
 836              	# 0 "" 2
 837              		.loc 1 218 1
 838              	#NO_APP
 839 0318 03348100 		ld	s0,8(sp)
 840              		.cfi_restore 8
 841              		.cfi_def_cfa 2, 16
 842 031c 13010101 		addi	sp,sp,16
 843              		.cfi_def_cfa_offset 0
 844 0320 67800000 		jr	ra
 845              		.cfi_endproc
 846              	.LFE13:
 848              		.align	2
 849              		.globl	_Z17thread_delete_pcbP7_thread
 851              	_Z17thread_delete_pcbP7_thread:
 852              	.LFB14:
 219:src/user/syscall_c.cpp **** 
 220:src/user/syscall_c.cpp **** 
 221:src/user/syscall_c.cpp **** //char sysCallGetCharOutput()
 222:src/user/syscall_c.cpp **** //{
 223:src/user/syscall_c.cpp **** //    __asm__ volatile("li a0, 0x43");
 224:src/user/syscall_c.cpp **** //
 225:src/user/syscall_c.cpp **** //    __asm__ volatile("ecall");
 226:src/user/syscall_c.cpp **** //
 227:src/user/syscall_c.cpp **** //    uint64 result;
 228:src/user/syscall_c.cpp **** //    __asm__ volatile("mv %0, a0" : "=r"(result));
 229:src/user/syscall_c.cpp **** //    return (char)result;
 230:src/user/syscall_c.cpp **** //}
 231:src/user/syscall_c.cpp **** 
 232:src/user/syscall_c.cpp **** int thread_delete_pcb(thread_t handle)
 233:src/user/syscall_c.cpp **** {
 853              		.loc 1 233 1 is_stmt 1
 854              		.cfi_startproc
 855              	.LVL59:
 856 0324 130101FF 		addi	sp,sp,-16
 857              		.cfi_def_cfa_offset 16
 858 0328 23348100 		sd	s0,8(sp)
 859              		.cfi_offset 8, -8
 860 032c 13040101 		addi	s0,sp,16
 861              		.cfi_def_cfa 8, 0
 234:src/user/syscall_c.cpp ****     __asm__ volatile("mv a1, %0" :  : "r"((uint64)handle));
 862              		.loc 1 234 5
 863              		.loc 1 234 59 is_stmt 0
 864              	#APP
 865              	# 234 "src/user/syscall_c.cpp" 1
 235              	    __asm__ volatile("li a0, 0x16");
 866              		mv a1, a0
 867              	# 0 "" 2
GAS LISTING /tmp/ccrNVjeR.s 			page 20


 868              		.loc 1 235 5 is_stmt 1
 869              		.loc 1 235 36 is_stmt 0
 870              	# 235 "src/user/syscall_c.cpp" 1
 236              	    __asm__ volatile("ecall");
 871              		li a0, 0x16
 872              	# 0 "" 2
 873              		.loc 1 236 5 is_stmt 1
 874              		.loc 1 236 30 is_stmt 0
 875              	# 236 "src/user/syscall_c.cpp" 1
 237              	
 238:src/user/syscall_c.cpp ****     uint64 result;
 876              		ecall
 877              	# 0 "" 2
 878              		.loc 1 238 5 is_stmt 1
 239:src/user/syscall_c.cpp ****     __asm__ volatile("mv %0, a0" : "=r"(result));
 879              		.loc 1 239 5
 880              		.loc 1 239 49 is_stmt 0
 881              	# 239 "src/user/syscall_c.cpp" 1
 240              	    return (char)result;
 882              		mv a0, a0
 883              	# 0 "" 2
 884              	.LVL60:
 885              		.loc 1 240 5 is_stmt 1
 241:src/user/syscall_c.cpp **** }
 886              		.loc 1 241 1 is_stmt 0
 887              	#NO_APP
 888 0340 1375F50F 		andi	a0,a0,0xff
 889              	.LVL61:
 890 0344 03348100 		ld	s0,8(sp)
 891              		.cfi_restore 8
 892              		.cfi_def_cfa 2, 16
 893 0348 13010101 		addi	sp,sp,16
 894              		.cfi_def_cfa_offset 0
 895 034c 67800000 		jr	ra
 896              		.cfi_endproc
 897              	.LFE14:
 899              	.Letext0:
 900              		.file 2 "src/user/../../h/../lib/hw.h"
 901              		.file 3 "src/user/../../h/_thread.hpp"
 902              		.file 4 "src/user/../../h/_sem.hpp"
 903              		.file 5 "src/user/../../h/syscall_c.hpp"
GAS LISTING /tmp/ccrNVjeR.s 			page 21

