GAS LISTING /tmp/ccbgESRe.s 			page 1


   1              		.file	"userMain.cpp"
   2              		.option pic
   3              		.option norelax
   4              		.text
   5              	.Ltext0:
   6              		.section	.rodata.str1.8,"aMS",@progbits,1
   7              		.align	3
   8              	.LC0:
   9 0000 413A2069 		.string	"A: i="
   9      3D00
  10 0006 0000     		.align	3
  11              	.LC1:
  12 0008 0A00     		.string	"\n"
  13 000a 00000000 		.align	3
  13      0000
  14              	.LC2:
  15 0010 41206669 		.string	"A finished!\n"
  15      6E697368 
  15      6564210A 
  15      00
  16              		.text
  17              		.align	2
  18              		.globl	_Z11workerBodyAPv
  20              	_Z11workerBodyAPv:
  21              	.LFB1:
  22              		.file 1 "test/Threads_C_API_test.hpp"
   1:test/Threads_C_API_test.hpp **** #ifndef XV6_THREADS_C_API_TEST_HPP
   2:test/Threads_C_API_test.hpp **** #define XV6_THREADS_C_API_TEST_HPP
   3:test/Threads_C_API_test.hpp **** 
   4:test/Threads_C_API_test.hpp **** #include "printing.hpp"
   5:test/Threads_C_API_test.hpp **** 
   6:test/Threads_C_API_test.hpp **** bool finishedA = false;
   7:test/Threads_C_API_test.hpp **** bool finishedB = false;
   8:test/Threads_C_API_test.hpp **** bool finishedC = false;
   9:test/Threads_C_API_test.hpp **** bool finishedD = false;
  10:test/Threads_C_API_test.hpp **** 
  11:test/Threads_C_API_test.hpp **** uint64 fibonacci(uint64 n) {
  12:test/Threads_C_API_test.hpp ****     if (n == 0 || n == 1) { return n; }
  13:test/Threads_C_API_test.hpp ****     if (n % 10 == 0) { thread_dispatch(); }
  14:test/Threads_C_API_test.hpp ****     return fibonacci(n - 1) + fibonacci(n - 2);
  15:test/Threads_C_API_test.hpp **** }
  16:test/Threads_C_API_test.hpp **** 
  17:test/Threads_C_API_test.hpp **** void workerBodyA(void* arg) {
  23              		.loc 1 17 29
  24              		.cfi_startproc
  25              	.LVL0:
  26 0000 130101FE 		addi	sp,sp,-32
  27              		.cfi_def_cfa_offset 32
  28 0004 233C1100 		sd	ra,24(sp)
  29 0008 23388100 		sd	s0,16(sp)
  30 000c 23349100 		sd	s1,8(sp)
  31 0010 23302101 		sd	s2,0(sp)
  32              		.cfi_offset 1, -8
  33              		.cfi_offset 8, -16
  34              		.cfi_offset 9, -24
  35              		.cfi_offset 18, -32
  36 0014 13040102 		addi	s0,sp,32
GAS LISTING /tmp/ccbgESRe.s 			page 2


  37              		.cfi_def_cfa 8, 0
  18:test/Threads_C_API_test.hpp ****     for (uint64 i = 0; i < 10; i++) {
  38              		.loc 1 18 5
  39              	.LVL1:
  40              	.LBB2:
  41              		.loc 1 18 17 is_stmt 0
  42 0018 13090000 		li	s2,0
  43 001c 6F008003 		j	.L7
  44              	.LVL2:
  45              	.L4:
  46              	.LBB3:
  47              	.LBB4:
  48              	.LBB5:
  19:test/Threads_C_API_test.hpp ****         printString("A: i="); printInt(i); printString("\n");
  20:test/Threads_C_API_test.hpp ****         for (uint64 j = 0; j < 10000; j++) {
  21:test/Threads_C_API_test.hpp ****             for (uint64 k = 0; k < 30000; k++) { /* busy wait */ }
  22:test/Threads_C_API_test.hpp ****             thread_dispatch();
  49              		.loc 1 22 13 is_stmt 1 discriminator 2
  50              		.loc 1 22 28 is_stmt 0 discriminator 2
  51 0020 97000000 		call	_Z15thread_dispatchv@plt
  51      E7800000 
  52              	.LVL3:
  53              	.LBE5:
  20:test/Threads_C_API_test.hpp ****             for (uint64 k = 0; k < 30000; k++) { /* busy wait */ }
  54              		.loc 1 20 9 is_stmt 1 discriminator 2
  55 0028 93841400 		addi	s1,s1,1
  56              	.LVL4:
  57              	.L6:
  20:test/Threads_C_API_test.hpp ****             for (uint64 k = 0; k < 30000; k++) { /* busy wait */ }
  58              		.loc 1 20 30 discriminator 1
  59 002c B7270000 		li	a5,8192
  60 0030 9387F770 		addi	a5,a5,1807
  61 0034 63EE9700 		bgtu	s1,a5,.L3
  62              	.LBB7:
  63              	.LBB6:
  21:test/Threads_C_API_test.hpp ****             thread_dispatch();
  64              		.loc 1 21 25 is_stmt 0
  65 0038 13070000 		li	a4,0
  66              	.L5:
  67              	.LVL5:
  21:test/Threads_C_API_test.hpp ****             thread_dispatch();
  68              		.loc 1 21 34 is_stmt 1 discriminator 3
  69 003c B7770000 		li	a5,28672
  70 0040 9387F752 		addi	a5,a5,1327
  71 0044 E3EEE7FC 		bgtu	a4,a5,.L4
  21:test/Threads_C_API_test.hpp ****             thread_dispatch();
  72              		.loc 1 21 13 discriminator 2
  73 0048 13071700 		addi	a4,a4,1
  74              	.LVL6:
  75 004c 6FF01FFF 		j	.L5
  76              	.LVL7:
  77              	.L3:
  78              	.LBE6:
  79              	.LBE7:
  80              	.LBE4:
  81              	.LBE3:
  18:test/Threads_C_API_test.hpp ****         printString("A: i="); printInt(i); printString("\n");
GAS LISTING /tmp/ccbgESRe.s 			page 3


  82              		.loc 1 18 5 discriminator 2
  83 0050 13091900 		addi	s2,s2,1
  84              	.LVL8:
  85              	.L7:
  18:test/Threads_C_API_test.hpp ****         printString("A: i="); printInt(i); printString("\n");
  86              		.loc 1 18 26 discriminator 1
  87 0054 93079000 		li	a5,9
  88 0058 63E02705 		bgtu	s2,a5,.L2
  89              	.LBB9:
  19:test/Threads_C_API_test.hpp ****         for (uint64 j = 0; j < 10000; j++) {
  90              		.loc 1 19 9
  19:test/Threads_C_API_test.hpp ****         for (uint64 j = 0; j < 10000; j++) {
  91              		.loc 1 19 20 is_stmt 0
  92 005c 17050000 		lla	a0,.LC0
  92      13050500 
  93 0064 97000000 		call	_Z11printStringPKc@plt
  93      E7800000 
  94              	.LVL9:
  19:test/Threads_C_API_test.hpp ****         for (uint64 j = 0; j < 10000; j++) {
  95              		.loc 1 19 31 is_stmt 1
  19:test/Threads_C_API_test.hpp ****         for (uint64 j = 0; j < 10000; j++) {
  96              		.loc 1 19 39 is_stmt 0
  97 006c 13060000 		li	a2,0
  98 0070 9305A000 		li	a1,10
  99 0074 1B050900 		sext.w	a0,s2
 100 0078 97000000 		call	_Z8printIntiii@plt
 100      E7800000 
 101              	.LVL10:
  19:test/Threads_C_API_test.hpp ****         for (uint64 j = 0; j < 10000; j++) {
 102              		.loc 1 19 44 is_stmt 1
  19:test/Threads_C_API_test.hpp ****         for (uint64 j = 0; j < 10000; j++) {
 103              		.loc 1 19 55 is_stmt 0
 104 0080 17050000 		lla	a0,.LC1
 104      13050500 
 105 0088 97000000 		call	_Z11printStringPKc@plt
 105      E7800000 
 106              	.LVL11:
  20:test/Threads_C_API_test.hpp ****             for (uint64 k = 0; k < 30000; k++) { /* busy wait */ }
 107              		.loc 1 20 9 is_stmt 1
 108              	.LBB8:
  20:test/Threads_C_API_test.hpp ****             for (uint64 k = 0; k < 30000; k++) { /* busy wait */ }
 109              		.loc 1 20 21 is_stmt 0
 110 0090 93040000 		li	s1,0
 111 0094 6FF09FF9 		j	.L6
 112              	.LVL12:
 113              	.L2:
 114              	.LBE8:
 115              	.LBE9:
 116              	.LBE2:
  23:test/Threads_C_API_test.hpp ****         }
  24:test/Threads_C_API_test.hpp ****     }
  25:test/Threads_C_API_test.hpp ****     printString("A finished!\n");
 117              		.loc 1 25 5 is_stmt 1
 118              		.loc 1 25 16 is_stmt 0
 119 0098 17050000 		lla	a0,.LC2
 119      13050500 
 120 00a0 97000000 		call	_Z11printStringPKc@plt
GAS LISTING /tmp/ccbgESRe.s 			page 4


 120      E7800000 
 121              	.LVL13:
  26:test/Threads_C_API_test.hpp ****     finishedA = true;
 122              		.loc 1 26 5 is_stmt 1
 123              		.loc 1 26 15 is_stmt 0
 124 00a8 93071000 		li	a5,1
 125 00ac 17070000 		sb	a5,.LANCHOR0,a4
 125      2300F700 
  27:test/Threads_C_API_test.hpp **** }
 126              		.loc 1 27 1
 127 00b4 83308101 		ld	ra,24(sp)
 128              		.cfi_restore 1
 129 00b8 03340101 		ld	s0,16(sp)
 130              		.cfi_restore 8
 131              		.cfi_def_cfa 2, 32
 132 00bc 83348100 		ld	s1,8(sp)
 133              		.cfi_restore 9
 134 00c0 03390100 		ld	s2,0(sp)
 135              		.cfi_restore 18
 136              	.LVL14:
 137 00c4 13010102 		addi	sp,sp,32
 138              		.cfi_def_cfa_offset 0
 139 00c8 67800000 		jr	ra
 140              		.cfi_endproc
 141              	.LFE1:
 143              		.section	.rodata.str1.8
 144 001d 000000   		.align	3
 145              	.LC3:
 146 0020 423A2069 		.string	"B: i="
 146      3D00
 147 0026 0000     		.align	3
 148              	.LC4:
 149 0028 42206669 		.string	"B finished!\n"
 149      6E697368 
 149      6564210A 
 149      00
 150              		.text
 151              		.align	2
 152              		.globl	_Z11workerBodyBPv
 154              	_Z11workerBodyBPv:
 155              	.LFB2:
  28:test/Threads_C_API_test.hpp **** 
  29:test/Threads_C_API_test.hpp **** void workerBodyB(void* arg) {
 156              		.loc 1 29 29 is_stmt 1
 157              		.cfi_startproc
 158              	.LVL15:
 159 00cc 130101FE 		addi	sp,sp,-32
 160              		.cfi_def_cfa_offset 32
 161 00d0 233C1100 		sd	ra,24(sp)
 162 00d4 23388100 		sd	s0,16(sp)
 163 00d8 23349100 		sd	s1,8(sp)
 164 00dc 23302101 		sd	s2,0(sp)
 165              		.cfi_offset 1, -8
 166              		.cfi_offset 8, -16
 167              		.cfi_offset 9, -24
 168              		.cfi_offset 18, -32
 169 00e0 13040102 		addi	s0,sp,32
GAS LISTING /tmp/ccbgESRe.s 			page 5


 170              		.cfi_def_cfa 8, 0
  30:test/Threads_C_API_test.hpp ****     for (uint64 i = 0; i < 16; i++) {
 171              		.loc 1 30 5
 172              	.LVL16:
 173              	.LBB10:
 174              		.loc 1 30 17 is_stmt 0
 175 00e4 13090000 		li	s2,0
 176 00e8 6F008003 		j	.L15
 177              	.LVL17:
 178              	.L12:
 179              	.LBB11:
 180              	.LBB12:
 181              	.LBB13:
  31:test/Threads_C_API_test.hpp ****         printString("B: i="); printInt(i); printString("\n");
  32:test/Threads_C_API_test.hpp ****         for (uint64 j = 0; j < 10000; j++) {
  33:test/Threads_C_API_test.hpp ****             for (uint64 k = 0; k < 30000; k++) { /* busy wait */ }
  34:test/Threads_C_API_test.hpp ****             thread_dispatch();
 182              		.loc 1 34 13 is_stmt 1 discriminator 2
 183              		.loc 1 34 28 is_stmt 0 discriminator 2
 184 00ec 97000000 		call	_Z15thread_dispatchv@plt
 184      E7800000 
 185              	.LVL18:
 186              	.LBE13:
  32:test/Threads_C_API_test.hpp ****             for (uint64 k = 0; k < 30000; k++) { /* busy wait */ }
 187              		.loc 1 32 9 is_stmt 1 discriminator 2
 188 00f4 93841400 		addi	s1,s1,1
 189              	.LVL19:
 190              	.L14:
  32:test/Threads_C_API_test.hpp ****             for (uint64 k = 0; k < 30000; k++) { /* busy wait */ }
 191              		.loc 1 32 30 discriminator 1
 192 00f8 B7270000 		li	a5,8192
 193 00fc 9387F770 		addi	a5,a5,1807
 194 0100 63EE9700 		bgtu	s1,a5,.L11
 195              	.LBB15:
 196              	.LBB14:
  33:test/Threads_C_API_test.hpp ****             thread_dispatch();
 197              		.loc 1 33 25 is_stmt 0
 198 0104 13070000 		li	a4,0
 199              	.L13:
 200              	.LVL20:
  33:test/Threads_C_API_test.hpp ****             thread_dispatch();
 201              		.loc 1 33 34 is_stmt 1 discriminator 3
 202 0108 B7770000 		li	a5,28672
 203 010c 9387F752 		addi	a5,a5,1327
 204 0110 E3EEE7FC 		bgtu	a4,a5,.L12
  33:test/Threads_C_API_test.hpp ****             thread_dispatch();
 205              		.loc 1 33 13 discriminator 2
 206 0114 13071700 		addi	a4,a4,1
 207              	.LVL21:
 208 0118 6FF01FFF 		j	.L13
 209              	.LVL22:
 210              	.L11:
 211              	.LBE14:
 212              	.LBE15:
 213              	.LBE12:
 214              	.LBE11:
  30:test/Threads_C_API_test.hpp ****         printString("B: i="); printInt(i); printString("\n");
GAS LISTING /tmp/ccbgESRe.s 			page 6


 215              		.loc 1 30 5 discriminator 2
 216 011c 13091900 		addi	s2,s2,1
 217              	.LVL23:
 218              	.L15:
  30:test/Threads_C_API_test.hpp ****         printString("B: i="); printInt(i); printString("\n");
 219              		.loc 1 30 26 discriminator 1
 220 0120 9307F000 		li	a5,15
 221 0124 63E02705 		bgtu	s2,a5,.L10
 222              	.LBB17:
  31:test/Threads_C_API_test.hpp ****         for (uint64 j = 0; j < 10000; j++) {
 223              		.loc 1 31 9
  31:test/Threads_C_API_test.hpp ****         for (uint64 j = 0; j < 10000; j++) {
 224              		.loc 1 31 20 is_stmt 0
 225 0128 17050000 		lla	a0,.LC3
 225      13050500 
 226 0130 97000000 		call	_Z11printStringPKc@plt
 226      E7800000 
 227              	.LVL24:
  31:test/Threads_C_API_test.hpp ****         for (uint64 j = 0; j < 10000; j++) {
 228              		.loc 1 31 31 is_stmt 1
  31:test/Threads_C_API_test.hpp ****         for (uint64 j = 0; j < 10000; j++) {
 229              		.loc 1 31 39 is_stmt 0
 230 0138 13060000 		li	a2,0
 231 013c 9305A000 		li	a1,10
 232 0140 1B050900 		sext.w	a0,s2
 233 0144 97000000 		call	_Z8printIntiii@plt
 233      E7800000 
 234              	.LVL25:
  31:test/Threads_C_API_test.hpp ****         for (uint64 j = 0; j < 10000; j++) {
 235              		.loc 1 31 44 is_stmt 1
  31:test/Threads_C_API_test.hpp ****         for (uint64 j = 0; j < 10000; j++) {
 236              		.loc 1 31 55 is_stmt 0
 237 014c 17050000 		lla	a0,.LC1
 237      13050500 
 238 0154 97000000 		call	_Z11printStringPKc@plt
 238      E7800000 
 239              	.LVL26:
  32:test/Threads_C_API_test.hpp ****             for (uint64 k = 0; k < 30000; k++) { /* busy wait */ }
 240              		.loc 1 32 9 is_stmt 1
 241              	.LBB16:
  32:test/Threads_C_API_test.hpp ****             for (uint64 k = 0; k < 30000; k++) { /* busy wait */ }
 242              		.loc 1 32 21 is_stmt 0
 243 015c 93040000 		li	s1,0
 244 0160 6FF09FF9 		j	.L14
 245              	.LVL27:
 246              	.L10:
 247              	.LBE16:
 248              	.LBE17:
 249              	.LBE10:
  35:test/Threads_C_API_test.hpp ****         }
  36:test/Threads_C_API_test.hpp ****     }
  37:test/Threads_C_API_test.hpp ****     thread_dispatch();
 250              		.loc 1 37 5 is_stmt 1
 251              		.loc 1 37 20 is_stmt 0
 252 0164 97000000 		call	_Z15thread_dispatchv@plt
 252      E7800000 
 253              	.LVL28:
GAS LISTING /tmp/ccbgESRe.s 			page 7


  38:test/Threads_C_API_test.hpp ****     printString("B finished!\n");
 254              		.loc 1 38 5 is_stmt 1
 255              		.loc 1 38 16 is_stmt 0
 256 016c 17050000 		lla	a0,.LC4
 256      13050500 
 257 0174 97000000 		call	_Z11printStringPKc@plt
 257      E7800000 
 258              	.LVL29:
  39:test/Threads_C_API_test.hpp ****     finishedB = true;
 259              		.loc 1 39 5 is_stmt 1
 260              		.loc 1 39 15 is_stmt 0
 261 017c 93071000 		li	a5,1
 262 0180 17070000 		sb	a5,.LANCHOR0+1,a4
 262      2300F700 
  40:test/Threads_C_API_test.hpp **** }
 263              		.loc 1 40 1
 264 0188 83308101 		ld	ra,24(sp)
 265              		.cfi_restore 1
 266 018c 03340101 		ld	s0,16(sp)
 267              		.cfi_restore 8
 268              		.cfi_def_cfa 2, 32
 269 0190 83348100 		ld	s1,8(sp)
 270              		.cfi_restore 9
 271 0194 03390100 		ld	s2,0(sp)
 272              		.cfi_restore 18
 273              	.LVL30:
 274 0198 13010102 		addi	sp,sp,32
 275              		.cfi_def_cfa_offset 0
 276 019c 67800000 		jr	ra
 277              		.cfi_endproc
 278              	.LFE2:
 280              		.align	2
 281              		.globl	_Z9fibonaccim
 283              	_Z9fibonaccim:
 284              	.LFB0:
  11:test/Threads_C_API_test.hpp ****     if (n == 0 || n == 1) { return n; }
 285              		.loc 1 11 28 is_stmt 1
 286              		.cfi_startproc
 287              	.LVL31:
 288 01a0 130101FE 		addi	sp,sp,-32
 289              		.cfi_def_cfa_offset 32
 290 01a4 233C1100 		sd	ra,24(sp)
 291 01a8 23388100 		sd	s0,16(sp)
 292 01ac 23349100 		sd	s1,8(sp)
 293 01b0 23302101 		sd	s2,0(sp)
 294              		.cfi_offset 1, -8
 295              		.cfi_offset 8, -16
 296              		.cfi_offset 9, -24
 297              		.cfi_offset 18, -32
 298 01b4 13040102 		addi	s0,sp,32
 299              		.cfi_def_cfa 8, 0
 300 01b8 93040500 		mv	s1,a0
  12:test/Threads_C_API_test.hpp ****     if (n % 10 == 0) { thread_dispatch(); }
 301              		.loc 1 12 5
 302 01bc 93071000 		li	a5,1
 303 01c0 63F8A702 		bleu	a0,a5,.L17
  13:test/Threads_C_API_test.hpp ****     return fibonacci(n - 1) + fibonacci(n - 2);
GAS LISTING /tmp/ccbgESRe.s 			page 8


 304              		.loc 1 13 5
  13:test/Threads_C_API_test.hpp ****     return fibonacci(n - 1) + fibonacci(n - 2);
 305              		.loc 1 13 11 is_stmt 0
 306 01c4 9307A000 		li	a5,10
 307 01c8 B377F502 		remu	a5,a0,a5
  13:test/Threads_C_API_test.hpp ****     return fibonacci(n - 1) + fibonacci(n - 2);
 308              		.loc 1 13 5
 309 01cc 638E0702 		beqz	a5,.L22
 310              	.LVL32:
 311              	.L19:
  14:test/Threads_C_API_test.hpp **** }
 312              		.loc 1 14 5 is_stmt 1
  14:test/Threads_C_API_test.hpp **** }
 313              		.loc 1 14 21 is_stmt 0
 314 01d0 1385F4FF 		addi	a0,s1,-1
 315 01d4 97000000 		call	_Z9fibonaccim
 315      E7800000 
 316              	.LVL33:
 317 01dc 13090500 		mv	s2,a0
  14:test/Threads_C_API_test.hpp **** }
 318              		.loc 1 14 40
 319 01e0 1385E4FF 		addi	a0,s1,-2
 320 01e4 97000000 		call	_Z9fibonaccim
 320      E7800000 
 321              	.LVL34:
  14:test/Threads_C_API_test.hpp **** }
 322              		.loc 1 14 46
 323 01ec 3305A900 		add	a0,s2,a0
 324              	.L17:
  15:test/Threads_C_API_test.hpp **** 
 325              		.loc 1 15 1
 326 01f0 83308101 		ld	ra,24(sp)
 327              		.cfi_remember_state
 328              		.cfi_restore 1
 329 01f4 03340101 		ld	s0,16(sp)
 330              		.cfi_restore 8
 331              		.cfi_def_cfa 2, 32
 332 01f8 83348100 		ld	s1,8(sp)
 333              		.cfi_restore 9
 334              	.LVL35:
 335 01fc 03390100 		ld	s2,0(sp)
 336              		.cfi_restore 18
 337 0200 13010102 		addi	sp,sp,32
 338              		.cfi_def_cfa_offset 0
 339 0204 67800000 		jr	ra
 340              	.LVL36:
 341              	.L22:
 342              		.cfi_restore_state
  13:test/Threads_C_API_test.hpp ****     return fibonacci(n - 1) + fibonacci(n - 2);
 343              		.loc 1 13 24 is_stmt 1 discriminator 1
  13:test/Threads_C_API_test.hpp ****     return fibonacci(n - 1) + fibonacci(n - 2);
 344              		.loc 1 13 39 is_stmt 0 discriminator 1
 345 0208 97000000 		call	_Z15thread_dispatchv@plt
 345      E7800000 
 346              	.LVL37:
 347 0210 6FF01FFC 		j	.L19
 348              		.cfi_endproc
GAS LISTING /tmp/ccbgESRe.s 			page 9


 349              	.LFE0:
 351              		.section	.rodata.str1.8
 352 0035 000000   		.align	3
 353              	.LC5:
 354 0038 433A2069 		.string	"C: i="
 354      3D00
 355 003e 0000     		.align	3
 356              	.LC6:
 357 0040 433A2064 		.string	"C: dispatch\n"
 357      69737061 
 357      7463680A 
 357      00
 358 004d 000000   		.align	3
 359              	.LC7:
 360 0050 433A2074 		.string	"C: t1="
 360      313D00
 361 0057 00       		.align	3
 362              	.LC8:
 363 0058 433A2066 		.string	"C: fibonaci="
 363      69626F6E 
 363      6163693D 
 363      00
 364              		.text
 365              		.align	2
 366              		.globl	_Z11workerBodyCPv
 368              	_Z11workerBodyCPv:
 369              	.LFB3:
  41:test/Threads_C_API_test.hpp **** 
  42:test/Threads_C_API_test.hpp **** void workerBodyC(void* arg) {
 370              		.loc 1 42 29 is_stmt 1
 371              		.cfi_startproc
 372              	.LVL38:
 373 0214 130101FE 		addi	sp,sp,-32
 374              		.cfi_def_cfa_offset 32
 375 0218 233C1100 		sd	ra,24(sp)
 376 021c 23388100 		sd	s0,16(sp)
 377 0220 23349100 		sd	s1,8(sp)
 378 0224 23302101 		sd	s2,0(sp)
 379              		.cfi_offset 1, -8
 380              		.cfi_offset 8, -16
 381              		.cfi_offset 9, -24
 382              		.cfi_offset 18, -32
 383 0228 13040102 		addi	s0,sp,32
 384              		.cfi_def_cfa 8, 0
  43:test/Threads_C_API_test.hpp ****     uint8 i = 0;
 385              		.loc 1 43 5
 386              	.LVL39:
 387              		.loc 1 43 11 is_stmt 0
 388 022c 93040000 		li	s1,0
 389 0230 6F000004 		j	.L25
 390              	.LVL40:
 391              	.L29:
  44:test/Threads_C_API_test.hpp ****     for (; i < 3; i++) {
  45:test/Threads_C_API_test.hpp ****         printString("C: i="); printInt(i); printString("\n");
 392              		.loc 1 45 9 is_stmt 1 discriminator 1
 393              		.loc 1 45 20 is_stmt 0 discriminator 1
 394 0234 17050000 		lla	a0,.LC5
GAS LISTING /tmp/ccbgESRe.s 			page 10


 394      13050500 
 395 023c 97000000 		call	_Z11printStringPKc@plt
 395      E7800000 
 396              	.LVL41:
 397              		.loc 1 45 31 is_stmt 1 discriminator 1
 398              		.loc 1 45 39 is_stmt 0 discriminator 1
 399 0244 13060000 		li	a2,0
 400 0248 9305A000 		li	a1,10
 401 024c 13850400 		mv	a0,s1
 402 0250 97000000 		call	_Z8printIntiii@plt
 402      E7800000 
 403              	.LVL42:
 404              		.loc 1 45 44 is_stmt 1 discriminator 1
 405              		.loc 1 45 55 is_stmt 0 discriminator 1
 406 0258 17050000 		lla	a0,.LC1
 406      13050500 
 407 0260 97000000 		call	_Z11printStringPKc@plt
 407      E7800000 
 408              	.LVL43:
  44:test/Threads_C_API_test.hpp ****     for (; i < 3; i++) {
 409              		.loc 1 44 5 is_stmt 1 discriminator 1
 410 0268 9B841400 		addiw	s1,s1,1
 411              	.LVL44:
 412 026c 93F4F40F 		andi	s1,s1,0xff
 413              	.LVL45:
 414              	.L25:
  44:test/Threads_C_API_test.hpp ****     for (; i < 3; i++) {
 415              		.loc 1 44 5 discriminator 2
  44:test/Threads_C_API_test.hpp ****     for (; i < 3; i++) {
 416              		.loc 1 44 14 discriminator 2
 417 0270 93072000 		li	a5,2
 418 0274 E3F097FC 		bleu	s1,a5,.L29
  46:test/Threads_C_API_test.hpp ****     }
  47:test/Threads_C_API_test.hpp **** 
  48:test/Threads_C_API_test.hpp ****     printString("C: dispatch\n");
 419              		.loc 1 48 5
 420              		.loc 1 48 16 is_stmt 0
 421 0278 17050000 		lla	a0,.LC6
 421      13050500 
 422 0280 97000000 		call	_Z11printStringPKc@plt
 422      E7800000 
 423              	.LVL46:
  49:test/Threads_C_API_test.hpp ****     __asm__ ("li t1, 7");
 424              		.loc 1 49 5 is_stmt 1
 425              		.loc 1 49 25 is_stmt 0
 426              	#APP
 427              	# 49 "test/Threads_C_API_test.hpp" 1
  50              	    thread_dispatch();
 428              		li t1, 7
 429              	# 0 "" 2
 430              		.loc 1 50 5 is_stmt 1
 431              		.loc 1 50 20 is_stmt 0
 432              	#NO_APP
 433 028c 97000000 		call	_Z15thread_dispatchv@plt
 433      E7800000 
 434              	.LVL47:
  51:test/Threads_C_API_test.hpp **** 
GAS LISTING /tmp/ccbgESRe.s 			page 11


  52:test/Threads_C_API_test.hpp ****     uint64 t1 = 0;
 435              		.loc 1 52 5 is_stmt 1
  53:test/Threads_C_API_test.hpp ****     __asm__ ("mv %[t1], t1" : [t1] "=r"(t1));
 436              		.loc 1 53 5
 437              		.loc 1 53 45 is_stmt 0
 438              	#APP
 439              	# 53 "test/Threads_C_API_test.hpp" 1
  54              	
 440              		mv s2, t1
 441              	# 0 "" 2
 442              	.LVL48:
  55:test/Threads_C_API_test.hpp ****     printString("C: t1="); printInt(t1); printString("\n");
 443              		.loc 1 55 5 is_stmt 1
 444              		.loc 1 55 16 is_stmt 0
 445              	#NO_APP
 446 0298 17050000 		lla	a0,.LC7
 446      13050500 
 447 02a0 97000000 		call	_Z11printStringPKc@plt
 447      E7800000 
 448              	.LVL49:
 449              		.loc 1 55 28 is_stmt 1
 450              		.loc 1 55 36 is_stmt 0
 451 02a8 13060000 		li	a2,0
 452 02ac 9305A000 		li	a1,10
 453 02b0 1B050900 		sext.w	a0,s2
 454 02b4 97000000 		call	_Z8printIntiii@plt
 454      E7800000 
 455              	.LVL50:
 456              		.loc 1 55 42 is_stmt 1
 457              		.loc 1 55 53 is_stmt 0
 458 02bc 17050000 		lla	a0,.LC1
 458      13050500 
 459 02c4 97000000 		call	_Z11printStringPKc@plt
 459      E7800000 
 460              	.LVL51:
  56:test/Threads_C_API_test.hpp **** 
  57:test/Threads_C_API_test.hpp ****     uint64 result = fibonacci(12);
 461              		.loc 1 57 5 is_stmt 1
 462              		.loc 1 57 30 is_stmt 0
 463 02cc 1305C000 		li	a0,12
 464 02d0 97000000 		call	_Z9fibonaccim
 464      E7800000 
 465              	.LVL52:
 466 02d8 13090500 		mv	s2,a0
 467              	.LVL53:
  58:test/Threads_C_API_test.hpp ****     printString("C: fibonaci="); printInt(result); printString("\n");
 468              		.loc 1 58 5 is_stmt 1
 469              		.loc 1 58 16 is_stmt 0
 470 02dc 17050000 		lla	a0,.LC8
 470      13050500 
 471              	.LVL54:
 472 02e4 97000000 		call	_Z11printStringPKc@plt
 472      E7800000 
 473              	.LVL55:
 474              		.loc 1 58 34 is_stmt 1
 475              		.loc 1 58 42 is_stmt 0
 476 02ec 13060000 		li	a2,0
GAS LISTING /tmp/ccbgESRe.s 			page 12


 477 02f0 9305A000 		li	a1,10
 478 02f4 1B050900 		sext.w	a0,s2
 479 02f8 97000000 		call	_Z8printIntiii@plt
 479      E7800000 
 480              	.LVL56:
 481              		.loc 1 58 52 is_stmt 1
 482              		.loc 1 58 63 is_stmt 0
 483 0300 17050000 		lla	a0,.LC1
 483      13050500 
 484 0308 97000000 		call	_Z11printStringPKc@plt
 484      E7800000 
 485              	.LVL57:
 486 0310 6F000004 		j	.L27
 487              	.L30:
  59:test/Threads_C_API_test.hpp **** 
  60:test/Threads_C_API_test.hpp ****     for (; i < 6; i++) {
  61:test/Threads_C_API_test.hpp ****         printString("C: i="); printInt(i); printString("\n");
 488              		.loc 1 61 9 is_stmt 1 discriminator 1
 489              		.loc 1 61 20 is_stmt 0 discriminator 1
 490 0314 17050000 		lla	a0,.LC5
 490      13050500 
 491 031c 97000000 		call	_Z11printStringPKc@plt
 491      E7800000 
 492              	.LVL58:
 493              		.loc 1 61 31 is_stmt 1 discriminator 1
 494              		.loc 1 61 39 is_stmt 0 discriminator 1
 495 0324 13060000 		li	a2,0
 496 0328 9305A000 		li	a1,10
 497 032c 13850400 		mv	a0,s1
 498 0330 97000000 		call	_Z8printIntiii@plt
 498      E7800000 
 499              	.LVL59:
 500              		.loc 1 61 44 is_stmt 1 discriminator 1
 501              		.loc 1 61 55 is_stmt 0 discriminator 1
 502 0338 17050000 		lla	a0,.LC1
 502      13050500 
 503 0340 97000000 		call	_Z11printStringPKc@plt
 503      E7800000 
 504              	.LVL60:
  60:test/Threads_C_API_test.hpp ****         printString("C: i="); printInt(i); printString("\n");
 505              		.loc 1 60 5 is_stmt 1 discriminator 1
 506 0348 9B841400 		addiw	s1,s1,1
 507              	.LVL61:
 508 034c 93F4F40F 		andi	s1,s1,0xff
 509              	.LVL62:
 510              	.L27:
  60:test/Threads_C_API_test.hpp ****         printString("C: i="); printInt(i); printString("\n");
 511              		.loc 1 60 5 discriminator 2
  60:test/Threads_C_API_test.hpp ****         printString("C: i="); printInt(i); printString("\n");
 512              		.loc 1 60 14 discriminator 2
 513 0350 93075000 		li	a5,5
 514 0354 E3F097FC 		bleu	s1,a5,.L30
  62:test/Threads_C_API_test.hpp ****     }
  63:test/Threads_C_API_test.hpp **** 
  64:test/Threads_C_API_test.hpp ****     thread_dispatch();
 515              		.loc 1 64 5
 516              		.loc 1 64 20 is_stmt 0
GAS LISTING /tmp/ccbgESRe.s 			page 13


 517 0358 97000000 		call	_Z15thread_dispatchv@plt
 517      E7800000 
 518              	.LVL63:
  65:test/Threads_C_API_test.hpp ****     printString("A finished!\n");
 519              		.loc 1 65 5 is_stmt 1
 520              		.loc 1 65 16 is_stmt 0
 521 0360 17050000 		lla	a0,.LC2
 521      13050500 
 522 0368 97000000 		call	_Z11printStringPKc@plt
 522      E7800000 
 523              	.LVL64:
  66:test/Threads_C_API_test.hpp ****     finishedC = true;
 524              		.loc 1 66 5 is_stmt 1
 525              		.loc 1 66 15 is_stmt 0
 526 0370 93071000 		li	a5,1
 527 0374 17070000 		sb	a5,.LANCHOR0+2,a4
 527      2300F700 
  67:test/Threads_C_API_test.hpp **** }
 528              		.loc 1 67 1
 529 037c 83308101 		ld	ra,24(sp)
 530              		.cfi_restore 1
 531 0380 03340101 		ld	s0,16(sp)
 532              		.cfi_restore 8
 533              		.cfi_def_cfa 2, 32
 534 0384 83348100 		ld	s1,8(sp)
 535              		.cfi_restore 9
 536              	.LVL65:
 537 0388 03390100 		ld	s2,0(sp)
 538              		.cfi_restore 18
 539              	.LVL66:
 540 038c 13010102 		addi	sp,sp,32
 541              		.cfi_def_cfa_offset 0
 542 0390 67800000 		jr	ra
 543              		.cfi_endproc
 544              	.LFE3:
 546              		.section	.rodata.str1.8
 547 0065 000000   		.align	3
 548              	.LC9:
 549 0068 443A2069 		.string	"D: i="
 549      3D00
 550 006e 0000     		.align	3
 551              	.LC10:
 552 0070 443A2064 		.string	"D: dispatch\n"
 552      69737061 
 552      7463680A 
 552      00
 553 007d 000000   		.align	3
 554              	.LC11:
 555 0080 443A2066 		.string	"D: fibonaci="
 555      69626F6E 
 555      6163693D 
 555      00
 556 008d 000000   		.align	3
 557              	.LC12:
 558 0090 44206669 		.string	"D finished!\n"
 558      6E697368 
 558      6564210A 
GAS LISTING /tmp/ccbgESRe.s 			page 14


 558      00
 559              		.text
 560              		.align	2
 561              		.globl	_Z11workerBodyDPv
 563              	_Z11workerBodyDPv:
 564              	.LFB4:
  68:test/Threads_C_API_test.hpp **** 
  69:test/Threads_C_API_test.hpp **** void workerBodyD(void* arg) {
 565              		.loc 1 69 29 is_stmt 1
 566              		.cfi_startproc
 567              	.LVL67:
 568 0394 130101FE 		addi	sp,sp,-32
 569              		.cfi_def_cfa_offset 32
 570 0398 233C1100 		sd	ra,24(sp)
 571 039c 23388100 		sd	s0,16(sp)
 572 03a0 23349100 		sd	s1,8(sp)
 573 03a4 23302101 		sd	s2,0(sp)
 574              		.cfi_offset 1, -8
 575              		.cfi_offset 8, -16
 576              		.cfi_offset 9, -24
 577              		.cfi_offset 18, -32
 578 03a8 13040102 		addi	s0,sp,32
 579              		.cfi_def_cfa 8, 0
  70:test/Threads_C_API_test.hpp ****     uint8 i = 10;
 580              		.loc 1 70 5
 581              	.LVL68:
 582              		.loc 1 70 11 is_stmt 0
 583 03ac 9304A000 		li	s1,10
 584 03b0 6F000004 		j	.L33
 585              	.LVL69:
 586              	.L37:
  71:test/Threads_C_API_test.hpp ****     for (; i < 13; i++) {
  72:test/Threads_C_API_test.hpp ****         printString("D: i="); printInt(i); printString("\n");
 587              		.loc 1 72 9 is_stmt 1 discriminator 1
 588              		.loc 1 72 20 is_stmt 0 discriminator 1
 589 03b4 17050000 		lla	a0,.LC9
 589      13050500 
 590 03bc 97000000 		call	_Z11printStringPKc@plt
 590      E7800000 
 591              	.LVL70:
 592              		.loc 1 72 31 is_stmt 1 discriminator 1
 593              		.loc 1 72 39 is_stmt 0 discriminator 1
 594 03c4 13060000 		li	a2,0
 595 03c8 9305A000 		li	a1,10
 596 03cc 13850400 		mv	a0,s1
 597 03d0 97000000 		call	_Z8printIntiii@plt
 597      E7800000 
 598              	.LVL71:
 599              		.loc 1 72 44 is_stmt 1 discriminator 1
 600              		.loc 1 72 55 is_stmt 0 discriminator 1
 601 03d8 17050000 		lla	a0,.LC1
 601      13050500 
 602 03e0 97000000 		call	_Z11printStringPKc@plt
 602      E7800000 
 603              	.LVL72:
  71:test/Threads_C_API_test.hpp ****     for (; i < 13; i++) {
 604              		.loc 1 71 5 is_stmt 1 discriminator 1
GAS LISTING /tmp/ccbgESRe.s 			page 15


 605 03e8 9B841400 		addiw	s1,s1,1
 606              	.LVL73:
 607 03ec 93F4F40F 		andi	s1,s1,0xff
 608              	.LVL74:
 609              	.L33:
  71:test/Threads_C_API_test.hpp ****     for (; i < 13; i++) {
 610              		.loc 1 71 5 discriminator 2
  71:test/Threads_C_API_test.hpp ****     for (; i < 13; i++) {
 611              		.loc 1 71 14 discriminator 2
 612 03f0 9307C000 		li	a5,12
 613 03f4 E3F097FC 		bleu	s1,a5,.L37
  73:test/Threads_C_API_test.hpp ****     }
  74:test/Threads_C_API_test.hpp **** 
  75:test/Threads_C_API_test.hpp ****     printString("D: dispatch\n");
 614              		.loc 1 75 5
 615              		.loc 1 75 16 is_stmt 0
 616 03f8 17050000 		lla	a0,.LC10
 616      13050500 
 617 0400 97000000 		call	_Z11printStringPKc@plt
 617      E7800000 
 618              	.LVL75:
  76:test/Threads_C_API_test.hpp ****     __asm__ ("li t1, 5");
 619              		.loc 1 76 5 is_stmt 1
 620              		.loc 1 76 25 is_stmt 0
 621              	#APP
 622              	# 76 "test/Threads_C_API_test.hpp" 1
  77              	    thread_dispatch();
 623              		li t1, 5
 624              	# 0 "" 2
 625              		.loc 1 77 5 is_stmt 1
 626              		.loc 1 77 20 is_stmt 0
 627              	#NO_APP
 628 040c 97000000 		call	_Z15thread_dispatchv@plt
 628      E7800000 
 629              	.LVL76:
  78:test/Threads_C_API_test.hpp **** 
  79:test/Threads_C_API_test.hpp ****     uint64 result = fibonacci(16);
 630              		.loc 1 79 5 is_stmt 1
 631              		.loc 1 79 30 is_stmt 0
 632 0414 13050001 		li	a0,16
 633 0418 97000000 		call	_Z9fibonaccim
 633      E7800000 
 634              	.LVL77:
 635 0420 13090500 		mv	s2,a0
 636              	.LVL78:
  80:test/Threads_C_API_test.hpp ****     printString("D: fibonaci="); printInt(result); printString("\n");
 637              		.loc 1 80 5 is_stmt 1
 638              		.loc 1 80 16 is_stmt 0
 639 0424 17050000 		lla	a0,.LC11
 639      13050500 
 640              	.LVL79:
 641 042c 97000000 		call	_Z11printStringPKc@plt
 641      E7800000 
 642              	.LVL80:
 643              		.loc 1 80 34 is_stmt 1
 644              		.loc 1 80 42 is_stmt 0
 645 0434 13060000 		li	a2,0
GAS LISTING /tmp/ccbgESRe.s 			page 16


 646 0438 9305A000 		li	a1,10
 647 043c 1B050900 		sext.w	a0,s2
 648 0440 97000000 		call	_Z8printIntiii@plt
 648      E7800000 
 649              	.LVL81:
 650              		.loc 1 80 52 is_stmt 1
 651              		.loc 1 80 63 is_stmt 0
 652 0448 17050000 		lla	a0,.LC1
 652      13050500 
 653 0450 97000000 		call	_Z11printStringPKc@plt
 653      E7800000 
 654              	.LVL82:
 655 0458 6F000004 		j	.L35
 656              	.L38:
  81:test/Threads_C_API_test.hpp **** 
  82:test/Threads_C_API_test.hpp ****     for (; i < 16; i++) {
  83:test/Threads_C_API_test.hpp ****         printString("D: i="); printInt(i); printString("\n");
 657              		.loc 1 83 9 is_stmt 1 discriminator 1
 658              		.loc 1 83 20 is_stmt 0 discriminator 1
 659 045c 17050000 		lla	a0,.LC9
 659      13050500 
 660 0464 97000000 		call	_Z11printStringPKc@plt
 660      E7800000 
 661              	.LVL83:
 662              		.loc 1 83 31 is_stmt 1 discriminator 1
 663              		.loc 1 83 39 is_stmt 0 discriminator 1
 664 046c 13060000 		li	a2,0
 665 0470 9305A000 		li	a1,10
 666 0474 13850400 		mv	a0,s1
 667 0478 97000000 		call	_Z8printIntiii@plt
 667      E7800000 
 668              	.LVL84:
 669              		.loc 1 83 44 is_stmt 1 discriminator 1
 670              		.loc 1 83 55 is_stmt 0 discriminator 1
 671 0480 17050000 		lla	a0,.LC1
 671      13050500 
 672 0488 97000000 		call	_Z11printStringPKc@plt
 672      E7800000 
 673              	.LVL85:
  82:test/Threads_C_API_test.hpp ****         printString("D: i="); printInt(i); printString("\n");
 674              		.loc 1 82 5 is_stmt 1 discriminator 1
 675 0490 9B841400 		addiw	s1,s1,1
 676              	.LVL86:
 677 0494 93F4F40F 		andi	s1,s1,0xff
 678              	.LVL87:
 679              	.L35:
  82:test/Threads_C_API_test.hpp ****         printString("D: i="); printInt(i); printString("\n");
 680              		.loc 1 82 5 discriminator 2
  82:test/Threads_C_API_test.hpp ****         printString("D: i="); printInt(i); printString("\n");
 681              		.loc 1 82 14 discriminator 2
 682 0498 9307F000 		li	a5,15
 683 049c E3F097FC 		bleu	s1,a5,.L38
  84:test/Threads_C_API_test.hpp ****     }
  85:test/Threads_C_API_test.hpp **** 
  86:test/Threads_C_API_test.hpp ****     thread_dispatch();
 684              		.loc 1 86 5
 685              		.loc 1 86 20 is_stmt 0
GAS LISTING /tmp/ccbgESRe.s 			page 17


 686 04a0 97000000 		call	_Z15thread_dispatchv@plt
 686      E7800000 
 687              	.LVL88:
  87:test/Threads_C_API_test.hpp ****     printString("D finished!\n");
 688              		.loc 1 87 5 is_stmt 1
 689              		.loc 1 87 16 is_stmt 0
 690 04a8 17050000 		lla	a0,.LC12
 690      13050500 
 691 04b0 97000000 		call	_Z11printStringPKc@plt
 691      E7800000 
 692              	.LVL89:
  88:test/Threads_C_API_test.hpp ****     finishedD = true;
 693              		.loc 1 88 5 is_stmt 1
 694              		.loc 1 88 15 is_stmt 0
 695 04b8 93071000 		li	a5,1
 696 04bc 17070000 		sb	a5,.LANCHOR0+3,a4
 696      2300F700 
  89:test/Threads_C_API_test.hpp **** }
 697              		.loc 1 89 1
 698 04c4 83308101 		ld	ra,24(sp)
 699              		.cfi_restore 1
 700 04c8 03340101 		ld	s0,16(sp)
 701              		.cfi_restore 8
 702              		.cfi_def_cfa 2, 32
 703 04cc 83348100 		ld	s1,8(sp)
 704              		.cfi_restore 9
 705              	.LVL90:
 706 04d0 03390100 		ld	s2,0(sp)
 707              		.cfi_restore 18
 708              	.LVL91:
 709 04d4 13010102 		addi	sp,sp,32
 710              		.cfi_def_cfa_offset 0
 711 04d8 67800000 		jr	ra
 712              		.cfi_endproc
 713              	.LFE4:
 715              		.section	.rodata.str1.8
 716 009d 000000   		.align	3
 717              	.LC13:
 718 00a0 54687265 		.string	"ThreadA created\n"
 718      61644120 
 718      63726561 
 718      7465640A 
 718      00
 719 00b1 00000000 		.align	3
 719      000000
 720              	.LC14:
 721 00b8 54687265 		.string	"ThreadB created\n"
 721      61644220 
 721      63726561 
 721      7465640A 
 721      00
 722 00c9 00000000 		.align	3
 722      000000
 723              	.LC15:
 724 00d0 54687265 		.string	"ThreadC created\n"
 724      61644320 
 724      63726561 
GAS LISTING /tmp/ccbgESRe.s 			page 18


 724      7465640A 
 724      00
 725 00e1 00000000 		.align	3
 725      000000
 726              	.LC16:
 727 00e8 54687265 		.string	"ThreadD created\n"
 727      61644420 
 727      63726561 
 727      7465640A 
 727      00
 728              		.text
 729              		.align	2
 730              		.globl	_Z18Threads_C_API_testv
 732              	_Z18Threads_C_API_testv:
 733              	.LFB5:
  90:test/Threads_C_API_test.hpp **** 
  91:test/Threads_C_API_test.hpp **** 
  92:test/Threads_C_API_test.hpp **** void Threads_C_API_test() {
 734              		.loc 1 92 27 is_stmt 1
 735              		.cfi_startproc
 736 04dc 130101FC 		addi	sp,sp,-64
 737              		.cfi_def_cfa_offset 64
 738 04e0 233C1102 		sd	ra,56(sp)
 739 04e4 23388102 		sd	s0,48(sp)
 740 04e8 23349102 		sd	s1,40(sp)
 741              		.cfi_offset 1, -8
 742              		.cfi_offset 8, -16
 743              		.cfi_offset 9, -24
 744 04ec 13040104 		addi	s0,sp,64
 745              		.cfi_def_cfa 8, 0
  93:test/Threads_C_API_test.hpp ****     thread_t threads[4];
 746              		.loc 1 93 5
  94:test/Threads_C_API_test.hpp ****     thread_create(&threads[0], workerBodyA, nullptr);
 747              		.loc 1 94 5
 748              		.loc 1 94 18 is_stmt 0
 749 04f0 13060000 		li	a2,0
 750 04f4 97050000 		lla	a1,_Z11workerBodyAPv
 750      93850500 
 751 04fc 130504FC 		addi	a0,s0,-64
 752 0500 97000000 		call	_Z13thread_createPP7_threadPFvPvES2_@plt
 752      E7800000 
 753              	.LVL92:
  95:test/Threads_C_API_test.hpp ****     printString("ThreadA created\n");
 754              		.loc 1 95 5 is_stmt 1
 755              		.loc 1 95 16 is_stmt 0
 756 0508 17050000 		lla	a0,.LC13
 756      13050500 
 757 0510 97000000 		call	_Z11printStringPKc@plt
 757      E7800000 
 758              	.LVL93:
  96:test/Threads_C_API_test.hpp **** 
  97:test/Threads_C_API_test.hpp ****     thread_create(&threads[1], workerBodyB, nullptr);
 759              		.loc 1 97 5 is_stmt 1
 760              		.loc 1 97 18 is_stmt 0
 761 0518 13060000 		li	a2,0
 762 051c 97050000 		lla	a1,_Z11workerBodyBPv
 762      93850500 
GAS LISTING /tmp/ccbgESRe.s 			page 19


 763 0524 130584FC 		addi	a0,s0,-56
 764 0528 97000000 		call	_Z13thread_createPP7_threadPFvPvES2_@plt
 764      E7800000 
 765              	.LVL94:
  98:test/Threads_C_API_test.hpp ****     printString("ThreadB created\n");
 766              		.loc 1 98 5 is_stmt 1
 767              		.loc 1 98 16 is_stmt 0
 768 0530 17050000 		lla	a0,.LC14
 768      13050500 
 769 0538 97000000 		call	_Z11printStringPKc@plt
 769      E7800000 
 770              	.LVL95:
  99:test/Threads_C_API_test.hpp **** 
 100:test/Threads_C_API_test.hpp ****     thread_create(&threads[2], workerBodyC, nullptr);
 771              		.loc 1 100 5 is_stmt 1
 772              		.loc 1 100 18 is_stmt 0
 773 0540 13060000 		li	a2,0
 774 0544 97050000 		lla	a1,_Z11workerBodyCPv
 774      93850500 
 775 054c 130504FD 		addi	a0,s0,-48
 776 0550 97000000 		call	_Z13thread_createPP7_threadPFvPvES2_@plt
 776      E7800000 
 777              	.LVL96:
 101:test/Threads_C_API_test.hpp ****     printString("ThreadC created\n");
 778              		.loc 1 101 5 is_stmt 1
 779              		.loc 1 101 16 is_stmt 0
 780 0558 17050000 		lla	a0,.LC15
 780      13050500 
 781 0560 97000000 		call	_Z11printStringPKc@plt
 781      E7800000 
 782              	.LVL97:
 102:test/Threads_C_API_test.hpp **** 
 103:test/Threads_C_API_test.hpp ****     thread_create(&threads[3], workerBodyD, nullptr);
 783              		.loc 1 103 5 is_stmt 1
 784              		.loc 1 103 18 is_stmt 0
 785 0568 13060000 		li	a2,0
 786 056c 97050000 		lla	a1,_Z11workerBodyDPv
 786      93850500 
 787 0574 130584FD 		addi	a0,s0,-40
 788 0578 97000000 		call	_Z13thread_createPP7_threadPFvPvES2_@plt
 788      E7800000 
 789              	.LVL98:
 104:test/Threads_C_API_test.hpp ****     printString("ThreadD created\n");
 790              		.loc 1 104 5 is_stmt 1
 791              		.loc 1 104 16 is_stmt 0
 792 0580 17050000 		lla	a0,.LC16
 792      13050500 
 793 0588 97000000 		call	_Z11printStringPKc@plt
 793      E7800000 
 794              	.LVL99:
 795 0590 6F00C000 		j	.L42
 796              	.L40:
 105:test/Threads_C_API_test.hpp **** 
 106:test/Threads_C_API_test.hpp ****     while (!(finishedA && finishedB && finishedC && finishedD)) {
 107:test/Threads_C_API_test.hpp ****         thread_dispatch();
 797              		.loc 1 107 9 is_stmt 1
 798              		.loc 1 107 24 is_stmt 0
GAS LISTING /tmp/ccbgESRe.s 			page 20


 799 0594 97000000 		call	_Z15thread_dispatchv@plt
 799      E7800000 
 800              	.LVL100:
 801              	.L42:
 106:test/Threads_C_API_test.hpp ****         thread_dispatch();
 802              		.loc 1 106 5 is_stmt 1
 106:test/Threads_C_API_test.hpp ****         thread_dispatch();
 803              		.loc 1 106 12
 804 059c 97070000 		lbu	a5,.LANCHOR0
 804      83C70700 
 805 05a4 E38807FE 		beqz	a5,.L40
 106:test/Threads_C_API_test.hpp ****         thread_dispatch();
 806              		.loc 1 106 24 is_stmt 0 discriminator 1
 807 05a8 97070000 		lbu	a5,.LANCHOR0+1
 807      83C70700 
 808 05b0 E38207FE 		beqz	a5,.L40
 106:test/Threads_C_API_test.hpp ****         thread_dispatch();
 809              		.loc 1 106 37 discriminator 2
 810 05b4 97070000 		lbu	a5,.LANCHOR0+2
 810      83C70700 
 811 05bc E38C07FC 		beqz	a5,.L40
 106:test/Threads_C_API_test.hpp ****         thread_dispatch();
 812              		.loc 1 106 12 discriminator 3
 813 05c0 97070000 		lbu	a5,.LANCHOR0+3
 813      83C70700 
 814 05c8 E38607FC 		beqz	a5,.L40
 815              	.LBB18:
 108:test/Threads_C_API_test.hpp ****     }
 109:test/Threads_C_API_test.hpp **** 
 110:test/Threads_C_API_test.hpp ****     for (auto &thread: threads) { delete thread; }
 816              		.loc 1 110 24
 817 05cc 930404FC 		addi	s1,s0,-64
 818 05d0 6F008000 		j	.L41
 819              	.LVL101:
 820              	.L44:
 821              		.loc 1 110 5 is_stmt 1 discriminator 4
 822 05d4 93848400 		addi	s1,s1,8
 823              	.LVL102:
 824              	.L41:
 825              		.loc 1 110 24 discriminator 5
 826 05d8 930704FE 		addi	a5,s0,-32
 827 05dc 638CF400 		beq	s1,a5,.L39
 828              	.LVL103:
 829              		.loc 1 110 35 discriminator 2
 830              		.loc 1 110 42 is_stmt 0 discriminator 2
 831 05e0 03B50400 		ld	a0,0(s1)
 832              		.loc 1 110 48 discriminator 2
 833 05e4 E30805FE 		beqz	a0,.L44
 834              		.loc 1 110 42 discriminator 3
 835 05e8 97000000 		call	_ZN7_threaddlEPv@plt
 835      E7800000 
 836              	.LVL104:
 837 05f0 6FF05FFE 		j	.L44
 838              	.LVL105:
 839              	.L39:
 840              	.LBE18:
 111:test/Threads_C_API_test.hpp **** }
GAS LISTING /tmp/ccbgESRe.s 			page 21


 841              		.loc 1 111 1
 842 05f4 83308103 		ld	ra,56(sp)
 843              		.cfi_restore 1
 844 05f8 03340103 		ld	s0,48(sp)
 845              		.cfi_restore 8
 846              		.cfi_def_cfa 2, 64
 847 05fc 83348102 		ld	s1,40(sp)
 848              		.cfi_restore 9
 849              	.LVL106:
 850 0600 13010104 		addi	sp,sp,64
 851              		.cfi_def_cfa_offset 0
 852 0604 67800000 		jr	ra
 853              		.cfi_endproc
 854              	.LFE5:
 856              		.align	2
 857              		.globl	_Z8userMainv
 859              	_Z8userMainv:
 860              	.LFB6:
 861              		.file 2 "test/userMain.cpp"
   1:test/userMain.cpp **** //
   2:test/userMain.cpp **** // Created by os on 5/16/22.
   3:test/userMain.cpp **** //
   4:test/userMain.cpp **** 
   5:test/userMain.cpp **** #include "userMain.hpp"
   6:test/userMain.cpp **** #include "Threads_C_API_test.hpp" // zadatak 2, niti C API i sinhrona promena konteksta
   7:test/userMain.cpp **** //#include "Threads_CPP_API_test.hpp" // zadatak 2., niti CPP API i sinhrona promena konteksta
   8:test/userMain.cpp **** 
   9:test/userMain.cpp **** //#include "ConsumerProducer_C_API_test.hpp" // zadatak 3., kompletan C API sa semaforima, sinhrona
  10:test/userMain.cpp **** //#include "ConsumerProducer_CPP_Sync_API_test.hpp" // zadatak 3., kompletan CPP API sa semaforima,
  11:test/userMain.cpp **** 
  12:test/userMain.cpp **** //#include "ThreadSleep_C_API_test.hpp" // thread_sleep test C API
  13:test/userMain.cpp **** //#include "ConsumerProducer_CPP_API_test.hpp" // zadatak 4. CPP API i asinhrona promena konteksta
  14:test/userMain.cpp **** 
  15:test/userMain.cpp **** void userMain()
  16:test/userMain.cpp **** {
 862              		.loc 2 16 1 is_stmt 1
 863              		.cfi_startproc
 864 0608 130101FF 		addi	sp,sp,-16
 865              		.cfi_def_cfa_offset 16
 866 060c 23341100 		sd	ra,8(sp)
 867 0610 23308100 		sd	s0,0(sp)
 868              		.cfi_offset 1, -8
 869              		.cfi_offset 8, -16
 870 0614 13040101 		addi	s0,sp,16
 871              		.cfi_def_cfa 8, 0
  17:test/userMain.cpp ****     //__asm__ volatile("csrr a0, sstatus");
  18:test/userMain.cpp ****     Threads_C_API_test(); // zadatak 2., niti C API i sinhrona promena konteksta
 872              		.loc 2 18 5
 873              		.loc 2 18 23 is_stmt 0
 874 0618 97000000 		call	_Z18Threads_C_API_testv
 874      E7800000 
 875              	.LVL107:
  19:test/userMain.cpp ****     //Threads_CPP_API_test(); // zadatak 2., niti CPP API i sinhrona promena konteksta
  20:test/userMain.cpp **** 
  21:test/userMain.cpp ****     //producerConsumer_C_API(); // zadatak 3., kompletan C API sa semaforima, sinhrona promena kont
  22:test/userMain.cpp ****     //producerConsumer_CPP_Sync_API(); // zadatak 3., kompletan CPP API sa semaforima, sinhrona pro
  23:test/userMain.cpp **** 
GAS LISTING /tmp/ccbgESRe.s 			page 22


  24:test/userMain.cpp ****     //testSleeping(); // thread_sleep test C API
  25:test/userMain.cpp ****     //ConsumerProducerCPP::testConsumerProducer(); // zadatak 4. CPP API i asinhrona promena kontek
  26:test/userMain.cpp **** }...
 876              		.loc 2 26 1
 877 0620 83308100 		ld	ra,8(sp)
 878              		.cfi_restore 1
 879 0624 03340100 		ld	s0,0(sp)
 880              		.cfi_restore 8
 881              		.cfi_def_cfa 2, 16
 882 0628 13010101 		addi	sp,sp,16
 883              		.cfi_def_cfa_offset 0
 884 062c 67800000 		jr	ra
 885              		.cfi_endproc
 886              	.LFE6:
 888              		.globl	finishedD
 889              		.globl	finishedC
 890              		.globl	finishedB
 891              		.globl	finishedA
 892              		.bss
 893              		.set	.LANCHOR0,. + 0
 896              	finishedA:
 897 0000 00       		.zero	1
 900              	finishedB:
 901 0001 00       		.zero	1
 904              	finishedC:
 905 0002 00       		.zero	1
 908              	finishedD:
 909 0003 00       		.zero	1
 910              		.text
 911              	.Letext0:
 912              		.file 3 "test/../h/../lib/hw.h"
 913              		.file 4 "test/../h/syscall_c.hpp"
 914              		.file 5 "test/printing.hpp"
 915              		.file 6 "test/../h/_thread.hpp"
GAS LISTING /tmp/ccbgESRe.s 			page 23


DEFINED SYMBOLS
                            *ABS*:0000000000000000 userMain.cpp
     /tmp/ccbgESRe.s:20     .text:0000000000000000 _Z11workerBodyAPv
     /tmp/ccbgESRe.s:24     .text:0000000000000000 .L0 
     /tmp/ccbgESRe.s:26     .text:0000000000000000 .L0 
     /tmp/ccbgESRe.s:27     .text:0000000000000004 .L0 
     /tmp/ccbgESRe.s:32     .text:0000000000000014 .L0 
     /tmp/ccbgESRe.s:33     .text:0000000000000014 .L0 
     /tmp/ccbgESRe.s:34     .text:0000000000000014 .L0 
     /tmp/ccbgESRe.s:35     .text:0000000000000014 .L0 
     /tmp/ccbgESRe.s:37     .text:0000000000000018 .L0 
     /tmp/ccbgESRe.s:41     .text:0000000000000018 .L0 
     /tmp/ccbgESRe.s:42     .text:0000000000000018 .L0 
     /tmp/ccbgESRe.s:50     .text:0000000000000020 .L0 
     /tmp/ccbgESRe.s:51     .text:0000000000000020 .L0 
     /tmp/ccbgESRe.s:55     .text:0000000000000028 .L0 
     /tmp/ccbgESRe.s:59     .text:000000000000002c .L0 
     /tmp/ccbgESRe.s:65     .text:0000000000000038 .L0 
     /tmp/ccbgESRe.s:69     .text:000000000000003c .L0 
     /tmp/ccbgESRe.s:73     .text:0000000000000048 .L0 
     /tmp/ccbgESRe.s:83     .text:0000000000000050 .L0 
     /tmp/ccbgESRe.s:87     .text:0000000000000054 .L0 
     /tmp/ccbgESRe.s:91     .text:000000000000005c .L0 
     /tmp/ccbgESRe.s:92     .text:000000000000005c .L0 
     /tmp/ccbgESRe.s:96     .text:000000000000006c .L0 
     /tmp/ccbgESRe.s:97     .text:000000000000006c .L0 
     /tmp/ccbgESRe.s:103    .text:0000000000000080 .L0 
     /tmp/ccbgESRe.s:104    .text:0000000000000080 .L0 
     /tmp/ccbgESRe.s:109    .text:0000000000000090 .L0 
     /tmp/ccbgESRe.s:110    .text:0000000000000090 .L0 
     /tmp/ccbgESRe.s:118    .text:0000000000000098 .L0 
     /tmp/ccbgESRe.s:119    .text:0000000000000098 .L0 
     /tmp/ccbgESRe.s:123    .text:00000000000000a8 .L0 
     /tmp/ccbgESRe.s:124    .text:00000000000000a8 .L0 
     /tmp/ccbgESRe.s:127    .text:00000000000000b4 .L0 
     /tmp/ccbgESRe.s:128    .text:00000000000000b8 .L0 
     /tmp/ccbgESRe.s:130    .text:00000000000000bc .L0 
     /tmp/ccbgESRe.s:131    .text:00000000000000bc .L0 
     /tmp/ccbgESRe.s:133    .text:00000000000000c0 .L0 
     /tmp/ccbgESRe.s:135    .text:00000000000000c4 .L0 
     /tmp/ccbgESRe.s:138    .text:00000000000000c8 .L0 
     /tmp/ccbgESRe.s:140    .text:00000000000000cc .L0 
     /tmp/ccbgESRe.s:154    .text:00000000000000cc _Z11workerBodyBPv
     /tmp/ccbgESRe.s:157    .text:00000000000000cc .L0 
     /tmp/ccbgESRe.s:159    .text:00000000000000cc .L0 
     /tmp/ccbgESRe.s:160    .text:00000000000000d0 .L0 
     /tmp/ccbgESRe.s:165    .text:00000000000000e0 .L0 
     /tmp/ccbgESRe.s:166    .text:00000000000000e0 .L0 
     /tmp/ccbgESRe.s:167    .text:00000000000000e0 .L0 
     /tmp/ccbgESRe.s:168    .text:00000000000000e0 .L0 
     /tmp/ccbgESRe.s:170    .text:00000000000000e4 .L0 
     /tmp/ccbgESRe.s:174    .text:00000000000000e4 .L0 
     /tmp/ccbgESRe.s:175    .text:00000000000000e4 .L0 
     /tmp/ccbgESRe.s:183    .text:00000000000000ec .L0 
     /tmp/ccbgESRe.s:184    .text:00000000000000ec .L0 
     /tmp/ccbgESRe.s:188    .text:00000000000000f4 .L0 
     /tmp/ccbgESRe.s:192    .text:00000000000000f8 .L0 
GAS LISTING /tmp/ccbgESRe.s 			page 24


     /tmp/ccbgESRe.s:198    .text:0000000000000104 .L0 
     /tmp/ccbgESRe.s:202    .text:0000000000000108 .L0 
     /tmp/ccbgESRe.s:206    .text:0000000000000114 .L0 
     /tmp/ccbgESRe.s:216    .text:000000000000011c .L0 
     /tmp/ccbgESRe.s:220    .text:0000000000000120 .L0 
     /tmp/ccbgESRe.s:224    .text:0000000000000128 .L0 
     /tmp/ccbgESRe.s:225    .text:0000000000000128 .L0 
     /tmp/ccbgESRe.s:229    .text:0000000000000138 .L0 
     /tmp/ccbgESRe.s:230    .text:0000000000000138 .L0 
     /tmp/ccbgESRe.s:236    .text:000000000000014c .L0 
     /tmp/ccbgESRe.s:237    .text:000000000000014c .L0 
     /tmp/ccbgESRe.s:242    .text:000000000000015c .L0 
     /tmp/ccbgESRe.s:243    .text:000000000000015c .L0 
     /tmp/ccbgESRe.s:251    .text:0000000000000164 .L0 
     /tmp/ccbgESRe.s:252    .text:0000000000000164 .L0 
     /tmp/ccbgESRe.s:255    .text:000000000000016c .L0 
     /tmp/ccbgESRe.s:256    .text:000000000000016c .L0 
     /tmp/ccbgESRe.s:260    .text:000000000000017c .L0 
     /tmp/ccbgESRe.s:261    .text:000000000000017c .L0 
     /tmp/ccbgESRe.s:264    .text:0000000000000188 .L0 
     /tmp/ccbgESRe.s:265    .text:000000000000018c .L0 
     /tmp/ccbgESRe.s:267    .text:0000000000000190 .L0 
     /tmp/ccbgESRe.s:268    .text:0000000000000190 .L0 
     /tmp/ccbgESRe.s:270    .text:0000000000000194 .L0 
     /tmp/ccbgESRe.s:272    .text:0000000000000198 .L0 
     /tmp/ccbgESRe.s:275    .text:000000000000019c .L0 
     /tmp/ccbgESRe.s:277    .text:00000000000001a0 .L0 
     /tmp/ccbgESRe.s:283    .text:00000000000001a0 _Z9fibonaccim
     /tmp/ccbgESRe.s:286    .text:00000000000001a0 .L0 
     /tmp/ccbgESRe.s:288    .text:00000000000001a0 .L0 
     /tmp/ccbgESRe.s:289    .text:00000000000001a4 .L0 
     /tmp/ccbgESRe.s:294    .text:00000000000001b4 .L0 
     /tmp/ccbgESRe.s:295    .text:00000000000001b4 .L0 
     /tmp/ccbgESRe.s:296    .text:00000000000001b4 .L0 
     /tmp/ccbgESRe.s:297    .text:00000000000001b4 .L0 
     /tmp/ccbgESRe.s:299    .text:00000000000001b8 .L0 
     /tmp/ccbgESRe.s:302    .text:00000000000001bc .L0 
     /tmp/ccbgESRe.s:305    .text:00000000000001c4 .L0 
     /tmp/ccbgESRe.s:306    .text:00000000000001c4 .L0 
     /tmp/ccbgESRe.s:309    .text:00000000000001cc .L0 
     /tmp/ccbgESRe.s:313    .text:00000000000001d0 .L0 
     /tmp/ccbgESRe.s:314    .text:00000000000001d0 .L0 
     /tmp/ccbgESRe.s:319    .text:00000000000001e0 .L0 
     /tmp/ccbgESRe.s:323    .text:00000000000001ec .L0 
     /tmp/ccbgESRe.s:326    .text:00000000000001f0 .L0 
     /tmp/ccbgESRe.s:327    .text:00000000000001f4 .L0 
     /tmp/ccbgESRe.s:328    .text:00000000000001f4 .L0 
     /tmp/ccbgESRe.s:330    .text:00000000000001f8 .L0 
     /tmp/ccbgESRe.s:331    .text:00000000000001f8 .L0 
     /tmp/ccbgESRe.s:333    .text:00000000000001fc .L0 
     /tmp/ccbgESRe.s:336    .text:0000000000000200 .L0 
     /tmp/ccbgESRe.s:338    .text:0000000000000204 .L0 
     /tmp/ccbgESRe.s:342    .text:0000000000000208 .L0 
     /tmp/ccbgESRe.s:344    .text:0000000000000208 .L0 
     /tmp/ccbgESRe.s:345    .text:0000000000000208 .L0 
     /tmp/ccbgESRe.s:348    .text:0000000000000214 .L0 
     /tmp/ccbgESRe.s:368    .text:0000000000000214 _Z11workerBodyCPv
GAS LISTING /tmp/ccbgESRe.s 			page 25


     /tmp/ccbgESRe.s:371    .text:0000000000000214 .L0 
     /tmp/ccbgESRe.s:373    .text:0000000000000214 .L0 
     /tmp/ccbgESRe.s:374    .text:0000000000000218 .L0 
     /tmp/ccbgESRe.s:379    .text:0000000000000228 .L0 
     /tmp/ccbgESRe.s:380    .text:0000000000000228 .L0 
     /tmp/ccbgESRe.s:381    .text:0000000000000228 .L0 
     /tmp/ccbgESRe.s:382    .text:0000000000000228 .L0 
     /tmp/ccbgESRe.s:384    .text:000000000000022c .L0 
     /tmp/ccbgESRe.s:387    .text:000000000000022c .L0 
     /tmp/ccbgESRe.s:388    .text:000000000000022c .L0 
     /tmp/ccbgESRe.s:393    .text:0000000000000234 .L0 
     /tmp/ccbgESRe.s:394    .text:0000000000000234 .L0 
     /tmp/ccbgESRe.s:398    .text:0000000000000244 .L0 
     /tmp/ccbgESRe.s:399    .text:0000000000000244 .L0 
     /tmp/ccbgESRe.s:405    .text:0000000000000258 .L0 
     /tmp/ccbgESRe.s:406    .text:0000000000000258 .L0 
     /tmp/ccbgESRe.s:410    .text:0000000000000268 .L0 
     /tmp/ccbgESRe.s:416    .text:0000000000000270 .L0 
     /tmp/ccbgESRe.s:417    .text:0000000000000270 .L0 
     /tmp/ccbgESRe.s:420    .text:0000000000000278 .L0 
     /tmp/ccbgESRe.s:421    .text:0000000000000278 .L0 
     /tmp/ccbgESRe.s:425    .text:0000000000000288 .L0 
test/Threads_C_API_test.hpp:49     .text:0000000000000288 .L0 
     /tmp/ccbgESRe.s:431    .text:000000000000028c .L0 
     /tmp/ccbgESRe.s:433    .text:000000000000028c .L0 
     /tmp/ccbgESRe.s:436    .text:0000000000000294 .L0 
     /tmp/ccbgESRe.s:437    .text:0000000000000294 .L0 
test/Threads_C_API_test.hpp:53     .text:0000000000000294 .L0 
     /tmp/ccbgESRe.s:444    .text:0000000000000298 .L0 
     /tmp/ccbgESRe.s:446    .text:0000000000000298 .L0 
     /tmp/ccbgESRe.s:450    .text:00000000000002a8 .L0 
     /tmp/ccbgESRe.s:451    .text:00000000000002a8 .L0 
     /tmp/ccbgESRe.s:457    .text:00000000000002bc .L0 
     /tmp/ccbgESRe.s:458    .text:00000000000002bc .L0 
     /tmp/ccbgESRe.s:462    .text:00000000000002cc .L0 
     /tmp/ccbgESRe.s:463    .text:00000000000002cc .L0 
     /tmp/ccbgESRe.s:469    .text:00000000000002dc .L0 
     /tmp/ccbgESRe.s:470    .text:00000000000002dc .L0 
     /tmp/ccbgESRe.s:475    .text:00000000000002ec .L0 
     /tmp/ccbgESRe.s:476    .text:00000000000002ec .L0 
     /tmp/ccbgESRe.s:482    .text:0000000000000300 .L0 
     /tmp/ccbgESRe.s:483    .text:0000000000000300 .L0 
     /tmp/ccbgESRe.s:489    .text:0000000000000314 .L0 
     /tmp/ccbgESRe.s:490    .text:0000000000000314 .L0 
     /tmp/ccbgESRe.s:494    .text:0000000000000324 .L0 
     /tmp/ccbgESRe.s:495    .text:0000000000000324 .L0 
     /tmp/ccbgESRe.s:501    .text:0000000000000338 .L0 
     /tmp/ccbgESRe.s:502    .text:0000000000000338 .L0 
     /tmp/ccbgESRe.s:506    .text:0000000000000348 .L0 
     /tmp/ccbgESRe.s:512    .text:0000000000000350 .L0 
     /tmp/ccbgESRe.s:513    .text:0000000000000350 .L0 
     /tmp/ccbgESRe.s:516    .text:0000000000000358 .L0 
     /tmp/ccbgESRe.s:517    .text:0000000000000358 .L0 
     /tmp/ccbgESRe.s:520    .text:0000000000000360 .L0 
     /tmp/ccbgESRe.s:521    .text:0000000000000360 .L0 
     /tmp/ccbgESRe.s:525    .text:0000000000000370 .L0 
     /tmp/ccbgESRe.s:526    .text:0000000000000370 .L0 
GAS LISTING /tmp/ccbgESRe.s 			page 26


     /tmp/ccbgESRe.s:529    .text:000000000000037c .L0 
     /tmp/ccbgESRe.s:530    .text:0000000000000380 .L0 
     /tmp/ccbgESRe.s:532    .text:0000000000000384 .L0 
     /tmp/ccbgESRe.s:533    .text:0000000000000384 .L0 
     /tmp/ccbgESRe.s:535    .text:0000000000000388 .L0 
     /tmp/ccbgESRe.s:538    .text:000000000000038c .L0 
     /tmp/ccbgESRe.s:541    .text:0000000000000390 .L0 
     /tmp/ccbgESRe.s:543    .text:0000000000000394 .L0 
     /tmp/ccbgESRe.s:563    .text:0000000000000394 _Z11workerBodyDPv
     /tmp/ccbgESRe.s:566    .text:0000000000000394 .L0 
     /tmp/ccbgESRe.s:568    .text:0000000000000394 .L0 
     /tmp/ccbgESRe.s:569    .text:0000000000000398 .L0 
     /tmp/ccbgESRe.s:574    .text:00000000000003a8 .L0 
     /tmp/ccbgESRe.s:575    .text:00000000000003a8 .L0 
     /tmp/ccbgESRe.s:576    .text:00000000000003a8 .L0 
     /tmp/ccbgESRe.s:577    .text:00000000000003a8 .L0 
     /tmp/ccbgESRe.s:579    .text:00000000000003ac .L0 
     /tmp/ccbgESRe.s:582    .text:00000000000003ac .L0 
     /tmp/ccbgESRe.s:583    .text:00000000000003ac .L0 
     /tmp/ccbgESRe.s:588    .text:00000000000003b4 .L0 
     /tmp/ccbgESRe.s:589    .text:00000000000003b4 .L0 
     /tmp/ccbgESRe.s:593    .text:00000000000003c4 .L0 
     /tmp/ccbgESRe.s:594    .text:00000000000003c4 .L0 
     /tmp/ccbgESRe.s:600    .text:00000000000003d8 .L0 
     /tmp/ccbgESRe.s:601    .text:00000000000003d8 .L0 
     /tmp/ccbgESRe.s:605    .text:00000000000003e8 .L0 
     /tmp/ccbgESRe.s:611    .text:00000000000003f0 .L0 
     /tmp/ccbgESRe.s:612    .text:00000000000003f0 .L0 
     /tmp/ccbgESRe.s:615    .text:00000000000003f8 .L0 
     /tmp/ccbgESRe.s:616    .text:00000000000003f8 .L0 
     /tmp/ccbgESRe.s:620    .text:0000000000000408 .L0 
test/Threads_C_API_test.hpp:76     .text:0000000000000408 .L0 
     /tmp/ccbgESRe.s:626    .text:000000000000040c .L0 
     /tmp/ccbgESRe.s:628    .text:000000000000040c .L0 
     /tmp/ccbgESRe.s:631    .text:0000000000000414 .L0 
     /tmp/ccbgESRe.s:632    .text:0000000000000414 .L0 
     /tmp/ccbgESRe.s:638    .text:0000000000000424 .L0 
     /tmp/ccbgESRe.s:639    .text:0000000000000424 .L0 
     /tmp/ccbgESRe.s:644    .text:0000000000000434 .L0 
     /tmp/ccbgESRe.s:645    .text:0000000000000434 .L0 
     /tmp/ccbgESRe.s:651    .text:0000000000000448 .L0 
     /tmp/ccbgESRe.s:652    .text:0000000000000448 .L0 
     /tmp/ccbgESRe.s:658    .text:000000000000045c .L0 
     /tmp/ccbgESRe.s:659    .text:000000000000045c .L0 
     /tmp/ccbgESRe.s:663    .text:000000000000046c .L0 
     /tmp/ccbgESRe.s:664    .text:000000000000046c .L0 
     /tmp/ccbgESRe.s:670    .text:0000000000000480 .L0 
     /tmp/ccbgESRe.s:671    .text:0000000000000480 .L0 
     /tmp/ccbgESRe.s:675    .text:0000000000000490 .L0 
     /tmp/ccbgESRe.s:681    .text:0000000000000498 .L0 
     /tmp/ccbgESRe.s:682    .text:0000000000000498 .L0 
     /tmp/ccbgESRe.s:685    .text:00000000000004a0 .L0 
     /tmp/ccbgESRe.s:686    .text:00000000000004a0 .L0 
     /tmp/ccbgESRe.s:689    .text:00000000000004a8 .L0 
     /tmp/ccbgESRe.s:690    .text:00000000000004a8 .L0 
     /tmp/ccbgESRe.s:694    .text:00000000000004b8 .L0 
     /tmp/ccbgESRe.s:695    .text:00000000000004b8 .L0 
GAS LISTING /tmp/ccbgESRe.s 			page 27


     /tmp/ccbgESRe.s:698    .text:00000000000004c4 .L0 
     /tmp/ccbgESRe.s:699    .text:00000000000004c8 .L0 
     /tmp/ccbgESRe.s:701    .text:00000000000004cc .L0 
     /tmp/ccbgESRe.s:702    .text:00000000000004cc .L0 
     /tmp/ccbgESRe.s:704    .text:00000000000004d0 .L0 
     /tmp/ccbgESRe.s:707    .text:00000000000004d4 .L0 
     /tmp/ccbgESRe.s:710    .text:00000000000004d8 .L0 
     /tmp/ccbgESRe.s:712    .text:00000000000004dc .L0 
     /tmp/ccbgESRe.s:732    .text:00000000000004dc _Z18Threads_C_API_testv
     /tmp/ccbgESRe.s:735    .text:00000000000004dc .L0 
     /tmp/ccbgESRe.s:736    .text:00000000000004dc .L0 
     /tmp/ccbgESRe.s:737    .text:00000000000004e0 .L0 
     /tmp/ccbgESRe.s:741    .text:00000000000004ec .L0 
     /tmp/ccbgESRe.s:742    .text:00000000000004ec .L0 
     /tmp/ccbgESRe.s:743    .text:00000000000004ec .L0 
     /tmp/ccbgESRe.s:745    .text:00000000000004f0 .L0 
     /tmp/ccbgESRe.s:747    .text:00000000000004f0 .L0 
     /tmp/ccbgESRe.s:748    .text:00000000000004f0 .L0 
     /tmp/ccbgESRe.s:749    .text:00000000000004f0 .L0 
     /tmp/ccbgESRe.s:755    .text:0000000000000508 .L0 
     /tmp/ccbgESRe.s:756    .text:0000000000000508 .L0 
     /tmp/ccbgESRe.s:760    .text:0000000000000518 .L0 
     /tmp/ccbgESRe.s:761    .text:0000000000000518 .L0 
     /tmp/ccbgESRe.s:767    .text:0000000000000530 .L0 
     /tmp/ccbgESRe.s:768    .text:0000000000000530 .L0 
     /tmp/ccbgESRe.s:772    .text:0000000000000540 .L0 
     /tmp/ccbgESRe.s:773    .text:0000000000000540 .L0 
     /tmp/ccbgESRe.s:779    .text:0000000000000558 .L0 
     /tmp/ccbgESRe.s:780    .text:0000000000000558 .L0 
     /tmp/ccbgESRe.s:784    .text:0000000000000568 .L0 
     /tmp/ccbgESRe.s:785    .text:0000000000000568 .L0 
     /tmp/ccbgESRe.s:791    .text:0000000000000580 .L0 
     /tmp/ccbgESRe.s:792    .text:0000000000000580 .L0 
     /tmp/ccbgESRe.s:798    .text:0000000000000594 .L0 
     /tmp/ccbgESRe.s:799    .text:0000000000000594 .L0 
     /tmp/ccbgESRe.s:803    .text:000000000000059c .L0 
     /tmp/ccbgESRe.s:804    .text:000000000000059c .L0 
     /tmp/ccbgESRe.s:807    .text:00000000000005a8 .L0 
     /tmp/ccbgESRe.s:810    .text:00000000000005b4 .L0 
     /tmp/ccbgESRe.s:813    .text:00000000000005c0 .L0 
     /tmp/ccbgESRe.s:817    .text:00000000000005cc .L0 
     /tmp/ccbgESRe.s:822    .text:00000000000005d4 .L0 
     /tmp/ccbgESRe.s:826    .text:00000000000005d8 .L0 
     /tmp/ccbgESRe.s:830    .text:00000000000005e0 .L0 
     /tmp/ccbgESRe.s:831    .text:00000000000005e0 .L0 
     /tmp/ccbgESRe.s:833    .text:00000000000005e4 .L0 
     /tmp/ccbgESRe.s:835    .text:00000000000005e8 .L0 
     /tmp/ccbgESRe.s:842    .text:00000000000005f4 .L0 
     /tmp/ccbgESRe.s:843    .text:00000000000005f8 .L0 
     /tmp/ccbgESRe.s:845    .text:00000000000005fc .L0 
     /tmp/ccbgESRe.s:846    .text:00000000000005fc .L0 
     /tmp/ccbgESRe.s:848    .text:0000000000000600 .L0 
     /tmp/ccbgESRe.s:851    .text:0000000000000604 .L0 
     /tmp/ccbgESRe.s:853    .text:0000000000000608 .L0 
     /tmp/ccbgESRe.s:859    .text:0000000000000608 _Z8userMainv
     /tmp/ccbgESRe.s:863    .text:0000000000000608 .L0 
     /tmp/ccbgESRe.s:864    .text:0000000000000608 .L0 
GAS LISTING /tmp/ccbgESRe.s 			page 28


     /tmp/ccbgESRe.s:865    .text:000000000000060c .L0 
     /tmp/ccbgESRe.s:868    .text:0000000000000614 .L0 
     /tmp/ccbgESRe.s:869    .text:0000000000000614 .L0 
     /tmp/ccbgESRe.s:871    .text:0000000000000618 .L0 
     /tmp/ccbgESRe.s:873    .text:0000000000000618 .L0 
     /tmp/ccbgESRe.s:874    .text:0000000000000618 .L0 
     /tmp/ccbgESRe.s:877    .text:0000000000000620 .L0 
     /tmp/ccbgESRe.s:878    .text:0000000000000624 .L0 
     /tmp/ccbgESRe.s:880    .text:0000000000000628 .L0 
     /tmp/ccbgESRe.s:881    .text:0000000000000628 .L0 
     /tmp/ccbgESRe.s:883    .text:000000000000062c .L0 
     /tmp/ccbgESRe.s:885    .text:0000000000000630 .L0 
     /tmp/ccbgESRe.s:908    .bss:0000000000000003 finishedD
     /tmp/ccbgESRe.s:904    .bss:0000000000000002 finishedC
     /tmp/ccbgESRe.s:900    .bss:0000000000000001 finishedB
     /tmp/ccbgESRe.s:896    .bss:0000000000000000 finishedA
     /tmp/ccbgESRe.s:893    .bss:0000000000000000 .LANCHOR0
     /tmp/ccbgESRe.s:916    .text:0000000000000630 .L0 
     /tmp/ccbgESRe.s:8      .rodata.str1.8:0000000000000000 .LC0
     /tmp/ccbgESRe.s:92     .text:000000000000005c .L0 
     /tmp/ccbgESRe.s:11     .rodata.str1.8:0000000000000008 .LC1
     /tmp/ccbgESRe.s:104    .text:0000000000000080 .L0 
     /tmp/ccbgESRe.s:14     .rodata.str1.8:0000000000000010 .LC2
     /tmp/ccbgESRe.s:119    .text:0000000000000098 .L0 
     /tmp/ccbgESRe.s:125    .text:00000000000000ac .L0 
     /tmp/ccbgESRe.s:145    .rodata.str1.8:0000000000000020 .LC3
     /tmp/ccbgESRe.s:225    .text:0000000000000128 .L0 
     /tmp/ccbgESRe.s:237    .text:000000000000014c .L0 
     /tmp/ccbgESRe.s:148    .rodata.str1.8:0000000000000028 .LC4
     /tmp/ccbgESRe.s:256    .text:000000000000016c .L0 
     /tmp/ccbgESRe.s:262    .text:0000000000000180 .L0 
     /tmp/ccbgESRe.s:353    .rodata.str1.8:0000000000000038 .LC5
     /tmp/ccbgESRe.s:394    .text:0000000000000234 .L0 
     /tmp/ccbgESRe.s:406    .text:0000000000000258 .L0 
     /tmp/ccbgESRe.s:356    .rodata.str1.8:0000000000000040 .LC6
     /tmp/ccbgESRe.s:421    .text:0000000000000278 .L0 
     /tmp/ccbgESRe.s:359    .rodata.str1.8:0000000000000050 .LC7
     /tmp/ccbgESRe.s:446    .text:0000000000000298 .L0 
     /tmp/ccbgESRe.s:458    .text:00000000000002bc .L0 
     /tmp/ccbgESRe.s:362    .rodata.str1.8:0000000000000058 .LC8
     /tmp/ccbgESRe.s:470    .text:00000000000002dc .L0 
     /tmp/ccbgESRe.s:483    .text:0000000000000300 .L0 
     /tmp/ccbgESRe.s:490    .text:0000000000000314 .L0 
     /tmp/ccbgESRe.s:502    .text:0000000000000338 .L0 
     /tmp/ccbgESRe.s:521    .text:0000000000000360 .L0 
     /tmp/ccbgESRe.s:527    .text:0000000000000374 .L0 
     /tmp/ccbgESRe.s:548    .rodata.str1.8:0000000000000068 .LC9
     /tmp/ccbgESRe.s:589    .text:00000000000003b4 .L0 
     /tmp/ccbgESRe.s:601    .text:00000000000003d8 .L0 
     /tmp/ccbgESRe.s:551    .rodata.str1.8:0000000000000070 .LC10
     /tmp/ccbgESRe.s:616    .text:00000000000003f8 .L0 
     /tmp/ccbgESRe.s:554    .rodata.str1.8:0000000000000080 .LC11
     /tmp/ccbgESRe.s:639    .text:0000000000000424 .L0 
     /tmp/ccbgESRe.s:652    .text:0000000000000448 .L0 
     /tmp/ccbgESRe.s:659    .text:000000000000045c .L0 
     /tmp/ccbgESRe.s:671    .text:0000000000000480 .L0 
     /tmp/ccbgESRe.s:557    .rodata.str1.8:0000000000000090 .LC12
GAS LISTING /tmp/ccbgESRe.s 			page 29


     /tmp/ccbgESRe.s:690    .text:00000000000004a8 .L0 
     /tmp/ccbgESRe.s:696    .text:00000000000004bc .L0 
     /tmp/ccbgESRe.s:750    .text:00000000000004f4 .L0 
     /tmp/ccbgESRe.s:717    .rodata.str1.8:00000000000000a0 .LC13
     /tmp/ccbgESRe.s:756    .text:0000000000000508 .L0 
     /tmp/ccbgESRe.s:762    .text:000000000000051c .L0 
     /tmp/ccbgESRe.s:720    .rodata.str1.8:00000000000000b8 .LC14
     /tmp/ccbgESRe.s:768    .text:0000000000000530 .L0 
     /tmp/ccbgESRe.s:774    .text:0000000000000544 .L0 
     /tmp/ccbgESRe.s:723    .rodata.str1.8:00000000000000d0 .LC15
     /tmp/ccbgESRe.s:780    .text:0000000000000558 .L0 
     /tmp/ccbgESRe.s:786    .text:000000000000056c .L0 
     /tmp/ccbgESRe.s:726    .rodata.str1.8:00000000000000e8 .LC16
     /tmp/ccbgESRe.s:792    .text:0000000000000580 .L0 
     /tmp/ccbgESRe.s:804    .text:000000000000059c .L0 
     /tmp/ccbgESRe.s:807    .text:00000000000005a8 .L0 
     /tmp/ccbgESRe.s:810    .text:00000000000005b4 .L0 
     /tmp/ccbgESRe.s:813    .text:00000000000005c0 .L0 
     /tmp/ccbgESRe.s:85     .text:0000000000000054 .L7
     /tmp/ccbgESRe.s:77     .text:0000000000000050 .L3
     /tmp/ccbgESRe.s:45     .text:0000000000000020 .L4
     /tmp/ccbgESRe.s:66     .text:000000000000003c .L5
     /tmp/ccbgESRe.s:113    .text:0000000000000098 .L2
     /tmp/ccbgESRe.s:57     .text:000000000000002c .L6
     /tmp/ccbgESRe.s:218    .text:0000000000000120 .L15
     /tmp/ccbgESRe.s:210    .text:000000000000011c .L11
     /tmp/ccbgESRe.s:178    .text:00000000000000ec .L12
     /tmp/ccbgESRe.s:199    .text:0000000000000108 .L13
     /tmp/ccbgESRe.s:246    .text:0000000000000164 .L10
     /tmp/ccbgESRe.s:190    .text:00000000000000f8 .L14
     /tmp/ccbgESRe.s:324    .text:00000000000001f0 .L17
     /tmp/ccbgESRe.s:341    .text:0000000000000208 .L22
     /tmp/ccbgESRe.s:311    .text:00000000000001d0 .L19
     /tmp/ccbgESRe.s:414    .text:0000000000000270 .L25
     /tmp/ccbgESRe.s:391    .text:0000000000000234 .L29
     /tmp/ccbgESRe.s:510    .text:0000000000000350 .L27
     /tmp/ccbgESRe.s:487    .text:0000000000000314 .L30
     /tmp/ccbgESRe.s:609    .text:00000000000003f0 .L33
     /tmp/ccbgESRe.s:586    .text:00000000000003b4 .L37
     /tmp/ccbgESRe.s:679    .text:0000000000000498 .L35
     /tmp/ccbgESRe.s:656    .text:000000000000045c .L38
     /tmp/ccbgESRe.s:801    .text:000000000000059c .L42
     /tmp/ccbgESRe.s:796    .text:0000000000000594 .L40
     /tmp/ccbgESRe.s:824    .text:00000000000005d8 .L41
     /tmp/ccbgESRe.s:839    .text:00000000000005f4 .L39
     /tmp/ccbgESRe.s:820    .text:00000000000005d4 .L44
     /tmp/ccbgESRe.s:2072   .debug_abbrev:0000000000000000 .Ldebug_abbrev0
     /tmp/ccbgESRe.s:2793   .debug_str:0000000000000046 .LASF49
     /tmp/ccbgESRe.s:2859   .debug_str:00000000000002f6 .LASF50
     /tmp/ccbgESRe.s:2861   .debug_str:0000000000000308 .LASF51
     /tmp/ccbgESRe.s:5      .text:0000000000000000 .Ltext0
     /tmp/ccbgESRe.s:911    .text:0000000000000630 .Letext0
     /tmp/ccbgESRe.s:2781   .debug_line:0000000000000000 .Ldebug_line0
     /tmp/ccbgESRe.s:2843   .debug_str:000000000000027f .LASF0
     /tmp/ccbgESRe.s:2827   .debug_str:0000000000000203 .LASF1
     /tmp/ccbgESRe.s:2821   .debug_str:00000000000001d5 .LASF2
     /tmp/ccbgESRe.s:2885   .debug_str:00000000000003a2 .LASF3
GAS LISTING /tmp/ccbgESRe.s 			page 30


     /tmp/ccbgESRe.s:2799   .debug_str:000000000000012b .LASF4
     /tmp/ccbgESRe.s:2825   .debug_str:00000000000001f1 .LASF5
     /tmp/ccbgESRe.s:2787   .debug_str:000000000000001f .LASF6
     /tmp/ccbgESRe.s:2783   .debug_str:0000000000000000 .LASF7
     /tmp/ccbgESRe.s:2815   .debug_str:00000000000001a0 .LASF8
     /tmp/ccbgESRe.s:2851   .debug_str:00000000000002bb .LASF9
     /tmp/ccbgESRe.s:2797   .debug_str:000000000000011d .LASF10
     /tmp/ccbgESRe.s:2897   .debug_str:00000000000003ea .LASF11
     /tmp/ccbgESRe.s:2817   .debug_str:00000000000001b3 .LASF12
     /tmp/ccbgESRe.s:2889   .debug_str:00000000000003ba .LASF13
     /tmp/ccbgESRe.s:2849   .debug_str:00000000000002ab .LASF14
     /tmp/ccbgESRe.s:2831   .debug_str:000000000000021d .LASF15
     /tmp/ccbgESRe.s:2809   .debug_str:0000000000000164 .LASF16
     /tmp/ccbgESRe.s:2855   .debug_str:00000000000002d7 .LASF17
     /tmp/ccbgESRe.s:2881   .debug_str:0000000000000388 .LASF52
     /tmp/ccbgESRe.s:2845   .debug_str:000000000000028c .LASF53
     /tmp/ccbgESRe.s:2813   .debug_str:000000000000018f .LASF54
     /tmp/ccbgESRe.s:2857   .debug_str:00000000000002ed .LASF18
     /tmp/ccbgESRe.s:2863   .debug_str:0000000000000326 .LASF19
     /tmp/ccbgESRe.s:2801   .debug_str:0000000000000132 .LASF20
     /tmp/ccbgESRe.s:2865   .debug_str:0000000000000330 .LASF21
     /tmp/ccbgESRe.s:2867   .debug_str:000000000000033a .LASF22
     /tmp/ccbgESRe.s:2869   .debug_str:0000000000000344 .LASF23
     /tmp/ccbgESRe.s:2841   .debug_str:0000000000000276 .LASF24
     /tmp/ccbgESRe.s:2893   .debug_str:00000000000003d1 .LASF26
     /tmp/ccbgESRe.s:860    .text:0000000000000608 .LFB6
     /tmp/ccbgESRe.s:886    .text:0000000000000630 .LFE6
     /tmp/ccbgESRe.s:875    .text:0000000000000620 .LVL107
     /tmp/ccbgESRe.s:2795   .debug_str:000000000000010a .LASF25
     /tmp/ccbgESRe.s:2805   .debug_str:0000000000000143 .LASF27
     /tmp/ccbgESRe.s:733    .text:00000000000004dc .LFB5
     /tmp/ccbgESRe.s:854    .text:0000000000000608 .LFE5
     /tmp/ccbgESRe.s:2875   .debug_str:0000000000000368 .LASF28
     /tmp/ccbgESRe.s:815    .text:00000000000005cc .LBB18
     /tmp/ccbgESRe.s:840    .text:00000000000005f4 .LBE18
     /tmp/ccbgESRe.s:2829   .debug_str:0000000000000216 .LASF29
     /tmp/ccbgESRe.s:2518   .debug_loc:0000000000000000 .LLST16
     /tmp/ccbgESRe.s:2785   .debug_str:0000000000000013 .LASF30
     /tmp/ccbgESRe.s:2803   .debug_str:0000000000000137 .LASF55
     /tmp/ccbgESRe.s:2529   .debug_loc:0000000000000036 .LLST17
     /tmp/ccbgESRe.s:2837   .debug_str:000000000000025a .LASF31
     /tmp/ccbgESRe.s:836    .text:00000000000005f0 .LVL104
     /tmp/ccbgESRe.s:753    .text:0000000000000508 .LVL92
     /tmp/ccbgESRe.s:758    .text:0000000000000518 .LVL93
     /tmp/ccbgESRe.s:765    .text:0000000000000530 .LVL94
     /tmp/ccbgESRe.s:770    .text:0000000000000540 .LVL95
     /tmp/ccbgESRe.s:777    .text:0000000000000558 .LVL96
     /tmp/ccbgESRe.s:782    .text:0000000000000568 .LVL97
     /tmp/ccbgESRe.s:789    .text:0000000000000580 .LVL98
     /tmp/ccbgESRe.s:794    .text:0000000000000590 .LVL99
     /tmp/ccbgESRe.s:800    .text:000000000000059c .LVL100
     /tmp/ccbgESRe.s:2853   .debug_str:00000000000002cb .LASF32
     /tmp/ccbgESRe.s:2887   .debug_str:00000000000003a8 .LASF33
     /tmp/ccbgESRe.s:564    .text:0000000000000394 .LFB4
     /tmp/ccbgESRe.s:713    .text:00000000000004dc .LFE4
     /tmp/ccbgESRe.s:2536   .debug_loc:0000000000000059 .LLST13
     /tmp/ccbgESRe.s:2550   .debug_loc:0000000000000092 .LLST14
GAS LISTING /tmp/ccbgESRe.s 			page 31


     /tmp/ccbgESRe.s:2891   .debug_str:00000000000003ca .LASF34
     /tmp/ccbgESRe.s:2570   .debug_loc:00000000000000ef .LLST15
     /tmp/ccbgESRe.s:591    .text:00000000000003c4 .LVL70
     /tmp/ccbgESRe.s:598    .text:00000000000003d8 .LVL71
     /tmp/ccbgESRe.s:603    .text:00000000000003e8 .LVL72
     /tmp/ccbgESRe.s:618    .text:0000000000000408 .LVL75
     /tmp/ccbgESRe.s:629    .text:0000000000000414 .LVL76
     /tmp/ccbgESRe.s:634    .text:0000000000000420 .LVL77
     /tmp/ccbgESRe.s:642    .text:0000000000000434 .LVL80
     /tmp/ccbgESRe.s:649    .text:0000000000000448 .LVL81
     /tmp/ccbgESRe.s:654    .text:0000000000000458 .LVL82
     /tmp/ccbgESRe.s:661    .text:000000000000046c .LVL83
     /tmp/ccbgESRe.s:668    .text:0000000000000480 .LVL84
     /tmp/ccbgESRe.s:673    .text:0000000000000490 .LVL85
     /tmp/ccbgESRe.s:687    .text:00000000000004a8 .LVL88
     /tmp/ccbgESRe.s:692    .text:00000000000004b8 .LVL89
     /tmp/ccbgESRe.s:2879   .debug_str:000000000000037c .LASF35
     /tmp/ccbgESRe.s:2839   .debug_str:0000000000000264 .LASF36
     /tmp/ccbgESRe.s:369    .text:0000000000000214 .LFB3
     /tmp/ccbgESRe.s:544    .text:0000000000000394 .LFE3
     /tmp/ccbgESRe.s:2581   .debug_loc:0000000000000125 .LLST9
     /tmp/ccbgESRe.s:2595   .debug_loc:000000000000015e .LLST10
     /tmp/ccbgESRe.s:2615   .debug_loc:00000000000001bb .LLST11
     /tmp/ccbgESRe.s:2623   .debug_loc:00000000000001df .LLST12
     /tmp/ccbgESRe.s:396    .text:0000000000000244 .LVL41
     /tmp/ccbgESRe.s:403    .text:0000000000000258 .LVL42
     /tmp/ccbgESRe.s:408    .text:0000000000000268 .LVL43
     /tmp/ccbgESRe.s:423    .text:0000000000000288 .LVL46
     /tmp/ccbgESRe.s:434    .text:0000000000000294 .LVL47
     /tmp/ccbgESRe.s:448    .text:00000000000002a8 .LVL49
     /tmp/ccbgESRe.s:455    .text:00000000000002bc .LVL50
     /tmp/ccbgESRe.s:460    .text:00000000000002cc .LVL51
     /tmp/ccbgESRe.s:465    .text:00000000000002d8 .LVL52
     /tmp/ccbgESRe.s:473    .text:00000000000002ec .LVL55
     /tmp/ccbgESRe.s:480    .text:0000000000000300 .LVL56
     /tmp/ccbgESRe.s:485    .text:0000000000000310 .LVL57
     /tmp/ccbgESRe.s:492    .text:0000000000000324 .LVL58
     /tmp/ccbgESRe.s:499    .text:0000000000000338 .LVL59
     /tmp/ccbgESRe.s:504    .text:0000000000000348 .LVL60
     /tmp/ccbgESRe.s:518    .text:0000000000000360 .LVL63
     /tmp/ccbgESRe.s:523    .text:0000000000000370 .LVL64
     /tmp/ccbgESRe.s:2877   .debug_str:0000000000000370 .LASF37
     /tmp/ccbgESRe.s:2791   .debug_str:0000000000000034 .LASF38
     /tmp/ccbgESRe.s:155    .text:00000000000000cc .LFB2
     /tmp/ccbgESRe.s:278    .text:00000000000001a0 .LFE2
     /tmp/ccbgESRe.s:2634   .debug_loc:0000000000000215 .LLST4
     /tmp/ccbgESRe.s:173    .text:00000000000000e4 .LBB10
     /tmp/ccbgESRe.s:249    .text:0000000000000164 .LBE10
     /tmp/ccbgESRe.s:2648   .debug_loc:000000000000024e .LLST5
     /tmp/ccbgESRe.s:2767   .debug_ranges:0000000000000000 .Ldebug_ranges0
     /tmp/ccbgESRe.s:2660   .debug_loc:0000000000000285 .LLST6
     /tmp/ccbgESRe.s:196    .text:0000000000000104 .LBB14
     /tmp/ccbgESRe.s:211    .text:000000000000011c .LBE14
     /tmp/ccbgESRe.s:2672   .debug_loc:00000000000002bc .LLST7
     /tmp/ccbgESRe.s:185    .text:00000000000000f4 .LVL18
     /tmp/ccbgESRe.s:227    .text:0000000000000138 .LVL24
     /tmp/ccbgESRe.s:234    .text:000000000000014c .LVL25
GAS LISTING /tmp/ccbgESRe.s 			page 32


     /tmp/ccbgESRe.s:239    .text:000000000000015c .LVL26
     /tmp/ccbgESRe.s:253    .text:000000000000016c .LVL28
     /tmp/ccbgESRe.s:258    .text:000000000000017c .LVL29
     /tmp/ccbgESRe.s:2835   .debug_str:000000000000024e .LASF39
     /tmp/ccbgESRe.s:2883   .debug_str:0000000000000390 .LASF40
     /tmp/ccbgESRe.s:21     .text:0000000000000000 .LFB1
     /tmp/ccbgESRe.s:141    .text:00000000000000cc .LFE1
     /tmp/ccbgESRe.s:2683   .debug_loc:00000000000002f2 .LLST0
     /tmp/ccbgESRe.s:40     .text:0000000000000018 .LBB2
     /tmp/ccbgESRe.s:116    .text:0000000000000098 .LBE2
     /tmp/ccbgESRe.s:2697   .debug_loc:000000000000032b .LLST1
     /tmp/ccbgESRe.s:2709   .debug_loc:0000000000000362 .LLST2
     /tmp/ccbgESRe.s:63     .text:0000000000000038 .LBB6
     /tmp/ccbgESRe.s:78     .text:0000000000000050 .LBE6
     /tmp/ccbgESRe.s:2721   .debug_loc:0000000000000399 .LLST3
     /tmp/ccbgESRe.s:52     .text:0000000000000028 .LVL3
     /tmp/ccbgESRe.s:94     .text:000000000000006c .LVL9
     /tmp/ccbgESRe.s:101    .text:0000000000000080 .LVL10
     /tmp/ccbgESRe.s:106    .text:0000000000000090 .LVL11
     /tmp/ccbgESRe.s:121    .text:00000000000000a8 .LVL13
     /tmp/ccbgESRe.s:2871   .debug_str:000000000000034e .LASF56
     /tmp/ccbgESRe.s:2789   .debug_str:0000000000000026 .LASF57
     /tmp/ccbgESRe.s:284    .text:00000000000001a0 .LFB0
     /tmp/ccbgESRe.s:349    .text:0000000000000214 .LFE0
     /tmp/ccbgESRe.s:2732   .debug_loc:00000000000003cf .LLST8
     /tmp/ccbgESRe.s:316    .text:00000000000001dc .LVL33
     /tmp/ccbgESRe.s:321    .text:00000000000001ec .LVL34
     /tmp/ccbgESRe.s:346    .text:0000000000000210 .LVL37
     /tmp/ccbgESRe.s:2833   .debug_str:0000000000000229 .LASF41
     /tmp/ccbgESRe.s:2823   .debug_str:00000000000001e3 .LASF43
     /tmp/ccbgESRe.s:2819   .debug_str:00000000000001c2 .LASF42
     /tmp/ccbgESRe.s:2895   .debug_str:00000000000003de .LASF44
     /tmp/ccbgESRe.s:2811   .debug_str:000000000000017a .LASF45
     /tmp/ccbgESRe.s:2873   .debug_str:0000000000000358 .LASF46
     /tmp/ccbgESRe.s:2847   .debug_str:000000000000029c .LASF47
     /tmp/ccbgESRe.s:2807   .debug_str:000000000000015b .LASF48
     /tmp/ccbgESRe.s:819    .text:00000000000005d4 .LVL101
     /tmp/ccbgESRe.s:823    .text:00000000000005d8 .LVL102
     /tmp/ccbgESRe.s:828    .text:00000000000005e0 .LVL103
     /tmp/ccbgESRe.s:838    .text:00000000000005f4 .LVL105
     /tmp/ccbgESRe.s:849    .text:0000000000000600 .LVL106
     /tmp/ccbgESRe.s:567    .text:0000000000000394 .LVL67
     /tmp/ccbgESRe.s:585    .text:00000000000003b4 .LVL69
     /tmp/ccbgESRe.s:581    .text:00000000000003ac .LVL68
     /tmp/ccbgESRe.s:606    .text:00000000000003ec .LVL73
     /tmp/ccbgESRe.s:608    .text:00000000000003f0 .LVL74
     /tmp/ccbgESRe.s:676    .text:0000000000000494 .LVL86
     /tmp/ccbgESRe.s:678    .text:0000000000000498 .LVL87
     /tmp/ccbgESRe.s:705    .text:00000000000004d0 .LVL90
     /tmp/ccbgESRe.s:636    .text:0000000000000424 .LVL78
     /tmp/ccbgESRe.s:640    .text:000000000000042c .LVL79
     /tmp/ccbgESRe.s:708    .text:00000000000004d4 .LVL91
     /tmp/ccbgESRe.s:372    .text:0000000000000214 .LVL38
     /tmp/ccbgESRe.s:390    .text:0000000000000234 .LVL40
     /tmp/ccbgESRe.s:386    .text:000000000000022c .LVL39
     /tmp/ccbgESRe.s:411    .text:000000000000026c .LVL44
     /tmp/ccbgESRe.s:413    .text:0000000000000270 .LVL45
GAS LISTING /tmp/ccbgESRe.s 			page 33


     /tmp/ccbgESRe.s:507    .text:000000000000034c .LVL61
     /tmp/ccbgESRe.s:509    .text:0000000000000350 .LVL62
     /tmp/ccbgESRe.s:536    .text:0000000000000388 .LVL65
     /tmp/ccbgESRe.s:442    .text:0000000000000298 .LVL48
     /tmp/ccbgESRe.s:467    .text:00000000000002dc .LVL53
     /tmp/ccbgESRe.s:471    .text:00000000000002e4 .LVL54
     /tmp/ccbgESRe.s:539    .text:000000000000038c .LVL66
     /tmp/ccbgESRe.s:158    .text:00000000000000cc .LVL15
     /tmp/ccbgESRe.s:177    .text:00000000000000ec .LVL17
     /tmp/ccbgESRe.s:172    .text:00000000000000e4 .LVL16
     /tmp/ccbgESRe.s:273    .text:0000000000000198 .LVL30
     /tmp/ccbgESRe.s:217    .text:0000000000000120 .LVL23
     /tmp/ccbgESRe.s:245    .text:0000000000000164 .LVL27
     /tmp/ccbgESRe.s:200    .text:0000000000000108 .LVL20
     /tmp/ccbgESRe.s:209    .text:000000000000011c .LVL22
     /tmp/ccbgESRe.s:25     .text:0000000000000000 .LVL0
     /tmp/ccbgESRe.s:44     .text:0000000000000020 .LVL2
     /tmp/ccbgESRe.s:39     .text:0000000000000018 .LVL1
     /tmp/ccbgESRe.s:136    .text:00000000000000c4 .LVL14
     /tmp/ccbgESRe.s:84     .text:0000000000000054 .LVL8
     /tmp/ccbgESRe.s:112    .text:0000000000000098 .LVL12
     /tmp/ccbgESRe.s:67     .text:000000000000003c .LVL5
     /tmp/ccbgESRe.s:76     .text:0000000000000050 .LVL7
     /tmp/ccbgESRe.s:287    .text:00000000000001a0 .LVL31
     /tmp/ccbgESRe.s:310    .text:00000000000001d0 .LVL32
     /tmp/ccbgESRe.s:334    .text:00000000000001fc .LVL35
     /tmp/ccbgESRe.s:340    .text:0000000000000208 .LVL36
     /tmp/ccbgESRe.s:917    .debug_info:0000000000000000 .Ldebug_info0
     /tmp/ccbgESRe.s:47     .text:0000000000000020 .LBB4
     /tmp/ccbgESRe.s:80     .text:0000000000000050 .LBE4
     /tmp/ccbgESRe.s:108    .text:0000000000000090 .LBB8
     /tmp/ccbgESRe.s:114    .text:0000000000000098 .LBE8
     /tmp/ccbgESRe.s:180    .text:00000000000000ec .LBB12
     /tmp/ccbgESRe.s:213    .text:000000000000011c .LBE12
     /tmp/ccbgESRe.s:241    .text:000000000000015c .LBB16
     /tmp/ccbgESRe.s:247    .text:0000000000000164 .LBE16

UNDEFINED SYMBOLS
_Z15thread_dispatchv
_Z11printStringPKc
_Z8printIntiii
_Z13thread_createPP7_threadPFvPvES2_
_ZN7_threaddlEPv
