GAS LISTING /tmp/ccmWRu5m.s 			page 1


   1              		.file	"userMain.cpp"
   2              		.option pic
   3              		.option norelax
   4              		.text
   5              	.Ltext0:
   6              		.section	.rodata.str1.8,"aMS",@progbits,1
   7              		.align	3
   8              	.LC0:
   9 0000 413A2069 		.string	"A: i="
   9      3D00
  10 0006 0000     		.align	3
  11              	.LC1:
  12 0008 0A00     		.string	"\n"
  13 000a 00000000 		.align	3
  13      0000
  14              	.LC2:
  15 0010 41206669 		.string	"A finished!\n"
  15      6E697368 
  15      6564210A 
  15      00
  16              		.text
  17              		.align	2
  18              		.globl	_Z11workerBodyAPv
  20              	_Z11workerBodyAPv:
  21              	.LFB1:
  22              		.file 1 "test/Threads_C_API_test.hpp"
   1:test/Threads_C_API_test.hpp **** #ifndef XV6_THREADS_C_API_TEST_HPP
   2:test/Threads_C_API_test.hpp **** #define XV6_THREADS_C_API_TEST_HPP
   3:test/Threads_C_API_test.hpp **** 
   4:test/Threads_C_API_test.hpp **** #include "printing.hpp"
   5:test/Threads_C_API_test.hpp **** 
   6:test/Threads_C_API_test.hpp **** bool finishedA = false;
   7:test/Threads_C_API_test.hpp **** bool finishedB = false;
   8:test/Threads_C_API_test.hpp **** bool finishedC = false;
   9:test/Threads_C_API_test.hpp **** bool finishedD = false;
  10:test/Threads_C_API_test.hpp **** 
  11:test/Threads_C_API_test.hpp **** uint64 fibonacci(uint64 n) {
  12:test/Threads_C_API_test.hpp ****     if (n == 0 || n == 1) { return n; }
  13:test/Threads_C_API_test.hpp ****     if (n % 10 == 0) { thread_dispatch(); }
  14:test/Threads_C_API_test.hpp ****     return fibonacci(n - 1) + fibonacci(n - 2);
  15:test/Threads_C_API_test.hpp **** }
  16:test/Threads_C_API_test.hpp **** 
  17:test/Threads_C_API_test.hpp **** void workerBodyA(void* arg) {
  23              		.loc 1 17 29
  24              		.cfi_startproc
  25              	.LVL0:
  26 0000 130101FE 		addi	sp,sp,-32
  27              		.cfi_def_cfa_offset 32
  28 0004 233C1100 		sd	ra,24(sp)
  29 0008 23388100 		sd	s0,16(sp)
  30 000c 23349100 		sd	s1,8(sp)
  31 0010 23302101 		sd	s2,0(sp)
  32              		.cfi_offset 1, -8
  33              		.cfi_offset 8, -16
  34              		.cfi_offset 9, -24
  35              		.cfi_offset 18, -32
  36 0014 13040102 		addi	s0,sp,32
GAS LISTING /tmp/ccmWRu5m.s 			page 2


  37              		.cfi_def_cfa 8, 0
  18:test/Threads_C_API_test.hpp ****     for (uint64 i = 0; i < 10; i++) {
  38              		.loc 1 18 5
  39              	.LVL1:
  40              	.LBB2:
  41              		.loc 1 18 17 is_stmt 0
  42 0018 13090000 		li	s2,0
  43 001c 6F008003 		j	.L7
  44              	.LVL2:
  45              	.L4:
  46              	.LBB3:
  47              	.LBB4:
  48              	.LBB5:
  19:test/Threads_C_API_test.hpp ****         printString("A: i="); printInt(i); printString("\n");
  20:test/Threads_C_API_test.hpp ****         for (uint64 j = 0; j < 10000; j++) {
  21:test/Threads_C_API_test.hpp ****             for (uint64 k = 0; k < 30000; k++) { /* busy wait */ }
  22:test/Threads_C_API_test.hpp ****             thread_dispatch();
  49              		.loc 1 22 13 is_stmt 1 discriminator 2
  50              		.loc 1 22 28 is_stmt 0 discriminator 2
  51 0020 97000000 		call	_Z15thread_dispatchv@plt
  51      E7800000 
  52              	.LVL3:
  53              	.LBE5:
  20:test/Threads_C_API_test.hpp ****             for (uint64 k = 0; k < 30000; k++) { /* busy wait */ }
  54              		.loc 1 20 9 is_stmt 1 discriminator 2
  55 0028 93841400 		addi	s1,s1,1
  56              	.LVL4:
  57              	.L6:
  20:test/Threads_C_API_test.hpp ****             for (uint64 k = 0; k < 30000; k++) { /* busy wait */ }
  58              		.loc 1 20 30 discriminator 1
  59 002c B7270000 		li	a5,8192
  60 0030 9387F770 		addi	a5,a5,1807
  61 0034 63EE9700 		bgtu	s1,a5,.L3
  62              	.LBB7:
  63              	.LBB6:
  21:test/Threads_C_API_test.hpp ****             thread_dispatch();
  64              		.loc 1 21 25 is_stmt 0
  65 0038 13070000 		li	a4,0
  66              	.L5:
  67              	.LVL5:
  21:test/Threads_C_API_test.hpp ****             thread_dispatch();
  68              		.loc 1 21 34 is_stmt 1 discriminator 3
  69 003c B7770000 		li	a5,28672
  70 0040 9387F752 		addi	a5,a5,1327
  71 0044 E3EEE7FC 		bgtu	a4,a5,.L4
  21:test/Threads_C_API_test.hpp ****             thread_dispatch();
  72              		.loc 1 21 13 discriminator 2
  73 0048 13071700 		addi	a4,a4,1
  74              	.LVL6:
  75 004c 6FF01FFF 		j	.L5
  76              	.LVL7:
  77              	.L3:
  78              	.LBE6:
  79              	.LBE7:
  80              	.LBE4:
  81              	.LBE3:
  18:test/Threads_C_API_test.hpp ****         printString("A: i="); printInt(i); printString("\n");
GAS LISTING /tmp/ccmWRu5m.s 			page 3


  82              		.loc 1 18 5 discriminator 2
  83 0050 13091900 		addi	s2,s2,1
  84              	.LVL8:
  85              	.L7:
  18:test/Threads_C_API_test.hpp ****         printString("A: i="); printInt(i); printString("\n");
  86              		.loc 1 18 26 discriminator 1
  87 0054 93079000 		li	a5,9
  88 0058 63E02705 		bgtu	s2,a5,.L2
  89              	.LBB9:
  19:test/Threads_C_API_test.hpp ****         for (uint64 j = 0; j < 10000; j++) {
  90              		.loc 1 19 9
  19:test/Threads_C_API_test.hpp ****         for (uint64 j = 0; j < 10000; j++) {
  91              		.loc 1 19 20 is_stmt 0
  92 005c 17050000 		lla	a0,.LC0
  92      13050500 
  93 0064 97000000 		call	_Z11printStringPKc@plt
  93      E7800000 
  94              	.LVL9:
  19:test/Threads_C_API_test.hpp ****         for (uint64 j = 0; j < 10000; j++) {
  95              		.loc 1 19 31 is_stmt 1
  19:test/Threads_C_API_test.hpp ****         for (uint64 j = 0; j < 10000; j++) {
  96              		.loc 1 19 39 is_stmt 0
  97 006c 13060000 		li	a2,0
  98 0070 9305A000 		li	a1,10
  99 0074 1B050900 		sext.w	a0,s2
 100 0078 97000000 		call	_Z8printIntiii@plt
 100      E7800000 
 101              	.LVL10:
  19:test/Threads_C_API_test.hpp ****         for (uint64 j = 0; j < 10000; j++) {
 102              		.loc 1 19 44 is_stmt 1
  19:test/Threads_C_API_test.hpp ****         for (uint64 j = 0; j < 10000; j++) {
 103              		.loc 1 19 55 is_stmt 0
 104 0080 17050000 		lla	a0,.LC1
 104      13050500 
 105 0088 97000000 		call	_Z11printStringPKc@plt
 105      E7800000 
 106              	.LVL11:
  20:test/Threads_C_API_test.hpp ****             for (uint64 k = 0; k < 30000; k++) { /* busy wait */ }
 107              		.loc 1 20 9 is_stmt 1
 108              	.LBB8:
  20:test/Threads_C_API_test.hpp ****             for (uint64 k = 0; k < 30000; k++) { /* busy wait */ }
 109              		.loc 1 20 21 is_stmt 0
 110 0090 93040000 		li	s1,0
 111 0094 6FF09FF9 		j	.L6
 112              	.LVL12:
 113              	.L2:
 114              	.LBE8:
 115              	.LBE9:
 116              	.LBE2:
  23:test/Threads_C_API_test.hpp ****         }
  24:test/Threads_C_API_test.hpp ****     }
  25:test/Threads_C_API_test.hpp ****     printString("A finished!\n");
 117              		.loc 1 25 5 is_stmt 1
 118              		.loc 1 25 16 is_stmt 0
 119 0098 17050000 		lla	a0,.LC2
 119      13050500 
 120 00a0 97000000 		call	_Z11printStringPKc@plt
GAS LISTING /tmp/ccmWRu5m.s 			page 4


 120      E7800000 
 121              	.LVL13:
  26:test/Threads_C_API_test.hpp ****     finishedA = true;
 122              		.loc 1 26 5 is_stmt 1
 123              		.loc 1 26 15 is_stmt 0
 124 00a8 93071000 		li	a5,1
 125 00ac 17070000 		sb	a5,.LANCHOR0,a4
 125      2300F700 
  27:test/Threads_C_API_test.hpp **** }
 126              		.loc 1 27 1
 127 00b4 83308101 		ld	ra,24(sp)
 128              		.cfi_restore 1
 129 00b8 03340101 		ld	s0,16(sp)
 130              		.cfi_restore 8
 131              		.cfi_def_cfa 2, 32
 132 00bc 83348100 		ld	s1,8(sp)
 133              		.cfi_restore 9
 134 00c0 03390100 		ld	s2,0(sp)
 135              		.cfi_restore 18
 136              	.LVL14:
 137 00c4 13010102 		addi	sp,sp,32
 138              		.cfi_def_cfa_offset 0
 139 00c8 67800000 		jr	ra
 140              		.cfi_endproc
 141              	.LFE1:
 143              		.section	.rodata.str1.8
 144 001d 000000   		.align	3
 145              	.LC3:
 146 0020 423A2069 		.string	"B: i="
 146      3D00
 147 0026 0000     		.align	3
 148              	.LC4:
 149 0028 42206669 		.string	"B finished!\n"
 149      6E697368 
 149      6564210A 
 149      00
 150              		.text
 151              		.align	2
 152              		.globl	_Z11workerBodyBPv
 154              	_Z11workerBodyBPv:
 155              	.LFB2:
  28:test/Threads_C_API_test.hpp **** 
  29:test/Threads_C_API_test.hpp **** void workerBodyB(void* arg) {
 156              		.loc 1 29 29 is_stmt 1
 157              		.cfi_startproc
 158              	.LVL15:
 159 00cc 130101FE 		addi	sp,sp,-32
 160              		.cfi_def_cfa_offset 32
 161 00d0 233C1100 		sd	ra,24(sp)
 162 00d4 23388100 		sd	s0,16(sp)
 163 00d8 23349100 		sd	s1,8(sp)
 164 00dc 23302101 		sd	s2,0(sp)
 165              		.cfi_offset 1, -8
 166              		.cfi_offset 8, -16
 167              		.cfi_offset 9, -24
 168              		.cfi_offset 18, -32
 169 00e0 13040102 		addi	s0,sp,32
GAS LISTING /tmp/ccmWRu5m.s 			page 5


 170              		.cfi_def_cfa 8, 0
  30:test/Threads_C_API_test.hpp ****     for (uint64 i = 0; i < 16; i++) {
 171              		.loc 1 30 5
 172              	.LVL16:
 173              	.LBB10:
 174              		.loc 1 30 17 is_stmt 0
 175 00e4 13090000 		li	s2,0
 176 00e8 6F008003 		j	.L15
 177              	.LVL17:
 178              	.L12:
 179              	.LBB11:
 180              	.LBB12:
 181              	.LBB13:
  31:test/Threads_C_API_test.hpp ****         printString("B: i="); printInt(i); printString("\n");
  32:test/Threads_C_API_test.hpp ****         for (uint64 j = 0; j < 10000; j++) {
  33:test/Threads_C_API_test.hpp ****             for (uint64 k = 0; k < 30000; k++) { /* busy wait */ }
  34:test/Threads_C_API_test.hpp ****             thread_dispatch();
 182              		.loc 1 34 13 is_stmt 1 discriminator 2
 183              		.loc 1 34 28 is_stmt 0 discriminator 2
 184 00ec 97000000 		call	_Z15thread_dispatchv@plt
 184      E7800000 
 185              	.LVL18:
 186              	.LBE13:
  32:test/Threads_C_API_test.hpp ****             for (uint64 k = 0; k < 30000; k++) { /* busy wait */ }
 187              		.loc 1 32 9 is_stmt 1 discriminator 2
 188 00f4 93841400 		addi	s1,s1,1
 189              	.LVL19:
 190              	.L14:
  32:test/Threads_C_API_test.hpp ****             for (uint64 k = 0; k < 30000; k++) { /* busy wait */ }
 191              		.loc 1 32 30 discriminator 1
 192 00f8 B7270000 		li	a5,8192
 193 00fc 9387F770 		addi	a5,a5,1807
 194 0100 63EE9700 		bgtu	s1,a5,.L11
 195              	.LBB15:
 196              	.LBB14:
  33:test/Threads_C_API_test.hpp ****             thread_dispatch();
 197              		.loc 1 33 25 is_stmt 0
 198 0104 13070000 		li	a4,0
 199              	.L13:
 200              	.LVL20:
  33:test/Threads_C_API_test.hpp ****             thread_dispatch();
 201              		.loc 1 33 34 is_stmt 1 discriminator 3
 202 0108 B7770000 		li	a5,28672
 203 010c 9387F752 		addi	a5,a5,1327
 204 0110 E3EEE7FC 		bgtu	a4,a5,.L12
  33:test/Threads_C_API_test.hpp ****             thread_dispatch();
 205              		.loc 1 33 13 discriminator 2
 206 0114 13071700 		addi	a4,a4,1
 207              	.LVL21:
 208 0118 6FF01FFF 		j	.L13
 209              	.LVL22:
 210              	.L11:
 211              	.LBE14:
 212              	.LBE15:
 213              	.LBE12:
 214              	.LBE11:
  30:test/Threads_C_API_test.hpp ****         printString("B: i="); printInt(i); printString("\n");
GAS LISTING /tmp/ccmWRu5m.s 			page 6


 215              		.loc 1 30 5 discriminator 2
 216 011c 13091900 		addi	s2,s2,1
 217              	.LVL23:
 218              	.L15:
  30:test/Threads_C_API_test.hpp ****         printString("B: i="); printInt(i); printString("\n");
 219              		.loc 1 30 26 discriminator 1
 220 0120 9307F000 		li	a5,15
 221 0124 63E02705 		bgtu	s2,a5,.L10
 222              	.LBB17:
  31:test/Threads_C_API_test.hpp ****         for (uint64 j = 0; j < 10000; j++) {
 223              		.loc 1 31 9
  31:test/Threads_C_API_test.hpp ****         for (uint64 j = 0; j < 10000; j++) {
 224              		.loc 1 31 20 is_stmt 0
 225 0128 17050000 		lla	a0,.LC3
 225      13050500 
 226 0130 97000000 		call	_Z11printStringPKc@plt
 226      E7800000 
 227              	.LVL24:
  31:test/Threads_C_API_test.hpp ****         for (uint64 j = 0; j < 10000; j++) {
 228              		.loc 1 31 31 is_stmt 1
  31:test/Threads_C_API_test.hpp ****         for (uint64 j = 0; j < 10000; j++) {
 229              		.loc 1 31 39 is_stmt 0
 230 0138 13060000 		li	a2,0
 231 013c 9305A000 		li	a1,10
 232 0140 1B050900 		sext.w	a0,s2
 233 0144 97000000 		call	_Z8printIntiii@plt
 233      E7800000 
 234              	.LVL25:
  31:test/Threads_C_API_test.hpp ****         for (uint64 j = 0; j < 10000; j++) {
 235              		.loc 1 31 44 is_stmt 1
  31:test/Threads_C_API_test.hpp ****         for (uint64 j = 0; j < 10000; j++) {
 236              		.loc 1 31 55 is_stmt 0
 237 014c 17050000 		lla	a0,.LC1
 237      13050500 
 238 0154 97000000 		call	_Z11printStringPKc@plt
 238      E7800000 
 239              	.LVL26:
  32:test/Threads_C_API_test.hpp ****             for (uint64 k = 0; k < 30000; k++) { /* busy wait */ }
 240              		.loc 1 32 9 is_stmt 1
 241              	.LBB16:
  32:test/Threads_C_API_test.hpp ****             for (uint64 k = 0; k < 30000; k++) { /* busy wait */ }
 242              		.loc 1 32 21 is_stmt 0
 243 015c 93040000 		li	s1,0
 244 0160 6FF09FF9 		j	.L14
 245              	.LVL27:
 246              	.L10:
 247              	.LBE16:
 248              	.LBE17:
 249              	.LBE10:
  35:test/Threads_C_API_test.hpp ****         }
  36:test/Threads_C_API_test.hpp ****     }
  37:test/Threads_C_API_test.hpp ****     thread_dispatch();
 250              		.loc 1 37 5 is_stmt 1
 251              		.loc 1 37 20 is_stmt 0
 252 0164 97000000 		call	_Z15thread_dispatchv@plt
 252      E7800000 
 253              	.LVL28:
GAS LISTING /tmp/ccmWRu5m.s 			page 7


  38:test/Threads_C_API_test.hpp ****     printString("B finished!\n");
 254              		.loc 1 38 5 is_stmt 1
 255              		.loc 1 38 16 is_stmt 0
 256 016c 17050000 		lla	a0,.LC4
 256      13050500 
 257 0174 97000000 		call	_Z11printStringPKc@plt
 257      E7800000 
 258              	.LVL29:
  39:test/Threads_C_API_test.hpp ****     finishedB = true;
 259              		.loc 1 39 5 is_stmt 1
 260              		.loc 1 39 15 is_stmt 0
 261 017c 93071000 		li	a5,1
 262 0180 17070000 		sb	a5,.LANCHOR0+1,a4
 262      2300F700 
  40:test/Threads_C_API_test.hpp **** }
 263              		.loc 1 40 1
 264 0188 83308101 		ld	ra,24(sp)
 265              		.cfi_restore 1
 266 018c 03340101 		ld	s0,16(sp)
 267              		.cfi_restore 8
 268              		.cfi_def_cfa 2, 32
 269 0190 83348100 		ld	s1,8(sp)
 270              		.cfi_restore 9
 271 0194 03390100 		ld	s2,0(sp)
 272              		.cfi_restore 18
 273              	.LVL30:
 274 0198 13010102 		addi	sp,sp,32
 275              		.cfi_def_cfa_offset 0
 276 019c 67800000 		jr	ra
 277              		.cfi_endproc
 278              	.LFE2:
 280              		.section	.rodata.str1.8
 281 0035 000000   		.align	3
 282              	.LC5:
 283 0038 48656C6C 		.string	"Hello "
 283      6F2000
 284 003f 00       		.align	3
 285              	.LC6:
 286 0040 20210A00 		.string	" !\n"
 287              		.text
 288              		.align	2
 289              		.globl	_Z9sleepyRunPv
 291              	_Z9sleepyRunPv:
 292              	.LFB6:
 293              		.file 2 "test/ThreadSleep_C_API_test.hpp"
   1:test/ThreadSleep_C_API_test.hpp **** //
   2:test/ThreadSleep_C_API_test.hpp **** // Created by os on 4/17/22.
   3:test/ThreadSleep_C_API_test.hpp **** //
   4:test/ThreadSleep_C_API_test.hpp **** 
   5:test/ThreadSleep_C_API_test.hpp **** #ifndef XV6_THREADSLEEP_C_API_TEST_HPP
   6:test/ThreadSleep_C_API_test.hpp **** #define XV6_THREADSLEEP_C_API_TEST_HPP
   7:test/ThreadSleep_C_API_test.hpp **** 
   8:test/ThreadSleep_C_API_test.hpp **** #include "../h/syscall_c.hpp"
   9:test/ThreadSleep_C_API_test.hpp **** 
  10:test/ThreadSleep_C_API_test.hpp **** #include "printing.hpp"
  11:test/ThreadSleep_C_API_test.hpp **** 
  12:test/ThreadSleep_C_API_test.hpp **** bool finished[2];
GAS LISTING /tmp/ccmWRu5m.s 			page 8


  13:test/ThreadSleep_C_API_test.hpp **** 
  14:test/ThreadSleep_C_API_test.hpp **** void sleepyRun(void *arg) {
 294              		.loc 2 14 27 is_stmt 1
 295              		.cfi_startproc
 296              	.LVL31:
 297 01a0 130101FE 		addi	sp,sp,-32
 298              		.cfi_def_cfa_offset 32
 299 01a4 233C1100 		sd	ra,24(sp)
 300 01a8 23388100 		sd	s0,16(sp)
 301 01ac 23349100 		sd	s1,8(sp)
 302 01b0 23302101 		sd	s2,0(sp)
 303              		.cfi_offset 1, -8
 304              		.cfi_offset 8, -16
 305              		.cfi_offset 9, -24
 306              		.cfi_offset 18, -32
 307 01b4 13040102 		addi	s0,sp,32
 308              		.cfi_def_cfa 8, 0
  15:test/ThreadSleep_C_API_test.hpp ****     time_t sleep_time = *((time_t *) arg);
 309              		.loc 2 15 5
 310              		.loc 2 15 12 is_stmt 0
 311 01b8 03390500 		ld	s2,0(a0)
 312              	.LVL32:
  16:test/ThreadSleep_C_API_test.hpp ****     int i = 6;
 313              		.loc 2 16 5 is_stmt 1
 314              		.loc 2 16 9 is_stmt 0
 315 01bc 93046000 		li	s1,6
 316              	.LVL33:
 317              	.L19:
  17:test/ThreadSleep_C_API_test.hpp ****     while (--i > 0) {
 318              		.loc 2 17 5 is_stmt 1
 319              		.loc 2 17 16
 320 01c0 9B84F4FF 		addiw	s1,s1,-1
 321              	.LVL34:
 322 01c4 63549004 		blez	s1,.L18
  18:test/ThreadSleep_C_API_test.hpp **** 
  19:test/ThreadSleep_C_API_test.hpp ****         printString("Hello ");
 323              		.loc 2 19 9
 324              		.loc 2 19 20 is_stmt 0
 325 01c8 17050000 		lla	a0,.LC5
 325      13050500 
 326 01d0 97000000 		call	_Z11printStringPKc@plt
 326      E7800000 
 327              	.LVL35:
  20:test/ThreadSleep_C_API_test.hpp ****         printInt(sleep_time);
 328              		.loc 2 20 9 is_stmt 1
 329              		.loc 2 20 17 is_stmt 0
 330 01d8 13060000 		li	a2,0
 331 01dc 9305A000 		li	a1,10
 332 01e0 1B050900 		sext.w	a0,s2
 333 01e4 97000000 		call	_Z8printIntiii@plt
 333      E7800000 
 334              	.LVL36:
  21:test/ThreadSleep_C_API_test.hpp ****         printString(" !\n");
 335              		.loc 2 21 9 is_stmt 1
 336              		.loc 2 21 20 is_stmt 0
 337 01ec 17050000 		lla	a0,.LC6
 337      13050500 
GAS LISTING /tmp/ccmWRu5m.s 			page 9


 338 01f4 97000000 		call	_Z11printStringPKc@plt
 338      E7800000 
 339              	.LVL37:
  22:test/ThreadSleep_C_API_test.hpp ****         time_sleep(sleep_time);
 340              		.loc 2 22 9 is_stmt 1
 341              		.loc 2 22 19 is_stmt 0
 342 01fc 13050900 		mv	a0,s2
 343 0200 97000000 		call	_Z10time_sleepm@plt
 343      E7800000 
 344              	.LVL38:
  17:test/ThreadSleep_C_API_test.hpp **** 
 345              		.loc 2 17 5
 346 0208 6FF09FFB 		j	.L19
 347              	.L18:
  23:test/ThreadSleep_C_API_test.hpp ****     }
  24:test/ThreadSleep_C_API_test.hpp ****     finished[sleep_time/10-1] = true;
 348              		.loc 2 24 5 is_stmt 1
 349              		.loc 2 24 24 is_stmt 0
 350 020c 9307A000 		li	a5,10
 351 0210 3359F902 		divu	s2,s2,a5
 352              	.LVL39:
 353              		.loc 2 24 27
 354 0214 1309F9FF 		addi	s2,s2,-1
 355              		.loc 2 24 31
 356 0218 97070000 		lla	a5,.LANCHOR0
 356      93870700 
 357 0220 33892701 		add	s2,a5,s2
 358 0224 93071000 		li	a5,1
 359 0228 2304F900 		sb	a5,8(s2)
  25:test/ThreadSleep_C_API_test.hpp **** }
 360              		.loc 2 25 1
 361 022c 83308101 		ld	ra,24(sp)
 362              		.cfi_restore 1
 363 0230 03340101 		ld	s0,16(sp)
 364              		.cfi_restore 8
 365              		.cfi_def_cfa 2, 32
 366 0234 83348100 		ld	s1,8(sp)
 367              		.cfi_restore 9
 368 0238 03390100 		ld	s2,0(sp)
 369              		.cfi_restore 18
 370 023c 13010102 		addi	sp,sp,32
 371              		.cfi_def_cfa_offset 0
 372 0240 67800000 		jr	ra
 373              		.cfi_endproc
 374              	.LFE6:
 376              		.align	2
 377              		.globl	_Z9fibonaccim
 379              	_Z9fibonaccim:
 380              	.LFB0:
  11:test/Threads_C_API_test.hpp ****     if (n == 0 || n == 1) { return n; }
 381              		.loc 1 11 28 is_stmt 1
 382              		.cfi_startproc
 383              	.LVL40:
 384 0244 130101FE 		addi	sp,sp,-32
 385              		.cfi_def_cfa_offset 32
 386 0248 233C1100 		sd	ra,24(sp)
 387 024c 23388100 		sd	s0,16(sp)
GAS LISTING /tmp/ccmWRu5m.s 			page 10


 388 0250 23349100 		sd	s1,8(sp)
 389 0254 23302101 		sd	s2,0(sp)
 390              		.cfi_offset 1, -8
 391              		.cfi_offset 8, -16
 392              		.cfi_offset 9, -24
 393              		.cfi_offset 18, -32
 394 0258 13040102 		addi	s0,sp,32
 395              		.cfi_def_cfa 8, 0
 396 025c 93040500 		mv	s1,a0
  12:test/Threads_C_API_test.hpp ****     if (n % 10 == 0) { thread_dispatch(); }
 397              		.loc 1 12 5
 398 0260 93071000 		li	a5,1
 399 0264 63F8A702 		bleu	a0,a5,.L21
  13:test/Threads_C_API_test.hpp ****     return fibonacci(n - 1) + fibonacci(n - 2);
 400              		.loc 1 13 5
  13:test/Threads_C_API_test.hpp ****     return fibonacci(n - 1) + fibonacci(n - 2);
 401              		.loc 1 13 11 is_stmt 0
 402 0268 9307A000 		li	a5,10
 403 026c B377F502 		remu	a5,a0,a5
  13:test/Threads_C_API_test.hpp ****     return fibonacci(n - 1) + fibonacci(n - 2);
 404              		.loc 1 13 5
 405 0270 638E0702 		beqz	a5,.L26
 406              	.LVL41:
 407              	.L23:
  14:test/Threads_C_API_test.hpp **** }
 408              		.loc 1 14 5 is_stmt 1
  14:test/Threads_C_API_test.hpp **** }
 409              		.loc 1 14 21 is_stmt 0
 410 0274 1385F4FF 		addi	a0,s1,-1
 411 0278 97000000 		call	_Z9fibonaccim
 411      E7800000 
 412              	.LVL42:
 413 0280 13090500 		mv	s2,a0
  14:test/Threads_C_API_test.hpp **** }
 414              		.loc 1 14 40
 415 0284 1385E4FF 		addi	a0,s1,-2
 416 0288 97000000 		call	_Z9fibonaccim
 416      E7800000 
 417              	.LVL43:
  14:test/Threads_C_API_test.hpp **** }
 418              		.loc 1 14 46
 419 0290 3305A900 		add	a0,s2,a0
 420              	.L21:
  15:test/Threads_C_API_test.hpp **** 
 421              		.loc 1 15 1
 422 0294 83308101 		ld	ra,24(sp)
 423              		.cfi_remember_state
 424              		.cfi_restore 1
 425 0298 03340101 		ld	s0,16(sp)
 426              		.cfi_restore 8
 427              		.cfi_def_cfa 2, 32
 428 029c 83348100 		ld	s1,8(sp)
 429              		.cfi_restore 9
 430              	.LVL44:
 431 02a0 03390100 		ld	s2,0(sp)
 432              		.cfi_restore 18
 433 02a4 13010102 		addi	sp,sp,32
GAS LISTING /tmp/ccmWRu5m.s 			page 11


 434              		.cfi_def_cfa_offset 0
 435 02a8 67800000 		jr	ra
 436              	.LVL45:
 437              	.L26:
 438              		.cfi_restore_state
  13:test/Threads_C_API_test.hpp ****     return fibonacci(n - 1) + fibonacci(n - 2);
 439              		.loc 1 13 24 is_stmt 1 discriminator 1
  13:test/Threads_C_API_test.hpp ****     return fibonacci(n - 1) + fibonacci(n - 2);
 440              		.loc 1 13 39 is_stmt 0 discriminator 1
 441 02ac 97000000 		call	_Z15thread_dispatchv@plt
 441      E7800000 
 442              	.LVL46:
 443 02b4 6FF01FFC 		j	.L23
 444              		.cfi_endproc
 445              	.LFE0:
 447              		.section	.rodata.str1.8
 448 0044 00000000 		.align	3
 449              	.LC7:
 450 0048 433A2069 		.string	"C: i="
 450      3D00
 451 004e 0000     		.align	3
 452              	.LC8:
 453 0050 433A2064 		.string	"C: dispatch\n"
 453      69737061 
 453      7463680A 
 453      00
 454 005d 000000   		.align	3
 455              	.LC9:
 456 0060 433A2074 		.string	"C: t1="
 456      313D00
 457 0067 00       		.align	3
 458              	.LC10:
 459 0068 433A2066 		.string	"C: fibonaci="
 459      69626F6E 
 459      6163693D 
 459      00
 460              		.text
 461              		.align	2
 462              		.globl	_Z11workerBodyCPv
 464              	_Z11workerBodyCPv:
 465              	.LFB3:
  41:test/Threads_C_API_test.hpp **** 
  42:test/Threads_C_API_test.hpp **** void workerBodyC(void* arg) {
 466              		.loc 1 42 29 is_stmt 1
 467              		.cfi_startproc
 468              	.LVL47:
 469 02b8 130101FE 		addi	sp,sp,-32
 470              		.cfi_def_cfa_offset 32
 471 02bc 233C1100 		sd	ra,24(sp)
 472 02c0 23388100 		sd	s0,16(sp)
 473 02c4 23349100 		sd	s1,8(sp)
 474 02c8 23302101 		sd	s2,0(sp)
 475              		.cfi_offset 1, -8
 476              		.cfi_offset 8, -16
 477              		.cfi_offset 9, -24
 478              		.cfi_offset 18, -32
 479 02cc 13040102 		addi	s0,sp,32
GAS LISTING /tmp/ccmWRu5m.s 			page 12


 480              		.cfi_def_cfa 8, 0
  43:test/Threads_C_API_test.hpp ****     uint8 i = 0;
 481              		.loc 1 43 5
 482              	.LVL48:
 483              		.loc 1 43 11 is_stmt 0
 484 02d0 93040000 		li	s1,0
 485 02d4 6F000004 		j	.L29
 486              	.LVL49:
 487              	.L33:
  44:test/Threads_C_API_test.hpp ****     for (; i < 3; i++) {
  45:test/Threads_C_API_test.hpp ****         printString("C: i="); printInt(i); printString("\n");
 488              		.loc 1 45 9 is_stmt 1 discriminator 1
 489              		.loc 1 45 20 is_stmt 0 discriminator 1
 490 02d8 17050000 		lla	a0,.LC7
 490      13050500 
 491 02e0 97000000 		call	_Z11printStringPKc@plt
 491      E7800000 
 492              	.LVL50:
 493              		.loc 1 45 31 is_stmt 1 discriminator 1
 494              		.loc 1 45 39 is_stmt 0 discriminator 1
 495 02e8 13060000 		li	a2,0
 496 02ec 9305A000 		li	a1,10
 497 02f0 13850400 		mv	a0,s1
 498 02f4 97000000 		call	_Z8printIntiii@plt
 498      E7800000 
 499              	.LVL51:
 500              		.loc 1 45 44 is_stmt 1 discriminator 1
 501              		.loc 1 45 55 is_stmt 0 discriminator 1
 502 02fc 17050000 		lla	a0,.LC1
 502      13050500 
 503 0304 97000000 		call	_Z11printStringPKc@plt
 503      E7800000 
 504              	.LVL52:
  44:test/Threads_C_API_test.hpp ****     for (; i < 3; i++) {
 505              		.loc 1 44 5 is_stmt 1 discriminator 1
 506 030c 9B841400 		addiw	s1,s1,1
 507              	.LVL53:
 508 0310 93F4F40F 		andi	s1,s1,0xff
 509              	.LVL54:
 510              	.L29:
  44:test/Threads_C_API_test.hpp ****     for (; i < 3; i++) {
 511              		.loc 1 44 5 discriminator 2
  44:test/Threads_C_API_test.hpp ****     for (; i < 3; i++) {
 512              		.loc 1 44 14 discriminator 2
 513 0314 93072000 		li	a5,2
 514 0318 E3F097FC 		bleu	s1,a5,.L33
  46:test/Threads_C_API_test.hpp ****     }
  47:test/Threads_C_API_test.hpp **** 
  48:test/Threads_C_API_test.hpp ****     printString("C: dispatch\n");
 515              		.loc 1 48 5
 516              		.loc 1 48 16 is_stmt 0
 517 031c 17050000 		lla	a0,.LC8
 517      13050500 
 518 0324 97000000 		call	_Z11printStringPKc@plt
 518      E7800000 
 519              	.LVL55:
  49:test/Threads_C_API_test.hpp ****     __asm__ ("li t1, 7");
GAS LISTING /tmp/ccmWRu5m.s 			page 13


 520              		.loc 1 49 5 is_stmt 1
 521              		.loc 1 49 25 is_stmt 0
 522              	#APP
 523              	# 49 "test/Threads_C_API_test.hpp" 1
  50              	    thread_dispatch();
 524              		li t1, 7
 525              	# 0 "" 2
 526              		.loc 1 50 5 is_stmt 1
 527              		.loc 1 50 20 is_stmt 0
 528              	#NO_APP
 529 0330 97000000 		call	_Z15thread_dispatchv@plt
 529      E7800000 
 530              	.LVL56:
  51:test/Threads_C_API_test.hpp **** 
  52:test/Threads_C_API_test.hpp ****     uint64 t1 = 0;
 531              		.loc 1 52 5 is_stmt 1
  53:test/Threads_C_API_test.hpp ****     __asm__ ("mv %[t1], t1" : [t1] "=r"(t1));
 532              		.loc 1 53 5
 533              		.loc 1 53 45 is_stmt 0
 534              	#APP
 535              	# 53 "test/Threads_C_API_test.hpp" 1
  54              	
 536              		mv s2, t1
 537              	# 0 "" 2
 538              	.LVL57:
  55:test/Threads_C_API_test.hpp ****     printString("C: t1="); printInt(t1); printString("\n");
 539              		.loc 1 55 5 is_stmt 1
 540              		.loc 1 55 16 is_stmt 0
 541              	#NO_APP
 542 033c 17050000 		lla	a0,.LC9
 542      13050500 
 543 0344 97000000 		call	_Z11printStringPKc@plt
 543      E7800000 
 544              	.LVL58:
 545              		.loc 1 55 28 is_stmt 1
 546              		.loc 1 55 36 is_stmt 0
 547 034c 13060000 		li	a2,0
 548 0350 9305A000 		li	a1,10
 549 0354 1B050900 		sext.w	a0,s2
 550 0358 97000000 		call	_Z8printIntiii@plt
 550      E7800000 
 551              	.LVL59:
 552              		.loc 1 55 42 is_stmt 1
 553              		.loc 1 55 53 is_stmt 0
 554 0360 17050000 		lla	a0,.LC1
 554      13050500 
 555 0368 97000000 		call	_Z11printStringPKc@plt
 555      E7800000 
 556              	.LVL60:
  56:test/Threads_C_API_test.hpp **** 
  57:test/Threads_C_API_test.hpp ****     uint64 result = fibonacci(12);
 557              		.loc 1 57 5 is_stmt 1
 558              		.loc 1 57 30 is_stmt 0
 559 0370 1305C000 		li	a0,12
 560 0374 97000000 		call	_Z9fibonaccim
 560      E7800000 
 561              	.LVL61:
GAS LISTING /tmp/ccmWRu5m.s 			page 14


 562 037c 13090500 		mv	s2,a0
 563              	.LVL62:
  58:test/Threads_C_API_test.hpp ****     printString("C: fibonaci="); printInt(result); printString("\n");
 564              		.loc 1 58 5 is_stmt 1
 565              		.loc 1 58 16 is_stmt 0
 566 0380 17050000 		lla	a0,.LC10
 566      13050500 
 567              	.LVL63:
 568 0388 97000000 		call	_Z11printStringPKc@plt
 568      E7800000 
 569              	.LVL64:
 570              		.loc 1 58 34 is_stmt 1
 571              		.loc 1 58 42 is_stmt 0
 572 0390 13060000 		li	a2,0
 573 0394 9305A000 		li	a1,10
 574 0398 1B050900 		sext.w	a0,s2
 575 039c 97000000 		call	_Z8printIntiii@plt
 575      E7800000 
 576              	.LVL65:
 577              		.loc 1 58 52 is_stmt 1
 578              		.loc 1 58 63 is_stmt 0
 579 03a4 17050000 		lla	a0,.LC1
 579      13050500 
 580 03ac 97000000 		call	_Z11printStringPKc@plt
 580      E7800000 
 581              	.LVL66:
 582 03b4 6F000004 		j	.L31
 583              	.L34:
  59:test/Threads_C_API_test.hpp **** 
  60:test/Threads_C_API_test.hpp ****     for (; i < 6; i++) {
  61:test/Threads_C_API_test.hpp ****         printString("C: i="); printInt(i); printString("\n");
 584              		.loc 1 61 9 is_stmt 1 discriminator 1
 585              		.loc 1 61 20 is_stmt 0 discriminator 1
 586 03b8 17050000 		lla	a0,.LC7
 586      13050500 
 587 03c0 97000000 		call	_Z11printStringPKc@plt
 587      E7800000 
 588              	.LVL67:
 589              		.loc 1 61 31 is_stmt 1 discriminator 1
 590              		.loc 1 61 39 is_stmt 0 discriminator 1
 591 03c8 13060000 		li	a2,0
 592 03cc 9305A000 		li	a1,10
 593 03d0 13850400 		mv	a0,s1
 594 03d4 97000000 		call	_Z8printIntiii@plt
 594      E7800000 
 595              	.LVL68:
 596              		.loc 1 61 44 is_stmt 1 discriminator 1
 597              		.loc 1 61 55 is_stmt 0 discriminator 1
 598 03dc 17050000 		lla	a0,.LC1
 598      13050500 
 599 03e4 97000000 		call	_Z11printStringPKc@plt
 599      E7800000 
 600              	.LVL69:
  60:test/Threads_C_API_test.hpp ****         printString("C: i="); printInt(i); printString("\n");
 601              		.loc 1 60 5 is_stmt 1 discriminator 1
 602 03ec 9B841400 		addiw	s1,s1,1
 603              	.LVL70:
GAS LISTING /tmp/ccmWRu5m.s 			page 15


 604 03f0 93F4F40F 		andi	s1,s1,0xff
 605              	.LVL71:
 606              	.L31:
  60:test/Threads_C_API_test.hpp ****         printString("C: i="); printInt(i); printString("\n");
 607              		.loc 1 60 5 discriminator 2
  60:test/Threads_C_API_test.hpp ****         printString("C: i="); printInt(i); printString("\n");
 608              		.loc 1 60 14 discriminator 2
 609 03f4 93075000 		li	a5,5
 610 03f8 E3F097FC 		bleu	s1,a5,.L34
  62:test/Threads_C_API_test.hpp ****     }
  63:test/Threads_C_API_test.hpp **** 
  64:test/Threads_C_API_test.hpp ****     thread_dispatch();
 611              		.loc 1 64 5
 612              		.loc 1 64 20 is_stmt 0
 613 03fc 97000000 		call	_Z15thread_dispatchv@plt
 613      E7800000 
 614              	.LVL72:
  65:test/Threads_C_API_test.hpp ****     printString("A finished!\n");
 615              		.loc 1 65 5 is_stmt 1
 616              		.loc 1 65 16 is_stmt 0
 617 0404 17050000 		lla	a0,.LC2
 617      13050500 
 618 040c 97000000 		call	_Z11printStringPKc@plt
 618      E7800000 
 619              	.LVL73:
  66:test/Threads_C_API_test.hpp ****     finishedC = true;
 620              		.loc 1 66 5 is_stmt 1
 621              		.loc 1 66 15 is_stmt 0
 622 0414 93071000 		li	a5,1
 623 0418 17070000 		sb	a5,.LANCHOR0+10,a4
 623      2300F700 
  67:test/Threads_C_API_test.hpp **** }
 624              		.loc 1 67 1
 625 0420 83308101 		ld	ra,24(sp)
 626              		.cfi_restore 1
 627 0424 03340101 		ld	s0,16(sp)
 628              		.cfi_restore 8
 629              		.cfi_def_cfa 2, 32
 630 0428 83348100 		ld	s1,8(sp)
 631              		.cfi_restore 9
 632              	.LVL74:
 633 042c 03390100 		ld	s2,0(sp)
 634              		.cfi_restore 18
 635              	.LVL75:
 636 0430 13010102 		addi	sp,sp,32
 637              		.cfi_def_cfa_offset 0
 638 0434 67800000 		jr	ra
 639              		.cfi_endproc
 640              	.LFE3:
 642              		.section	.rodata.str1.8
 643 0075 000000   		.align	3
 644              	.LC11:
 645 0078 443A2069 		.string	"D: i="
 645      3D00
 646 007e 0000     		.align	3
 647              	.LC12:
 648 0080 443A2064 		.string	"D: dispatch\n"
GAS LISTING /tmp/ccmWRu5m.s 			page 16


 648      69737061 
 648      7463680A 
 648      00
 649 008d 000000   		.align	3
 650              	.LC13:
 651 0090 443A2066 		.string	"D: fibonaci="
 651      69626F6E 
 651      6163693D 
 651      00
 652 009d 000000   		.align	3
 653              	.LC14:
 654 00a0 44206669 		.string	"D finished!\n"
 654      6E697368 
 654      6564210A 
 654      00
 655              		.text
 656              		.align	2
 657              		.globl	_Z11workerBodyDPv
 659              	_Z11workerBodyDPv:
 660              	.LFB4:
  68:test/Threads_C_API_test.hpp **** 
  69:test/Threads_C_API_test.hpp **** void workerBodyD(void* arg) {
 661              		.loc 1 69 29 is_stmt 1
 662              		.cfi_startproc
 663              	.LVL76:
 664 0438 130101FE 		addi	sp,sp,-32
 665              		.cfi_def_cfa_offset 32
 666 043c 233C1100 		sd	ra,24(sp)
 667 0440 23388100 		sd	s0,16(sp)
 668 0444 23349100 		sd	s1,8(sp)
 669 0448 23302101 		sd	s2,0(sp)
 670              		.cfi_offset 1, -8
 671              		.cfi_offset 8, -16
 672              		.cfi_offset 9, -24
 673              		.cfi_offset 18, -32
 674 044c 13040102 		addi	s0,sp,32
 675              		.cfi_def_cfa 8, 0
  70:test/Threads_C_API_test.hpp ****     uint8 i = 10;
 676              		.loc 1 70 5
 677              	.LVL77:
 678              		.loc 1 70 11 is_stmt 0
 679 0450 9304A000 		li	s1,10
 680 0454 6F000004 		j	.L37
 681              	.LVL78:
 682              	.L41:
  71:test/Threads_C_API_test.hpp ****     for (; i < 13; i++) {
  72:test/Threads_C_API_test.hpp ****         printString("D: i="); printInt(i); printString("\n");
 683              		.loc 1 72 9 is_stmt 1 discriminator 1
 684              		.loc 1 72 20 is_stmt 0 discriminator 1
 685 0458 17050000 		lla	a0,.LC11
 685      13050500 
 686 0460 97000000 		call	_Z11printStringPKc@plt
 686      E7800000 
 687              	.LVL79:
 688              		.loc 1 72 31 is_stmt 1 discriminator 1
 689              		.loc 1 72 39 is_stmt 0 discriminator 1
 690 0468 13060000 		li	a2,0
GAS LISTING /tmp/ccmWRu5m.s 			page 17


 691 046c 9305A000 		li	a1,10
 692 0470 13850400 		mv	a0,s1
 693 0474 97000000 		call	_Z8printIntiii@plt
 693      E7800000 
 694              	.LVL80:
 695              		.loc 1 72 44 is_stmt 1 discriminator 1
 696              		.loc 1 72 55 is_stmt 0 discriminator 1
 697 047c 17050000 		lla	a0,.LC1
 697      13050500 
 698 0484 97000000 		call	_Z11printStringPKc@plt
 698      E7800000 
 699              	.LVL81:
  71:test/Threads_C_API_test.hpp ****     for (; i < 13; i++) {
 700              		.loc 1 71 5 is_stmt 1 discriminator 1
 701 048c 9B841400 		addiw	s1,s1,1
 702              	.LVL82:
 703 0490 93F4F40F 		andi	s1,s1,0xff
 704              	.LVL83:
 705              	.L37:
  71:test/Threads_C_API_test.hpp ****     for (; i < 13; i++) {
 706              		.loc 1 71 5 discriminator 2
  71:test/Threads_C_API_test.hpp ****     for (; i < 13; i++) {
 707              		.loc 1 71 14 discriminator 2
 708 0494 9307C000 		li	a5,12
 709 0498 E3F097FC 		bleu	s1,a5,.L41
  73:test/Threads_C_API_test.hpp ****     }
  74:test/Threads_C_API_test.hpp **** 
  75:test/Threads_C_API_test.hpp ****     printString("D: dispatch\n");
 710              		.loc 1 75 5
 711              		.loc 1 75 16 is_stmt 0
 712 049c 17050000 		lla	a0,.LC12
 712      13050500 
 713 04a4 97000000 		call	_Z11printStringPKc@plt
 713      E7800000 
 714              	.LVL84:
  76:test/Threads_C_API_test.hpp ****     __asm__ ("li t1, 5");
 715              		.loc 1 76 5 is_stmt 1
 716              		.loc 1 76 25 is_stmt 0
 717              	#APP
 718              	# 76 "test/Threads_C_API_test.hpp" 1
  77              	    thread_dispatch();
 719              		li t1, 5
 720              	# 0 "" 2
 721              		.loc 1 77 5 is_stmt 1
 722              		.loc 1 77 20 is_stmt 0
 723              	#NO_APP
 724 04b0 97000000 		call	_Z15thread_dispatchv@plt
 724      E7800000 
 725              	.LVL85:
  78:test/Threads_C_API_test.hpp **** 
  79:test/Threads_C_API_test.hpp ****     uint64 result = fibonacci(16);
 726              		.loc 1 79 5 is_stmt 1
 727              		.loc 1 79 30 is_stmt 0
 728 04b8 13050001 		li	a0,16
 729 04bc 97000000 		call	_Z9fibonaccim
 729      E7800000 
 730              	.LVL86:
GAS LISTING /tmp/ccmWRu5m.s 			page 18


 731 04c4 13090500 		mv	s2,a0
 732              	.LVL87:
  80:test/Threads_C_API_test.hpp ****     printString("D: fibonaci="); printInt(result); printString("\n");
 733              		.loc 1 80 5 is_stmt 1
 734              		.loc 1 80 16 is_stmt 0
 735 04c8 17050000 		lla	a0,.LC13
 735      13050500 
 736              	.LVL88:
 737 04d0 97000000 		call	_Z11printStringPKc@plt
 737      E7800000 
 738              	.LVL89:
 739              		.loc 1 80 34 is_stmt 1
 740              		.loc 1 80 42 is_stmt 0
 741 04d8 13060000 		li	a2,0
 742 04dc 9305A000 		li	a1,10
 743 04e0 1B050900 		sext.w	a0,s2
 744 04e4 97000000 		call	_Z8printIntiii@plt
 744      E7800000 
 745              	.LVL90:
 746              		.loc 1 80 52 is_stmt 1
 747              		.loc 1 80 63 is_stmt 0
 748 04ec 17050000 		lla	a0,.LC1
 748      13050500 
 749 04f4 97000000 		call	_Z11printStringPKc@plt
 749      E7800000 
 750              	.LVL91:
 751 04fc 6F000004 		j	.L39
 752              	.L42:
  81:test/Threads_C_API_test.hpp **** 
  82:test/Threads_C_API_test.hpp ****     for (; i < 16; i++) {
  83:test/Threads_C_API_test.hpp ****         printString("D: i="); printInt(i); printString("\n");
 753              		.loc 1 83 9 is_stmt 1 discriminator 1
 754              		.loc 1 83 20 is_stmt 0 discriminator 1
 755 0500 17050000 		lla	a0,.LC11
 755      13050500 
 756 0508 97000000 		call	_Z11printStringPKc@plt
 756      E7800000 
 757              	.LVL92:
 758              		.loc 1 83 31 is_stmt 1 discriminator 1
 759              		.loc 1 83 39 is_stmt 0 discriminator 1
 760 0510 13060000 		li	a2,0
 761 0514 9305A000 		li	a1,10
 762 0518 13850400 		mv	a0,s1
 763 051c 97000000 		call	_Z8printIntiii@plt
 763      E7800000 
 764              	.LVL93:
 765              		.loc 1 83 44 is_stmt 1 discriminator 1
 766              		.loc 1 83 55 is_stmt 0 discriminator 1
 767 0524 17050000 		lla	a0,.LC1
 767      13050500 
 768 052c 97000000 		call	_Z11printStringPKc@plt
 768      E7800000 
 769              	.LVL94:
  82:test/Threads_C_API_test.hpp ****         printString("D: i="); printInt(i); printString("\n");
 770              		.loc 1 82 5 is_stmt 1 discriminator 1
 771 0534 9B841400 		addiw	s1,s1,1
 772              	.LVL95:
GAS LISTING /tmp/ccmWRu5m.s 			page 19


 773 0538 93F4F40F 		andi	s1,s1,0xff
 774              	.LVL96:
 775              	.L39:
  82:test/Threads_C_API_test.hpp ****         printString("D: i="); printInt(i); printString("\n");
 776              		.loc 1 82 5 discriminator 2
  82:test/Threads_C_API_test.hpp ****         printString("D: i="); printInt(i); printString("\n");
 777              		.loc 1 82 14 discriminator 2
 778 053c 9307F000 		li	a5,15
 779 0540 E3F097FC 		bleu	s1,a5,.L42
  84:test/Threads_C_API_test.hpp ****     }
  85:test/Threads_C_API_test.hpp **** 
  86:test/Threads_C_API_test.hpp ****     thread_dispatch();
 780              		.loc 1 86 5
 781              		.loc 1 86 20 is_stmt 0
 782 0544 97000000 		call	_Z15thread_dispatchv@plt
 782      E7800000 
 783              	.LVL97:
  87:test/Threads_C_API_test.hpp ****     printString("D finished!\n");
 784              		.loc 1 87 5 is_stmt 1
 785              		.loc 1 87 16 is_stmt 0
 786 054c 17050000 		lla	a0,.LC14
 786      13050500 
 787 0554 97000000 		call	_Z11printStringPKc@plt
 787      E7800000 
 788              	.LVL98:
  88:test/Threads_C_API_test.hpp ****     finishedD = true;
 789              		.loc 1 88 5 is_stmt 1
 790              		.loc 1 88 15 is_stmt 0
 791 055c 93071000 		li	a5,1
 792 0560 17070000 		sb	a5,.LANCHOR0+11,a4
 792      2300F700 
  89:test/Threads_C_API_test.hpp **** }
 793              		.loc 1 89 1
 794 0568 83308101 		ld	ra,24(sp)
 795              		.cfi_restore 1
 796 056c 03340101 		ld	s0,16(sp)
 797              		.cfi_restore 8
 798              		.cfi_def_cfa 2, 32
 799 0570 83348100 		ld	s1,8(sp)
 800              		.cfi_restore 9
 801              	.LVL99:
 802 0574 03390100 		ld	s2,0(sp)
 803              		.cfi_restore 18
 804              	.LVL100:
 805 0578 13010102 		addi	sp,sp,32
 806              		.cfi_def_cfa_offset 0
 807 057c 67800000 		jr	ra
 808              		.cfi_endproc
 809              	.LFE4:
 811              		.section	.rodata.str1.8
 812 00ad 000000   		.align	3
 813              	.LC15:
 814 00b0 54687265 		.string	"ThreadA created\n"
 814      61644120 
 814      63726561 
 814      7465640A 
 814      00
GAS LISTING /tmp/ccmWRu5m.s 			page 20


 815 00c1 00000000 		.align	3
 815      000000
 816              	.LC16:
 817 00c8 54687265 		.string	"ThreadB created\n"
 817      61644220 
 817      63726561 
 817      7465640A 
 817      00
 818 00d9 00000000 		.align	3
 818      000000
 819              	.LC17:
 820 00e0 54687265 		.string	"ThreadC created\n"
 820      61644320 
 820      63726561 
 820      7465640A 
 820      00
 821 00f1 00000000 		.align	3
 821      000000
 822              	.LC18:
 823 00f8 54687265 		.string	"ThreadD created\n"
 823      61644420 
 823      63726561 
 823      7465640A 
 823      00
 824              		.text
 825              		.align	2
 826              		.globl	_Z18Threads_C_API_testv
 828              	_Z18Threads_C_API_testv:
 829              	.LFB5:
  90:test/Threads_C_API_test.hpp **** 
  91:test/Threads_C_API_test.hpp **** 
  92:test/Threads_C_API_test.hpp **** void Threads_C_API_test() {
 830              		.loc 1 92 27 is_stmt 1
 831              		.cfi_startproc
 832 0580 130101FC 		addi	sp,sp,-64
 833              		.cfi_def_cfa_offset 64
 834 0584 233C1102 		sd	ra,56(sp)
 835 0588 23388102 		sd	s0,48(sp)
 836 058c 23349102 		sd	s1,40(sp)
 837              		.cfi_offset 1, -8
 838              		.cfi_offset 8, -16
 839              		.cfi_offset 9, -24
 840 0590 13040104 		addi	s0,sp,64
 841              		.cfi_def_cfa 8, 0
  93:test/Threads_C_API_test.hpp ****     thread_t threads[4];
 842              		.loc 1 93 5
  94:test/Threads_C_API_test.hpp ****     thread_create(&threads[0], workerBodyA, nullptr);
 843              		.loc 1 94 5
 844              		.loc 1 94 18 is_stmt 0
 845 0594 13060000 		li	a2,0
 846 0598 97050000 		lla	a1,_Z11workerBodyAPv
 846      93850500 
 847 05a0 130504FC 		addi	a0,s0,-64
 848 05a4 97000000 		call	_Z13thread_createPP7_threadPFvPvES2_@plt
 848      E7800000 
 849              	.LVL101:
  95:test/Threads_C_API_test.hpp ****     printString("ThreadA created\n");
GAS LISTING /tmp/ccmWRu5m.s 			page 21


 850              		.loc 1 95 5 is_stmt 1
 851              		.loc 1 95 16 is_stmt 0
 852 05ac 17050000 		lla	a0,.LC15
 852      13050500 
 853 05b4 97000000 		call	_Z11printStringPKc@plt
 853      E7800000 
 854              	.LVL102:
  96:test/Threads_C_API_test.hpp **** 
  97:test/Threads_C_API_test.hpp ****     thread_create(&threads[1], workerBodyB, nullptr);
 855              		.loc 1 97 5 is_stmt 1
 856              		.loc 1 97 18 is_stmt 0
 857 05bc 13060000 		li	a2,0
 858 05c0 97050000 		lla	a1,_Z11workerBodyBPv
 858      93850500 
 859 05c8 130584FC 		addi	a0,s0,-56
 860 05cc 97000000 		call	_Z13thread_createPP7_threadPFvPvES2_@plt
 860      E7800000 
 861              	.LVL103:
  98:test/Threads_C_API_test.hpp ****     printString("ThreadB created\n");
 862              		.loc 1 98 5 is_stmt 1
 863              		.loc 1 98 16 is_stmt 0
 864 05d4 17050000 		lla	a0,.LC16
 864      13050500 
 865 05dc 97000000 		call	_Z11printStringPKc@plt
 865      E7800000 
 866              	.LVL104:
  99:test/Threads_C_API_test.hpp **** 
 100:test/Threads_C_API_test.hpp ****     thread_create(&threads[2], workerBodyC, nullptr);
 867              		.loc 1 100 5 is_stmt 1
 868              		.loc 1 100 18 is_stmt 0
 869 05e4 13060000 		li	a2,0
 870 05e8 97050000 		lla	a1,_Z11workerBodyCPv
 870      93850500 
 871 05f0 130504FD 		addi	a0,s0,-48
 872 05f4 97000000 		call	_Z13thread_createPP7_threadPFvPvES2_@plt
 872      E7800000 
 873              	.LVL105:
 101:test/Threads_C_API_test.hpp ****     printString("ThreadC created\n");
 874              		.loc 1 101 5 is_stmt 1
 875              		.loc 1 101 16 is_stmt 0
 876 05fc 17050000 		lla	a0,.LC17
 876      13050500 
 877 0604 97000000 		call	_Z11printStringPKc@plt
 877      E7800000 
 878              	.LVL106:
 102:test/Threads_C_API_test.hpp **** 
 103:test/Threads_C_API_test.hpp ****     thread_create(&threads[3], workerBodyD, nullptr);
 879              		.loc 1 103 5 is_stmt 1
 880              		.loc 1 103 18 is_stmt 0
 881 060c 13060000 		li	a2,0
 882 0610 97050000 		lla	a1,_Z11workerBodyDPv
 882      93850500 
 883 0618 130584FD 		addi	a0,s0,-40
 884 061c 97000000 		call	_Z13thread_createPP7_threadPFvPvES2_@plt
 884      E7800000 
 885              	.LVL107:
 104:test/Threads_C_API_test.hpp ****     printString("ThreadD created\n");
GAS LISTING /tmp/ccmWRu5m.s 			page 22


 886              		.loc 1 104 5 is_stmt 1
 887              		.loc 1 104 16 is_stmt 0
 888 0624 17050000 		lla	a0,.LC18
 888      13050500 
 889 062c 97000000 		call	_Z11printStringPKc@plt
 889      E7800000 
 890              	.LVL108:
 891 0634 6F00C000 		j	.L46
 892              	.L44:
 105:test/Threads_C_API_test.hpp **** 
 106:test/Threads_C_API_test.hpp ****     while (!(finishedA && finishedB && finishedC && finishedD)) {
 107:test/Threads_C_API_test.hpp ****         thread_dispatch();
 893              		.loc 1 107 9 is_stmt 1
 894              		.loc 1 107 24 is_stmt 0
 895 0638 97000000 		call	_Z15thread_dispatchv@plt
 895      E7800000 
 896              	.LVL109:
 897              	.L46:
 106:test/Threads_C_API_test.hpp ****         thread_dispatch();
 898              		.loc 1 106 5 is_stmt 1
 106:test/Threads_C_API_test.hpp ****         thread_dispatch();
 899              		.loc 1 106 12
 900 0640 97070000 		lbu	a5,.LANCHOR0
 900      83C70700 
 901 0648 E38807FE 		beqz	a5,.L44
 106:test/Threads_C_API_test.hpp ****         thread_dispatch();
 902              		.loc 1 106 24 is_stmt 0 discriminator 1
 903 064c 97070000 		lbu	a5,.LANCHOR0+1
 903      83C70700 
 904 0654 E38207FE 		beqz	a5,.L44
 106:test/Threads_C_API_test.hpp ****         thread_dispatch();
 905              		.loc 1 106 37 discriminator 2
 906 0658 97070000 		lbu	a5,.LANCHOR0+10
 906      83C70700 
 907 0660 E38C07FC 		beqz	a5,.L44
 106:test/Threads_C_API_test.hpp ****         thread_dispatch();
 908              		.loc 1 106 12 discriminator 3
 909 0664 97070000 		lbu	a5,.LANCHOR0+11
 909      83C70700 
 910 066c E38607FC 		beqz	a5,.L44
 911              	.LBB18:
 108:test/Threads_C_API_test.hpp ****     }
 109:test/Threads_C_API_test.hpp **** 
 110:test/Threads_C_API_test.hpp ****     for (auto &thread: threads) { delete thread; }
 912              		.loc 1 110 24
 913 0670 930404FC 		addi	s1,s0,-64
 914 0674 6F008000 		j	.L45
 915              	.LVL110:
 916              	.L48:
 917              		.loc 1 110 5 is_stmt 1 discriminator 4
 918 0678 93848400 		addi	s1,s1,8
 919              	.LVL111:
 920              	.L45:
 921              		.loc 1 110 24 discriminator 5
 922 067c 930704FE 		addi	a5,s0,-32
 923 0680 638CF400 		beq	s1,a5,.L43
 924              	.LVL112:
GAS LISTING /tmp/ccmWRu5m.s 			page 23


 925              		.loc 1 110 35 discriminator 2
 926              		.loc 1 110 42 is_stmt 0 discriminator 2
 927 0684 03B50400 		ld	a0,0(s1)
 928              		.loc 1 110 48 discriminator 2
 929 0688 E30805FE 		beqz	a0,.L48
 930              		.loc 1 110 42 discriminator 3
 931 068c 97000000 		call	_ZN7_threaddlEPv@plt
 931      E7800000 
 932              	.LVL113:
 933 0694 6FF05FFE 		j	.L48
 934              	.LVL114:
 935              	.L43:
 936              	.LBE18:
 111:test/Threads_C_API_test.hpp **** }
 937              		.loc 1 111 1
 938 0698 83308103 		ld	ra,56(sp)
 939              		.cfi_restore 1
 940 069c 03340103 		ld	s0,48(sp)
 941              		.cfi_restore 8
 942              		.cfi_def_cfa 2, 64
 943 06a0 83348102 		ld	s1,40(sp)
 944              		.cfi_restore 9
 945              	.LVL115:
 946 06a4 13010104 		addi	sp,sp,64
 947              		.cfi_def_cfa_offset 0
 948 06a8 67800000 		jr	ra
 949              		.cfi_endproc
 950              	.LFE5:
 952              		.align	2
 953              		.globl	_Z12testSleepingv
 955              	_Z12testSleepingv:
 956              	.LFB7:
  26:test/ThreadSleep_C_API_test.hpp **** 
  27:test/ThreadSleep_C_API_test.hpp **** void testSleeping() {
 957              		.loc 2 27 21 is_stmt 1
 958              		.cfi_startproc
 959 06ac 130101FC 		addi	sp,sp,-64
 960              		.cfi_def_cfa_offset 64
 961 06b0 233C1102 		sd	ra,56(sp)
 962 06b4 23388102 		sd	s0,48(sp)
 963 06b8 23349102 		sd	s1,40(sp)
 964              		.cfi_offset 1, -8
 965              		.cfi_offset 8, -16
 966              		.cfi_offset 9, -24
 967 06bc 13040104 		addi	s0,sp,64
 968              		.cfi_def_cfa 8, 0
  28:test/ThreadSleep_C_API_test.hpp ****     const int sleepy_thread_count = 2;
 969              		.loc 2 28 5
 970              	.LVL116:
  29:test/ThreadSleep_C_API_test.hpp ****     time_t sleep_times[sleepy_thread_count] = {10, 20};
 971              		.loc 2 29 5
 972              		.loc 2 29 12 is_stmt 0
 973 06c0 9307A000 		li	a5,10
 974 06c4 2338F4FC 		sd	a5,-48(s0)
 975 06c8 93074001 		li	a5,20
 976 06cc 233CF4FC 		sd	a5,-40(s0)
  30:test/ThreadSleep_C_API_test.hpp ****     thread_t sleepyThread[sleepy_thread_count];
GAS LISTING /tmp/ccmWRu5m.s 			page 24


 977              		.loc 2 30 5 is_stmt 1
  31:test/ThreadSleep_C_API_test.hpp **** 
  32:test/ThreadSleep_C_API_test.hpp ****     for (int i = 0; i < sleepy_thread_count; i++) {
 978              		.loc 2 32 5
 979              	.LVL117:
 980              	.LBB19:
 981              		.loc 2 32 14 is_stmt 0
 982 06d0 93040000 		li	s1,0
 983 06d4 6F00C002 		j	.L53
 984              	.LVL118:
 985              	.L56:
  33:test/ThreadSleep_C_API_test.hpp ****         thread_create(&sleepyThread[i], sleepyRun, sleep_times + i);
 986              		.loc 2 33 9 is_stmt 1
 987              		.loc 2 33 64 is_stmt 0
 988 06d8 93973400 		slli	a5,s1,3
 989              		.loc 2 33 22
 990 06dc 130604FD 		addi	a2,s0,-48
 991 06e0 3306F600 		add	a2,a2,a5
 992 06e4 97050000 		lla	a1,_Z9sleepyRunPv
 992      93850500 
 993 06ec 130504FC 		addi	a0,s0,-64
 994 06f0 3305F500 		add	a0,a0,a5
 995 06f4 97000000 		call	_Z13thread_createPP7_threadPFvPvES2_@plt
 995      E7800000 
 996              	.LVL119:
  32:test/ThreadSleep_C_API_test.hpp ****         thread_create(&sleepyThread[i], sleepyRun, sleep_times + i);
 997              		.loc 2 32 5 is_stmt 1
 998 06fc 9B841400 		addiw	s1,s1,1
 999              	.LVL120:
 1000              	.L53:
  32:test/ThreadSleep_C_API_test.hpp ****         thread_create(&sleepyThread[i], sleepyRun, sleep_times + i);
 1001              		.loc 2 32 23 discriminator 1
 1002 0700 93071000 		li	a5,1
 1003 0704 E3DA97FC 		ble	s1,a5,.L56
 1004              	.L54:
 1005              	.LBE19:
  34:test/ThreadSleep_C_API_test.hpp ****     }
  35:test/ThreadSleep_C_API_test.hpp **** 
  36:test/ThreadSleep_C_API_test.hpp ****     while (!(finished[0] && finished[1])) {}
 1006              		.loc 2 36 5
 1007              		.loc 2 36 12
 1008              		.loc 2 36 24 is_stmt 0
 1009 0708 97070000 		lbu	a5,.LANCHOR0+8
 1009      83C70700 
 1010              		.loc 2 36 12
 1011 0710 E38C07FE 		beqz	a5,.L54
 1012              		.loc 2 36 39 discriminator 1
 1013 0714 97070000 		lbu	a5,.LANCHOR0+9
 1013      83C70700 
 1014              		.loc 2 36 12 discriminator 1
 1015 071c E38607FE 		beqz	a5,.L54
  37:test/ThreadSleep_C_API_test.hpp **** }
 1016              		.loc 2 37 1
 1017 0720 83308103 		ld	ra,56(sp)
 1018              		.cfi_restore 1
 1019 0724 03340103 		ld	s0,48(sp)
 1020              		.cfi_restore 8
GAS LISTING /tmp/ccmWRu5m.s 			page 25


 1021              		.cfi_def_cfa 2, 64
 1022 0728 83348102 		ld	s1,40(sp)
 1023              		.cfi_restore 9
 1024              	.LVL121:
 1025 072c 13010104 		addi	sp,sp,64
 1026              		.cfi_def_cfa_offset 0
 1027 0730 67800000 		jr	ra
 1028              		.cfi_endproc
 1029              	.LFE7:
 1031              		.align	2
 1032              		.globl	_Z8userMainv
 1034              	_Z8userMainv:
 1035              	.LFB8:
 1036              		.file 3 "test/userMain.cpp"
   1:test/userMain.cpp **** //
   2:test/userMain.cpp **** // Created by os on 5/16/22.
   3:test/userMain.cpp **** //
   4:test/userMain.cpp **** 
   5:test/userMain.cpp **** //#include "userMain.hpp"
   6:test/userMain.cpp **** #include "Threads_C_API_test.hpp" // zadatak 2, niti C API i sinhrona promena konteksta
   7:test/userMain.cpp **** //#include "Threads_CPP_API_test.hpp" // zadatak 2., niti CPP API i sinhrona promena konteksta
   8:test/userMain.cpp **** 
   9:test/userMain.cpp **** //#include "ConsumerProducer_C_API_test.hpp" // zadatak 3., kompletan C API sa semaforima, sinhrona
  10:test/userMain.cpp **** //#include "ConsumerProducer_CPP_Sync_API_test.hpp" // zadatak 3., kompletan CPP API sa semaforima,
  11:test/userMain.cpp **** 
  12:test/userMain.cpp **** #include "ThreadSleep_C_API_test.hpp" // thread_sleep test C API
  13:test/userMain.cpp **** //#include "ConsumerProducer_CPP_API_test.hpp" // zadatak 4. CPP API i asinhrona promena konteksta
  14:test/userMain.cpp **** 
  15:test/userMain.cpp **** void userMain()
  16:test/userMain.cpp **** {
 1037              		.loc 3 16 1 is_stmt 1
 1038              		.cfi_startproc
 1039 0734 130101FF 		addi	sp,sp,-16
 1040              		.cfi_def_cfa_offset 16
 1041 0738 23341100 		sd	ra,8(sp)
 1042 073c 23308100 		sd	s0,0(sp)
 1043              		.cfi_offset 1, -8
 1044              		.cfi_offset 8, -16
 1045 0740 13040101 		addi	s0,sp,16
 1046              		.cfi_def_cfa 8, 0
  17:test/userMain.cpp ****     //__asm__ volatile("csrr a0, sstatus"); // test for changing privilege
  18:test/userMain.cpp **** 
  19:test/userMain.cpp ****     //Threads_C_API_test(); // zadatak 2., niti C API i sinhrona promena konteksta
  20:test/userMain.cpp ****     //Threads_CPP_API_test(); // zadatak 2., niti CPP API i sinhrona promena konteksta
  21:test/userMain.cpp **** 
  22:test/userMain.cpp ****     //producerConsumer_C_API(); // zadatak 3., kompletan C API sa semaforima, sinhrona promena kont
  23:test/userMain.cpp ****     //producerConsumer_CPP_Sync_API(); // zadatak 3., kompletan CPP API sa semaforima, sinhrona pro
  24:test/userMain.cpp **** 
  25:test/userMain.cpp ****     testSleeping(); // thread_sleep test C API
 1047              		.loc 3 25 5
 1048              		.loc 3 25 17 is_stmt 0
 1049 0744 97000000 		call	_Z12testSleepingv
 1049      E7800000 
 1050              	.LVL122:
  26:test/userMain.cpp ****     //ConsumerProducerCPP::testConsumerProducer(); // zadatak 4. CPP API i asinhrona promena kontek
  27:test/userMain.cpp **** }...
 1051              		.loc 3 27 1
GAS LISTING /tmp/ccmWRu5m.s 			page 26


 1052 074c 83308100 		ld	ra,8(sp)
 1053              		.cfi_restore 1
 1054 0750 03340100 		ld	s0,0(sp)
 1055              		.cfi_restore 8
 1056              		.cfi_def_cfa 2, 16
 1057 0754 13010101 		addi	sp,sp,16
 1058              		.cfi_def_cfa_offset 0
 1059 0758 67800000 		jr	ra
 1060              		.cfi_endproc
 1061              	.LFE8:
 1063              		.globl	finished
 1064              		.globl	finishedD
 1065              		.globl	finishedC
 1066              		.globl	finishedB
 1067              		.globl	finishedA
 1068              		.bss
 1069              		.align	3
 1070              		.set	.LANCHOR0,. + 0
 1073              	finishedA:
 1074 0000 00       		.zero	1
 1077              	finishedB:
 1078 0001 00       		.zero	1
 1079 0002 00000000 		.zero	6
 1079      0000
 1082              	finished:
 1083 0008 0000     		.zero	2
 1086              	finishedC:
 1087 000a 00       		.zero	1
 1090              	finishedD:
 1091 000b 00       		.zero	1
 1092              		.text
 1093              	.Letext0:
 1094              		.file 4 "test/../h/../lib/hw.h"
 1095              		.file 5 "test/../h/syscall_c.hpp"
 1096              		.file 6 "test/printing.hpp"
 1097              		.file 7 "test/../h/_thread.hpp"
GAS LISTING /tmp/ccmWRu5m.s 			page 27

