GAS LISTING /tmp/ccTm4qf0.s 			page 1


   1              		.file	"userMain.cpp"
   2              		.option pic
   3              		.option norelax
   4              		.text
   5              	.Ltext0:
   6              		.section	.rodata.str1.8,"aMS",@progbits,1
   7              		.align	3
   8              	.LC0:
   9 0000 413A2069 		.string	"A: i="
   9      3D00
  10 0006 0000     		.align	3
  11              	.LC1:
  12 0008 0A00     		.string	"\n"
  13 000a 00000000 		.align	3
  13      0000
  14              	.LC2:
  15 0010 41206669 		.string	"A finished!\n"
  15      6E697368 
  15      6564210A 
  15      00
  16              		.text
  17              		.align	2
  18              		.globl	_Z11workerBodyAPv
  20              	_Z11workerBodyAPv:
  21              	.LFB1:
  22              		.file 1 "test/Threads_C_API_test.hpp"
   1:test/Threads_C_API_test.hpp **** #ifndef XV6_THREADS_C_API_TEST_HPP
   2:test/Threads_C_API_test.hpp **** #define XV6_THREADS_C_API_TEST_HPP
   3:test/Threads_C_API_test.hpp **** 
   4:test/Threads_C_API_test.hpp **** #include "printing.hpp"
   5:test/Threads_C_API_test.hpp **** 
   6:test/Threads_C_API_test.hpp **** bool finishedA = false;
   7:test/Threads_C_API_test.hpp **** bool finishedB = false;
   8:test/Threads_C_API_test.hpp **** bool finishedC = false;
   9:test/Threads_C_API_test.hpp **** bool finishedD = false;
  10:test/Threads_C_API_test.hpp **** 
  11:test/Threads_C_API_test.hpp **** uint64 fibonacci(uint64 n) {
  12:test/Threads_C_API_test.hpp ****     if (n == 0 || n == 1) { return n; }
  13:test/Threads_C_API_test.hpp ****     if (n % 10 == 0) { thread_dispatch(); }
  14:test/Threads_C_API_test.hpp ****     return fibonacci(n - 1) + fibonacci(n - 2);
  15:test/Threads_C_API_test.hpp **** }
  16:test/Threads_C_API_test.hpp **** 
  17:test/Threads_C_API_test.hpp **** void workerBodyA(void* arg) {
  23              		.loc 1 17 29
  24              		.cfi_startproc
  25              	.LVL0:
  26 0000 130101FE 		addi	sp,sp,-32
  27              		.cfi_def_cfa_offset 32
  28 0004 233C1100 		sd	ra,24(sp)
  29 0008 23388100 		sd	s0,16(sp)
  30 000c 23349100 		sd	s1,8(sp)
  31 0010 23302101 		sd	s2,0(sp)
  32              		.cfi_offset 1, -8
  33              		.cfi_offset 8, -16
  34              		.cfi_offset 9, -24
  35              		.cfi_offset 18, -32
  36 0014 13040102 		addi	s0,sp,32
GAS LISTING /tmp/ccTm4qf0.s 			page 2


  37              		.cfi_def_cfa 8, 0
  18:test/Threads_C_API_test.hpp ****     for (uint64 i = 0; i < 10; i++) {
  38              		.loc 1 18 5
  39              	.LVL1:
  40              	.LBB2:
  41              		.loc 1 18 17 is_stmt 0
  42 0018 13090000 		li	s2,0
  43 001c 6F008003 		j	.L7
  44              	.LVL2:
  45              	.L4:
  46              	.LBB3:
  47              	.LBB4:
  48              	.LBB5:
  19:test/Threads_C_API_test.hpp ****         printString("A: i="); printInt(i); printString("\n");
  20:test/Threads_C_API_test.hpp ****         for (uint64 j = 0; j < 10000; j++) {
  21:test/Threads_C_API_test.hpp ****             for (uint64 k = 0; k < 30000; k++) { /* busy wait */ }
  22:test/Threads_C_API_test.hpp ****             thread_dispatch();
  49              		.loc 1 22 13 is_stmt 1 discriminator 2
  50              		.loc 1 22 28 is_stmt 0 discriminator 2
  51 0020 97000000 		call	_Z15thread_dispatchv@plt
  51      E7800000 
  52              	.LVL3:
  53              	.LBE5:
  20:test/Threads_C_API_test.hpp ****             for (uint64 k = 0; k < 30000; k++) { /* busy wait */ }
  54              		.loc 1 20 9 is_stmt 1 discriminator 2
  55 0028 93841400 		addi	s1,s1,1
  56              	.LVL4:
  57              	.L6:
  20:test/Threads_C_API_test.hpp ****             for (uint64 k = 0; k < 30000; k++) { /* busy wait */ }
  58              		.loc 1 20 30 discriminator 1
  59 002c B7270000 		li	a5,8192
  60 0030 9387F770 		addi	a5,a5,1807
  61 0034 63EE9700 		bgtu	s1,a5,.L3
  62              	.LBB7:
  63              	.LBB6:
  21:test/Threads_C_API_test.hpp ****             thread_dispatch();
  64              		.loc 1 21 25 is_stmt 0
  65 0038 13070000 		li	a4,0
  66              	.L5:
  67              	.LVL5:
  21:test/Threads_C_API_test.hpp ****             thread_dispatch();
  68              		.loc 1 21 34 is_stmt 1 discriminator 3
  69 003c B7770000 		li	a5,28672
  70 0040 9387F752 		addi	a5,a5,1327
  71 0044 E3EEE7FC 		bgtu	a4,a5,.L4
  21:test/Threads_C_API_test.hpp ****             thread_dispatch();
  72              		.loc 1 21 13 discriminator 2
  73 0048 13071700 		addi	a4,a4,1
  74              	.LVL6:
  75 004c 6FF01FFF 		j	.L5
  76              	.LVL7:
  77              	.L3:
  78              	.LBE6:
  79              	.LBE7:
  80              	.LBE4:
  81              	.LBE3:
  18:test/Threads_C_API_test.hpp ****         printString("A: i="); printInt(i); printString("\n");
GAS LISTING /tmp/ccTm4qf0.s 			page 3


  82              		.loc 1 18 5 discriminator 2
  83 0050 13091900 		addi	s2,s2,1
  84              	.LVL8:
  85              	.L7:
  18:test/Threads_C_API_test.hpp ****         printString("A: i="); printInt(i); printString("\n");
  86              		.loc 1 18 26 discriminator 1
  87 0054 93079000 		li	a5,9
  88 0058 63E02705 		bgtu	s2,a5,.L2
  89              	.LBB9:
  19:test/Threads_C_API_test.hpp ****         for (uint64 j = 0; j < 10000; j++) {
  90              		.loc 1 19 9
  19:test/Threads_C_API_test.hpp ****         for (uint64 j = 0; j < 10000; j++) {
  91              		.loc 1 19 20 is_stmt 0
  92 005c 17050000 		lla	a0,.LC0
  92      13050500 
  93 0064 97000000 		call	_Z11printStringPKc@plt
  93      E7800000 
  94              	.LVL9:
  19:test/Threads_C_API_test.hpp ****         for (uint64 j = 0; j < 10000; j++) {
  95              		.loc 1 19 31 is_stmt 1
  19:test/Threads_C_API_test.hpp ****         for (uint64 j = 0; j < 10000; j++) {
  96              		.loc 1 19 39 is_stmt 0
  97 006c 13060000 		li	a2,0
  98 0070 9305A000 		li	a1,10
  99 0074 1B050900 		sext.w	a0,s2
 100 0078 97000000 		call	_Z8printIntiii@plt
 100      E7800000 
 101              	.LVL10:
  19:test/Threads_C_API_test.hpp ****         for (uint64 j = 0; j < 10000; j++) {
 102              		.loc 1 19 44 is_stmt 1
  19:test/Threads_C_API_test.hpp ****         for (uint64 j = 0; j < 10000; j++) {
 103              		.loc 1 19 55 is_stmt 0
 104 0080 17050000 		lla	a0,.LC1
 104      13050500 
 105 0088 97000000 		call	_Z11printStringPKc@plt
 105      E7800000 
 106              	.LVL11:
  20:test/Threads_C_API_test.hpp ****             for (uint64 k = 0; k < 30000; k++) { /* busy wait */ }
 107              		.loc 1 20 9 is_stmt 1
 108              	.LBB8:
  20:test/Threads_C_API_test.hpp ****             for (uint64 k = 0; k < 30000; k++) { /* busy wait */ }
 109              		.loc 1 20 21 is_stmt 0
 110 0090 93040000 		li	s1,0
 111 0094 6FF09FF9 		j	.L6
 112              	.LVL12:
 113              	.L2:
 114              	.LBE8:
 115              	.LBE9:
 116              	.LBE2:
  23:test/Threads_C_API_test.hpp ****         }
  24:test/Threads_C_API_test.hpp ****     }
  25:test/Threads_C_API_test.hpp ****     printString("A finished!\n");
 117              		.loc 1 25 5 is_stmt 1
 118              		.loc 1 25 16 is_stmt 0
 119 0098 17050000 		lla	a0,.LC2
 119      13050500 
 120 00a0 97000000 		call	_Z11printStringPKc@plt
GAS LISTING /tmp/ccTm4qf0.s 			page 4


 120      E7800000 
 121              	.LVL13:
  26:test/Threads_C_API_test.hpp ****     finishedA = true;
 122              		.loc 1 26 5 is_stmt 1
 123              		.loc 1 26 15 is_stmt 0
 124 00a8 93071000 		li	a5,1
 125 00ac 17070000 		sb	a5,.LANCHOR0,a4
 125      2300F700 
  27:test/Threads_C_API_test.hpp **** }
 126              		.loc 1 27 1
 127 00b4 83308101 		ld	ra,24(sp)
 128              		.cfi_restore 1
 129 00b8 03340101 		ld	s0,16(sp)
 130              		.cfi_restore 8
 131              		.cfi_def_cfa 2, 32
 132 00bc 83348100 		ld	s1,8(sp)
 133              		.cfi_restore 9
 134 00c0 03390100 		ld	s2,0(sp)
 135              		.cfi_restore 18
 136              	.LVL14:
 137 00c4 13010102 		addi	sp,sp,32
 138              		.cfi_def_cfa_offset 0
 139 00c8 67800000 		jr	ra
 140              		.cfi_endproc
 141              	.LFE1:
 143              		.section	.rodata.str1.8
 144 001d 000000   		.align	3
 145              	.LC3:
 146 0020 423A2069 		.string	"B: i="
 146      3D00
 147 0026 0000     		.align	3
 148              	.LC4:
 149 0028 42206669 		.string	"B finished!\n"
 149      6E697368 
 149      6564210A 
 149      00
 150              		.text
 151              		.align	2
 152              		.globl	_Z11workerBodyBPv
 154              	_Z11workerBodyBPv:
 155              	.LFB2:
  28:test/Threads_C_API_test.hpp **** 
  29:test/Threads_C_API_test.hpp **** void workerBodyB(void* arg) {
 156              		.loc 1 29 29 is_stmt 1
 157              		.cfi_startproc
 158              	.LVL15:
 159 00cc 130101FE 		addi	sp,sp,-32
 160              		.cfi_def_cfa_offset 32
 161 00d0 233C1100 		sd	ra,24(sp)
 162 00d4 23388100 		sd	s0,16(sp)
 163 00d8 23349100 		sd	s1,8(sp)
 164 00dc 23302101 		sd	s2,0(sp)
 165              		.cfi_offset 1, -8
 166              		.cfi_offset 8, -16
 167              		.cfi_offset 9, -24
 168              		.cfi_offset 18, -32
 169 00e0 13040102 		addi	s0,sp,32
GAS LISTING /tmp/ccTm4qf0.s 			page 5


 170              		.cfi_def_cfa 8, 0
  30:test/Threads_C_API_test.hpp ****     for (uint64 i = 0; i < 16; i++) {
 171              		.loc 1 30 5
 172              	.LVL16:
 173              	.LBB10:
 174              		.loc 1 30 17 is_stmt 0
 175 00e4 13090000 		li	s2,0
 176 00e8 6F008003 		j	.L15
 177              	.LVL17:
 178              	.L12:
 179              	.LBB11:
 180              	.LBB12:
 181              	.LBB13:
  31:test/Threads_C_API_test.hpp ****         printString("B: i="); printInt(i); printString("\n");
  32:test/Threads_C_API_test.hpp ****         for (uint64 j = 0; j < 10000; j++) {
  33:test/Threads_C_API_test.hpp ****             for (uint64 k = 0; k < 30000; k++) { /* busy wait */ }
  34:test/Threads_C_API_test.hpp ****             thread_dispatch();
 182              		.loc 1 34 13 is_stmt 1 discriminator 2
 183              		.loc 1 34 28 is_stmt 0 discriminator 2
 184 00ec 97000000 		call	_Z15thread_dispatchv@plt
 184      E7800000 
 185              	.LVL18:
 186              	.LBE13:
  32:test/Threads_C_API_test.hpp ****             for (uint64 k = 0; k < 30000; k++) { /* busy wait */ }
 187              		.loc 1 32 9 is_stmt 1 discriminator 2
 188 00f4 93841400 		addi	s1,s1,1
 189              	.LVL19:
 190              	.L14:
  32:test/Threads_C_API_test.hpp ****             for (uint64 k = 0; k < 30000; k++) { /* busy wait */ }
 191              		.loc 1 32 30 discriminator 1
 192 00f8 B7270000 		li	a5,8192
 193 00fc 9387F770 		addi	a5,a5,1807
 194 0100 63EE9700 		bgtu	s1,a5,.L11
 195              	.LBB15:
 196              	.LBB14:
  33:test/Threads_C_API_test.hpp ****             thread_dispatch();
 197              		.loc 1 33 25 is_stmt 0
 198 0104 13070000 		li	a4,0
 199              	.L13:
 200              	.LVL20:
  33:test/Threads_C_API_test.hpp ****             thread_dispatch();
 201              		.loc 1 33 34 is_stmt 1 discriminator 3
 202 0108 B7770000 		li	a5,28672
 203 010c 9387F752 		addi	a5,a5,1327
 204 0110 E3EEE7FC 		bgtu	a4,a5,.L12
  33:test/Threads_C_API_test.hpp ****             thread_dispatch();
 205              		.loc 1 33 13 discriminator 2
 206 0114 13071700 		addi	a4,a4,1
 207              	.LVL21:
 208 0118 6FF01FFF 		j	.L13
 209              	.LVL22:
 210              	.L11:
 211              	.LBE14:
 212              	.LBE15:
 213              	.LBE12:
 214              	.LBE11:
  30:test/Threads_C_API_test.hpp ****         printString("B: i="); printInt(i); printString("\n");
GAS LISTING /tmp/ccTm4qf0.s 			page 6


 215              		.loc 1 30 5 discriminator 2
 216 011c 13091900 		addi	s2,s2,1
 217              	.LVL23:
 218              	.L15:
  30:test/Threads_C_API_test.hpp ****         printString("B: i="); printInt(i); printString("\n");
 219              		.loc 1 30 26 discriminator 1
 220 0120 9307F000 		li	a5,15
 221 0124 63E02705 		bgtu	s2,a5,.L10
 222              	.LBB17:
  31:test/Threads_C_API_test.hpp ****         for (uint64 j = 0; j < 10000; j++) {
 223              		.loc 1 31 9
  31:test/Threads_C_API_test.hpp ****         for (uint64 j = 0; j < 10000; j++) {
 224              		.loc 1 31 20 is_stmt 0
 225 0128 17050000 		lla	a0,.LC3
 225      13050500 
 226 0130 97000000 		call	_Z11printStringPKc@plt
 226      E7800000 
 227              	.LVL24:
  31:test/Threads_C_API_test.hpp ****         for (uint64 j = 0; j < 10000; j++) {
 228              		.loc 1 31 31 is_stmt 1
  31:test/Threads_C_API_test.hpp ****         for (uint64 j = 0; j < 10000; j++) {
 229              		.loc 1 31 39 is_stmt 0
 230 0138 13060000 		li	a2,0
 231 013c 9305A000 		li	a1,10
 232 0140 1B050900 		sext.w	a0,s2
 233 0144 97000000 		call	_Z8printIntiii@plt
 233      E7800000 
 234              	.LVL25:
  31:test/Threads_C_API_test.hpp ****         for (uint64 j = 0; j < 10000; j++) {
 235              		.loc 1 31 44 is_stmt 1
  31:test/Threads_C_API_test.hpp ****         for (uint64 j = 0; j < 10000; j++) {
 236              		.loc 1 31 55 is_stmt 0
 237 014c 17050000 		lla	a0,.LC1
 237      13050500 
 238 0154 97000000 		call	_Z11printStringPKc@plt
 238      E7800000 
 239              	.LVL26:
  32:test/Threads_C_API_test.hpp ****             for (uint64 k = 0; k < 30000; k++) { /* busy wait */ }
 240              		.loc 1 32 9 is_stmt 1
 241              	.LBB16:
  32:test/Threads_C_API_test.hpp ****             for (uint64 k = 0; k < 30000; k++) { /* busy wait */ }
 242              		.loc 1 32 21 is_stmt 0
 243 015c 93040000 		li	s1,0
 244 0160 6FF09FF9 		j	.L14
 245              	.LVL27:
 246              	.L10:
 247              	.LBE16:
 248              	.LBE17:
 249              	.LBE10:
  35:test/Threads_C_API_test.hpp ****         }
  36:test/Threads_C_API_test.hpp ****     }
  37:test/Threads_C_API_test.hpp ****     thread_dispatch();
 250              		.loc 1 37 5 is_stmt 1
 251              		.loc 1 37 20 is_stmt 0
 252 0164 97000000 		call	_Z15thread_dispatchv@plt
 252      E7800000 
 253              	.LVL28:
GAS LISTING /tmp/ccTm4qf0.s 			page 7


  38:test/Threads_C_API_test.hpp ****     printString("B finished!\n");
 254              		.loc 1 38 5 is_stmt 1
 255              		.loc 1 38 16 is_stmt 0
 256 016c 17050000 		lla	a0,.LC4
 256      13050500 
 257 0174 97000000 		call	_Z11printStringPKc@plt
 257      E7800000 
 258              	.LVL29:
  39:test/Threads_C_API_test.hpp ****     finishedB = true;
 259              		.loc 1 39 5 is_stmt 1
 260              		.loc 1 39 15 is_stmt 0
 261 017c 93071000 		li	a5,1
 262 0180 17070000 		sb	a5,.LANCHOR0+1,a4
 262      2300F700 
  40:test/Threads_C_API_test.hpp **** }
 263              		.loc 1 40 1
 264 0188 83308101 		ld	ra,24(sp)
 265              		.cfi_restore 1
 266 018c 03340101 		ld	s0,16(sp)
 267              		.cfi_restore 8
 268              		.cfi_def_cfa 2, 32
 269 0190 83348100 		ld	s1,8(sp)
 270              		.cfi_restore 9
 271 0194 03390100 		ld	s2,0(sp)
 272              		.cfi_restore 18
 273              	.LVL30:
 274 0198 13010102 		addi	sp,sp,32
 275              		.cfi_def_cfa_offset 0
 276 019c 67800000 		jr	ra
 277              		.cfi_endproc
 278              	.LFE2:
 280              		.section	.rodata.str1.8
 281 0035 000000   		.align	3
 282              	.LC5:
 283 0038 48656C6C 		.string	"Hello "
 283      6F2000
 284 003f 00       		.align	3
 285              	.LC6:
 286 0040 20210A00 		.string	" !\n"
 287              		.text
 288              		.align	2
 289              		.globl	_Z9sleepyRunPv
 291              	_Z9sleepyRunPv:
 292              	.LFB6:
 293              		.file 2 "test/ThreadSleep_C_API_test.hpp"
   1:test/ThreadSleep_C_API_test.hpp **** //
   2:test/ThreadSleep_C_API_test.hpp **** // Created by os on 4/17/22.
   3:test/ThreadSleep_C_API_test.hpp **** //
   4:test/ThreadSleep_C_API_test.hpp **** 
   5:test/ThreadSleep_C_API_test.hpp **** #ifndef XV6_THREADSLEEP_C_API_TEST_HPP
   6:test/ThreadSleep_C_API_test.hpp **** #define XV6_THREADSLEEP_C_API_TEST_HPP
   7:test/ThreadSleep_C_API_test.hpp **** 
   8:test/ThreadSleep_C_API_test.hpp **** #include "../h/syscall_c.hpp"
   9:test/ThreadSleep_C_API_test.hpp **** 
  10:test/ThreadSleep_C_API_test.hpp **** #include "printing.hpp"
  11:test/ThreadSleep_C_API_test.hpp **** 
  12:test/ThreadSleep_C_API_test.hpp **** bool finished[2];
GAS LISTING /tmp/ccTm4qf0.s 			page 8


  13:test/ThreadSleep_C_API_test.hpp **** 
  14:test/ThreadSleep_C_API_test.hpp **** void sleepyRun(void *arg) {
 294              		.loc 2 14 27 is_stmt 1
 295              		.cfi_startproc
 296              	.LVL31:
 297 01a0 130101FE 		addi	sp,sp,-32
 298              		.cfi_def_cfa_offset 32
 299 01a4 233C1100 		sd	ra,24(sp)
 300 01a8 23388100 		sd	s0,16(sp)
 301 01ac 23349100 		sd	s1,8(sp)
 302 01b0 23302101 		sd	s2,0(sp)
 303              		.cfi_offset 1, -8
 304              		.cfi_offset 8, -16
 305              		.cfi_offset 9, -24
 306              		.cfi_offset 18, -32
 307 01b4 13040102 		addi	s0,sp,32
 308              		.cfi_def_cfa 8, 0
  15:test/ThreadSleep_C_API_test.hpp ****     time_t sleep_time = *((time_t *) arg);
 309              		.loc 2 15 5
 310              		.loc 2 15 12 is_stmt 0
 311 01b8 03390500 		ld	s2,0(a0)
 312              	.LVL32:
  16:test/ThreadSleep_C_API_test.hpp ****     int i = 6;
 313              		.loc 2 16 5 is_stmt 1
 314              		.loc 2 16 9 is_stmt 0
 315 01bc 93046000 		li	s1,6
 316              	.LVL33:
 317              	.L19:
  17:test/ThreadSleep_C_API_test.hpp ****     while (i > 0) {
 318              		.loc 2 17 5 is_stmt 1
 319              		.loc 2 17 14
 320 01c0 63569004 		blez	s1,.L18
  18:test/ThreadSleep_C_API_test.hpp ****         i--;
 321              		.loc 2 18 9
 322              		.loc 2 18 10 is_stmt 0
 323 01c4 9B84F4FF 		addiw	s1,s1,-1
 324              	.LVL34:
  19:test/ThreadSleep_C_API_test.hpp ****         printString("Hello ");
 325              		.loc 2 19 9 is_stmt 1
 326              		.loc 2 19 20 is_stmt 0
 327 01c8 17050000 		lla	a0,.LC5
 327      13050500 
 328 01d0 97000000 		call	_Z11printStringPKc@plt
 328      E7800000 
 329              	.LVL35:
  20:test/ThreadSleep_C_API_test.hpp ****         printInt(sleep_time);
 330              		.loc 2 20 9 is_stmt 1
 331              		.loc 2 20 17 is_stmt 0
 332 01d8 13060000 		li	a2,0
 333 01dc 9305A000 		li	a1,10
 334 01e0 1B050900 		sext.w	a0,s2
 335 01e4 97000000 		call	_Z8printIntiii@plt
 335      E7800000 
 336              	.LVL36:
  21:test/ThreadSleep_C_API_test.hpp ****         printString(" !\n");
 337              		.loc 2 21 9 is_stmt 1
 338              		.loc 2 21 20 is_stmt 0
GAS LISTING /tmp/ccTm4qf0.s 			page 9


 339 01ec 17050000 		lla	a0,.LC6
 339      13050500 
 340 01f4 97000000 		call	_Z11printStringPKc@plt
 340      E7800000 
 341              	.LVL37:
  22:test/ThreadSleep_C_API_test.hpp ****         time_sleep(sleep_time);
 342              		.loc 2 22 9 is_stmt 1
 343              		.loc 2 22 19 is_stmt 0
 344 01fc 13050900 		mv	a0,s2
 345 0200 97000000 		call	_Z10time_sleepm@plt
 345      E7800000 
 346              	.LVL38:
  17:test/ThreadSleep_C_API_test.hpp ****         i--;
 347              		.loc 2 17 5
 348 0208 6FF09FFB 		j	.L19
 349              	.LVL39:
 350              	.L18:
  23:test/ThreadSleep_C_API_test.hpp ****     }
  24:test/ThreadSleep_C_API_test.hpp ****     finished[sleep_time/10-1] = true;
 351              		.loc 2 24 5 is_stmt 1
 352              		.loc 2 24 24 is_stmt 0
 353 020c 9307A000 		li	a5,10
 354 0210 3359F902 		divu	s2,s2,a5
 355              	.LVL40:
 356              		.loc 2 24 27
 357 0214 1309F9FF 		addi	s2,s2,-1
 358              		.loc 2 24 31
 359 0218 97070000 		lla	a5,.LANCHOR0
 359      93870700 
 360 0220 33892701 		add	s2,a5,s2
 361 0224 93071000 		li	a5,1
 362 0228 2304F900 		sb	a5,8(s2)
  25:test/ThreadSleep_C_API_test.hpp **** }
 363              		.loc 2 25 1
 364 022c 83308101 		ld	ra,24(sp)
 365              		.cfi_restore 1
 366 0230 03340101 		ld	s0,16(sp)
 367              		.cfi_restore 8
 368              		.cfi_def_cfa 2, 32
 369 0234 83348100 		ld	s1,8(sp)
 370              		.cfi_restore 9
 371              	.LVL41:
 372 0238 03390100 		ld	s2,0(sp)
 373              		.cfi_restore 18
 374 023c 13010102 		addi	sp,sp,32
 375              		.cfi_def_cfa_offset 0
 376 0240 67800000 		jr	ra
 377              		.cfi_endproc
 378              	.LFE6:
 380              		.align	2
 381              		.globl	_Z9fibonaccim
 383              	_Z9fibonaccim:
 384              	.LFB0:
  11:test/Threads_C_API_test.hpp ****     if (n == 0 || n == 1) { return n; }
 385              		.loc 1 11 28 is_stmt 1
 386              		.cfi_startproc
 387              	.LVL42:
GAS LISTING /tmp/ccTm4qf0.s 			page 10


 388 0244 130101FE 		addi	sp,sp,-32
 389              		.cfi_def_cfa_offset 32
 390 0248 233C1100 		sd	ra,24(sp)
 391 024c 23388100 		sd	s0,16(sp)
 392 0250 23349100 		sd	s1,8(sp)
 393 0254 23302101 		sd	s2,0(sp)
 394              		.cfi_offset 1, -8
 395              		.cfi_offset 8, -16
 396              		.cfi_offset 9, -24
 397              		.cfi_offset 18, -32
 398 0258 13040102 		addi	s0,sp,32
 399              		.cfi_def_cfa 8, 0
 400 025c 93040500 		mv	s1,a0
  12:test/Threads_C_API_test.hpp ****     if (n % 10 == 0) { thread_dispatch(); }
 401              		.loc 1 12 5
 402 0260 93071000 		li	a5,1
 403 0264 63F8A702 		bleu	a0,a5,.L21
  13:test/Threads_C_API_test.hpp ****     return fibonacci(n - 1) + fibonacci(n - 2);
 404              		.loc 1 13 5
  13:test/Threads_C_API_test.hpp ****     return fibonacci(n - 1) + fibonacci(n - 2);
 405              		.loc 1 13 11 is_stmt 0
 406 0268 9307A000 		li	a5,10
 407 026c B377F502 		remu	a5,a0,a5
  13:test/Threads_C_API_test.hpp ****     return fibonacci(n - 1) + fibonacci(n - 2);
 408              		.loc 1 13 5
 409 0270 638E0702 		beqz	a5,.L26
 410              	.LVL43:
 411              	.L23:
  14:test/Threads_C_API_test.hpp **** }
 412              		.loc 1 14 5 is_stmt 1
  14:test/Threads_C_API_test.hpp **** }
 413              		.loc 1 14 21 is_stmt 0
 414 0274 1385F4FF 		addi	a0,s1,-1
 415 0278 97000000 		call	_Z9fibonaccim
 415      E7800000 
 416              	.LVL44:
 417 0280 13090500 		mv	s2,a0
  14:test/Threads_C_API_test.hpp **** }
 418              		.loc 1 14 40
 419 0284 1385E4FF 		addi	a0,s1,-2
 420 0288 97000000 		call	_Z9fibonaccim
 420      E7800000 
 421              	.LVL45:
  14:test/Threads_C_API_test.hpp **** }
 422              		.loc 1 14 46
 423 0290 3305A900 		add	a0,s2,a0
 424              	.L21:
  15:test/Threads_C_API_test.hpp **** 
 425              		.loc 1 15 1
 426 0294 83308101 		ld	ra,24(sp)
 427              		.cfi_remember_state
 428              		.cfi_restore 1
 429 0298 03340101 		ld	s0,16(sp)
 430              		.cfi_restore 8
 431              		.cfi_def_cfa 2, 32
 432 029c 83348100 		ld	s1,8(sp)
 433              		.cfi_restore 9
GAS LISTING /tmp/ccTm4qf0.s 			page 11


 434              	.LVL46:
 435 02a0 03390100 		ld	s2,0(sp)
 436              		.cfi_restore 18
 437 02a4 13010102 		addi	sp,sp,32
 438              		.cfi_def_cfa_offset 0
 439 02a8 67800000 		jr	ra
 440              	.LVL47:
 441              	.L26:
 442              		.cfi_restore_state
  13:test/Threads_C_API_test.hpp ****     return fibonacci(n - 1) + fibonacci(n - 2);
 443              		.loc 1 13 24 is_stmt 1 discriminator 1
  13:test/Threads_C_API_test.hpp ****     return fibonacci(n - 1) + fibonacci(n - 2);
 444              		.loc 1 13 39 is_stmt 0 discriminator 1
 445 02ac 97000000 		call	_Z15thread_dispatchv@plt
 445      E7800000 
 446              	.LVL48:
 447 02b4 6FF01FFC 		j	.L23
 448              		.cfi_endproc
 449              	.LFE0:
 451              		.section	.rodata.str1.8
 452 0044 00000000 		.align	3
 453              	.LC7:
 454 0048 433A2069 		.string	"C: i="
 454      3D00
 455 004e 0000     		.align	3
 456              	.LC8:
 457 0050 433A2064 		.string	"C: dispatch\n"
 457      69737061 
 457      7463680A 
 457      00
 458 005d 000000   		.align	3
 459              	.LC9:
 460 0060 433A2074 		.string	"C: t1="
 460      313D00
 461 0067 00       		.align	3
 462              	.LC10:
 463 0068 433A2066 		.string	"C: fibonaci="
 463      69626F6E 
 463      6163693D 
 463      00
 464              		.text
 465              		.align	2
 466              		.globl	_Z11workerBodyCPv
 468              	_Z11workerBodyCPv:
 469              	.LFB3:
  41:test/Threads_C_API_test.hpp **** 
  42:test/Threads_C_API_test.hpp **** void workerBodyC(void* arg) {
 470              		.loc 1 42 29 is_stmt 1
 471              		.cfi_startproc
 472              	.LVL49:
 473 02b8 130101FE 		addi	sp,sp,-32
 474              		.cfi_def_cfa_offset 32
 475 02bc 233C1100 		sd	ra,24(sp)
 476 02c0 23388100 		sd	s0,16(sp)
 477 02c4 23349100 		sd	s1,8(sp)
 478 02c8 23302101 		sd	s2,0(sp)
 479              		.cfi_offset 1, -8
GAS LISTING /tmp/ccTm4qf0.s 			page 12


 480              		.cfi_offset 8, -16
 481              		.cfi_offset 9, -24
 482              		.cfi_offset 18, -32
 483 02cc 13040102 		addi	s0,sp,32
 484              		.cfi_def_cfa 8, 0
  43:test/Threads_C_API_test.hpp ****     uint8 i = 0;
 485              		.loc 1 43 5
 486              	.LVL50:
 487              		.loc 1 43 11 is_stmt 0
 488 02d0 93040000 		li	s1,0
 489 02d4 6F000004 		j	.L29
 490              	.LVL51:
 491              	.L33:
  44:test/Threads_C_API_test.hpp ****     for (; i < 3; i++) {
  45:test/Threads_C_API_test.hpp ****         printString("C: i="); printInt(i); printString("\n");
 492              		.loc 1 45 9 is_stmt 1 discriminator 1
 493              		.loc 1 45 20 is_stmt 0 discriminator 1
 494 02d8 17050000 		lla	a0,.LC7
 494      13050500 
 495 02e0 97000000 		call	_Z11printStringPKc@plt
 495      E7800000 
 496              	.LVL52:
 497              		.loc 1 45 31 is_stmt 1 discriminator 1
 498              		.loc 1 45 39 is_stmt 0 discriminator 1
 499 02e8 13060000 		li	a2,0
 500 02ec 9305A000 		li	a1,10
 501 02f0 13850400 		mv	a0,s1
 502 02f4 97000000 		call	_Z8printIntiii@plt
 502      E7800000 
 503              	.LVL53:
 504              		.loc 1 45 44 is_stmt 1 discriminator 1
 505              		.loc 1 45 55 is_stmt 0 discriminator 1
 506 02fc 17050000 		lla	a0,.LC1
 506      13050500 
 507 0304 97000000 		call	_Z11printStringPKc@plt
 507      E7800000 
 508              	.LVL54:
  44:test/Threads_C_API_test.hpp ****     for (; i < 3; i++) {
 509              		.loc 1 44 5 is_stmt 1 discriminator 1
 510 030c 9B841400 		addiw	s1,s1,1
 511              	.LVL55:
 512 0310 93F4F40F 		andi	s1,s1,0xff
 513              	.LVL56:
 514              	.L29:
  44:test/Threads_C_API_test.hpp ****     for (; i < 3; i++) {
 515              		.loc 1 44 5 discriminator 2
  44:test/Threads_C_API_test.hpp ****     for (; i < 3; i++) {
 516              		.loc 1 44 14 discriminator 2
 517 0314 93072000 		li	a5,2
 518 0318 E3F097FC 		bleu	s1,a5,.L33
  46:test/Threads_C_API_test.hpp ****     }
  47:test/Threads_C_API_test.hpp **** 
  48:test/Threads_C_API_test.hpp ****     printString("C: dispatch\n");
 519              		.loc 1 48 5
 520              		.loc 1 48 16 is_stmt 0
 521 031c 17050000 		lla	a0,.LC8
 521      13050500 
GAS LISTING /tmp/ccTm4qf0.s 			page 13


 522 0324 97000000 		call	_Z11printStringPKc@plt
 522      E7800000 
 523              	.LVL57:
  49:test/Threads_C_API_test.hpp ****     __asm__ ("li t1, 7");
 524              		.loc 1 49 5 is_stmt 1
 525              		.loc 1 49 25 is_stmt 0
 526              	#APP
 527              	# 49 "test/Threads_C_API_test.hpp" 1
  50              	    thread_dispatch();
 528              		li t1, 7
 529              	# 0 "" 2
 530              		.loc 1 50 5 is_stmt 1
 531              		.loc 1 50 20 is_stmt 0
 532              	#NO_APP
 533 0330 97000000 		call	_Z15thread_dispatchv@plt
 533      E7800000 
 534              	.LVL58:
  51:test/Threads_C_API_test.hpp **** 
  52:test/Threads_C_API_test.hpp ****     uint64 t1 = 0;
 535              		.loc 1 52 5 is_stmt 1
  53:test/Threads_C_API_test.hpp ****     __asm__ ("mv %[t1], t1" : [t1] "=r"(t1));
 536              		.loc 1 53 5
 537              		.loc 1 53 45 is_stmt 0
 538              	#APP
 539              	# 53 "test/Threads_C_API_test.hpp" 1
  54              	
 540              		mv s2, t1
 541              	# 0 "" 2
 542              	.LVL59:
  55:test/Threads_C_API_test.hpp ****     printString("C: t1="); printInt(t1); printString("\n");
 543              		.loc 1 55 5 is_stmt 1
 544              		.loc 1 55 16 is_stmt 0
 545              	#NO_APP
 546 033c 17050000 		lla	a0,.LC9
 546      13050500 
 547 0344 97000000 		call	_Z11printStringPKc@plt
 547      E7800000 
 548              	.LVL60:
 549              		.loc 1 55 28 is_stmt 1
 550              		.loc 1 55 36 is_stmt 0
 551 034c 13060000 		li	a2,0
 552 0350 9305A000 		li	a1,10
 553 0354 1B050900 		sext.w	a0,s2
 554 0358 97000000 		call	_Z8printIntiii@plt
 554      E7800000 
 555              	.LVL61:
 556              		.loc 1 55 42 is_stmt 1
 557              		.loc 1 55 53 is_stmt 0
 558 0360 17050000 		lla	a0,.LC1
 558      13050500 
 559 0368 97000000 		call	_Z11printStringPKc@plt
 559      E7800000 
 560              	.LVL62:
  56:test/Threads_C_API_test.hpp **** 
  57:test/Threads_C_API_test.hpp ****     uint64 result = fibonacci(12);
 561              		.loc 1 57 5 is_stmt 1
 562              		.loc 1 57 30 is_stmt 0
GAS LISTING /tmp/ccTm4qf0.s 			page 14


 563 0370 1305C000 		li	a0,12
 564 0374 97000000 		call	_Z9fibonaccim
 564      E7800000 
 565              	.LVL63:
 566 037c 13090500 		mv	s2,a0
 567              	.LVL64:
  58:test/Threads_C_API_test.hpp ****     printString("C: fibonaci="); printInt(result); printString("\n");
 568              		.loc 1 58 5 is_stmt 1
 569              		.loc 1 58 16 is_stmt 0
 570 0380 17050000 		lla	a0,.LC10
 570      13050500 
 571              	.LVL65:
 572 0388 97000000 		call	_Z11printStringPKc@plt
 572      E7800000 
 573              	.LVL66:
 574              		.loc 1 58 34 is_stmt 1
 575              		.loc 1 58 42 is_stmt 0
 576 0390 13060000 		li	a2,0
 577 0394 9305A000 		li	a1,10
 578 0398 1B050900 		sext.w	a0,s2
 579 039c 97000000 		call	_Z8printIntiii@plt
 579      E7800000 
 580              	.LVL67:
 581              		.loc 1 58 52 is_stmt 1
 582              		.loc 1 58 63 is_stmt 0
 583 03a4 17050000 		lla	a0,.LC1
 583      13050500 
 584 03ac 97000000 		call	_Z11printStringPKc@plt
 584      E7800000 
 585              	.LVL68:
 586 03b4 6F000004 		j	.L31
 587              	.L34:
  59:test/Threads_C_API_test.hpp **** 
  60:test/Threads_C_API_test.hpp ****     for (; i < 6; i++) {
  61:test/Threads_C_API_test.hpp ****         printString("C: i="); printInt(i); printString("\n");
 588              		.loc 1 61 9 is_stmt 1 discriminator 1
 589              		.loc 1 61 20 is_stmt 0 discriminator 1
 590 03b8 17050000 		lla	a0,.LC7
 590      13050500 
 591 03c0 97000000 		call	_Z11printStringPKc@plt
 591      E7800000 
 592              	.LVL69:
 593              		.loc 1 61 31 is_stmt 1 discriminator 1
 594              		.loc 1 61 39 is_stmt 0 discriminator 1
 595 03c8 13060000 		li	a2,0
 596 03cc 9305A000 		li	a1,10
 597 03d0 13850400 		mv	a0,s1
 598 03d4 97000000 		call	_Z8printIntiii@plt
 598      E7800000 
 599              	.LVL70:
 600              		.loc 1 61 44 is_stmt 1 discriminator 1
 601              		.loc 1 61 55 is_stmt 0 discriminator 1
 602 03dc 17050000 		lla	a0,.LC1
 602      13050500 
 603 03e4 97000000 		call	_Z11printStringPKc@plt
 603      E7800000 
 604              	.LVL71:
GAS LISTING /tmp/ccTm4qf0.s 			page 15


  60:test/Threads_C_API_test.hpp ****         printString("C: i="); printInt(i); printString("\n");
 605              		.loc 1 60 5 is_stmt 1 discriminator 1
 606 03ec 9B841400 		addiw	s1,s1,1
 607              	.LVL72:
 608 03f0 93F4F40F 		andi	s1,s1,0xff
 609              	.LVL73:
 610              	.L31:
  60:test/Threads_C_API_test.hpp ****         printString("C: i="); printInt(i); printString("\n");
 611              		.loc 1 60 5 discriminator 2
  60:test/Threads_C_API_test.hpp ****         printString("C: i="); printInt(i); printString("\n");
 612              		.loc 1 60 14 discriminator 2
 613 03f4 93075000 		li	a5,5
 614 03f8 E3F097FC 		bleu	s1,a5,.L34
  62:test/Threads_C_API_test.hpp ****     }
  63:test/Threads_C_API_test.hpp **** 
  64:test/Threads_C_API_test.hpp ****     thread_dispatch();
 615              		.loc 1 64 5
 616              		.loc 1 64 20 is_stmt 0
 617 03fc 97000000 		call	_Z15thread_dispatchv@plt
 617      E7800000 
 618              	.LVL74:
  65:test/Threads_C_API_test.hpp ****     printString("A finished!\n");
 619              		.loc 1 65 5 is_stmt 1
 620              		.loc 1 65 16 is_stmt 0
 621 0404 17050000 		lla	a0,.LC2
 621      13050500 
 622 040c 97000000 		call	_Z11printStringPKc@plt
 622      E7800000 
 623              	.LVL75:
  66:test/Threads_C_API_test.hpp ****     finishedC = true;
 624              		.loc 1 66 5 is_stmt 1
 625              		.loc 1 66 15 is_stmt 0
 626 0414 93071000 		li	a5,1
 627 0418 17070000 		sb	a5,.LANCHOR0+10,a4
 627      2300F700 
  67:test/Threads_C_API_test.hpp **** }
 628              		.loc 1 67 1
 629 0420 83308101 		ld	ra,24(sp)
 630              		.cfi_restore 1
 631 0424 03340101 		ld	s0,16(sp)
 632              		.cfi_restore 8
 633              		.cfi_def_cfa 2, 32
 634 0428 83348100 		ld	s1,8(sp)
 635              		.cfi_restore 9
 636              	.LVL76:
 637 042c 03390100 		ld	s2,0(sp)
 638              		.cfi_restore 18
 639              	.LVL77:
 640 0430 13010102 		addi	sp,sp,32
 641              		.cfi_def_cfa_offset 0
 642 0434 67800000 		jr	ra
 643              		.cfi_endproc
 644              	.LFE3:
 646              		.section	.rodata.str1.8
 647 0075 000000   		.align	3
 648              	.LC11:
 649 0078 443A2069 		.string	"D: i="
GAS LISTING /tmp/ccTm4qf0.s 			page 16


 649      3D00
 650 007e 0000     		.align	3
 651              	.LC12:
 652 0080 443A2064 		.string	"D: dispatch\n"
 652      69737061 
 652      7463680A 
 652      00
 653 008d 000000   		.align	3
 654              	.LC13:
 655 0090 443A2066 		.string	"D: fibonaci="
 655      69626F6E 
 655      6163693D 
 655      00
 656 009d 000000   		.align	3
 657              	.LC14:
 658 00a0 44206669 		.string	"D finished!\n"
 658      6E697368 
 658      6564210A 
 658      00
 659              		.text
 660              		.align	2
 661              		.globl	_Z11workerBodyDPv
 663              	_Z11workerBodyDPv:
 664              	.LFB4:
  68:test/Threads_C_API_test.hpp **** 
  69:test/Threads_C_API_test.hpp **** void workerBodyD(void* arg) {
 665              		.loc 1 69 29 is_stmt 1
 666              		.cfi_startproc
 667              	.LVL78:
 668 0438 130101FE 		addi	sp,sp,-32
 669              		.cfi_def_cfa_offset 32
 670 043c 233C1100 		sd	ra,24(sp)
 671 0440 23388100 		sd	s0,16(sp)
 672 0444 23349100 		sd	s1,8(sp)
 673 0448 23302101 		sd	s2,0(sp)
 674              		.cfi_offset 1, -8
 675              		.cfi_offset 8, -16
 676              		.cfi_offset 9, -24
 677              		.cfi_offset 18, -32
 678 044c 13040102 		addi	s0,sp,32
 679              		.cfi_def_cfa 8, 0
  70:test/Threads_C_API_test.hpp ****     uint8 i = 10;
 680              		.loc 1 70 5
 681              	.LVL79:
 682              		.loc 1 70 11 is_stmt 0
 683 0450 9304A000 		li	s1,10
 684 0454 6F000004 		j	.L37
 685              	.LVL80:
 686              	.L41:
  71:test/Threads_C_API_test.hpp ****     for (; i < 13; i++) {
  72:test/Threads_C_API_test.hpp ****         printString("D: i="); printInt(i); printString("\n");
 687              		.loc 1 72 9 is_stmt 1 discriminator 1
 688              		.loc 1 72 20 is_stmt 0 discriminator 1
 689 0458 17050000 		lla	a0,.LC11
 689      13050500 
 690 0460 97000000 		call	_Z11printStringPKc@plt
 690      E7800000 
GAS LISTING /tmp/ccTm4qf0.s 			page 17


 691              	.LVL81:
 692              		.loc 1 72 31 is_stmt 1 discriminator 1
 693              		.loc 1 72 39 is_stmt 0 discriminator 1
 694 0468 13060000 		li	a2,0
 695 046c 9305A000 		li	a1,10
 696 0470 13850400 		mv	a0,s1
 697 0474 97000000 		call	_Z8printIntiii@plt
 697      E7800000 
 698              	.LVL82:
 699              		.loc 1 72 44 is_stmt 1 discriminator 1
 700              		.loc 1 72 55 is_stmt 0 discriminator 1
 701 047c 17050000 		lla	a0,.LC1
 701      13050500 
 702 0484 97000000 		call	_Z11printStringPKc@plt
 702      E7800000 
 703              	.LVL83:
  71:test/Threads_C_API_test.hpp ****     for (; i < 13; i++) {
 704              		.loc 1 71 5 is_stmt 1 discriminator 1
 705 048c 9B841400 		addiw	s1,s1,1
 706              	.LVL84:
 707 0490 93F4F40F 		andi	s1,s1,0xff
 708              	.LVL85:
 709              	.L37:
  71:test/Threads_C_API_test.hpp ****     for (; i < 13; i++) {
 710              		.loc 1 71 5 discriminator 2
  71:test/Threads_C_API_test.hpp ****     for (; i < 13; i++) {
 711              		.loc 1 71 14 discriminator 2
 712 0494 9307C000 		li	a5,12
 713 0498 E3F097FC 		bleu	s1,a5,.L41
  73:test/Threads_C_API_test.hpp ****     }
  74:test/Threads_C_API_test.hpp **** 
  75:test/Threads_C_API_test.hpp ****     printString("D: dispatch\n");
 714              		.loc 1 75 5
 715              		.loc 1 75 16 is_stmt 0
 716 049c 17050000 		lla	a0,.LC12
 716      13050500 
 717 04a4 97000000 		call	_Z11printStringPKc@plt
 717      E7800000 
 718              	.LVL86:
  76:test/Threads_C_API_test.hpp ****     __asm__ ("li t1, 5");
 719              		.loc 1 76 5 is_stmt 1
 720              		.loc 1 76 25 is_stmt 0
 721              	#APP
 722              	# 76 "test/Threads_C_API_test.hpp" 1
  77              	    thread_dispatch();
 723              		li t1, 5
 724              	# 0 "" 2
 725              		.loc 1 77 5 is_stmt 1
 726              		.loc 1 77 20 is_stmt 0
 727              	#NO_APP
 728 04b0 97000000 		call	_Z15thread_dispatchv@plt
 728      E7800000 
 729              	.LVL87:
  78:test/Threads_C_API_test.hpp **** 
  79:test/Threads_C_API_test.hpp ****     uint64 result = fibonacci(16);
 730              		.loc 1 79 5 is_stmt 1
 731              		.loc 1 79 30 is_stmt 0
GAS LISTING /tmp/ccTm4qf0.s 			page 18


 732 04b8 13050001 		li	a0,16
 733 04bc 97000000 		call	_Z9fibonaccim
 733      E7800000 
 734              	.LVL88:
 735 04c4 13090500 		mv	s2,a0
 736              	.LVL89:
  80:test/Threads_C_API_test.hpp ****     printString("D: fibonaci="); printInt(result); printString("\n");
 737              		.loc 1 80 5 is_stmt 1
 738              		.loc 1 80 16 is_stmt 0
 739 04c8 17050000 		lla	a0,.LC13
 739      13050500 
 740              	.LVL90:
 741 04d0 97000000 		call	_Z11printStringPKc@plt
 741      E7800000 
 742              	.LVL91:
 743              		.loc 1 80 34 is_stmt 1
 744              		.loc 1 80 42 is_stmt 0
 745 04d8 13060000 		li	a2,0
 746 04dc 9305A000 		li	a1,10
 747 04e0 1B050900 		sext.w	a0,s2
 748 04e4 97000000 		call	_Z8printIntiii@plt
 748      E7800000 
 749              	.LVL92:
 750              		.loc 1 80 52 is_stmt 1
 751              		.loc 1 80 63 is_stmt 0
 752 04ec 17050000 		lla	a0,.LC1
 752      13050500 
 753 04f4 97000000 		call	_Z11printStringPKc@plt
 753      E7800000 
 754              	.LVL93:
 755 04fc 6F000004 		j	.L39
 756              	.L42:
  81:test/Threads_C_API_test.hpp **** 
  82:test/Threads_C_API_test.hpp ****     for (; i < 16; i++) {
  83:test/Threads_C_API_test.hpp ****         printString("D: i="); printInt(i); printString("\n");
 757              		.loc 1 83 9 is_stmt 1 discriminator 1
 758              		.loc 1 83 20 is_stmt 0 discriminator 1
 759 0500 17050000 		lla	a0,.LC11
 759      13050500 
 760 0508 97000000 		call	_Z11printStringPKc@plt
 760      E7800000 
 761              	.LVL94:
 762              		.loc 1 83 31 is_stmt 1 discriminator 1
 763              		.loc 1 83 39 is_stmt 0 discriminator 1
 764 0510 13060000 		li	a2,0
 765 0514 9305A000 		li	a1,10
 766 0518 13850400 		mv	a0,s1
 767 051c 97000000 		call	_Z8printIntiii@plt
 767      E7800000 
 768              	.LVL95:
 769              		.loc 1 83 44 is_stmt 1 discriminator 1
 770              		.loc 1 83 55 is_stmt 0 discriminator 1
 771 0524 17050000 		lla	a0,.LC1
 771      13050500 
 772 052c 97000000 		call	_Z11printStringPKc@plt
 772      E7800000 
 773              	.LVL96:
GAS LISTING /tmp/ccTm4qf0.s 			page 19


  82:test/Threads_C_API_test.hpp ****         printString("D: i="); printInt(i); printString("\n");
 774              		.loc 1 82 5 is_stmt 1 discriminator 1
 775 0534 9B841400 		addiw	s1,s1,1
 776              	.LVL97:
 777 0538 93F4F40F 		andi	s1,s1,0xff
 778              	.LVL98:
 779              	.L39:
  82:test/Threads_C_API_test.hpp ****         printString("D: i="); printInt(i); printString("\n");
 780              		.loc 1 82 5 discriminator 2
  82:test/Threads_C_API_test.hpp ****         printString("D: i="); printInt(i); printString("\n");
 781              		.loc 1 82 14 discriminator 2
 782 053c 9307F000 		li	a5,15
 783 0540 E3F097FC 		bleu	s1,a5,.L42
  84:test/Threads_C_API_test.hpp ****     }
  85:test/Threads_C_API_test.hpp **** 
  86:test/Threads_C_API_test.hpp ****     thread_dispatch();
 784              		.loc 1 86 5
 785              		.loc 1 86 20 is_stmt 0
 786 0544 97000000 		call	_Z15thread_dispatchv@plt
 786      E7800000 
 787              	.LVL99:
  87:test/Threads_C_API_test.hpp ****     printString("D finished!\n");
 788              		.loc 1 87 5 is_stmt 1
 789              		.loc 1 87 16 is_stmt 0
 790 054c 17050000 		lla	a0,.LC14
 790      13050500 
 791 0554 97000000 		call	_Z11printStringPKc@plt
 791      E7800000 
 792              	.LVL100:
  88:test/Threads_C_API_test.hpp ****     finishedD = true;
 793              		.loc 1 88 5 is_stmt 1
 794              		.loc 1 88 15 is_stmt 0
 795 055c 93071000 		li	a5,1
 796 0560 17070000 		sb	a5,.LANCHOR0+11,a4
 796      2300F700 
  89:test/Threads_C_API_test.hpp **** }
 797              		.loc 1 89 1
 798 0568 83308101 		ld	ra,24(sp)
 799              		.cfi_restore 1
 800 056c 03340101 		ld	s0,16(sp)
 801              		.cfi_restore 8
 802              		.cfi_def_cfa 2, 32
 803 0570 83348100 		ld	s1,8(sp)
 804              		.cfi_restore 9
 805              	.LVL101:
 806 0574 03390100 		ld	s2,0(sp)
 807              		.cfi_restore 18
 808              	.LVL102:
 809 0578 13010102 		addi	sp,sp,32
 810              		.cfi_def_cfa_offset 0
 811 057c 67800000 		jr	ra
 812              		.cfi_endproc
 813              	.LFE4:
 815              		.section	.rodata.str1.8
 816 00ad 000000   		.align	3
 817              	.LC15:
 818 00b0 54687265 		.string	"ThreadA created\n"
GAS LISTING /tmp/ccTm4qf0.s 			page 20


 818      61644120 
 818      63726561 
 818      7465640A 
 818      00
 819 00c1 00000000 		.align	3
 819      000000
 820              	.LC16:
 821 00c8 54687265 		.string	"ThreadB created\n"
 821      61644220 
 821      63726561 
 821      7465640A 
 821      00
 822 00d9 00000000 		.align	3
 822      000000
 823              	.LC17:
 824 00e0 54687265 		.string	"ThreadC created\n"
 824      61644320 
 824      63726561 
 824      7465640A 
 824      00
 825 00f1 00000000 		.align	3
 825      000000
 826              	.LC18:
 827 00f8 54687265 		.string	"ThreadD created\n"
 827      61644420 
 827      63726561 
 827      7465640A 
 827      00
 828              		.text
 829              		.align	2
 830              		.globl	_Z18Threads_C_API_testv
 832              	_Z18Threads_C_API_testv:
 833              	.LFB5:
  90:test/Threads_C_API_test.hpp **** 
  91:test/Threads_C_API_test.hpp **** 
  92:test/Threads_C_API_test.hpp **** void Threads_C_API_test() {
 834              		.loc 1 92 27 is_stmt 1
 835              		.cfi_startproc
 836 0580 130101FC 		addi	sp,sp,-64
 837              		.cfi_def_cfa_offset 64
 838 0584 233C1102 		sd	ra,56(sp)
 839 0588 23388102 		sd	s0,48(sp)
 840 058c 23349102 		sd	s1,40(sp)
 841              		.cfi_offset 1, -8
 842              		.cfi_offset 8, -16
 843              		.cfi_offset 9, -24
 844 0590 13040104 		addi	s0,sp,64
 845              		.cfi_def_cfa 8, 0
  93:test/Threads_C_API_test.hpp ****     thread_t threads[4];
 846              		.loc 1 93 5
  94:test/Threads_C_API_test.hpp ****     thread_create(&threads[0], workerBodyA, nullptr);
 847              		.loc 1 94 5
 848              		.loc 1 94 18 is_stmt 0
 849 0594 13060000 		li	a2,0
 850 0598 97050000 		lla	a1,_Z11workerBodyAPv
 850      93850500 
 851 05a0 130504FC 		addi	a0,s0,-64
GAS LISTING /tmp/ccTm4qf0.s 			page 21


 852 05a4 97000000 		call	_Z13thread_createPP7_threadPFvPvES2_@plt
 852      E7800000 
 853              	.LVL103:
  95:test/Threads_C_API_test.hpp ****     printString("ThreadA created\n");
 854              		.loc 1 95 5 is_stmt 1
 855              		.loc 1 95 16 is_stmt 0
 856 05ac 17050000 		lla	a0,.LC15
 856      13050500 
 857 05b4 97000000 		call	_Z11printStringPKc@plt
 857      E7800000 
 858              	.LVL104:
  96:test/Threads_C_API_test.hpp **** 
  97:test/Threads_C_API_test.hpp ****     thread_create(&threads[1], workerBodyB, nullptr);
 859              		.loc 1 97 5 is_stmt 1
 860              		.loc 1 97 18 is_stmt 0
 861 05bc 13060000 		li	a2,0
 862 05c0 97050000 		lla	a1,_Z11workerBodyBPv
 862      93850500 
 863 05c8 130584FC 		addi	a0,s0,-56
 864 05cc 97000000 		call	_Z13thread_createPP7_threadPFvPvES2_@plt
 864      E7800000 
 865              	.LVL105:
  98:test/Threads_C_API_test.hpp ****     printString("ThreadB created\n");
 866              		.loc 1 98 5 is_stmt 1
 867              		.loc 1 98 16 is_stmt 0
 868 05d4 17050000 		lla	a0,.LC16
 868      13050500 
 869 05dc 97000000 		call	_Z11printStringPKc@plt
 869      E7800000 
 870              	.LVL106:
  99:test/Threads_C_API_test.hpp **** 
 100:test/Threads_C_API_test.hpp ****     thread_create(&threads[2], workerBodyC, nullptr);
 871              		.loc 1 100 5 is_stmt 1
 872              		.loc 1 100 18 is_stmt 0
 873 05e4 13060000 		li	a2,0
 874 05e8 97050000 		lla	a1,_Z11workerBodyCPv
 874      93850500 
 875 05f0 130504FD 		addi	a0,s0,-48
 876 05f4 97000000 		call	_Z13thread_createPP7_threadPFvPvES2_@plt
 876      E7800000 
 877              	.LVL107:
 101:test/Threads_C_API_test.hpp ****     printString("ThreadC created\n");
 878              		.loc 1 101 5 is_stmt 1
 879              		.loc 1 101 16 is_stmt 0
 880 05fc 17050000 		lla	a0,.LC17
 880      13050500 
 881 0604 97000000 		call	_Z11printStringPKc@plt
 881      E7800000 
 882              	.LVL108:
 102:test/Threads_C_API_test.hpp **** 
 103:test/Threads_C_API_test.hpp ****     thread_create(&threads[3], workerBodyD, nullptr);
 883              		.loc 1 103 5 is_stmt 1
 884              		.loc 1 103 18 is_stmt 0
 885 060c 13060000 		li	a2,0
 886 0610 97050000 		lla	a1,_Z11workerBodyDPv
 886      93850500 
 887 0618 130584FD 		addi	a0,s0,-40
GAS LISTING /tmp/ccTm4qf0.s 			page 22


 888 061c 97000000 		call	_Z13thread_createPP7_threadPFvPvES2_@plt
 888      E7800000 
 889              	.LVL109:
 104:test/Threads_C_API_test.hpp ****     printString("ThreadD created\n");
 890              		.loc 1 104 5 is_stmt 1
 891              		.loc 1 104 16 is_stmt 0
 892 0624 17050000 		lla	a0,.LC18
 892      13050500 
 893 062c 97000000 		call	_Z11printStringPKc@plt
 893      E7800000 
 894              	.LVL110:
 895 0634 6F00C000 		j	.L46
 896              	.L44:
 105:test/Threads_C_API_test.hpp **** 
 106:test/Threads_C_API_test.hpp ****     while (!(finishedA && finishedB && finishedC && finishedD)) {
 107:test/Threads_C_API_test.hpp ****         thread_dispatch();
 897              		.loc 1 107 9 is_stmt 1
 898              		.loc 1 107 24 is_stmt 0
 899 0638 97000000 		call	_Z15thread_dispatchv@plt
 899      E7800000 
 900              	.LVL111:
 901              	.L46:
 106:test/Threads_C_API_test.hpp ****         thread_dispatch();
 902              		.loc 1 106 5 is_stmt 1
 106:test/Threads_C_API_test.hpp ****         thread_dispatch();
 903              		.loc 1 106 12
 904 0640 97070000 		lbu	a5,.LANCHOR0
 904      83C70700 
 905 0648 E38807FE 		beqz	a5,.L44
 106:test/Threads_C_API_test.hpp ****         thread_dispatch();
 906              		.loc 1 106 24 is_stmt 0 discriminator 1
 907 064c 97070000 		lbu	a5,.LANCHOR0+1
 907      83C70700 
 908 0654 E38207FE 		beqz	a5,.L44
 106:test/Threads_C_API_test.hpp ****         thread_dispatch();
 909              		.loc 1 106 37 discriminator 2
 910 0658 97070000 		lbu	a5,.LANCHOR0+10
 910      83C70700 
 911 0660 E38C07FC 		beqz	a5,.L44
 106:test/Threads_C_API_test.hpp ****         thread_dispatch();
 912              		.loc 1 106 12 discriminator 3
 913 0664 97070000 		lbu	a5,.LANCHOR0+11
 913      83C70700 
 914 066c E38607FC 		beqz	a5,.L44
 915              	.LBB18:
 108:test/Threads_C_API_test.hpp ****     }
 109:test/Threads_C_API_test.hpp **** 
 110:test/Threads_C_API_test.hpp ****     for (auto &thread: threads) { delete thread; }
 916              		.loc 1 110 24
 917 0670 930404FC 		addi	s1,s0,-64
 918 0674 6F008000 		j	.L45
 919              	.LVL112:
 920              	.L48:
 921              		.loc 1 110 5 is_stmt 1 discriminator 4
 922 0678 93848400 		addi	s1,s1,8
 923              	.LVL113:
 924              	.L45:
GAS LISTING /tmp/ccTm4qf0.s 			page 23


 925              		.loc 1 110 24 discriminator 5
 926 067c 930704FE 		addi	a5,s0,-32
 927 0680 638CF400 		beq	s1,a5,.L43
 928              	.LVL114:
 929              		.loc 1 110 35 discriminator 2
 930              		.loc 1 110 42 is_stmt 0 discriminator 2
 931 0684 03B50400 		ld	a0,0(s1)
 932              		.loc 1 110 48 discriminator 2
 933 0688 E30805FE 		beqz	a0,.L48
 934              		.loc 1 110 42 discriminator 3
 935 068c 97000000 		call	_ZN7_threaddlEPv@plt
 935      E7800000 
 936              	.LVL115:
 937 0694 6FF05FFE 		j	.L48
 938              	.LVL116:
 939              	.L43:
 940              	.LBE18:
 111:test/Threads_C_API_test.hpp **** }
 941              		.loc 1 111 1
 942 0698 83308103 		ld	ra,56(sp)
 943              		.cfi_restore 1
 944 069c 03340103 		ld	s0,48(sp)
 945              		.cfi_restore 8
 946              		.cfi_def_cfa 2, 64
 947 06a0 83348102 		ld	s1,40(sp)
 948              		.cfi_restore 9
 949              	.LVL117:
 950 06a4 13010104 		addi	sp,sp,64
 951              		.cfi_def_cfa_offset 0
 952 06a8 67800000 		jr	ra
 953              		.cfi_endproc
 954              	.LFE5:
 956              		.align	2
 957              		.globl	_Z12testSleepingv
 959              	_Z12testSleepingv:
 960              	.LFB7:
  26:test/ThreadSleep_C_API_test.hpp **** 
  27:test/ThreadSleep_C_API_test.hpp **** void testSleeping() {
 961              		.loc 2 27 21 is_stmt 1
 962              		.cfi_startproc
 963 06ac 130101FC 		addi	sp,sp,-64
 964              		.cfi_def_cfa_offset 64
 965 06b0 233C1102 		sd	ra,56(sp)
 966 06b4 23388102 		sd	s0,48(sp)
 967 06b8 23349102 		sd	s1,40(sp)
 968              		.cfi_offset 1, -8
 969              		.cfi_offset 8, -16
 970              		.cfi_offset 9, -24
 971 06bc 13040104 		addi	s0,sp,64
 972              		.cfi_def_cfa 8, 0
  28:test/ThreadSleep_C_API_test.hpp ****     const int sleepy_thread_count = 2;
 973              		.loc 2 28 5
 974              	.LVL118:
  29:test/ThreadSleep_C_API_test.hpp ****     time_t sleep_times[sleepy_thread_count] = {10, 20};
 975              		.loc 2 29 5
 976              		.loc 2 29 12 is_stmt 0
 977 06c0 9307A000 		li	a5,10
GAS LISTING /tmp/ccTm4qf0.s 			page 24


 978 06c4 2338F4FC 		sd	a5,-48(s0)
 979 06c8 93074001 		li	a5,20
 980 06cc 233CF4FC 		sd	a5,-40(s0)
  30:test/ThreadSleep_C_API_test.hpp ****     thread_t sleepyThread[sleepy_thread_count];
 981              		.loc 2 30 5 is_stmt 1
  31:test/ThreadSleep_C_API_test.hpp **** 
  32:test/ThreadSleep_C_API_test.hpp ****     for (int i = 0; i < sleepy_thread_count; i++) {
 982              		.loc 2 32 5
 983              	.LVL119:
 984              	.LBB19:
 985              		.loc 2 32 14 is_stmt 0
 986 06d0 93040000 		li	s1,0
 987 06d4 6F00C002 		j	.L53
 988              	.LVL120:
 989              	.L56:
  33:test/ThreadSleep_C_API_test.hpp ****         thread_create(&sleepyThread[i], sleepyRun, sleep_times + i);
 990              		.loc 2 33 9 is_stmt 1
 991              		.loc 2 33 64 is_stmt 0
 992 06d8 93973400 		slli	a5,s1,3
 993              		.loc 2 33 22
 994 06dc 130604FD 		addi	a2,s0,-48
 995 06e0 3306F600 		add	a2,a2,a5
 996 06e4 97050000 		lla	a1,_Z9sleepyRunPv
 996      93850500 
 997 06ec 130504FC 		addi	a0,s0,-64
 998 06f0 3305F500 		add	a0,a0,a5
 999 06f4 97000000 		call	_Z13thread_createPP7_threadPFvPvES2_@plt
 999      E7800000 
 1000              	.LVL121:
  32:test/ThreadSleep_C_API_test.hpp ****         thread_create(&sleepyThread[i], sleepyRun, sleep_times + i);
 1001              		.loc 2 32 5 is_stmt 1
 1002 06fc 9B841400 		addiw	s1,s1,1
 1003              	.LVL122:
 1004              	.L53:
  32:test/ThreadSleep_C_API_test.hpp ****         thread_create(&sleepyThread[i], sleepyRun, sleep_times + i);
 1005              		.loc 2 32 23 discriminator 1
 1006 0700 93071000 		li	a5,1
 1007 0704 E3DA97FC 		ble	s1,a5,.L56
 1008              	.L54:
 1009              	.LBE19:
  34:test/ThreadSleep_C_API_test.hpp ****     }
  35:test/ThreadSleep_C_API_test.hpp **** 
  36:test/ThreadSleep_C_API_test.hpp ****     while (!(finished[0] && finished[1])) {}
 1010              		.loc 2 36 5
 1011              		.loc 2 36 12
 1012              		.loc 2 36 24 is_stmt 0
 1013 0708 97070000 		lbu	a5,.LANCHOR0+8
 1013      83C70700 
 1014              		.loc 2 36 12
 1015 0710 E38C07FE 		beqz	a5,.L54
 1016              		.loc 2 36 39 discriminator 1
 1017 0714 97070000 		lbu	a5,.LANCHOR0+9
 1017      83C70700 
 1018              		.loc 2 36 12 discriminator 1
 1019 071c E38607FE 		beqz	a5,.L54
  37:test/ThreadSleep_C_API_test.hpp **** }
 1020              		.loc 2 37 1
GAS LISTING /tmp/ccTm4qf0.s 			page 25


 1021 0720 83308103 		ld	ra,56(sp)
 1022              		.cfi_restore 1
 1023 0724 03340103 		ld	s0,48(sp)
 1024              		.cfi_restore 8
 1025              		.cfi_def_cfa 2, 64
 1026 0728 83348102 		ld	s1,40(sp)
 1027              		.cfi_restore 9
 1028              	.LVL123:
 1029 072c 13010104 		addi	sp,sp,64
 1030              		.cfi_def_cfa_offset 0
 1031 0730 67800000 		jr	ra
 1032              		.cfi_endproc
 1033              	.LFE7:
 1035              		.align	2
 1036              		.globl	_Z8userMainv
 1038              	_Z8userMainv:
 1039              	.LFB8:
 1040              		.file 3 "test/userMain.cpp"
   1:test/userMain.cpp **** //
   2:test/userMain.cpp **** // Created by os on 5/16/22.
   3:test/userMain.cpp **** //
   4:test/userMain.cpp **** 
   5:test/userMain.cpp **** //#include "userMain.hpp"
   6:test/userMain.cpp **** #include "Threads_C_API_test.hpp" // zadatak 2, niti C API i sinhrona promena konteksta
   7:test/userMain.cpp **** //#include "Threads_CPP_API_test.hpp" // zadatak 2., niti CPP API i sinhrona promena konteksta
   8:test/userMain.cpp **** 
   9:test/userMain.cpp **** //#include "ConsumerProducer_C_API_test.hpp" // zadatak 3., kompletan C API sa semaforima, sinhrona
  10:test/userMain.cpp **** //#include "ConsumerProducer_CPP_Sync_API_test.hpp" // zadatak 3., kompletan CPP API sa semaforima,
  11:test/userMain.cpp **** 
  12:test/userMain.cpp **** #include "ThreadSleep_C_API_test.hpp" // thread_sleep test C API
  13:test/userMain.cpp **** //#include "ConsumerProducer_CPP_API_test.hpp" // zadatak 4. CPP API i asinhrona promena konteksta
  14:test/userMain.cpp **** 
  15:test/userMain.cpp **** void userMain()
  16:test/userMain.cpp **** {
 1041              		.loc 3 16 1 is_stmt 1
 1042              		.cfi_startproc
 1043 0734 130101FF 		addi	sp,sp,-16
 1044              		.cfi_def_cfa_offset 16
 1045 0738 23341100 		sd	ra,8(sp)
 1046 073c 23308100 		sd	s0,0(sp)
 1047              		.cfi_offset 1, -8
 1048              		.cfi_offset 8, -16
 1049 0740 13040101 		addi	s0,sp,16
 1050              		.cfi_def_cfa 8, 0
  17:test/userMain.cpp ****     //__asm__ volatile("csrr a0, sstatus"); // test for changing privilege
  18:test/userMain.cpp **** 
  19:test/userMain.cpp ****     //Threads_C_API_test(); // zadatak 2., niti C API i sinhrona promena konteksta
  20:test/userMain.cpp ****     //Threads_CPP_API_test(); // zadatak 2., niti CPP API i sinhrona promena konteksta
  21:test/userMain.cpp **** 
  22:test/userMain.cpp ****     //producerConsumer_C_API(); // zadatak 3., kompletan C API sa semaforima, sinhrona promena kont
  23:test/userMain.cpp ****     //producerConsumer_CPP_Sync_API(); // zadatak 3., kompletan CPP API sa semaforima, sinhrona pro
  24:test/userMain.cpp **** 
  25:test/userMain.cpp ****     testSleeping(); // thread_sleep test C API
 1051              		.loc 3 25 5
 1052              		.loc 3 25 17 is_stmt 0
 1053 0744 97000000 		call	_Z12testSleepingv
 1053      E7800000 
GAS LISTING /tmp/ccTm4qf0.s 			page 26


 1054              	.LVL124:
  26:test/userMain.cpp ****     //ConsumerProducerCPP::testConsumerProducer(); // zadatak 4. CPP API i asinhrona promena kontek
  27:test/userMain.cpp **** }...
 1055              		.loc 3 27 1
 1056 074c 83308100 		ld	ra,8(sp)
 1057              		.cfi_restore 1
 1058 0750 03340100 		ld	s0,0(sp)
 1059              		.cfi_restore 8
 1060              		.cfi_def_cfa 2, 16
 1061 0754 13010101 		addi	sp,sp,16
 1062              		.cfi_def_cfa_offset 0
 1063 0758 67800000 		jr	ra
 1064              		.cfi_endproc
 1065              	.LFE8:
 1067              		.globl	finished
 1068              		.globl	finishedD
 1069              		.globl	finishedC
 1070              		.globl	finishedB
 1071              		.globl	finishedA
 1072              		.bss
 1073              		.align	3
 1074              		.set	.LANCHOR0,. + 0
 1077              	finishedA:
 1078 0000 00       		.zero	1
 1081              	finishedB:
 1082 0001 00       		.zero	1
 1083 0002 00000000 		.zero	6
 1083      0000
 1086              	finished:
 1087 0008 0000     		.zero	2
 1090              	finishedC:
 1091 000a 00       		.zero	1
 1094              	finishedD:
 1095 000b 00       		.zero	1
 1096              		.text
 1097              	.Letext0:
 1098              		.file 4 "test/../h/../lib/hw.h"
 1099              		.file 5 "test/../h/syscall_c.hpp"
 1100              		.file 6 "test/printing.hpp"
 1101              		.file 7 "test/../h/_thread.hpp"
GAS LISTING /tmp/ccTm4qf0.s 			page 27


DEFINED SYMBOLS
                            *ABS*:0000000000000000 userMain.cpp
     /tmp/ccTm4qf0.s:20     .text:0000000000000000 _Z11workerBodyAPv
     /tmp/ccTm4qf0.s:24     .text:0000000000000000 .L0 
     /tmp/ccTm4qf0.s:26     .text:0000000000000000 .L0 
     /tmp/ccTm4qf0.s:27     .text:0000000000000004 .L0 
     /tmp/ccTm4qf0.s:32     .text:0000000000000014 .L0 
     /tmp/ccTm4qf0.s:33     .text:0000000000000014 .L0 
     /tmp/ccTm4qf0.s:34     .text:0000000000000014 .L0 
     /tmp/ccTm4qf0.s:35     .text:0000000000000014 .L0 
     /tmp/ccTm4qf0.s:37     .text:0000000000000018 .L0 
     /tmp/ccTm4qf0.s:41     .text:0000000000000018 .L0 
     /tmp/ccTm4qf0.s:42     .text:0000000000000018 .L0 
     /tmp/ccTm4qf0.s:50     .text:0000000000000020 .L0 
     /tmp/ccTm4qf0.s:51     .text:0000000000000020 .L0 
     /tmp/ccTm4qf0.s:55     .text:0000000000000028 .L0 
     /tmp/ccTm4qf0.s:59     .text:000000000000002c .L0 
     /tmp/ccTm4qf0.s:65     .text:0000000000000038 .L0 
     /tmp/ccTm4qf0.s:69     .text:000000000000003c .L0 
     /tmp/ccTm4qf0.s:73     .text:0000000000000048 .L0 
     /tmp/ccTm4qf0.s:83     .text:0000000000000050 .L0 
     /tmp/ccTm4qf0.s:87     .text:0000000000000054 .L0 
     /tmp/ccTm4qf0.s:91     .text:000000000000005c .L0 
     /tmp/ccTm4qf0.s:92     .text:000000000000005c .L0 
     /tmp/ccTm4qf0.s:96     .text:000000000000006c .L0 
     /tmp/ccTm4qf0.s:97     .text:000000000000006c .L0 
     /tmp/ccTm4qf0.s:103    .text:0000000000000080 .L0 
     /tmp/ccTm4qf0.s:104    .text:0000000000000080 .L0 
     /tmp/ccTm4qf0.s:109    .text:0000000000000090 .L0 
     /tmp/ccTm4qf0.s:110    .text:0000000000000090 .L0 
     /tmp/ccTm4qf0.s:118    .text:0000000000000098 .L0 
     /tmp/ccTm4qf0.s:119    .text:0000000000000098 .L0 
     /tmp/ccTm4qf0.s:123    .text:00000000000000a8 .L0 
     /tmp/ccTm4qf0.s:124    .text:00000000000000a8 .L0 
     /tmp/ccTm4qf0.s:127    .text:00000000000000b4 .L0 
     /tmp/ccTm4qf0.s:128    .text:00000000000000b8 .L0 
     /tmp/ccTm4qf0.s:130    .text:00000000000000bc .L0 
     /tmp/ccTm4qf0.s:131    .text:00000000000000bc .L0 
     /tmp/ccTm4qf0.s:133    .text:00000000000000c0 .L0 
     /tmp/ccTm4qf0.s:135    .text:00000000000000c4 .L0 
     /tmp/ccTm4qf0.s:138    .text:00000000000000c8 .L0 
     /tmp/ccTm4qf0.s:140    .text:00000000000000cc .L0 
     /tmp/ccTm4qf0.s:154    .text:00000000000000cc _Z11workerBodyBPv
     /tmp/ccTm4qf0.s:157    .text:00000000000000cc .L0 
     /tmp/ccTm4qf0.s:159    .text:00000000000000cc .L0 
     /tmp/ccTm4qf0.s:160    .text:00000000000000d0 .L0 
     /tmp/ccTm4qf0.s:165    .text:00000000000000e0 .L0 
     /tmp/ccTm4qf0.s:166    .text:00000000000000e0 .L0 
     /tmp/ccTm4qf0.s:167    .text:00000000000000e0 .L0 
     /tmp/ccTm4qf0.s:168    .text:00000000000000e0 .L0 
     /tmp/ccTm4qf0.s:170    .text:00000000000000e4 .L0 
     /tmp/ccTm4qf0.s:174    .text:00000000000000e4 .L0 
     /tmp/ccTm4qf0.s:175    .text:00000000000000e4 .L0 
     /tmp/ccTm4qf0.s:183    .text:00000000000000ec .L0 
     /tmp/ccTm4qf0.s:184    .text:00000000000000ec .L0 
     /tmp/ccTm4qf0.s:188    .text:00000000000000f4 .L0 
     /tmp/ccTm4qf0.s:192    .text:00000000000000f8 .L0 
GAS LISTING /tmp/ccTm4qf0.s 			page 28


     /tmp/ccTm4qf0.s:198    .text:0000000000000104 .L0 
     /tmp/ccTm4qf0.s:202    .text:0000000000000108 .L0 
     /tmp/ccTm4qf0.s:206    .text:0000000000000114 .L0 
     /tmp/ccTm4qf0.s:216    .text:000000000000011c .L0 
     /tmp/ccTm4qf0.s:220    .text:0000000000000120 .L0 
     /tmp/ccTm4qf0.s:224    .text:0000000000000128 .L0 
     /tmp/ccTm4qf0.s:225    .text:0000000000000128 .L0 
     /tmp/ccTm4qf0.s:229    .text:0000000000000138 .L0 
     /tmp/ccTm4qf0.s:230    .text:0000000000000138 .L0 
     /tmp/ccTm4qf0.s:236    .text:000000000000014c .L0 
     /tmp/ccTm4qf0.s:237    .text:000000000000014c .L0 
     /tmp/ccTm4qf0.s:242    .text:000000000000015c .L0 
     /tmp/ccTm4qf0.s:243    .text:000000000000015c .L0 
     /tmp/ccTm4qf0.s:251    .text:0000000000000164 .L0 
     /tmp/ccTm4qf0.s:252    .text:0000000000000164 .L0 
     /tmp/ccTm4qf0.s:255    .text:000000000000016c .L0 
     /tmp/ccTm4qf0.s:256    .text:000000000000016c .L0 
     /tmp/ccTm4qf0.s:260    .text:000000000000017c .L0 
     /tmp/ccTm4qf0.s:261    .text:000000000000017c .L0 
     /tmp/ccTm4qf0.s:264    .text:0000000000000188 .L0 
     /tmp/ccTm4qf0.s:265    .text:000000000000018c .L0 
     /tmp/ccTm4qf0.s:267    .text:0000000000000190 .L0 
     /tmp/ccTm4qf0.s:268    .text:0000000000000190 .L0 
     /tmp/ccTm4qf0.s:270    .text:0000000000000194 .L0 
     /tmp/ccTm4qf0.s:272    .text:0000000000000198 .L0 
     /tmp/ccTm4qf0.s:275    .text:000000000000019c .L0 
     /tmp/ccTm4qf0.s:277    .text:00000000000001a0 .L0 
     /tmp/ccTm4qf0.s:291    .text:00000000000001a0 _Z9sleepyRunPv
     /tmp/ccTm4qf0.s:295    .text:00000000000001a0 .L0 
     /tmp/ccTm4qf0.s:297    .text:00000000000001a0 .L0 
     /tmp/ccTm4qf0.s:298    .text:00000000000001a4 .L0 
     /tmp/ccTm4qf0.s:303    .text:00000000000001b4 .L0 
     /tmp/ccTm4qf0.s:304    .text:00000000000001b4 .L0 
     /tmp/ccTm4qf0.s:305    .text:00000000000001b4 .L0 
     /tmp/ccTm4qf0.s:306    .text:00000000000001b4 .L0 
     /tmp/ccTm4qf0.s:308    .text:00000000000001b8 .L0 
     /tmp/ccTm4qf0.s:310    .text:00000000000001b8 .L0 
     /tmp/ccTm4qf0.s:311    .text:00000000000001b8 .L0 
     /tmp/ccTm4qf0.s:314    .text:00000000000001bc .L0 
     /tmp/ccTm4qf0.s:315    .text:00000000000001bc .L0 
     /tmp/ccTm4qf0.s:319    .text:00000000000001c0 .L0 
     /tmp/ccTm4qf0.s:320    .text:00000000000001c0 .L0 
     /tmp/ccTm4qf0.s:322    .text:00000000000001c4 .L0 
     /tmp/ccTm4qf0.s:323    .text:00000000000001c4 .L0 
     /tmp/ccTm4qf0.s:326    .text:00000000000001c8 .L0 
     /tmp/ccTm4qf0.s:327    .text:00000000000001c8 .L0 
     /tmp/ccTm4qf0.s:331    .text:00000000000001d8 .L0 
     /tmp/ccTm4qf0.s:332    .text:00000000000001d8 .L0 
     /tmp/ccTm4qf0.s:338    .text:00000000000001ec .L0 
     /tmp/ccTm4qf0.s:339    .text:00000000000001ec .L0 
     /tmp/ccTm4qf0.s:343    .text:00000000000001fc .L0 
     /tmp/ccTm4qf0.s:344    .text:00000000000001fc .L0 
     /tmp/ccTm4qf0.s:348    .text:0000000000000208 .L0 
     /tmp/ccTm4qf0.s:352    .text:000000000000020c .L0 
     /tmp/ccTm4qf0.s:353    .text:000000000000020c .L0 
     /tmp/ccTm4qf0.s:357    .text:0000000000000214 .L0 
     /tmp/ccTm4qf0.s:359    .text:0000000000000218 .L0 
GAS LISTING /tmp/ccTm4qf0.s 			page 29


     /tmp/ccTm4qf0.s:364    .text:000000000000022c .L0 
     /tmp/ccTm4qf0.s:365    .text:0000000000000230 .L0 
     /tmp/ccTm4qf0.s:367    .text:0000000000000234 .L0 
     /tmp/ccTm4qf0.s:368    .text:0000000000000234 .L0 
     /tmp/ccTm4qf0.s:370    .text:0000000000000238 .L0 
     /tmp/ccTm4qf0.s:373    .text:000000000000023c .L0 
     /tmp/ccTm4qf0.s:375    .text:0000000000000240 .L0 
     /tmp/ccTm4qf0.s:377    .text:0000000000000244 .L0 
     /tmp/ccTm4qf0.s:383    .text:0000000000000244 _Z9fibonaccim
     /tmp/ccTm4qf0.s:386    .text:0000000000000244 .L0 
     /tmp/ccTm4qf0.s:388    .text:0000000000000244 .L0 
     /tmp/ccTm4qf0.s:389    .text:0000000000000248 .L0 
     /tmp/ccTm4qf0.s:394    .text:0000000000000258 .L0 
     /tmp/ccTm4qf0.s:395    .text:0000000000000258 .L0 
     /tmp/ccTm4qf0.s:396    .text:0000000000000258 .L0 
     /tmp/ccTm4qf0.s:397    .text:0000000000000258 .L0 
     /tmp/ccTm4qf0.s:399    .text:000000000000025c .L0 
     /tmp/ccTm4qf0.s:402    .text:0000000000000260 .L0 
     /tmp/ccTm4qf0.s:405    .text:0000000000000268 .L0 
     /tmp/ccTm4qf0.s:406    .text:0000000000000268 .L0 
     /tmp/ccTm4qf0.s:409    .text:0000000000000270 .L0 
     /tmp/ccTm4qf0.s:413    .text:0000000000000274 .L0 
     /tmp/ccTm4qf0.s:414    .text:0000000000000274 .L0 
     /tmp/ccTm4qf0.s:419    .text:0000000000000284 .L0 
     /tmp/ccTm4qf0.s:423    .text:0000000000000290 .L0 
     /tmp/ccTm4qf0.s:426    .text:0000000000000294 .L0 
     /tmp/ccTm4qf0.s:427    .text:0000000000000298 .L0 
     /tmp/ccTm4qf0.s:428    .text:0000000000000298 .L0 
     /tmp/ccTm4qf0.s:430    .text:000000000000029c .L0 
     /tmp/ccTm4qf0.s:431    .text:000000000000029c .L0 
     /tmp/ccTm4qf0.s:433    .text:00000000000002a0 .L0 
     /tmp/ccTm4qf0.s:436    .text:00000000000002a4 .L0 
     /tmp/ccTm4qf0.s:438    .text:00000000000002a8 .L0 
     /tmp/ccTm4qf0.s:442    .text:00000000000002ac .L0 
     /tmp/ccTm4qf0.s:444    .text:00000000000002ac .L0 
     /tmp/ccTm4qf0.s:445    .text:00000000000002ac .L0 
     /tmp/ccTm4qf0.s:448    .text:00000000000002b8 .L0 
     /tmp/ccTm4qf0.s:468    .text:00000000000002b8 _Z11workerBodyCPv
     /tmp/ccTm4qf0.s:471    .text:00000000000002b8 .L0 
     /tmp/ccTm4qf0.s:473    .text:00000000000002b8 .L0 
     /tmp/ccTm4qf0.s:474    .text:00000000000002bc .L0 
     /tmp/ccTm4qf0.s:479    .text:00000000000002cc .L0 
     /tmp/ccTm4qf0.s:480    .text:00000000000002cc .L0 
     /tmp/ccTm4qf0.s:481    .text:00000000000002cc .L0 
     /tmp/ccTm4qf0.s:482    .text:00000000000002cc .L0 
     /tmp/ccTm4qf0.s:484    .text:00000000000002d0 .L0 
     /tmp/ccTm4qf0.s:487    .text:00000000000002d0 .L0 
     /tmp/ccTm4qf0.s:488    .text:00000000000002d0 .L0 
     /tmp/ccTm4qf0.s:493    .text:00000000000002d8 .L0 
     /tmp/ccTm4qf0.s:494    .text:00000000000002d8 .L0 
     /tmp/ccTm4qf0.s:498    .text:00000000000002e8 .L0 
     /tmp/ccTm4qf0.s:499    .text:00000000000002e8 .L0 
     /tmp/ccTm4qf0.s:505    .text:00000000000002fc .L0 
     /tmp/ccTm4qf0.s:506    .text:00000000000002fc .L0 
     /tmp/ccTm4qf0.s:510    .text:000000000000030c .L0 
     /tmp/ccTm4qf0.s:516    .text:0000000000000314 .L0 
     /tmp/ccTm4qf0.s:517    .text:0000000000000314 .L0 
GAS LISTING /tmp/ccTm4qf0.s 			page 30


     /tmp/ccTm4qf0.s:520    .text:000000000000031c .L0 
     /tmp/ccTm4qf0.s:521    .text:000000000000031c .L0 
     /tmp/ccTm4qf0.s:525    .text:000000000000032c .L0 
test/Threads_C_API_test.hpp:49     .text:000000000000032c .L0 
     /tmp/ccTm4qf0.s:531    .text:0000000000000330 .L0 
     /tmp/ccTm4qf0.s:533    .text:0000000000000330 .L0 
     /tmp/ccTm4qf0.s:536    .text:0000000000000338 .L0 
     /tmp/ccTm4qf0.s:537    .text:0000000000000338 .L0 
test/Threads_C_API_test.hpp:53     .text:0000000000000338 .L0 
     /tmp/ccTm4qf0.s:544    .text:000000000000033c .L0 
     /tmp/ccTm4qf0.s:546    .text:000000000000033c .L0 
     /tmp/ccTm4qf0.s:550    .text:000000000000034c .L0 
     /tmp/ccTm4qf0.s:551    .text:000000000000034c .L0 
     /tmp/ccTm4qf0.s:557    .text:0000000000000360 .L0 
     /tmp/ccTm4qf0.s:558    .text:0000000000000360 .L0 
     /tmp/ccTm4qf0.s:562    .text:0000000000000370 .L0 
     /tmp/ccTm4qf0.s:563    .text:0000000000000370 .L0 
     /tmp/ccTm4qf0.s:569    .text:0000000000000380 .L0 
     /tmp/ccTm4qf0.s:570    .text:0000000000000380 .L0 
     /tmp/ccTm4qf0.s:575    .text:0000000000000390 .L0 
     /tmp/ccTm4qf0.s:576    .text:0000000000000390 .L0 
     /tmp/ccTm4qf0.s:582    .text:00000000000003a4 .L0 
     /tmp/ccTm4qf0.s:583    .text:00000000000003a4 .L0 
     /tmp/ccTm4qf0.s:589    .text:00000000000003b8 .L0 
     /tmp/ccTm4qf0.s:590    .text:00000000000003b8 .L0 
     /tmp/ccTm4qf0.s:594    .text:00000000000003c8 .L0 
     /tmp/ccTm4qf0.s:595    .text:00000000000003c8 .L0 
     /tmp/ccTm4qf0.s:601    .text:00000000000003dc .L0 
     /tmp/ccTm4qf0.s:602    .text:00000000000003dc .L0 
     /tmp/ccTm4qf0.s:606    .text:00000000000003ec .L0 
     /tmp/ccTm4qf0.s:612    .text:00000000000003f4 .L0 
     /tmp/ccTm4qf0.s:613    .text:00000000000003f4 .L0 
     /tmp/ccTm4qf0.s:616    .text:00000000000003fc .L0 
     /tmp/ccTm4qf0.s:617    .text:00000000000003fc .L0 
     /tmp/ccTm4qf0.s:620    .text:0000000000000404 .L0 
     /tmp/ccTm4qf0.s:621    .text:0000000000000404 .L0 
     /tmp/ccTm4qf0.s:625    .text:0000000000000414 .L0 
     /tmp/ccTm4qf0.s:626    .text:0000000000000414 .L0 
     /tmp/ccTm4qf0.s:629    .text:0000000000000420 .L0 
     /tmp/ccTm4qf0.s:630    .text:0000000000000424 .L0 
     /tmp/ccTm4qf0.s:632    .text:0000000000000428 .L0 
     /tmp/ccTm4qf0.s:633    .text:0000000000000428 .L0 
     /tmp/ccTm4qf0.s:635    .text:000000000000042c .L0 
     /tmp/ccTm4qf0.s:638    .text:0000000000000430 .L0 
     /tmp/ccTm4qf0.s:641    .text:0000000000000434 .L0 
     /tmp/ccTm4qf0.s:643    .text:0000000000000438 .L0 
     /tmp/ccTm4qf0.s:663    .text:0000000000000438 _Z11workerBodyDPv
     /tmp/ccTm4qf0.s:666    .text:0000000000000438 .L0 
     /tmp/ccTm4qf0.s:668    .text:0000000000000438 .L0 
     /tmp/ccTm4qf0.s:669    .text:000000000000043c .L0 
     /tmp/ccTm4qf0.s:674    .text:000000000000044c .L0 
     /tmp/ccTm4qf0.s:675    .text:000000000000044c .L0 
     /tmp/ccTm4qf0.s:676    .text:000000000000044c .L0 
     /tmp/ccTm4qf0.s:677    .text:000000000000044c .L0 
     /tmp/ccTm4qf0.s:679    .text:0000000000000450 .L0 
     /tmp/ccTm4qf0.s:682    .text:0000000000000450 .L0 
     /tmp/ccTm4qf0.s:683    .text:0000000000000450 .L0 
GAS LISTING /tmp/ccTm4qf0.s 			page 31


     /tmp/ccTm4qf0.s:688    .text:0000000000000458 .L0 
     /tmp/ccTm4qf0.s:689    .text:0000000000000458 .L0 
     /tmp/ccTm4qf0.s:693    .text:0000000000000468 .L0 
     /tmp/ccTm4qf0.s:694    .text:0000000000000468 .L0 
     /tmp/ccTm4qf0.s:700    .text:000000000000047c .L0 
     /tmp/ccTm4qf0.s:701    .text:000000000000047c .L0 
     /tmp/ccTm4qf0.s:705    .text:000000000000048c .L0 
     /tmp/ccTm4qf0.s:711    .text:0000000000000494 .L0 
     /tmp/ccTm4qf0.s:712    .text:0000000000000494 .L0 
     /tmp/ccTm4qf0.s:715    .text:000000000000049c .L0 
     /tmp/ccTm4qf0.s:716    .text:000000000000049c .L0 
     /tmp/ccTm4qf0.s:720    .text:00000000000004ac .L0 
test/Threads_C_API_test.hpp:76     .text:00000000000004ac .L0 
     /tmp/ccTm4qf0.s:726    .text:00000000000004b0 .L0 
     /tmp/ccTm4qf0.s:728    .text:00000000000004b0 .L0 
     /tmp/ccTm4qf0.s:731    .text:00000000000004b8 .L0 
     /tmp/ccTm4qf0.s:732    .text:00000000000004b8 .L0 
     /tmp/ccTm4qf0.s:738    .text:00000000000004c8 .L0 
     /tmp/ccTm4qf0.s:739    .text:00000000000004c8 .L0 
     /tmp/ccTm4qf0.s:744    .text:00000000000004d8 .L0 
     /tmp/ccTm4qf0.s:745    .text:00000000000004d8 .L0 
     /tmp/ccTm4qf0.s:751    .text:00000000000004ec .L0 
     /tmp/ccTm4qf0.s:752    .text:00000000000004ec .L0 
     /tmp/ccTm4qf0.s:758    .text:0000000000000500 .L0 
     /tmp/ccTm4qf0.s:759    .text:0000000000000500 .L0 
     /tmp/ccTm4qf0.s:763    .text:0000000000000510 .L0 
     /tmp/ccTm4qf0.s:764    .text:0000000000000510 .L0 
     /tmp/ccTm4qf0.s:770    .text:0000000000000524 .L0 
     /tmp/ccTm4qf0.s:771    .text:0000000000000524 .L0 
     /tmp/ccTm4qf0.s:775    .text:0000000000000534 .L0 
     /tmp/ccTm4qf0.s:781    .text:000000000000053c .L0 
     /tmp/ccTm4qf0.s:782    .text:000000000000053c .L0 
     /tmp/ccTm4qf0.s:785    .text:0000000000000544 .L0 
     /tmp/ccTm4qf0.s:786    .text:0000000000000544 .L0 
     /tmp/ccTm4qf0.s:789    .text:000000000000054c .L0 
     /tmp/ccTm4qf0.s:790    .text:000000000000054c .L0 
     /tmp/ccTm4qf0.s:794    .text:000000000000055c .L0 
     /tmp/ccTm4qf0.s:795    .text:000000000000055c .L0 
     /tmp/ccTm4qf0.s:798    .text:0000000000000568 .L0 
     /tmp/ccTm4qf0.s:799    .text:000000000000056c .L0 
     /tmp/ccTm4qf0.s:801    .text:0000000000000570 .L0 
     /tmp/ccTm4qf0.s:802    .text:0000000000000570 .L0 
     /tmp/ccTm4qf0.s:804    .text:0000000000000574 .L0 
     /tmp/ccTm4qf0.s:807    .text:0000000000000578 .L0 
     /tmp/ccTm4qf0.s:810    .text:000000000000057c .L0 
     /tmp/ccTm4qf0.s:812    .text:0000000000000580 .L0 
     /tmp/ccTm4qf0.s:832    .text:0000000000000580 _Z18Threads_C_API_testv
     /tmp/ccTm4qf0.s:835    .text:0000000000000580 .L0 
     /tmp/ccTm4qf0.s:836    .text:0000000000000580 .L0 
     /tmp/ccTm4qf0.s:837    .text:0000000000000584 .L0 
     /tmp/ccTm4qf0.s:841    .text:0000000000000590 .L0 
     /tmp/ccTm4qf0.s:842    .text:0000000000000590 .L0 
     /tmp/ccTm4qf0.s:843    .text:0000000000000590 .L0 
     /tmp/ccTm4qf0.s:845    .text:0000000000000594 .L0 
     /tmp/ccTm4qf0.s:847    .text:0000000000000594 .L0 
     /tmp/ccTm4qf0.s:848    .text:0000000000000594 .L0 
     /tmp/ccTm4qf0.s:849    .text:0000000000000594 .L0 
GAS LISTING /tmp/ccTm4qf0.s 			page 32


     /tmp/ccTm4qf0.s:855    .text:00000000000005ac .L0 
     /tmp/ccTm4qf0.s:856    .text:00000000000005ac .L0 
     /tmp/ccTm4qf0.s:860    .text:00000000000005bc .L0 
     /tmp/ccTm4qf0.s:861    .text:00000000000005bc .L0 
     /tmp/ccTm4qf0.s:867    .text:00000000000005d4 .L0 
     /tmp/ccTm4qf0.s:868    .text:00000000000005d4 .L0 
     /tmp/ccTm4qf0.s:872    .text:00000000000005e4 .L0 
     /tmp/ccTm4qf0.s:873    .text:00000000000005e4 .L0 
     /tmp/ccTm4qf0.s:879    .text:00000000000005fc .L0 
     /tmp/ccTm4qf0.s:880    .text:00000000000005fc .L0 
     /tmp/ccTm4qf0.s:884    .text:000000000000060c .L0 
     /tmp/ccTm4qf0.s:885    .text:000000000000060c .L0 
     /tmp/ccTm4qf0.s:891    .text:0000000000000624 .L0 
     /tmp/ccTm4qf0.s:892    .text:0000000000000624 .L0 
     /tmp/ccTm4qf0.s:898    .text:0000000000000638 .L0 
     /tmp/ccTm4qf0.s:899    .text:0000000000000638 .L0 
     /tmp/ccTm4qf0.s:903    .text:0000000000000640 .L0 
     /tmp/ccTm4qf0.s:904    .text:0000000000000640 .L0 
     /tmp/ccTm4qf0.s:907    .text:000000000000064c .L0 
     /tmp/ccTm4qf0.s:910    .text:0000000000000658 .L0 
     /tmp/ccTm4qf0.s:913    .text:0000000000000664 .L0 
     /tmp/ccTm4qf0.s:917    .text:0000000000000670 .L0 
     /tmp/ccTm4qf0.s:922    .text:0000000000000678 .L0 
     /tmp/ccTm4qf0.s:926    .text:000000000000067c .L0 
     /tmp/ccTm4qf0.s:930    .text:0000000000000684 .L0 
     /tmp/ccTm4qf0.s:931    .text:0000000000000684 .L0 
     /tmp/ccTm4qf0.s:933    .text:0000000000000688 .L0 
     /tmp/ccTm4qf0.s:935    .text:000000000000068c .L0 
     /tmp/ccTm4qf0.s:942    .text:0000000000000698 .L0 
     /tmp/ccTm4qf0.s:943    .text:000000000000069c .L0 
     /tmp/ccTm4qf0.s:945    .text:00000000000006a0 .L0 
     /tmp/ccTm4qf0.s:946    .text:00000000000006a0 .L0 
     /tmp/ccTm4qf0.s:948    .text:00000000000006a4 .L0 
     /tmp/ccTm4qf0.s:951    .text:00000000000006a8 .L0 
     /tmp/ccTm4qf0.s:953    .text:00000000000006ac .L0 
     /tmp/ccTm4qf0.s:959    .text:00000000000006ac _Z12testSleepingv
     /tmp/ccTm4qf0.s:962    .text:00000000000006ac .L0 
     /tmp/ccTm4qf0.s:963    .text:00000000000006ac .L0 
     /tmp/ccTm4qf0.s:964    .text:00000000000006b0 .L0 
     /tmp/ccTm4qf0.s:968    .text:00000000000006bc .L0 
     /tmp/ccTm4qf0.s:969    .text:00000000000006bc .L0 
     /tmp/ccTm4qf0.s:970    .text:00000000000006bc .L0 
     /tmp/ccTm4qf0.s:972    .text:00000000000006c0 .L0 
     /tmp/ccTm4qf0.s:975    .text:00000000000006c0 .L0 
     /tmp/ccTm4qf0.s:976    .text:00000000000006c0 .L0 
     /tmp/ccTm4qf0.s:977    .text:00000000000006c0 .L0 
     /tmp/ccTm4qf0.s:982    .text:00000000000006d0 .L0 
     /tmp/ccTm4qf0.s:985    .text:00000000000006d0 .L0 
     /tmp/ccTm4qf0.s:986    .text:00000000000006d0 .L0 
     /tmp/ccTm4qf0.s:991    .text:00000000000006d8 .L0 
     /tmp/ccTm4qf0.s:992    .text:00000000000006d8 .L0 
     /tmp/ccTm4qf0.s:994    .text:00000000000006dc .L0 
     /tmp/ccTm4qf0.s:1002   .text:00000000000006fc .L0 
     /tmp/ccTm4qf0.s:1006   .text:0000000000000700 .L0 
     /tmp/ccTm4qf0.s:1011   .text:0000000000000708 .L0 
     /tmp/ccTm4qf0.s:1012   .text:0000000000000708 .L0 
     /tmp/ccTm4qf0.s:1013   .text:0000000000000708 .L0 
GAS LISTING /tmp/ccTm4qf0.s 			page 33


     /tmp/ccTm4qf0.s:1015   .text:0000000000000710 .L0 
     /tmp/ccTm4qf0.s:1017   .text:0000000000000714 .L0 
     /tmp/ccTm4qf0.s:1019   .text:000000000000071c .L0 
     /tmp/ccTm4qf0.s:1021   .text:0000000000000720 .L0 
     /tmp/ccTm4qf0.s:1022   .text:0000000000000724 .L0 
     /tmp/ccTm4qf0.s:1024   .text:0000000000000728 .L0 
     /tmp/ccTm4qf0.s:1025   .text:0000000000000728 .L0 
     /tmp/ccTm4qf0.s:1027   .text:000000000000072c .L0 
     /tmp/ccTm4qf0.s:1030   .text:0000000000000730 .L0 
     /tmp/ccTm4qf0.s:1032   .text:0000000000000734 .L0 
     /tmp/ccTm4qf0.s:1038   .text:0000000000000734 _Z8userMainv
     /tmp/ccTm4qf0.s:1042   .text:0000000000000734 .L0 
     /tmp/ccTm4qf0.s:1043   .text:0000000000000734 .L0 
     /tmp/ccTm4qf0.s:1044   .text:0000000000000738 .L0 
     /tmp/ccTm4qf0.s:1047   .text:0000000000000740 .L0 
     /tmp/ccTm4qf0.s:1048   .text:0000000000000740 .L0 
     /tmp/ccTm4qf0.s:1050   .text:0000000000000744 .L0 
     /tmp/ccTm4qf0.s:1052   .text:0000000000000744 .L0 
     /tmp/ccTm4qf0.s:1053   .text:0000000000000744 .L0 
     /tmp/ccTm4qf0.s:1056   .text:000000000000074c .L0 
     /tmp/ccTm4qf0.s:1057   .text:0000000000000750 .L0 
     /tmp/ccTm4qf0.s:1059   .text:0000000000000754 .L0 
     /tmp/ccTm4qf0.s:1060   .text:0000000000000754 .L0 
     /tmp/ccTm4qf0.s:1062   .text:0000000000000758 .L0 
     /tmp/ccTm4qf0.s:1064   .text:000000000000075c .L0 
     /tmp/ccTm4qf0.s:1086   .bss:0000000000000008 finished
     /tmp/ccTm4qf0.s:1094   .bss:000000000000000b finishedD
     /tmp/ccTm4qf0.s:1090   .bss:000000000000000a finishedC
     /tmp/ccTm4qf0.s:1081   .bss:0000000000000001 finishedB
     /tmp/ccTm4qf0.s:1077   .bss:0000000000000000 finishedA
     /tmp/ccTm4qf0.s:1074   .bss:0000000000000000 .LANCHOR0
     /tmp/ccTm4qf0.s:1102   .text:000000000000075c .L0 
     /tmp/ccTm4qf0.s:8      .rodata.str1.8:0000000000000000 .LC0
     /tmp/ccTm4qf0.s:92     .text:000000000000005c .L0 
     /tmp/ccTm4qf0.s:11     .rodata.str1.8:0000000000000008 .LC1
     /tmp/ccTm4qf0.s:104    .text:0000000000000080 .L0 
     /tmp/ccTm4qf0.s:14     .rodata.str1.8:0000000000000010 .LC2
     /tmp/ccTm4qf0.s:119    .text:0000000000000098 .L0 
     /tmp/ccTm4qf0.s:125    .text:00000000000000ac .L0 
     /tmp/ccTm4qf0.s:145    .rodata.str1.8:0000000000000020 .LC3
     /tmp/ccTm4qf0.s:225    .text:0000000000000128 .L0 
     /tmp/ccTm4qf0.s:237    .text:000000000000014c .L0 
     /tmp/ccTm4qf0.s:148    .rodata.str1.8:0000000000000028 .LC4
     /tmp/ccTm4qf0.s:256    .text:000000000000016c .L0 
     /tmp/ccTm4qf0.s:262    .text:0000000000000180 .L0 
     /tmp/ccTm4qf0.s:282    .rodata.str1.8:0000000000000038 .LC5
     /tmp/ccTm4qf0.s:327    .text:00000000000001c8 .L0 
     /tmp/ccTm4qf0.s:285    .rodata.str1.8:0000000000000040 .LC6
     /tmp/ccTm4qf0.s:339    .text:00000000000001ec .L0 
     /tmp/ccTm4qf0.s:359    .text:0000000000000218 .L0 
     /tmp/ccTm4qf0.s:453    .rodata.str1.8:0000000000000048 .LC7
     /tmp/ccTm4qf0.s:494    .text:00000000000002d8 .L0 
     /tmp/ccTm4qf0.s:506    .text:00000000000002fc .L0 
     /tmp/ccTm4qf0.s:456    .rodata.str1.8:0000000000000050 .LC8
     /tmp/ccTm4qf0.s:521    .text:000000000000031c .L0 
     /tmp/ccTm4qf0.s:459    .rodata.str1.8:0000000000000060 .LC9
     /tmp/ccTm4qf0.s:546    .text:000000000000033c .L0 
GAS LISTING /tmp/ccTm4qf0.s 			page 34


     /tmp/ccTm4qf0.s:558    .text:0000000000000360 .L0 
     /tmp/ccTm4qf0.s:462    .rodata.str1.8:0000000000000068 .LC10
     /tmp/ccTm4qf0.s:570    .text:0000000000000380 .L0 
     /tmp/ccTm4qf0.s:583    .text:00000000000003a4 .L0 
     /tmp/ccTm4qf0.s:590    .text:00000000000003b8 .L0 
     /tmp/ccTm4qf0.s:602    .text:00000000000003dc .L0 
     /tmp/ccTm4qf0.s:621    .text:0000000000000404 .L0 
     /tmp/ccTm4qf0.s:627    .text:0000000000000418 .L0 
     /tmp/ccTm4qf0.s:648    .rodata.str1.8:0000000000000078 .LC11
     /tmp/ccTm4qf0.s:689    .text:0000000000000458 .L0 
     /tmp/ccTm4qf0.s:701    .text:000000000000047c .L0 
     /tmp/ccTm4qf0.s:651    .rodata.str1.8:0000000000000080 .LC12
     /tmp/ccTm4qf0.s:716    .text:000000000000049c .L0 
     /tmp/ccTm4qf0.s:654    .rodata.str1.8:0000000000000090 .LC13
     /tmp/ccTm4qf0.s:739    .text:00000000000004c8 .L0 
     /tmp/ccTm4qf0.s:752    .text:00000000000004ec .L0 
     /tmp/ccTm4qf0.s:759    .text:0000000000000500 .L0 
     /tmp/ccTm4qf0.s:771    .text:0000000000000524 .L0 
     /tmp/ccTm4qf0.s:657    .rodata.str1.8:00000000000000a0 .LC14
     /tmp/ccTm4qf0.s:790    .text:000000000000054c .L0 
     /tmp/ccTm4qf0.s:796    .text:0000000000000560 .L0 
     /tmp/ccTm4qf0.s:850    .text:0000000000000598 .L0 
     /tmp/ccTm4qf0.s:817    .rodata.str1.8:00000000000000b0 .LC15
     /tmp/ccTm4qf0.s:856    .text:00000000000005ac .L0 
     /tmp/ccTm4qf0.s:862    .text:00000000000005c0 .L0 
     /tmp/ccTm4qf0.s:820    .rodata.str1.8:00000000000000c8 .LC16
     /tmp/ccTm4qf0.s:868    .text:00000000000005d4 .L0 
     /tmp/ccTm4qf0.s:874    .text:00000000000005e8 .L0 
     /tmp/ccTm4qf0.s:823    .rodata.str1.8:00000000000000e0 .LC17
     /tmp/ccTm4qf0.s:880    .text:00000000000005fc .L0 
     /tmp/ccTm4qf0.s:886    .text:0000000000000610 .L0 
     /tmp/ccTm4qf0.s:826    .rodata.str1.8:00000000000000f8 .LC18
     /tmp/ccTm4qf0.s:892    .text:0000000000000624 .L0 
     /tmp/ccTm4qf0.s:904    .text:0000000000000640 .L0 
     /tmp/ccTm4qf0.s:907    .text:000000000000064c .L0 
     /tmp/ccTm4qf0.s:910    .text:0000000000000658 .L0 
     /tmp/ccTm4qf0.s:913    .text:0000000000000664 .L0 
     /tmp/ccTm4qf0.s:996    .text:00000000000006e4 .L0 
     /tmp/ccTm4qf0.s:1013   .text:0000000000000708 .L0 
     /tmp/ccTm4qf0.s:1017   .text:0000000000000714 .L0 
     /tmp/ccTm4qf0.s:85     .text:0000000000000054 .L7
     /tmp/ccTm4qf0.s:77     .text:0000000000000050 .L3
     /tmp/ccTm4qf0.s:45     .text:0000000000000020 .L4
     /tmp/ccTm4qf0.s:66     .text:000000000000003c .L5
     /tmp/ccTm4qf0.s:113    .text:0000000000000098 .L2
     /tmp/ccTm4qf0.s:57     .text:000000000000002c .L6
     /tmp/ccTm4qf0.s:218    .text:0000000000000120 .L15
     /tmp/ccTm4qf0.s:210    .text:000000000000011c .L11
     /tmp/ccTm4qf0.s:178    .text:00000000000000ec .L12
     /tmp/ccTm4qf0.s:199    .text:0000000000000108 .L13
     /tmp/ccTm4qf0.s:246    .text:0000000000000164 .L10
     /tmp/ccTm4qf0.s:190    .text:00000000000000f8 .L14
     /tmp/ccTm4qf0.s:350    .text:000000000000020c .L18
     /tmp/ccTm4qf0.s:317    .text:00000000000001c0 .L19
     /tmp/ccTm4qf0.s:424    .text:0000000000000294 .L21
     /tmp/ccTm4qf0.s:441    .text:00000000000002ac .L26
     /tmp/ccTm4qf0.s:411    .text:0000000000000274 .L23
GAS LISTING /tmp/ccTm4qf0.s 			page 35


     /tmp/ccTm4qf0.s:514    .text:0000000000000314 .L29
     /tmp/ccTm4qf0.s:491    .text:00000000000002d8 .L33
     /tmp/ccTm4qf0.s:610    .text:00000000000003f4 .L31
     /tmp/ccTm4qf0.s:587    .text:00000000000003b8 .L34
     /tmp/ccTm4qf0.s:709    .text:0000000000000494 .L37
     /tmp/ccTm4qf0.s:686    .text:0000000000000458 .L41
     /tmp/ccTm4qf0.s:779    .text:000000000000053c .L39
     /tmp/ccTm4qf0.s:756    .text:0000000000000500 .L42
     /tmp/ccTm4qf0.s:901    .text:0000000000000640 .L46
     /tmp/ccTm4qf0.s:896    .text:0000000000000638 .L44
     /tmp/ccTm4qf0.s:924    .text:000000000000067c .L45
     /tmp/ccTm4qf0.s:939    .text:0000000000000698 .L43
     /tmp/ccTm4qf0.s:920    .text:0000000000000678 .L48
     /tmp/ccTm4qf0.s:1004   .text:0000000000000700 .L53
     /tmp/ccTm4qf0.s:989    .text:00000000000006d8 .L56
     /tmp/ccTm4qf0.s:1008   .text:0000000000000708 .L54
     /tmp/ccTm4qf0.s:2482   .debug_abbrev:0000000000000000 .Ldebug_abbrev0
     /tmp/ccTm4qf0.s:3274   .debug_str:0000000000000059 .LASF62
     /tmp/ccTm4qf0.s:3358   .debug_str:000000000000037d .LASF63
     /tmp/ccTm4qf0.s:3344   .debug_str:000000000000031a .LASF64
     /tmp/ccTm4qf0.s:5      .text:0000000000000000 .Ltext0
     /tmp/ccTm4qf0.s:1097   .text:000000000000075c .Letext0
     /tmp/ccTm4qf0.s:3260   .debug_line:0000000000000000 .Ldebug_line0
     /tmp/ccTm4qf0.s:3336   .debug_str:00000000000002e3 .LASF0
     /tmp/ccTm4qf0.s:3314   .debug_str:0000000000000246 .LASF1
     /tmp/ccTm4qf0.s:3304   .debug_str:00000000000001f2 .LASF2
     /tmp/ccTm4qf0.s:3386   .debug_str:0000000000000428 .LASF3
     /tmp/ccTm4qf0.s:3280   .debug_str:000000000000013e .LASF4
     /tmp/ccTm4qf0.s:3312   .debug_str:0000000000000234 .LASF5
     /tmp/ccTm4qf0.s:3270   .debug_str:0000000000000040 .LASF6
     /tmp/ccTm4qf0.s:3346   .debug_str:000000000000032f .LASF7
     /tmp/ccTm4qf0.s:3266   .debug_str:000000000000001e .LASF8
     /tmp/ccTm4qf0.s:3298   .debug_str:00000000000001bd .LASF9
     /tmp/ccTm4qf0.s:3350   .debug_str:0000000000000342 .LASF10
     /tmp/ccTm4qf0.s:3278   .debug_str:0000000000000130 .LASF11
     /tmp/ccTm4qf0.s:3402   .debug_str:000000000000048f .LASF12
     /tmp/ccTm4qf0.s:3262   .debug_str:0000000000000000 .LASF13
     /tmp/ccTm4qf0.s:3300   .debug_str:00000000000001d0 .LASF14
     /tmp/ccTm4qf0.s:3394   .debug_str:000000000000045d .LASF15
     /tmp/ccTm4qf0.s:3360   .debug_str:000000000000038f .LASF16
     /tmp/ccTm4qf0.s:3320   .debug_str:0000000000000269 .LASF17
     /tmp/ccTm4qf0.s:3292   .debug_str:0000000000000181 .LASF18
     /tmp/ccTm4qf0.s:3354   .debug_str:000000000000035e .LASF19
     /tmp/ccTm4qf0.s:3380   .debug_str:000000000000040a .LASF65
     /tmp/ccTm4qf0.s:3340   .debug_str:00000000000002fb .LASF66
     /tmp/ccTm4qf0.s:3296   .debug_str:00000000000001ac .LASF67
     /tmp/ccTm4qf0.s:3356   .debug_str:0000000000000374 .LASF20
     /tmp/ccTm4qf0.s:3362   .debug_str:000000000000039f .LASF21
     /tmp/ccTm4qf0.s:3284   .debug_str:000000000000014f .LASF22
     /tmp/ccTm4qf0.s:3364   .debug_str:00000000000003a9 .LASF23
     /tmp/ccTm4qf0.s:3366   .debug_str:00000000000003b3 .LASF24
     /tmp/ccTm4qf0.s:3368   .debug_str:00000000000003bd .LASF25
     /tmp/ccTm4qf0.s:3318   .debug_str:0000000000000260 .LASF26
     /tmp/ccTm4qf0.s:3334   .debug_str:00000000000002da .LASF27
     /tmp/ccTm4qf0.s:3398   .debug_str:0000000000000474 .LASF29
     /tmp/ccTm4qf0.s:1039   .text:0000000000000734 .LFB8
     /tmp/ccTm4qf0.s:1065   .text:000000000000075c .LFE8
GAS LISTING /tmp/ccTm4qf0.s 			page 36


     /tmp/ccTm4qf0.s:1054   .text:000000000000074c .LVL124
     /tmp/ccTm4qf0.s:3392   .debug_str:0000000000000450 .LASF28
     /tmp/ccTm4qf0.s:3374   .debug_str:00000000000003e4 .LASF30
     /tmp/ccTm4qf0.s:960    .text:00000000000006ac .LFB7
     /tmp/ccTm4qf0.s:1033   .text:0000000000000734 .LFE7
     /tmp/ccTm4qf0.s:3310   .debug_str:0000000000000220 .LASF31
     /tmp/ccTm4qf0.s:3322   .debug_str:0000000000000275 .LASF32
     /tmp/ccTm4qf0.s:3370   .debug_str:00000000000003c7 .LASF33
     /tmp/ccTm4qf0.s:984    .text:00000000000006d0 .LBB19
     /tmp/ccTm4qf0.s:1009   .text:0000000000000708 .LBE19
     /tmp/ccTm4qf0.s:2948   .debug_loc:0000000000000000 .LLST21
     /tmp/ccTm4qf0.s:1000   .text:00000000000006fc .LVL121
     /tmp/ccTm4qf0.s:3382   .debug_str:0000000000000412 .LASF34
     /tmp/ccTm4qf0.s:3268   .debug_str:0000000000000031 .LASF35
     /tmp/ccTm4qf0.s:292    .text:00000000000001a0 .LFB6
     /tmp/ccTm4qf0.s:378    .text:0000000000000244 .LFE6
     /tmp/ccTm4qf0.s:2960   .debug_loc:0000000000000037 .LLST8
     /tmp/ccTm4qf0.s:3264   .debug_str:0000000000000013 .LASF36
     /tmp/ccTm4qf0.s:2974   .debug_loc:0000000000000070 .LLST9
     /tmp/ccTm4qf0.s:2981   .debug_loc:0000000000000093 .LLST10
     /tmp/ccTm4qf0.s:329    .text:00000000000001d8 .LVL35
     /tmp/ccTm4qf0.s:336    .text:00000000000001ec .LVL36
     /tmp/ccTm4qf0.s:341    .text:00000000000001fc .LVL37
     /tmp/ccTm4qf0.s:346    .text:0000000000000208 .LVL38
     /tmp/ccTm4qf0.s:3276   .debug_str:000000000000011d .LASF37
     /tmp/ccTm4qf0.s:3288   .debug_str:0000000000000160 .LASF38
     /tmp/ccTm4qf0.s:833    .text:0000000000000580 .LFB5
     /tmp/ccTm4qf0.s:954    .text:00000000000006ac .LFE5
     /tmp/ccTm4qf0.s:3376   .debug_str:00000000000003f6 .LASF39
     /tmp/ccTm4qf0.s:915    .text:0000000000000670 .LBB18
     /tmp/ccTm4qf0.s:940    .text:0000000000000698 .LBE18
     /tmp/ccTm4qf0.s:3316   .debug_str:0000000000000259 .LASF40
     /tmp/ccTm4qf0.s:2997   .debug_loc:00000000000000dd .LLST19
     /tmp/ccTm4qf0.s:3384   .debug_str:000000000000041c .LASF41
     /tmp/ccTm4qf0.s:3286   .debug_str:0000000000000154 .LASF68
     /tmp/ccTm4qf0.s:3008   .debug_loc:0000000000000113 .LLST20
     /tmp/ccTm4qf0.s:3330   .debug_str:00000000000002be .LASF42
     /tmp/ccTm4qf0.s:936    .text:0000000000000694 .LVL115
     /tmp/ccTm4qf0.s:853    .text:00000000000005ac .LVL103
     /tmp/ccTm4qf0.s:858    .text:00000000000005bc .LVL104
     /tmp/ccTm4qf0.s:865    .text:00000000000005d4 .LVL105
     /tmp/ccTm4qf0.s:870    .text:00000000000005e4 .LVL106
     /tmp/ccTm4qf0.s:877    .text:00000000000005fc .LVL107
     /tmp/ccTm4qf0.s:882    .text:000000000000060c .LVL108
     /tmp/ccTm4qf0.s:889    .text:0000000000000624 .LVL109
     /tmp/ccTm4qf0.s:894    .text:0000000000000634 .LVL110
     /tmp/ccTm4qf0.s:900    .text:0000000000000640 .LVL111
     /tmp/ccTm4qf0.s:3352   .debug_str:0000000000000352 .LASF43
     /tmp/ccTm4qf0.s:3306   .debug_str:0000000000000200 .LASF44
     /tmp/ccTm4qf0.s:664    .text:0000000000000438 .LFB4
     /tmp/ccTm4qf0.s:813    .text:0000000000000580 .LFE4
     /tmp/ccTm4qf0.s:3015   .debug_loc:0000000000000136 .LLST16
     /tmp/ccTm4qf0.s:3029   .debug_loc:000000000000016f .LLST17
     /tmp/ccTm4qf0.s:3396   .debug_str:000000000000046d .LASF45
     /tmp/ccTm4qf0.s:3049   .debug_loc:00000000000001cc .LLST18
     /tmp/ccTm4qf0.s:691    .text:0000000000000468 .LVL81
     /tmp/ccTm4qf0.s:698    .text:000000000000047c .LVL82
GAS LISTING /tmp/ccTm4qf0.s 			page 37


     /tmp/ccTm4qf0.s:703    .text:000000000000048c .LVL83
     /tmp/ccTm4qf0.s:718    .text:00000000000004ac .LVL86
     /tmp/ccTm4qf0.s:729    .text:00000000000004b8 .LVL87
     /tmp/ccTm4qf0.s:734    .text:00000000000004c4 .LVL88
     /tmp/ccTm4qf0.s:742    .text:00000000000004d8 .LVL91
     /tmp/ccTm4qf0.s:749    .text:00000000000004ec .LVL92
     /tmp/ccTm4qf0.s:754    .text:00000000000004fc .LVL93
     /tmp/ccTm4qf0.s:761    .text:0000000000000510 .LVL94
     /tmp/ccTm4qf0.s:768    .text:0000000000000524 .LVL95
     /tmp/ccTm4qf0.s:773    .text:0000000000000534 .LVL96
     /tmp/ccTm4qf0.s:787    .text:000000000000054c .LVL99
     /tmp/ccTm4qf0.s:792    .text:000000000000055c .LVL100
     /tmp/ccTm4qf0.s:3348   .debug_str:0000000000000336 .LASF46
     /tmp/ccTm4qf0.s:3332   .debug_str:00000000000002c8 .LASF47
     /tmp/ccTm4qf0.s:469    .text:00000000000002b8 .LFB3
     /tmp/ccTm4qf0.s:644    .text:0000000000000438 .LFE3
     /tmp/ccTm4qf0.s:3060   .debug_loc:0000000000000202 .LLST12
     /tmp/ccTm4qf0.s:3074   .debug_loc:000000000000023b .LLST13
     /tmp/ccTm4qf0.s:3094   .debug_loc:0000000000000298 .LLST14
     /tmp/ccTm4qf0.s:3102   .debug_loc:00000000000002bc .LLST15
     /tmp/ccTm4qf0.s:496    .text:00000000000002e8 .LVL52
     /tmp/ccTm4qf0.s:503    .text:00000000000002fc .LVL53
     /tmp/ccTm4qf0.s:508    .text:000000000000030c .LVL54
     /tmp/ccTm4qf0.s:523    .text:000000000000032c .LVL57
     /tmp/ccTm4qf0.s:534    .text:0000000000000338 .LVL58
     /tmp/ccTm4qf0.s:548    .text:000000000000034c .LVL60
     /tmp/ccTm4qf0.s:555    .text:0000000000000360 .LVL61
     /tmp/ccTm4qf0.s:560    .text:0000000000000370 .LVL62
     /tmp/ccTm4qf0.s:565    .text:000000000000037c .LVL63
     /tmp/ccTm4qf0.s:573    .text:0000000000000390 .LVL66
     /tmp/ccTm4qf0.s:580    .text:00000000000003a4 .LVL67
     /tmp/ccTm4qf0.s:585    .text:00000000000003b4 .LVL68
     /tmp/ccTm4qf0.s:592    .text:00000000000003c8 .LVL69
     /tmp/ccTm4qf0.s:599    .text:00000000000003dc .LVL70
     /tmp/ccTm4qf0.s:604    .text:00000000000003ec .LVL71
     /tmp/ccTm4qf0.s:618    .text:0000000000000404 .LVL74
     /tmp/ccTm4qf0.s:623    .text:0000000000000414 .LVL75
     /tmp/ccTm4qf0.s:3378   .debug_str:00000000000003fe .LASF48
     /tmp/ccTm4qf0.s:3272   .debug_str:0000000000000047 .LASF49
     /tmp/ccTm4qf0.s:155    .text:00000000000000cc .LFB2
     /tmp/ccTm4qf0.s:278    .text:00000000000001a0 .LFE2
     /tmp/ccTm4qf0.s:3113   .debug_loc:00000000000002f2 .LLST4
     /tmp/ccTm4qf0.s:173    .text:00000000000000e4 .LBB10
     /tmp/ccTm4qf0.s:249    .text:0000000000000164 .LBE10
     /tmp/ccTm4qf0.s:3127   .debug_loc:000000000000032b .LLST5
     /tmp/ccTm4qf0.s:3246   .debug_ranges:0000000000000000 .Ldebug_ranges0
     /tmp/ccTm4qf0.s:3139   .debug_loc:0000000000000362 .LLST6
     /tmp/ccTm4qf0.s:196    .text:0000000000000104 .LBB14
     /tmp/ccTm4qf0.s:211    .text:000000000000011c .LBE14
     /tmp/ccTm4qf0.s:3151   .debug_loc:0000000000000399 .LLST7
     /tmp/ccTm4qf0.s:185    .text:00000000000000f4 .LVL18
     /tmp/ccTm4qf0.s:227    .text:0000000000000138 .LVL24
     /tmp/ccTm4qf0.s:234    .text:000000000000014c .LVL25
     /tmp/ccTm4qf0.s:239    .text:000000000000015c .LVL26
     /tmp/ccTm4qf0.s:253    .text:000000000000016c .LVL28
     /tmp/ccTm4qf0.s:258    .text:000000000000017c .LVL29
     /tmp/ccTm4qf0.s:3328   .debug_str:00000000000002b2 .LASF50
GAS LISTING /tmp/ccTm4qf0.s 			page 38


     /tmp/ccTm4qf0.s:3388   .debug_str:000000000000042e .LASF51
     /tmp/ccTm4qf0.s:21     .text:0000000000000000 .LFB1
     /tmp/ccTm4qf0.s:141    .text:00000000000000cc .LFE1
     /tmp/ccTm4qf0.s:3162   .debug_loc:00000000000003cf .LLST0
     /tmp/ccTm4qf0.s:40     .text:0000000000000018 .LBB2
     /tmp/ccTm4qf0.s:116    .text:0000000000000098 .LBE2
     /tmp/ccTm4qf0.s:3176   .debug_loc:0000000000000408 .LLST1
     /tmp/ccTm4qf0.s:3188   .debug_loc:000000000000043f .LLST2
     /tmp/ccTm4qf0.s:63     .text:0000000000000038 .LBB6
     /tmp/ccTm4qf0.s:78     .text:0000000000000050 .LBE6
     /tmp/ccTm4qf0.s:3200   .debug_loc:0000000000000476 .LLST3
     /tmp/ccTm4qf0.s:52     .text:0000000000000028 .LVL3
     /tmp/ccTm4qf0.s:94     .text:000000000000006c .LVL9
     /tmp/ccTm4qf0.s:101    .text:0000000000000080 .LVL10
     /tmp/ccTm4qf0.s:106    .text:0000000000000090 .LVL11
     /tmp/ccTm4qf0.s:121    .text:00000000000000a8 .LVL13
     /tmp/ccTm4qf0.s:3282   .debug_str:0000000000000145 .LASF69
     /tmp/ccTm4qf0.s:3400   .debug_str:0000000000000481 .LASF70
     /tmp/ccTm4qf0.s:384    .text:0000000000000244 .LFB0
     /tmp/ccTm4qf0.s:449    .text:00000000000002b8 .LFE0
     /tmp/ccTm4qf0.s:3211   .debug_loc:00000000000004ac .LLST11
     /tmp/ccTm4qf0.s:416    .text:0000000000000280 .LVL44
     /tmp/ccTm4qf0.s:421    .text:0000000000000290 .LVL45
     /tmp/ccTm4qf0.s:446    .text:00000000000002b4 .LVL48
     /tmp/ccTm4qf0.s:3324   .debug_str:0000000000000281 .LASF52
     /tmp/ccTm4qf0.s:3308   .debug_str:0000000000000212 .LASF54
     /tmp/ccTm4qf0.s:3302   .debug_str:00000000000001df .LASF53
     /tmp/ccTm4qf0.s:3326   .debug_str:00000000000002a6 .LASF55
     /tmp/ccTm4qf0.s:3342   .debug_str:000000000000030b .LASF56
     /tmp/ccTm4qf0.s:3290   .debug_str:0000000000000178 .LASF57
     /tmp/ccTm4qf0.s:3372   .debug_str:00000000000003d4 .LASF58
     /tmp/ccTm4qf0.s:3338   .debug_str:00000000000002f0 .LASF59
     /tmp/ccTm4qf0.s:3294   .debug_str:0000000000000197 .LASF60
     /tmp/ccTm4qf0.s:3390   .debug_str:0000000000000440 .LASF61
     /tmp/ccTm4qf0.s:983    .text:00000000000006d0 .LVL119
     /tmp/ccTm4qf0.s:988    .text:00000000000006d8 .LVL120
     /tmp/ccTm4qf0.s:1028   .text:000000000000072c .LVL123
     /tmp/ccTm4qf0.s:296    .text:00000000000001a0 .LVL31
     /tmp/ccTm4qf0.s:316    .text:00000000000001c0 .LVL33
     /tmp/ccTm4qf0.s:312    .text:00000000000001bc .LVL32
     /tmp/ccTm4qf0.s:355    .text:0000000000000214 .LVL40
     /tmp/ccTm4qf0.s:324    .text:00000000000001c8 .LVL34
     /tmp/ccTm4qf0.s:349    .text:000000000000020c .LVL39
     /tmp/ccTm4qf0.s:371    .text:0000000000000238 .LVL41
     /tmp/ccTm4qf0.s:919    .text:0000000000000678 .LVL112
     /tmp/ccTm4qf0.s:923    .text:000000000000067c .LVL113
     /tmp/ccTm4qf0.s:928    .text:0000000000000684 .LVL114
     /tmp/ccTm4qf0.s:938    .text:0000000000000698 .LVL116
     /tmp/ccTm4qf0.s:949    .text:00000000000006a4 .LVL117
     /tmp/ccTm4qf0.s:667    .text:0000000000000438 .LVL78
     /tmp/ccTm4qf0.s:685    .text:0000000000000458 .LVL80
     /tmp/ccTm4qf0.s:681    .text:0000000000000450 .LVL79
     /tmp/ccTm4qf0.s:706    .text:0000000000000490 .LVL84
     /tmp/ccTm4qf0.s:708    .text:0000000000000494 .LVL85
     /tmp/ccTm4qf0.s:776    .text:0000000000000538 .LVL97
     /tmp/ccTm4qf0.s:778    .text:000000000000053c .LVL98
     /tmp/ccTm4qf0.s:805    .text:0000000000000574 .LVL101
GAS LISTING /tmp/ccTm4qf0.s 			page 39


     /tmp/ccTm4qf0.s:736    .text:00000000000004c8 .LVL89
     /tmp/ccTm4qf0.s:740    .text:00000000000004d0 .LVL90
     /tmp/ccTm4qf0.s:808    .text:0000000000000578 .LVL102
     /tmp/ccTm4qf0.s:472    .text:00000000000002b8 .LVL49
     /tmp/ccTm4qf0.s:490    .text:00000000000002d8 .LVL51
     /tmp/ccTm4qf0.s:486    .text:00000000000002d0 .LVL50
     /tmp/ccTm4qf0.s:511    .text:0000000000000310 .LVL55
     /tmp/ccTm4qf0.s:513    .text:0000000000000314 .LVL56
     /tmp/ccTm4qf0.s:607    .text:00000000000003f0 .LVL72
     /tmp/ccTm4qf0.s:609    .text:00000000000003f4 .LVL73
     /tmp/ccTm4qf0.s:636    .text:000000000000042c .LVL76
     /tmp/ccTm4qf0.s:542    .text:000000000000033c .LVL59
     /tmp/ccTm4qf0.s:567    .text:0000000000000380 .LVL64
     /tmp/ccTm4qf0.s:571    .text:0000000000000388 .LVL65
     /tmp/ccTm4qf0.s:639    .text:0000000000000430 .LVL77
     /tmp/ccTm4qf0.s:158    .text:00000000000000cc .LVL15
     /tmp/ccTm4qf0.s:177    .text:00000000000000ec .LVL17
     /tmp/ccTm4qf0.s:172    .text:00000000000000e4 .LVL16
     /tmp/ccTm4qf0.s:273    .text:0000000000000198 .LVL30
     /tmp/ccTm4qf0.s:217    .text:0000000000000120 .LVL23
     /tmp/ccTm4qf0.s:245    .text:0000000000000164 .LVL27
     /tmp/ccTm4qf0.s:200    .text:0000000000000108 .LVL20
     /tmp/ccTm4qf0.s:209    .text:000000000000011c .LVL22
     /tmp/ccTm4qf0.s:25     .text:0000000000000000 .LVL0
     /tmp/ccTm4qf0.s:44     .text:0000000000000020 .LVL2
     /tmp/ccTm4qf0.s:39     .text:0000000000000018 .LVL1
     /tmp/ccTm4qf0.s:136    .text:00000000000000c4 .LVL14
     /tmp/ccTm4qf0.s:84     .text:0000000000000054 .LVL8
     /tmp/ccTm4qf0.s:112    .text:0000000000000098 .LVL12
     /tmp/ccTm4qf0.s:67     .text:000000000000003c .LVL5
     /tmp/ccTm4qf0.s:76     .text:0000000000000050 .LVL7
     /tmp/ccTm4qf0.s:387    .text:0000000000000244 .LVL42
     /tmp/ccTm4qf0.s:410    .text:0000000000000274 .LVL43
     /tmp/ccTm4qf0.s:434    .text:00000000000002a0 .LVL46
     /tmp/ccTm4qf0.s:440    .text:00000000000002ac .LVL47
     /tmp/ccTm4qf0.s:1103   .debug_info:0000000000000000 .Ldebug_info0
     /tmp/ccTm4qf0.s:47     .text:0000000000000020 .LBB4
     /tmp/ccTm4qf0.s:80     .text:0000000000000050 .LBE4
     /tmp/ccTm4qf0.s:108    .text:0000000000000090 .LBB8
     /tmp/ccTm4qf0.s:114    .text:0000000000000098 .LBE8
     /tmp/ccTm4qf0.s:180    .text:00000000000000ec .LBB12
     /tmp/ccTm4qf0.s:213    .text:000000000000011c .LBE12
     /tmp/ccTm4qf0.s:241    .text:000000000000015c .LBB16
     /tmp/ccTm4qf0.s:247    .text:0000000000000164 .LBE16

UNDEFINED SYMBOLS
_Z15thread_dispatchv
_Z11printStringPKc
_Z8printIntiii
_Z10time_sleepm
_Z13thread_createPP7_threadPFvPvES2_
_ZN7_threaddlEPv
